; ModuleID = 'wsd/Auth.cpp'
source_filename = "wsd/Auth.cpp"
target datalayout = "e-m:e-p270:32:32-p271:32:32-p272:64:64-i64:64-f80:128-n8:16:32:64-S128"
target triple = "x86_64-unknown-linux-gnu"

%"class.std::ios_base::Init" = type { i8 }
%"struct.Log::_end_marker" = type { i8 }
%"class.std::unique_ptr" = type { %"struct.std::__uniq_ptr_data" }
%"struct.std::__uniq_ptr_data" = type { %"class.std::__uniq_ptr_impl" }
%"class.std::__uniq_ptr_impl" = type { %"class.std::tuple" }
%"class.std::tuple" = type { %"struct.std::_Tuple_impl" }
%"struct.std::_Tuple_impl" = type { %"struct.std::_Head_base.1" }
%"struct.std::_Head_base.1" = type { ptr }
%"class.std::__cxx11::basic_string" = type { %"struct.std::__cxx11::basic_string<char>::_Alloc_hider", i64, %union.anon.3 }
%"struct.std::__cxx11::basic_string<char>::_Alloc_hider" = type { ptr }
%union.anon.3 = type { i64, [8 x i8] }
%"class.Poco::Net::IPAddress" = type { %"class.Poco::AutoPtr" }
%"class.Poco::AutoPtr" = type { ptr }
%"class.Poco::Net::Impl::IPv4SocketAddressImpl" = type { %"class.Poco::Net::Impl::SocketAddressImpl.base", %struct.sockaddr_in, [4 x i8] }
%"class.Poco::Net::Impl::SocketAddressImpl.base" = type { %"class.Poco::RefCountedObject.base" }
%"class.Poco::RefCountedObject.base" = type <{ ptr, %"class.Poco::AtomicCounter" }>
%"class.Poco::AtomicCounter" = type { %"struct.std::atomic" }
%"struct.std::atomic" = type { %"struct.std::__atomic_base" }
%"struct.std::__atomic_base" = type { i32 }
%struct.sockaddr_in = type { i16, i16, %struct.in_addr, [8 x i8] }
%struct.in_addr = type { i32 }
%"class.Poco::Net::Impl::IPv6SocketAddressImpl" = type { %"class.Poco::Net::Impl::SocketAddressImpl.base", %struct.sockaddr_in6 }
%struct.sockaddr_in6 = type { i16, i16, i32, %struct.in6_addr, i32 }
%struct.in6_addr = type { %union.anon }
%union.anon = type { [4 x i32] }
%"class.__gnu_cxx::__normal_iterator.7" = type { ptr }
%"class.__gnu_cxx::__normal_iterator" = type { ptr }
%"class.std::reverse_iterator" = type { %"class.__gnu_cxx::__normal_iterator" }
%class.anon = type { i8 }
%class.anon.8 = type { i8 }
%"class.std::__cxx11::basic_ostringstream" = type { %"class.std::basic_ostream.base", %"class.std::__cxx11::basic_stringbuf", %"class.std::basic_ios" }
%"class.std::basic_ostream.base" = type { ptr }
%"class.std::__cxx11::basic_stringbuf" = type { %"class.std::basic_streambuf", i32, %"class.std::__cxx11::basic_string" }
%"class.std::basic_streambuf" = type { ptr, ptr, ptr, ptr, ptr, ptr, ptr, %"class.std::locale" }
%"class.std::locale" = type { ptr }
%"class.std::basic_ios" = type { %"class.std::ios_base", ptr, i8, i8, ptr, ptr, ptr, ptr }
%"class.std::ios_base" = type { ptr, i64, i64, i32, i32, i32, ptr, %"struct.std::ios_base::_Words", [8 x %"struct.std::ios_base::_Words"], i32, ptr, %"class.std::locale" }
%"struct.std::ios_base::_Words" = type { ptr, i64 }
%"class.std::allocator" = type { i8 }
%"class.Poco::Message" = type { %"class.std::__cxx11::basic_string", %"class.std::__cxx11::basic_string", i32, %"class.Poco::Timestamp", i64, %"class.std::__cxx11::basic_string", i64, ptr, i32, ptr }
%"class.Poco::Timestamp" = type { i64 }
%"class.std::vector" = type { %"struct.std::_Vector_base" }
%"struct.std::_Vector_base" = type { %"struct.std::_Vector_base<unsigned char, std::allocator<unsigned char>>::_Vector_impl" }
%"struct.std::_Vector_base<unsigned char, std::allocator<unsigned char>>::_Vector_impl" = type { %"struct.std::_Vector_base<unsigned char, std::allocator<unsigned char>>::_Vector_impl_data" }
%"struct.std::_Vector_base<unsigned char, std::allocator<unsigned char>>::_Vector_impl_data" = type { ptr, ptr, ptr }
%"class.Poco::OutputLineEndingConverter" = type { %"class.Poco::LineEndingConverterIOS.base", %"class.std::basic_ostream.base", %"class.std::basic_ios" }
%"class.Poco::LineEndingConverterIOS.base" = type { ptr, %"class.Poco::LineEndingConverterStreamBuf" }
%"class.Poco::LineEndingConverterStreamBuf" = type <{ %"class.Poco::BasicUnbufferedStreamBuf.base", [3 x i8], ptr, ptr, %"class.std::__cxx11::basic_string", %"class.__gnu_cxx::__normal_iterator.7", i8, [7 x i8] }>
%"class.Poco::BasicUnbufferedStreamBuf.base" = type <{ %"class.std::basic_streambuf", i32, i8 }>
%"class.Poco::Base64Encoder" = type { %"class.Poco::Base64EncoderIOS.base", %"class.std::basic_ostream.base", %"class.std::basic_ios" }
%"class.Poco::Base64EncoderIOS.base" = type { ptr, %"class.Poco::Base64EncoderBuf" }
%"class.Poco::Base64EncoderBuf" = type { %"class.Poco::BasicUnbufferedStreamBuf.base", i32, [3 x i8], i32, i32, i32, ptr, ptr }
%"class.__gnu_cxx::__normal_iterator.14" = type { ptr }
%class.anon.15 = type { i8 }
%class.JWTAuth = type { %class.AuthBase, %"class.std::__cxx11::basic_string", %"class.std::__cxx11::basic_string", %"class.std::__cxx11::basic_string", %"class.std::__cxx11::basic_string", %"class.std::__cxx11::basic_string", %"class.std::__cxx11::basic_string", %"class.Poco::Crypto::RSADigestEngine" }
%class.AuthBase = type { ptr }
%"class.Poco::Crypto::RSADigestEngine" = type { %"class.Poco::DigestEngine", %"class.Poco::Crypto::RSAKey", %"class.Poco::Crypto::DigestEngine", %"class.std::vector", %"class.std::vector" }
%"class.Poco::DigestEngine" = type { ptr }
%"class.Poco::Crypto::RSAKey" = type { %"class.Poco::Crypto::KeyPair" }
%"class.Poco::Crypto::KeyPair" = type { ptr, %"class.Poco::AutoPtr.2" }
%"class.Poco::AutoPtr.2" = type { ptr }
%"class.Poco::Crypto::DigestEngine" = type <{ %"class.Poco::DigestEngine", %"class.std::__cxx11::basic_string", ptr, %"class.std::vector", %"class.Poco::Crypto::OpenSSLInitializer", [7 x i8] }>
%"class.Poco::Crypto::OpenSSLInitializer" = type { i8 }
%"struct.std::chrono::time_point" = type { %"struct.std::chrono::duration" }
%"struct.std::chrono::duration" = type { i64 }
%"struct.__gnu_cxx::__ops::_Iter_pred" = type { %class.anon }
%"struct.__gnu_cxx::__ops::_Iter_pred.71" = type { %class.anon.8 }
%"class.Poco::Logger" = type <{ %"class.Poco::Channel.base", [4 x i8], %"class.std::__cxx11::basic_string", %"class.Poco::AutoPtr.10", i32, [4 x i8] }>
%"class.Poco::Channel.base" = type <{ %"class.Poco::Configurable", %"class.Poco::RefCountedObject.base" }>
%"class.Poco::Configurable" = type { ptr }
%"class.Poco::AutoPtr.10" = type { ptr }
%"class.Poco::LocalDateTime" = type <{ %"class.Poco::DateTime", i32, [4 x i8] }>
%"class.Poco::DateTime" = type { i64, i16, i16, i16, i16, i16, i16, i16, i16 }
%"struct.std::forward_iterator_tag" = type { i8 }
%"struct.std::random_access_iterator_tag" = type { i8 }
%"class.std::allocator.4" = type { i8 }
%"class.__gnu_cxx::__normal_iterator.72" = type { ptr }
%"struct.__gnu_cxx::__ops::_Iter_pred.73" = type { %class.anon.15 }
%class.StringVector = type { %"class.std::__cxx11::basic_string", %"class.std::vector.17" }
%"class.std::vector.17" = type { %"struct.std::_Vector_base.18" }
%"struct.std::_Vector_base.18" = type { %"struct.std::_Vector_base<StringToken, std::allocator<StringToken>>::_Vector_impl" }
%"struct.std::_Vector_base<StringToken, std::allocator<StringToken>>::_Vector_impl" = type { %"struct.std::_Vector_base<StringToken, std::allocator<StringToken>>::_Vector_impl_data" }
%"struct.std::_Vector_base<StringToken, std::allocator<StringToken>>::_Vector_impl_data" = type { ptr, ptr, ptr }
%class.anon.22 = type { i8 }
%"class.std::__cxx11::basic_istringstream" = type { %"class.std::basic_istream.base", %"class.std::__cxx11::basic_stringbuf", %"class.std::basic_ios" }
%"class.std::basic_istream.base" = type { ptr, i64 }
%"class.Poco::Base64Decoder" = type { %"class.Poco::Base64DecoderIOS.base", %"class.std::basic_istream.base", %"class.std::basic_ios" }
%"class.Poco::Base64DecoderIOS.base" = type { ptr, %"class.Poco::Base64DecoderBuf" }
%"class.Poco::Base64DecoderBuf" = type { %"class.Poco::BasicUnbufferedStreamBuf.base", i32, [3 x i8], i32, i32, ptr, ptr }
%"class.Poco::JSON::Parser" = type { %"class.Poco::JSON::ParserImpl.base", [5 x i8] }
%"class.Poco::JSON::ParserImpl.base" = type <{ ptr, ptr, %"class.Poco::SharedPtr", i64, i8, i8, i8 }>
%"class.Poco::SharedPtr" = type { ptr, ptr }
%"class.Poco::Dynamic::Var" = type { ptr }
%"class.Poco::SharedPtr.27" = type { ptr, ptr }
%struct.StringToken = type { i64, i64 }
%"struct.__gnu_cxx::__ops::_Iter_pred.74" = type { %class.anon.22 }
%"struct.std::chrono::duration.70" = type { i64 }
%"class.Poco::URI" = type { %"class.std::__cxx11::basic_string", %"class.std::__cxx11::basic_string", %"class.std::__cxx11::basic_string", i16, %"class.std::__cxx11::basic_string", %"class.std::__cxx11::basic_string", %"class.std::__cxx11::basic_string" }
%"class.Poco::Net::HTTPClientSession" = type <{ %"class.Poco::Net::HTTPSession", %"class.std::__cxx11::basic_string", i16, [6 x i8], %"struct.Poco::Net::HTTPClientSession::ProxyConfig", %"class.Poco::Timespan", %"class.Poco::Timestamp", i8, i8, i8, i8, [4 x i8], %"class.Poco::SharedPtr.53", %"class.Poco::SharedPtr.54", %"class.Poco::Net::HTTPBasicCredentials", %"class.Poco::Net::HTTPDigestCredentials", %"class.Poco::Net::HTTPNTLMCredentials", i8, [7 x i8] }>
%"class.Poco::Net::HTTPSession" = type { ptr, %"class.Poco::Net::StreamSocket", ptr, ptr, ptr, i8, %"class.Poco::Timespan", %"class.Poco::Timespan", %"class.Poco::Timespan", ptr, %"class.Poco::Any" }
%"class.Poco::Net::StreamSocket" = type { %"class.Poco::Net::Socket" }
%"class.Poco::Net::Socket" = type { ptr, ptr }
%"class.Poco::Any" = type { ptr }
%"struct.Poco::Net::HTTPClientSession::ProxyConfig" = type <{ %"class.std::__cxx11::basic_string", i16, [6 x i8], %"class.std::__cxx11::basic_string", %"class.std::__cxx11::basic_string", %"class.std::__cxx11::basic_string", i32, [4 x i8] }>
%"class.Poco::Timespan" = type { i64 }
%"class.Poco::SharedPtr.53" = type { ptr, ptr }
%"class.Poco::SharedPtr.54" = type { ptr, ptr }
%"class.Poco::Net::HTTPBasicCredentials" = type { %"class.std::__cxx11::basic_string", %"class.std::__cxx11::basic_string" }
%"class.Poco::Net::HTTPDigestCredentials" = type { %"class.std::__cxx11::basic_string", %"class.std::__cxx11::basic_string", %"class.Poco::Net::HTTPAuthenticationParams", %"class.std::map.62" }
%"class.Poco::Net::HTTPAuthenticationParams" = type { %"class.Poco::Net::NameValueCollection" }
%"class.Poco::Net::NameValueCollection" = type { ptr, %"class.Poco::ListMap" }
%"class.Poco::ListMap" = type { %"class.std::vector.55" }
%"class.std::vector.55" = type { %"struct.std::_Vector_base.56" }
%"struct.std::_Vector_base.56" = type { %"struct.std::_Vector_base<std::pair<std::__cxx11::basic_string<char>, std::__cxx11::basic_string<char>>, std::allocator<std::pair<std::__cxx11::basic_string<char>, std::__cxx11::basic_string<char>>>>::_Vector_impl" }
%"struct.std::_Vector_base<std::pair<std::__cxx11::basic_string<char>, std::__cxx11::basic_string<char>>, std::allocator<std::pair<std::__cxx11::basic_string<char>, std::__cxx11::basic_string<char>>>>::_Vector_impl" = type { %"struct.std::_Vector_base<std::pair<std::__cxx11::basic_string<char>, std::__cxx11::basic_string<char>>, std::allocator<std::pair<std::__cxx11::basic_string<char>, std::__cxx11::basic_string<char>>>>::_Vector_impl_data" }
%"struct.std::_Vector_base<std::pair<std::__cxx11::basic_string<char>, std::__cxx11::basic_string<char>>, std::allocator<std::pair<std::__cxx11::basic_string<char>, std::__cxx11::basic_string<char>>>>::_Vector_impl_data" = type { ptr, ptr, ptr }
%"class.std::map.62" = type { %"class.std::_Rb_tree.63" }
%"class.std::_Rb_tree.63" = type { %"struct.std::_Rb_tree<std::__cxx11::basic_string<char>, std::pair<const std::__cxx11::basic_string<char>, int>, std::_Select1st<std::pair<const std::__cxx11::basic_string<char>, int>>, std::less<std::__cxx11::basic_string<char>>>::_Rb_tree_impl" }
%"struct.std::_Rb_tree<std::__cxx11::basic_string<char>, std::pair<const std::__cxx11::basic_string<char>, int>, std::_Select1st<std::pair<const std::__cxx11::basic_string<char>, int>>, std::less<std::__cxx11::basic_string<char>>>::_Rb_tree_impl" = type { %"struct.std::_Rb_tree_key_compare", %"struct.std::_Rb_tree_header" }
%"struct.std::_Rb_tree_key_compare" = type { %"struct.std::less" }
%"struct.std::less" = type { i8 }
%"struct.std::_Rb_tree_header" = type { %"struct.std::_Rb_tree_node_base", i64 }
%"struct.std::_Rb_tree_node_base" = type { i32, ptr, ptr, ptr }
%"class.Poco::Net::HTTPNTLMCredentials" = type { %"class.std::__cxx11::basic_string", %"class.std::__cxx11::basic_string", %"class.std::__cxx11::basic_string", %"class.Poco::SharedPtr.67" }
%"class.Poco::SharedPtr.67" = type { ptr, ptr }
%"class.Poco::Net::HTTPRequest" = type { %"class.Poco::Net::HTTPMessage", %"class.std::__cxx11::basic_string", %"class.std::__cxx11::basic_string" }
%"class.Poco::Net::HTTPMessage" = type { %"class.Poco::Net::MessageHeader.base", %"class.std::__cxx11::basic_string" }
%"class.Poco::Net::MessageHeader.base" = type <{ %"class.Poco::Net::NameValueCollection", i32 }>
%"class.Poco::Net::HTTPResponse" = type { %"class.Poco::Net::HTTPMessage", i32, %"class.std::__cxx11::basic_string" }
%"class.std::istreambuf_iterator" = type <{ ptr, i32, [4 x i8] }>
%class.OAuth = type { %class.AuthBase, %"class.std::__cxx11::basic_string", %"class.std::__cxx11::basic_string", %"class.std::__cxx11::basic_string", %"class.std::__cxx11::basic_string", %"class.std::__cxx11::basic_string" }
%"class.__gnu_cxx::__normal_iterator.69" = type { ptr }
%"struct.std::integral_constant" = type { i8 }
%"class.Poco::ReferenceCounter" = type { %"class.Poco::AtomicCounter" }
%"struct.std::__false_type" = type { i8 }
%"class.std::type_info" = type { ptr, ptr }
%"class.Poco::Dynamic::VarHolderImpl" = type { %"class.Poco::Dynamic::VarHolder", %"class.Poco::SharedPtr.27" }
%"class.Poco::Dynamic::VarHolder" = type { ptr }
%"class.std::vector.75" = type { %"struct.std::_Vector_base.76" }
%"struct.std::_Vector_base.76" = type { %"struct.std::_Vector_base<Poco::Any, std::allocator<Poco::Any>>::_Vector_impl" }
%"struct.std::_Vector_base<Poco::Any, std::allocator<Poco::Any>>::_Vector_impl" = type { %"struct.std::_Vector_base<Poco::Any, std::allocator<Poco::Any>>::_Vector_impl_data" }
%"struct.std::_Vector_base<Poco::Any, std::allocator<Poco::Any>>::_Vector_impl_data" = type { ptr, ptr, ptr }
%"class.__gnu_cxx::__normal_iterator.81" = type { ptr }
%"class.__gnu_cxx::__normal_iterator.80" = type { ptr }
%"class.std::initializer_list" = type { ptr, i64 }
%"class.std::move_iterator" = type { ptr }
%"class.Poco::Any::Holder" = type { %"class.Poco::Any::ValueHolder", %"class.std::__cxx11::basic_string" }
%"class.Poco::Any::ValueHolder" = type { ptr }
%"class.Poco::Util::Application" = type { %"class.Poco::Util::Subsystem.base", %"class.Poco::AutoPtr.113", %"class.std::vector.114", i8, %"class.std::__cxx11::basic_string", %"class.std::vector.120", %"class.std::vector.120", %"class.Poco::Util::OptionSet", i8, ptr, %"class.Poco::Timestamp", i8, %"class.std::__cxx11::basic_string" }
%"class.Poco::Util::Subsystem.base" = type { %"class.Poco::RefCountedObject.base" }
%"class.Poco::AutoPtr.113" = type { ptr }
%"class.std::vector.114" = type { %"struct.std::_Vector_base.115" }
%"struct.std::_Vector_base.115" = type { %"struct.std::_Vector_base<Poco::AutoPtr<Poco::Util::Subsystem>, std::allocator<Poco::AutoPtr<Poco::Util::Subsystem>>>::_Vector_impl" }
%"struct.std::_Vector_base<Poco::AutoPtr<Poco::Util::Subsystem>, std::allocator<Poco::AutoPtr<Poco::Util::Subsystem>>>::_Vector_impl" = type { %"struct.std::_Vector_base<Poco::AutoPtr<Poco::Util::Subsystem>, std::allocator<Poco::AutoPtr<Poco::Util::Subsystem>>>::_Vector_impl_data" }
%"struct.std::_Vector_base<Poco::AutoPtr<Poco::Util::Subsystem>, std::allocator<Poco::AutoPtr<Poco::Util::Subsystem>>>::_Vector_impl_data" = type { ptr, ptr, ptr }
%"class.std::vector.120" = type { %"struct.std::_Vector_base.121" }
%"struct.std::_Vector_base.121" = type { %"struct.std::_Vector_base<std::__cxx11::basic_string<char>, std::allocator<std::__cxx11::basic_string<char>>>::_Vector_impl" }
%"struct.std::_Vector_base<std::__cxx11::basic_string<char>, std::allocator<std::__cxx11::basic_string<char>>>::_Vector_impl" = type { %"struct.std::_Vector_base<std::__cxx11::basic_string<char>, std::allocator<std::__cxx11::basic_string<char>>>::_Vector_impl_data" }
%"struct.std::_Vector_base<std::__cxx11::basic_string<char>, std::allocator<std::__cxx11::basic_string<char>>>::_Vector_impl_data" = type { ptr, ptr, ptr }
%"class.Poco::Util::OptionSet" = type { %"class.std::vector.125" }
%"class.std::vector.125" = type { %"struct.std::_Vector_base.126" }
%"struct.std::_Vector_base.126" = type { %"struct.std::_Vector_base<Poco::Util::Option, std::allocator<Poco::Util::Option>>::_Vector_impl" }
%"struct.std::_Vector_base<Poco::Util::Option, std::allocator<Poco::Util::Option>>::_Vector_impl" = type { %"struct.std::_Vector_base<Poco::Util::Option, std::allocator<Poco::Util::Option>>::_Vector_impl_data" }
%"struct.std::_Vector_base<Poco::Util::Option, std::allocator<Poco::Util::Option>>::_Vector_impl_data" = type { ptr, ptr, ptr }
%"class.COOLWSD::ConfigValueGetter" = type { ptr, ptr }
%"struct.std::input_iterator_tag" = type { i8 }

$_ZNK4Poco3Net4Impl21IPv4SocketAddressImpl4hostEv = comdat any

$_ZNK4Poco3Net4Impl21IPv6SocketAddressImpl4hostEv = comdat any

$_ZN3Log11_end_markerC2Ev = comdat any

$_ZNSt10unique_ptrIN4Poco6Crypto6RSAKeyESt14default_deleteIS2_EEC2IS4_vEEPS2_ = comdat any

$_ZNSt10unique_ptrIN4Poco6Crypto6RSAKeyESt14default_deleteIS2_EED2Ev = comdat any

$_ZNSt10unique_ptrIN4Poco6Crypto6RSAKeyESt14default_deleteIS2_EE5resetEPS2_ = comdat any

$_ZNKSt16reverse_iteratorIN9__gnu_cxx17__normal_iteratorIPcNSt7__cxx1112basic_stringIcSt11char_traitsIcESaIcEEEEEE4baseEv = comdat any

$_ZN9__gnu_cxx17__normal_iteratorIPKcNSt7__cxx1112basic_stringIcSt11char_traitsIcESaIcEEEEC2IPcEERKNS0_IT_NS_11__enable_ifIXsr3std10__are_sameISC_SB_EE7__valueES8_E6__typeEEE = comdat any

$_ZN3Log16isShutdownCalledEv = comdat any

$_ZNK4Poco6Logger11informationEv = comdat any

$_ZN3Log6prefixILi1023EEEPcS1_PKc = comdat any

$_ZNSt7__cxx1112basic_stringIcSt11char_traitsIcESaIcEEC2IS3_EEPKcRKS3_ = comdat any

$_ZSt9boolalphaRSt8ios_base = comdat any

$_ZNK4Poco6Logger4nameB5cxx11Ev = comdat any

$_ZSt7replaceIN9__gnu_cxx17__normal_iteratorIPcNSt7__cxx1112basic_stringIcSt11char_traitsIcESaIcEEEEEcEvT_SA_RKT0_SD_ = comdat any

$_ZStplIcSt11char_traitsIcESaIcEENSt7__cxx1112basic_stringIT_T0_T1_EEOS8_RKS8_ = comdat any

$_ZStplIcSt11char_traitsIcESaIcEENSt7__cxx1112basic_stringIT_T0_T1_EERKS8_S5_ = comdat any

$_ZN4Poco12DigestEngine6updateEPKvm = comdat any

$_ZNSt6vectorIhSaIhEEC2ERKS1_ = comdat any

$_ZNSt6vectorIhSaIhEE5beginEv = comdat any

$_ZNSt6vectorIhSaIhEE3endEv = comdat any

$_ZNSt7__cxx1112basic_stringIcSt11char_traitsIcESaIcEEC2IN9__gnu_cxx17__normal_iteratorIPhSt6vectorIhSaIhEEEEvEET_SD_RKS3_ = comdat any

$_ZNSt6vectorIhSaIhEED2Ev = comdat any

$_ZN4Util8tokenizeERKNSt7__cxx1112basic_stringIcSt11char_traitsIcESaIcEEEc = comdat any

$_ZNK12StringVector4sizeEv = comdat any

$_ZNK4Poco6Logger5errorEv = comdat any

$_ZStplIcSt11char_traitsIcESaIcEENSt7__cxx1112basic_stringIT_T0_T1_EEOS8_S9_ = comdat any

$_ZStplIcSt11char_traitsIcESaIcEENSt7__cxx1112basic_stringIT_T0_T1_EEOS8_S5_ = comdat any

$_ZNK12StringVectorixB5cxx11Em = comdat any

$_ZStneIcSt11char_traitsIcESaIcEEbRKNSt7__cxx1112basic_stringIT_T0_T1_EESA_ = comdat any

$_ZN4Poco9SharedPtrINS_4JSON7HandlerENS_16ReferenceCounterENS_13ReleasePolicyIS2_EEEC2EPS2_ = comdat any

$_ZN4Poco9SharedPtrINS_4JSON7HandlerENS_16ReferenceCounterENS_13ReleasePolicyIS2_EEED2Ev = comdat any

$_ZN4Poco4JSON6Parser5parseERKNSt7__cxx1112basic_stringIcSt11char_traitsIcESaIcEEE = comdat any

$_ZNK4Poco7Dynamic3Var7extractINS_9SharedPtrINS_4JSON6ObjectENS_16ReferenceCounterENS_13ReleasePolicyIS5_EEEEEERKT_v = comdat any

$_ZN4Poco9SharedPtrINS_4JSON6ObjectENS_16ReferenceCounterENS_13ReleasePolicyIS2_EEEC2ERKS6_ = comdat any

$_ZN4Poco9SharedPtrINS_4JSON6ObjectENS_16ReferenceCounterENS_13ReleasePolicyIS2_EEEptEv = comdat any

$_ZNK4Poco7Dynamic3Var7convertIlEEvRT_ = comdat any

$_ZNSt6chrono3_V212system_clock9to_time_tERKNS_10time_pointIS1_NS_8durationIlSt5ratioILl1ELl1000000000EEEEEE = comdat any

$_ZNK4Poco6Logger5traceEv = comdat any

$_ZN4Poco9SharedPtrINS_4JSON6ObjectENS_16ReferenceCounterENS_13ReleasePolicyIS2_EEED2Ev = comdat any

$__clang_call_terminate = comdat any

$_ZN12StringVectorD2Ev = comdat any

$_ZStplIcSt11char_traitsIcESaIcEENSt7__cxx1112basic_stringIT_T0_T1_EEOS8_PKS5_ = comdat any

$_ZStplIcSt11char_traitsIcESaIcEENSt7__cxx1112basic_stringIT_T0_T1_EEPKS5_RKS8_ = comdat any

$_ZN7COOLWSD14getConfigValueIiEET_RKNSt7__cxx1112basic_stringIcSt11char_traitsIcESaIcEEES1_ = comdat any

$_ZNSt7__cxx119to_stringEl = comdat any

$_ZStplIcSt11char_traitsIcESaIcEENSt7__cxx1112basic_stringIT_T0_T1_EERKS8_PKS5_ = comdat any

$_ZNK4Poco3URI7getHostB5cxx11Ev = comdat any

$_ZNK4Poco3Net12HTTPResponse9getStatusEv = comdat any

$_ZNK4Poco3Net12HTTPResponse9getReasonB5cxx11Ev = comdat any

$_ZNSt19istreambuf_iteratorIcSt11char_traitsIcEEC2ERSi = comdat any

$_ZNSt19istreambuf_iteratorIcSt11char_traitsIcEEC2Ev = comdat any

$_ZNSt7__cxx1112basic_stringIcSt11char_traitsIcESaIcEEC2ISt19istreambuf_iteratorIcS2_EvEET_S8_RKS3_ = comdat any

$_ZStplIcSt11char_traitsIcESaIcEENSt7__cxx1112basic_stringIT_T0_T1_EERKS8_SA_ = comdat any

$_ZNK4Poco6Logger5debugEv = comdat any

$_ZN7JWTAuthD2Ev = comdat any

$_ZN7JWTAuthD0Ev = comdat any

$_ZN5OAuthD2Ev = comdat any

$_ZN5OAuthD0Ev = comdat any

$_ZN4Poco3Net4Impl21IPv4SocketAddressImplD2Ev = comdat any

$_ZN4Poco3Net4Impl21IPv4SocketAddressImplD0Ev = comdat any

$_ZNK4Poco3Net4Impl21IPv4SocketAddressImpl4portEv = comdat any

$_ZNK4Poco3Net4Impl21IPv4SocketAddressImpl6lengthEv = comdat any

$_ZNK4Poco3Net4Impl21IPv4SocketAddressImpl4addrEv = comdat any

$_ZNK4Poco3Net4Impl21IPv4SocketAddressImpl2afEv = comdat any

$_ZNK4Poco3Net4Impl21IPv4SocketAddressImpl6familyEv = comdat any

$_ZN4Poco3Net4Impl21IPv6SocketAddressImplD2Ev = comdat any

$_ZN4Poco3Net4Impl21IPv6SocketAddressImplD0Ev = comdat any

$_ZNK4Poco3Net4Impl21IPv6SocketAddressImpl4portEv = comdat any

$_ZNK4Poco3Net4Impl21IPv6SocketAddressImpl6lengthEv = comdat any

$_ZNK4Poco3Net4Impl21IPv6SocketAddressImpl4addrEv = comdat any

$_ZNK4Poco3Net4Impl21IPv6SocketAddressImpl2afEv = comdat any

$_ZNK4Poco3Net4Impl21IPv6SocketAddressImpl6familyEv = comdat any

$_ZNSt8ios_base4setfESt13_Ios_Fmtflags = comdat any

$_ZStoRRSt13_Ios_FmtflagsS_ = comdat any

$_ZStorSt13_Ios_FmtflagsS_ = comdat any

$_ZN12StringVectorC2Ev = comdat any

$_ZNSt6vectorI11StringTokenSaIS0_EEC2Ev = comdat any

$_ZN4Util8tokenizeEPKcmcRSt6vectorI11StringTokenSaIS3_EE = comdat any

$_ZNSt6vectorI11StringTokenSaIS0_EEC2EOS2_ = comdat any

$_ZN12StringVectorC2ENSt7__cxx1112basic_stringIcSt11char_traitsIcESaIcEEESt6vectorI11StringTokenSaIS7_EE = comdat any

$_ZNSt6vectorI11StringTokenSaIS0_EED2Ev = comdat any

$_ZNSt12_Vector_baseI11StringTokenSaIS0_EEC2Ev = comdat any

$_ZNSt12_Vector_baseI11StringTokenSaIS0_EE12_Vector_implC2Ev = comdat any

$_ZNSaI11StringTokenEC2Ev = comdat any

$_ZNSt12_Vector_baseI11StringTokenSaIS0_EE17_Vector_impl_dataC2Ev = comdat any

$_ZN9__gnu_cxx13new_allocatorI11StringTokenEC2Ev = comdat any

$_ZNSt6vectorI11StringTokenSaIS0_EE7reserveEm = comdat any

$_ZNSt6vectorI11StringTokenSaIS0_EE12emplace_backIJllEEERS0_DpOT_ = comdat any

$_ZNKSt6vectorI11StringTokenSaIS0_EE8max_sizeEv = comdat any

$_ZNKSt6vectorI11StringTokenSaIS0_EE8capacityEv = comdat any

$_ZNKSt6vectorI11StringTokenSaIS0_EE4sizeEv = comdat any

$_ZNSt12_Vector_baseI11StringTokenSaIS0_EE11_M_allocateEm = comdat any

$_ZNSt6vectorI11StringTokenSaIS0_EE11_S_relocateEPS0_S3_S3_RS1_ = comdat any

$_ZNSt12_Vector_baseI11StringTokenSaIS0_EE19_M_get_Tp_allocatorEv = comdat any

$_ZNSt12_Vector_baseI11StringTokenSaIS0_EE13_M_deallocateEPS0_m = comdat any

$_ZNSt6vectorI11StringTokenSaIS0_EE11_S_max_sizeERKS1_ = comdat any

$_ZNKSt12_Vector_baseI11StringTokenSaIS0_EE19_M_get_Tp_allocatorEv = comdat any

$_ZNSt16allocator_traitsISaI11StringTokenEE8max_sizeERKS1_ = comdat any

$_ZSt3minImERKT_S2_S2_ = comdat any

$_ZNK9__gnu_cxx13new_allocatorI11StringTokenE8max_sizeEv = comdat any

$_ZNK9__gnu_cxx13new_allocatorI11StringTokenE11_M_max_sizeEv = comdat any

$_ZNSt16allocator_traitsISaI11StringTokenEE8allocateERS1_m = comdat any

$_ZN9__gnu_cxx13new_allocatorI11StringTokenE8allocateEmPKv = comdat any

$_ZNSt6vectorI11StringTokenSaIS0_EE14_S_do_relocateEPS0_S3_S3_RS1_St17integral_constantIbLb1EE = comdat any

$_ZSt12__relocate_aIP11StringTokenS1_SaIS0_EET0_T_S4_S3_RT1_ = comdat any

$_ZSt14__relocate_a_1I11StringTokenS0_ENSt9enable_ifIXsr3std24__is_bitwise_relocatableIT_EE5valueEPS2_E4typeES3_S3_S3_RSaIT0_E = comdat any

$_ZSt12__niter_baseIP11StringTokenET_S2_ = comdat any

$_ZNSt16allocator_traitsISaI11StringTokenEE10deallocateERS1_PS0_m = comdat any

$_ZN9__gnu_cxx13new_allocatorI11StringTokenE10deallocateEPS1_m = comdat any

$_ZNSt16allocator_traitsISaI11StringTokenEE9constructIS0_JllEEEvRS1_PT_DpOT0_ = comdat any

$_ZNSt6vectorI11StringTokenSaIS0_EE17_M_realloc_insertIJllEEEvN9__gnu_cxx17__normal_iteratorIPS0_S2_EEDpOT_ = comdat any

$_ZNSt6vectorI11StringTokenSaIS0_EE3endEv = comdat any

$_ZNSt6vectorI11StringTokenSaIS0_EE4backEv = comdat any

$_ZN9__gnu_cxx13new_allocatorI11StringTokenE9constructIS1_JllEEEvPT_DpOT0_ = comdat any

$_ZN11StringTokenC2Emm = comdat any

$_ZNKSt6vectorI11StringTokenSaIS0_EE12_M_check_lenEmPKc = comdat any

$_ZN9__gnu_cxxmiIP11StringTokenSt6vectorIS1_SaIS1_EEEENS_17__normal_iteratorIT_T0_E15difference_typeERKS9_SC_ = comdat any

$_ZNSt6vectorI11StringTokenSaIS0_EE5beginEv = comdat any

$_ZNK9__gnu_cxx17__normal_iteratorIP11StringTokenSt6vectorIS1_SaIS1_EEE4baseEv = comdat any

$_ZNSt16allocator_traitsISaI11StringTokenEE7destroyIS0_EEvRS1_PT_ = comdat any

$_ZSt8_DestroyIP11StringTokenS0_EvT_S2_RSaIT0_E = comdat any

$_ZSt3maxImERKT_S2_S2_ = comdat any

$_ZN9__gnu_cxx17__normal_iteratorIP11StringTokenSt6vectorIS1_SaIS1_EEEC2ERKS2_ = comdat any

$_ZN9__gnu_cxx13new_allocatorI11StringTokenE7destroyIS1_EEvPT_ = comdat any

$_ZSt8_DestroyIP11StringTokenEvT_S2_ = comdat any

$_ZNSt12_Destroy_auxILb1EE9__destroyIP11StringTokenEEvT_S4_ = comdat any

$_ZNK9__gnu_cxx17__normal_iteratorIP11StringTokenSt6vectorIS1_SaIS1_EEEmiEl = comdat any

$_ZNK9__gnu_cxx17__normal_iteratorIP11StringTokenSt6vectorIS1_SaIS1_EEEdeEv = comdat any

$_ZNSt12_Vector_baseI11StringTokenSaIS0_EEC2EOS2_ = comdat any

$_ZNSt12_Vector_baseI11StringTokenSaIS0_EE12_Vector_implC2EOS3_ = comdat any

$_ZNSaI11StringTokenEC2ERKS0_ = comdat any

$_ZNSt12_Vector_baseI11StringTokenSaIS0_EE17_Vector_impl_dataC2EOS3_ = comdat any

$_ZN9__gnu_cxx13new_allocatorI11StringTokenEC2ERKS2_ = comdat any

$_ZNSt12_Vector_baseI11StringTokenSaIS0_EED2Ev = comdat any

$_ZNSt12_Vector_baseI11StringTokenSaIS0_EE12_Vector_implD2Ev = comdat any

$_ZNSaI11StringTokenED2Ev = comdat any

$_ZN9__gnu_cxx13new_allocatorI11StringTokenED2Ev = comdat any

$_ZNKSt6vectorI11StringTokenSaIS0_EEixEm = comdat any

$_ZNSt6chrono13duration_castINS_8durationIlSt5ratioILl1ELl1EEEElS2_ILl1ELl1000000000EEEENSt9enable_ifIXsr13__is_durationIT_EE5valueES7_E4typeERKNS1_IT0_T1_EE = comdat any

$_ZNKSt6chrono10time_pointINS_3_V212system_clockENS_8durationIlSt5ratioILl1ELl1000000000EEEEE16time_since_epochEv = comdat any

$_ZNKSt6chrono8durationIlSt5ratioILl1ELl1EEE5countEv = comdat any

$_ZNSt6chrono20__duration_cast_implINS_8durationIlSt5ratioILl1ELl1EEEES2_ILl1ELl1000000000EElLb1ELb0EE6__castIlS5_EES4_RKNS1_IT_T0_EE = comdat any

$_ZNKSt6chrono8durationIlSt5ratioILl1ELl1000000000EEE5countEv = comdat any

$_ZNSt6chrono8durationIlSt5ratioILl1ELl1EEEC2IlvEERKT_ = comdat any

$_ZNSt8__detail14__to_chars_lenImEEjT_i = comdat any

$_ZNSt7__cxx1112basic_stringIcSt11char_traitsIcESaIcEEC2IS3_EEmcRKS3_ = comdat any

$_ZNSt8__detail18__to_chars_10_implImEEvPcjT_ = comdat any

$_ZNSt7__cxx1112basic_stringIcSt11char_traitsIcESaIcEE12_Alloc_hiderD2Ev = comdat any

$_ZNSt11char_traitsIcE3eofEv = comdat any

$_ZN8AuthBaseD2Ev = comdat any

$_ZNSt11char_traitsIcE6lengthEPKc = comdat any

$_ZNSt7__cxx1112basic_stringIcSt11char_traitsIcESaIcEE12_M_constructIPKcEEvT_S8_St20forward_iterator_tag = comdat any

$_ZN9__gnu_cxx11char_traitsIcE6lengthEPKc = comdat any

$_ZN9__gnu_cxx11char_traitsIcE2eqERKcS3_ = comdat any

$_ZN9__gnu_cxx17__is_null_pointerIKcEEbPT_ = comdat any

$_ZSt8distanceIPKcENSt15iterator_traitsIT_E15difference_typeES3_S3_ = comdat any

$_ZSt10__distanceIPKcENSt15iterator_traitsIT_E15difference_typeES3_S3_St26random_access_iterator_tag = comdat any

$_ZSt19__iterator_categoryIPKcENSt15iterator_traitsIT_E17iterator_categoryERKS3_ = comdat any

$_ZSteqIcEN9__gnu_cxx11__enable_ifIXsr9__is_charIT_EE7__valueEbE6__typeERKNSt7__cxx1112basic_stringIS2_St11char_traitsIS2_ESaIS2_EEESC_ = comdat any

$_ZNSt11char_traitsIcE7compareEPKcS2_m = comdat any

$_ZNSt11char_traitsIcE2ltERKcS2_ = comdat any

$_ZN4Poco16ReferenceCounter9duplicateEv = comdat any

$_ZN4Poco13AtomicCounterppEv = comdat any

$_ZNSt13__atomic_baseIiEppEv = comdat any

$_ZN4Poco9SharedPtrINS_4JSON6ObjectENS_16ReferenceCounterENS_13ReleasePolicyIS2_EEE7releaseEv = comdat any

$_ZN4Poco16ReferenceCounter7releaseEv = comdat any

$_ZN4Poco13ReleasePolicyINS_4JSON6ObjectEE7releaseEPS2_ = comdat any

$_ZN4Poco16ReferenceCounterD2Ev = comdat any

$_ZN4Poco13AtomicCountermmEv = comdat any

$_ZNSt13__atomic_baseIiEmmEv = comdat any

$_ZSt8_DestroyIPhhEvT_S1_RSaIT0_E = comdat any

$_ZNSt12_Vector_baseIhSaIhEE19_M_get_Tp_allocatorEv = comdat any

$_ZNSt12_Vector_baseIhSaIhEED2Ev = comdat any

$_ZSt8_DestroyIPhEvT_S1_ = comdat any

$_ZNSt12_Destroy_auxILb1EE9__destroyIPhEEvT_S3_ = comdat any

$_ZNSt12_Vector_baseIhSaIhEE13_M_deallocateEPhm = comdat any

$_ZNSt12_Vector_baseIhSaIhEE12_Vector_implD2Ev = comdat any

$_ZNSt16allocator_traitsISaIhEE10deallocateERS0_Phm = comdat any

$_ZN9__gnu_cxx13new_allocatorIhE10deallocateEPhm = comdat any

$_ZN9__gnu_cxx13new_allocatorIhED2Ev = comdat any

$_ZNK9__gnu_cxx17__normal_iteratorIPcNSt7__cxx1112basic_stringIcSt11char_traitsIcESaIcEEEE4baseEv = comdat any

$_ZNSt15__uniq_ptr_dataIN4Poco6Crypto6RSAKeyESt14default_deleteIS2_ELb1ELb1EECI2St15__uniq_ptr_implIS2_S4_EEPS2_ = comdat any

$_ZNSt15__uniq_ptr_implIN4Poco6Crypto6RSAKeyESt14default_deleteIS2_EEC2EPS2_ = comdat any

$_ZNSt5tupleIJPN4Poco6Crypto6RSAKeyESt14default_deleteIS2_EEEC2ILb1ELb1EEEv = comdat any

$_ZNSt15__uniq_ptr_implIN4Poco6Crypto6RSAKeyESt14default_deleteIS2_EE6_M_ptrEv = comdat any

$_ZNSt11_Tuple_implILm0EJPN4Poco6Crypto6RSAKeyESt14default_deleteIS2_EEEC2Ev = comdat any

$_ZNSt11_Tuple_implILm1EJSt14default_deleteIN4Poco6Crypto6RSAKeyEEEEC2Ev = comdat any

$_ZNSt10_Head_baseILm0EPN4Poco6Crypto6RSAKeyELb0EEC2Ev = comdat any

$_ZNSt10_Head_baseILm1ESt14default_deleteIN4Poco6Crypto6RSAKeyEELb1EEC2Ev = comdat any

$_ZSt3getILm0EJPN4Poco6Crypto6RSAKeyESt14default_deleteIS2_EEERNSt13tuple_elementIXT_ESt5tupleIJDpT0_EEE4typeERSA_ = comdat any

$_ZSt12__get_helperILm0EPN4Poco6Crypto6RSAKeyEJSt14default_deleteIS2_EEERT0_RSt11_Tuple_implIXT_EJS6_DpT1_EE = comdat any

$_ZNSt11_Tuple_implILm0EJPN4Poco6Crypto6RSAKeyESt14default_deleteIS2_EEE7_M_headERS6_ = comdat any

$_ZNSt10_Head_baseILm0EPN4Poco6Crypto6RSAKeyELb0EE7_M_headERS4_ = comdat any

$_ZNSt10unique_ptrIN4Poco6Crypto6RSAKeyESt14default_deleteIS2_EE11get_deleterEv = comdat any

$_ZNKSt14default_deleteIN4Poco6Crypto6RSAKeyEEclEPS2_ = comdat any

$_ZNSt15__uniq_ptr_implIN4Poco6Crypto6RSAKeyESt14default_deleteIS2_EE10_M_deleterEv = comdat any

$_ZSt3getILm1EJPN4Poco6Crypto6RSAKeyESt14default_deleteIS2_EEERNSt13tuple_elementIXT_ESt5tupleIJDpT0_EEE4typeERSA_ = comdat any

$_ZSt12__get_helperILm1ESt14default_deleteIN4Poco6Crypto6RSAKeyEEJEERT0_RSt11_Tuple_implIXT_EJS5_DpT1_EE = comdat any

$_ZNSt11_Tuple_implILm1EJSt14default_deleteIN4Poco6Crypto6RSAKeyEEEE7_M_headERS5_ = comdat any

$_ZNSt10_Head_baseILm1ESt14default_deleteIN4Poco6Crypto6RSAKeyEELb1EE7_M_headERS5_ = comdat any

$_ZNSt15__uniq_ptr_implIN4Poco6Crypto6RSAKeyESt14default_deleteIS2_EE5resetEPS2_ = comdat any

$_ZNSt16reverse_iteratorIN9__gnu_cxx17__normal_iteratorIPcNSt7__cxx1112basic_stringIcSt11char_traitsIcESaIcEEEEEEC2ERKSA_ = comdat any

$_ZSt19__iterator_categoryISt16reverse_iteratorIN9__gnu_cxx17__normal_iteratorIPcNSt7__cxx1112basic_stringIcSt11char_traitsIcESaIcEEEEEEENSt15iterator_traitsIT_E17iterator_categoryERKSD_ = comdat any

$_ZStmiIN9__gnu_cxx17__normal_iteratorIPcNSt7__cxx1112basic_stringIcSt11char_traitsIcESaIcEEEEES9_EDTmicldtfp0_4baseEcldtfp_4baseEERKSt16reverse_iteratorIT_ERKSB_IT0_E = comdat any

$_ZNSt16reverse_iteratorIN9__gnu_cxx17__normal_iteratorIPcNSt7__cxx1112basic_stringIcSt11char_traitsIcESaIcEEEEEEppEv = comdat any

$_ZN9__gnu_cxxmiIPcNSt7__cxx1112basic_stringIcSt11char_traitsIcESaIcEEEEENS_17__normal_iteratorIT_T0_E15difference_typeERKSB_SE_ = comdat any

$_ZNKSt16reverse_iteratorIN9__gnu_cxx17__normal_iteratorIPcNSt7__cxx1112basic_stringIcSt11char_traitsIcESaIcEEEEEEdeEv = comdat any

$_ZN9__gnu_cxx17__normal_iteratorIPcNSt7__cxx1112basic_stringIcSt11char_traitsIcESaIcEEEEmmEv = comdat any

$_ZNK9__gnu_cxx17__normal_iteratorIPcNSt7__cxx1112basic_stringIcSt11char_traitsIcESaIcEEEEdeEv = comdat any

$_ZN9__gnu_cxxneIPcNSt7__cxx1112basic_stringIcSt11char_traitsIcESaIcEEEEEbRKNS_17__normal_iteratorIT_T0_EESD_ = comdat any

$_ZN9__gnu_cxx17__normal_iteratorIPcNSt7__cxx1112basic_stringIcSt11char_traitsIcESaIcEEEEppEv = comdat any

$_ZNKSt6vectorIhSaIhEE4sizeEv = comdat any

$_ZN9__gnu_cxx14__alloc_traitsISaIhEhE17_S_select_on_copyERKS1_ = comdat any

$_ZNKSt12_Vector_baseIhSaIhEE19_M_get_Tp_allocatorEv = comdat any

$_ZNSt12_Vector_baseIhSaIhEEC2EmRKS0_ = comdat any

$_ZNSaIhED2Ev = comdat any

$_ZSt22__uninitialized_copy_aIN9__gnu_cxx17__normal_iteratorIPKhSt6vectorIhSaIhEEEEPhhET0_T_SA_S9_RSaIT1_E = comdat any

$_ZNKSt6vectorIhSaIhEE5beginEv = comdat any

$_ZNKSt6vectorIhSaIhEE3endEv = comdat any

$_ZNSt16allocator_traitsISaIhEE37select_on_container_copy_constructionERKS0_ = comdat any

$_ZNSaIhEC2ERKS_ = comdat any

$_ZN9__gnu_cxx13new_allocatorIhEC2ERKS1_ = comdat any

$_ZNSt12_Vector_baseIhSaIhEE12_Vector_implC2ERKS0_ = comdat any

$_ZNSt12_Vector_baseIhSaIhEE17_M_create_storageEm = comdat any

$_ZNSt12_Vector_baseIhSaIhEE17_Vector_impl_dataC2Ev = comdat any

$_ZNSt12_Vector_baseIhSaIhEE11_M_allocateEm = comdat any

$_ZNSt16allocator_traitsISaIhEE8allocateERS0_m = comdat any

$_ZN9__gnu_cxx13new_allocatorIhE8allocateEmPKv = comdat any

$_ZNK9__gnu_cxx13new_allocatorIhE11_M_max_sizeEv = comdat any

$_ZSt18uninitialized_copyIN9__gnu_cxx17__normal_iteratorIPKhSt6vectorIhSaIhEEEEPhET0_T_SA_S9_ = comdat any

$_ZNSt20__uninitialized_copyILb1EE13__uninit_copyIN9__gnu_cxx17__normal_iteratorIPKhSt6vectorIhSaIhEEEEPhEET0_T_SC_SB_ = comdat any

$_ZSt4copyIN9__gnu_cxx17__normal_iteratorIPKhSt6vectorIhSaIhEEEEPhET0_T_SA_S9_ = comdat any

$_ZSt13__copy_move_aILb0EN9__gnu_cxx17__normal_iteratorIPKhSt6vectorIhSaIhEEEEPhET1_T0_SA_S9_ = comdat any

$_ZSt12__miter_baseIN9__gnu_cxx17__normal_iteratorIPKhSt6vectorIhSaIhEEEEET_S8_ = comdat any

$_ZSt12__niter_wrapIPhET_RKS1_S1_ = comdat any

$_ZSt14__copy_move_a1ILb0EPKhPhET1_T0_S4_S3_ = comdat any

$_ZSt12__niter_baseIPKhSt6vectorIhSaIhEEET_N9__gnu_cxx17__normal_iteratorIS5_T0_EE = comdat any

$_ZSt12__niter_baseIPhET_S1_ = comdat any

$_ZSt14__copy_move_a2ILb0EPKhPhET1_T0_S4_S3_ = comdat any

$_ZNSt11__copy_moveILb0ELb1ESt26random_access_iterator_tagE8__copy_mIhEEPT_PKS3_S6_S4_ = comdat any

$_ZNK9__gnu_cxx17__normal_iteratorIPKhSt6vectorIhSaIhEEE4baseEv = comdat any

$_ZN9__gnu_cxx17__normal_iteratorIPKhSt6vectorIhSaIhEEEC2ERKS2_ = comdat any

$_ZN9__gnu_cxx17__normal_iteratorIPhSt6vectorIhSaIhEEEC2ERKS1_ = comdat any

$_ZNSt7__cxx1112basic_stringIcSt11char_traitsIcESaIcEE12_M_constructIN9__gnu_cxx17__normal_iteratorIPhSt6vectorIhSaIhEEEEEEvT_SD_ = comdat any

$_ZNSt7__cxx1112basic_stringIcSt11char_traitsIcESaIcEE16_M_construct_auxIN9__gnu_cxx17__normal_iteratorIPhSt6vectorIhSaIhEEEEEEvT_SD_St12__false_type = comdat any

$_ZNSt7__cxx1112basic_stringIcSt11char_traitsIcESaIcEE12_M_constructIN9__gnu_cxx17__normal_iteratorIPhSt6vectorIhSaIhEEEEEEvT_SD_St20forward_iterator_tag = comdat any

$_ZN9__gnu_cxx17__is_null_pointerINS_17__normal_iteratorIPhSt6vectorIhSaIhEEEEEEbT_ = comdat any

$_ZN9__gnu_cxxneIPhSt6vectorIhSaIhEEEEbRKNS_17__normal_iteratorIT_T0_EESA_ = comdat any

$_ZSt8distanceIN9__gnu_cxx17__normal_iteratorIPhSt6vectorIhSaIhEEEEENSt15iterator_traitsIT_E15difference_typeES8_S8_ = comdat any

$_ZNSt7__cxx1112basic_stringIcSt11char_traitsIcESaIcEE13_S_copy_charsIN9__gnu_cxx17__normal_iteratorIPhSt6vectorIhSaIhEEEEEEvPcT_SE_ = comdat any

$_ZNK9__gnu_cxx17__normal_iteratorIPhSt6vectorIhSaIhEEE4baseEv = comdat any

$_ZSt10__distanceIN9__gnu_cxx17__normal_iteratorIPhSt6vectorIhSaIhEEEEENSt15iterator_traitsIT_E15difference_typeES8_S8_St26random_access_iterator_tag = comdat any

$_ZSt19__iterator_categoryIN9__gnu_cxx17__normal_iteratorIPhSt6vectorIhSaIhEEEEENSt15iterator_traitsIT_E17iterator_categoryERKS8_ = comdat any

$_ZN9__gnu_cxxmiIPhSt6vectorIhSaIhEEEENS_17__normal_iteratorIT_T0_E15difference_typeERKS8_SB_ = comdat any

$_ZNSt11char_traitsIcE6assignERcRKc = comdat any

$_ZNK9__gnu_cxx17__normal_iteratorIPhSt6vectorIhSaIhEEEdeEv = comdat any

$_ZN9__gnu_cxx17__normal_iteratorIPhSt6vectorIhSaIhEEEppEv = comdat any

$_ZN4Poco9SharedPtrINS_4JSON7HandlerENS_16ReferenceCounterENS_13ReleasePolicyIS2_EEE7releaseEv = comdat any

$_ZN4Poco13ReleasePolicyINS_4JSON7HandlerEE7releaseEPS2_ = comdat any

$_ZN4Poco16ReferenceCounterC2Ev = comdat any

$_ZNK4Poco7Dynamic3Var7contentEv = comdat any

$_ZNKSt9type_infoeqERKS_ = comdat any

$_ZNK4Poco7Dynamic13VarHolderImplINS_9SharedPtrINS_4JSON6ObjectENS_16ReferenceCounterENS_13ReleasePolicyIS4_EEEEE5valueEv = comdat any

$_ZN4Poco6formatINSt7__cxx1112basic_stringIcSt11char_traitsIcESaIcEEEJS6_EEES6_PKcT_DpT0_ = comdat any

$_ZNKSt9type_info4nameEv = comdat any

$_ZNSt6vectorIN4Poco3AnyESaIS1_EEC2Ev = comdat any

$_ZNSt6vectorIN4Poco3AnyESaIS1_EE7reserveEm = comdat any

$_ZNSt6vectorIN4Poco3AnyESaIS1_EE12emplace_backIJRNSt7__cxx1112basic_stringIcSt11char_traitsIcESaIcEEEEEERS1_DpOT_ = comdat any

$_ZNSt6vectorIN4Poco3AnyESaIS1_EE6insertEN9__gnu_cxx17__normal_iteratorIPKS1_S3_EESt16initializer_listIS1_E = comdat any

$_ZNSt6vectorIN4Poco3AnyESaIS1_EE3endEv = comdat any

$_ZN9__gnu_cxx17__normal_iteratorIPKN4Poco3AnyESt6vectorIS2_SaIS2_EEEC2IPS2_EERKNS0_IT_NS_11__enable_ifIXsr3std10__are_sameISB_SA_EE7__valueES7_E6__typeEEE = comdat any

$_ZN4Poco3AnyC2INSt7__cxx1112basic_stringIcSt11char_traitsIcESaIcEEEEERKT_ = comdat any

$_ZN4Poco3AnyD2Ev = comdat any

$_ZNSt6vectorIN4Poco3AnyESaIS1_EED2Ev = comdat any

$_ZNSt12_Vector_baseIN4Poco3AnyESaIS1_EEC2Ev = comdat any

$_ZNSt12_Vector_baseIN4Poco3AnyESaIS1_EE12_Vector_implC2Ev = comdat any

$_ZNSaIN4Poco3AnyEEC2Ev = comdat any

$_ZNSt12_Vector_baseIN4Poco3AnyESaIS1_EE17_Vector_impl_dataC2Ev = comdat any

$_ZN9__gnu_cxx13new_allocatorIN4Poco3AnyEEC2Ev = comdat any

$_ZNKSt6vectorIN4Poco3AnyESaIS1_EE8max_sizeEv = comdat any

$_ZNKSt6vectorIN4Poco3AnyESaIS1_EE8capacityEv = comdat any

$_ZNKSt6vectorIN4Poco3AnyESaIS1_EE4sizeEv = comdat any

$_ZNSt6vectorIN4Poco3AnyESaIS1_EE20_M_allocate_and_copyIPKS1_EEPS1_mT_S8_ = comdat any

$_ZSt32__make_move_if_noexcept_iteratorIN4Poco3AnyEPKS1_ET0_PT_ = comdat any

$_ZSt8_DestroyIPN4Poco3AnyES1_EvT_S3_RSaIT0_E = comdat any

$_ZNSt12_Vector_baseIN4Poco3AnyESaIS1_EE19_M_get_Tp_allocatorEv = comdat any

$_ZNSt12_Vector_baseIN4Poco3AnyESaIS1_EE13_M_deallocateEPS1_m = comdat any

$_ZNSt6vectorIN4Poco3AnyESaIS1_EE11_S_max_sizeERKS2_ = comdat any

$_ZNKSt12_Vector_baseIN4Poco3AnyESaIS1_EE19_M_get_Tp_allocatorEv = comdat any

$_ZNSt16allocator_traitsISaIN4Poco3AnyEEE8max_sizeERKS2_ = comdat any

$_ZNK9__gnu_cxx13new_allocatorIN4Poco3AnyEE8max_sizeEv = comdat any

$_ZNK9__gnu_cxx13new_allocatorIN4Poco3AnyEE11_M_max_sizeEv = comdat any

$_ZNSt12_Vector_baseIN4Poco3AnyESaIS1_EE11_M_allocateEm = comdat any

$_ZSt22__uninitialized_copy_aIPKN4Poco3AnyEPS1_S1_ET0_T_S6_S5_RSaIT1_E = comdat any

$_ZNSt16allocator_traitsISaIN4Poco3AnyEEE8allocateERS2_m = comdat any

$_ZN9__gnu_cxx13new_allocatorIN4Poco3AnyEE8allocateEmPKv = comdat any

$_ZSt18uninitialized_copyIPKN4Poco3AnyEPS1_ET0_T_S6_S5_ = comdat any

$_ZNSt20__uninitialized_copyILb0EE13__uninit_copyIPKN4Poco3AnyEPS3_EET0_T_S8_S7_ = comdat any

$_ZSt10_ConstructIN4Poco3AnyEJRKS1_EEvPT_DpOT0_ = comdat any

$_ZSt8_DestroyIPN4Poco3AnyEEvT_S3_ = comdat any

$_ZN4Poco3AnyC2ERKS0_ = comdat any

$_ZNSt12_Destroy_auxILb0EE9__destroyIPN4Poco3AnyEEEvT_S5_ = comdat any

$_ZSt8_DestroyIN4Poco3AnyEEvPT_ = comdat any

$_ZNSt16allocator_traitsISaIN4Poco3AnyEEE10deallocateERS2_PS1_m = comdat any

$_ZN9__gnu_cxx13new_allocatorIN4Poco3AnyEE10deallocateEPS2_m = comdat any

$_ZNSt16allocator_traitsISaIN4Poco3AnyEEE9constructIS1_JRNSt7__cxx1112basic_stringIcSt11char_traitsIcESaIcEEEEEEvRS2_PT_DpOT0_ = comdat any

$_ZNSt6vectorIN4Poco3AnyESaIS1_EE17_M_realloc_insertIJRNSt7__cxx1112basic_stringIcSt11char_traitsIcESaIcEEEEEEvN9__gnu_cxx17__normal_iteratorIPS1_S3_EEDpOT_ = comdat any

$_ZNSt6vectorIN4Poco3AnyESaIS1_EE4backEv = comdat any

$_ZN9__gnu_cxx13new_allocatorIN4Poco3AnyEE9constructIS2_JRNSt7__cxx1112basic_stringIcSt11char_traitsIcESaIcEEEEEEvPT_DpOT0_ = comdat any

$_ZNKSt6vectorIN4Poco3AnyESaIS1_EE12_M_check_lenEmPKc = comdat any

$_ZN9__gnu_cxxmiIPN4Poco3AnyESt6vectorIS2_SaIS2_EEEENS_17__normal_iteratorIT_T0_E15difference_typeERKSA_SD_ = comdat any

$_ZNSt6vectorIN4Poco3AnyESaIS1_EE5beginEv = comdat any

$_ZSt34__uninitialized_move_if_noexcept_aIPN4Poco3AnyES2_SaIS1_EET0_T_S5_S4_RT1_ = comdat any

$_ZNK9__gnu_cxx17__normal_iteratorIPN4Poco3AnyESt6vectorIS2_SaIS2_EEE4baseEv = comdat any

$_ZNSt16allocator_traitsISaIN4Poco3AnyEEE7destroyIS1_EEvRS2_PT_ = comdat any

$_ZN9__gnu_cxx17__normal_iteratorIPN4Poco3AnyESt6vectorIS2_SaIS2_EEEC2ERKS3_ = comdat any

$_ZN9__gnu_cxx13new_allocatorIN4Poco3AnyEE7destroyIS2_EEvPT_ = comdat any

$_ZNK9__gnu_cxx17__normal_iteratorIPN4Poco3AnyESt6vectorIS2_SaIS2_EEEmiEl = comdat any

$_ZNK9__gnu_cxx17__normal_iteratorIPN4Poco3AnyESt6vectorIS2_SaIS2_EEEdeEv = comdat any

$_ZN9__gnu_cxxmiIPKN4Poco3AnyESt6vectorIS2_SaIS2_EEEENS_17__normal_iteratorIT_T0_E15difference_typeERKSB_SE_ = comdat any

$_ZNKSt6vectorIN4Poco3AnyESaIS1_EE6cbeginEv = comdat any

$_ZNSt6vectorIN4Poco3AnyESaIS1_EE15_M_range_insertIPKS1_EEvN9__gnu_cxx17__normal_iteratorIPS1_S3_EET_SB_St20forward_iterator_tag = comdat any

$_ZNK9__gnu_cxx17__normal_iteratorIPN4Poco3AnyESt6vectorIS2_SaIS2_EEEplEl = comdat any

$_ZNKSt16initializer_listIN4Poco3AnyEE5beginEv = comdat any

$_ZNKSt16initializer_listIN4Poco3AnyEE3endEv = comdat any

$_ZNK9__gnu_cxx17__normal_iteratorIPKN4Poco3AnyESt6vectorIS2_SaIS2_EEE4baseEv = comdat any

$_ZN9__gnu_cxx17__normal_iteratorIPKN4Poco3AnyESt6vectorIS2_SaIS2_EEEC2ERKS4_ = comdat any

$_ZSt8distanceIPKN4Poco3AnyEENSt15iterator_traitsIT_E15difference_typeES5_S5_ = comdat any

$_ZSt22__uninitialized_move_aIPN4Poco3AnyES2_SaIS1_EET0_T_S5_S4_RT1_ = comdat any

$_ZSt13move_backwardIPN4Poco3AnyES2_ET0_T_S4_S3_ = comdat any

$_ZSt4copyIPKN4Poco3AnyEN9__gnu_cxx17__normal_iteratorIPS1_St6vectorIS1_SaIS1_EEEEET0_T_SC_SB_ = comdat any

$_ZSt7advanceIPKN4Poco3AnyEmEvRT_T0_ = comdat any

$_ZSt10__distanceIPKN4Poco3AnyEENSt15iterator_traitsIT_E15difference_typeES5_S5_St26random_access_iterator_tag = comdat any

$_ZSt19__iterator_categoryIPKN4Poco3AnyEENSt15iterator_traitsIT_E17iterator_categoryERKS5_ = comdat any

$_ZSt22__uninitialized_copy_aISt13move_iteratorIPN4Poco3AnyEES3_S2_ET0_T_S6_S5_RSaIT1_E = comdat any

$_ZSt18make_move_iteratorIPN4Poco3AnyEESt13move_iteratorIT_ES4_ = comdat any

$_ZSt18uninitialized_copyISt13move_iteratorIPN4Poco3AnyEES3_ET0_T_S6_S5_ = comdat any

$_ZNSt20__uninitialized_copyILb0EE13__uninit_copyISt13move_iteratorIPN4Poco3AnyEES5_EET0_T_S8_S7_ = comdat any

$_ZStneIPN4Poco3AnyEEbRKSt13move_iteratorIT_ES7_ = comdat any

$_ZSt10_ConstructIN4Poco3AnyEJS1_EEvPT_DpOT0_ = comdat any

$_ZNKSt13move_iteratorIPN4Poco3AnyEEdeEv = comdat any

$_ZNSt13move_iteratorIPN4Poco3AnyEEppEv = comdat any

$_ZSteqIPN4Poco3AnyEEbRKSt13move_iteratorIT_ES7_ = comdat any

$_ZNKSt13move_iteratorIPN4Poco3AnyEE4baseEv = comdat any

$_ZNSt13move_iteratorIPN4Poco3AnyEEC2ES2_ = comdat any

$_ZSt22__copy_move_backward_aILb1EPN4Poco3AnyES2_ET1_T0_S4_S3_ = comdat any

$_ZSt12__miter_baseIPN4Poco3AnyEET_S3_ = comdat any

$_ZSt12__niter_wrapIPN4Poco3AnyEET_RKS3_S3_ = comdat any

$_ZSt23__copy_move_backward_a1ILb1EPN4Poco3AnyES2_ET1_T0_S4_S3_ = comdat any

$_ZSt12__niter_baseIPN4Poco3AnyEET_S3_ = comdat any

$_ZSt23__copy_move_backward_a2ILb1EPN4Poco3AnyES2_ET1_T0_S4_S3_ = comdat any

$_ZNSt20__copy_move_backwardILb1ELb0ESt26random_access_iterator_tagE13__copy_move_bIPN4Poco3AnyES5_EET0_T_S7_S6_ = comdat any

$_ZN4Poco3AnyaSERKS0_ = comdat any

$_ZN4Poco3Any4swapERS0_ = comdat any

$_ZSt4swapIPN4Poco3Any11ValueHolderEENSt9enable_ifIXsr6__and_ISt6__not_ISt15__is_tuple_likeIT_EESt21is_move_constructibleIS7_ESt18is_move_assignableIS7_EEE5valueEvE4typeERS7_SG_ = comdat any

$_ZSt13__copy_move_aILb0EPKN4Poco3AnyEN9__gnu_cxx17__normal_iteratorIPS1_St6vectorIS1_SaIS1_EEEEET1_T0_SC_SB_ = comdat any

$_ZSt12__miter_baseIPKN4Poco3AnyEET_S4_ = comdat any

$_ZSt12__niter_wrapIN9__gnu_cxx17__normal_iteratorIPN4Poco3AnyESt6vectorIS3_SaIS3_EEEES4_ET_S9_T0_ = comdat any

$_ZSt14__copy_move_a1ILb0EPKN4Poco3AnyEPS1_ET1_T0_S6_S5_ = comdat any

$_ZSt12__niter_baseIPKN4Poco3AnyEET_S4_ = comdat any

$_ZSt12__niter_baseIPN4Poco3AnyESt6vectorIS1_SaIS1_EEET_N9__gnu_cxx17__normal_iteratorIS6_T0_EE = comdat any

$_ZSt14__copy_move_a2ILb0EPKN4Poco3AnyEPS1_ET1_T0_S6_S5_ = comdat any

$_ZNSt11__copy_moveILb0ELb0ESt26random_access_iterator_tagE8__copy_mIPKN4Poco3AnyEPS4_EET0_T_S9_S8_ = comdat any

$_ZSt9__advanceIPKN4Poco3AnyElEvRT_T0_St26random_access_iterator_tag = comdat any

$_ZNKSt16initializer_listIN4Poco3AnyEE4sizeEv = comdat any

$_ZN4Poco3Any6HolderINSt7__cxx1112basic_stringIcSt11char_traitsIcESaIcEEEEC2ERKS7_ = comdat any

$_ZN4Poco3Any11ValueHolderC2Ev = comdat any

$_ZN4Poco3Any6HolderINSt7__cxx1112basic_stringIcSt11char_traitsIcESaIcEEEED2Ev = comdat any

$_ZN4Poco3Any6HolderINSt7__cxx1112basic_stringIcSt11char_traitsIcESaIcEEEED0Ev = comdat any

$_ZNK4Poco3Any6HolderINSt7__cxx1112basic_stringIcSt11char_traitsIcESaIcEEEE4typeEv = comdat any

$_ZNK4Poco3Any6HolderINSt7__cxx1112basic_stringIcSt11char_traitsIcESaIcEEEE5cloneEv = comdat any

$_ZN4Poco3Any11ValueHolderD2Ev = comdat any

$_ZN4Poco3Any11ValueHolderD0Ev = comdat any

$_ZNSt12_Vector_baseIN4Poco3AnyESaIS1_EED2Ev = comdat any

$_ZNSt12_Vector_baseIN4Poco3AnyESaIS1_EE12_Vector_implD2Ev = comdat any

$_ZNSaIN4Poco3AnyEED2Ev = comdat any

$_ZN9__gnu_cxx13new_allocatorIN4Poco3AnyEED2Ev = comdat any

$_ZNK4Poco9SharedPtrINS_4JSON6ObjectENS_16ReferenceCounterENS_13ReleasePolicyIS2_EEE5derefEv = comdat any

$_ZN9__gnu_cxx14__alloc_traitsISaIcEcE17_S_select_on_copyERKS1_ = comdat any

$_ZNSt16allocator_traitsISaIcEE37select_on_container_copy_constructionERKS0_ = comdat any

$_ZN7COOLWSD14getConfigValueIiEET_RN4Poco4Util20LayeredConfigurationERKNSt7__cxx1112basic_stringIcSt11char_traitsIcESaIcEEES1_ = comdat any

$_ZN4Poco4Util11Application8instanceEv = comdat any

$_ZNK4Poco4Util11Application6configEv = comdat any

$_ZN7COOLWSD13getSafeConfigIiEEbRN4Poco4Util20LayeredConfigurationERKNSt7__cxx1112basic_stringIcSt11char_traitsIcESaIcEEERT_ = comdat any

$_ZN7COOLWSD17ConfigValueGetterC2ERN4Poco4Util20LayeredConfigurationERKNSt7__cxx1112basic_stringIcSt11char_traitsIcESaIcEEE = comdat any

$_ZN7COOLWSD17ConfigValueGetterclERi = comdat any

$_ZNK4Poco7AutoPtrINS_4Util20LayeredConfigurationEE3getEv = comdat any

$_ZNSt7__cxx1112basic_stringIcSt11char_traitsIcESaIcEE12_M_constructISt19istreambuf_iteratorIcS2_EEEvT_S8_ = comdat any

$_ZNSt7__cxx1112basic_stringIcSt11char_traitsIcESaIcEE16_M_construct_auxISt19istreambuf_iteratorIcS2_EEEvT_S8_St12__false_type = comdat any

$_ZNSt7__cxx1112basic_stringIcSt11char_traitsIcESaIcEE12_M_constructISt19istreambuf_iteratorIcS2_EEEvT_S8_St18input_iterator_tag = comdat any

$_ZStneIcSt11char_traitsIcEEbRKSt19istreambuf_iteratorIT_T0_ES7_ = comdat any

$_ZNKSt19istreambuf_iteratorIcSt11char_traitsIcEEdeEv = comdat any

$_ZNSt19istreambuf_iteratorIcSt11char_traitsIcEEppEv = comdat any

$_ZNKSt19istreambuf_iteratorIcSt11char_traitsIcEE5equalERKS2_ = comdat any

$_ZNKSt19istreambuf_iteratorIcSt11char_traitsIcEE9_M_at_eofEv = comdat any

$_ZNSt19istreambuf_iteratorIcSt11char_traitsIcEE9_S_is_eofEi = comdat any

$_ZNKSt19istreambuf_iteratorIcSt11char_traitsIcEE6_M_getEv = comdat any

$_ZNSt11char_traitsIcE11eq_int_typeERKiS2_ = comdat any

$_ZNSt11char_traitsIcE12to_char_typeERKi = comdat any

$_ZTS8AuthBase = comdat any

$_ZTI8AuthBase = comdat any

$_ZTVN4Poco3Net4Impl21IPv4SocketAddressImplE = comdat any

$_ZTSN4Poco3Net4Impl21IPv4SocketAddressImplE = comdat any

$_ZTIN4Poco3Net4Impl21IPv4SocketAddressImplE = comdat any

$_ZTVN4Poco3Net4Impl21IPv6SocketAddressImplE = comdat any

$_ZTSN4Poco3Net4Impl21IPv6SocketAddressImplE = comdat any

$_ZTIN4Poco3Net4Impl21IPv6SocketAddressImplE = comdat any

$_ZZNSt8__detail18__to_chars_10_implImEEvPcjT_E8__digits = comdat any

$_ZTSN4Poco9SharedPtrINS_4JSON6ObjectENS_16ReferenceCounterENS_13ReleasePolicyIS2_EEEE = comdat any

$_ZTIN4Poco9SharedPtrINS_4JSON6ObjectENS_16ReferenceCounterENS_13ReleasePolicyIS2_EEEE = comdat any

$_ZTVN4Poco3Any6HolderINSt7__cxx1112basic_stringIcSt11char_traitsIcESaIcEEEEE = comdat any

$_ZTSN4Poco3Any6HolderINSt7__cxx1112basic_stringIcSt11char_traitsIcESaIcEEEEE = comdat any

$_ZTSN4Poco3Any11ValueHolderE = comdat any

$_ZTIN4Poco3Any11ValueHolderE = comdat any

$_ZTIN4Poco3Any6HolderINSt7__cxx1112basic_stringIcSt11char_traitsIcESaIcEEEEE = comdat any

$_ZTVN4Poco3Any11ValueHolderE = comdat any

$_ZTSNSt7__cxx1112basic_stringIcSt11char_traitsIcESaIcEEE = comdat any

$_ZTINSt7__cxx1112basic_stringIcSt11char_traitsIcESaIcEEE = comdat any

@_ZStL8__ioinit = internal global %"class.std::ios_base::Init" zeroinitializer, align 1, !dbg !0
@__dso_handle = external hidden global i8
@_ZN3LogL3endE = internal global %"struct.Log::_end_marker" zeroinitializer, align 1, !dbg !7
@_ZN7JWTAuth4_keyE = dso_local global %"class.std::unique_ptr" zeroinitializer, align 8, !dbg !18
@.str = private unnamed_addr constant [4 x i8] c"INF\00", align 1, !dbg !4139
@.str.3 = private unnamed_addr constant [21 x i8] c"Encoded JWT header: \00", align 1, !dbg !4144
@.str.4 = private unnamed_addr constant [3 x i8] c"| \00", align 1, !dbg !4149
@.str.5 = private unnamed_addr constant [13 x i8] c"wsd/Auth.cpp\00", align 1, !dbg !4154
@.str.6 = private unnamed_addr constant [22 x i8] c"Encoded JWT payload: \00", align 1, !dbg !4159
@.str.7 = private unnamed_addr constant [1 x i8] zeroinitializer, align 1, !dbg !4164
@.str.8 = private unnamed_addr constant [20 x i8] c"Sig generated is : \00", align 1, !dbg !4169
@.str.9 = private unnamed_addr constant [22 x i8] c"JWT token generated: \00", align 1, !dbg !4174
@_ZTIN4Poco9ExceptionE = external constant ptr
@.str.10 = private unnamed_addr constant [4 x i8] c"ERR\00", align 1, !dbg !4176
@.str.11 = private unnamed_addr constant [48 x i8] c"JWTAuth: verification failed; Not enough tokens\00", align 1, !dbg !4178
@.str.12 = private unnamed_addr constant [41 x i8] c"JWTAuth: verification failed; Expected: \00", align 1, !dbg !4183
@.str.13 = private unnamed_addr constant [13 x i8] c", Received: \00", align 1, !dbg !4188
@.str.14 = private unnamed_addr constant [34 x i8] c"JWTAuth:verify: decoded payload: \00", align 1, !dbg !4190
@.str.15 = private unnamed_addr constant [4 x i8] c"exp\00", align 1, !dbg !4195
@.str.16 = private unnamed_addr constant [4 x i8] c"TRC\00", align 1, !dbg !4197
@.str.17 = private unnamed_addr constant [15 x i8] c"JWT: cur time \00", align 1, !dbg !4199
@.str.18 = private unnamed_addr constant [6 x i8] c" vs. \00", align 1, !dbg !4204
@.str.19 = private unnamed_addr constant [38 x i8] c"JWTAuth:verify: JWT expired; curtime:\00", align 1, !dbg !4209
@.str.20 = private unnamed_addr constant [7 x i8] c", exp:\00", align 1, !dbg !4214
@.str.21 = private unnamed_addr constant [28 x i8] c"JWTAuth:verify: Exception: \00", align 1, !dbg !4219
@.str.22 = private unnamed_addr constant [9 x i8] c"{\22alg\22:\22\00", align 1, !dbg !4224
@.str.23 = private unnamed_addr constant [10 x i8] c"\22,\22typ\22:\22\00", align 1, !dbg !4229
@.str.24 = private unnamed_addr constant [3 x i8] c"\22}\00", align 1, !dbg !4234
@.str.25 = private unnamed_addr constant [13 x i8] c"JWT Header: \00", align 1, !dbg !4236
@.str.26 = private unnamed_addr constant [25 x i8] c"security.jwt_expiry_secs\00", align 1, !dbg !4238
@.str.27 = private unnamed_addr constant [9 x i8] c"{\22iss\22:\22\00", align 1, !dbg !4243
@.str.28 = private unnamed_addr constant [10 x i8] c"\22,\22sub\22:\22\00", align 1, !dbg !4245
@.str.29 = private unnamed_addr constant [10 x i8] c"\22,\22aud\22:\22\00", align 1, !dbg !4247
@.str.30 = private unnamed_addr constant [10 x i8] c"\22,\22nme\22:\22\00", align 1, !dbg !4249
@.str.31 = private unnamed_addr constant [10 x i8] c"\22,\22exp\22:\22\00", align 1, !dbg !4251
@.str.32 = private unnamed_addr constant [14 x i8] c"JWT Payload: \00", align 1, !dbg !4253
@.str.33 = private unnamed_addr constant [13 x i8] c" expires in \00", align 1, !dbg !4256
@.str.34 = private unnamed_addr constant [8 x i8] c"seconds\00", align 1, !dbg !4258
@.str.35 = private unnamed_addr constant [12 x i8] c"?client_id=\00", align 1, !dbg !4263
@.str.36 = private unnamed_addr constant [16 x i8] c"&client_secret=\00", align 1, !dbg !4268
@.str.37 = private unnamed_addr constant [31 x i8] c"&grant_type=authorization_code\00", align 1, !dbg !4271
@.str.38 = private unnamed_addr constant [7 x i8] c"&code=\00", align 1, !dbg !4276
@_ZN4Poco3Net11HTTPRequest9HTTP_POSTB5cxx11E = external global %"class.std::__cxx11::basic_string", align 8
@_ZN4Poco3Net11HTTPMessage8HTTP_1_1B5cxx11E = external global %"class.std::__cxx11::basic_string", align 8
@.str.39 = private unnamed_addr constant [9 x i8] c"Status: \00", align 1, !dbg !4278
@.str.40 = private unnamed_addr constant [11 x i8] c"Response: \00", align 1, !dbg !4280
@.str.41 = private unnamed_addr constant [4 x i8] c"DBG\00", align 1, !dbg !4285
@.str.42 = private unnamed_addr constant [37 x i8] c"Verifying authorization token from: \00", align 1, !dbg !4287
@_ZN4Poco3Net11HTTPRequest8HTTP_GETB5cxx11E = external global %"class.std::__cxx11::basic_string", align 8
@_ZTV7JWTAuth = dso_local unnamed_addr constant { [6 x ptr] } { [6 x ptr] [ptr null, ptr @_ZTI7JWTAuth, ptr @_ZN7JWTAuthD2Ev, ptr @_ZN7JWTAuthD0Ev, ptr @_ZN7JWTAuth14getAccessTokenB5cxx11Ev, ptr @_ZN7JWTAuth6verifyERKNSt7__cxx1112basic_stringIcSt11char_traitsIcESaIcEEE] }, align 8
@_ZTVN10__cxxabiv120__si_class_type_infoE = external global ptr
@_ZTS7JWTAuth = dso_local constant [9 x i8] c"7JWTAuth\00", align 1
@_ZTVN10__cxxabiv117__class_type_infoE = external global ptr
@_ZTS8AuthBase = linkonce_odr dso_local constant [10 x i8] c"8AuthBase\00", comdat, align 1
@_ZTI8AuthBase = linkonce_odr dso_local constant { ptr, ptr } { ptr getelementptr inbounds (ptr, ptr @_ZTVN10__cxxabiv117__class_type_infoE, i64 2), ptr @_ZTS8AuthBase }, comdat, align 8
@_ZTI7JWTAuth = dso_local constant { ptr, ptr, ptr } { ptr getelementptr inbounds (ptr, ptr @_ZTVN10__cxxabiv120__si_class_type_infoE, i64 2), ptr @_ZTS7JWTAuth, ptr @_ZTI8AuthBase }, align 8
@_ZTV5OAuth = dso_local unnamed_addr constant { [6 x ptr] } { [6 x ptr] [ptr null, ptr @_ZTI5OAuth, ptr @_ZN5OAuthD2Ev, ptr @_ZN5OAuthD0Ev, ptr @_ZN5OAuth14getAccessTokenB5cxx11Ev, ptr @_ZN5OAuth6verifyERKNSt7__cxx1112basic_stringIcSt11char_traitsIcESaIcEEE] }, align 8
@_ZTS5OAuth = dso_local constant [7 x i8] c"5OAuth\00", align 1
@_ZTI5OAuth = dso_local constant { ptr, ptr, ptr } { ptr getelementptr inbounds (ptr, ptr @_ZTVN10__cxxabiv120__si_class_type_infoE, i64 2), ptr @_ZTS5OAuth, ptr @_ZTI8AuthBase }, align 8
@_ZTVN4Poco3Net4Impl21IPv4SocketAddressImplE = linkonce_odr dso_local unnamed_addr constant { [11 x ptr] } { [11 x ptr] [ptr null, ptr @_ZTIN4Poco3Net4Impl21IPv4SocketAddressImplE, ptr @_ZN4Poco3Net4Impl21IPv4SocketAddressImplD2Ev, ptr @_ZN4Poco3Net4Impl21IPv4SocketAddressImplD0Ev, ptr @_ZNK4Poco3Net4Impl21IPv4SocketAddressImpl4hostEv, ptr @_ZNK4Poco3Net4Impl21IPv4SocketAddressImpl4portEv, ptr @_ZNK4Poco3Net4Impl21IPv4SocketAddressImpl6lengthEv, ptr @_ZNK4Poco3Net4Impl21IPv4SocketAddressImpl4addrEv, ptr @_ZNK4Poco3Net4Impl21IPv4SocketAddressImpl2afEv, ptr @_ZNK4Poco3Net4Impl21IPv4SocketAddressImpl6familyEv, ptr @_ZNK4Poco3Net4Impl21IPv4SocketAddressImpl8toStringB5cxx11Ev] }, comdat, align 8
@_ZTSN4Poco3Net4Impl21IPv4SocketAddressImplE = linkonce_odr dso_local constant [40 x i8] c"N4Poco3Net4Impl21IPv4SocketAddressImplE\00", comdat, align 1
@_ZTIN4Poco3Net4Impl17SocketAddressImplE = external constant ptr
@_ZTIN4Poco3Net4Impl21IPv4SocketAddressImplE = linkonce_odr dso_local constant { ptr, ptr, ptr } { ptr getelementptr inbounds (ptr, ptr @_ZTVN10__cxxabiv120__si_class_type_infoE, i64 2), ptr @_ZTSN4Poco3Net4Impl21IPv4SocketAddressImplE, ptr @_ZTIN4Poco3Net4Impl17SocketAddressImplE }, comdat, align 8
@_ZTVN4Poco3Net4Impl21IPv6SocketAddressImplE = linkonce_odr dso_local unnamed_addr constant { [11 x ptr] } { [11 x ptr] [ptr null, ptr @_ZTIN4Poco3Net4Impl21IPv6SocketAddressImplE, ptr @_ZN4Poco3Net4Impl21IPv6SocketAddressImplD2Ev, ptr @_ZN4Poco3Net4Impl21IPv6SocketAddressImplD0Ev, ptr @_ZNK4Poco3Net4Impl21IPv6SocketAddressImpl4hostEv, ptr @_ZNK4Poco3Net4Impl21IPv6SocketAddressImpl4portEv, ptr @_ZNK4Poco3Net4Impl21IPv6SocketAddressImpl6lengthEv, ptr @_ZNK4Poco3Net4Impl21IPv6SocketAddressImpl4addrEv, ptr @_ZNK4Poco3Net4Impl21IPv6SocketAddressImpl2afEv, ptr @_ZNK4Poco3Net4Impl21IPv6SocketAddressImpl6familyEv, ptr @_ZNK4Poco3Net4Impl21IPv6SocketAddressImpl8toStringB5cxx11Ev] }, comdat, align 8
@_ZTSN4Poco3Net4Impl21IPv6SocketAddressImplE = linkonce_odr dso_local constant [40 x i8] c"N4Poco3Net4Impl21IPv6SocketAddressImplE\00", comdat, align 1
@_ZTIN4Poco3Net4Impl21IPv6SocketAddressImplE = linkonce_odr dso_local constant { ptr, ptr, ptr } { ptr getelementptr inbounds (ptr, ptr @_ZTVN10__cxxabiv120__si_class_type_infoE, i64 2), ptr @_ZTSN4Poco3Net4Impl21IPv6SocketAddressImplE, ptr @_ZTIN4Poco3Net4Impl17SocketAddressImplE }, comdat, align 8
@_ZN3Log10IsShutdownE = external global i8, align 1
@.str.43 = private unnamed_addr constant [16 x i8] c"vector::reserve\00", align 1, !dbg !4292
@.str.44 = private unnamed_addr constant [26 x i8] c"vector::_M_realloc_insert\00", align 1, !dbg !4295
@_ZZNSt8__detail18__to_chars_10_implImEEvPcjT_E8__digits = linkonce_odr dso_local constant [201 x i8] c"00010203040506070809101112131415161718192021222324252627282930313233343536373839404142434445464748495051525354555657585960616263646566676869707172737475767778798081828384858687888990919293949596979899\00", comdat, align 16, !dbg !4300
@.str.45 = private unnamed_addr constant [42 x i8] c"basic_string::_M_construct null not valid\00", align 1, !dbg !4313
@_ZTSN4Poco9SharedPtrINS_4JSON6ObjectENS_16ReferenceCounterENS_13ReleasePolicyIS2_EEEE = linkonce_odr dso_local constant [82 x i8] c"N4Poco9SharedPtrINS_4JSON6ObjectENS_16ReferenceCounterENS_13ReleasePolicyIS2_EEEE\00", comdat, align 1
@_ZTIN4Poco9SharedPtrINS_4JSON6ObjectENS_16ReferenceCounterENS_13ReleasePolicyIS2_EEEE = linkonce_odr dso_local constant { ptr, ptr } { ptr getelementptr inbounds (ptr, ptr @_ZTVN10__cxxabiv117__class_type_infoE, i64 2), ptr @_ZTSN4Poco9SharedPtrINS_4JSON6ObjectENS_16ReferenceCounterENS_13ReleasePolicyIS2_EEEE }, comdat, align 8
@.str.46 = private unnamed_addr constant [29 x i8] c"Can not extract empty value.\00", align 1, !dbg !4318
@_ZTIN4Poco22InvalidAccessExceptionE = external constant ptr
@.str.47 = private unnamed_addr constant [26 x i8] c"Can not convert %s to %s.\00", align 1, !dbg !4324
@_ZTIN4Poco16BadCastExceptionE = external constant ptr
@.str.48 = private unnamed_addr constant [24 x i8] c"vector::_M_range_insert\00", align 1, !dbg !4326
@_ZTVN4Poco3Any6HolderINSt7__cxx1112basic_stringIcSt11char_traitsIcESaIcEEEEE = linkonce_odr dso_local unnamed_addr constant { [6 x ptr] } { [6 x ptr] [ptr null, ptr @_ZTIN4Poco3Any6HolderINSt7__cxx1112basic_stringIcSt11char_traitsIcESaIcEEEEE, ptr @_ZN4Poco3Any6HolderINSt7__cxx1112basic_stringIcSt11char_traitsIcESaIcEEEED2Ev, ptr @_ZN4Poco3Any6HolderINSt7__cxx1112basic_stringIcSt11char_traitsIcESaIcEEEED0Ev, ptr @_ZNK4Poco3Any6HolderINSt7__cxx1112basic_stringIcSt11char_traitsIcESaIcEEEE4typeEv, ptr @_ZNK4Poco3Any6HolderINSt7__cxx1112basic_stringIcSt11char_traitsIcESaIcEEEE5cloneEv] }, comdat, align 8
@_ZTSN4Poco3Any6HolderINSt7__cxx1112basic_stringIcSt11char_traitsIcESaIcEEEEE = linkonce_odr dso_local constant [73 x i8] c"N4Poco3Any6HolderINSt7__cxx1112basic_stringIcSt11char_traitsIcESaIcEEEEE\00", comdat, align 1
@_ZTSN4Poco3Any11ValueHolderE = linkonce_odr dso_local constant [25 x i8] c"N4Poco3Any11ValueHolderE\00", comdat, align 1
@_ZTIN4Poco3Any11ValueHolderE = linkonce_odr dso_local constant { ptr, ptr } { ptr getelementptr inbounds (ptr, ptr @_ZTVN10__cxxabiv117__class_type_infoE, i64 2), ptr @_ZTSN4Poco3Any11ValueHolderE }, comdat, align 8
@_ZTIN4Poco3Any6HolderINSt7__cxx1112basic_stringIcSt11char_traitsIcESaIcEEEEE = linkonce_odr dso_local constant { ptr, ptr, ptr } { ptr getelementptr inbounds (ptr, ptr @_ZTVN10__cxxabiv120__si_class_type_infoE, i64 2), ptr @_ZTSN4Poco3Any6HolderINSt7__cxx1112basic_stringIcSt11char_traitsIcESaIcEEEEE, ptr @_ZTIN4Poco3Any11ValueHolderE }, comdat, align 8
@_ZTVN4Poco3Any11ValueHolderE = linkonce_odr dso_local unnamed_addr constant { [6 x ptr] } { [6 x ptr] [ptr null, ptr @_ZTIN4Poco3Any11ValueHolderE, ptr @_ZN4Poco3Any11ValueHolderD2Ev, ptr @_ZN4Poco3Any11ValueHolderD0Ev, ptr @__cxa_pure_virtual, ptr @__cxa_pure_virtual] }, comdat, align 8
@_ZTSNSt7__cxx1112basic_stringIcSt11char_traitsIcESaIcEEE = linkonce_odr dso_local constant [53 x i8] c"NSt7__cxx1112basic_stringIcSt11char_traitsIcESaIcEEE\00", comdat, align 1
@_ZTINSt7__cxx1112basic_stringIcSt11char_traitsIcESaIcEEE = linkonce_odr dso_local constant { ptr, ptr } { ptr getelementptr inbounds (ptr, ptr @_ZTVN10__cxxabiv117__class_type_infoE, i64 2), ptr @_ZTSNSt7__cxx1112basic_stringIcSt11char_traitsIcESaIcEEE }, comdat, align 8
@_ZTIN4Poco20NullPointerExceptionE = external constant ptr
@.str.49 = private unnamed_addr constant [29 x i8] c"Can not convert empty value.\00", align 1, !dbg !4331
@.str.50 = private unnamed_addr constant [11 x i8] c"[@default]\00", align 1, !dbg !4333
@_ZN4Poco4Util11Application10_pInstanceE = external global ptr, align 8
@.str.51 = private unnamed_addr constant [11 x i8] c"_pInstance\00", align 1, !dbg !4335
@.str.52 = private unnamed_addr constant [37 x i8] c"/usr/include/Poco/Util/Application.h\00", align 1, !dbg !4338
@llvm.global_ctors = appending global [1 x { i32, ptr, ptr }] [{ i32, ptr, ptr } { i32 65535, ptr @_GLOBAL__sub_I_Auth.cpp, ptr null }]

; Function Attrs: noinline uwtable
define internal void @__cxx_global_var_init() #0 section ".text.startup" !dbg !5780 {
  call void @_ZNSt8ios_base4InitC1Ev(ptr noundef nonnull align 1 dereferenceable(1) @_ZStL8__ioinit), !dbg !5781
  %1 = call i32 @__cxa_atexit(ptr @_ZNSt8ios_base4InitD1Ev, ptr @_ZStL8__ioinit, ptr @__dso_handle) #3, !dbg !5783
  ret void, !dbg !5781
}

declare void @_ZNSt8ios_base4InitC1Ev(ptr noundef nonnull align 1 dereferenceable(1)) unnamed_addr #1

; Function Attrs: nounwind
declare void @_ZNSt8ios_base4InitD1Ev(ptr noundef nonnull align 1 dereferenceable(1)) unnamed_addr #2

; Function Attrs: nounwind
declare i32 @__cxa_atexit(ptr, ptr, ptr) #3

; Function Attrs: mustprogress noinline optnone uwtable
define linkonce_odr dso_local void @_ZNK4Poco3Net4Impl21IPv4SocketAddressImpl4hostEv(ptr noalias sret(%"class.Poco::Net::IPAddress") align 8 %0, ptr noundef nonnull align 8 dereferenceable(28) %1) unnamed_addr #4 comdat align 2 !dbg !5784 {
  %3 = alloca ptr, align 8
  %4 = alloca ptr, align 8
  store ptr %0, ptr %3, align 8
  store ptr %1, ptr %4, align 8
  call void @llvm.dbg.declare(metadata ptr %4, metadata !5850, metadata !DIExpression()), !dbg !5852
  %5 = load ptr, ptr %4, align 8
  %6 = getelementptr inbounds %"class.Poco::Net::Impl::IPv4SocketAddressImpl", ptr %5, i32 0, i32 1, !dbg !5853
  %7 = getelementptr inbounds %struct.sockaddr_in, ptr %6, i32 0, i32 2, !dbg !5854
  call void @_ZN4Poco3Net9IPAddressC1EPKvj(ptr noundef nonnull align 8 dereferenceable(8) %0, ptr noundef %7, i32 noundef 4), !dbg !5855
  ret void, !dbg !5856
}

; Function Attrs: nocallback nofree nosync nounwind speculatable willreturn memory(none)
declare void @llvm.dbg.declare(metadata, metadata, metadata) #5

declare void @_ZN4Poco3Net9IPAddressC1EPKvj(ptr noundef nonnull align 8 dereferenceable(8), ptr noundef, i32 noundef) unnamed_addr #1

; Function Attrs: mustprogress noinline optnone uwtable
define linkonce_odr dso_local void @_ZNK4Poco3Net4Impl21IPv6SocketAddressImpl4hostEv(ptr noalias sret(%"class.Poco::Net::IPAddress") align 8 %0, ptr noundef nonnull align 8 dereferenceable(40) %1) unnamed_addr #4 comdat align 2 !dbg !5857 {
  %3 = alloca ptr, align 8
  %4 = alloca ptr, align 8
  store ptr %0, ptr %3, align 8
  store ptr %1, ptr %4, align 8
  call void @llvm.dbg.declare(metadata ptr %4, metadata !5916, metadata !DIExpression()), !dbg !5918
  %5 = load ptr, ptr %4, align 8
  %6 = getelementptr inbounds %"class.Poco::Net::Impl::IPv6SocketAddressImpl", ptr %5, i32 0, i32 1, !dbg !5919
  %7 = getelementptr inbounds %struct.sockaddr_in6, ptr %6, i32 0, i32 3, !dbg !5920
  %8 = getelementptr inbounds %"class.Poco::Net::Impl::IPv6SocketAddressImpl", ptr %5, i32 0, i32 1, !dbg !5921
  %9 = getelementptr inbounds %struct.sockaddr_in6, ptr %8, i32 0, i32 4, !dbg !5922
  %10 = load i32, ptr %9, align 4, !dbg !5922
  call void @_ZN4Poco3Net9IPAddressC1EPKvjj(ptr noundef nonnull align 8 dereferenceable(8) %0, ptr noundef %7, i32 noundef 16, i32 noundef %10), !dbg !5923
  ret void, !dbg !5924
}

declare void @_ZN4Poco3Net9IPAddressC1EPKvjj(ptr noundef nonnull align 8 dereferenceable(8), ptr noundef, i32 noundef, i32 noundef) unnamed_addr #1

; Function Attrs: noinline uwtable
define internal void @__cxx_global_var_init.1() #0 section ".text.startup" !dbg !5925 {
  call void @_ZN3Log11_end_markerC2Ev(ptr noundef nonnull align 1 dereferenceable(1) @_ZN3LogL3endE), !dbg !5926
  ret void, !dbg !5926
}

; Function Attrs: noinline nounwind optnone uwtable
define linkonce_odr dso_local void @_ZN3Log11_end_markerC2Ev(ptr noundef nonnull align 1 dereferenceable(1) %0) unnamed_addr #6 comdat align 2 !dbg !5928 {
  %2 = alloca ptr, align 8
  store ptr %0, ptr %2, align 8
  call void @llvm.dbg.declare(metadata ptr %2, metadata !5929, metadata !DIExpression()), !dbg !5931
  %3 = load ptr, ptr %2, align 8
  ret void, !dbg !5932
}

; Function Attrs: noinline uwtable
define internal void @__cxx_global_var_init.2() #0 section ".text.startup" personality ptr @__gxx_personality_v0 !dbg !5933 {
  %1 = alloca ptr, align 8
  %2 = alloca i32, align 4
  %3 = call noalias noundef nonnull ptr @_Znwm(i64 noundef 16) #18, !dbg !5934, !heapallocsite !33
  invoke void @_ZN4Poco6Crypto6RSAKeyC1ENS1_9KeyLengthENS1_8ExponentE(ptr noundef nonnull align 8 dereferenceable(16) %3, i32 noundef 2048, i32 noundef 1)
          to label %4 unwind label %6, !dbg !5936

4:                                                ; preds = %0
  call void @_ZNSt10unique_ptrIN4Poco6Crypto6RSAKeyESt14default_deleteIS2_EEC2IS4_vEEPS2_(ptr noundef nonnull align 8 dereferenceable(8) @_ZN7JWTAuth4_keyE, ptr noundef %3) #3, !dbg !5937
  %5 = call i32 @__cxa_atexit(ptr @_ZNSt10unique_ptrIN4Poco6Crypto6RSAKeyESt14default_deleteIS2_EED2Ev, ptr @_ZN7JWTAuth4_keyE, ptr @__dso_handle) #3, !dbg !5938
  ret void, !dbg !5939

6:                                                ; preds = %0
  %7 = landingpad { ptr, i32 }
          cleanup, !dbg !5939
  %8 = extractvalue { ptr, i32 } %7, 0, !dbg !5939
  store ptr %8, ptr %1, align 8, !dbg !5939
  %9 = extractvalue { ptr, i32 } %7, 1, !dbg !5939
  store i32 %9, ptr %2, align 4, !dbg !5939
  call void @_ZdlPv(ptr noundef %3) #19, !dbg !5934
  br label %10, !dbg !5934

10:                                               ; preds = %6
  %11 = load ptr, ptr %1, align 8, !dbg !5934
  %12 = load i32, ptr %2, align 4, !dbg !5934
  %13 = insertvalue { ptr, i32 } poison, ptr %11, 0, !dbg !5934
  %14 = insertvalue { ptr, i32 } %13, i32 %12, 1, !dbg !5934
  resume { ptr, i32 } %14, !dbg !5934
}

; Function Attrs: nobuiltin allocsize(0)
declare noundef nonnull ptr @_Znwm(i64 noundef) #7

declare void @_ZN4Poco6Crypto6RSAKeyC1ENS1_9KeyLengthENS1_8ExponentE(ptr noundef nonnull align 8 dereferenceable(16), i32 noundef, i32 noundef) unnamed_addr #1

declare i32 @__gxx_personality_v0(...)

; Function Attrs: nobuiltin nounwind
declare void @_ZdlPv(ptr noundef) #8

; Function Attrs: noinline nounwind optnone uwtable
define linkonce_odr dso_local void @_ZNSt10unique_ptrIN4Poco6Crypto6RSAKeyESt14default_deleteIS2_EEC2IS4_vEEPS2_(ptr noundef nonnull align 8 dereferenceable(8) %0, ptr noundef %1) unnamed_addr #6 comdat align 2 personality ptr @__gxx_personality_v0 !dbg !5940 {
  %3 = alloca ptr, align 8
  %4 = alloca ptr, align 8
  store ptr %0, ptr %3, align 8
  call void @llvm.dbg.declare(metadata ptr %3, metadata !5945, metadata !DIExpression()), !dbg !5947
  store ptr %1, ptr %4, align 8
  call void @llvm.dbg.declare(metadata ptr %4, metadata !5948, metadata !DIExpression()), !dbg !5949
  %5 = load ptr, ptr %3, align 8
  %6 = getelementptr inbounds %"class.std::unique_ptr", ptr %5, i32 0, i32 0, !dbg !5950
  %7 = load ptr, ptr %4, align 8, !dbg !5951
  invoke void @_ZNSt15__uniq_ptr_dataIN4Poco6Crypto6RSAKeyESt14default_deleteIS2_ELb1ELb1EECI2St15__uniq_ptr_implIS2_S4_EEPS2_(ptr noundef nonnull align 8 dereferenceable(8) %6, ptr noundef %7)
          to label %8 unwind label %9, !dbg !5950

8:                                                ; preds = %2
  ret void, !dbg !5952

9:                                                ; preds = %2
  %10 = landingpad { ptr, i32 }
          catch ptr null, !dbg !5950
  %11 = extractvalue { ptr, i32 } %10, 0, !dbg !5950
  call void @__clang_call_terminate(ptr %11) #20, !dbg !5950
  unreachable, !dbg !5950
}

; Function Attrs: noinline nounwind optnone uwtable
define linkonce_odr dso_local void @_ZNSt10unique_ptrIN4Poco6Crypto6RSAKeyESt14default_deleteIS2_EED2Ev(ptr noundef nonnull align 8 dereferenceable(8) %0) unnamed_addr #6 comdat align 2 personality ptr @__gxx_personality_v0 !dbg !5953 {
  %2 = alloca ptr, align 8
  %3 = alloca ptr, align 8
  store ptr %0, ptr %2, align 8
  call void @llvm.dbg.declare(metadata ptr %2, metadata !5954, metadata !DIExpression()), !dbg !5955
  %4 = load ptr, ptr %2, align 8
  call void @llvm.dbg.declare(metadata ptr %3, metadata !5956, metadata !DIExpression()), !dbg !5958
  %5 = getelementptr inbounds %"class.std::unique_ptr", ptr %4, i32 0, i32 0, !dbg !5959
  %6 = call noundef nonnull align 8 dereferenceable(8) ptr @_ZNSt15__uniq_ptr_implIN4Poco6Crypto6RSAKeyESt14default_deleteIS2_EE6_M_ptrEv(ptr noundef nonnull align 8 dereferenceable(8) %5), !dbg !5960
  store ptr %6, ptr %3, align 8, !dbg !5958
  %7 = load ptr, ptr %3, align 8, !dbg !5961
  %8 = load ptr, ptr %7, align 8, !dbg !5961
  %9 = icmp ne ptr %8, null, !dbg !5963
  br i1 %9, label %10, label %15, !dbg !5964

10:                                               ; preds = %1
  %11 = call noundef nonnull align 1 dereferenceable(1) ptr @_ZNSt10unique_ptrIN4Poco6Crypto6RSAKeyESt14default_deleteIS2_EE11get_deleterEv(ptr noundef nonnull align 8 dereferenceable(8) %4) #3, !dbg !5965
  %12 = load ptr, ptr %3, align 8, !dbg !5966
  %13 = load ptr, ptr %12, align 8, !dbg !5967
  invoke void @_ZNKSt14default_deleteIN4Poco6Crypto6RSAKeyEEclEPS2_(ptr noundef nonnull align 1 dereferenceable(1) %11, ptr noundef %13)
          to label %14 unwind label %17, !dbg !5965

14:                                               ; preds = %10
  br label %15, !dbg !5965

15:                                               ; preds = %14, %1
  %16 = load ptr, ptr %3, align 8, !dbg !5968
  store ptr null, ptr %16, align 8, !dbg !5969
  ret void, !dbg !5970

17:                                               ; preds = %10
  %18 = landingpad { ptr, i32 }
          catch ptr null, !dbg !5965
  %19 = extractvalue { ptr, i32 } %18, 0, !dbg !5965
  call void @__clang_call_terminate(ptr %19) #20, !dbg !5965
  unreachable, !dbg !5965
}

; Function Attrs: mustprogress noinline nounwind optnone uwtable
define dso_local void @_ZN7JWTAuth7cleanupEv() #9 align 2 !dbg !5971 {
  call void @_ZNSt10unique_ptrIN4Poco6Crypto6RSAKeyESt14default_deleteIS2_EE5resetEPS2_(ptr noundef nonnull align 8 dereferenceable(8) @_ZN7JWTAuth4_keyE, ptr noundef null) #3, !dbg !5972
  ret void, !dbg !5973
}

; Function Attrs: mustprogress noinline nounwind optnone uwtable
define linkonce_odr dso_local void @_ZNSt10unique_ptrIN4Poco6Crypto6RSAKeyESt14default_deleteIS2_EE5resetEPS2_(ptr noundef nonnull align 8 dereferenceable(8) %0, ptr noundef %1) #9 comdat align 2 !dbg !5974 {
  %3 = alloca ptr, align 8
  %4 = alloca ptr, align 8
  store ptr %0, ptr %3, align 8
  call void @llvm.dbg.declare(metadata ptr %3, metadata !5975, metadata !DIExpression()), !dbg !5976
  store ptr %1, ptr %4, align 8
  call void @llvm.dbg.declare(metadata ptr %4, metadata !5977, metadata !DIExpression()), !dbg !5978
  %5 = load ptr, ptr %3, align 8
  %6 = getelementptr inbounds %"class.std::unique_ptr", ptr %5, i32 0, i32 0, !dbg !5979
  %7 = load ptr, ptr %4, align 8, !dbg !5980
  call void @_ZNSt15__uniq_ptr_implIN4Poco6Crypto6RSAKeyESt14default_deleteIS2_EE5resetEPS2_(ptr noundef nonnull align 8 dereferenceable(8) %6, ptr noundef %7) #3, !dbg !5981
  ret void, !dbg !5982
}

; Function Attrs: mustprogress noinline optnone uwtable
define dso_local void @_ZN7JWTAuth14getAccessTokenB5cxx11Ev(ptr noalias sret(%"class.std::__cxx11::basic_string") align 8 %0, ptr noundef nonnull align 8 dereferenceable(352) %1) unnamed_addr #4 align 2 personality ptr @__gxx_personality_v0 !dbg !1910 {
  %3 = alloca ptr, align 8
  %4 = alloca ptr, align 8
  %5 = alloca %"class.std::__cxx11::basic_string", align 8
  %6 = alloca %"class.std::__cxx11::basic_string", align 8
  %7 = alloca ptr, align 8
  %8 = alloca i32, align 4
  %9 = alloca %"class.__gnu_cxx::__normal_iterator.7", align 8
  %10 = alloca %"class.__gnu_cxx::__normal_iterator", align 8
  %11 = alloca %"class.std::reverse_iterator", align 8
  %12 = alloca %"class.std::reverse_iterator", align 8
  %13 = alloca %"class.std::reverse_iterator", align 8
  %14 = alloca %class.anon, align 1
  %15 = alloca %"class.__gnu_cxx::__normal_iterator.7", align 8
  %16 = alloca %"class.__gnu_cxx::__normal_iterator", align 8
  %17 = alloca %"class.__gnu_cxx::__normal_iterator", align 8
  %18 = alloca %"class.__gnu_cxx::__normal_iterator.7", align 8
  %19 = alloca %"class.__gnu_cxx::__normal_iterator", align 8
  %20 = alloca %"class.std::reverse_iterator", align 8
  %21 = alloca %"class.std::reverse_iterator", align 8
  %22 = alloca %"class.std::reverse_iterator", align 8
  %23 = alloca %class.anon.8, align 1
  %24 = alloca %"class.__gnu_cxx::__normal_iterator.7", align 8
  %25 = alloca %"class.__gnu_cxx::__normal_iterator", align 8
  %26 = alloca %"class.__gnu_cxx::__normal_iterator", align 8
  %27 = alloca ptr, align 8
  %28 = alloca [1024 x i8], align 16
  %29 = alloca %"class.std::__cxx11::basic_ostringstream", align 8
  %30 = alloca %"class.std::__cxx11::basic_string", align 8
  %31 = alloca %"class.std::allocator", align 1
  %32 = alloca %"class.Poco::Message", align 8
  %33 = alloca %"class.std::__cxx11::basic_string", align 8
  %34 = alloca ptr, align 8
  %35 = alloca [1024 x i8], align 16
  %36 = alloca %"class.std::__cxx11::basic_ostringstream", align 8
  %37 = alloca %"class.std::__cxx11::basic_string", align 8
  %38 = alloca %"class.std::allocator", align 1
  %39 = alloca %"class.Poco::Message", align 8
  %40 = alloca %"class.std::__cxx11::basic_string", align 8
  %41 = alloca %"class.__gnu_cxx::__normal_iterator", align 8
  %42 = alloca %"class.__gnu_cxx::__normal_iterator", align 8
  %43 = alloca i8, align 1
  %44 = alloca i8, align 1
  %45 = alloca %"class.__gnu_cxx::__normal_iterator", align 8
  %46 = alloca %"class.__gnu_cxx::__normal_iterator", align 8
  %47 = alloca i8, align 1
  %48 = alloca i8, align 1
  %49 = alloca %"class.__gnu_cxx::__normal_iterator", align 8
  %50 = alloca %"class.__gnu_cxx::__normal_iterator", align 8
  %51 = alloca i8, align 1
  %52 = alloca i8, align 1
  %53 = alloca %"class.__gnu_cxx::__normal_iterator", align 8
  %54 = alloca %"class.__gnu_cxx::__normal_iterator", align 8
  %55 = alloca i8, align 1
  %56 = alloca i8, align 1
  %57 = alloca %"class.std::__cxx11::basic_string", align 8
  %58 = alloca %"class.std::__cxx11::basic_string", align 8
  %59 = alloca %"class.std::vector", align 8
  %60 = alloca %"class.std::__cxx11::basic_ostringstream", align 8
  %61 = alloca %"class.Poco::OutputLineEndingConverter", align 8
  %62 = alloca %"class.std::__cxx11::basic_string", align 8
  %63 = alloca %"class.std::allocator", align 1
  %64 = alloca %"class.Poco::Base64Encoder", align 8
  %65 = alloca %"class.std::__cxx11::basic_string", align 8
  %66 = alloca %"class.__gnu_cxx::__normal_iterator.14", align 8
  %67 = alloca %"class.__gnu_cxx::__normal_iterator.14", align 8
  %68 = alloca %"class.std::allocator", align 1
  %69 = alloca %"class.std::__cxx11::basic_string", align 8
  %70 = alloca %"class.__gnu_cxx::__normal_iterator.7", align 8
  %71 = alloca %"class.__gnu_cxx::__normal_iterator", align 8
  %72 = alloca %"class.std::reverse_iterator", align 8
  %73 = alloca %"class.std::reverse_iterator", align 8
  %74 = alloca %"class.std::reverse_iterator", align 8
  %75 = alloca %class.anon.15, align 1
  %76 = alloca %"class.__gnu_cxx::__normal_iterator.7", align 8
  %77 = alloca %"class.__gnu_cxx::__normal_iterator", align 8
  %78 = alloca %"class.__gnu_cxx::__normal_iterator", align 8
  %79 = alloca %"class.__gnu_cxx::__normal_iterator", align 8
  %80 = alloca %"class.__gnu_cxx::__normal_iterator", align 8
  %81 = alloca i8, align 1
  %82 = alloca i8, align 1
  %83 = alloca %"class.__gnu_cxx::__normal_iterator", align 8
  %84 = alloca %"class.__gnu_cxx::__normal_iterator", align 8
  %85 = alloca i8, align 1
  %86 = alloca i8, align 1
  %87 = alloca ptr, align 8
  %88 = alloca [1024 x i8], align 16
  %89 = alloca %"class.std::__cxx11::basic_ostringstream", align 8
  %90 = alloca %"class.std::__cxx11::basic_string", align 8
  %91 = alloca %"class.std::allocator", align 1
  %92 = alloca %"class.Poco::Message", align 8
  %93 = alloca %"class.std::__cxx11::basic_string", align 8
  %94 = alloca i1, align 1
  %95 = alloca %"class.std::__cxx11::basic_string", align 8
  %96 = alloca ptr, align 8
  %97 = alloca [1024 x i8], align 16
  %98 = alloca %"class.std::__cxx11::basic_ostringstream", align 8
  %99 = alloca %"class.std::__cxx11::basic_string", align 8
  %100 = alloca %"class.std::allocator", align 1
  %101 = alloca %"class.Poco::Message", align 8
  %102 = alloca %"class.std::__cxx11::basic_string", align 8
  store ptr %0, ptr %3, align 8
  store ptr %1, ptr %4, align 8
  call void @llvm.dbg.declare(metadata ptr %4, metadata !5983, metadata !DIExpression()), !dbg !5985
  %103 = load ptr, ptr %4, align 8
  call void @llvm.dbg.declare(metadata ptr %5, metadata !5986, metadata !DIExpression()), !dbg !5987
  call void @_ZN7JWTAuth12createHeaderB5cxx11Ev(ptr sret(%"class.std::__cxx11::basic_string") align 8 %5, ptr noundef nonnull align 8 dereferenceable(352) %103), !dbg !5988
  call void @llvm.dbg.declare(metadata ptr %6, metadata !5989, metadata !DIExpression()), !dbg !5990
  invoke void @_ZN7JWTAuth13createPayloadB5cxx11Ev(ptr sret(%"class.std::__cxx11::basic_string") align 8 %6, ptr noundef nonnull align 8 dereferenceable(352) %103)
          to label %104 unwind label %175, !dbg !5991

104:                                              ; preds = %2
  call void @_ZNSt7__cxx1112basic_stringIcSt11char_traitsIcESaIcEE6rbeginEv(ptr sret(%"class.std::reverse_iterator") align 8 %12, ptr noundef nonnull align 8 dereferenceable(32) %5) #3, !dbg !5992
  call void @_ZNSt7__cxx1112basic_stringIcSt11char_traitsIcESaIcEE4rendEv(ptr sret(%"class.std::reverse_iterator") align 8 %13, ptr noundef nonnull align 8 dereferenceable(32) %5) #3, !dbg !5993
  invoke void @"_ZSt7find_ifISt16reverse_iteratorIN9__gnu_cxx17__normal_iteratorIPcNSt7__cxx1112basic_stringIcSt11char_traitsIcESaIcEEEEEEZN7JWTAuth14getAccessTokenEvE3$_0ET_SE_SE_T0_"(ptr sret(%"class.std::reverse_iterator") align 8 %11, ptr noundef %12, ptr noundef %13)
          to label %105 unwind label %179, !dbg !5994

105:                                              ; preds = %104
  %106 = invoke ptr @_ZNKSt16reverse_iteratorIN9__gnu_cxx17__normal_iteratorIPcNSt7__cxx1112basic_stringIcSt11char_traitsIcESaIcEEEEEE4baseEv(ptr noundef nonnull align 8 dereferenceable(8) %11)
          to label %107 unwind label %179, !dbg !5995

107:                                              ; preds = %105
  %108 = getelementptr inbounds %"class.__gnu_cxx::__normal_iterator", ptr %10, i32 0, i32 0, !dbg !5995
  store ptr %106, ptr %108, align 8, !dbg !5995
  call void @_ZN9__gnu_cxx17__normal_iteratorIPKcNSt7__cxx1112basic_stringIcSt11char_traitsIcESaIcEEEEC2IPcEERKNS0_IT_NS_11__enable_ifIXsr3std10__are_sameISC_SB_EE7__valueES8_E6__typeEEE(ptr noundef nonnull align 8 dereferenceable(8) %9, ptr noundef nonnull align 8 dereferenceable(8) %10) #3, !dbg !5994
  %109 = call ptr @_ZNSt7__cxx1112basic_stringIcSt11char_traitsIcESaIcEE3endEv(ptr noundef nonnull align 8 dereferenceable(32) %5) #3, !dbg !5996
  %110 = getelementptr inbounds %"class.__gnu_cxx::__normal_iterator", ptr %16, i32 0, i32 0, !dbg !5996
  store ptr %109, ptr %110, align 8, !dbg !5996
  call void @_ZN9__gnu_cxx17__normal_iteratorIPKcNSt7__cxx1112basic_stringIcSt11char_traitsIcESaIcEEEEC2IPcEERKNS0_IT_NS_11__enable_ifIXsr3std10__are_sameISC_SB_EE7__valueES8_E6__typeEEE(ptr noundef nonnull align 8 dereferenceable(8) %15, ptr noundef nonnull align 8 dereferenceable(8) %16) #3, !dbg !5997
  %111 = getelementptr inbounds %"class.__gnu_cxx::__normal_iterator.7", ptr %9, i32 0, i32 0, !dbg !5998
  %112 = load ptr, ptr %111, align 8, !dbg !5998
  %113 = getelementptr inbounds %"class.__gnu_cxx::__normal_iterator.7", ptr %15, i32 0, i32 0, !dbg !5998
  %114 = load ptr, ptr %113, align 8, !dbg !5998
  %115 = invoke ptr @_ZNSt7__cxx1112basic_stringIcSt11char_traitsIcESaIcEE5eraseEN9__gnu_cxx17__normal_iteratorIPKcS4_EES9_(ptr noundef nonnull align 8 dereferenceable(32) %5, ptr %112, ptr %114)
          to label %116 unwind label %179, !dbg !5998

116:                                              ; preds = %107
  %117 = getelementptr inbounds %"class.__gnu_cxx::__normal_iterator", ptr %17, i32 0, i32 0, !dbg !5998
  store ptr %115, ptr %117, align 8, !dbg !5998
  call void @_ZNSt7__cxx1112basic_stringIcSt11char_traitsIcESaIcEE6rbeginEv(ptr sret(%"class.std::reverse_iterator") align 8 %21, ptr noundef nonnull align 8 dereferenceable(32) %6) #3, !dbg !5999
  call void @_ZNSt7__cxx1112basic_stringIcSt11char_traitsIcESaIcEE4rendEv(ptr sret(%"class.std::reverse_iterator") align 8 %22, ptr noundef nonnull align 8 dereferenceable(32) %6) #3, !dbg !6000
  invoke void @"_ZSt7find_ifISt16reverse_iteratorIN9__gnu_cxx17__normal_iteratorIPcNSt7__cxx1112basic_stringIcSt11char_traitsIcESaIcEEEEEEZN7JWTAuth14getAccessTokenEvE3$_1ET_SE_SE_T0_"(ptr sret(%"class.std::reverse_iterator") align 8 %20, ptr noundef %21, ptr noundef %22)
          to label %118 unwind label %179, !dbg !6001

118:                                              ; preds = %116
  %119 = invoke ptr @_ZNKSt16reverse_iteratorIN9__gnu_cxx17__normal_iteratorIPcNSt7__cxx1112basic_stringIcSt11char_traitsIcESaIcEEEEEE4baseEv(ptr noundef nonnull align 8 dereferenceable(8) %20)
          to label %120 unwind label %179, !dbg !6002

120:                                              ; preds = %118
  %121 = getelementptr inbounds %"class.__gnu_cxx::__normal_iterator", ptr %19, i32 0, i32 0, !dbg !6002
  store ptr %119, ptr %121, align 8, !dbg !6002
  call void @_ZN9__gnu_cxx17__normal_iteratorIPKcNSt7__cxx1112basic_stringIcSt11char_traitsIcESaIcEEEEC2IPcEERKNS0_IT_NS_11__enable_ifIXsr3std10__are_sameISC_SB_EE7__valueES8_E6__typeEEE(ptr noundef nonnull align 8 dereferenceable(8) %18, ptr noundef nonnull align 8 dereferenceable(8) %19) #3, !dbg !6001
  %122 = call ptr @_ZNSt7__cxx1112basic_stringIcSt11char_traitsIcESaIcEE3endEv(ptr noundef nonnull align 8 dereferenceable(32) %6) #3, !dbg !6003
  %123 = getelementptr inbounds %"class.__gnu_cxx::__normal_iterator", ptr %25, i32 0, i32 0, !dbg !6003
  store ptr %122, ptr %123, align 8, !dbg !6003
  call void @_ZN9__gnu_cxx17__normal_iteratorIPKcNSt7__cxx1112basic_stringIcSt11char_traitsIcESaIcEEEEC2IPcEERKNS0_IT_NS_11__enable_ifIXsr3std10__are_sameISC_SB_EE7__valueES8_E6__typeEEE(ptr noundef nonnull align 8 dereferenceable(8) %24, ptr noundef nonnull align 8 dereferenceable(8) %25) #3, !dbg !6004
  %124 = getelementptr inbounds %"class.__gnu_cxx::__normal_iterator.7", ptr %18, i32 0, i32 0, !dbg !6005
  %125 = load ptr, ptr %124, align 8, !dbg !6005
  %126 = getelementptr inbounds %"class.__gnu_cxx::__normal_iterator.7", ptr %24, i32 0, i32 0, !dbg !6005
  %127 = load ptr, ptr %126, align 8, !dbg !6005
  %128 = invoke ptr @_ZNSt7__cxx1112basic_stringIcSt11char_traitsIcESaIcEE5eraseEN9__gnu_cxx17__normal_iteratorIPKcS4_EES9_(ptr noundef nonnull align 8 dereferenceable(32) %6, ptr %125, ptr %127)
          to label %129 unwind label %179, !dbg !6005

129:                                              ; preds = %120
  %130 = getelementptr inbounds %"class.__gnu_cxx::__normal_iterator", ptr %26, i32 0, i32 0, !dbg !6005
  store ptr %128, ptr %130, align 8, !dbg !6005
  br label %131, !dbg !6006

131:                                              ; preds = %129
  call void @llvm.dbg.declare(metadata ptr %27, metadata !6007, metadata !DIExpression()), !dbg !6012
  %132 = invoke noundef nonnull align 8 dereferenceable(68) ptr @_ZN3Log6loggerEv()
          to label %133 unwind label %179, !dbg !6012

133:                                              ; preds = %131
  store ptr %132, ptr %27, align 8, !dbg !6012
  %134 = invoke noundef zeroext i1 @_ZN3Log16isShutdownCalledEv()
          to label %135 unwind label %179, !dbg !6013

135:                                              ; preds = %133
  br i1 %134, label %206, label %136, !dbg !6013

136:                                              ; preds = %135
  %137 = load ptr, ptr %27, align 8, !dbg !6013
  %138 = invoke noundef zeroext i1 @_ZNK4Poco6Logger11informationEv(ptr noundef nonnull align 8 dereferenceable(68) %137)
          to label %139 unwind label %179, !dbg !6013

139:                                              ; preds = %136
  br i1 %138, label %140, label %206, !dbg !6012

140:                                              ; preds = %139
  call void @llvm.dbg.declare(metadata ptr %28, metadata !6015, metadata !DIExpression()), !dbg !6020
  call void @llvm.dbg.declare(metadata ptr %29, metadata !6021, metadata !DIExpression()), !dbg !6020
  %141 = getelementptr inbounds [1024 x i8], ptr %28, i64 0, i64 0, !dbg !6020
  %142 = invoke noundef ptr @_ZN3Log6prefixILi1023EEEPcS1_PKc(ptr noundef %141, ptr noundef @.str)
          to label %143 unwind label %179, !dbg !6020

143:                                              ; preds = %140
  call void @_ZNSaIcEC1Ev(ptr noundef nonnull align 1 dereferenceable(1) %31) #3, !dbg !6020
  invoke void @_ZNSt7__cxx1112basic_stringIcSt11char_traitsIcESaIcEEC2IS3_EEPKcRKS3_(ptr noundef nonnull align 8 dereferenceable(32) %30, ptr noundef %142, ptr noundef nonnull align 1 dereferenceable(1) %31)
          to label %144 unwind label %183, !dbg !6020

144:                                              ; preds = %143
  invoke void @_ZNSt7__cxx1119basic_ostringstreamIcSt11char_traitsIcESaIcEEC1ERKNS_12basic_stringIcS2_S3_EESt13_Ios_Openmode(ptr noundef nonnull align 8 dereferenceable(112) %29, ptr noundef nonnull align 8 dereferenceable(32) %30, i32 noundef 2)
          to label %145 unwind label %187, !dbg !6020

145:                                              ; preds = %144
  call void @_ZNSt7__cxx1112basic_stringIcSt11char_traitsIcESaIcEED1Ev(ptr noundef nonnull align 8 dereferenceable(32) %30) #3, !dbg !6020
  call void @_ZNSaIcED1Ev(ptr noundef nonnull align 1 dereferenceable(1) %31) #3, !dbg !6020
  %146 = invoke noundef nonnull align 8 dereferenceable(8) ptr @_ZNSolsEPFRSt8ios_baseS0_E(ptr noundef nonnull align 8 dereferenceable(8) %29, ptr noundef @_ZSt9boolalphaRSt8ios_base)
          to label %147 unwind label %192, !dbg !6020

147:                                              ; preds = %145
  %148 = invoke noundef nonnull align 8 dereferenceable(8) ptr @_ZStlsISt11char_traitsIcEERSt13basic_ostreamIcT_ES5_PKc(ptr noundef nonnull align 8 dereferenceable(8) %146, ptr noundef @.str.3)
          to label %149 unwind label %192, !dbg !6020

149:                                              ; preds = %147
  %150 = invoke noundef nonnull align 8 dereferenceable(8) ptr @_ZStlsIcSt11char_traitsIcESaIcEERSt13basic_ostreamIT_T0_ES7_RKNSt7__cxx1112basic_stringIS4_S5_T1_EE(ptr noundef nonnull align 8 dereferenceable(8) %148, ptr noundef nonnull align 8 dereferenceable(32) %5)
          to label %151 unwind label %192, !dbg !6020

151:                                              ; preds = %149
  br label %152, !dbg !6020

152:                                              ; preds = %151
  %153 = invoke noundef nonnull align 8 dereferenceable(8) ptr @_ZStlsISt11char_traitsIcEERSt13basic_ostreamIcT_ES5_PKc(ptr noundef nonnull align 8 dereferenceable(8) %29, ptr noundef @.str.4)
          to label %154 unwind label %192, !dbg !6026

154:                                              ; preds = %152
  %155 = invoke noundef nonnull align 8 dereferenceable(8) ptr @_ZStlsISt11char_traitsIcEERSt13basic_ostreamIcT_ES5_PKc(ptr noundef nonnull align 8 dereferenceable(8) %153, ptr noundef @.str.5)
          to label %156 unwind label %192, !dbg !6026

156:                                              ; preds = %154
  %157 = invoke noundef nonnull align 8 dereferenceable(8) ptr @_ZStlsISt11char_traitsIcEERSt13basic_ostreamIcT_ES5_c(ptr noundef nonnull align 8 dereferenceable(8) %155, i8 noundef signext 58)
          to label %158 unwind label %192, !dbg !6026

158:                                              ; preds = %156
  %159 = invoke noundef nonnull align 8 dereferenceable(8) ptr @_ZNSolsEi(ptr noundef nonnull align 8 dereferenceable(8) %157, i32 noundef 58)
          to label %160 unwind label %192, !dbg !6026

160:                                              ; preds = %158
  %161 = invoke noundef nonnull align 8 dereferenceable(8) ptr @_ZNSo5flushEv(ptr noundef nonnull align 8 dereferenceable(8) %29)
          to label %162 unwind label %192, !dbg !6029

162:                                              ; preds = %160
  br label %163, !dbg !6029

163:                                              ; preds = %162
  br label %164, !dbg !6029

164:                                              ; preds = %163
  %165 = load ptr, ptr %27, align 8, !dbg !6020
  %166 = load ptr, ptr %27, align 8, !dbg !6020
  %167 = invoke noundef nonnull align 8 dereferenceable(32) ptr @_ZNK4Poco6Logger4nameB5cxx11Ev(ptr noundef nonnull align 8 dereferenceable(68) %166)
          to label %168 unwind label %192, !dbg !6020

168:                                              ; preds = %164
  invoke void @_ZNKSt7__cxx1119basic_ostringstreamIcSt11char_traitsIcESaIcEE3strEv(ptr sret(%"class.std::__cxx11::basic_string") align 8 %33, ptr noundef nonnull align 8 dereferenceable(112) %29)
          to label %169 unwind label %192, !dbg !6020

169:                                              ; preds = %168
  invoke void @_ZN4Poco7MessageC1ERKNSt7__cxx1112basic_stringIcSt11char_traitsIcESaIcEEES8_NS0_8PriorityE(ptr noundef nonnull align 8 dereferenceable(152) %32, ptr noundef nonnull align 8 dereferenceable(32) %167, ptr noundef nonnull align 8 dereferenceable(32) %33, i32 noundef 6)
          to label %170 unwind label %196, !dbg !6020

170:                                              ; preds = %169
  %171 = load ptr, ptr %165, align 8, !dbg !6020
  %172 = getelementptr inbounds ptr, ptr %171, i64 6, !dbg !6020
  %173 = load ptr, ptr %172, align 8, !dbg !6020
  invoke void %173(ptr noundef nonnull align 8 dereferenceable(68) %165, ptr noundef nonnull align 8 dereferenceable(152) %32)
          to label %174 unwind label %200, !dbg !6020

174:                                              ; preds = %170
  call void @_ZN4Poco7MessageD1Ev(ptr noundef nonnull align 8 dereferenceable(152) %32) #3, !dbg !6020
  call void @_ZNSt7__cxx1112basic_stringIcSt11char_traitsIcESaIcEED1Ev(ptr noundef nonnull align 8 dereferenceable(32) %33) #3, !dbg !6020
  call void @_ZNSt7__cxx1119basic_ostringstreamIcSt11char_traitsIcESaIcEED1Ev(ptr noundef nonnull align 8 dereferenceable(112) %29) #3, !dbg !6013
  br label %206, !dbg !6020

175:                                              ; preds = %2
  %176 = landingpad { ptr, i32 }
          cleanup, !dbg !6030
  %177 = extractvalue { ptr, i32 } %176, 0, !dbg !6030
  store ptr %177, ptr %7, align 8, !dbg !6030
  %178 = extractvalue { ptr, i32 } %176, 1, !dbg !6030
  store i32 %178, ptr %8, align 4, !dbg !6030
  br label %581, !dbg !6030

179:                                              ; preds = %314, %305, %296, %287, %278, %218, %214, %211, %209, %140, %136, %133, %131, %120, %118, %116, %107, %105, %104
  %180 = landingpad { ptr, i32 }
          cleanup, !dbg !6030
  %181 = extractvalue { ptr, i32 } %180, 0, !dbg !6030
  store ptr %181, ptr %7, align 8, !dbg !6030
  %182 = extractvalue { ptr, i32 } %180, 1, !dbg !6030
  store i32 %182, ptr %8, align 4, !dbg !6030
  br label %580, !dbg !6030

183:                                              ; preds = %143
  %184 = landingpad { ptr, i32 }
          cleanup, !dbg !6031
  %185 = extractvalue { ptr, i32 } %184, 0, !dbg !6031
  store ptr %185, ptr %7, align 8, !dbg !6031
  %186 = extractvalue { ptr, i32 } %184, 1, !dbg !6031
  store i32 %186, ptr %8, align 4, !dbg !6031
  br label %191, !dbg !6031

187:                                              ; preds = %144
  %188 = landingpad { ptr, i32 }
          cleanup, !dbg !6031
  %189 = extractvalue { ptr, i32 } %188, 0, !dbg !6031
  store ptr %189, ptr %7, align 8, !dbg !6031
  %190 = extractvalue { ptr, i32 } %188, 1, !dbg !6031
  store i32 %190, ptr %8, align 4, !dbg !6031
  call void @_ZNSt7__cxx1112basic_stringIcSt11char_traitsIcESaIcEED1Ev(ptr noundef nonnull align 8 dereferenceable(32) %30) #3, !dbg !6020
  br label %191, !dbg !6020

191:                                              ; preds = %187, %183
  call void @_ZNSaIcED1Ev(ptr noundef nonnull align 1 dereferenceable(1) %31) #3, !dbg !6020
  br label %580, !dbg !6020

192:                                              ; preds = %168, %164, %160, %158, %156, %154, %152, %149, %147, %145
  %193 = landingpad { ptr, i32 }
          cleanup, !dbg !6031
  %194 = extractvalue { ptr, i32 } %193, 0, !dbg !6031
  store ptr %194, ptr %7, align 8, !dbg !6031
  %195 = extractvalue { ptr, i32 } %193, 1, !dbg !6031
  store i32 %195, ptr %8, align 4, !dbg !6031
  br label %205, !dbg !6031

196:                                              ; preds = %169
  %197 = landingpad { ptr, i32 }
          cleanup, !dbg !6031
  %198 = extractvalue { ptr, i32 } %197, 0, !dbg !6031
  store ptr %198, ptr %7, align 8, !dbg !6031
  %199 = extractvalue { ptr, i32 } %197, 1, !dbg !6031
  store i32 %199, ptr %8, align 4, !dbg !6031
  br label %204, !dbg !6031

200:                                              ; preds = %170
  %201 = landingpad { ptr, i32 }
          cleanup, !dbg !6031
  %202 = extractvalue { ptr, i32 } %201, 0, !dbg !6031
  store ptr %202, ptr %7, align 8, !dbg !6031
  %203 = extractvalue { ptr, i32 } %201, 1, !dbg !6031
  store i32 %203, ptr %8, align 4, !dbg !6031
  call void @_ZN4Poco7MessageD1Ev(ptr noundef nonnull align 8 dereferenceable(152) %32) #3, !dbg !6020
  br label %204, !dbg !6020

204:                                              ; preds = %200, %196
  call void @_ZNSt7__cxx1112basic_stringIcSt11char_traitsIcESaIcEED1Ev(ptr noundef nonnull align 8 dereferenceable(32) %33) #3, !dbg !6020
  br label %205, !dbg !6020

205:                                              ; preds = %204, %192
  call void @_ZNSt7__cxx1119basic_ostringstreamIcSt11char_traitsIcESaIcEED1Ev(ptr noundef nonnull align 8 dereferenceable(112) %29) #3, !dbg !6013
  br label %580, !dbg !6013

206:                                              ; preds = %174, %139, %135
  br label %207, !dbg !6012

207:                                              ; preds = %206
  br label %208, !dbg !6012

208:                                              ; preds = %207
  br label %209, !dbg !6032

209:                                              ; preds = %208
  call void @llvm.dbg.declare(metadata ptr %34, metadata !6033, metadata !DIExpression()), !dbg !6035
  %210 = invoke noundef nonnull align 8 dereferenceable(68) ptr @_ZN3Log6loggerEv()
          to label %211 unwind label %179, !dbg !6035

211:                                              ; preds = %209
  store ptr %210, ptr %34, align 8, !dbg !6035
  %212 = invoke noundef zeroext i1 @_ZN3Log16isShutdownCalledEv()
          to label %213 unwind label %179, !dbg !6036

213:                                              ; preds = %211
  br i1 %212, label %276, label %214, !dbg !6036

214:                                              ; preds = %213
  %215 = load ptr, ptr %34, align 8, !dbg !6036
  %216 = invoke noundef zeroext i1 @_ZNK4Poco6Logger11informationEv(ptr noundef nonnull align 8 dereferenceable(68) %215)
          to label %217 unwind label %179, !dbg !6036

217:                                              ; preds = %214
  br i1 %216, label %218, label %276, !dbg !6035

218:                                              ; preds = %217
  call void @llvm.dbg.declare(metadata ptr %35, metadata !6038, metadata !DIExpression()), !dbg !6040
  call void @llvm.dbg.declare(metadata ptr %36, metadata !6041, metadata !DIExpression()), !dbg !6040
  %219 = getelementptr inbounds [1024 x i8], ptr %35, i64 0, i64 0, !dbg !6040
  %220 = invoke noundef ptr @_ZN3Log6prefixILi1023EEEPcS1_PKc(ptr noundef %219, ptr noundef @.str)
          to label %221 unwind label %179, !dbg !6040

221:                                              ; preds = %218
  call void @_ZNSaIcEC1Ev(ptr noundef nonnull align 1 dereferenceable(1) %38) #3, !dbg !6040
  invoke void @_ZNSt7__cxx1112basic_stringIcSt11char_traitsIcESaIcEEC2IS3_EEPKcRKS3_(ptr noundef nonnull align 8 dereferenceable(32) %37, ptr noundef %220, ptr noundef nonnull align 1 dereferenceable(1) %38)
          to label %222 unwind label %253, !dbg !6040

222:                                              ; preds = %221
  invoke void @_ZNSt7__cxx1119basic_ostringstreamIcSt11char_traitsIcESaIcEEC1ERKNS_12basic_stringIcS2_S3_EESt13_Ios_Openmode(ptr noundef nonnull align 8 dereferenceable(112) %36, ptr noundef nonnull align 8 dereferenceable(32) %37, i32 noundef 2)
          to label %223 unwind label %257, !dbg !6040

223:                                              ; preds = %222
  call void @_ZNSt7__cxx1112basic_stringIcSt11char_traitsIcESaIcEED1Ev(ptr noundef nonnull align 8 dereferenceable(32) %37) #3, !dbg !6040
  call void @_ZNSaIcED1Ev(ptr noundef nonnull align 1 dereferenceable(1) %38) #3, !dbg !6040
  %224 = invoke noundef nonnull align 8 dereferenceable(8) ptr @_ZNSolsEPFRSt8ios_baseS0_E(ptr noundef nonnull align 8 dereferenceable(8) %36, ptr noundef @_ZSt9boolalphaRSt8ios_base)
          to label %225 unwind label %262, !dbg !6040

225:                                              ; preds = %223
  %226 = invoke noundef nonnull align 8 dereferenceable(8) ptr @_ZStlsISt11char_traitsIcEERSt13basic_ostreamIcT_ES5_PKc(ptr noundef nonnull align 8 dereferenceable(8) %224, ptr noundef @.str.6)
          to label %227 unwind label %262, !dbg !6040

227:                                              ; preds = %225
  %228 = invoke noundef nonnull align 8 dereferenceable(8) ptr @_ZStlsIcSt11char_traitsIcESaIcEERSt13basic_ostreamIT_T0_ES7_RKNSt7__cxx1112basic_stringIS4_S5_T1_EE(ptr noundef nonnull align 8 dereferenceable(8) %226, ptr noundef nonnull align 8 dereferenceable(32) %6)
          to label %229 unwind label %262, !dbg !6040

229:                                              ; preds = %227
  br label %230, !dbg !6040

230:                                              ; preds = %229
  %231 = invoke noundef nonnull align 8 dereferenceable(8) ptr @_ZStlsISt11char_traitsIcEERSt13basic_ostreamIcT_ES5_PKc(ptr noundef nonnull align 8 dereferenceable(8) %36, ptr noundef @.str.4)
          to label %232 unwind label %262, !dbg !6042

232:                                              ; preds = %230
  %233 = invoke noundef nonnull align 8 dereferenceable(8) ptr @_ZStlsISt11char_traitsIcEERSt13basic_ostreamIcT_ES5_PKc(ptr noundef nonnull align 8 dereferenceable(8) %231, ptr noundef @.str.5)
          to label %234 unwind label %262, !dbg !6042

234:                                              ; preds = %232
  %235 = invoke noundef nonnull align 8 dereferenceable(8) ptr @_ZStlsISt11char_traitsIcEERSt13basic_ostreamIcT_ES5_c(ptr noundef nonnull align 8 dereferenceable(8) %233, i8 noundef signext 58)
          to label %236 unwind label %262, !dbg !6042

236:                                              ; preds = %234
  %237 = invoke noundef nonnull align 8 dereferenceable(8) ptr @_ZNSolsEi(ptr noundef nonnull align 8 dereferenceable(8) %235, i32 noundef 59)
          to label %238 unwind label %262, !dbg !6042

238:                                              ; preds = %236
  %239 = invoke noundef nonnull align 8 dereferenceable(8) ptr @_ZNSo5flushEv(ptr noundef nonnull align 8 dereferenceable(8) %36)
          to label %240 unwind label %262, !dbg !6045

240:                                              ; preds = %238
  br label %241, !dbg !6045

241:                                              ; preds = %240
  br label %242, !dbg !6045

242:                                              ; preds = %241
  %243 = load ptr, ptr %34, align 8, !dbg !6040
  %244 = load ptr, ptr %34, align 8, !dbg !6040
  %245 = invoke noundef nonnull align 8 dereferenceable(32) ptr @_ZNK4Poco6Logger4nameB5cxx11Ev(ptr noundef nonnull align 8 dereferenceable(68) %244)
          to label %246 unwind label %262, !dbg !6040

246:                                              ; preds = %242
  invoke void @_ZNKSt7__cxx1119basic_ostringstreamIcSt11char_traitsIcESaIcEE3strEv(ptr sret(%"class.std::__cxx11::basic_string") align 8 %40, ptr noundef nonnull align 8 dereferenceable(112) %36)
          to label %247 unwind label %262, !dbg !6040

247:                                              ; preds = %246
  invoke void @_ZN4Poco7MessageC1ERKNSt7__cxx1112basic_stringIcSt11char_traitsIcESaIcEEES8_NS0_8PriorityE(ptr noundef nonnull align 8 dereferenceable(152) %39, ptr noundef nonnull align 8 dereferenceable(32) %245, ptr noundef nonnull align 8 dereferenceable(32) %40, i32 noundef 6)
          to label %248 unwind label %266, !dbg !6040

248:                                              ; preds = %247
  %249 = load ptr, ptr %243, align 8, !dbg !6040
  %250 = getelementptr inbounds ptr, ptr %249, i64 6, !dbg !6040
  %251 = load ptr, ptr %250, align 8, !dbg !6040
  invoke void %251(ptr noundef nonnull align 8 dereferenceable(68) %243, ptr noundef nonnull align 8 dereferenceable(152) %39)
          to label %252 unwind label %270, !dbg !6040

252:                                              ; preds = %248
  call void @_ZN4Poco7MessageD1Ev(ptr noundef nonnull align 8 dereferenceable(152) %39) #3, !dbg !6040
  call void @_ZNSt7__cxx1112basic_stringIcSt11char_traitsIcESaIcEED1Ev(ptr noundef nonnull align 8 dereferenceable(32) %40) #3, !dbg !6040
  call void @_ZNSt7__cxx1119basic_ostringstreamIcSt11char_traitsIcESaIcEED1Ev(ptr noundef nonnull align 8 dereferenceable(112) %36) #3, !dbg !6036
  br label %276, !dbg !6040

253:                                              ; preds = %221
  %254 = landingpad { ptr, i32 }
          cleanup, !dbg !6046
  %255 = extractvalue { ptr, i32 } %254, 0, !dbg !6046
  store ptr %255, ptr %7, align 8, !dbg !6046
  %256 = extractvalue { ptr, i32 } %254, 1, !dbg !6046
  store i32 %256, ptr %8, align 4, !dbg !6046
  br label %261, !dbg !6046

257:                                              ; preds = %222
  %258 = landingpad { ptr, i32 }
          cleanup, !dbg !6046
  %259 = extractvalue { ptr, i32 } %258, 0, !dbg !6046
  store ptr %259, ptr %7, align 8, !dbg !6046
  %260 = extractvalue { ptr, i32 } %258, 1, !dbg !6046
  store i32 %260, ptr %8, align 4, !dbg !6046
  call void @_ZNSt7__cxx1112basic_stringIcSt11char_traitsIcESaIcEED1Ev(ptr noundef nonnull align 8 dereferenceable(32) %37) #3, !dbg !6040
  br label %261, !dbg !6040

261:                                              ; preds = %257, %253
  call void @_ZNSaIcED1Ev(ptr noundef nonnull align 1 dereferenceable(1) %38) #3, !dbg !6040
  br label %580, !dbg !6040

262:                                              ; preds = %246, %242, %238, %236, %234, %232, %230, %227, %225, %223
  %263 = landingpad { ptr, i32 }
          cleanup, !dbg !6046
  %264 = extractvalue { ptr, i32 } %263, 0, !dbg !6046
  store ptr %264, ptr %7, align 8, !dbg !6046
  %265 = extractvalue { ptr, i32 } %263, 1, !dbg !6046
  store i32 %265, ptr %8, align 4, !dbg !6046
  br label %275, !dbg !6046

266:                                              ; preds = %247
  %267 = landingpad { ptr, i32 }
          cleanup, !dbg !6046
  %268 = extractvalue { ptr, i32 } %267, 0, !dbg !6046
  store ptr %268, ptr %7, align 8, !dbg !6046
  %269 = extractvalue { ptr, i32 } %267, 1, !dbg !6046
  store i32 %269, ptr %8, align 4, !dbg !6046
  br label %274, !dbg !6046

270:                                              ; preds = %248
  %271 = landingpad { ptr, i32 }
          cleanup, !dbg !6046
  %272 = extractvalue { ptr, i32 } %271, 0, !dbg !6046
  store ptr %272, ptr %7, align 8, !dbg !6046
  %273 = extractvalue { ptr, i32 } %271, 1, !dbg !6046
  store i32 %273, ptr %8, align 4, !dbg !6046
  call void @_ZN4Poco7MessageD1Ev(ptr noundef nonnull align 8 dereferenceable(152) %39) #3, !dbg !6040
  br label %274, !dbg !6040

274:                                              ; preds = %270, %266
  call void @_ZNSt7__cxx1112basic_stringIcSt11char_traitsIcESaIcEED1Ev(ptr noundef nonnull align 8 dereferenceable(32) %40) #3, !dbg !6040
  br label %275, !dbg !6040

275:                                              ; preds = %274, %262
  call void @_ZNSt7__cxx1119basic_ostringstreamIcSt11char_traitsIcESaIcEED1Ev(ptr noundef nonnull align 8 dereferenceable(112) %36) #3, !dbg !6036
  br label %580, !dbg !6036

276:                                              ; preds = %252, %217, %213
  br label %277, !dbg !6035

277:                                              ; preds = %276
  br label %278, !dbg !6035

278:                                              ; preds = %277
  %279 = call ptr @_ZNSt7__cxx1112basic_stringIcSt11char_traitsIcESaIcEE5beginEv(ptr noundef nonnull align 8 dereferenceable(32) %5) #3, !dbg !6047
  %280 = getelementptr inbounds %"class.__gnu_cxx::__normal_iterator", ptr %41, i32 0, i32 0, !dbg !6047
  store ptr %279, ptr %280, align 8, !dbg !6047
  %281 = call ptr @_ZNSt7__cxx1112basic_stringIcSt11char_traitsIcESaIcEE3endEv(ptr noundef nonnull align 8 dereferenceable(32) %5) #3, !dbg !6048
  %282 = getelementptr inbounds %"class.__gnu_cxx::__normal_iterator", ptr %42, i32 0, i32 0, !dbg !6048
  store ptr %281, ptr %282, align 8, !dbg !6048
  store i8 43, ptr %43, align 1, !dbg !6049
  store i8 45, ptr %44, align 1, !dbg !6050
  %283 = getelementptr inbounds %"class.__gnu_cxx::__normal_iterator", ptr %41, i32 0, i32 0, !dbg !6051
  %284 = load ptr, ptr %283, align 8, !dbg !6051
  %285 = getelementptr inbounds %"class.__gnu_cxx::__normal_iterator", ptr %42, i32 0, i32 0, !dbg !6051
  %286 = load ptr, ptr %285, align 8, !dbg !6051
  invoke void @_ZSt7replaceIN9__gnu_cxx17__normal_iteratorIPcNSt7__cxx1112basic_stringIcSt11char_traitsIcESaIcEEEEEcEvT_SA_RKT0_SD_(ptr %284, ptr %286, ptr noundef nonnull align 1 dereferenceable(1) %43, ptr noundef nonnull align 1 dereferenceable(1) %44)
          to label %287 unwind label %179, !dbg !6051

287:                                              ; preds = %278
  %288 = call ptr @_ZNSt7__cxx1112basic_stringIcSt11char_traitsIcESaIcEE5beginEv(ptr noundef nonnull align 8 dereferenceable(32) %5) #3, !dbg !6052
  %289 = getelementptr inbounds %"class.__gnu_cxx::__normal_iterator", ptr %45, i32 0, i32 0, !dbg !6052
  store ptr %288, ptr %289, align 8, !dbg !6052
  %290 = call ptr @_ZNSt7__cxx1112basic_stringIcSt11char_traitsIcESaIcEE3endEv(ptr noundef nonnull align 8 dereferenceable(32) %5) #3, !dbg !6053
  %291 = getelementptr inbounds %"class.__gnu_cxx::__normal_iterator", ptr %46, i32 0, i32 0, !dbg !6053
  store ptr %290, ptr %291, align 8, !dbg !6053
  store i8 47, ptr %47, align 1, !dbg !6054
  store i8 95, ptr %48, align 1, !dbg !6055
  %292 = getelementptr inbounds %"class.__gnu_cxx::__normal_iterator", ptr %45, i32 0, i32 0, !dbg !6056
  %293 = load ptr, ptr %292, align 8, !dbg !6056
  %294 = getelementptr inbounds %"class.__gnu_cxx::__normal_iterator", ptr %46, i32 0, i32 0, !dbg !6056
  %295 = load ptr, ptr %294, align 8, !dbg !6056
  invoke void @_ZSt7replaceIN9__gnu_cxx17__normal_iteratorIPcNSt7__cxx1112basic_stringIcSt11char_traitsIcESaIcEEEEEcEvT_SA_RKT0_SD_(ptr %293, ptr %295, ptr noundef nonnull align 1 dereferenceable(1) %47, ptr noundef nonnull align 1 dereferenceable(1) %48)
          to label %296 unwind label %179, !dbg !6056

296:                                              ; preds = %287
  %297 = call ptr @_ZNSt7__cxx1112basic_stringIcSt11char_traitsIcESaIcEE5beginEv(ptr noundef nonnull align 8 dereferenceable(32) %6) #3, !dbg !6057
  %298 = getelementptr inbounds %"class.__gnu_cxx::__normal_iterator", ptr %49, i32 0, i32 0, !dbg !6057
  store ptr %297, ptr %298, align 8, !dbg !6057
  %299 = call ptr @_ZNSt7__cxx1112basic_stringIcSt11char_traitsIcESaIcEE3endEv(ptr noundef nonnull align 8 dereferenceable(32) %6) #3, !dbg !6058
  %300 = getelementptr inbounds %"class.__gnu_cxx::__normal_iterator", ptr %50, i32 0, i32 0, !dbg !6058
  store ptr %299, ptr %300, align 8, !dbg !6058
  store i8 43, ptr %51, align 1, !dbg !6059
  store i8 45, ptr %52, align 1, !dbg !6060
  %301 = getelementptr inbounds %"class.__gnu_cxx::__normal_iterator", ptr %49, i32 0, i32 0, !dbg !6061
  %302 = load ptr, ptr %301, align 8, !dbg !6061
  %303 = getelementptr inbounds %"class.__gnu_cxx::__normal_iterator", ptr %50, i32 0, i32 0, !dbg !6061
  %304 = load ptr, ptr %303, align 8, !dbg !6061
  invoke void @_ZSt7replaceIN9__gnu_cxx17__normal_iteratorIPcNSt7__cxx1112basic_stringIcSt11char_traitsIcESaIcEEEEEcEvT_SA_RKT0_SD_(ptr %302, ptr %304, ptr noundef nonnull align 1 dereferenceable(1) %51, ptr noundef nonnull align 1 dereferenceable(1) %52)
          to label %305 unwind label %179, !dbg !6061

305:                                              ; preds = %296
  %306 = call ptr @_ZNSt7__cxx1112basic_stringIcSt11char_traitsIcESaIcEE5beginEv(ptr noundef nonnull align 8 dereferenceable(32) %6) #3, !dbg !6062
  %307 = getelementptr inbounds %"class.__gnu_cxx::__normal_iterator", ptr %53, i32 0, i32 0, !dbg !6062
  store ptr %306, ptr %307, align 8, !dbg !6062
  %308 = call ptr @_ZNSt7__cxx1112basic_stringIcSt11char_traitsIcESaIcEE3endEv(ptr noundef nonnull align 8 dereferenceable(32) %6) #3, !dbg !6063
  %309 = getelementptr inbounds %"class.__gnu_cxx::__normal_iterator", ptr %54, i32 0, i32 0, !dbg !6063
  store ptr %308, ptr %309, align 8, !dbg !6063
  store i8 47, ptr %55, align 1, !dbg !6064
  store i8 95, ptr %56, align 1, !dbg !6065
  %310 = getelementptr inbounds %"class.__gnu_cxx::__normal_iterator", ptr %53, i32 0, i32 0, !dbg !6066
  %311 = load ptr, ptr %310, align 8, !dbg !6066
  %312 = getelementptr inbounds %"class.__gnu_cxx::__normal_iterator", ptr %54, i32 0, i32 0, !dbg !6066
  %313 = load ptr, ptr %312, align 8, !dbg !6066
  invoke void @_ZSt7replaceIN9__gnu_cxx17__normal_iteratorIPcNSt7__cxx1112basic_stringIcSt11char_traitsIcESaIcEEEEEcEvT_SA_RKT0_SD_(ptr %311, ptr %313, ptr noundef nonnull align 1 dereferenceable(1) %55, ptr noundef nonnull align 1 dereferenceable(1) %56)
          to label %314 unwind label %179, !dbg !6066

314:                                              ; preds = %305
  call void @llvm.dbg.declare(metadata ptr %57, metadata !6067, metadata !DIExpression()), !dbg !6068
  invoke void @_ZStplIcSt11char_traitsIcESaIcEENSt7__cxx1112basic_stringIT_T0_T1_EERKS8_S5_(ptr sret(%"class.std::__cxx11::basic_string") align 8 %58, ptr noundef nonnull align 8 dereferenceable(32) %5, i8 noundef signext 46)
          to label %315 unwind label %179, !dbg !6069

315:                                              ; preds = %314
  invoke void @_ZStplIcSt11char_traitsIcESaIcEENSt7__cxx1112basic_stringIT_T0_T1_EEOS8_RKS8_(ptr sret(%"class.std::__cxx11::basic_string") align 8 %57, ptr noundef nonnull align 8 dereferenceable(32) %58, ptr noundef nonnull align 8 dereferenceable(32) %6)
          to label %316 unwind label %422, !dbg !6070

316:                                              ; preds = %315
  call void @_ZNSt7__cxx1112basic_stringIcSt11char_traitsIcESaIcEED1Ev(ptr noundef nonnull align 8 dereferenceable(32) %58) #3, !dbg !6071
  %317 = getelementptr inbounds %class.JWTAuth, ptr %103, i32 0, i32 7, !dbg !6072
  %318 = call noundef ptr @_ZNKSt7__cxx1112basic_stringIcSt11char_traitsIcESaIcEE5c_strEv(ptr noundef nonnull align 8 dereferenceable(32) %57) #3, !dbg !6073
  %319 = call noundef i64 @_ZNKSt7__cxx1112basic_stringIcSt11char_traitsIcESaIcEE6lengthEv(ptr noundef nonnull align 8 dereferenceable(32) %57) #3, !dbg !6074
  %320 = trunc i64 %319 to i32, !dbg !6075
  %321 = zext i32 %320 to i64, !dbg !6076
  invoke void @_ZN4Poco12DigestEngine6updateEPKvm(ptr noundef nonnull align 8 dereferenceable(8) %317, ptr noundef %318, i64 noundef %321)
          to label %322 unwind label %426, !dbg !6077

322:                                              ; preds = %316
  call void @llvm.dbg.declare(metadata ptr %59, metadata !6078, metadata !DIExpression()), !dbg !6082
  %323 = getelementptr inbounds %class.JWTAuth, ptr %103, i32 0, i32 7, !dbg !6083
  %324 = invoke noundef nonnull align 8 dereferenceable(24) ptr @_ZN4Poco6Crypto15RSADigestEngine9signatureEv(ptr noundef nonnull align 8 dereferenceable(152) %323)
          to label %325 unwind label %426, !dbg !6084

325:                                              ; preds = %322
  invoke void @_ZNSt6vectorIhSaIhEEC2ERKS1_(ptr noundef nonnull align 8 dereferenceable(24) %59, ptr noundef nonnull align 8 dereferenceable(24) %324)
          to label %326 unwind label %426, !dbg !6083

326:                                              ; preds = %325
  call void @llvm.dbg.declare(metadata ptr %60, metadata !6085, metadata !DIExpression()), !dbg !6086
  invoke void @_ZNSt7__cxx1119basic_ostringstreamIcSt11char_traitsIcESaIcEEC1Ev(ptr noundef nonnull align 8 dereferenceable(112) %60)
          to label %327 unwind label %430, !dbg !6086

327:                                              ; preds = %326
  call void @llvm.dbg.declare(metadata ptr %61, metadata !6087, metadata !DIExpression()), !dbg !6088
  call void @_ZNSaIcEC1Ev(ptr noundef nonnull align 1 dereferenceable(1) %63) #3, !dbg !6089
  invoke void @_ZNSt7__cxx1112basic_stringIcSt11char_traitsIcESaIcEEC2IS3_EEPKcRKS3_(ptr noundef nonnull align 8 dereferenceable(32) %62, ptr noundef @.str.7, ptr noundef nonnull align 1 dereferenceable(1) %63)
          to label %328 unwind label %434, !dbg !6089

328:                                              ; preds = %327
  invoke void @_ZN4Poco25OutputLineEndingConverterC1ERSoRKNSt7__cxx1112basic_stringIcSt11char_traitsIcESaIcEEE(ptr noundef nonnull align 8 dereferenceable(152) %61, ptr noundef nonnull align 8 dereferenceable(8) %60, ptr noundef nonnull align 8 dereferenceable(32) %62)
          to label %329 unwind label %438, !dbg !6088

329:                                              ; preds = %328
  call void @_ZNSt7__cxx1112basic_stringIcSt11char_traitsIcESaIcEED1Ev(ptr noundef nonnull align 8 dereferenceable(32) %62) #3, !dbg !6088
  call void @_ZNSaIcED1Ev(ptr noundef nonnull align 1 dereferenceable(1) %63) #3, !dbg !6088
  call void @llvm.dbg.declare(metadata ptr %64, metadata !6090, metadata !DIExpression()), !dbg !6091
  %330 = getelementptr inbounds i8, ptr %61, i64 144, !dbg !6092
  invoke void @_ZN4Poco13Base64EncoderC1ERSoi(ptr noundef nonnull align 8 dereferenceable(128) %64, ptr noundef nonnull align 8 dereferenceable(8) %330, i32 noundef 0)
          to label %331 unwind label %443, !dbg !6091

331:                                              ; preds = %329
  %332 = getelementptr inbounds i8, ptr %64, i64 120, !dbg !6093
  %333 = call ptr @_ZNSt6vectorIhSaIhEE5beginEv(ptr noundef nonnull align 8 dereferenceable(24) %59) #3, !dbg !6094
  %334 = getelementptr inbounds %"class.__gnu_cxx::__normal_iterator.14", ptr %66, i32 0, i32 0, !dbg !6094
  store ptr %333, ptr %334, align 8, !dbg !6094
  %335 = call ptr @_ZNSt6vectorIhSaIhEE3endEv(ptr noundef nonnull align 8 dereferenceable(24) %59) #3, !dbg !6095
  %336 = getelementptr inbounds %"class.__gnu_cxx::__normal_iterator.14", ptr %67, i32 0, i32 0, !dbg !6095
  store ptr %335, ptr %336, align 8, !dbg !6095
  call void @_ZNSaIcEC1Ev(ptr noundef nonnull align 1 dereferenceable(1) %68) #3, !dbg !6096
  %337 = getelementptr inbounds %"class.__gnu_cxx::__normal_iterator.14", ptr %66, i32 0, i32 0, !dbg !6096
  %338 = load ptr, ptr %337, align 8, !dbg !6096
  %339 = getelementptr inbounds %"class.__gnu_cxx::__normal_iterator.14", ptr %67, i32 0, i32 0, !dbg !6096
  %340 = load ptr, ptr %339, align 8, !dbg !6096
  invoke void @_ZNSt7__cxx1112basic_stringIcSt11char_traitsIcESaIcEEC2IN9__gnu_cxx17__normal_iteratorIPhSt6vectorIhSaIhEEEEvEET_SD_RKS3_(ptr noundef nonnull align 8 dereferenceable(32) %65, ptr %338, ptr %340, ptr noundef nonnull align 1 dereferenceable(1) %68)
          to label %341 unwind label %447, !dbg !6096

341:                                              ; preds = %331
  %342 = invoke noundef nonnull align 8 dereferenceable(8) ptr @_ZStlsIcSt11char_traitsIcESaIcEERSt13basic_ostreamIT_T0_ES7_RKNSt7__cxx1112basic_stringIS4_S5_T1_EE(ptr noundef nonnull align 8 dereferenceable(8) %332, ptr noundef nonnull align 8 dereferenceable(32) %65)
          to label %343 unwind label %451, !dbg !6097

343:                                              ; preds = %341
  call void @_ZNSt7__cxx1112basic_stringIcSt11char_traitsIcESaIcEED1Ev(ptr noundef nonnull align 8 dereferenceable(32) %65) #3, !dbg !6093
  call void @_ZNSaIcED1Ev(ptr noundef nonnull align 1 dereferenceable(1) %68) #3, !dbg !6093
  %344 = invoke noundef i32 @_ZN4Poco16Base64EncoderIOS5closeEv(ptr noundef nonnull align 8 dereferenceable(120) %64)
          to label %345 unwind label %456, !dbg !6098

345:                                              ; preds = %343
  call void @llvm.dbg.declare(metadata ptr %69, metadata !6099, metadata !DIExpression()), !dbg !6100
  invoke void @_ZNKSt7__cxx1119basic_ostringstreamIcSt11char_traitsIcESaIcEE3strEv(ptr sret(%"class.std::__cxx11::basic_string") align 8 %69, ptr noundef nonnull align 8 dereferenceable(112) %60)
          to label %346 unwind label %456, !dbg !6101

346:                                              ; preds = %345
  call void @_ZNSt7__cxx1112basic_stringIcSt11char_traitsIcESaIcEE6rbeginEv(ptr sret(%"class.std::reverse_iterator") align 8 %73, ptr noundef nonnull align 8 dereferenceable(32) %69) #3, !dbg !6102
  call void @_ZNSt7__cxx1112basic_stringIcSt11char_traitsIcESaIcEE4rendEv(ptr sret(%"class.std::reverse_iterator") align 8 %74, ptr noundef nonnull align 8 dereferenceable(32) %69) #3, !dbg !6103
  invoke void @"_ZSt7find_ifISt16reverse_iteratorIN9__gnu_cxx17__normal_iteratorIPcNSt7__cxx1112basic_stringIcSt11char_traitsIcESaIcEEEEEEZN7JWTAuth14getAccessTokenEvE3$_2ET_SE_SE_T0_"(ptr sret(%"class.std::reverse_iterator") align 8 %72, ptr noundef %73, ptr noundef %74)
          to label %347 unwind label %460, !dbg !6104

347:                                              ; preds = %346
  %348 = invoke ptr @_ZNKSt16reverse_iteratorIN9__gnu_cxx17__normal_iteratorIPcNSt7__cxx1112basic_stringIcSt11char_traitsIcESaIcEEEEEE4baseEv(ptr noundef nonnull align 8 dereferenceable(8) %72)
          to label %349 unwind label %460, !dbg !6105

349:                                              ; preds = %347
  %350 = getelementptr inbounds %"class.__gnu_cxx::__normal_iterator", ptr %71, i32 0, i32 0, !dbg !6105
  store ptr %348, ptr %350, align 8, !dbg !6105
  call void @_ZN9__gnu_cxx17__normal_iteratorIPKcNSt7__cxx1112basic_stringIcSt11char_traitsIcESaIcEEEEC2IPcEERKNS0_IT_NS_11__enable_ifIXsr3std10__are_sameISC_SB_EE7__valueES8_E6__typeEEE(ptr noundef nonnull align 8 dereferenceable(8) %70, ptr noundef nonnull align 8 dereferenceable(8) %71) #3, !dbg !6104
  %351 = call ptr @_ZNSt7__cxx1112basic_stringIcSt11char_traitsIcESaIcEE3endEv(ptr noundef nonnull align 8 dereferenceable(32) %69) #3, !dbg !6106
  %352 = getelementptr inbounds %"class.__gnu_cxx::__normal_iterator", ptr %77, i32 0, i32 0, !dbg !6106
  store ptr %351, ptr %352, align 8, !dbg !6106
  call void @_ZN9__gnu_cxx17__normal_iteratorIPKcNSt7__cxx1112basic_stringIcSt11char_traitsIcESaIcEEEEC2IPcEERKNS0_IT_NS_11__enable_ifIXsr3std10__are_sameISC_SB_EE7__valueES8_E6__typeEEE(ptr noundef nonnull align 8 dereferenceable(8) %76, ptr noundef nonnull align 8 dereferenceable(8) %77) #3, !dbg !6107
  %353 = getelementptr inbounds %"class.__gnu_cxx::__normal_iterator.7", ptr %70, i32 0, i32 0, !dbg !6108
  %354 = load ptr, ptr %353, align 8, !dbg !6108
  %355 = getelementptr inbounds %"class.__gnu_cxx::__normal_iterator.7", ptr %76, i32 0, i32 0, !dbg !6108
  %356 = load ptr, ptr %355, align 8, !dbg !6108
  %357 = invoke ptr @_ZNSt7__cxx1112basic_stringIcSt11char_traitsIcESaIcEE5eraseEN9__gnu_cxx17__normal_iteratorIPKcS4_EES9_(ptr noundef nonnull align 8 dereferenceable(32) %69, ptr %354, ptr %356)
          to label %358 unwind label %460, !dbg !6108

358:                                              ; preds = %349
  %359 = getelementptr inbounds %"class.__gnu_cxx::__normal_iterator", ptr %78, i32 0, i32 0, !dbg !6108
  store ptr %357, ptr %359, align 8, !dbg !6108
  %360 = call ptr @_ZNSt7__cxx1112basic_stringIcSt11char_traitsIcESaIcEE5beginEv(ptr noundef nonnull align 8 dereferenceable(32) %69) #3, !dbg !6109
  %361 = getelementptr inbounds %"class.__gnu_cxx::__normal_iterator", ptr %79, i32 0, i32 0, !dbg !6109
  store ptr %360, ptr %361, align 8, !dbg !6109
  %362 = call ptr @_ZNSt7__cxx1112basic_stringIcSt11char_traitsIcESaIcEE3endEv(ptr noundef nonnull align 8 dereferenceable(32) %69) #3, !dbg !6110
  %363 = getelementptr inbounds %"class.__gnu_cxx::__normal_iterator", ptr %80, i32 0, i32 0, !dbg !6110
  store ptr %362, ptr %363, align 8, !dbg !6110
  store i8 43, ptr %81, align 1, !dbg !6111
  store i8 45, ptr %82, align 1, !dbg !6112
  %364 = getelementptr inbounds %"class.__gnu_cxx::__normal_iterator", ptr %79, i32 0, i32 0, !dbg !6113
  %365 = load ptr, ptr %364, align 8, !dbg !6113
  %366 = getelementptr inbounds %"class.__gnu_cxx::__normal_iterator", ptr %80, i32 0, i32 0, !dbg !6113
  %367 = load ptr, ptr %366, align 8, !dbg !6113
  invoke void @_ZSt7replaceIN9__gnu_cxx17__normal_iteratorIPcNSt7__cxx1112basic_stringIcSt11char_traitsIcESaIcEEEEEcEvT_SA_RKT0_SD_(ptr %365, ptr %367, ptr noundef nonnull align 1 dereferenceable(1) %81, ptr noundef nonnull align 1 dereferenceable(1) %82)
          to label %368 unwind label %460, !dbg !6113

368:                                              ; preds = %358
  %369 = call ptr @_ZNSt7__cxx1112basic_stringIcSt11char_traitsIcESaIcEE5beginEv(ptr noundef nonnull align 8 dereferenceable(32) %69) #3, !dbg !6114
  %370 = getelementptr inbounds %"class.__gnu_cxx::__normal_iterator", ptr %83, i32 0, i32 0, !dbg !6114
  store ptr %369, ptr %370, align 8, !dbg !6114
  %371 = call ptr @_ZNSt7__cxx1112basic_stringIcSt11char_traitsIcESaIcEE3endEv(ptr noundef nonnull align 8 dereferenceable(32) %69) #3, !dbg !6115
  %372 = getelementptr inbounds %"class.__gnu_cxx::__normal_iterator", ptr %84, i32 0, i32 0, !dbg !6115
  store ptr %371, ptr %372, align 8, !dbg !6115
  store i8 47, ptr %85, align 1, !dbg !6116
  store i8 95, ptr %86, align 1, !dbg !6117
  %373 = getelementptr inbounds %"class.__gnu_cxx::__normal_iterator", ptr %83, i32 0, i32 0, !dbg !6118
  %374 = load ptr, ptr %373, align 8, !dbg !6118
  %375 = getelementptr inbounds %"class.__gnu_cxx::__normal_iterator", ptr %84, i32 0, i32 0, !dbg !6118
  %376 = load ptr, ptr %375, align 8, !dbg !6118
  invoke void @_ZSt7replaceIN9__gnu_cxx17__normal_iteratorIPcNSt7__cxx1112basic_stringIcSt11char_traitsIcESaIcEEEEEcEvT_SA_RKT0_SD_(ptr %374, ptr %376, ptr noundef nonnull align 1 dereferenceable(1) %85, ptr noundef nonnull align 1 dereferenceable(1) %86)
          to label %377 unwind label %460, !dbg !6118

377:                                              ; preds = %368
  br label %378, !dbg !6119

378:                                              ; preds = %377
  call void @llvm.dbg.declare(metadata ptr %87, metadata !6120, metadata !DIExpression()), !dbg !6122
  %379 = invoke noundef nonnull align 8 dereferenceable(68) ptr @_ZN3Log6loggerEv()
          to label %380 unwind label %460, !dbg !6122

380:                                              ; preds = %378
  store ptr %379, ptr %87, align 8, !dbg !6122
  %381 = invoke noundef zeroext i1 @_ZN3Log16isShutdownCalledEv()
          to label %382 unwind label %460, !dbg !6123

382:                                              ; preds = %380
  br i1 %381, label %487, label %383, !dbg !6123

383:                                              ; preds = %382
  %384 = load ptr, ptr %87, align 8, !dbg !6123
  %385 = invoke noundef zeroext i1 @_ZNK4Poco6Logger11informationEv(ptr noundef nonnull align 8 dereferenceable(68) %384)
          to label %386 unwind label %460, !dbg !6123

386:                                              ; preds = %383
  br i1 %385, label %387, label %487, !dbg !6122

387:                                              ; preds = %386
  call void @llvm.dbg.declare(metadata ptr %88, metadata !6125, metadata !DIExpression()), !dbg !6127
  call void @llvm.dbg.declare(metadata ptr %89, metadata !6128, metadata !DIExpression()), !dbg !6127
  %388 = getelementptr inbounds [1024 x i8], ptr %88, i64 0, i64 0, !dbg !6127
  %389 = invoke noundef ptr @_ZN3Log6prefixILi1023EEEPcS1_PKc(ptr noundef %388, ptr noundef @.str)
          to label %390 unwind label %460, !dbg !6127

390:                                              ; preds = %387
  call void @_ZNSaIcEC1Ev(ptr noundef nonnull align 1 dereferenceable(1) %91) #3, !dbg !6127
  invoke void @_ZNSt7__cxx1112basic_stringIcSt11char_traitsIcESaIcEEC2IS3_EEPKcRKS3_(ptr noundef nonnull align 8 dereferenceable(32) %90, ptr noundef %389, ptr noundef nonnull align 1 dereferenceable(1) %91)
          to label %391 unwind label %464, !dbg !6127

391:                                              ; preds = %390
  invoke void @_ZNSt7__cxx1119basic_ostringstreamIcSt11char_traitsIcESaIcEEC1ERKNS_12basic_stringIcS2_S3_EESt13_Ios_Openmode(ptr noundef nonnull align 8 dereferenceable(112) %89, ptr noundef nonnull align 8 dereferenceable(32) %90, i32 noundef 2)
          to label %392 unwind label %468, !dbg !6127

392:                                              ; preds = %391
  call void @_ZNSt7__cxx1112basic_stringIcSt11char_traitsIcESaIcEED1Ev(ptr noundef nonnull align 8 dereferenceable(32) %90) #3, !dbg !6127
  call void @_ZNSaIcED1Ev(ptr noundef nonnull align 1 dereferenceable(1) %91) #3, !dbg !6127
  %393 = invoke noundef nonnull align 8 dereferenceable(8) ptr @_ZNSolsEPFRSt8ios_baseS0_E(ptr noundef nonnull align 8 dereferenceable(8) %89, ptr noundef @_ZSt9boolalphaRSt8ios_base)
          to label %394 unwind label %473, !dbg !6127

394:                                              ; preds = %392
  %395 = invoke noundef nonnull align 8 dereferenceable(8) ptr @_ZStlsISt11char_traitsIcEERSt13basic_ostreamIcT_ES5_PKc(ptr noundef nonnull align 8 dereferenceable(8) %393, ptr noundef @.str.8)
          to label %396 unwind label %473, !dbg !6127

396:                                              ; preds = %394
  %397 = invoke noundef nonnull align 8 dereferenceable(8) ptr @_ZStlsIcSt11char_traitsIcESaIcEERSt13basic_ostreamIT_T0_ES7_RKNSt7__cxx1112basic_stringIS4_S5_T1_EE(ptr noundef nonnull align 8 dereferenceable(8) %395, ptr noundef nonnull align 8 dereferenceable(32) %69)
          to label %398 unwind label %473, !dbg !6127

398:                                              ; preds = %396
  br label %399, !dbg !6127

399:                                              ; preds = %398
  %400 = invoke noundef nonnull align 8 dereferenceable(8) ptr @_ZStlsISt11char_traitsIcEERSt13basic_ostreamIcT_ES5_PKc(ptr noundef nonnull align 8 dereferenceable(8) %89, ptr noundef @.str.4)
          to label %401 unwind label %473, !dbg !6129

401:                                              ; preds = %399
  %402 = invoke noundef nonnull align 8 dereferenceable(8) ptr @_ZStlsISt11char_traitsIcEERSt13basic_ostreamIcT_ES5_PKc(ptr noundef nonnull align 8 dereferenceable(8) %400, ptr noundef @.str.5)
          to label %403 unwind label %473, !dbg !6129

403:                                              ; preds = %401
  %404 = invoke noundef nonnull align 8 dereferenceable(8) ptr @_ZStlsISt11char_traitsIcEERSt13basic_ostreamIcT_ES5_c(ptr noundef nonnull align 8 dereferenceable(8) %402, i8 noundef signext 58)
          to label %405 unwind label %473, !dbg !6129

405:                                              ; preds = %403
  %406 = invoke noundef nonnull align 8 dereferenceable(8) ptr @_ZNSolsEi(ptr noundef nonnull align 8 dereferenceable(8) %404, i32 noundef 92)
          to label %407 unwind label %473, !dbg !6129

407:                                              ; preds = %405
  %408 = invoke noundef nonnull align 8 dereferenceable(8) ptr @_ZNSo5flushEv(ptr noundef nonnull align 8 dereferenceable(8) %89)
          to label %409 unwind label %473, !dbg !6132

409:                                              ; preds = %407
  br label %410, !dbg !6132

410:                                              ; preds = %409
  br label %411, !dbg !6132

411:                                              ; preds = %410
  %412 = load ptr, ptr %87, align 8, !dbg !6127
  %413 = load ptr, ptr %87, align 8, !dbg !6127
  %414 = invoke noundef nonnull align 8 dereferenceable(32) ptr @_ZNK4Poco6Logger4nameB5cxx11Ev(ptr noundef nonnull align 8 dereferenceable(68) %413)
          to label %415 unwind label %473, !dbg !6127

415:                                              ; preds = %411
  invoke void @_ZNKSt7__cxx1119basic_ostringstreamIcSt11char_traitsIcESaIcEE3strEv(ptr sret(%"class.std::__cxx11::basic_string") align 8 %93, ptr noundef nonnull align 8 dereferenceable(112) %89)
          to label %416 unwind label %473, !dbg !6127

416:                                              ; preds = %415
  invoke void @_ZN4Poco7MessageC1ERKNSt7__cxx1112basic_stringIcSt11char_traitsIcESaIcEEES8_NS0_8PriorityE(ptr noundef nonnull align 8 dereferenceable(152) %92, ptr noundef nonnull align 8 dereferenceable(32) %414, ptr noundef nonnull align 8 dereferenceable(32) %93, i32 noundef 6)
          to label %417 unwind label %477, !dbg !6127

417:                                              ; preds = %416
  %418 = load ptr, ptr %412, align 8, !dbg !6127
  %419 = getelementptr inbounds ptr, ptr %418, i64 6, !dbg !6127
  %420 = load ptr, ptr %419, align 8, !dbg !6127
  invoke void %420(ptr noundef nonnull align 8 dereferenceable(68) %412, ptr noundef nonnull align 8 dereferenceable(152) %92)
          to label %421 unwind label %481, !dbg !6127

421:                                              ; preds = %417
  call void @_ZN4Poco7MessageD1Ev(ptr noundef nonnull align 8 dereferenceable(152) %92) #3, !dbg !6127
  call void @_ZNSt7__cxx1112basic_stringIcSt11char_traitsIcESaIcEED1Ev(ptr noundef nonnull align 8 dereferenceable(32) %93) #3, !dbg !6127
  call void @_ZNSt7__cxx1119basic_ostringstreamIcSt11char_traitsIcESaIcEED1Ev(ptr noundef nonnull align 8 dereferenceable(112) %89) #3, !dbg !6123
  br label %487, !dbg !6127

422:                                              ; preds = %315
  %423 = landingpad { ptr, i32 }
          cleanup, !dbg !6030
  %424 = extractvalue { ptr, i32 } %423, 0, !dbg !6030
  store ptr %424, ptr %7, align 8, !dbg !6030
  %425 = extractvalue { ptr, i32 } %423, 1, !dbg !6030
  store i32 %425, ptr %8, align 4, !dbg !6030
  call void @_ZNSt7__cxx1112basic_stringIcSt11char_traitsIcESaIcEED1Ev(ptr noundef nonnull align 8 dereferenceable(32) %58) #3, !dbg !6071
  br label %580, !dbg !6071

426:                                              ; preds = %325, %322, %316
  %427 = landingpad { ptr, i32 }
          cleanup, !dbg !6030
  %428 = extractvalue { ptr, i32 } %427, 0, !dbg !6030
  store ptr %428, ptr %7, align 8, !dbg !6030
  %429 = extractvalue { ptr, i32 } %427, 1, !dbg !6030
  store i32 %429, ptr %8, align 4, !dbg !6030
  br label %579, !dbg !6030

430:                                              ; preds = %326
  %431 = landingpad { ptr, i32 }
          cleanup, !dbg !6030
  %432 = extractvalue { ptr, i32 } %431, 0, !dbg !6030
  store ptr %432, ptr %7, align 8, !dbg !6030
  %433 = extractvalue { ptr, i32 } %431, 1, !dbg !6030
  store i32 %433, ptr %8, align 4, !dbg !6030
  br label %578, !dbg !6030

434:                                              ; preds = %327
  %435 = landingpad { ptr, i32 }
          cleanup, !dbg !6030
  %436 = extractvalue { ptr, i32 } %435, 0, !dbg !6030
  store ptr %436, ptr %7, align 8, !dbg !6030
  %437 = extractvalue { ptr, i32 } %435, 1, !dbg !6030
  store i32 %437, ptr %8, align 4, !dbg !6030
  br label %442, !dbg !6030

438:                                              ; preds = %328
  %439 = landingpad { ptr, i32 }
          cleanup, !dbg !6030
  %440 = extractvalue { ptr, i32 } %439, 0, !dbg !6030
  store ptr %440, ptr %7, align 8, !dbg !6030
  %441 = extractvalue { ptr, i32 } %439, 1, !dbg !6030
  store i32 %441, ptr %8, align 4, !dbg !6030
  call void @_ZNSt7__cxx1112basic_stringIcSt11char_traitsIcESaIcEED1Ev(ptr noundef nonnull align 8 dereferenceable(32) %62) #3, !dbg !6088
  br label %442, !dbg !6088

442:                                              ; preds = %438, %434
  call void @_ZNSaIcED1Ev(ptr noundef nonnull align 1 dereferenceable(1) %63) #3, !dbg !6088
  br label %577, !dbg !6088

443:                                              ; preds = %329
  %444 = landingpad { ptr, i32 }
          cleanup, !dbg !6030
  %445 = extractvalue { ptr, i32 } %444, 0, !dbg !6030
  store ptr %445, ptr %7, align 8, !dbg !6030
  %446 = extractvalue { ptr, i32 } %444, 1, !dbg !6030
  store i32 %446, ptr %8, align 4, !dbg !6030
  br label %576, !dbg !6030

447:                                              ; preds = %331
  %448 = landingpad { ptr, i32 }
          cleanup, !dbg !6030
  %449 = extractvalue { ptr, i32 } %448, 0, !dbg !6030
  store ptr %449, ptr %7, align 8, !dbg !6030
  %450 = extractvalue { ptr, i32 } %448, 1, !dbg !6030
  store i32 %450, ptr %8, align 4, !dbg !6030
  br label %455, !dbg !6030

451:                                              ; preds = %341
  %452 = landingpad { ptr, i32 }
          cleanup, !dbg !6030
  %453 = extractvalue { ptr, i32 } %452, 0, !dbg !6030
  store ptr %453, ptr %7, align 8, !dbg !6030
  %454 = extractvalue { ptr, i32 } %452, 1, !dbg !6030
  store i32 %454, ptr %8, align 4, !dbg !6030
  call void @_ZNSt7__cxx1112basic_stringIcSt11char_traitsIcESaIcEED1Ev(ptr noundef nonnull align 8 dereferenceable(32) %65) #3, !dbg !6093
  br label %455, !dbg !6093

455:                                              ; preds = %451, %447
  call void @_ZNSaIcED1Ev(ptr noundef nonnull align 1 dereferenceable(1) %68) #3, !dbg !6093
  br label %575, !dbg !6093

456:                                              ; preds = %345, %343
  %457 = landingpad { ptr, i32 }
          cleanup, !dbg !6030
  %458 = extractvalue { ptr, i32 } %457, 0, !dbg !6030
  store ptr %458, ptr %7, align 8, !dbg !6030
  %459 = extractvalue { ptr, i32 } %457, 1, !dbg !6030
  store i32 %459, ptr %8, align 4, !dbg !6030
  br label %575, !dbg !6030

460:                                              ; preds = %489, %387, %383, %380, %378, %368, %358, %349, %347, %346
  %461 = landingpad { ptr, i32 }
          cleanup, !dbg !6030
  %462 = extractvalue { ptr, i32 } %461, 0, !dbg !6030
  store ptr %462, ptr %7, align 8, !dbg !6030
  %463 = extractvalue { ptr, i32 } %461, 1, !dbg !6030
  store i32 %463, ptr %8, align 4, !dbg !6030
  br label %574, !dbg !6030

464:                                              ; preds = %390
  %465 = landingpad { ptr, i32 }
          cleanup, !dbg !6133
  %466 = extractvalue { ptr, i32 } %465, 0, !dbg !6133
  store ptr %466, ptr %7, align 8, !dbg !6133
  %467 = extractvalue { ptr, i32 } %465, 1, !dbg !6133
  store i32 %467, ptr %8, align 4, !dbg !6133
  br label %472, !dbg !6133

468:                                              ; preds = %391
  %469 = landingpad { ptr, i32 }
          cleanup, !dbg !6133
  %470 = extractvalue { ptr, i32 } %469, 0, !dbg !6133
  store ptr %470, ptr %7, align 8, !dbg !6133
  %471 = extractvalue { ptr, i32 } %469, 1, !dbg !6133
  store i32 %471, ptr %8, align 4, !dbg !6133
  call void @_ZNSt7__cxx1112basic_stringIcSt11char_traitsIcESaIcEED1Ev(ptr noundef nonnull align 8 dereferenceable(32) %90) #3, !dbg !6127
  br label %472, !dbg !6127

472:                                              ; preds = %468, %464
  call void @_ZNSaIcED1Ev(ptr noundef nonnull align 1 dereferenceable(1) %91) #3, !dbg !6127
  br label %574, !dbg !6127

473:                                              ; preds = %415, %411, %407, %405, %403, %401, %399, %396, %394, %392
  %474 = landingpad { ptr, i32 }
          cleanup, !dbg !6133
  %475 = extractvalue { ptr, i32 } %474, 0, !dbg !6133
  store ptr %475, ptr %7, align 8, !dbg !6133
  %476 = extractvalue { ptr, i32 } %474, 1, !dbg !6133
  store i32 %476, ptr %8, align 4, !dbg !6133
  br label %486, !dbg !6133

477:                                              ; preds = %416
  %478 = landingpad { ptr, i32 }
          cleanup, !dbg !6133
  %479 = extractvalue { ptr, i32 } %478, 0, !dbg !6133
  store ptr %479, ptr %7, align 8, !dbg !6133
  %480 = extractvalue { ptr, i32 } %478, 1, !dbg !6133
  store i32 %480, ptr %8, align 4, !dbg !6133
  br label %485, !dbg !6133

481:                                              ; preds = %417
  %482 = landingpad { ptr, i32 }
          cleanup, !dbg !6133
  %483 = extractvalue { ptr, i32 } %482, 0, !dbg !6133
  store ptr %483, ptr %7, align 8, !dbg !6133
  %484 = extractvalue { ptr, i32 } %482, 1, !dbg !6133
  store i32 %484, ptr %8, align 4, !dbg !6133
  call void @_ZN4Poco7MessageD1Ev(ptr noundef nonnull align 8 dereferenceable(152) %92) #3, !dbg !6127
  br label %485, !dbg !6127

485:                                              ; preds = %481, %477
  call void @_ZNSt7__cxx1112basic_stringIcSt11char_traitsIcESaIcEED1Ev(ptr noundef nonnull align 8 dereferenceable(32) %93) #3, !dbg !6127
  br label %486, !dbg !6127

486:                                              ; preds = %485, %473
  call void @_ZNSt7__cxx1119basic_ostringstreamIcSt11char_traitsIcESaIcEED1Ev(ptr noundef nonnull align 8 dereferenceable(112) %89) #3, !dbg !6123
  br label %574, !dbg !6123

487:                                              ; preds = %421, %386, %382
  br label %488, !dbg !6122

488:                                              ; preds = %487
  br label %489, !dbg !6122

489:                                              ; preds = %488
  store i1 false, ptr %94, align 1, !dbg !6134
  call void @llvm.dbg.declare(metadata ptr %3, metadata !6135, metadata !DIExpression(DW_OP_deref)), !dbg !6136
  invoke void @_ZStplIcSt11char_traitsIcESaIcEENSt7__cxx1112basic_stringIT_T0_T1_EERKS8_S5_(ptr sret(%"class.std::__cxx11::basic_string") align 8 %95, ptr noundef nonnull align 8 dereferenceable(32) %57, i8 noundef signext 46)
          to label %490 unwind label %460, !dbg !6137

490:                                              ; preds = %489
  invoke void @_ZStplIcSt11char_traitsIcESaIcEENSt7__cxx1112basic_stringIT_T0_T1_EEOS8_RKS8_(ptr sret(%"class.std::__cxx11::basic_string") align 8 %0, ptr noundef nonnull align 8 dereferenceable(32) %95, ptr noundef nonnull align 8 dereferenceable(32) %69)
          to label %491 unwind label %536, !dbg !6138

491:                                              ; preds = %490
  call void @_ZNSt7__cxx1112basic_stringIcSt11char_traitsIcESaIcEED1Ev(ptr noundef nonnull align 8 dereferenceable(32) %95) #3, !dbg !6139
  br label %492, !dbg !6140

492:                                              ; preds = %491
  call void @llvm.dbg.declare(metadata ptr %96, metadata !6141, metadata !DIExpression()), !dbg !6143
  %493 = invoke noundef nonnull align 8 dereferenceable(68) ptr @_ZN3Log6loggerEv()
          to label %494 unwind label %540, !dbg !6143

494:                                              ; preds = %492
  store ptr %493, ptr %96, align 8, !dbg !6143
  %495 = invoke noundef zeroext i1 @_ZN3Log16isShutdownCalledEv()
          to label %496 unwind label %540, !dbg !6144

496:                                              ; preds = %494
  br i1 %495, label %567, label %497, !dbg !6144

497:                                              ; preds = %496
  %498 = load ptr, ptr %96, align 8, !dbg !6144
  %499 = invoke noundef zeroext i1 @_ZNK4Poco6Logger11informationEv(ptr noundef nonnull align 8 dereferenceable(68) %498)
          to label %500 unwind label %540, !dbg !6144

500:                                              ; preds = %497
  br i1 %499, label %501, label %567, !dbg !6143

501:                                              ; preds = %500
  call void @llvm.dbg.declare(metadata ptr %97, metadata !6146, metadata !DIExpression()), !dbg !6148
  call void @llvm.dbg.declare(metadata ptr %98, metadata !6149, metadata !DIExpression()), !dbg !6148
  %502 = getelementptr inbounds [1024 x i8], ptr %97, i64 0, i64 0, !dbg !6148
  %503 = invoke noundef ptr @_ZN3Log6prefixILi1023EEEPcS1_PKc(ptr noundef %502, ptr noundef @.str)
          to label %504 unwind label %540, !dbg !6148

504:                                              ; preds = %501
  call void @_ZNSaIcEC1Ev(ptr noundef nonnull align 1 dereferenceable(1) %100) #3, !dbg !6148
  invoke void @_ZNSt7__cxx1112basic_stringIcSt11char_traitsIcESaIcEEC2IS3_EEPKcRKS3_(ptr noundef nonnull align 8 dereferenceable(32) %99, ptr noundef %503, ptr noundef nonnull align 1 dereferenceable(1) %100)
          to label %505 unwind label %544, !dbg !6148

505:                                              ; preds = %504
  invoke void @_ZNSt7__cxx1119basic_ostringstreamIcSt11char_traitsIcESaIcEEC1ERKNS_12basic_stringIcS2_S3_EESt13_Ios_Openmode(ptr noundef nonnull align 8 dereferenceable(112) %98, ptr noundef nonnull align 8 dereferenceable(32) %99, i32 noundef 2)
          to label %506 unwind label %548, !dbg !6148

506:                                              ; preds = %505
  call void @_ZNSt7__cxx1112basic_stringIcSt11char_traitsIcESaIcEED1Ev(ptr noundef nonnull align 8 dereferenceable(32) %99) #3, !dbg !6148
  call void @_ZNSaIcED1Ev(ptr noundef nonnull align 1 dereferenceable(1) %100) #3, !dbg !6148
  %507 = invoke noundef nonnull align 8 dereferenceable(8) ptr @_ZNSolsEPFRSt8ios_baseS0_E(ptr noundef nonnull align 8 dereferenceable(8) %98, ptr noundef @_ZSt9boolalphaRSt8ios_base)
          to label %508 unwind label %553, !dbg !6148

508:                                              ; preds = %506
  %509 = invoke noundef nonnull align 8 dereferenceable(8) ptr @_ZStlsISt11char_traitsIcEERSt13basic_ostreamIcT_ES5_PKc(ptr noundef nonnull align 8 dereferenceable(8) %507, ptr noundef @.str.9)
          to label %510 unwind label %553, !dbg !6148

510:                                              ; preds = %508
  %511 = invoke noundef nonnull align 8 dereferenceable(8) ptr @_ZStlsIcSt11char_traitsIcESaIcEERSt13basic_ostreamIT_T0_ES7_RKNSt7__cxx1112basic_stringIS4_S5_T1_EE(ptr noundef nonnull align 8 dereferenceable(8) %509, ptr noundef nonnull align 8 dereferenceable(32) %0)
          to label %512 unwind label %553, !dbg !6148

512:                                              ; preds = %510
  br label %513, !dbg !6148

513:                                              ; preds = %512
  %514 = invoke noundef nonnull align 8 dereferenceable(8) ptr @_ZStlsISt11char_traitsIcEERSt13basic_ostreamIcT_ES5_PKc(ptr noundef nonnull align 8 dereferenceable(8) %98, ptr noundef @.str.4)
          to label %515 unwind label %553, !dbg !6150

515:                                              ; preds = %513
  %516 = invoke noundef nonnull align 8 dereferenceable(8) ptr @_ZStlsISt11char_traitsIcEERSt13basic_ostreamIcT_ES5_PKc(ptr noundef nonnull align 8 dereferenceable(8) %514, ptr noundef @.str.5)
          to label %517 unwind label %553, !dbg !6150

517:                                              ; preds = %515
  %518 = invoke noundef nonnull align 8 dereferenceable(8) ptr @_ZStlsISt11char_traitsIcEERSt13basic_ostreamIcT_ES5_c(ptr noundef nonnull align 8 dereferenceable(8) %516, i8 noundef signext 58)
          to label %519 unwind label %553, !dbg !6150

519:                                              ; preds = %517
  %520 = invoke noundef nonnull align 8 dereferenceable(8) ptr @_ZNSolsEi(ptr noundef nonnull align 8 dereferenceable(8) %518, i32 noundef 95)
          to label %521 unwind label %553, !dbg !6150

521:                                              ; preds = %519
  %522 = invoke noundef nonnull align 8 dereferenceable(8) ptr @_ZNSo5flushEv(ptr noundef nonnull align 8 dereferenceable(8) %98)
          to label %523 unwind label %553, !dbg !6153

523:                                              ; preds = %521
  br label %524, !dbg !6153

524:                                              ; preds = %523
  br label %525, !dbg !6153

525:                                              ; preds = %524
  %526 = load ptr, ptr %96, align 8, !dbg !6148
  %527 = load ptr, ptr %96, align 8, !dbg !6148
  %528 = invoke noundef nonnull align 8 dereferenceable(32) ptr @_ZNK4Poco6Logger4nameB5cxx11Ev(ptr noundef nonnull align 8 dereferenceable(68) %527)
          to label %529 unwind label %553, !dbg !6148

529:                                              ; preds = %525
  invoke void @_ZNKSt7__cxx1119basic_ostringstreamIcSt11char_traitsIcESaIcEE3strEv(ptr sret(%"class.std::__cxx11::basic_string") align 8 %102, ptr noundef nonnull align 8 dereferenceable(112) %98)
          to label %530 unwind label %553, !dbg !6148

530:                                              ; preds = %529
  invoke void @_ZN4Poco7MessageC1ERKNSt7__cxx1112basic_stringIcSt11char_traitsIcESaIcEEES8_NS0_8PriorityE(ptr noundef nonnull align 8 dereferenceable(152) %101, ptr noundef nonnull align 8 dereferenceable(32) %528, ptr noundef nonnull align 8 dereferenceable(32) %102, i32 noundef 6)
          to label %531 unwind label %557, !dbg !6148

531:                                              ; preds = %530
  %532 = load ptr, ptr %526, align 8, !dbg !6148
  %533 = getelementptr inbounds ptr, ptr %532, i64 6, !dbg !6148
  %534 = load ptr, ptr %533, align 8, !dbg !6148
  invoke void %534(ptr noundef nonnull align 8 dereferenceable(68) %526, ptr noundef nonnull align 8 dereferenceable(152) %101)
          to label %535 unwind label %561, !dbg !6148

535:                                              ; preds = %531
  call void @_ZN4Poco7MessageD1Ev(ptr noundef nonnull align 8 dereferenceable(152) %101) #3, !dbg !6148
  call void @_ZNSt7__cxx1112basic_stringIcSt11char_traitsIcESaIcEED1Ev(ptr noundef nonnull align 8 dereferenceable(32) %102) #3, !dbg !6148
  call void @_ZNSt7__cxx1119basic_ostringstreamIcSt11char_traitsIcESaIcEED1Ev(ptr noundef nonnull align 8 dereferenceable(112) %98) #3, !dbg !6144
  br label %567, !dbg !6148

536:                                              ; preds = %490
  %537 = landingpad { ptr, i32 }
          cleanup, !dbg !6030
  %538 = extractvalue { ptr, i32 } %537, 0, !dbg !6030
  store ptr %538, ptr %7, align 8, !dbg !6030
  %539 = extractvalue { ptr, i32 } %537, 1, !dbg !6030
  store i32 %539, ptr %8, align 4, !dbg !6030
  call void @_ZNSt7__cxx1112basic_stringIcSt11char_traitsIcESaIcEED1Ev(ptr noundef nonnull align 8 dereferenceable(32) %95) #3, !dbg !6139
  br label %574, !dbg !6139

540:                                              ; preds = %501, %497, %494, %492
  %541 = landingpad { ptr, i32 }
          cleanup, !dbg !6154
  %542 = extractvalue { ptr, i32 } %541, 0, !dbg !6154
  store ptr %542, ptr %7, align 8, !dbg !6154
  %543 = extractvalue { ptr, i32 } %541, 1, !dbg !6154
  store i32 %543, ptr %8, align 4, !dbg !6154
  br label %573, !dbg !6154

544:                                              ; preds = %504
  %545 = landingpad { ptr, i32 }
          cleanup, !dbg !6155
  %546 = extractvalue { ptr, i32 } %545, 0, !dbg !6155
  store ptr %546, ptr %7, align 8, !dbg !6155
  %547 = extractvalue { ptr, i32 } %545, 1, !dbg !6155
  store i32 %547, ptr %8, align 4, !dbg !6155
  br label %552, !dbg !6155

548:                                              ; preds = %505
  %549 = landingpad { ptr, i32 }
          cleanup, !dbg !6155
  %550 = extractvalue { ptr, i32 } %549, 0, !dbg !6155
  store ptr %550, ptr %7, align 8, !dbg !6155
  %551 = extractvalue { ptr, i32 } %549, 1, !dbg !6155
  store i32 %551, ptr %8, align 4, !dbg !6155
  call void @_ZNSt7__cxx1112basic_stringIcSt11char_traitsIcESaIcEED1Ev(ptr noundef nonnull align 8 dereferenceable(32) %99) #3, !dbg !6148
  br label %552, !dbg !6148

552:                                              ; preds = %548, %544
  call void @_ZNSaIcED1Ev(ptr noundef nonnull align 1 dereferenceable(1) %100) #3, !dbg !6148
  br label %573, !dbg !6148

553:                                              ; preds = %529, %525, %521, %519, %517, %515, %513, %510, %508, %506
  %554 = landingpad { ptr, i32 }
          cleanup, !dbg !6155
  %555 = extractvalue { ptr, i32 } %554, 0, !dbg !6155
  store ptr %555, ptr %7, align 8, !dbg !6155
  %556 = extractvalue { ptr, i32 } %554, 1, !dbg !6155
  store i32 %556, ptr %8, align 4, !dbg !6155
  br label %566, !dbg !6155

557:                                              ; preds = %530
  %558 = landingpad { ptr, i32 }
          cleanup, !dbg !6155
  %559 = extractvalue { ptr, i32 } %558, 0, !dbg !6155
  store ptr %559, ptr %7, align 8, !dbg !6155
  %560 = extractvalue { ptr, i32 } %558, 1, !dbg !6155
  store i32 %560, ptr %8, align 4, !dbg !6155
  br label %565, !dbg !6155

561:                                              ; preds = %531
  %562 = landingpad { ptr, i32 }
          cleanup, !dbg !6155
  %563 = extractvalue { ptr, i32 } %562, 0, !dbg !6155
  store ptr %563, ptr %7, align 8, !dbg !6155
  %564 = extractvalue { ptr, i32 } %562, 1, !dbg !6155
  store i32 %564, ptr %8, align 4, !dbg !6155
  call void @_ZN4Poco7MessageD1Ev(ptr noundef nonnull align 8 dereferenceable(152) %101) #3, !dbg !6148
  br label %565, !dbg !6148

565:                                              ; preds = %561, %557
  call void @_ZNSt7__cxx1112basic_stringIcSt11char_traitsIcESaIcEED1Ev(ptr noundef nonnull align 8 dereferenceable(32) %102) #3, !dbg !6148
  br label %566, !dbg !6148

566:                                              ; preds = %565, %553
  call void @_ZNSt7__cxx1119basic_ostringstreamIcSt11char_traitsIcESaIcEED1Ev(ptr noundef nonnull align 8 dereferenceable(112) %98) #3, !dbg !6144
  br label %573, !dbg !6144

567:                                              ; preds = %535, %500, %496
  br label %568, !dbg !6143

568:                                              ; preds = %567
  br label %569, !dbg !6143

569:                                              ; preds = %568
  store i1 true, ptr %94, align 1, !dbg !6156
  %570 = load i1, ptr %94, align 1, !dbg !6030
  br i1 %570, label %572, label %571, !dbg !6030

571:                                              ; preds = %569
  call void @_ZNSt7__cxx1112basic_stringIcSt11char_traitsIcESaIcEED1Ev(ptr noundef nonnull align 8 dereferenceable(32) %0) #3, !dbg !6030
  br label %572, !dbg !6030

572:                                              ; preds = %571, %569
  call void @_ZNSt7__cxx1112basic_stringIcSt11char_traitsIcESaIcEED1Ev(ptr noundef nonnull align 8 dereferenceable(32) %69) #3, !dbg !6030
  call void @_ZN4Poco13Base64EncoderD1Ev(ptr noundef nonnull align 8 dereferenceable(128) %64) #3, !dbg !6030
  call void @_ZN4Poco25OutputLineEndingConverterD1Ev(ptr noundef nonnull align 8 dereferenceable(152) %61) #3, !dbg !6030
  call void @_ZNSt7__cxx1119basic_ostringstreamIcSt11char_traitsIcESaIcEED1Ev(ptr noundef nonnull align 8 dereferenceable(112) %60) #3, !dbg !6030
  call void @_ZNSt6vectorIhSaIhEED2Ev(ptr noundef nonnull align 8 dereferenceable(24) %59) #3, !dbg !6030
  call void @_ZNSt7__cxx1112basic_stringIcSt11char_traitsIcESaIcEED1Ev(ptr noundef nonnull align 8 dereferenceable(32) %57) #3, !dbg !6030
  call void @_ZNSt7__cxx1112basic_stringIcSt11char_traitsIcESaIcEED1Ev(ptr noundef nonnull align 8 dereferenceable(32) %6) #3, !dbg !6030
  call void @_ZNSt7__cxx1112basic_stringIcSt11char_traitsIcESaIcEED1Ev(ptr noundef nonnull align 8 dereferenceable(32) %5) #3, !dbg !6030
  ret void, !dbg !6030

573:                                              ; preds = %566, %552, %540
  call void @_ZNSt7__cxx1112basic_stringIcSt11char_traitsIcESaIcEED1Ev(ptr noundef nonnull align 8 dereferenceable(32) %0) #3, !dbg !6030
  br label %574, !dbg !6030

574:                                              ; preds = %573, %536, %486, %472, %460
  call void @_ZNSt7__cxx1112basic_stringIcSt11char_traitsIcESaIcEED1Ev(ptr noundef nonnull align 8 dereferenceable(32) %69) #3, !dbg !6030
  br label %575, !dbg !6030

575:                                              ; preds = %574, %456, %455
  call void @_ZN4Poco13Base64EncoderD1Ev(ptr noundef nonnull align 8 dereferenceable(128) %64) #3, !dbg !6030
  br label %576, !dbg !6030

576:                                              ; preds = %575, %443
  call void @_ZN4Poco25OutputLineEndingConverterD1Ev(ptr noundef nonnull align 8 dereferenceable(152) %61) #3, !dbg !6030
  br label %577, !dbg !6030

577:                                              ; preds = %576, %442
  call void @_ZNSt7__cxx1119basic_ostringstreamIcSt11char_traitsIcESaIcEED1Ev(ptr noundef nonnull align 8 dereferenceable(112) %60) #3, !dbg !6030
  br label %578, !dbg !6030

578:                                              ; preds = %577, %430
  call void @_ZNSt6vectorIhSaIhEED2Ev(ptr noundef nonnull align 8 dereferenceable(24) %59) #3, !dbg !6030
  br label %579, !dbg !6030

579:                                              ; preds = %578, %426
  call void @_ZNSt7__cxx1112basic_stringIcSt11char_traitsIcESaIcEED1Ev(ptr noundef nonnull align 8 dereferenceable(32) %57) #3, !dbg !6030
  br label %580, !dbg !6030

580:                                              ; preds = %579, %422, %275, %261, %205, %191, %179
  call void @_ZNSt7__cxx1112basic_stringIcSt11char_traitsIcESaIcEED1Ev(ptr noundef nonnull align 8 dereferenceable(32) %6) #3, !dbg !6030
  br label %581, !dbg !6030

581:                                              ; preds = %580, %175
  call void @_ZNSt7__cxx1112basic_stringIcSt11char_traitsIcESaIcEED1Ev(ptr noundef nonnull align 8 dereferenceable(32) %5) #3, !dbg !6030
  br label %582, !dbg !6030

582:                                              ; preds = %581
  %583 = load ptr, ptr %7, align 8, !dbg !6030
  %584 = load i32, ptr %8, align 4, !dbg !6030
  %585 = insertvalue { ptr, i32 } poison, ptr %583, 0, !dbg !6030
  %586 = insertvalue { ptr, i32 } %585, i32 %584, 1, !dbg !6030
  resume { ptr, i32 } %586, !dbg !6030
}

; Function Attrs: mustprogress noinline optnone uwtable
define dso_local void @_ZN7JWTAuth12createHeaderB5cxx11Ev(ptr noalias sret(%"class.std::__cxx11::basic_string") align 8 %0, ptr noundef nonnull align 8 dereferenceable(352) %1) #4 align 2 personality ptr @__gxx_personality_v0 !dbg !6157 {
  %3 = alloca ptr, align 8
  %4 = alloca ptr, align 8
  %5 = alloca %"class.std::__cxx11::basic_string", align 8
  %6 = alloca %"class.std::__cxx11::basic_string", align 8
  %7 = alloca %"class.std::__cxx11::basic_string", align 8
  %8 = alloca %"class.std::__cxx11::basic_string", align 8
  %9 = alloca ptr, align 8
  %10 = alloca i32, align 4
  %11 = alloca ptr, align 8
  %12 = alloca [1024 x i8], align 16
  %13 = alloca %"class.std::__cxx11::basic_ostringstream", align 8
  %14 = alloca %"class.std::__cxx11::basic_string", align 8
  %15 = alloca %"class.std::allocator", align 1
  %16 = alloca %"class.Poco::Message", align 8
  %17 = alloca %"class.std::__cxx11::basic_string", align 8
  %18 = alloca %"class.std::__cxx11::basic_ostringstream", align 8
  %19 = alloca %"class.Poco::OutputLineEndingConverter", align 8
  %20 = alloca %"class.std::__cxx11::basic_string", align 8
  %21 = alloca %"class.std::allocator", align 1
  %22 = alloca %"class.Poco::Base64Encoder", align 8
  store ptr %0, ptr %3, align 8
  store ptr %1, ptr %4, align 8
  call void @llvm.dbg.declare(metadata ptr %4, metadata !6158, metadata !DIExpression()), !dbg !6159
  %23 = load ptr, ptr %4, align 8
  call void @llvm.dbg.declare(metadata ptr %5, metadata !6160, metadata !DIExpression()), !dbg !6161
  %24 = getelementptr inbounds %class.JWTAuth, ptr %23, i32 0, i32 1, !dbg !6162
  call void @_ZStplIcSt11char_traitsIcESaIcEENSt7__cxx1112basic_stringIT_T0_T1_EEPKS5_RKS8_(ptr sret(%"class.std::__cxx11::basic_string") align 8 %8, ptr noundef @.str.22, ptr noundef nonnull align 8 dereferenceable(32) %24), !dbg !6163
  invoke void @_ZStplIcSt11char_traitsIcESaIcEENSt7__cxx1112basic_stringIT_T0_T1_EEOS8_PKS5_(ptr sret(%"class.std::__cxx11::basic_string") align 8 %7, ptr noundef nonnull align 8 dereferenceable(32) %8, ptr noundef @.str.23)
          to label %25 unwind label %73, !dbg !6164

25:                                               ; preds = %2
  %26 = getelementptr inbounds %class.JWTAuth, ptr %23, i32 0, i32 2, !dbg !6165
  invoke void @_ZStplIcSt11char_traitsIcESaIcEENSt7__cxx1112basic_stringIT_T0_T1_EEOS8_RKS8_(ptr sret(%"class.std::__cxx11::basic_string") align 8 %6, ptr noundef nonnull align 8 dereferenceable(32) %7, ptr noundef nonnull align 8 dereferenceable(32) %26)
          to label %27 unwind label %77, !dbg !6166

27:                                               ; preds = %25
  invoke void @_ZStplIcSt11char_traitsIcESaIcEENSt7__cxx1112basic_stringIT_T0_T1_EEOS8_PKS5_(ptr sret(%"class.std::__cxx11::basic_string") align 8 %5, ptr noundef nonnull align 8 dereferenceable(32) %6, ptr noundef @.str.24)
          to label %28 unwind label %81, !dbg !6167

28:                                               ; preds = %27
  call void @_ZNSt7__cxx1112basic_stringIcSt11char_traitsIcESaIcEED1Ev(ptr noundef nonnull align 8 dereferenceable(32) %6) #3, !dbg !6168
  call void @_ZNSt7__cxx1112basic_stringIcSt11char_traitsIcESaIcEED1Ev(ptr noundef nonnull align 8 dereferenceable(32) %7) #3, !dbg !6168
  call void @_ZNSt7__cxx1112basic_stringIcSt11char_traitsIcESaIcEED1Ev(ptr noundef nonnull align 8 dereferenceable(32) %8) #3, !dbg !6168
  br label %29, !dbg !6169

29:                                               ; preds = %28
  call void @llvm.dbg.declare(metadata ptr %11, metadata !6170, metadata !DIExpression()), !dbg !6172
  %30 = invoke noundef nonnull align 8 dereferenceable(68) ptr @_ZN3Log6loggerEv()
          to label %31 unwind label %87, !dbg !6172

31:                                               ; preds = %29
  store ptr %30, ptr %11, align 8, !dbg !6172
  %32 = invoke noundef zeroext i1 @_ZN3Log16isShutdownCalledEv()
          to label %33 unwind label %87, !dbg !6173

33:                                               ; preds = %31
  br i1 %32, label %114, label %34, !dbg !6173

34:                                               ; preds = %33
  %35 = load ptr, ptr %11, align 8, !dbg !6173
  %36 = invoke noundef zeroext i1 @_ZNK4Poco6Logger11informationEv(ptr noundef nonnull align 8 dereferenceable(68) %35)
          to label %37 unwind label %87, !dbg !6173

37:                                               ; preds = %34
  br i1 %36, label %38, label %114, !dbg !6172

38:                                               ; preds = %37
  call void @llvm.dbg.declare(metadata ptr %12, metadata !6175, metadata !DIExpression()), !dbg !6177
  call void @llvm.dbg.declare(metadata ptr %13, metadata !6178, metadata !DIExpression()), !dbg !6177
  %39 = getelementptr inbounds [1024 x i8], ptr %12, i64 0, i64 0, !dbg !6177
  %40 = invoke noundef ptr @_ZN3Log6prefixILi1023EEEPcS1_PKc(ptr noundef %39, ptr noundef @.str)
          to label %41 unwind label %87, !dbg !6177

41:                                               ; preds = %38
  call void @_ZNSaIcEC1Ev(ptr noundef nonnull align 1 dereferenceable(1) %15) #3, !dbg !6177
  invoke void @_ZNSt7__cxx1112basic_stringIcSt11char_traitsIcESaIcEEC2IS3_EEPKcRKS3_(ptr noundef nonnull align 8 dereferenceable(32) %14, ptr noundef %40, ptr noundef nonnull align 1 dereferenceable(1) %15)
          to label %42 unwind label %91, !dbg !6177

42:                                               ; preds = %41
  invoke void @_ZNSt7__cxx1119basic_ostringstreamIcSt11char_traitsIcESaIcEEC1ERKNS_12basic_stringIcS2_S3_EESt13_Ios_Openmode(ptr noundef nonnull align 8 dereferenceable(112) %13, ptr noundef nonnull align 8 dereferenceable(32) %14, i32 noundef 2)
          to label %43 unwind label %95, !dbg !6177

43:                                               ; preds = %42
  call void @_ZNSt7__cxx1112basic_stringIcSt11char_traitsIcESaIcEED1Ev(ptr noundef nonnull align 8 dereferenceable(32) %14) #3, !dbg !6177
  call void @_ZNSaIcED1Ev(ptr noundef nonnull align 1 dereferenceable(1) %15) #3, !dbg !6177
  %44 = invoke noundef nonnull align 8 dereferenceable(8) ptr @_ZNSolsEPFRSt8ios_baseS0_E(ptr noundef nonnull align 8 dereferenceable(8) %13, ptr noundef @_ZSt9boolalphaRSt8ios_base)
          to label %45 unwind label %100, !dbg !6177

45:                                               ; preds = %43
  %46 = invoke noundef nonnull align 8 dereferenceable(8) ptr @_ZStlsISt11char_traitsIcEERSt13basic_ostreamIcT_ES5_PKc(ptr noundef nonnull align 8 dereferenceable(8) %44, ptr noundef @.str.25)
          to label %47 unwind label %100, !dbg !6177

47:                                               ; preds = %45
  %48 = invoke noundef nonnull align 8 dereferenceable(8) ptr @_ZStlsIcSt11char_traitsIcESaIcEERSt13basic_ostreamIT_T0_ES7_RKNSt7__cxx1112basic_stringIS4_S5_T1_EE(ptr noundef nonnull align 8 dereferenceable(8) %46, ptr noundef nonnull align 8 dereferenceable(32) %5)
          to label %49 unwind label %100, !dbg !6177

49:                                               ; preds = %47
  br label %50, !dbg !6177

50:                                               ; preds = %49
  %51 = invoke noundef nonnull align 8 dereferenceable(8) ptr @_ZStlsISt11char_traitsIcEERSt13basic_ostreamIcT_ES5_PKc(ptr noundef nonnull align 8 dereferenceable(8) %13, ptr noundef @.str.4)
          to label %52 unwind label %100, !dbg !6179

52:                                               ; preds = %50
  %53 = invoke noundef nonnull align 8 dereferenceable(8) ptr @_ZStlsISt11char_traitsIcEERSt13basic_ostreamIcT_ES5_PKc(ptr noundef nonnull align 8 dereferenceable(8) %51, ptr noundef @.str.5)
          to label %54 unwind label %100, !dbg !6179

54:                                               ; preds = %52
  %55 = invoke noundef nonnull align 8 dereferenceable(8) ptr @_ZStlsISt11char_traitsIcEERSt13basic_ostreamIcT_ES5_c(ptr noundef nonnull align 8 dereferenceable(8) %53, i8 noundef signext 58)
          to label %56 unwind label %100, !dbg !6179

56:                                               ; preds = %54
  %57 = invoke noundef nonnull align 8 dereferenceable(8) ptr @_ZNSolsEi(ptr noundef nonnull align 8 dereferenceable(8) %55, i32 noundef 182)
          to label %58 unwind label %100, !dbg !6179

58:                                               ; preds = %56
  %59 = invoke noundef nonnull align 8 dereferenceable(8) ptr @_ZNSo5flushEv(ptr noundef nonnull align 8 dereferenceable(8) %13)
          to label %60 unwind label %100, !dbg !6182

60:                                               ; preds = %58
  br label %61, !dbg !6182

61:                                               ; preds = %60
  br label %62, !dbg !6182

62:                                               ; preds = %61
  %63 = load ptr, ptr %11, align 8, !dbg !6177
  %64 = load ptr, ptr %11, align 8, !dbg !6177
  %65 = invoke noundef nonnull align 8 dereferenceable(32) ptr @_ZNK4Poco6Logger4nameB5cxx11Ev(ptr noundef nonnull align 8 dereferenceable(68) %64)
          to label %66 unwind label %100, !dbg !6177

66:                                               ; preds = %62
  invoke void @_ZNKSt7__cxx1119basic_ostringstreamIcSt11char_traitsIcESaIcEE3strEv(ptr sret(%"class.std::__cxx11::basic_string") align 8 %17, ptr noundef nonnull align 8 dereferenceable(112) %13)
          to label %67 unwind label %100, !dbg !6177

67:                                               ; preds = %66
  invoke void @_ZN4Poco7MessageC1ERKNSt7__cxx1112basic_stringIcSt11char_traitsIcESaIcEEES8_NS0_8PriorityE(ptr noundef nonnull align 8 dereferenceable(152) %16, ptr noundef nonnull align 8 dereferenceable(32) %65, ptr noundef nonnull align 8 dereferenceable(32) %17, i32 noundef 6)
          to label %68 unwind label %104, !dbg !6177

68:                                               ; preds = %67
  %69 = load ptr, ptr %63, align 8, !dbg !6177
  %70 = getelementptr inbounds ptr, ptr %69, i64 6, !dbg !6177
  %71 = load ptr, ptr %70, align 8, !dbg !6177
  invoke void %71(ptr noundef nonnull align 8 dereferenceable(68) %63, ptr noundef nonnull align 8 dereferenceable(152) %16)
          to label %72 unwind label %108, !dbg !6177

72:                                               ; preds = %68
  call void @_ZN4Poco7MessageD1Ev(ptr noundef nonnull align 8 dereferenceable(152) %16) #3, !dbg !6177
  call void @_ZNSt7__cxx1112basic_stringIcSt11char_traitsIcESaIcEED1Ev(ptr noundef nonnull align 8 dereferenceable(32) %17) #3, !dbg !6177
  call void @_ZNSt7__cxx1119basic_ostringstreamIcSt11char_traitsIcESaIcEED1Ev(ptr noundef nonnull align 8 dereferenceable(112) %13) #3, !dbg !6173
  br label %114, !dbg !6177

73:                                               ; preds = %2
  %74 = landingpad { ptr, i32 }
          cleanup, !dbg !6183
  %75 = extractvalue { ptr, i32 } %74, 0, !dbg !6183
  store ptr %75, ptr %9, align 8, !dbg !6183
  %76 = extractvalue { ptr, i32 } %74, 1, !dbg !6183
  store i32 %76, ptr %10, align 4, !dbg !6183
  br label %86, !dbg !6183

77:                                               ; preds = %25
  %78 = landingpad { ptr, i32 }
          cleanup, !dbg !6183
  %79 = extractvalue { ptr, i32 } %78, 0, !dbg !6183
  store ptr %79, ptr %9, align 8, !dbg !6183
  %80 = extractvalue { ptr, i32 } %78, 1, !dbg !6183
  store i32 %80, ptr %10, align 4, !dbg !6183
  br label %85, !dbg !6183

81:                                               ; preds = %27
  %82 = landingpad { ptr, i32 }
          cleanup, !dbg !6183
  %83 = extractvalue { ptr, i32 } %82, 0, !dbg !6183
  store ptr %83, ptr %9, align 8, !dbg !6183
  %84 = extractvalue { ptr, i32 } %82, 1, !dbg !6183
  store i32 %84, ptr %10, align 4, !dbg !6183
  call void @_ZNSt7__cxx1112basic_stringIcSt11char_traitsIcESaIcEED1Ev(ptr noundef nonnull align 8 dereferenceable(32) %6) #3, !dbg !6168
  br label %85, !dbg !6168

85:                                               ; preds = %81, %77
  call void @_ZNSt7__cxx1112basic_stringIcSt11char_traitsIcESaIcEED1Ev(ptr noundef nonnull align 8 dereferenceable(32) %7) #3, !dbg !6168
  br label %86, !dbg !6168

86:                                               ; preds = %85, %73
  call void @_ZNSt7__cxx1112basic_stringIcSt11char_traitsIcESaIcEED1Ev(ptr noundef nonnull align 8 dereferenceable(32) %8) #3, !dbg !6168
  br label %148, !dbg !6168

87:                                               ; preds = %116, %38, %34, %31, %29
  %88 = landingpad { ptr, i32 }
          cleanup, !dbg !6184
  %89 = extractvalue { ptr, i32 } %88, 0, !dbg !6184
  store ptr %89, ptr %9, align 8, !dbg !6184
  %90 = extractvalue { ptr, i32 } %88, 1, !dbg !6184
  store i32 %90, ptr %10, align 4, !dbg !6184
  br label %147, !dbg !6184

91:                                               ; preds = %41
  %92 = landingpad { ptr, i32 }
          cleanup, !dbg !6185
  %93 = extractvalue { ptr, i32 } %92, 0, !dbg !6185
  store ptr %93, ptr %9, align 8, !dbg !6185
  %94 = extractvalue { ptr, i32 } %92, 1, !dbg !6185
  store i32 %94, ptr %10, align 4, !dbg !6185
  br label %99, !dbg !6185

95:                                               ; preds = %42
  %96 = landingpad { ptr, i32 }
          cleanup, !dbg !6185
  %97 = extractvalue { ptr, i32 } %96, 0, !dbg !6185
  store ptr %97, ptr %9, align 8, !dbg !6185
  %98 = extractvalue { ptr, i32 } %96, 1, !dbg !6185
  store i32 %98, ptr %10, align 4, !dbg !6185
  call void @_ZNSt7__cxx1112basic_stringIcSt11char_traitsIcESaIcEED1Ev(ptr noundef nonnull align 8 dereferenceable(32) %14) #3, !dbg !6177
  br label %99, !dbg !6177

99:                                               ; preds = %95, %91
  call void @_ZNSaIcED1Ev(ptr noundef nonnull align 1 dereferenceable(1) %15) #3, !dbg !6177
  br label %147, !dbg !6177

100:                                              ; preds = %66, %62, %58, %56, %54, %52, %50, %47, %45, %43
  %101 = landingpad { ptr, i32 }
          cleanup, !dbg !6185
  %102 = extractvalue { ptr, i32 } %101, 0, !dbg !6185
  store ptr %102, ptr %9, align 8, !dbg !6185
  %103 = extractvalue { ptr, i32 } %101, 1, !dbg !6185
  store i32 %103, ptr %10, align 4, !dbg !6185
  br label %113, !dbg !6185

104:                                              ; preds = %67
  %105 = landingpad { ptr, i32 }
          cleanup, !dbg !6185
  %106 = extractvalue { ptr, i32 } %105, 0, !dbg !6185
  store ptr %106, ptr %9, align 8, !dbg !6185
  %107 = extractvalue { ptr, i32 } %105, 1, !dbg !6185
  store i32 %107, ptr %10, align 4, !dbg !6185
  br label %112, !dbg !6185

108:                                              ; preds = %68
  %109 = landingpad { ptr, i32 }
          cleanup, !dbg !6185
  %110 = extractvalue { ptr, i32 } %109, 0, !dbg !6185
  store ptr %110, ptr %9, align 8, !dbg !6185
  %111 = extractvalue { ptr, i32 } %109, 1, !dbg !6185
  store i32 %111, ptr %10, align 4, !dbg !6185
  call void @_ZN4Poco7MessageD1Ev(ptr noundef nonnull align 8 dereferenceable(152) %16) #3, !dbg !6177
  br label %112, !dbg !6177

112:                                              ; preds = %108, %104
  call void @_ZNSt7__cxx1112basic_stringIcSt11char_traitsIcESaIcEED1Ev(ptr noundef nonnull align 8 dereferenceable(32) %17) #3, !dbg !6177
  br label %113, !dbg !6177

113:                                              ; preds = %112, %100
  call void @_ZNSt7__cxx1119basic_ostringstreamIcSt11char_traitsIcESaIcEED1Ev(ptr noundef nonnull align 8 dereferenceable(112) %13) #3, !dbg !6173
  br label %147, !dbg !6173

114:                                              ; preds = %72, %37, %33
  br label %115, !dbg !6172

115:                                              ; preds = %114
  br label %116, !dbg !6172

116:                                              ; preds = %115
  call void @llvm.dbg.declare(metadata ptr %18, metadata !6186, metadata !DIExpression()), !dbg !6187
  invoke void @_ZNSt7__cxx1119basic_ostringstreamIcSt11char_traitsIcESaIcEEC1Ev(ptr noundef nonnull align 8 dereferenceable(112) %18)
          to label %117 unwind label %87, !dbg !6187

117:                                              ; preds = %116
  call void @llvm.dbg.declare(metadata ptr %19, metadata !6188, metadata !DIExpression()), !dbg !6189
  call void @_ZNSaIcEC1Ev(ptr noundef nonnull align 1 dereferenceable(1) %21) #3, !dbg !6190
  invoke void @_ZNSt7__cxx1112basic_stringIcSt11char_traitsIcESaIcEEC2IS3_EEPKcRKS3_(ptr noundef nonnull align 8 dereferenceable(32) %20, ptr noundef @.str.7, ptr noundef nonnull align 1 dereferenceable(1) %21)
          to label %118 unwind label %128, !dbg !6190

118:                                              ; preds = %117
  invoke void @_ZN4Poco25OutputLineEndingConverterC1ERSoRKNSt7__cxx1112basic_stringIcSt11char_traitsIcESaIcEEE(ptr noundef nonnull align 8 dereferenceable(152) %19, ptr noundef nonnull align 8 dereferenceable(8) %18, ptr noundef nonnull align 8 dereferenceable(32) %20)
          to label %119 unwind label %132, !dbg !6189

119:                                              ; preds = %118
  call void @_ZNSt7__cxx1112basic_stringIcSt11char_traitsIcESaIcEED1Ev(ptr noundef nonnull align 8 dereferenceable(32) %20) #3, !dbg !6189
  call void @_ZNSaIcED1Ev(ptr noundef nonnull align 1 dereferenceable(1) %21) #3, !dbg !6189
  call void @llvm.dbg.declare(metadata ptr %22, metadata !6191, metadata !DIExpression()), !dbg !6192
  %120 = getelementptr inbounds i8, ptr %19, i64 144, !dbg !6193
  invoke void @_ZN4Poco13Base64EncoderC1ERSoi(ptr noundef nonnull align 8 dereferenceable(128) %22, ptr noundef nonnull align 8 dereferenceable(8) %120, i32 noundef 0)
          to label %121 unwind label %137, !dbg !6192

121:                                              ; preds = %119
  %122 = getelementptr inbounds i8, ptr %22, i64 120, !dbg !6194
  %123 = invoke noundef nonnull align 8 dereferenceable(8) ptr @_ZStlsIcSt11char_traitsIcESaIcEERSt13basic_ostreamIT_T0_ES7_RKNSt7__cxx1112basic_stringIS4_S5_T1_EE(ptr noundef nonnull align 8 dereferenceable(8) %122, ptr noundef nonnull align 8 dereferenceable(32) %5)
          to label %124 unwind label %141, !dbg !6195

124:                                              ; preds = %121
  %125 = invoke noundef i32 @_ZN4Poco16Base64EncoderIOS5closeEv(ptr noundef nonnull align 8 dereferenceable(120) %22)
          to label %126 unwind label %141, !dbg !6196

126:                                              ; preds = %124
  invoke void @_ZNKSt7__cxx1119basic_ostringstreamIcSt11char_traitsIcESaIcEE3strEv(ptr sret(%"class.std::__cxx11::basic_string") align 8 %0, ptr noundef nonnull align 8 dereferenceable(112) %18)
          to label %127 unwind label %141, !dbg !6197

127:                                              ; preds = %126
  call void @_ZN4Poco13Base64EncoderD1Ev(ptr noundef nonnull align 8 dereferenceable(128) %22) #3, !dbg !6183
  call void @_ZN4Poco25OutputLineEndingConverterD1Ev(ptr noundef nonnull align 8 dereferenceable(152) %19) #3, !dbg !6183
  call void @_ZNSt7__cxx1119basic_ostringstreamIcSt11char_traitsIcESaIcEED1Ev(ptr noundef nonnull align 8 dereferenceable(112) %18) #3, !dbg !6183
  call void @_ZNSt7__cxx1112basic_stringIcSt11char_traitsIcESaIcEED1Ev(ptr noundef nonnull align 8 dereferenceable(32) %5) #3, !dbg !6183
  ret void, !dbg !6183

128:                                              ; preds = %117
  %129 = landingpad { ptr, i32 }
          cleanup, !dbg !6183
  %130 = extractvalue { ptr, i32 } %129, 0, !dbg !6183
  store ptr %130, ptr %9, align 8, !dbg !6183
  %131 = extractvalue { ptr, i32 } %129, 1, !dbg !6183
  store i32 %131, ptr %10, align 4, !dbg !6183
  br label %136, !dbg !6183

132:                                              ; preds = %118
  %133 = landingpad { ptr, i32 }
          cleanup, !dbg !6183
  %134 = extractvalue { ptr, i32 } %133, 0, !dbg !6183
  store ptr %134, ptr %9, align 8, !dbg !6183
  %135 = extractvalue { ptr, i32 } %133, 1, !dbg !6183
  store i32 %135, ptr %10, align 4, !dbg !6183
  call void @_ZNSt7__cxx1112basic_stringIcSt11char_traitsIcESaIcEED1Ev(ptr noundef nonnull align 8 dereferenceable(32) %20) #3, !dbg !6189
  br label %136, !dbg !6189

136:                                              ; preds = %132, %128
  call void @_ZNSaIcED1Ev(ptr noundef nonnull align 1 dereferenceable(1) %21) #3, !dbg !6189
  br label %146, !dbg !6189

137:                                              ; preds = %119
  %138 = landingpad { ptr, i32 }
          cleanup, !dbg !6183
  %139 = extractvalue { ptr, i32 } %138, 0, !dbg !6183
  store ptr %139, ptr %9, align 8, !dbg !6183
  %140 = extractvalue { ptr, i32 } %138, 1, !dbg !6183
  store i32 %140, ptr %10, align 4, !dbg !6183
  br label %145, !dbg !6183

141:                                              ; preds = %126, %124, %121
  %142 = landingpad { ptr, i32 }
          cleanup, !dbg !6183
  %143 = extractvalue { ptr, i32 } %142, 0, !dbg !6183
  store ptr %143, ptr %9, align 8, !dbg !6183
  %144 = extractvalue { ptr, i32 } %142, 1, !dbg !6183
  store i32 %144, ptr %10, align 4, !dbg !6183
  call void @_ZN4Poco13Base64EncoderD1Ev(ptr noundef nonnull align 8 dereferenceable(128) %22) #3, !dbg !6183
  br label %145, !dbg !6183

145:                                              ; preds = %141, %137
  call void @_ZN4Poco25OutputLineEndingConverterD1Ev(ptr noundef nonnull align 8 dereferenceable(152) %19) #3, !dbg !6183
  br label %146, !dbg !6183

146:                                              ; preds = %145, %136
  call void @_ZNSt7__cxx1119basic_ostringstreamIcSt11char_traitsIcESaIcEED1Ev(ptr noundef nonnull align 8 dereferenceable(112) %18) #3, !dbg !6183
  br label %147, !dbg !6183

147:                                              ; preds = %146, %113, %99, %87
  call void @_ZNSt7__cxx1112basic_stringIcSt11char_traitsIcESaIcEED1Ev(ptr noundef nonnull align 8 dereferenceable(32) %5) #3, !dbg !6183
  br label %148, !dbg !6183

148:                                              ; preds = %147, %86
  %149 = load ptr, ptr %9, align 8, !dbg !6168
  %150 = load i32, ptr %10, align 4, !dbg !6168
  %151 = insertvalue { ptr, i32 } poison, ptr %149, 0, !dbg !6168
  %152 = insertvalue { ptr, i32 } %151, i32 %150, 1, !dbg !6168
  resume { ptr, i32 } %152, !dbg !6168
}

; Function Attrs: mustprogress noinline optnone uwtable
define dso_local void @_ZN7JWTAuth13createPayloadB5cxx11Ev(ptr noalias sret(%"class.std::__cxx11::basic_string") align 8 %0, ptr noundef nonnull align 8 dereferenceable(352) %1) #4 align 2 personality ptr @__gxx_personality_v0 !dbg !6198 {
  %3 = alloca ptr, align 8
  %4 = alloca ptr, align 8
  %5 = alloca %"struct.std::chrono::time_point", align 8
  %6 = alloca i64, align 8
  %7 = alloca i32, align 4
  %8 = alloca %"class.std::__cxx11::basic_string", align 8
  %9 = alloca %"class.std::allocator", align 1
  %10 = alloca ptr, align 8
  %11 = alloca i32, align 4
  %12 = alloca %"class.std::__cxx11::basic_string", align 8
  %13 = alloca %"class.std::__cxx11::basic_string", align 8
  %14 = alloca %"class.std::__cxx11::basic_string", align 8
  %15 = alloca %"class.std::__cxx11::basic_string", align 8
  %16 = alloca %"class.std::__cxx11::basic_string", align 8
  %17 = alloca %"class.std::__cxx11::basic_string", align 8
  %18 = alloca %"class.std::__cxx11::basic_string", align 8
  %19 = alloca %"class.std::__cxx11::basic_string", align 8
  %20 = alloca %"class.std::__cxx11::basic_string", align 8
  %21 = alloca %"class.std::__cxx11::basic_string", align 8
  %22 = alloca %"class.std::__cxx11::basic_string", align 8
  %23 = alloca ptr, align 8
  %24 = alloca [1024 x i8], align 16
  %25 = alloca %"class.std::__cxx11::basic_ostringstream", align 8
  %26 = alloca %"class.std::__cxx11::basic_string", align 8
  %27 = alloca %"class.std::allocator", align 1
  %28 = alloca %"class.Poco::Message", align 8
  %29 = alloca %"class.std::__cxx11::basic_string", align 8
  %30 = alloca %"class.std::__cxx11::basic_ostringstream", align 8
  %31 = alloca %"class.Poco::OutputLineEndingConverter", align 8
  %32 = alloca %"class.std::__cxx11::basic_string", align 8
  %33 = alloca %"class.std::allocator", align 1
  %34 = alloca %"class.Poco::Base64Encoder", align 8
  store ptr %0, ptr %3, align 8
  store ptr %1, ptr %4, align 8
  call void @llvm.dbg.declare(metadata ptr %4, metadata !6199, metadata !DIExpression()), !dbg !6200
  %35 = load ptr, ptr %4, align 8
  call void @llvm.dbg.declare(metadata ptr %5, metadata !6201, metadata !DIExpression()), !dbg !6202
  %36 = call i64 @_ZNSt6chrono3_V212system_clock3nowEv() #3, !dbg !6203
  %37 = getelementptr inbounds %"struct.std::chrono::time_point", ptr %5, i32 0, i32 0, !dbg !6203
  %38 = getelementptr inbounds %"struct.std::chrono::duration", ptr %37, i32 0, i32 0, !dbg !6203
  store i64 %36, ptr %38, align 8, !dbg !6203
  call void @llvm.dbg.declare(metadata ptr %6, metadata !6204, metadata !DIExpression()), !dbg !6205
  %39 = call noundef i64 @_ZNSt6chrono3_V212system_clock9to_time_tERKNS_10time_pointIS1_NS_8durationIlSt5ratioILl1ELl1000000000EEEEEE(ptr noundef nonnull align 8 dereferenceable(8) %5) #3, !dbg !6206
  store i64 %39, ptr %6, align 8, !dbg !6205
  call void @llvm.dbg.declare(metadata ptr %7, metadata !6207, metadata !DIExpression()), !dbg !6208
  call void @_ZNSaIcEC1Ev(ptr noundef nonnull align 1 dereferenceable(1) %9) #3, !dbg !6209
  invoke void @_ZNSt7__cxx1112basic_stringIcSt11char_traitsIcESaIcEEC2IS3_EEPKcRKS3_(ptr noundef nonnull align 8 dereferenceable(32) %8, ptr noundef @.str.26, ptr noundef nonnull align 1 dereferenceable(1) %9)
          to label %40 unwind label %112, !dbg !6209

40:                                               ; preds = %2
  %41 = invoke noundef i32 @_ZN7COOLWSD14getConfigValueIiEET_RKNSt7__cxx1112basic_stringIcSt11char_traitsIcESaIcEEES1_(ptr noundef nonnull align 8 dereferenceable(32) %8, i32 noundef 1800)
          to label %42 unwind label %116, !dbg !6210

42:                                               ; preds = %40
  call void @_ZNSt7__cxx1112basic_stringIcSt11char_traitsIcESaIcEED1Ev(ptr noundef nonnull align 8 dereferenceable(32) %8) #3, !dbg !6210
  call void @_ZNSaIcED1Ev(ptr noundef nonnull align 1 dereferenceable(1) %9) #3, !dbg !6210
  store i32 %41, ptr %7, align 4, !dbg !6208
  call void @llvm.dbg.declare(metadata ptr %12, metadata !6211, metadata !DIExpression()), !dbg !6212
  %43 = load i64, ptr %6, align 8, !dbg !6213
  %44 = load i32, ptr %7, align 4, !dbg !6214
  %45 = sext i32 %44 to i64, !dbg !6214
  %46 = add nsw i64 %43, %45, !dbg !6215
  call void @_ZNSt7__cxx119to_stringEl(ptr sret(%"class.std::__cxx11::basic_string") align 8 %12, i64 noundef %46), !dbg !6216
  call void @llvm.dbg.declare(metadata ptr %13, metadata !6217, metadata !DIExpression()), !dbg !6218
  %47 = getelementptr inbounds %class.JWTAuth, ptr %35, i32 0, i32 3, !dbg !6219
  invoke void @_ZStplIcSt11char_traitsIcESaIcEENSt7__cxx1112basic_stringIT_T0_T1_EEPKS5_RKS8_(ptr sret(%"class.std::__cxx11::basic_string") align 8 %22, ptr noundef @.str.27, ptr noundef nonnull align 8 dereferenceable(32) %47)
          to label %48 unwind label %121, !dbg !6220

48:                                               ; preds = %42
  invoke void @_ZStplIcSt11char_traitsIcESaIcEENSt7__cxx1112basic_stringIT_T0_T1_EEOS8_PKS5_(ptr sret(%"class.std::__cxx11::basic_string") align 8 %21, ptr noundef nonnull align 8 dereferenceable(32) %22, ptr noundef @.str.28)
          to label %49 unwind label %125, !dbg !6221

49:                                               ; preds = %48
  %50 = getelementptr inbounds %class.JWTAuth, ptr %35, i32 0, i32 5, !dbg !6222
  invoke void @_ZStplIcSt11char_traitsIcESaIcEENSt7__cxx1112basic_stringIT_T0_T1_EEOS8_RKS8_(ptr sret(%"class.std::__cxx11::basic_string") align 8 %20, ptr noundef nonnull align 8 dereferenceable(32) %21, ptr noundef nonnull align 8 dereferenceable(32) %50)
          to label %51 unwind label %129, !dbg !6223

51:                                               ; preds = %49
  invoke void @_ZStplIcSt11char_traitsIcESaIcEENSt7__cxx1112basic_stringIT_T0_T1_EEOS8_PKS5_(ptr sret(%"class.std::__cxx11::basic_string") align 8 %19, ptr noundef nonnull align 8 dereferenceable(32) %20, ptr noundef @.str.29)
          to label %52 unwind label %133, !dbg !6224

52:                                               ; preds = %51
  %53 = getelementptr inbounds %class.JWTAuth, ptr %35, i32 0, i32 6, !dbg !6225
  invoke void @_ZStplIcSt11char_traitsIcESaIcEENSt7__cxx1112basic_stringIT_T0_T1_EEOS8_RKS8_(ptr sret(%"class.std::__cxx11::basic_string") align 8 %18, ptr noundef nonnull align 8 dereferenceable(32) %19, ptr noundef nonnull align 8 dereferenceable(32) %53)
          to label %54 unwind label %137, !dbg !6226

54:                                               ; preds = %52
  invoke void @_ZStplIcSt11char_traitsIcESaIcEENSt7__cxx1112basic_stringIT_T0_T1_EEOS8_PKS5_(ptr sret(%"class.std::__cxx11::basic_string") align 8 %17, ptr noundef nonnull align 8 dereferenceable(32) %18, ptr noundef @.str.30)
          to label %55 unwind label %141, !dbg !6227

55:                                               ; preds = %54
  %56 = getelementptr inbounds %class.JWTAuth, ptr %35, i32 0, i32 4, !dbg !6228
  invoke void @_ZStplIcSt11char_traitsIcESaIcEENSt7__cxx1112basic_stringIT_T0_T1_EEOS8_RKS8_(ptr sret(%"class.std::__cxx11::basic_string") align 8 %16, ptr noundef nonnull align 8 dereferenceable(32) %17, ptr noundef nonnull align 8 dereferenceable(32) %56)
          to label %57 unwind label %145, !dbg !6229

57:                                               ; preds = %55
  invoke void @_ZStplIcSt11char_traitsIcESaIcEENSt7__cxx1112basic_stringIT_T0_T1_EEOS8_PKS5_(ptr sret(%"class.std::__cxx11::basic_string") align 8 %15, ptr noundef nonnull align 8 dereferenceable(32) %16, ptr noundef @.str.31)
          to label %58 unwind label %149, !dbg !6230

58:                                               ; preds = %57
  invoke void @_ZStplIcSt11char_traitsIcESaIcEENSt7__cxx1112basic_stringIT_T0_T1_EEOS8_RKS8_(ptr sret(%"class.std::__cxx11::basic_string") align 8 %14, ptr noundef nonnull align 8 dereferenceable(32) %15, ptr noundef nonnull align 8 dereferenceable(32) %12)
          to label %59 unwind label %153, !dbg !6231

59:                                               ; preds = %58
  invoke void @_ZStplIcSt11char_traitsIcESaIcEENSt7__cxx1112basic_stringIT_T0_T1_EEOS8_PKS5_(ptr sret(%"class.std::__cxx11::basic_string") align 8 %13, ptr noundef nonnull align 8 dereferenceable(32) %14, ptr noundef @.str.24)
          to label %60 unwind label %157, !dbg !6232

60:                                               ; preds = %59
  call void @_ZNSt7__cxx1112basic_stringIcSt11char_traitsIcESaIcEED1Ev(ptr noundef nonnull align 8 dereferenceable(32) %14) #3, !dbg !6233
  call void @_ZNSt7__cxx1112basic_stringIcSt11char_traitsIcESaIcEED1Ev(ptr noundef nonnull align 8 dereferenceable(32) %15) #3, !dbg !6233
  call void @_ZNSt7__cxx1112basic_stringIcSt11char_traitsIcESaIcEED1Ev(ptr noundef nonnull align 8 dereferenceable(32) %16) #3, !dbg !6233
  call void @_ZNSt7__cxx1112basic_stringIcSt11char_traitsIcESaIcEED1Ev(ptr noundef nonnull align 8 dereferenceable(32) %17) #3, !dbg !6233
  call void @_ZNSt7__cxx1112basic_stringIcSt11char_traitsIcESaIcEED1Ev(ptr noundef nonnull align 8 dereferenceable(32) %18) #3, !dbg !6233
  call void @_ZNSt7__cxx1112basic_stringIcSt11char_traitsIcESaIcEED1Ev(ptr noundef nonnull align 8 dereferenceable(32) %19) #3, !dbg !6233
  call void @_ZNSt7__cxx1112basic_stringIcSt11char_traitsIcESaIcEED1Ev(ptr noundef nonnull align 8 dereferenceable(32) %20) #3, !dbg !6233
  call void @_ZNSt7__cxx1112basic_stringIcSt11char_traitsIcESaIcEED1Ev(ptr noundef nonnull align 8 dereferenceable(32) %21) #3, !dbg !6233
  call void @_ZNSt7__cxx1112basic_stringIcSt11char_traitsIcESaIcEED1Ev(ptr noundef nonnull align 8 dereferenceable(32) %22) #3, !dbg !6233
  br label %61, !dbg !6234

61:                                               ; preds = %60
  call void @llvm.dbg.declare(metadata ptr %23, metadata !6235, metadata !DIExpression()), !dbg !6237
  %62 = invoke noundef nonnull align 8 dereferenceable(68) ptr @_ZN3Log6loggerEv()
          to label %63 unwind label %169, !dbg !6237

63:                                               ; preds = %61
  store ptr %62, ptr %23, align 8, !dbg !6237
  %64 = invoke noundef zeroext i1 @_ZN3Log16isShutdownCalledEv()
          to label %65 unwind label %169, !dbg !6238

65:                                               ; preds = %63
  br i1 %64, label %196, label %66, !dbg !6238

66:                                               ; preds = %65
  %67 = load ptr, ptr %23, align 8, !dbg !6238
  %68 = invoke noundef zeroext i1 @_ZNK4Poco6Logger11informationEv(ptr noundef nonnull align 8 dereferenceable(68) %67)
          to label %69 unwind label %169, !dbg !6238

69:                                               ; preds = %66
  br i1 %68, label %70, label %196, !dbg !6237

70:                                               ; preds = %69
  call void @llvm.dbg.declare(metadata ptr %24, metadata !6240, metadata !DIExpression()), !dbg !6242
  call void @llvm.dbg.declare(metadata ptr %25, metadata !6243, metadata !DIExpression()), !dbg !6242
  %71 = getelementptr inbounds [1024 x i8], ptr %24, i64 0, i64 0, !dbg !6242
  %72 = invoke noundef ptr @_ZN3Log6prefixILi1023EEEPcS1_PKc(ptr noundef %71, ptr noundef @.str)
          to label %73 unwind label %169, !dbg !6242

73:                                               ; preds = %70
  call void @_ZNSaIcEC1Ev(ptr noundef nonnull align 1 dereferenceable(1) %27) #3, !dbg !6242
  invoke void @_ZNSt7__cxx1112basic_stringIcSt11char_traitsIcESaIcEEC2IS3_EEPKcRKS3_(ptr noundef nonnull align 8 dereferenceable(32) %26, ptr noundef %72, ptr noundef nonnull align 1 dereferenceable(1) %27)
          to label %74 unwind label %173, !dbg !6242

74:                                               ; preds = %73
  invoke void @_ZNSt7__cxx1119basic_ostringstreamIcSt11char_traitsIcESaIcEEC1ERKNS_12basic_stringIcS2_S3_EESt13_Ios_Openmode(ptr noundef nonnull align 8 dereferenceable(112) %25, ptr noundef nonnull align 8 dereferenceable(32) %26, i32 noundef 2)
          to label %75 unwind label %177, !dbg !6242

75:                                               ; preds = %74
  call void @_ZNSt7__cxx1112basic_stringIcSt11char_traitsIcESaIcEED1Ev(ptr noundef nonnull align 8 dereferenceable(32) %26) #3, !dbg !6242
  call void @_ZNSaIcED1Ev(ptr noundef nonnull align 1 dereferenceable(1) %27) #3, !dbg !6242
  %76 = invoke noundef nonnull align 8 dereferenceable(8) ptr @_ZNSolsEPFRSt8ios_baseS0_E(ptr noundef nonnull align 8 dereferenceable(8) %25, ptr noundef @_ZSt9boolalphaRSt8ios_base)
          to label %77 unwind label %182, !dbg !6242

77:                                               ; preds = %75
  %78 = invoke noundef nonnull align 8 dereferenceable(8) ptr @_ZStlsISt11char_traitsIcEERSt13basic_ostreamIcT_ES5_PKc(ptr noundef nonnull align 8 dereferenceable(8) %76, ptr noundef @.str.32)
          to label %79 unwind label %182, !dbg !6242

79:                                               ; preds = %77
  %80 = invoke noundef nonnull align 8 dereferenceable(8) ptr @_ZStlsIcSt11char_traitsIcESaIcEERSt13basic_ostreamIT_T0_ES7_RKNSt7__cxx1112basic_stringIS4_S5_T1_EE(ptr noundef nonnull align 8 dereferenceable(8) %78, ptr noundef nonnull align 8 dereferenceable(32) %13)
          to label %81 unwind label %182, !dbg !6242

81:                                               ; preds = %79
  %82 = invoke noundef nonnull align 8 dereferenceable(8) ptr @_ZStlsISt11char_traitsIcEERSt13basic_ostreamIcT_ES5_PKc(ptr noundef nonnull align 8 dereferenceable(8) %80, ptr noundef @.str.33)
          to label %83 unwind label %182, !dbg !6242

83:                                               ; preds = %81
  %84 = load i32, ptr %7, align 4, !dbg !6242
  %85 = invoke noundef nonnull align 8 dereferenceable(8) ptr @_ZNSolsEi(ptr noundef nonnull align 8 dereferenceable(8) %82, i32 noundef %84)
          to label %86 unwind label %182, !dbg !6242

86:                                               ; preds = %83
  %87 = invoke noundef nonnull align 8 dereferenceable(8) ptr @_ZStlsISt11char_traitsIcEERSt13basic_ostreamIcT_ES5_PKc(ptr noundef nonnull align 8 dereferenceable(8) %85, ptr noundef @.str.34)
          to label %88 unwind label %182, !dbg !6242

88:                                               ; preds = %86
  br label %89, !dbg !6242

89:                                               ; preds = %88
  %90 = invoke noundef nonnull align 8 dereferenceable(8) ptr @_ZStlsISt11char_traitsIcEERSt13basic_ostreamIcT_ES5_PKc(ptr noundef nonnull align 8 dereferenceable(8) %25, ptr noundef @.str.4)
          to label %91 unwind label %182, !dbg !6244

91:                                               ; preds = %89
  %92 = invoke noundef nonnull align 8 dereferenceable(8) ptr @_ZStlsISt11char_traitsIcEERSt13basic_ostreamIcT_ES5_PKc(ptr noundef nonnull align 8 dereferenceable(8) %90, ptr noundef @.str.5)
          to label %93 unwind label %182, !dbg !6244

93:                                               ; preds = %91
  %94 = invoke noundef nonnull align 8 dereferenceable(8) ptr @_ZStlsISt11char_traitsIcEERSt13basic_ostreamIcT_ES5_c(ptr noundef nonnull align 8 dereferenceable(8) %92, i8 noundef signext 58)
          to label %95 unwind label %182, !dbg !6244

95:                                               ; preds = %93
  %96 = invoke noundef nonnull align 8 dereferenceable(8) ptr @_ZNSolsEi(ptr noundef nonnull align 8 dereferenceable(8) %94, i32 noundef 204)
          to label %97 unwind label %182, !dbg !6244

97:                                               ; preds = %95
  %98 = invoke noundef nonnull align 8 dereferenceable(8) ptr @_ZNSo5flushEv(ptr noundef nonnull align 8 dereferenceable(8) %25)
          to label %99 unwind label %182, !dbg !6247

99:                                               ; preds = %97
  br label %100, !dbg !6247

100:                                              ; preds = %99
  br label %101, !dbg !6247

101:                                              ; preds = %100
  %102 = load ptr, ptr %23, align 8, !dbg !6242
  %103 = load ptr, ptr %23, align 8, !dbg !6242
  %104 = invoke noundef nonnull align 8 dereferenceable(32) ptr @_ZNK4Poco6Logger4nameB5cxx11Ev(ptr noundef nonnull align 8 dereferenceable(68) %103)
          to label %105 unwind label %182, !dbg !6242

105:                                              ; preds = %101
  invoke void @_ZNKSt7__cxx1119basic_ostringstreamIcSt11char_traitsIcESaIcEE3strEv(ptr sret(%"class.std::__cxx11::basic_string") align 8 %29, ptr noundef nonnull align 8 dereferenceable(112) %25)
          to label %106 unwind label %182, !dbg !6242

106:                                              ; preds = %105
  invoke void @_ZN4Poco7MessageC1ERKNSt7__cxx1112basic_stringIcSt11char_traitsIcESaIcEEES8_NS0_8PriorityE(ptr noundef nonnull align 8 dereferenceable(152) %28, ptr noundef nonnull align 8 dereferenceable(32) %104, ptr noundef nonnull align 8 dereferenceable(32) %29, i32 noundef 6)
          to label %107 unwind label %186, !dbg !6242

107:                                              ; preds = %106
  %108 = load ptr, ptr %102, align 8, !dbg !6242
  %109 = getelementptr inbounds ptr, ptr %108, i64 6, !dbg !6242
  %110 = load ptr, ptr %109, align 8, !dbg !6242
  invoke void %110(ptr noundef nonnull align 8 dereferenceable(68) %102, ptr noundef nonnull align 8 dereferenceable(152) %28)
          to label %111 unwind label %190, !dbg !6242

111:                                              ; preds = %107
  call void @_ZN4Poco7MessageD1Ev(ptr noundef nonnull align 8 dereferenceable(152) %28) #3, !dbg !6242
  call void @_ZNSt7__cxx1112basic_stringIcSt11char_traitsIcESaIcEED1Ev(ptr noundef nonnull align 8 dereferenceable(32) %29) #3, !dbg !6242
  call void @_ZNSt7__cxx1119basic_ostringstreamIcSt11char_traitsIcESaIcEED1Ev(ptr noundef nonnull align 8 dereferenceable(112) %25) #3, !dbg !6238
  br label %196, !dbg !6242

112:                                              ; preds = %2
  %113 = landingpad { ptr, i32 }
          cleanup, !dbg !6248
  %114 = extractvalue { ptr, i32 } %113, 0, !dbg !6248
  store ptr %114, ptr %10, align 8, !dbg !6248
  %115 = extractvalue { ptr, i32 } %113, 1, !dbg !6248
  store i32 %115, ptr %11, align 4, !dbg !6248
  br label %120, !dbg !6248

116:                                              ; preds = %40
  %117 = landingpad { ptr, i32 }
          cleanup, !dbg !6248
  %118 = extractvalue { ptr, i32 } %117, 0, !dbg !6248
  store ptr %118, ptr %10, align 8, !dbg !6248
  %119 = extractvalue { ptr, i32 } %117, 1, !dbg !6248
  store i32 %119, ptr %11, align 4, !dbg !6248
  call void @_ZNSt7__cxx1112basic_stringIcSt11char_traitsIcESaIcEED1Ev(ptr noundef nonnull align 8 dereferenceable(32) %8) #3, !dbg !6210
  br label %120, !dbg !6210

120:                                              ; preds = %116, %112
  call void @_ZNSaIcED1Ev(ptr noundef nonnull align 1 dereferenceable(1) %9) #3, !dbg !6210
  br label %231, !dbg !6210

121:                                              ; preds = %42
  %122 = landingpad { ptr, i32 }
          cleanup, !dbg !6248
  %123 = extractvalue { ptr, i32 } %122, 0, !dbg !6248
  store ptr %123, ptr %10, align 8, !dbg !6248
  %124 = extractvalue { ptr, i32 } %122, 1, !dbg !6248
  store i32 %124, ptr %11, align 4, !dbg !6248
  br label %230, !dbg !6248

125:                                              ; preds = %48
  %126 = landingpad { ptr, i32 }
          cleanup, !dbg !6248
  %127 = extractvalue { ptr, i32 } %126, 0, !dbg !6248
  store ptr %127, ptr %10, align 8, !dbg !6248
  %128 = extractvalue { ptr, i32 } %126, 1, !dbg !6248
  store i32 %128, ptr %11, align 4, !dbg !6248
  br label %168, !dbg !6248

129:                                              ; preds = %49
  %130 = landingpad { ptr, i32 }
          cleanup, !dbg !6248
  %131 = extractvalue { ptr, i32 } %130, 0, !dbg !6248
  store ptr %131, ptr %10, align 8, !dbg !6248
  %132 = extractvalue { ptr, i32 } %130, 1, !dbg !6248
  store i32 %132, ptr %11, align 4, !dbg !6248
  br label %167, !dbg !6248

133:                                              ; preds = %51
  %134 = landingpad { ptr, i32 }
          cleanup, !dbg !6248
  %135 = extractvalue { ptr, i32 } %134, 0, !dbg !6248
  store ptr %135, ptr %10, align 8, !dbg !6248
  %136 = extractvalue { ptr, i32 } %134, 1, !dbg !6248
  store i32 %136, ptr %11, align 4, !dbg !6248
  br label %166, !dbg !6248

137:                                              ; preds = %52
  %138 = landingpad { ptr, i32 }
          cleanup, !dbg !6248
  %139 = extractvalue { ptr, i32 } %138, 0, !dbg !6248
  store ptr %139, ptr %10, align 8, !dbg !6248
  %140 = extractvalue { ptr, i32 } %138, 1, !dbg !6248
  store i32 %140, ptr %11, align 4, !dbg !6248
  br label %165, !dbg !6248

141:                                              ; preds = %54
  %142 = landingpad { ptr, i32 }
          cleanup, !dbg !6248
  %143 = extractvalue { ptr, i32 } %142, 0, !dbg !6248
  store ptr %143, ptr %10, align 8, !dbg !6248
  %144 = extractvalue { ptr, i32 } %142, 1, !dbg !6248
  store i32 %144, ptr %11, align 4, !dbg !6248
  br label %164, !dbg !6248

145:                                              ; preds = %55
  %146 = landingpad { ptr, i32 }
          cleanup, !dbg !6248
  %147 = extractvalue { ptr, i32 } %146, 0, !dbg !6248
  store ptr %147, ptr %10, align 8, !dbg !6248
  %148 = extractvalue { ptr, i32 } %146, 1, !dbg !6248
  store i32 %148, ptr %11, align 4, !dbg !6248
  br label %163, !dbg !6248

149:                                              ; preds = %57
  %150 = landingpad { ptr, i32 }
          cleanup, !dbg !6248
  %151 = extractvalue { ptr, i32 } %150, 0, !dbg !6248
  store ptr %151, ptr %10, align 8, !dbg !6248
  %152 = extractvalue { ptr, i32 } %150, 1, !dbg !6248
  store i32 %152, ptr %11, align 4, !dbg !6248
  br label %162, !dbg !6248

153:                                              ; preds = %58
  %154 = landingpad { ptr, i32 }
          cleanup, !dbg !6248
  %155 = extractvalue { ptr, i32 } %154, 0, !dbg !6248
  store ptr %155, ptr %10, align 8, !dbg !6248
  %156 = extractvalue { ptr, i32 } %154, 1, !dbg !6248
  store i32 %156, ptr %11, align 4, !dbg !6248
  br label %161, !dbg !6248

157:                                              ; preds = %59
  %158 = landingpad { ptr, i32 }
          cleanup, !dbg !6248
  %159 = extractvalue { ptr, i32 } %158, 0, !dbg !6248
  store ptr %159, ptr %10, align 8, !dbg !6248
  %160 = extractvalue { ptr, i32 } %158, 1, !dbg !6248
  store i32 %160, ptr %11, align 4, !dbg !6248
  call void @_ZNSt7__cxx1112basic_stringIcSt11char_traitsIcESaIcEED1Ev(ptr noundef nonnull align 8 dereferenceable(32) %14) #3, !dbg !6233
  br label %161, !dbg !6233

161:                                              ; preds = %157, %153
  call void @_ZNSt7__cxx1112basic_stringIcSt11char_traitsIcESaIcEED1Ev(ptr noundef nonnull align 8 dereferenceable(32) %15) #3, !dbg !6233
  br label %162, !dbg !6233

162:                                              ; preds = %161, %149
  call void @_ZNSt7__cxx1112basic_stringIcSt11char_traitsIcESaIcEED1Ev(ptr noundef nonnull align 8 dereferenceable(32) %16) #3, !dbg !6233
  br label %163, !dbg !6233

163:                                              ; preds = %162, %145
  call void @_ZNSt7__cxx1112basic_stringIcSt11char_traitsIcESaIcEED1Ev(ptr noundef nonnull align 8 dereferenceable(32) %17) #3, !dbg !6233
  br label %164, !dbg !6233

164:                                              ; preds = %163, %141
  call void @_ZNSt7__cxx1112basic_stringIcSt11char_traitsIcESaIcEED1Ev(ptr noundef nonnull align 8 dereferenceable(32) %18) #3, !dbg !6233
  br label %165, !dbg !6233

165:                                              ; preds = %164, %137
  call void @_ZNSt7__cxx1112basic_stringIcSt11char_traitsIcESaIcEED1Ev(ptr noundef nonnull align 8 dereferenceable(32) %19) #3, !dbg !6233
  br label %166, !dbg !6233

166:                                              ; preds = %165, %133
  call void @_ZNSt7__cxx1112basic_stringIcSt11char_traitsIcESaIcEED1Ev(ptr noundef nonnull align 8 dereferenceable(32) %20) #3, !dbg !6233
  br label %167, !dbg !6233

167:                                              ; preds = %166, %129
  call void @_ZNSt7__cxx1112basic_stringIcSt11char_traitsIcESaIcEED1Ev(ptr noundef nonnull align 8 dereferenceable(32) %21) #3, !dbg !6233
  br label %168, !dbg !6233

168:                                              ; preds = %167, %125
  call void @_ZNSt7__cxx1112basic_stringIcSt11char_traitsIcESaIcEED1Ev(ptr noundef nonnull align 8 dereferenceable(32) %22) #3, !dbg !6233
  br label %230, !dbg !6233

169:                                              ; preds = %198, %70, %66, %63, %61
  %170 = landingpad { ptr, i32 }
          cleanup, !dbg !6249
  %171 = extractvalue { ptr, i32 } %170, 0, !dbg !6249
  store ptr %171, ptr %10, align 8, !dbg !6249
  %172 = extractvalue { ptr, i32 } %170, 1, !dbg !6249
  store i32 %172, ptr %11, align 4, !dbg !6249
  br label %229, !dbg !6249

173:                                              ; preds = %73
  %174 = landingpad { ptr, i32 }
          cleanup, !dbg !6250
  %175 = extractvalue { ptr, i32 } %174, 0, !dbg !6250
  store ptr %175, ptr %10, align 8, !dbg !6250
  %176 = extractvalue { ptr, i32 } %174, 1, !dbg !6250
  store i32 %176, ptr %11, align 4, !dbg !6250
  br label %181, !dbg !6250

177:                                              ; preds = %74
  %178 = landingpad { ptr, i32 }
          cleanup, !dbg !6250
  %179 = extractvalue { ptr, i32 } %178, 0, !dbg !6250
  store ptr %179, ptr %10, align 8, !dbg !6250
  %180 = extractvalue { ptr, i32 } %178, 1, !dbg !6250
  store i32 %180, ptr %11, align 4, !dbg !6250
  call void @_ZNSt7__cxx1112basic_stringIcSt11char_traitsIcESaIcEED1Ev(ptr noundef nonnull align 8 dereferenceable(32) %26) #3, !dbg !6242
  br label %181, !dbg !6242

181:                                              ; preds = %177, %173
  call void @_ZNSaIcED1Ev(ptr noundef nonnull align 1 dereferenceable(1) %27) #3, !dbg !6242
  br label %229, !dbg !6242

182:                                              ; preds = %105, %101, %97, %95, %93, %91, %89, %86, %83, %81, %79, %77, %75
  %183 = landingpad { ptr, i32 }
          cleanup, !dbg !6250
  %184 = extractvalue { ptr, i32 } %183, 0, !dbg !6250
  store ptr %184, ptr %10, align 8, !dbg !6250
  %185 = extractvalue { ptr, i32 } %183, 1, !dbg !6250
  store i32 %185, ptr %11, align 4, !dbg !6250
  br label %195, !dbg !6250

186:                                              ; preds = %106
  %187 = landingpad { ptr, i32 }
          cleanup, !dbg !6250
  %188 = extractvalue { ptr, i32 } %187, 0, !dbg !6250
  store ptr %188, ptr %10, align 8, !dbg !6250
  %189 = extractvalue { ptr, i32 } %187, 1, !dbg !6250
  store i32 %189, ptr %11, align 4, !dbg !6250
  br label %194, !dbg !6250

190:                                              ; preds = %107
  %191 = landingpad { ptr, i32 }
          cleanup, !dbg !6250
  %192 = extractvalue { ptr, i32 } %191, 0, !dbg !6250
  store ptr %192, ptr %10, align 8, !dbg !6250
  %193 = extractvalue { ptr, i32 } %191, 1, !dbg !6250
  store i32 %193, ptr %11, align 4, !dbg !6250
  call void @_ZN4Poco7MessageD1Ev(ptr noundef nonnull align 8 dereferenceable(152) %28) #3, !dbg !6242
  br label %194, !dbg !6242

194:                                              ; preds = %190, %186
  call void @_ZNSt7__cxx1112basic_stringIcSt11char_traitsIcESaIcEED1Ev(ptr noundef nonnull align 8 dereferenceable(32) %29) #3, !dbg !6242
  br label %195, !dbg !6242

195:                                              ; preds = %194, %182
  call void @_ZNSt7__cxx1119basic_ostringstreamIcSt11char_traitsIcESaIcEED1Ev(ptr noundef nonnull align 8 dereferenceable(112) %25) #3, !dbg !6238
  br label %229, !dbg !6238

196:                                              ; preds = %111, %69, %65
  br label %197, !dbg !6237

197:                                              ; preds = %196
  br label %198, !dbg !6237

198:                                              ; preds = %197
  call void @llvm.dbg.declare(metadata ptr %30, metadata !6251, metadata !DIExpression()), !dbg !6252
  invoke void @_ZNSt7__cxx1119basic_ostringstreamIcSt11char_traitsIcESaIcEEC1Ev(ptr noundef nonnull align 8 dereferenceable(112) %30)
          to label %199 unwind label %169, !dbg !6252

199:                                              ; preds = %198
  call void @llvm.dbg.declare(metadata ptr %31, metadata !6253, metadata !DIExpression()), !dbg !6254
  call void @_ZNSaIcEC1Ev(ptr noundef nonnull align 1 dereferenceable(1) %33) #3, !dbg !6255
  invoke void @_ZNSt7__cxx1112basic_stringIcSt11char_traitsIcESaIcEEC2IS3_EEPKcRKS3_(ptr noundef nonnull align 8 dereferenceable(32) %32, ptr noundef @.str.7, ptr noundef nonnull align 1 dereferenceable(1) %33)
          to label %200 unwind label %210, !dbg !6255

200:                                              ; preds = %199
  invoke void @_ZN4Poco25OutputLineEndingConverterC1ERSoRKNSt7__cxx1112basic_stringIcSt11char_traitsIcESaIcEEE(ptr noundef nonnull align 8 dereferenceable(152) %31, ptr noundef nonnull align 8 dereferenceable(8) %30, ptr noundef nonnull align 8 dereferenceable(32) %32)
          to label %201 unwind label %214, !dbg !6254

201:                                              ; preds = %200
  call void @_ZNSt7__cxx1112basic_stringIcSt11char_traitsIcESaIcEED1Ev(ptr noundef nonnull align 8 dereferenceable(32) %32) #3, !dbg !6254
  call void @_ZNSaIcED1Ev(ptr noundef nonnull align 1 dereferenceable(1) %33) #3, !dbg !6254
  call void @llvm.dbg.declare(metadata ptr %34, metadata !6256, metadata !DIExpression()), !dbg !6257
  %202 = getelementptr inbounds i8, ptr %31, i64 144, !dbg !6258
  invoke void @_ZN4Poco13Base64EncoderC1ERSoi(ptr noundef nonnull align 8 dereferenceable(128) %34, ptr noundef nonnull align 8 dereferenceable(8) %202, i32 noundef 0)
          to label %203 unwind label %219, !dbg !6257

203:                                              ; preds = %201
  %204 = getelementptr inbounds i8, ptr %34, i64 120, !dbg !6259
  %205 = invoke noundef nonnull align 8 dereferenceable(8) ptr @_ZStlsIcSt11char_traitsIcESaIcEERSt13basic_ostreamIT_T0_ES7_RKNSt7__cxx1112basic_stringIS4_S5_T1_EE(ptr noundef nonnull align 8 dereferenceable(8) %204, ptr noundef nonnull align 8 dereferenceable(32) %13)
          to label %206 unwind label %223, !dbg !6260

206:                                              ; preds = %203
  %207 = invoke noundef i32 @_ZN4Poco16Base64EncoderIOS5closeEv(ptr noundef nonnull align 8 dereferenceable(120) %34)
          to label %208 unwind label %223, !dbg !6261

208:                                              ; preds = %206
  invoke void @_ZNKSt7__cxx1119basic_ostringstreamIcSt11char_traitsIcESaIcEE3strEv(ptr sret(%"class.std::__cxx11::basic_string") align 8 %0, ptr noundef nonnull align 8 dereferenceable(112) %30)
          to label %209 unwind label %223, !dbg !6262

209:                                              ; preds = %208
  call void @_ZN4Poco13Base64EncoderD1Ev(ptr noundef nonnull align 8 dereferenceable(128) %34) #3, !dbg !6248
  call void @_ZN4Poco25OutputLineEndingConverterD1Ev(ptr noundef nonnull align 8 dereferenceable(152) %31) #3, !dbg !6248
  call void @_ZNSt7__cxx1119basic_ostringstreamIcSt11char_traitsIcESaIcEED1Ev(ptr noundef nonnull align 8 dereferenceable(112) %30) #3, !dbg !6248
  call void @_ZNSt7__cxx1112basic_stringIcSt11char_traitsIcESaIcEED1Ev(ptr noundef nonnull align 8 dereferenceable(32) %13) #3, !dbg !6248
  call void @_ZNSt7__cxx1112basic_stringIcSt11char_traitsIcESaIcEED1Ev(ptr noundef nonnull align 8 dereferenceable(32) %12) #3, !dbg !6248
  ret void, !dbg !6248

210:                                              ; preds = %199
  %211 = landingpad { ptr, i32 }
          cleanup, !dbg !6248
  %212 = extractvalue { ptr, i32 } %211, 0, !dbg !6248
  store ptr %212, ptr %10, align 8, !dbg !6248
  %213 = extractvalue { ptr, i32 } %211, 1, !dbg !6248
  store i32 %213, ptr %11, align 4, !dbg !6248
  br label %218, !dbg !6248

214:                                              ; preds = %200
  %215 = landingpad { ptr, i32 }
          cleanup, !dbg !6248
  %216 = extractvalue { ptr, i32 } %215, 0, !dbg !6248
  store ptr %216, ptr %10, align 8, !dbg !6248
  %217 = extractvalue { ptr, i32 } %215, 1, !dbg !6248
  store i32 %217, ptr %11, align 4, !dbg !6248
  call void @_ZNSt7__cxx1112basic_stringIcSt11char_traitsIcESaIcEED1Ev(ptr noundef nonnull align 8 dereferenceable(32) %32) #3, !dbg !6254
  br label %218, !dbg !6254

218:                                              ; preds = %214, %210
  call void @_ZNSaIcED1Ev(ptr noundef nonnull align 1 dereferenceable(1) %33) #3, !dbg !6254
  br label %228, !dbg !6254

219:                                              ; preds = %201
  %220 = landingpad { ptr, i32 }
          cleanup, !dbg !6248
  %221 = extractvalue { ptr, i32 } %220, 0, !dbg !6248
  store ptr %221, ptr %10, align 8, !dbg !6248
  %222 = extractvalue { ptr, i32 } %220, 1, !dbg !6248
  store i32 %222, ptr %11, align 4, !dbg !6248
  br label %227, !dbg !6248

223:                                              ; preds = %208, %206, %203
  %224 = landingpad { ptr, i32 }
          cleanup, !dbg !6248
  %225 = extractvalue { ptr, i32 } %224, 0, !dbg !6248
  store ptr %225, ptr %10, align 8, !dbg !6248
  %226 = extractvalue { ptr, i32 } %224, 1, !dbg !6248
  store i32 %226, ptr %11, align 4, !dbg !6248
  call void @_ZN4Poco13Base64EncoderD1Ev(ptr noundef nonnull align 8 dereferenceable(128) %34) #3, !dbg !6248
  br label %227, !dbg !6248

227:                                              ; preds = %223, %219
  call void @_ZN4Poco25OutputLineEndingConverterD1Ev(ptr noundef nonnull align 8 dereferenceable(152) %31) #3, !dbg !6248
  br label %228, !dbg !6248

228:                                              ; preds = %227, %218
  call void @_ZNSt7__cxx1119basic_ostringstreamIcSt11char_traitsIcESaIcEED1Ev(ptr noundef nonnull align 8 dereferenceable(112) %30) #3, !dbg !6248
  br label %229, !dbg !6248

229:                                              ; preds = %228, %195, %181, %169
  call void @_ZNSt7__cxx1112basic_stringIcSt11char_traitsIcESaIcEED1Ev(ptr noundef nonnull align 8 dereferenceable(32) %13) #3, !dbg !6248
  br label %230, !dbg !6248

230:                                              ; preds = %229, %168, %121
  call void @_ZNSt7__cxx1112basic_stringIcSt11char_traitsIcESaIcEED1Ev(ptr noundef nonnull align 8 dereferenceable(32) %12) #3, !dbg !6248
  br label %231, !dbg !6248

231:                                              ; preds = %230, %120
  %232 = load ptr, ptr %10, align 8, !dbg !6210
  %233 = load i32, ptr %11, align 4, !dbg !6210
  %234 = insertvalue { ptr, i32 } poison, ptr %232, 0, !dbg !6210
  %235 = insertvalue { ptr, i32 } %234, i32 %233, 1, !dbg !6210
  resume { ptr, i32 } %235, !dbg !6210
}

declare ptr @_ZNSt7__cxx1112basic_stringIcSt11char_traitsIcESaIcEE5eraseEN9__gnu_cxx17__normal_iteratorIPKcS4_EES9_(ptr noundef nonnull align 8 dereferenceable(32), ptr, ptr) #1

; Function Attrs: mustprogress noinline optnone uwtable
define internal void @"_ZSt7find_ifISt16reverse_iteratorIN9__gnu_cxx17__normal_iteratorIPcNSt7__cxx1112basic_stringIcSt11char_traitsIcESaIcEEEEEEZN7JWTAuth14getAccessTokenEvE3$_0ET_SE_SE_T0_"(ptr noalias sret(%"class.std::reverse_iterator") align 8 %0, ptr noundef %1, ptr noundef %2) #4 !dbg !6263 {
  %4 = alloca ptr, align 8
  %5 = alloca %class.anon, align 1
  %6 = alloca %"class.std::reverse_iterator", align 8
  %7 = alloca %"class.std::reverse_iterator", align 8
  %8 = alloca %"struct.__gnu_cxx::__ops::_Iter_pred", align 1
  %9 = alloca %class.anon, align 1
  %10 = alloca %"struct.__gnu_cxx::__ops::_Iter_pred", align 1
  store ptr %0, ptr %4, align 8
  call void @llvm.dbg.declare(metadata ptr %1, metadata !6269, metadata !DIExpression()), !dbg !6270
  call void @llvm.dbg.declare(metadata ptr %2, metadata !6271, metadata !DIExpression()), !dbg !6272
  call void @llvm.dbg.declare(metadata ptr %5, metadata !6273, metadata !DIExpression()), !dbg !6274
  call void @_ZNSt16reverse_iteratorIN9__gnu_cxx17__normal_iteratorIPcNSt7__cxx1112basic_stringIcSt11char_traitsIcESaIcEEEEEEC2ERKSA_(ptr noundef nonnull align 8 dereferenceable(8) %6, ptr noundef nonnull align 8 dereferenceable(8) %1), !dbg !6275
  call void @_ZNSt16reverse_iteratorIN9__gnu_cxx17__normal_iteratorIPcNSt7__cxx1112basic_stringIcSt11char_traitsIcESaIcEEEEEEC2ERKSA_(ptr noundef nonnull align 8 dereferenceable(8) %7, ptr noundef nonnull align 8 dereferenceable(8) %2), !dbg !6276
  call void @"_ZN9__gnu_cxx5__ops11__pred_iterIZN7JWTAuth14getAccessTokenB5cxx11EvE3$_0EENS0_10_Iter_predIT_EES5_"(), !dbg !6277
  call void @"_ZSt9__find_ifISt16reverse_iteratorIN9__gnu_cxx17__normal_iteratorIPcNSt7__cxx1112basic_stringIcSt11char_traitsIcESaIcEEEEEENS1_5__ops10_Iter_predIZN7JWTAuth14getAccessTokenEvE3$_0EEET_SH_SH_T0_"(ptr sret(%"class.std::reverse_iterator") align 8 %0, ptr noundef %6, ptr noundef %7), !dbg !6278
  ret void, !dbg !6279
}

; Function Attrs: nounwind
declare void @_ZNSt7__cxx1112basic_stringIcSt11char_traitsIcESaIcEE6rbeginEv(ptr sret(%"class.std::reverse_iterator") align 8, ptr noundef nonnull align 8 dereferenceable(32)) #2

; Function Attrs: nounwind
declare void @_ZNSt7__cxx1112basic_stringIcSt11char_traitsIcESaIcEE4rendEv(ptr sret(%"class.std::reverse_iterator") align 8, ptr noundef nonnull align 8 dereferenceable(32)) #2

; Function Attrs: mustprogress noinline nounwind optnone uwtable
define linkonce_odr dso_local ptr @_ZNKSt16reverse_iteratorIN9__gnu_cxx17__normal_iteratorIPcNSt7__cxx1112basic_stringIcSt11char_traitsIcESaIcEEEEEE4baseEv(ptr noundef nonnull align 8 dereferenceable(8) %0) #9 comdat align 2 !dbg !6280 {
  %2 = alloca %"class.__gnu_cxx::__normal_iterator", align 8
  %3 = alloca ptr, align 8
  store ptr %0, ptr %3, align 8
  call void @llvm.dbg.declare(metadata ptr %3, metadata !6281, metadata !DIExpression()), !dbg !6283
  %4 = load ptr, ptr %3, align 8
  %5 = getelementptr inbounds %"class.std::reverse_iterator", ptr %4, i32 0, i32 0, !dbg !6284
  call void @llvm.memcpy.p0.p0.i64(ptr align 8 %2, ptr align 8 %5, i64 8, i1 false), !dbg !6284
  %6 = getelementptr inbounds %"class.__gnu_cxx::__normal_iterator", ptr %2, i32 0, i32 0, !dbg !6285
  %7 = load ptr, ptr %6, align 8, !dbg !6285
  ret ptr %7, !dbg !6285
}

; Function Attrs: noinline nounwind optnone uwtable
define linkonce_odr dso_local void @_ZN9__gnu_cxx17__normal_iteratorIPKcNSt7__cxx1112basic_stringIcSt11char_traitsIcESaIcEEEEC2IPcEERKNS0_IT_NS_11__enable_ifIXsr3std10__are_sameISC_SB_EE7__valueES8_E6__typeEEE(ptr noundef nonnull align 8 dereferenceable(8) %0, ptr noundef nonnull align 8 dereferenceable(8) %1) unnamed_addr #6 comdat align 2 !dbg !6286 {
  %3 = alloca ptr, align 8
  %4 = alloca ptr, align 8
  store ptr %0, ptr %3, align 8
  call void @llvm.dbg.declare(metadata ptr %3, metadata !6293, metadata !DIExpression()), !dbg !6295
  store ptr %1, ptr %4, align 8
  call void @llvm.dbg.declare(metadata ptr %4, metadata !6296, metadata !DIExpression()), !dbg !6297
  %5 = load ptr, ptr %3, align 8
  %6 = getelementptr inbounds %"class.__gnu_cxx::__normal_iterator.7", ptr %5, i32 0, i32 0, !dbg !6298
  %7 = load ptr, ptr %4, align 8, !dbg !6299
  %8 = call noundef nonnull align 8 dereferenceable(8) ptr @_ZNK9__gnu_cxx17__normal_iteratorIPcNSt7__cxx1112basic_stringIcSt11char_traitsIcESaIcEEEE4baseEv(ptr noundef nonnull align 8 dereferenceable(8) %7) #3, !dbg !6300
  %9 = load ptr, ptr %8, align 8, !dbg !6300
  store ptr %9, ptr %6, align 8, !dbg !6298
  ret void, !dbg !6301
}

; Function Attrs: nounwind
declare ptr @_ZNSt7__cxx1112basic_stringIcSt11char_traitsIcESaIcEE3endEv(ptr noundef nonnull align 8 dereferenceable(32)) #2

; Function Attrs: mustprogress noinline optnone uwtable
define internal void @"_ZSt7find_ifISt16reverse_iteratorIN9__gnu_cxx17__normal_iteratorIPcNSt7__cxx1112basic_stringIcSt11char_traitsIcESaIcEEEEEEZN7JWTAuth14getAccessTokenEvE3$_1ET_SE_SE_T0_"(ptr noalias sret(%"class.std::reverse_iterator") align 8 %0, ptr noundef %1, ptr noundef %2) #4 !dbg !6302 {
  %4 = alloca ptr, align 8
  %5 = alloca %class.anon.8, align 1
  %6 = alloca %"class.std::reverse_iterator", align 8
  %7 = alloca %"class.std::reverse_iterator", align 8
  %8 = alloca %"struct.__gnu_cxx::__ops::_Iter_pred.71", align 1
  %9 = alloca %class.anon.8, align 1
  %10 = alloca %"struct.__gnu_cxx::__ops::_Iter_pred.71", align 1
  store ptr %0, ptr %4, align 8
  call void @llvm.dbg.declare(metadata ptr %1, metadata !6306, metadata !DIExpression()), !dbg !6307
  call void @llvm.dbg.declare(metadata ptr %2, metadata !6308, metadata !DIExpression()), !dbg !6309
  call void @llvm.dbg.declare(metadata ptr %5, metadata !6310, metadata !DIExpression()), !dbg !6311
  call void @_ZNSt16reverse_iteratorIN9__gnu_cxx17__normal_iteratorIPcNSt7__cxx1112basic_stringIcSt11char_traitsIcESaIcEEEEEEC2ERKSA_(ptr noundef nonnull align 8 dereferenceable(8) %6, ptr noundef nonnull align 8 dereferenceable(8) %1), !dbg !6312
  call void @_ZNSt16reverse_iteratorIN9__gnu_cxx17__normal_iteratorIPcNSt7__cxx1112basic_stringIcSt11char_traitsIcESaIcEEEEEEC2ERKSA_(ptr noundef nonnull align 8 dereferenceable(8) %7, ptr noundef nonnull align 8 dereferenceable(8) %2), !dbg !6313
  call void @"_ZN9__gnu_cxx5__ops11__pred_iterIZN7JWTAuth14getAccessTokenB5cxx11EvE3$_1EENS0_10_Iter_predIT_EES5_"(), !dbg !6314
  call void @"_ZSt9__find_ifISt16reverse_iteratorIN9__gnu_cxx17__normal_iteratorIPcNSt7__cxx1112basic_stringIcSt11char_traitsIcESaIcEEEEEENS1_5__ops10_Iter_predIZN7JWTAuth14getAccessTokenEvE3$_1EEET_SH_SH_T0_"(ptr sret(%"class.std::reverse_iterator") align 8 %0, ptr noundef %6, ptr noundef %7), !dbg !6315
  ret void, !dbg !6316
}

declare noundef nonnull align 8 dereferenceable(68) ptr @_ZN3Log6loggerEv() #1

; Function Attrs: mustprogress noinline nounwind optnone uwtable
define linkonce_odr dso_local noundef zeroext i1 @_ZN3Log16isShutdownCalledEv() #9 comdat !dbg !6317 {
  %1 = load i8, ptr @_ZN3Log10IsShutdownE, align 1, !dbg !6318
  %2 = trunc i8 %1 to i1, !dbg !6318
  ret i1 %2, !dbg !6319
}

; Function Attrs: mustprogress noinline nounwind optnone uwtable
define linkonce_odr dso_local noundef zeroext i1 @_ZNK4Poco6Logger11informationEv(ptr noundef nonnull align 8 dereferenceable(68) %0) #9 comdat align 2 !dbg !6320 {
  %2 = alloca ptr, align 8
  store ptr %0, ptr %2, align 8
  call void @llvm.dbg.declare(metadata ptr %2, metadata !6326, metadata !DIExpression()), !dbg !6328
  %3 = load ptr, ptr %2, align 8
  %4 = getelementptr inbounds %"class.Poco::Logger", ptr %3, i32 0, i32 4, !dbg !6329
  %5 = load i32, ptr %4, align 8, !dbg !6329
  %6 = icmp sge i32 %5, 6, !dbg !6330
  ret i1 %6, !dbg !6331
}

; Function Attrs: mustprogress noinline optnone uwtable
define linkonce_odr dso_local noundef ptr @_ZN3Log6prefixILi1023EEEPcS1_PKc(ptr noundef %0, ptr noundef %1) #4 comdat personality ptr @__gxx_personality_v0 !dbg !6332 {
  %3 = alloca ptr, align 8
  %4 = alloca ptr, align 8
  %5 = alloca %"class.Poco::LocalDateTime", align 8
  %6 = alloca ptr, align 8
  %7 = alloca i32, align 4
  store ptr %0, ptr %3, align 8
  call void @llvm.dbg.declare(metadata ptr %3, metadata !6337, metadata !DIExpression()), !dbg !6338
  store ptr %1, ptr %4, align 8
  call void @llvm.dbg.declare(metadata ptr %4, metadata !6339, metadata !DIExpression()), !dbg !6340
  call void @_ZN4Poco13LocalDateTimeC1Ev(ptr noundef nonnull align 8 dereferenceable(28) %5), !dbg !6341
  %8 = load ptr, ptr %3, align 8, !dbg !6342
  %9 = load ptr, ptr %4, align 8, !dbg !6343
  %10 = invoke noundef ptr @_ZN3Log6prefixERKN4Poco13LocalDateTimeEPcPKc(ptr noundef nonnull align 8 dereferenceable(28) %5, ptr noundef %8, ptr noundef %9)
          to label %11 unwind label %12, !dbg !6344

11:                                               ; preds = %2
  call void @_ZN4Poco13LocalDateTimeD1Ev(ptr noundef nonnull align 8 dereferenceable(28) %5) #3, !dbg !6345
  ret ptr %10, !dbg !6345

12:                                               ; preds = %2
  %13 = landingpad { ptr, i32 }
          cleanup, !dbg !6346
  %14 = extractvalue { ptr, i32 } %13, 0, !dbg !6346
  store ptr %14, ptr %6, align 8, !dbg !6346
  %15 = extractvalue { ptr, i32 } %13, 1, !dbg !6346
  store i32 %15, ptr %7, align 4, !dbg !6346
  call void @_ZN4Poco13LocalDateTimeD1Ev(ptr noundef nonnull align 8 dereferenceable(28) %5) #3, !dbg !6345
  br label %16, !dbg !6345

16:                                               ; preds = %12
  %17 = load ptr, ptr %6, align 8, !dbg !6345
  %18 = load i32, ptr %7, align 4, !dbg !6345
  %19 = insertvalue { ptr, i32 } poison, ptr %17, 0, !dbg !6345
  %20 = insertvalue { ptr, i32 } %19, i32 %18, 1, !dbg !6345
  resume { ptr, i32 } %20, !dbg !6345
}

; Function Attrs: nounwind
declare void @_ZNSaIcEC1Ev(ptr noundef nonnull align 1 dereferenceable(1)) unnamed_addr #2

; Function Attrs: noinline optnone uwtable
define linkonce_odr dso_local void @_ZNSt7__cxx1112basic_stringIcSt11char_traitsIcESaIcEEC2IS3_EEPKcRKS3_(ptr noundef nonnull align 8 dereferenceable(32) %0, ptr noundef %1, ptr noundef nonnull align 1 dereferenceable(1) %2) unnamed_addr #10 comdat align 2 personality ptr @__gxx_personality_v0 !dbg !6347 {
  %4 = alloca ptr, align 8
  %5 = alloca ptr, align 8
  %6 = alloca ptr, align 8
  %7 = alloca ptr, align 8
  %8 = alloca ptr, align 8
  %9 = alloca i32, align 4
  %10 = alloca %"struct.std::forward_iterator_tag", align 1
  %11 = alloca %"struct.std::random_access_iterator_tag", align 1
  store ptr %0, ptr %4, align 8
  call void @llvm.dbg.declare(metadata ptr %4, metadata !6353, metadata !DIExpression()), !dbg !6355
  store ptr %1, ptr %5, align 8
  call void @llvm.dbg.declare(metadata ptr %5, metadata !6356, metadata !DIExpression()), !dbg !6357
  store ptr %2, ptr %6, align 8
  call void @llvm.dbg.declare(metadata ptr %6, metadata !6358, metadata !DIExpression()), !dbg !6359
  %12 = load ptr, ptr %4, align 8
  %13 = getelementptr inbounds %"class.std::__cxx11::basic_string", ptr %12, i32 0, i32 0, !dbg !6360
  %14 = call noundef ptr @_ZNSt7__cxx1112basic_stringIcSt11char_traitsIcESaIcEE13_M_local_dataEv(ptr noundef nonnull align 8 dereferenceable(32) %12), !dbg !6361
  %15 = load ptr, ptr %6, align 8, !dbg !6362
  call void @_ZNSt7__cxx1112basic_stringIcSt11char_traitsIcESaIcEE12_Alloc_hiderC1EPcRKS3_(ptr noundef nonnull align 8 dereferenceable(8) %13, ptr noundef %14, ptr noundef nonnull align 1 dereferenceable(1) %15), !dbg !6360
  call void @llvm.dbg.declare(metadata ptr %7, metadata !6363, metadata !DIExpression()), !dbg !6365
  %16 = load ptr, ptr %5, align 8, !dbg !6366
  %17 = icmp ne ptr %16, null, !dbg !6366
  br i1 %17, label %18, label %24, !dbg !6366

18:                                               ; preds = %3
  %19 = load ptr, ptr %5, align 8, !dbg !6367
  %20 = load ptr, ptr %5, align 8, !dbg !6368
  %21 = invoke noundef i64 @_ZNSt11char_traitsIcE6lengthEPKc(ptr noundef %20)
          to label %22 unwind label %30, !dbg !6369

22:                                               ; preds = %18
  %23 = getelementptr inbounds i8, ptr %19, i64 %21, !dbg !6370
  br label %25, !dbg !6366

24:                                               ; preds = %3
  br label %25, !dbg !6366

25:                                               ; preds = %24, %22
  %26 = phi ptr [ %23, %22 ], [ inttoptr (i64 1 to ptr), %24 ], !dbg !6366
  store ptr %26, ptr %7, align 8, !dbg !6365
  %27 = load ptr, ptr %5, align 8, !dbg !6371
  %28 = load ptr, ptr %7, align 8, !dbg !6372
  invoke void @_ZNSt7__cxx1112basic_stringIcSt11char_traitsIcESaIcEE12_M_constructIPKcEEvT_S8_St20forward_iterator_tag(ptr noundef nonnull align 8 dereferenceable(32) %12, ptr noundef %27, ptr noundef %28)
          to label %29 unwind label %30, !dbg !6373

29:                                               ; preds = %25
  ret void, !dbg !6374

30:                                               ; preds = %25, %18
  %31 = landingpad { ptr, i32 }
          cleanup, !dbg !6375
  %32 = extractvalue { ptr, i32 } %31, 0, !dbg !6375
  store ptr %32, ptr %8, align 8, !dbg !6375
  %33 = extractvalue { ptr, i32 } %31, 1, !dbg !6375
  store i32 %33, ptr %9, align 4, !dbg !6375
  call void @_ZNSt7__cxx1112basic_stringIcSt11char_traitsIcESaIcEE12_Alloc_hiderD2Ev(ptr noundef nonnull align 8 dereferenceable(8) %13) #3, !dbg !6375
  br label %34, !dbg !6375

34:                                               ; preds = %30
  %35 = load ptr, ptr %8, align 8, !dbg !6375
  %36 = load i32, ptr %9, align 4, !dbg !6375
  %37 = insertvalue { ptr, i32 } poison, ptr %35, 0, !dbg !6375
  %38 = insertvalue { ptr, i32 } %37, i32 %36, 1, !dbg !6375
  resume { ptr, i32 } %38, !dbg !6375
}

declare void @_ZNSt7__cxx1119basic_ostringstreamIcSt11char_traitsIcESaIcEEC1ERKNS_12basic_stringIcS2_S3_EESt13_Ios_Openmode(ptr noundef nonnull align 8 dereferenceable(112), ptr noundef nonnull align 8 dereferenceable(32), i32 noundef) unnamed_addr #1

; Function Attrs: nounwind
declare void @_ZNSt7__cxx1112basic_stringIcSt11char_traitsIcESaIcEED1Ev(ptr noundef nonnull align 8 dereferenceable(32)) unnamed_addr #2

; Function Attrs: nounwind
declare void @_ZNSaIcED1Ev(ptr noundef nonnull align 1 dereferenceable(1)) unnamed_addr #2

declare noundef nonnull align 8 dereferenceable(8) ptr @_ZStlsIcSt11char_traitsIcESaIcEERSt13basic_ostreamIT_T0_ES7_RKNSt7__cxx1112basic_stringIS4_S5_T1_EE(ptr noundef nonnull align 8 dereferenceable(8), ptr noundef nonnull align 8 dereferenceable(32)) #1

declare noundef nonnull align 8 dereferenceable(8) ptr @_ZStlsISt11char_traitsIcEERSt13basic_ostreamIcT_ES5_PKc(ptr noundef nonnull align 8 dereferenceable(8), ptr noundef) #1

declare noundef nonnull align 8 dereferenceable(8) ptr @_ZNSolsEPFRSt8ios_baseS0_E(ptr noundef nonnull align 8 dereferenceable(8), ptr noundef) #1

; Function Attrs: mustprogress noinline optnone uwtable
define linkonce_odr dso_local noundef nonnull align 8 dereferenceable(216) ptr @_ZSt9boolalphaRSt8ios_base(ptr noundef nonnull align 8 dereferenceable(216) %0) #4 comdat !dbg !6376 {
  %2 = alloca ptr, align 8
  store ptr %0, ptr %2, align 8
  call void @llvm.dbg.declare(metadata ptr %2, metadata !6380, metadata !DIExpression()), !dbg !6381
  %3 = load ptr, ptr %2, align 8, !dbg !6382
  %4 = call noundef i32 @_ZNSt8ios_base4setfESt13_Ios_Fmtflags(ptr noundef nonnull align 8 dereferenceable(216) %3, i32 noundef 1), !dbg !6383
  %5 = load ptr, ptr %2, align 8, !dbg !6384
  ret ptr %5, !dbg !6385
}

declare noundef nonnull align 8 dereferenceable(8) ptr @_ZStlsISt11char_traitsIcEERSt13basic_ostreamIcT_ES5_c(ptr noundef nonnull align 8 dereferenceable(8), i8 noundef signext) #1

declare noundef nonnull align 8 dereferenceable(8) ptr @_ZNSolsEi(ptr noundef nonnull align 8 dereferenceable(8), i32 noundef) #1

declare noundef nonnull align 8 dereferenceable(8) ptr @_ZNSo5flushEv(ptr noundef nonnull align 8 dereferenceable(8)) #1

; Function Attrs: mustprogress noinline nounwind optnone uwtable
define linkonce_odr dso_local noundef nonnull align 8 dereferenceable(32) ptr @_ZNK4Poco6Logger4nameB5cxx11Ev(ptr noundef nonnull align 8 dereferenceable(68) %0) #9 comdat align 2 !dbg !6386 {
  %2 = alloca ptr, align 8
  store ptr %0, ptr %2, align 8
  call void @llvm.dbg.declare(metadata ptr %2, metadata !6390, metadata !DIExpression()), !dbg !6391
  %3 = load ptr, ptr %2, align 8
  %4 = getelementptr inbounds %"class.Poco::Logger", ptr %3, i32 0, i32 2, !dbg !6392
  ret ptr %4, !dbg !6393
}

declare void @_ZNKSt7__cxx1119basic_ostringstreamIcSt11char_traitsIcESaIcEE3strEv(ptr sret(%"class.std::__cxx11::basic_string") align 8, ptr noundef nonnull align 8 dereferenceable(112)) #1

declare void @_ZN4Poco7MessageC1ERKNSt7__cxx1112basic_stringIcSt11char_traitsIcESaIcEEES8_NS0_8PriorityE(ptr noundef nonnull align 8 dereferenceable(152), ptr noundef nonnull align 8 dereferenceable(32), ptr noundef nonnull align 8 dereferenceable(32), i32 noundef) unnamed_addr #1

; Function Attrs: nounwind
declare void @_ZN4Poco7MessageD1Ev(ptr noundef nonnull align 8 dereferenceable(152)) unnamed_addr #2

; Function Attrs: nounwind
declare void @_ZNSt7__cxx1119basic_ostringstreamIcSt11char_traitsIcESaIcEED1Ev(ptr noundef nonnull align 8 dereferenceable(112)) unnamed_addr #2

; Function Attrs: mustprogress noinline nounwind optnone uwtable
define linkonce_odr dso_local void @_ZSt7replaceIN9__gnu_cxx17__normal_iteratorIPcNSt7__cxx1112basic_stringIcSt11char_traitsIcESaIcEEEEEcEvT_SA_RKT0_SD_(ptr %0, ptr %1, ptr noundef nonnull align 1 dereferenceable(1) %2, ptr noundef nonnull align 1 dereferenceable(1) %3) #9 comdat !dbg !6394 {
  %5 = alloca %"class.__gnu_cxx::__normal_iterator", align 8
  %6 = alloca %"class.__gnu_cxx::__normal_iterator", align 8
  %7 = alloca ptr, align 8
  %8 = alloca ptr, align 8
  %9 = getelementptr inbounds %"class.__gnu_cxx::__normal_iterator", ptr %5, i32 0, i32 0
  store ptr %0, ptr %9, align 8
  %10 = getelementptr inbounds %"class.__gnu_cxx::__normal_iterator", ptr %6, i32 0, i32 0
  store ptr %1, ptr %10, align 8
  call void @llvm.dbg.declare(metadata ptr %5, metadata !6399, metadata !DIExpression()), !dbg !6400
  call void @llvm.dbg.declare(metadata ptr %6, metadata !6401, metadata !DIExpression()), !dbg !6402
  store ptr %2, ptr %7, align 8
  call void @llvm.dbg.declare(metadata ptr %7, metadata !6403, metadata !DIExpression()), !dbg !6404
  store ptr %3, ptr %8, align 8
  call void @llvm.dbg.declare(metadata ptr %8, metadata !6405, metadata !DIExpression()), !dbg !6406
  br label %11, !dbg !6407

11:                                               ; preds = %26, %4
  %12 = call noundef zeroext i1 @_ZN9__gnu_cxxneIPcNSt7__cxx1112basic_stringIcSt11char_traitsIcESaIcEEEEEbRKNS_17__normal_iteratorIT_T0_EESD_(ptr noundef nonnull align 8 dereferenceable(8) %5, ptr noundef nonnull align 8 dereferenceable(8) %6) #3, !dbg !6408
  br i1 %12, label %13, label %28, !dbg !6411

13:                                               ; preds = %11
  %14 = call noundef nonnull align 1 dereferenceable(1) ptr @_ZNK9__gnu_cxx17__normal_iteratorIPcNSt7__cxx1112basic_stringIcSt11char_traitsIcESaIcEEEEdeEv(ptr noundef nonnull align 8 dereferenceable(8) %5) #3, !dbg !6412
  %15 = load i8, ptr %14, align 1, !dbg !6412
  %16 = sext i8 %15 to i32, !dbg !6412
  %17 = load ptr, ptr %7, align 8, !dbg !6414
  %18 = load i8, ptr %17, align 1, !dbg !6414
  %19 = sext i8 %18 to i32, !dbg !6414
  %20 = icmp eq i32 %16, %19, !dbg !6415
  br i1 %20, label %21, label %25, !dbg !6416

21:                                               ; preds = %13
  %22 = load ptr, ptr %8, align 8, !dbg !6417
  %23 = load i8, ptr %22, align 1, !dbg !6417
  %24 = call noundef nonnull align 1 dereferenceable(1) ptr @_ZNK9__gnu_cxx17__normal_iteratorIPcNSt7__cxx1112basic_stringIcSt11char_traitsIcESaIcEEEEdeEv(ptr noundef nonnull align 8 dereferenceable(8) %5) #3, !dbg !6418
  store i8 %23, ptr %24, align 1, !dbg !6419
  br label %25, !dbg !6418

25:                                               ; preds = %21, %13
  br label %26, !dbg !6414

26:                                               ; preds = %25
  %27 = call noundef nonnull align 8 dereferenceable(8) ptr @_ZN9__gnu_cxx17__normal_iteratorIPcNSt7__cxx1112basic_stringIcSt11char_traitsIcESaIcEEEEppEv(ptr noundef nonnull align 8 dereferenceable(8) %5) #3, !dbg !6420
  br label %11, !dbg !6421, !llvm.loop !6422

28:                                               ; preds = %11
  ret void, !dbg !6425
}

; Function Attrs: nounwind
declare ptr @_ZNSt7__cxx1112basic_stringIcSt11char_traitsIcESaIcEE5beginEv(ptr noundef nonnull align 8 dereferenceable(32)) #2

; Function Attrs: mustprogress noinline optnone uwtable
define linkonce_odr dso_local void @_ZStplIcSt11char_traitsIcESaIcEENSt7__cxx1112basic_stringIT_T0_T1_EEOS8_RKS8_(ptr noalias sret(%"class.std::__cxx11::basic_string") align 8 %0, ptr noundef nonnull align 8 dereferenceable(32) %1, ptr noundef nonnull align 8 dereferenceable(32) %2) #4 comdat !dbg !6426 {
  %4 = alloca ptr, align 8
  %5 = alloca ptr, align 8
  %6 = alloca ptr, align 8
  store ptr %0, ptr %4, align 8
  store ptr %1, ptr %5, align 8
  call void @llvm.dbg.declare(metadata ptr %5, metadata !6429, metadata !DIExpression()), !dbg !6430
  store ptr %2, ptr %6, align 8
  call void @llvm.dbg.declare(metadata ptr %6, metadata !6431, metadata !DIExpression()), !dbg !6432
  %7 = load ptr, ptr %5, align 8, !dbg !6433
  %8 = load ptr, ptr %6, align 8, !dbg !6434
  %9 = call noundef nonnull align 8 dereferenceable(32) ptr @_ZNSt7__cxx1112basic_stringIcSt11char_traitsIcESaIcEE6appendERKS4_(ptr noundef nonnull align 8 dereferenceable(32) %7, ptr noundef nonnull align 8 dereferenceable(32) %8), !dbg !6435
  call void @_ZNSt7__cxx1112basic_stringIcSt11char_traitsIcESaIcEEC1EOS4_(ptr noundef nonnull align 8 dereferenceable(32) %0, ptr noundef nonnull align 8 dereferenceable(32) %9) #3, !dbg !6436
  ret void, !dbg !6437
}

; Function Attrs: mustprogress noinline optnone uwtable
define linkonce_odr dso_local void @_ZStplIcSt11char_traitsIcESaIcEENSt7__cxx1112basic_stringIT_T0_T1_EERKS8_S5_(ptr noalias sret(%"class.std::__cxx11::basic_string") align 8 %0, ptr noundef nonnull align 8 dereferenceable(32) %1, i8 noundef signext %2) #4 comdat personality ptr @__gxx_personality_v0 !dbg !1899 {
  %4 = alloca ptr, align 8
  %5 = alloca ptr, align 8
  %6 = alloca i8, align 1
  %7 = alloca i1, align 1
  %8 = alloca ptr, align 8
  %9 = alloca i32, align 4
  store ptr %0, ptr %4, align 8
  store ptr %1, ptr %5, align 8
  call void @llvm.dbg.declare(metadata ptr %5, metadata !6438, metadata !DIExpression()), !dbg !6439
  store i8 %2, ptr %6, align 1
  call void @llvm.dbg.declare(metadata ptr %6, metadata !6440, metadata !DIExpression()), !dbg !6441
  store i1 false, ptr %7, align 1, !dbg !6442
  call void @llvm.dbg.declare(metadata ptr %4, metadata !6443, metadata !DIExpression(DW_OP_deref)), !dbg !6445
  %10 = load ptr, ptr %5, align 8, !dbg !6446
  call void @_ZNSt7__cxx1112basic_stringIcSt11char_traitsIcESaIcEEC1ERKS4_(ptr noundef nonnull align 8 dereferenceable(32) %0, ptr noundef nonnull align 8 dereferenceable(32) %10), !dbg !6445
  %11 = load i8, ptr %6, align 1, !dbg !6447
  %12 = invoke noundef nonnull align 8 dereferenceable(32) ptr @_ZNSt7__cxx1112basic_stringIcSt11char_traitsIcESaIcEE6appendEmc(ptr noundef nonnull align 8 dereferenceable(32) %0, i64 noundef 1, i8 noundef signext %11)
          to label %13 unwind label %15, !dbg !6448

13:                                               ; preds = %3
  store i1 true, ptr %7, align 1, !dbg !6449
  %14 = load i1, ptr %7, align 1, !dbg !6450
  br i1 %14, label %20, label %19, !dbg !6450

15:                                               ; preds = %3
  %16 = landingpad { ptr, i32 }
          cleanup, !dbg !6450
  %17 = extractvalue { ptr, i32 } %16, 0, !dbg !6450
  store ptr %17, ptr %8, align 8, !dbg !6450
  %18 = extractvalue { ptr, i32 } %16, 1, !dbg !6450
  store i32 %18, ptr %9, align 4, !dbg !6450
  call void @_ZNSt7__cxx1112basic_stringIcSt11char_traitsIcESaIcEED1Ev(ptr noundef nonnull align 8 dereferenceable(32) %0) #3, !dbg !6450
  br label %21, !dbg !6450

19:                                               ; preds = %13
  call void @_ZNSt7__cxx1112basic_stringIcSt11char_traitsIcESaIcEED1Ev(ptr noundef nonnull align 8 dereferenceable(32) %0) #3, !dbg !6450
  br label %20, !dbg !6450

20:                                               ; preds = %19, %13
  ret void, !dbg !6450

21:                                               ; preds = %15
  %22 = load ptr, ptr %8, align 8, !dbg !6450
  %23 = load i32, ptr %9, align 4, !dbg !6450
  %24 = insertvalue { ptr, i32 } poison, ptr %22, 0, !dbg !6450
  %25 = insertvalue { ptr, i32 } %24, i32 %23, 1, !dbg !6450
  resume { ptr, i32 } %25, !dbg !6450
}

; Function Attrs: mustprogress noinline optnone uwtable
define linkonce_odr dso_local void @_ZN4Poco12DigestEngine6updateEPKvm(ptr noundef nonnull align 8 dereferenceable(8) %0, ptr noundef %1, i64 noundef %2) #4 comdat align 2 !dbg !6451 {
  %4 = alloca ptr, align 8
  %5 = alloca ptr, align 8
  %6 = alloca i64, align 8
  store ptr %0, ptr %4, align 8
  call void @llvm.dbg.declare(metadata ptr %4, metadata !6456, metadata !DIExpression()), !dbg !6458
  store ptr %1, ptr %5, align 8
  call void @llvm.dbg.declare(metadata ptr %5, metadata !6459, metadata !DIExpression()), !dbg !6460
  store i64 %2, ptr %6, align 8
  call void @llvm.dbg.declare(metadata ptr %6, metadata !6461, metadata !DIExpression()), !dbg !6462
  %7 = load ptr, ptr %4, align 8
  %8 = load ptr, ptr %5, align 8, !dbg !6463
  %9 = load i64, ptr %6, align 8, !dbg !6464
  %10 = load ptr, ptr %7, align 8, !dbg !6465
  %11 = getelementptr inbounds ptr, ptr %10, i64 5, !dbg !6465
  %12 = load ptr, ptr %11, align 8, !dbg !6465
  call void %12(ptr noundef nonnull align 8 dereferenceable(8) %7, ptr noundef %8, i64 noundef %9), !dbg !6465
  ret void, !dbg !6466
}

; Function Attrs: nounwind
declare noundef ptr @_ZNKSt7__cxx1112basic_stringIcSt11char_traitsIcESaIcEE5c_strEv(ptr noundef nonnull align 8 dereferenceable(32)) #2

; Function Attrs: nounwind
declare noundef i64 @_ZNKSt7__cxx1112basic_stringIcSt11char_traitsIcESaIcEE6lengthEv(ptr noundef nonnull align 8 dereferenceable(32)) #2

declare noundef nonnull align 8 dereferenceable(24) ptr @_ZN4Poco6Crypto15RSADigestEngine9signatureEv(ptr noundef nonnull align 8 dereferenceable(152)) #1

; Function Attrs: noinline optnone uwtable
define linkonce_odr dso_local void @_ZNSt6vectorIhSaIhEEC2ERKS1_(ptr noundef nonnull align 8 dereferenceable(24) %0, ptr noundef nonnull align 8 dereferenceable(24) %1) unnamed_addr #10 comdat align 2 personality ptr @__gxx_personality_v0 !dbg !6467 {
  %3 = alloca ptr, align 8
  %4 = alloca ptr, align 8
  %5 = alloca %"class.std::allocator.4", align 1
  %6 = alloca ptr, align 8
  %7 = alloca i32, align 4
  %8 = alloca %"class.__gnu_cxx::__normal_iterator.72", align 8
  %9 = alloca %"class.__gnu_cxx::__normal_iterator.72", align 8
  store ptr %0, ptr %3, align 8
  call void @llvm.dbg.declare(metadata ptr %3, metadata !6468, metadata !DIExpression()), !dbg !6470
  store ptr %1, ptr %4, align 8
  call void @llvm.dbg.declare(metadata ptr %4, metadata !6471, metadata !DIExpression()), !dbg !6472
  %10 = load ptr, ptr %3, align 8
  %11 = load ptr, ptr %4, align 8, !dbg !6473
  %12 = call noundef i64 @_ZNKSt6vectorIhSaIhEE4sizeEv(ptr noundef nonnull align 8 dereferenceable(24) %11) #3, !dbg !6474
  %13 = load ptr, ptr %4, align 8, !dbg !6475
  %14 = call noundef nonnull align 1 dereferenceable(1) ptr @_ZNKSt12_Vector_baseIhSaIhEE19_M_get_Tp_allocatorEv(ptr noundef nonnull align 8 dereferenceable(24) %13) #3, !dbg !6476
  call void @_ZN9__gnu_cxx14__alloc_traitsISaIhEhE17_S_select_on_copyERKS1_(ptr sret(%"class.std::allocator.4") align 1 %5, ptr noundef nonnull align 1 dereferenceable(1) %14), !dbg !6477
  invoke void @_ZNSt12_Vector_baseIhSaIhEEC2EmRKS0_(ptr noundef nonnull align 8 dereferenceable(24) %10, i64 noundef %12, ptr noundef nonnull align 1 dereferenceable(1) %5)
          to label %15 unwind label %34, !dbg !6478

15:                                               ; preds = %2
  call void @_ZNSaIhED2Ev(ptr noundef nonnull align 1 dereferenceable(1) %5) #3, !dbg !6478
  %16 = load ptr, ptr %4, align 8, !dbg !6479
  %17 = call ptr @_ZNKSt6vectorIhSaIhEE5beginEv(ptr noundef nonnull align 8 dereferenceable(24) %16) #3, !dbg !6481
  %18 = getelementptr inbounds %"class.__gnu_cxx::__normal_iterator.72", ptr %8, i32 0, i32 0, !dbg !6481
  store ptr %17, ptr %18, align 8, !dbg !6481
  %19 = load ptr, ptr %4, align 8, !dbg !6482
  %20 = call ptr @_ZNKSt6vectorIhSaIhEE3endEv(ptr noundef nonnull align 8 dereferenceable(24) %19) #3, !dbg !6483
  %21 = getelementptr inbounds %"class.__gnu_cxx::__normal_iterator.72", ptr %9, i32 0, i32 0, !dbg !6483
  store ptr %20, ptr %21, align 8, !dbg !6483
  %22 = getelementptr inbounds %"struct.std::_Vector_base", ptr %10, i32 0, i32 0, !dbg !6484
  %23 = getelementptr inbounds %"struct.std::_Vector_base<unsigned char, std::allocator<unsigned char>>::_Vector_impl_data", ptr %22, i32 0, i32 0, !dbg !6485
  %24 = load ptr, ptr %23, align 8, !dbg !6485
  %25 = call noundef nonnull align 1 dereferenceable(1) ptr @_ZNSt12_Vector_baseIhSaIhEE19_M_get_Tp_allocatorEv(ptr noundef nonnull align 8 dereferenceable(24) %10) #3, !dbg !6486
  %26 = getelementptr inbounds %"class.__gnu_cxx::__normal_iterator.72", ptr %8, i32 0, i32 0, !dbg !6487
  %27 = load ptr, ptr %26, align 8, !dbg !6487
  %28 = getelementptr inbounds %"class.__gnu_cxx::__normal_iterator.72", ptr %9, i32 0, i32 0, !dbg !6487
  %29 = load ptr, ptr %28, align 8, !dbg !6487
  %30 = invoke noundef ptr @_ZSt22__uninitialized_copy_aIN9__gnu_cxx17__normal_iteratorIPKhSt6vectorIhSaIhEEEEPhhET0_T_SA_S9_RSaIT1_E(ptr %27, ptr %29, ptr noundef %24, ptr noundef nonnull align 1 dereferenceable(1) %25)
          to label %31 unwind label %38, !dbg !6487

31:                                               ; preds = %15
  %32 = getelementptr inbounds %"struct.std::_Vector_base", ptr %10, i32 0, i32 0, !dbg !6488
  %33 = getelementptr inbounds %"struct.std::_Vector_base<unsigned char, std::allocator<unsigned char>>::_Vector_impl_data", ptr %32, i32 0, i32 1, !dbg !6489
  store ptr %30, ptr %33, align 8, !dbg !6490
  ret void, !dbg !6491

34:                                               ; preds = %2
  %35 = landingpad { ptr, i32 }
          cleanup, !dbg !6491
  %36 = extractvalue { ptr, i32 } %35, 0, !dbg !6491
  store ptr %36, ptr %6, align 8, !dbg !6491
  %37 = extractvalue { ptr, i32 } %35, 1, !dbg !6491
  store i32 %37, ptr %7, align 4, !dbg !6491
  call void @_ZNSaIhED2Ev(ptr noundef nonnull align 1 dereferenceable(1) %5) #3, !dbg !6478
  br label %42, !dbg !6478

38:                                               ; preds = %15
  %39 = landingpad { ptr, i32 }
          cleanup, !dbg !6492
  %40 = extractvalue { ptr, i32 } %39, 0, !dbg !6492
  store ptr %40, ptr %6, align 8, !dbg !6492
  %41 = extractvalue { ptr, i32 } %39, 1, !dbg !6492
  store i32 %41, ptr %7, align 4, !dbg !6492
  call void @_ZNSt12_Vector_baseIhSaIhEED2Ev(ptr noundef nonnull align 8 dereferenceable(24) %10) #3, !dbg !6492
  br label %42, !dbg !6492

42:                                               ; preds = %38, %34
  %43 = load ptr, ptr %6, align 8, !dbg !6478
  %44 = load i32, ptr %7, align 4, !dbg !6478
  %45 = insertvalue { ptr, i32 } poison, ptr %43, 0, !dbg !6478
  %46 = insertvalue { ptr, i32 } %45, i32 %44, 1, !dbg !6478
  resume { ptr, i32 } %46, !dbg !6478
}

declare void @_ZNSt7__cxx1119basic_ostringstreamIcSt11char_traitsIcESaIcEEC1Ev(ptr noundef nonnull align 8 dereferenceable(112)) unnamed_addr #1

declare void @_ZN4Poco25OutputLineEndingConverterC1ERSoRKNSt7__cxx1112basic_stringIcSt11char_traitsIcESaIcEEE(ptr noundef nonnull align 8 dereferenceable(152), ptr noundef nonnull align 8 dereferenceable(8), ptr noundef nonnull align 8 dereferenceable(32)) unnamed_addr #1

declare void @_ZN4Poco13Base64EncoderC1ERSoi(ptr noundef nonnull align 8 dereferenceable(128), ptr noundef nonnull align 8 dereferenceable(8), i32 noundef) unnamed_addr #1

; Function Attrs: mustprogress noinline nounwind optnone uwtable
define linkonce_odr dso_local ptr @_ZNSt6vectorIhSaIhEE5beginEv(ptr noundef nonnull align 8 dereferenceable(24) %0) #9 comdat align 2 !dbg !6493 {
  %2 = alloca %"class.__gnu_cxx::__normal_iterator.14", align 8
  %3 = alloca ptr, align 8
  store ptr %0, ptr %3, align 8
  call void @llvm.dbg.declare(metadata ptr %3, metadata !6494, metadata !DIExpression()), !dbg !6495
  %4 = load ptr, ptr %3, align 8
  %5 = getelementptr inbounds %"struct.std::_Vector_base", ptr %4, i32 0, i32 0, !dbg !6496
  %6 = getelementptr inbounds %"struct.std::_Vector_base<unsigned char, std::allocator<unsigned char>>::_Vector_impl_data", ptr %5, i32 0, i32 0, !dbg !6497
  call void @_ZN9__gnu_cxx17__normal_iteratorIPhSt6vectorIhSaIhEEEC2ERKS1_(ptr noundef nonnull align 8 dereferenceable(8) %2, ptr noundef nonnull align 8 dereferenceable(8) %6) #3, !dbg !6498
  %7 = getelementptr inbounds %"class.__gnu_cxx::__normal_iterator.14", ptr %2, i32 0, i32 0, !dbg !6499
  %8 = load ptr, ptr %7, align 8, !dbg !6499
  ret ptr %8, !dbg !6499
}

; Function Attrs: mustprogress noinline nounwind optnone uwtable
define linkonce_odr dso_local ptr @_ZNSt6vectorIhSaIhEE3endEv(ptr noundef nonnull align 8 dereferenceable(24) %0) #9 comdat align 2 !dbg !6500 {
  %2 = alloca %"class.__gnu_cxx::__normal_iterator.14", align 8
  %3 = alloca ptr, align 8
  store ptr %0, ptr %3, align 8
  call void @llvm.dbg.declare(metadata ptr %3, metadata !6501, metadata !DIExpression()), !dbg !6502
  %4 = load ptr, ptr %3, align 8
  %5 = getelementptr inbounds %"struct.std::_Vector_base", ptr %4, i32 0, i32 0, !dbg !6503
  %6 = getelementptr inbounds %"struct.std::_Vector_base<unsigned char, std::allocator<unsigned char>>::_Vector_impl_data", ptr %5, i32 0, i32 1, !dbg !6504
  call void @_ZN9__gnu_cxx17__normal_iteratorIPhSt6vectorIhSaIhEEEC2ERKS1_(ptr noundef nonnull align 8 dereferenceable(8) %2, ptr noundef nonnull align 8 dereferenceable(8) %6) #3, !dbg !6505
  %7 = getelementptr inbounds %"class.__gnu_cxx::__normal_iterator.14", ptr %2, i32 0, i32 0, !dbg !6506
  %8 = load ptr, ptr %7, align 8, !dbg !6506
  ret ptr %8, !dbg !6506
}

; Function Attrs: noinline optnone uwtable
define linkonce_odr dso_local void @_ZNSt7__cxx1112basic_stringIcSt11char_traitsIcESaIcEEC2IN9__gnu_cxx17__normal_iteratorIPhSt6vectorIhSaIhEEEEvEET_SD_RKS3_(ptr noundef nonnull align 8 dereferenceable(32) %0, ptr %1, ptr %2, ptr noundef nonnull align 1 dereferenceable(1) %3) unnamed_addr #10 comdat align 2 personality ptr @__gxx_personality_v0 !dbg !6507 {
  %5 = alloca %"class.__gnu_cxx::__normal_iterator.14", align 8
  %6 = alloca %"class.__gnu_cxx::__normal_iterator.14", align 8
  %7 = alloca ptr, align 8
  %8 = alloca ptr, align 8
  %9 = alloca %"class.__gnu_cxx::__normal_iterator.14", align 8
  %10 = alloca %"class.__gnu_cxx::__normal_iterator.14", align 8
  %11 = alloca ptr, align 8
  %12 = alloca i32, align 4
  %13 = getelementptr inbounds %"class.__gnu_cxx::__normal_iterator.14", ptr %5, i32 0, i32 0
  store ptr %1, ptr %13, align 8
  %14 = getelementptr inbounds %"class.__gnu_cxx::__normal_iterator.14", ptr %6, i32 0, i32 0
  store ptr %2, ptr %14, align 8
  store ptr %0, ptr %7, align 8
  call void @llvm.dbg.declare(metadata ptr %7, metadata !6513, metadata !DIExpression()), !dbg !6514
  call void @llvm.dbg.declare(metadata ptr %5, metadata !6515, metadata !DIExpression()), !dbg !6516
  call void @llvm.dbg.declare(metadata ptr %6, metadata !6517, metadata !DIExpression()), !dbg !6518
  store ptr %3, ptr %8, align 8
  call void @llvm.dbg.declare(metadata ptr %8, metadata !6519, metadata !DIExpression()), !dbg !6520
  %15 = load ptr, ptr %7, align 8
  %16 = getelementptr inbounds %"class.std::__cxx11::basic_string", ptr %15, i32 0, i32 0, !dbg !6521
