; ModuleID = 'net/DelaySocket.cpp'
source_filename = "net/DelaySocket.cpp"
target datalayout = "e-m:e-p270:32:32-p271:32:32-p272:64:64-i64:64-f80:128-n8:16:32:64-S128"
target triple = "x86_64-unknown-linux-gnu"

%"class.std::ios_base::Init" = type { i8 }
%"struct.Log::_end_marker" = type { i8 }
%"class.std::__shared_count" = type { ptr }
%"struct.std::once_flag" = type { i32 }
%"struct.std::chrono::duration.42" = type { i64 }
%"class.std::basic_ostream" = type { ptr, %"class.std::basic_ios" }
%"class.std::basic_ios" = type { %"class.std::ios_base", ptr, i8, i8, ptr, ptr, ptr, ptr }
%"class.std::ios_base" = type { ptr, i64, i64, i32, i32, i32, ptr, %"struct.std::ios_base::_Words", [8 x %"struct.std::ios_base::_Words"], i32, ptr, %"class.std::locale" }
%"struct.std::ios_base::_Words" = type { ptr, i64 }
%"class.std::locale" = type { ptr }
%class.anon = type { i8 }
%class.anon.33 = type { ptr }
%"struct.std::once_flag::_Prepare_execution" = type { i8 }
%"class.std::__shared_ptr.16" = type { ptr, %"class.std::__shared_count" }
%"class.std::shared_ptr.15" = type { %"class.std::__shared_ptr.16" }
%"class.std::shared_ptr.18" = type { %"class.std::__shared_ptr.19" }
%"class.std::__shared_ptr.19" = type { ptr, %"class.std::__shared_count" }
%"class.std::shared_ptr" = type { %"class.std::__shared_ptr" }
%"class.std::__shared_ptr" = type { ptr, %"class.std::__shared_count" }
%"class.std::__cxx11::basic_ostringstream" = type { %"class.std::basic_ostream.base", %"class.std::__cxx11::basic_stringbuf", %"class.std::basic_ios" }
%"class.std::basic_ostream.base" = type { ptr }
%"class.std::__cxx11::basic_stringbuf" = type { %"class.std::basic_streambuf", i32, %"class.std::__cxx11::basic_string" }
%"class.std::basic_streambuf" = type { ptr, ptr, ptr, ptr, ptr, ptr, ptr, %"class.std::locale" }
%"class.std::__cxx11::basic_string" = type { %"struct.std::__cxx11::basic_string<char>::_Alloc_hider", i64, %union.anon }
%"struct.std::__cxx11::basic_string<char>::_Alloc_hider" = type { ptr }
%union.anon = type { i64, [8 x i8] }
%"class.std::allocator" = type { i8 }
%"class.Poco::Message" = type { %"class.std::__cxx11::basic_string", %"class.std::__cxx11::basic_string", i32, %"class.Poco::Timestamp", i64, %"class.std::__cxx11::basic_string", i64, ptr, i32, ptr }
%"class.Poco::Timestamp" = type { i64 }
%class.SocketPoll = type { ptr, %"class.std::__cxx11::basic_string", [2 x i32], %"class.std::vector", i64, %"class.std::mutex", %"class.std::vector", %"class.std::vector.3", %"class.std::vector.8", %"struct.std::atomic", %"class.std::thread", %"struct.std::atomic.13", %"struct.std::atomic", %"struct.std::atomic", %"class.std::thread::id" }
%"class.std::mutex" = type { %"class.std::__mutex_base" }
%"class.std::__mutex_base" = type { %union.pthread_mutex_t }
%union.pthread_mutex_t = type { %struct.__pthread_mutex_s }
%struct.__pthread_mutex_s = type { i32, i32, i32, i32, i32, i16, i16, %struct.__pthread_internal_list }
%struct.__pthread_internal_list = type { ptr, ptr }
%"class.std::vector" = type { %"struct.std::_Vector_base" }
%"struct.std::_Vector_base" = type { %"struct.std::_Vector_base<std::shared_ptr<Socket>, std::allocator<std::shared_ptr<Socket>>>::_Vector_impl" }
%"struct.std::_Vector_base<std::shared_ptr<Socket>, std::allocator<std::shared_ptr<Socket>>>::_Vector_impl" = type { %"struct.std::_Vector_base<std::shared_ptr<Socket>, std::allocator<std::shared_ptr<Socket>>>::_Vector_impl_data" }
%"struct.std::_Vector_base<std::shared_ptr<Socket>, std::allocator<std::shared_ptr<Socket>>>::_Vector_impl_data" = type { ptr, ptr, ptr }
%"class.std::vector.3" = type { %"struct.std::_Vector_base.4" }
%"struct.std::_Vector_base.4" = type { %"struct.std::_Vector_base<std::function<void ()>, std::allocator<std::function<void ()>>>::_Vector_impl" }
%"struct.std::_Vector_base<std::function<void ()>, std::allocator<std::function<void ()>>>::_Vector_impl" = type { %"struct.std::_Vector_base<std::function<void ()>, std::allocator<std::function<void ()>>>::_Vector_impl_data" }
%"struct.std::_Vector_base<std::function<void ()>, std::allocator<std::function<void ()>>>::_Vector_impl_data" = type { ptr, ptr, ptr }
%"class.std::vector.8" = type { %"struct.std::_Vector_base.9" }
%"struct.std::_Vector_base.9" = type { %"struct.std::_Vector_base<pollfd, std::allocator<pollfd>>::_Vector_impl" }
%"struct.std::_Vector_base<pollfd, std::allocator<pollfd>>::_Vector_impl" = type { %"struct.std::_Vector_base<pollfd, std::allocator<pollfd>>::_Vector_impl_data" }
%"struct.std::_Vector_base<pollfd, std::allocator<pollfd>>::_Vector_impl_data" = type { ptr, ptr, ptr }
%"class.std::thread" = type { %"class.std::thread::id" }
%"struct.std::atomic.13" = type { %"struct.std::__atomic_base.14" }
%"struct.std::__atomic_base.14" = type { i64 }
%"struct.std::atomic" = type { %"struct.std::__atomic_base" }
%"struct.std::__atomic_base" = type { i8 }
%"class.std::thread::id" = type { i64 }
%"class.std::allocator.43" = type { i8 }
%class.DelaySocket = type { %class.Socket, i32, i32, %"class.std::shared_ptr.18", i64, %"class.std::vector.21" }
%class.Socket = type { ptr, %"class.std::__cxx11::basic_string", i32, i8, i32, %"class.std::thread::id" }
%"class.std::vector.21" = type { %"struct.std::_Vector_base.22" }
%"struct.std::_Vector_base.22" = type { %"struct.std::_Vector_base<std::shared_ptr<DelaySocket::WriteChunk>, std::allocator<std::shared_ptr<DelaySocket::WriteChunk>>>::_Vector_impl" }
%"struct.std::_Vector_base<std::shared_ptr<DelaySocket::WriteChunk>, std::allocator<std::shared_ptr<DelaySocket::WriteChunk>>>::_Vector_impl" = type { %"struct.std::_Vector_base<std::shared_ptr<DelaySocket::WriteChunk>, std::allocator<std::shared_ptr<DelaySocket::WriteChunk>>>::_Vector_impl_data" }
%"struct.std::_Vector_base<std::shared_ptr<DelaySocket::WriteChunk>, std::allocator<std::shared_ptr<DelaySocket::WriteChunk>>>::_Vector_impl_data" = type { ptr, ptr, ptr }
%"class.std::lock_guard" = type { ptr }
%"class.Poco::Logger" = type <{ %"class.Poco::Channel.base", [4 x i8], %"class.std::__cxx11::basic_string", %"class.Poco::AutoPtr", i32, [4 x i8] }>
%"class.Poco::Channel.base" = type <{ %"class.Poco::Configurable", %"class.Poco::RefCountedObject.base" }>
%"class.Poco::Configurable" = type { ptr }
%"class.Poco::RefCountedObject.base" = type <{ ptr, %"class.Poco::AtomicCounter" }>
%"class.Poco::AtomicCounter" = type { %"struct.std::atomic.31" }
%"struct.std::atomic.31" = type { %"struct.std::__atomic_base.32" }
%"struct.std::__atomic_base.32" = type { i32 }
%"class.Poco::AutoPtr" = type { ptr }
%"class.Poco::LocalDateTime" = type <{ %"class.Poco::DateTime", i32, [4 x i8] }>
%"class.Poco::DateTime" = type { i64, i16, i16, i16, i16, i16, i16, i16, i16 }
%"struct.std::forward_iterator_tag" = type { i8 }
%"struct.std::random_access_iterator_tag" = type { i8 }
%"class.std::_Sp_counted_base" = type { ptr, i32, i32 }
%"class.__gnu_cxx::__normal_iterator" = type { ptr }
%"struct.std::integral_constant" = type { i8 }
%class.anon.34 = type { i8 }
%"struct.std::__invoke_other" = type { i8 }
%"class.std::allocator.36" = type { i8 }
%"struct.std::_Sp_alloc_shared_tag" = type { ptr }
%"class.std::allocator.39" = type { i8 }
%"struct.std::__allocated_ptr" = type { ptr, ptr }
%"class.std::_Sp_counted_ptr_inplace" = type { %"class.std::_Sp_counted_base", %"class.std::_Sp_counted_ptr_inplace<TerminatingPoll, std::allocator<TerminatingPoll>, __gnu_cxx::_S_atomic>::_Impl" }
%"class.std::_Sp_counted_ptr_inplace<TerminatingPoll, std::allocator<TerminatingPoll>, __gnu_cxx::_S_atomic>::_Impl" = type { %"struct.__gnu_cxx::__aligned_buffer" }
%"struct.__gnu_cxx::__aligned_buffer" = type { %"union.std::aligned_storage<232, 8>::type" }
%"union.std::aligned_storage<232, 8>::type" = type { [232 x i8] }
%"class.std::type_info" = type { ptr, ptr }
%"struct.std::_Sp_alloc_shared_tag.46" = type { ptr }
%"class.std::allocator.47" = type { i8 }
%"struct.std::__allocated_ptr.50" = type { ptr, ptr }
%"class.std::_Sp_counted_ptr_inplace.51" = type { %"class.std::_Sp_counted_base", %"class.std::_Sp_counted_ptr_inplace<DelaySocket, std::allocator<DelaySocket>, __gnu_cxx::_S_atomic>::_Impl" }
%"class.std::_Sp_counted_ptr_inplace<DelaySocket, std::allocator<DelaySocket>, __gnu_cxx::_S_atomic>::_Impl" = type { %"struct.__gnu_cxx::__aligned_buffer.53" }
%"struct.__gnu_cxx::__aligned_buffer.53" = type { %"union.std::aligned_storage<120, 8>::type" }
%"union.std::aligned_storage<120, 8>::type" = type { [120 x i8] }
%"struct.std::chrono::time_point" = type { %"struct.std::chrono::duration" }
%"struct.std::chrono::duration" = type { i64 }
%"class.__gnu_cxx::__normal_iterator.58" = type { ptr }
%"class.std::shared_ptr.26" = type { %"class.std::__shared_ptr.27" }
%"class.std::__shared_ptr.27" = type { ptr, %"class.std::__shared_count" }
%"class.__gnu_cxx::__normal_iterator.60" = type { ptr }
%"class.__gnu_cxx::__normal_iterator.59" = type { ptr }
%"struct.std::chrono::duration.61" = type { i64 }
%"class.__gnu_cxx::__normal_iterator.62" = type { ptr }
%"struct.DelaySocket::WriteChunk" = type { %"struct.std::chrono::time_point", %"class.std::vector.29" }
%"class.std::vector.29" = type { %"struct.std::_Vector_base.30" }
%"struct.std::_Vector_base.30" = type { %"struct.std::_Vector_base<char, std::allocator<char>>::_Vector_impl" }
%"struct.std::_Vector_base<char, std::allocator<char>>::_Vector_impl" = type { %"struct.std::_Vector_base<char, std::allocator<char>>::_Vector_impl_data" }
%"struct.std::_Vector_base<char, std::allocator<char>>::_Vector_impl_data" = type { ptr, ptr, ptr }
%"class.std::allocator.63" = type { i8 }
%"struct.std::__false_type" = type { i8 }
%class.SocketDisposition = type { i32, %"class.std::function.56", ptr, %"class.std::shared_ptr" }
%"class.std::function.56" = type { %"class.std::_Function_base", ptr }
%"class.std::_Function_base" = type { %"union.std::_Any_data", ptr }
%"union.std::_Any_data" = type { %"union.std::_Nocopy_types" }
%"union.std::_Nocopy_types" = type { { i64, i64 } }
%"struct.std::_Sp_alloc_shared_tag.66" = type { ptr }
%"class.std::allocator.67" = type { i8 }
%"struct.std::__allocated_ptr.70" = type { ptr, ptr }
%"class.std::_Sp_counted_ptr_inplace.71" = type { %"class.std::_Sp_counted_base", %"class.std::_Sp_counted_ptr_inplace<DelaySocket::WriteChunk, std::allocator<DelaySocket::WriteChunk>, __gnu_cxx::_S_atomic>::_Impl" }
%"class.std::_Sp_counted_ptr_inplace<DelaySocket::WriteChunk, std::allocator<DelaySocket::WriteChunk>, __gnu_cxx::_S_atomic>::_Impl" = type { %"struct.__gnu_cxx::__aligned_buffer.73" }
%"struct.__gnu_cxx::__aligned_buffer.73" = type { %"union.std::aligned_storage<32, 8>::type" }
%"union.std::aligned_storage<32, 8>::type" = type { [32 x i8] }
%"class.std::move_iterator" = type { ptr }

$_ZN3Log11_end_markerC2Ev = comdat any

$_ZNSt10shared_ptrI15TerminatingPollED2Ev = comdat any

$_ZNSt12__shared_ptrI15TerminatingPollLN9__gnu_cxx12_Lock_policyE2EE5resetEv = comdat any

$_ZNSt10shared_ptrI15TerminatingPollEC2ERKS1_ = comdat any

$_ZNKSt12__shared_ptrI15TerminatingPollLN9__gnu_cxx12_Lock_policyE2EEcvbEv = comdat any

$_ZNKSt19__shared_ptr_accessI15TerminatingPollLN9__gnu_cxx12_Lock_policyE2ELb0ELb0EEptEv = comdat any

$_ZNK10SocketPoll7isAliveEv = comdat any

$_ZSt11make_sharedI11DelaySocketJRiS1_EESt10shared_ptrIT_EDpOT0_ = comdat any

$_ZNKSt19__shared_ptr_accessI11DelaySocketLN9__gnu_cxx12_Lock_policyE2ELb0ELb0EEptEv = comdat any

$_ZN11DelaySocket14setDestinationERKSt10shared_ptrIS_E = comdat any

$_ZN10SocketPoll15insertNewSocketESt10shared_ptrI6SocketE = comdat any

$_ZNSt10shared_ptrI6SocketEC2I11DelaySocketvEERKS_IT_E = comdat any

$_ZNSt10shared_ptrI6SocketED2Ev = comdat any

$_ZN3Log16isShutdownCalledEv = comdat any

$_ZNK4Poco6Logger5traceEv = comdat any

$_ZN3Log6prefixILi1023EEEPcS1_PKc = comdat any

$_ZNSt7__cxx1112basic_stringIcSt11char_traitsIcESaIcEEC2IS3_EEPKcRKS3_ = comdat any

$_ZSt9boolalphaRSt8ios_base = comdat any

$_ZNK4Poco6Logger4nameB5cxx11Ev = comdat any

$_ZNSt10shared_ptrI11DelaySocketED2Ev = comdat any

$_ZNK4Poco6Logger5errorEv = comdat any

$_ZNSt14__shared_countILN9__gnu_cxx12_Lock_policyE2EED2Ev = comdat any

$_ZNSt16_Sp_counted_baseILN9__gnu_cxx12_Lock_policyE2EE10_M_releaseEv = comdat any

$__clang_call_terminate = comdat any

$_ZNSt12__shared_ptrI15TerminatingPollLN9__gnu_cxx12_Lock_policyE2EEC2ERKS3_ = comdat any

$_ZNSt14__shared_countILN9__gnu_cxx12_Lock_policyE2EEC2ERKS2_ = comdat any

$_ZNSt16_Sp_counted_baseILN9__gnu_cxx12_Lock_policyE2EE15_M_add_ref_copyEv = comdat any

$_ZNKSt13__atomic_baseIlEcvlEv = comdat any

$_ZNKSt6atomicIbEcvbEv = comdat any

$_ZStanSt12memory_orderSt23__memory_order_modifier = comdat any

$_ZNSt10shared_ptrI11DelaySocketEaSERKS1_ = comdat any

$_ZNSt12__shared_ptrI11DelaySocketLN9__gnu_cxx12_Lock_policyE2EEaSERKS3_ = comdat any

$_ZNSt14__shared_countILN9__gnu_cxx12_Lock_policyE2EEaSERKS2_ = comdat any

$_ZNKSt12__shared_ptrI6SocketLN9__gnu_cxx12_Lock_policyE2EEcvbEv = comdat any

$_ZNK4Poco6Logger5debugEv = comdat any

$_ZNKSt19__shared_ptr_accessI6SocketLN9__gnu_cxx12_Lock_policyE2ELb0ELb0EEptEv = comdat any

$_ZNK6Socket5getFDEv = comdat any

$_ZN6Socket16resetThreadOwnerEv = comdat any

$_ZNSt10lock_guardISt5mutexEC2ERS0_ = comdat any

$_ZNSt6vectorISt10shared_ptrI6SocketESaIS2_EE12emplace_backIJS2_EEERS2_DpOT_ = comdat any

$_ZN10SocketPoll6wakeupEv = comdat any

$_ZNSt10lock_guardISt5mutexED2Ev = comdat any

$_ZNKSt19__shared_ptr_accessI6SocketLN9__gnu_cxx12_Lock_policyE2ELb0ELb0EE6_M_getEv = comdat any

$_ZNKSt12__shared_ptrI6SocketLN9__gnu_cxx12_Lock_policyE2EE3getEv = comdat any

$_ZStneNSt6thread2idES0_ = comdat any

$_ZNSt6thread2idC2Ev = comdat any

$_ZN3Log9to_stringB5cxx11ERKNSt6thread2idE = comdat any

$_ZSteqNSt6thread2idES0_ = comdat any

$_ZStlsIcSt11char_traitsIcEERSt13basic_ostreamIT_T0_ES6_NSt6thread2idE = comdat any

$_ZSt3hexRSt8ios_base = comdat any

$_ZNSt8ios_base4setfESt13_Ios_FmtflagsS0_ = comdat any

$_ZStaNRSt13_Ios_FmtflagsS_ = comdat any

$_ZStcoSt13_Ios_Fmtflags = comdat any

$_ZStoRRSt13_Ios_FmtflagsS_ = comdat any

$_ZStanSt13_Ios_FmtflagsS_ = comdat any

$_ZStorSt13_Ios_FmtflagsS_ = comdat any

$_ZNSt5mutex4lockEv = comdat any

$_ZNSt16allocator_traitsISaISt10shared_ptrI6SocketEEE9constructIS2_JS2_EEEvRS3_PT_DpOT0_ = comdat any

$_ZNSt6vectorISt10shared_ptrI6SocketESaIS2_EE17_M_realloc_insertIJS2_EEEvN9__gnu_cxx17__normal_iteratorIPS2_S4_EEDpOT_ = comdat any

$_ZNSt6vectorISt10shared_ptrI6SocketESaIS2_EE3endEv = comdat any

$_ZNSt6vectorISt10shared_ptrI6SocketESaIS2_EE4backEv = comdat any

$_ZN9__gnu_cxx13new_allocatorISt10shared_ptrI6SocketEE9constructIS3_JS3_EEEvPT_DpOT0_ = comdat any

$_ZNSt10shared_ptrI6SocketEC2EOS1_ = comdat any

$_ZNSt12__shared_ptrI6SocketLN9__gnu_cxx12_Lock_policyE2EEC2EOS3_ = comdat any

$_ZNSt14__shared_countILN9__gnu_cxx12_Lock_policyE2EEC2Ev = comdat any

$_ZNSt14__shared_countILN9__gnu_cxx12_Lock_policyE2EE7_M_swapERS2_ = comdat any

$_ZNKSt6vectorISt10shared_ptrI6SocketESaIS2_EE12_M_check_lenEmPKc = comdat any

$_ZN9__gnu_cxxmiIPSt10shared_ptrI6SocketESt6vectorIS3_SaIS3_EEEENS_17__normal_iteratorIT_T0_E15difference_typeERKSB_SE_ = comdat any

$_ZNSt6vectorISt10shared_ptrI6SocketESaIS2_EE5beginEv = comdat any

$_ZNSt12_Vector_baseISt10shared_ptrI6SocketESaIS2_EE11_M_allocateEm = comdat any

$_ZNSt6vectorISt10shared_ptrI6SocketESaIS2_EE11_S_relocateEPS2_S5_S5_RS3_ = comdat any

$_ZNK9__gnu_cxx17__normal_iteratorIPSt10shared_ptrI6SocketESt6vectorIS3_SaIS3_EEE4baseEv = comdat any

$_ZNSt12_Vector_baseISt10shared_ptrI6SocketESaIS2_EE19_M_get_Tp_allocatorEv = comdat any

$_ZNSt12_Vector_baseISt10shared_ptrI6SocketESaIS2_EE13_M_deallocateEPS2_m = comdat any

$_ZNKSt6vectorISt10shared_ptrI6SocketESaIS2_EE8max_sizeEv = comdat any

$_ZNKSt6vectorISt10shared_ptrI6SocketESaIS2_EE4sizeEv = comdat any

$_ZSt3maxImERKT_S2_S2_ = comdat any

$_ZNSt6vectorISt10shared_ptrI6SocketESaIS2_EE11_S_max_sizeERKS3_ = comdat any

$_ZNKSt12_Vector_baseISt10shared_ptrI6SocketESaIS2_EE19_M_get_Tp_allocatorEv = comdat any

$_ZNSt16allocator_traitsISaISt10shared_ptrI6SocketEEE8max_sizeERKS3_ = comdat any

$_ZSt3minImERKT_S2_S2_ = comdat any

$_ZNK9__gnu_cxx13new_allocatorISt10shared_ptrI6SocketEE8max_sizeEv = comdat any

$_ZNK9__gnu_cxx13new_allocatorISt10shared_ptrI6SocketEE11_M_max_sizeEv = comdat any

$_ZN9__gnu_cxx17__normal_iteratorIPSt10shared_ptrI6SocketESt6vectorIS3_SaIS3_EEEC2ERKS4_ = comdat any

$_ZNSt16allocator_traitsISaISt10shared_ptrI6SocketEEE8allocateERS3_m = comdat any

$_ZN9__gnu_cxx13new_allocatorISt10shared_ptrI6SocketEE8allocateEmPKv = comdat any

$_ZNSt6vectorISt10shared_ptrI6SocketESaIS2_EE14_S_do_relocateEPS2_S5_S5_RS3_St17integral_constantIbLb1EE = comdat any

$_ZSt12__relocate_aIPSt10shared_ptrI6SocketES3_SaIS2_EET0_T_S6_S5_RT1_ = comdat any

$_ZSt14__relocate_a_1IPSt10shared_ptrI6SocketES3_SaIS2_EET0_T_S6_S5_RT1_ = comdat any

$_ZSt12__niter_baseIPSt10shared_ptrI6SocketEET_S4_ = comdat any

$_ZSt19__relocate_object_aISt10shared_ptrI6SocketES2_SaIS2_EEvPT_PT0_RT1_ = comdat any

$_ZNSt16allocator_traitsISaISt10shared_ptrI6SocketEEE7destroyIS2_EEvRS3_PT_ = comdat any

$_ZN9__gnu_cxx13new_allocatorISt10shared_ptrI6SocketEE7destroyIS3_EEvPT_ = comdat any

$_ZNSt16allocator_traitsISaISt10shared_ptrI6SocketEEE10deallocateERS3_PS2_m = comdat any

$_ZN9__gnu_cxx13new_allocatorISt10shared_ptrI6SocketEE10deallocateEPS3_m = comdat any

$_ZNK9__gnu_cxx17__normal_iteratorIPSt10shared_ptrI6SocketESt6vectorIS3_SaIS3_EEEmiEl = comdat any

$_ZNK9__gnu_cxx17__normal_iteratorIPSt10shared_ptrI6SocketESt6vectorIS3_SaIS3_EEEdeEv = comdat any

$_ZNK4Poco6Logger7warningEv = comdat any

$_ZN10SocketPoll6wakeupEi = comdat any

$_ZN4Util13symbolicErrnoB5cxx11Ei = comdat any

$_ZNSt7__cxx119to_stringEi = comdat any

$_ZNSt8__detail14__to_chars_lenIjEEjT_i = comdat any

$_ZNSt7__cxx1112basic_stringIcSt11char_traitsIcESaIcEEC2IS3_EEmcRKS3_ = comdat any

$_ZNSt8__detail18__to_chars_10_implIjEEvPcjT_ = comdat any

$_ZNSt7__cxx1112basic_stringIcSt11char_traitsIcESaIcEE12_Alloc_hiderD2Ev = comdat any

$_ZNSt5mutex6unlockEv = comdat any

$_ZNSt12__shared_ptrI6SocketLN9__gnu_cxx12_Lock_policyE2EED2Ev = comdat any

$_ZNSt8ios_base4setfESt13_Ios_Fmtflags = comdat any

$_ZNSt11char_traitsIcE6lengthEPKc = comdat any

$_ZNSt7__cxx1112basic_stringIcSt11char_traitsIcESaIcEE12_M_constructIPKcEEvT_S8_St20forward_iterator_tag = comdat any

$_ZN9__gnu_cxx11char_traitsIcE6lengthEPKc = comdat any

$_ZN9__gnu_cxx11char_traitsIcE2eqERKcS3_ = comdat any

$_ZN9__gnu_cxx17__is_null_pointerIKcEEbPT_ = comdat any

$_ZSt8distanceIPKcENSt15iterator_traitsIT_E15difference_typeES3_S3_ = comdat any

$_ZSt10__distanceIPKcENSt15iterator_traitsIT_E15difference_typeES3_S3_St26random_access_iterator_tag = comdat any

$_ZSt19__iterator_categoryIPKcENSt15iterator_traitsIT_E17iterator_categoryERKS3_ = comdat any

$_ZNKSt19__shared_ptr_accessI11DelaySocketLN9__gnu_cxx12_Lock_policyE2ELb0ELb0EE6_M_getEv = comdat any

$_ZNKSt12__shared_ptrI11DelaySocketLN9__gnu_cxx12_Lock_policyE2EE3getEv = comdat any

$_ZNKSt19__shared_ptr_accessI15TerminatingPollLN9__gnu_cxx12_Lock_policyE2ELb0ELb0EE6_M_getEv = comdat any

$_ZNKSt12__shared_ptrI15TerminatingPollLN9__gnu_cxx12_Lock_policyE2EE3getEv = comdat any

$_ZNSt9once_flag18_Prepare_executionD2Ev = comdat any

$_ZSt11make_sharedI15TerminatingPollJRA11_KcEESt10shared_ptrIT_EDpOT0_ = comdat any

$_ZNSt10shared_ptrI15TerminatingPollEaSEOS1_ = comdat any

$_ZSt15allocate_sharedI15TerminatingPollSaIS0_EJRA11_KcEESt10shared_ptrIT_ERKT0_DpOT1_ = comdat any

$_ZNSaI15TerminatingPollEC2Ev = comdat any

$_ZNSaI15TerminatingPollED2Ev = comdat any

$_ZNSt10shared_ptrI15TerminatingPollEC2ISaIS0_EJRA11_KcEEESt20_Sp_alloc_shared_tagIT_EDpOT0_ = comdat any

$_ZNSt12__shared_ptrI15TerminatingPollLN9__gnu_cxx12_Lock_policyE2EEC2ISaIS0_EJRA11_KcEEESt20_Sp_alloc_shared_tagIT_EDpOT0_ = comdat any

$_ZNSt14__shared_countILN9__gnu_cxx12_Lock_policyE2EEC2I15TerminatingPollSaIS4_EJRA11_KcEEERPT_St20_Sp_alloc_shared_tagIT0_EDpOT1_ = comdat any

$_ZNSt12__shared_ptrI15TerminatingPollLN9__gnu_cxx12_Lock_policyE2EE31_M_enable_shared_from_this_withIS0_S0_EENSt9enable_ifIXntsr15__has_esft_baseIT0_EE5valueEvE4typeEPT_ = comdat any

$_ZNSaISt23_Sp_counted_ptr_inplaceI15TerminatingPollSaIS0_ELN9__gnu_cxx12_Lock_policyE2EEEC2IS0_EERKSaIT_E = comdat any

$_ZSt18__allocate_guardedISaISt23_Sp_counted_ptr_inplaceI15TerminatingPollSaIS1_ELN9__gnu_cxx12_Lock_policyE2EEEESt15__allocated_ptrIT_ERS8_ = comdat any

$_ZNSt15__allocated_ptrISaISt23_Sp_counted_ptr_inplaceI15TerminatingPollSaIS1_ELN9__gnu_cxx12_Lock_policyE2EEEE3getEv = comdat any

$_ZNSaI15TerminatingPollEC2ERKS0_ = comdat any

$_ZNSt23_Sp_counted_ptr_inplaceI15TerminatingPollSaIS0_ELN9__gnu_cxx12_Lock_policyE2EEC2IJRA11_KcEEES1_DpOT_ = comdat any

$_ZNSt15__allocated_ptrISaISt23_Sp_counted_ptr_inplaceI15TerminatingPollSaIS1_ELN9__gnu_cxx12_Lock_policyE2EEEEaSEDn = comdat any

$_ZNSt23_Sp_counted_ptr_inplaceI15TerminatingPollSaIS0_ELN9__gnu_cxx12_Lock_policyE2EE6_M_ptrEv = comdat any

$_ZNSt15__allocated_ptrISaISt23_Sp_counted_ptr_inplaceI15TerminatingPollSaIS1_ELN9__gnu_cxx12_Lock_policyE2EEEED2Ev = comdat any

$_ZNSaISt23_Sp_counted_ptr_inplaceI15TerminatingPollSaIS0_ELN9__gnu_cxx12_Lock_policyE2EEED2Ev = comdat any

$_ZN9__gnu_cxx13new_allocatorISt23_Sp_counted_ptr_inplaceI15TerminatingPollSaIS2_ELNS_12_Lock_policyE2EEEC2Ev = comdat any

$_ZNSt16allocator_traitsISaISt23_Sp_counted_ptr_inplaceI15TerminatingPollSaIS1_ELN9__gnu_cxx12_Lock_policyE2EEEE8allocateERS6_m = comdat any

$_ZNSt15__allocated_ptrISaISt23_Sp_counted_ptr_inplaceI15TerminatingPollSaIS1_ELN9__gnu_cxx12_Lock_policyE2EEEEC2ERS6_PS5_ = comdat any

$_ZN9__gnu_cxx13new_allocatorISt23_Sp_counted_ptr_inplaceI15TerminatingPollSaIS2_ELNS_12_Lock_policyE2EEE8allocateEmPKv = comdat any

$_ZNK9__gnu_cxx13new_allocatorISt23_Sp_counted_ptr_inplaceI15TerminatingPollSaIS2_ELNS_12_Lock_policyE2EEE11_M_max_sizeEv = comdat any

$_ZSt12__to_addressISt23_Sp_counted_ptr_inplaceI15TerminatingPollSaIS1_ELN9__gnu_cxx12_Lock_policyE2EEEPT_S7_ = comdat any

$_ZN9__gnu_cxx13new_allocatorI15TerminatingPollEC2ERKS2_ = comdat any

$_ZNSt16_Sp_counted_baseILN9__gnu_cxx12_Lock_policyE2EEC2Ev = comdat any

$_ZNSt23_Sp_counted_ptr_inplaceI15TerminatingPollSaIS0_ELN9__gnu_cxx12_Lock_policyE2EE5_ImplC2ES1_ = comdat any

$_ZNSt16allocator_traitsISaI15TerminatingPollEE9constructIS0_JRA11_KcEEEvRS1_PT_DpOT0_ = comdat any

$_ZNSt23_Sp_counted_ptr_inplaceI15TerminatingPollSaIS0_ELN9__gnu_cxx12_Lock_policyE2EE5_ImplD2Ev = comdat any

$_ZNSt23_Sp_counted_ptr_inplaceI15TerminatingPollSaIS0_ELN9__gnu_cxx12_Lock_policyE2EED2Ev = comdat any

$_ZNSt23_Sp_counted_ptr_inplaceI15TerminatingPollSaIS0_ELN9__gnu_cxx12_Lock_policyE2EED0Ev = comdat any

$_ZNSt23_Sp_counted_ptr_inplaceI15TerminatingPollSaIS0_ELN9__gnu_cxx12_Lock_policyE2EE10_M_disposeEv = comdat any

$_ZNSt23_Sp_counted_ptr_inplaceI15TerminatingPollSaIS0_ELN9__gnu_cxx12_Lock_policyE2EE10_M_destroyEv = comdat any

$_ZNSt23_Sp_counted_ptr_inplaceI15TerminatingPollSaIS0_ELN9__gnu_cxx12_Lock_policyE2EE14_M_get_deleterERKSt9type_info = comdat any

$_ZNSt16_Sp_counted_baseILN9__gnu_cxx12_Lock_policyE2EED2Ev = comdat any

$_ZNSt16_Sp_counted_baseILN9__gnu_cxx12_Lock_policyE2EED0Ev = comdat any

$_ZNSt16_Sp_counted_baseILN9__gnu_cxx12_Lock_policyE2EE10_M_destroyEv = comdat any

$_ZNSt14_Sp_ebo_helperILi0ESaI15TerminatingPollELb1EEC2ERKS1_ = comdat any

$_ZN9__gnu_cxx13new_allocatorI15TerminatingPollE9constructIS1_JRA11_KcEEEvPT_DpOT0_ = comdat any

$_ZN15TerminatingPollC2ERKNSt7__cxx1112basic_stringIcSt11char_traitsIcESaIcEEE = comdat any

$_ZN15TerminatingPollD2Ev = comdat any

$_ZN15TerminatingPollD0Ev = comdat any

$_ZN15TerminatingPoll15continuePollingEv = comdat any

$_ZN10SocketPoll10wakeupHookEv = comdat any

$_ZN10SocketPoll13pollingThreadEv = comdat any

$_ZN10SocketPoll15continuePollingEv = comdat any

$_ZN10SocketPoll4pollENSt6chrono8durationIlSt5ratioILl1ELl1000000EEEE = comdat any

$_ZNKSt6chrono8durationIlSt5ratioILl1ELl1000000EEE5countEv = comdat any

$_ZNSt14_Sp_ebo_helperILi0ESaI15TerminatingPollELb1EED2Ev = comdat any

$_ZN9__gnu_cxx13new_allocatorI15TerminatingPollED2Ev = comdat any

$_ZNSt16allocator_traitsISaI15TerminatingPollEE7destroyIS0_EEvRS1_PT_ = comdat any

$_ZNSt23_Sp_counted_ptr_inplaceI15TerminatingPollSaIS0_ELN9__gnu_cxx12_Lock_policyE2EE5_Impl8_M_allocEv = comdat any

$_ZN9__gnu_cxx13new_allocatorI15TerminatingPollE7destroyIS1_EEvPT_ = comdat any

$_ZNSt14_Sp_ebo_helperILi0ESaI15TerminatingPollELb1EE6_S_getERS2_ = comdat any

$_ZNSt19_Sp_make_shared_tag5_S_tiEv = comdat any

$_ZNKSt9type_infoeqERKS_ = comdat any

$_ZN9__gnu_cxx16__aligned_bufferI15TerminatingPollE6_M_ptrEv = comdat any

$_ZN9__gnu_cxx16__aligned_bufferI15TerminatingPollE7_M_addrEv = comdat any

$_ZNSt16allocator_traitsISaISt23_Sp_counted_ptr_inplaceI15TerminatingPollSaIS1_ELN9__gnu_cxx12_Lock_policyE2EEEE10deallocateERS6_PS5_m = comdat any

$_ZN9__gnu_cxx13new_allocatorISt23_Sp_counted_ptr_inplaceI15TerminatingPollSaIS2_ELNS_12_Lock_policyE2EEE10deallocateEPS5_m = comdat any

$_ZN9__gnu_cxx13new_allocatorISt23_Sp_counted_ptr_inplaceI15TerminatingPollSaIS2_ELNS_12_Lock_policyE2EEED2Ev = comdat any

$_ZN9__gnu_cxx13new_allocatorI15TerminatingPollEC2Ev = comdat any

$_ZNSt12__shared_ptrI15TerminatingPollLN9__gnu_cxx12_Lock_policyE2EEaSEOS3_ = comdat any

$_ZNSt12__shared_ptrI15TerminatingPollLN9__gnu_cxx12_Lock_policyE2EEC2EOS3_ = comdat any

$_ZNSt12__shared_ptrI15TerminatingPollLN9__gnu_cxx12_Lock_policyE2EE4swapERS3_ = comdat any

$_ZNSt12__shared_ptrI15TerminatingPollLN9__gnu_cxx12_Lock_policyE2EED2Ev = comdat any

$_ZSt4swapIP15TerminatingPollENSt9enable_ifIXsr6__and_ISt6__not_ISt15__is_tuple_likeIT_EESt21is_move_constructibleIS5_ESt18is_move_assignableIS5_EEE5valueEvE4typeERS5_SE_ = comdat any

$_ZNSt12__shared_ptrI15TerminatingPollLN9__gnu_cxx12_Lock_policyE2EEC2Ev = comdat any

$_ZSt15allocate_sharedI11DelaySocketSaIS0_EJRiS2_EESt10shared_ptrIT_ERKT0_DpOT1_ = comdat any

$_ZNSaI11DelaySocketEC2Ev = comdat any

$_ZNSaI11DelaySocketED2Ev = comdat any

$_ZNSt10shared_ptrI11DelaySocketEC2ISaIS0_EJRiS4_EEESt20_Sp_alloc_shared_tagIT_EDpOT0_ = comdat any

$_ZNSt12__shared_ptrI11DelaySocketLN9__gnu_cxx12_Lock_policyE2EEC2ISaIS0_EJRiS6_EEESt20_Sp_alloc_shared_tagIT_EDpOT0_ = comdat any

$_ZNSt14__shared_countILN9__gnu_cxx12_Lock_policyE2EEC2I11DelaySocketSaIS4_EJRiS6_EEERPT_St20_Sp_alloc_shared_tagIT0_EDpOT1_ = comdat any

$_ZNSt12__shared_ptrI11DelaySocketLN9__gnu_cxx12_Lock_policyE2EE31_M_enable_shared_from_this_withIS0_S0_EENSt9enable_ifIXntsr15__has_esft_baseIT0_EE5valueEvE4typeEPT_ = comdat any

$_ZNSaISt23_Sp_counted_ptr_inplaceI11DelaySocketSaIS0_ELN9__gnu_cxx12_Lock_policyE2EEEC2IS0_EERKSaIT_E = comdat any

$_ZSt18__allocate_guardedISaISt23_Sp_counted_ptr_inplaceI11DelaySocketSaIS1_ELN9__gnu_cxx12_Lock_policyE2EEEESt15__allocated_ptrIT_ERS8_ = comdat any

$_ZNSt15__allocated_ptrISaISt23_Sp_counted_ptr_inplaceI11DelaySocketSaIS1_ELN9__gnu_cxx12_Lock_policyE2EEEE3getEv = comdat any

$_ZNSaI11DelaySocketEC2ERKS0_ = comdat any

$_ZNSt23_Sp_counted_ptr_inplaceI11DelaySocketSaIS0_ELN9__gnu_cxx12_Lock_policyE2EEC2IJRiS6_EEES1_DpOT_ = comdat any

$_ZNSt15__allocated_ptrISaISt23_Sp_counted_ptr_inplaceI11DelaySocketSaIS1_ELN9__gnu_cxx12_Lock_policyE2EEEEaSEDn = comdat any

$_ZNSt23_Sp_counted_ptr_inplaceI11DelaySocketSaIS0_ELN9__gnu_cxx12_Lock_policyE2EE6_M_ptrEv = comdat any

$_ZNSt15__allocated_ptrISaISt23_Sp_counted_ptr_inplaceI11DelaySocketSaIS1_ELN9__gnu_cxx12_Lock_policyE2EEEED2Ev = comdat any

$_ZNSaISt23_Sp_counted_ptr_inplaceI11DelaySocketSaIS0_ELN9__gnu_cxx12_Lock_policyE2EEED2Ev = comdat any

$_ZN9__gnu_cxx13new_allocatorISt23_Sp_counted_ptr_inplaceI11DelaySocketSaIS2_ELNS_12_Lock_policyE2EEEC2Ev = comdat any

$_ZNSt16allocator_traitsISaISt23_Sp_counted_ptr_inplaceI11DelaySocketSaIS1_ELN9__gnu_cxx12_Lock_policyE2EEEE8allocateERS6_m = comdat any

$_ZNSt15__allocated_ptrISaISt23_Sp_counted_ptr_inplaceI11DelaySocketSaIS1_ELN9__gnu_cxx12_Lock_policyE2EEEEC2ERS6_PS5_ = comdat any

$_ZN9__gnu_cxx13new_allocatorISt23_Sp_counted_ptr_inplaceI11DelaySocketSaIS2_ELNS_12_Lock_policyE2EEE8allocateEmPKv = comdat any

$_ZNK9__gnu_cxx13new_allocatorISt23_Sp_counted_ptr_inplaceI11DelaySocketSaIS2_ELNS_12_Lock_policyE2EEE11_M_max_sizeEv = comdat any

$_ZSt12__to_addressISt23_Sp_counted_ptr_inplaceI11DelaySocketSaIS1_ELN9__gnu_cxx12_Lock_policyE2EEEPT_S7_ = comdat any

$_ZN9__gnu_cxx13new_allocatorI11DelaySocketEC2ERKS2_ = comdat any

$_ZNSt23_Sp_counted_ptr_inplaceI11DelaySocketSaIS0_ELN9__gnu_cxx12_Lock_policyE2EE5_ImplC2ES1_ = comdat any

$_ZNSt16allocator_traitsISaI11DelaySocketEE9constructIS0_JRiS4_EEEvRS1_PT_DpOT0_ = comdat any

$_ZNSt23_Sp_counted_ptr_inplaceI11DelaySocketSaIS0_ELN9__gnu_cxx12_Lock_policyE2EE5_ImplD2Ev = comdat any

$_ZNSt23_Sp_counted_ptr_inplaceI11DelaySocketSaIS0_ELN9__gnu_cxx12_Lock_policyE2EED2Ev = comdat any

$_ZNSt23_Sp_counted_ptr_inplaceI11DelaySocketSaIS0_ELN9__gnu_cxx12_Lock_policyE2EED0Ev = comdat any

$_ZNSt23_Sp_counted_ptr_inplaceI11DelaySocketSaIS0_ELN9__gnu_cxx12_Lock_policyE2EE10_M_disposeEv = comdat any

$_ZNSt23_Sp_counted_ptr_inplaceI11DelaySocketSaIS0_ELN9__gnu_cxx12_Lock_policyE2EE10_M_destroyEv = comdat any

$_ZNSt23_Sp_counted_ptr_inplaceI11DelaySocketSaIS0_ELN9__gnu_cxx12_Lock_policyE2EE14_M_get_deleterERKSt9type_info = comdat any

$_ZNSt14_Sp_ebo_helperILi0ESaI11DelaySocketELb1EEC2ERKS1_ = comdat any

$_ZN9__gnu_cxx13new_allocatorI11DelaySocketE9constructIS1_JRiS4_EEEvPT_DpOT0_ = comdat any

$_ZN11DelaySocketC2Eii = comdat any

$_ZN6SocketC2Ei = comdat any

$_ZNSt10shared_ptrI11DelaySocketEC2Ev = comdat any

$_ZNSt6vectorISt10shared_ptrIN11DelaySocket10WriteChunkEESaIS3_EEC2Ev = comdat any

$_ZN11DelaySocketD2Ev = comdat any

$_ZN11DelaySocketD0Ev = comdat any

$_ZN6Socket8shutdownEv = comdat any

$_ZN11DelaySocket13getPollEventsENSt6chrono10time_pointINS0_3_V212steady_clockENS0_8durationIlSt5ratioILl1ELl1000000000EEEEEERl = comdat any

$_ZN11DelaySocket10handlePollER17SocketDispositionNSt6chrono10time_pointINS2_3_V212steady_clockENS2_8durationIlSt5ratioILl1ELl1000000000EEEEEEi = comdat any

$_ZNK6Socket11hasBufferedEv = comdat any

$_ZN11DelaySocket9dumpStateERSo = comdat any

$_ZN6Socket11ignoreInputEv = comdat any

$_ZN6Socket4initEv = comdat any

$_ZN6SocketD2Ev = comdat any

$_ZN6SocketD0Ev = comdat any

$_ZN6Socket9dumpStateERSo = comdat any

$_ZN6Socket10setNoDelayEv = comdat any

$_ZNSt11this_thread6get_idEv = comdat any

$_ZNSt6thread2idC2Em = comdat any

$_ZNSt12__shared_ptrI11DelaySocketLN9__gnu_cxx12_Lock_policyE2EEC2Ev = comdat any

$_ZNSt12_Vector_baseISt10shared_ptrIN11DelaySocket10WriteChunkEESaIS3_EEC2Ev = comdat any

$_ZNSt12_Vector_baseISt10shared_ptrIN11DelaySocket10WriteChunkEESaIS3_EE12_Vector_implC2Ev = comdat any

$_ZNSaISt10shared_ptrIN11DelaySocket10WriteChunkEEEC2Ev = comdat any

$_ZNSt12_Vector_baseISt10shared_ptrIN11DelaySocket10WriteChunkEESaIS3_EE17_Vector_impl_dataC2Ev = comdat any

$_ZN9__gnu_cxx13new_allocatorISt10shared_ptrIN11DelaySocket10WriteChunkEEEC2Ev = comdat any

$_ZNSt6vectorISt10shared_ptrIN11DelaySocket10WriteChunkEESaIS3_EED2Ev = comdat any

$_ZSt8_DestroyIPSt10shared_ptrIN11DelaySocket10WriteChunkEES3_EvT_S5_RSaIT0_E = comdat any

$_ZNSt12_Vector_baseISt10shared_ptrIN11DelaySocket10WriteChunkEESaIS3_EE19_M_get_Tp_allocatorEv = comdat any

$_ZNSt12_Vector_baseISt10shared_ptrIN11DelaySocket10WriteChunkEESaIS3_EED2Ev = comdat any

$_ZSt8_DestroyIPSt10shared_ptrIN11DelaySocket10WriteChunkEEEvT_S5_ = comdat any

$_ZNSt12_Destroy_auxILb0EE9__destroyIPSt10shared_ptrIN11DelaySocket10WriteChunkEEEEvT_S7_ = comdat any

$_ZSt8_DestroyISt10shared_ptrIN11DelaySocket10WriteChunkEEEvPT_ = comdat any

$_ZNSt10shared_ptrIN11DelaySocket10WriteChunkEED2Ev = comdat any

$_ZNSt12_Vector_baseISt10shared_ptrIN11DelaySocket10WriteChunkEESaIS3_EE13_M_deallocateEPS3_m = comdat any

$_ZNSt12_Vector_baseISt10shared_ptrIN11DelaySocket10WriteChunkEESaIS3_EE12_Vector_implD2Ev = comdat any

$_ZNSt16allocator_traitsISaISt10shared_ptrIN11DelaySocket10WriteChunkEEEE10deallocateERS4_PS3_m = comdat any

$_ZN9__gnu_cxx13new_allocatorISt10shared_ptrIN11DelaySocket10WriteChunkEEE10deallocateEPS4_m = comdat any

$_ZNSaISt10shared_ptrIN11DelaySocket10WriteChunkEEED2Ev = comdat any

$_ZN9__gnu_cxx13new_allocatorISt10shared_ptrIN11DelaySocket10WriteChunkEEED2Ev = comdat any

$_ZNKSt6vectorISt10shared_ptrIN11DelaySocket10WriteChunkEESaIS3_EE4sizeEv = comdat any

$_ZNSt6chrono13duration_castINS_8durationIlSt5ratioILl1ELl1000000EEEElS2_ILl1ELl1000000000EEEENSt9enable_ifIXsr13__is_durationIT_EE5valueES7_E4typeERKNS1_IT0_T1_EE = comdat any

$_ZNSt6chronomiINS_3_V212steady_clockENS_8durationIlSt5ratioILl1ELl1000000000EEEES6_EENSt11common_typeIJT0_T1_EE4typeERKNS_10time_pointIT_S8_EERKNSC_ISD_S9_EE = comdat any

$_ZNSt6vectorISt10shared_ptrIN11DelaySocket10WriteChunkEESaIS3_EE5beginEv = comdat any

$_ZNK9__gnu_cxx17__normal_iteratorIPSt10shared_ptrIN11DelaySocket10WriteChunkEESt6vectorIS4_SaIS4_EEEdeEv = comdat any

$_ZNKSt19__shared_ptr_accessIN11DelaySocket10WriteChunkELN9__gnu_cxx12_Lock_policyE2ELb0ELb0EEptEv = comdat any

$_ZNK11DelaySocket10WriteChunk11getSendTimeEv = comdat any

$_ZSt3minIlERKT_S2_S2_ = comdat any

$_ZNSt6chronogtINS_3_V212steady_clockENS_8durationIlSt5ratioILl1ELl1000000000EEEES6_EEbRKNS_10time_pointIT_T0_EERKNS7_IS8_T1_EE = comdat any

$_ZNSt6chrono20__duration_cast_implINS_8durationIlSt5ratioILl1ELl1000000EEEES2_ILl1ELl1000EElLb1ELb0EE6__castIlS2_ILl1ELl1000000000EEEES4_RKNS1_IT_T0_EE = comdat any

$_ZNKSt6chrono8durationIlSt5ratioILl1ELl1000000000EEE5countEv = comdat any

$_ZNSt6chrono8durationIlSt5ratioILl1ELl1000000EEEC2IlvEERKT_ = comdat any

$_ZNSt6chronomiIlSt5ratioILl1ELl1000000000EElS2_EENSt11common_typeIJNS_8durationIT_T0_EENS4_IT1_T2_EEEE4typeERKS7_RKSA_ = comdat any

$_ZNKSt6chrono10time_pointINS_3_V212steady_clockENS_8durationIlSt5ratioILl1ELl1000000000EEEEE16time_since_epochEv = comdat any

$_ZNSt6chrono8durationIlSt5ratioILl1ELl1000000000EEEC2IlvEERKT_ = comdat any

$_ZN9__gnu_cxx17__normal_iteratorIPSt10shared_ptrIN11DelaySocket10WriteChunkEESt6vectorIS4_SaIS4_EEEC2ERKS5_ = comdat any

$_ZNKSt19__shared_ptr_accessIN11DelaySocket10WriteChunkELN9__gnu_cxx12_Lock_policyE2ELb0ELb0EE6_M_getEv = comdat any

$_ZNKSt12__shared_ptrIN11DelaySocket10WriteChunkELN9__gnu_cxx12_Lock_policyE2EE3getEv = comdat any

$_ZNSt6chronoltINS_3_V212steady_clockENS_8durationIlSt5ratioILl1ELl1000000000EEEES6_EEbRKNS_10time_pointIT_T0_EERKNS7_IS8_T1_EE = comdat any

$_ZNSt6chronoltIlSt5ratioILl1ELl1000000000EElS2_EEbRKNS_8durationIT_T0_EERKNS3_IT1_T2_EE = comdat any

$_ZSt11make_sharedIN11DelaySocket10WriteChunkEJRiEESt10shared_ptrIT_EDpOT0_ = comdat any

$_ZN11DelaySocket11changeStateENS_5StateE = comdat any

$_ZN11DelaySocket10WriteChunk7getDataEv = comdat any

$_ZNSt6vectorIcSaIcEE6insertIPcvEEN9__gnu_cxx17__normal_iteratorIS3_S1_EENS5_IPKcS1_EET_SA_ = comdat any

$_ZNSt6vectorIcSaIcEE3endEv = comdat any

$_ZN9__gnu_cxx17__normal_iteratorIPKcSt6vectorIcSaIcEEEC2IPcEERKNS0_IT_NS_11__enable_ifIXsr3std10__are_sameIS9_S8_EE7__valueES5_E6__typeEEE = comdat any

$_ZNKSt12__shared_ptrI11DelaySocketLN9__gnu_cxx12_Lock_policyE2EEcvbEv = comdat any

$_ZNSt6vectorISt10shared_ptrIN11DelaySocket10WriteChunkEESaIS3_EE9push_backERKS3_ = comdat any

$_ZNSt10shared_ptrIN11DelaySocket10WriteChunkEEC2ERKS2_ = comdat any

$_ZNSt6chrono13duration_castINS_8durationIlSt5ratioILl1ELl1000EEEElS2_ILl1ELl1000000000EEEENSt9enable_ifIXsr13__is_durationIT_EE5valueES7_E4typeERKNS1_IT0_T1_EE = comdat any

$_ZNKSt6chrono8durationIlSt5ratioILl1ELl1000EEE5countEv = comdat any

$_ZNKSt6vectorIcSaIcEE4sizeEv = comdat any

$_ZNSt6vectorIcSaIcEEixEm = comdat any

$_ZNSt6vectorIcSaIcEE5eraseEN9__gnu_cxx17__normal_iteratorIPKcS1_EES6_ = comdat any

$_ZNSt6vectorIcSaIcEE5beginEv = comdat any

$_ZNK9__gnu_cxx17__normal_iteratorIPcSt6vectorIcSaIcEEEplEl = comdat any

$_ZNSt6vectorISt10shared_ptrIN11DelaySocket10WriteChunkEESaIS3_EE5eraseEN9__gnu_cxx17__normal_iteratorIPKS3_S5_EESA_ = comdat any

$_ZN9__gnu_cxx17__normal_iteratorIPKSt10shared_ptrIN11DelaySocket10WriteChunkEESt6vectorIS4_SaIS4_EEEC2IPS4_EERKNS0_IT_NS_11__enable_ifIXsr3std10__are_sameISD_SC_EE7__valueES9_E6__typeEEE = comdat any

$_ZNK9__gnu_cxx17__normal_iteratorIPSt10shared_ptrIN11DelaySocket10WriteChunkEESt6vectorIS4_SaIS4_EEEplEl = comdat any

$_ZN17SocketDisposition9setClosedEv = comdat any

$_ZSt15allocate_sharedIN11DelaySocket10WriteChunkESaIS1_EJRiEESt10shared_ptrIT_ERKT0_DpOT1_ = comdat any

$_ZNSaIN11DelaySocket10WriteChunkEEC2Ev = comdat any

$_ZNSaIN11DelaySocket10WriteChunkEED2Ev = comdat any

$_ZNSt10shared_ptrIN11DelaySocket10WriteChunkEEC2ISaIS1_EJRiEEESt20_Sp_alloc_shared_tagIT_EDpOT0_ = comdat any

$_ZNSt12__shared_ptrIN11DelaySocket10WriteChunkELN9__gnu_cxx12_Lock_policyE2EEC2ISaIS1_EJRiEEESt20_Sp_alloc_shared_tagIT_EDpOT0_ = comdat any

$_ZNSt14__shared_countILN9__gnu_cxx12_Lock_policyE2EEC2IN11DelaySocket10WriteChunkESaIS5_EJRiEEERPT_St20_Sp_alloc_shared_tagIT0_EDpOT1_ = comdat any

$_ZNSt12__shared_ptrIN11DelaySocket10WriteChunkELN9__gnu_cxx12_Lock_policyE2EE31_M_enable_shared_from_this_withIS1_S1_EENSt9enable_ifIXntsr15__has_esft_baseIT0_EE5valueEvE4typeEPT_ = comdat any

$_ZNSaISt23_Sp_counted_ptr_inplaceIN11DelaySocket10WriteChunkESaIS1_ELN9__gnu_cxx12_Lock_policyE2EEEC2IS1_EERKSaIT_E = comdat any

$_ZSt18__allocate_guardedISaISt23_Sp_counted_ptr_inplaceIN11DelaySocket10WriteChunkESaIS2_ELN9__gnu_cxx12_Lock_policyE2EEEESt15__allocated_ptrIT_ERS9_ = comdat any

$_ZNSt15__allocated_ptrISaISt23_Sp_counted_ptr_inplaceIN11DelaySocket10WriteChunkESaIS2_ELN9__gnu_cxx12_Lock_policyE2EEEE3getEv = comdat any

$_ZNSaIN11DelaySocket10WriteChunkEEC2ERKS1_ = comdat any

$_ZNSt23_Sp_counted_ptr_inplaceIN11DelaySocket10WriteChunkESaIS1_ELN9__gnu_cxx12_Lock_policyE2EEC2IJRiEEES2_DpOT_ = comdat any

$_ZNSt15__allocated_ptrISaISt23_Sp_counted_ptr_inplaceIN11DelaySocket10WriteChunkESaIS2_ELN9__gnu_cxx12_Lock_policyE2EEEEaSEDn = comdat any

$_ZNSt23_Sp_counted_ptr_inplaceIN11DelaySocket10WriteChunkESaIS1_ELN9__gnu_cxx12_Lock_policyE2EE6_M_ptrEv = comdat any

$_ZNSt15__allocated_ptrISaISt23_Sp_counted_ptr_inplaceIN11DelaySocket10WriteChunkESaIS2_ELN9__gnu_cxx12_Lock_policyE2EEEED2Ev = comdat any

$_ZNSaISt23_Sp_counted_ptr_inplaceIN11DelaySocket10WriteChunkESaIS1_ELN9__gnu_cxx12_Lock_policyE2EEED2Ev = comdat any

$_ZN9__gnu_cxx13new_allocatorISt23_Sp_counted_ptr_inplaceIN11DelaySocket10WriteChunkESaIS3_ELNS_12_Lock_policyE2EEEC2Ev = comdat any

$_ZNSt16allocator_traitsISaISt23_Sp_counted_ptr_inplaceIN11DelaySocket10WriteChunkESaIS2_ELN9__gnu_cxx12_Lock_policyE2EEEE8allocateERS7_m = comdat any

$_ZNSt15__allocated_ptrISaISt23_Sp_counted_ptr_inplaceIN11DelaySocket10WriteChunkESaIS2_ELN9__gnu_cxx12_Lock_policyE2EEEEC2ERS7_PS6_ = comdat any

$_ZN9__gnu_cxx13new_allocatorISt23_Sp_counted_ptr_inplaceIN11DelaySocket10WriteChunkESaIS3_ELNS_12_Lock_policyE2EEE8allocateEmPKv = comdat any

$_ZNK9__gnu_cxx13new_allocatorISt23_Sp_counted_ptr_inplaceIN11DelaySocket10WriteChunkESaIS3_ELNS_12_Lock_policyE2EEE11_M_max_sizeEv = comdat any

$_ZSt12__to_addressISt23_Sp_counted_ptr_inplaceIN11DelaySocket10WriteChunkESaIS2_ELN9__gnu_cxx12_Lock_policyE2EEEPT_S8_ = comdat any

$_ZN9__gnu_cxx13new_allocatorIN11DelaySocket10WriteChunkEEC2ERKS3_ = comdat any

$_ZNSt23_Sp_counted_ptr_inplaceIN11DelaySocket10WriteChunkESaIS1_ELN9__gnu_cxx12_Lock_policyE2EE5_ImplC2ES2_ = comdat any

$_ZNSt16allocator_traitsISaIN11DelaySocket10WriteChunkEEE9constructIS1_JRiEEEvRS2_PT_DpOT0_ = comdat any

$_ZNSt23_Sp_counted_ptr_inplaceIN11DelaySocket10WriteChunkESaIS1_ELN9__gnu_cxx12_Lock_policyE2EE5_ImplD2Ev = comdat any

$_ZNSt23_Sp_counted_ptr_inplaceIN11DelaySocket10WriteChunkESaIS1_ELN9__gnu_cxx12_Lock_policyE2EED2Ev = comdat any

$_ZNSt23_Sp_counted_ptr_inplaceIN11DelaySocket10WriteChunkESaIS1_ELN9__gnu_cxx12_Lock_policyE2EED0Ev = comdat any

$_ZNSt23_Sp_counted_ptr_inplaceIN11DelaySocket10WriteChunkESaIS1_ELN9__gnu_cxx12_Lock_policyE2EE10_M_disposeEv = comdat any

$_ZNSt23_Sp_counted_ptr_inplaceIN11DelaySocket10WriteChunkESaIS1_ELN9__gnu_cxx12_Lock_policyE2EE10_M_destroyEv = comdat any

$_ZNSt23_Sp_counted_ptr_inplaceIN11DelaySocket10WriteChunkESaIS1_ELN9__gnu_cxx12_Lock_policyE2EE14_M_get_deleterERKSt9type_info = comdat any

$_ZNSt14_Sp_ebo_helperILi0ESaIN11DelaySocket10WriteChunkEELb1EEC2ERKS2_ = comdat any

$_ZN9__gnu_cxx13new_allocatorIN11DelaySocket10WriteChunkEE9constructIS2_JRiEEEvPT_DpOT0_ = comdat any

$_ZN11DelaySocket10WriteChunkC2Ei = comdat any

$_ZNSt6chrono10time_pointINS_3_V212steady_clockENS_8durationIlSt5ratioILl1ELl1000000000EEEEEC2Ev = comdat any

$_ZNSt6vectorIcSaIcEEC2Ev = comdat any

$_ZNSt6chronoplINS_3_V212steady_clockENS_8durationIlSt5ratioILl1ELl1000000000EEEElS4_ILl1ELl1000EEEENS_10time_pointIT_NSt11common_typeIJT0_NS3_IT1_T2_EEEE4typeEEERKNS8_IS9_SB_EERKSE_ = comdat any

$_ZNSt6chrono8durationIlSt5ratioILl1ELl1000EEEC2IivEERKT_ = comdat any

$_ZNSt6vectorIcSaIcEED2Ev = comdat any

$_ZNSt6chrono8durationIlSt5ratioILl1ELl1000000000EEE4zeroEv = comdat any

$_ZNSt6chrono15duration_valuesIlE4zeroEv = comdat any

$_ZNSt12_Vector_baseIcSaIcEEC2Ev = comdat any

$_ZNSt12_Vector_baseIcSaIcEE12_Vector_implC2Ev = comdat any

$_ZNSt12_Vector_baseIcSaIcEE17_Vector_impl_dataC2Ev = comdat any

$_ZNSt6chronoplIlSt5ratioILl1ELl1000000000EElS1_ILl1ELl1000EEEENSt11common_typeIJNS_8durationIT_T0_EENS5_IT1_T2_EEEE4typeERKS8_RKSB_ = comdat any

$_ZNSt6chrono10time_pointINS_3_V212steady_clockENS_8durationIlSt5ratioILl1ELl1000000000EEEEEC2ERKS6_ = comdat any

$_ZNSt6chrono8durationIlSt5ratioILl1ELl1000000000EEEC2IlS1_ILl1ELl1000EEvEERKNS0_IT_T0_EE = comdat any

$_ZNSt6chrono13duration_castINS_8durationIlSt5ratioILl1ELl1000000000EEEElS2_ILl1ELl1000EEEENSt9enable_ifIXsr13__is_durationIT_EE5valueES7_E4typeERKNS1_IT0_T1_EE = comdat any

$_ZNSt6chrono20__duration_cast_implINS_8durationIlSt5ratioILl1ELl1000000000EEEES2_ILl1000000ELl1EElLb0ELb1EE6__castIlS2_ILl1ELl1000EEEES4_RKNS1_IT_T0_EE = comdat any

$_ZSt8_DestroyIPccEvT_S1_RSaIT0_E = comdat any

$_ZNSt12_Vector_baseIcSaIcEE19_M_get_Tp_allocatorEv = comdat any

$_ZNSt12_Vector_baseIcSaIcEED2Ev = comdat any

$_ZSt8_DestroyIPcEvT_S1_ = comdat any

$_ZNSt12_Destroy_auxILb1EE9__destroyIPcEEvT_S3_ = comdat any

$_ZNSt12_Vector_baseIcSaIcEE13_M_deallocateEPcm = comdat any

$_ZNSt12_Vector_baseIcSaIcEE12_Vector_implD2Ev = comdat any

$_ZNSt16allocator_traitsISaIcEE10deallocateERS0_Pcm = comdat any

$_ZN9__gnu_cxx13new_allocatorIcE10deallocateEPcm = comdat any

$_ZNSt14_Sp_ebo_helperILi0ESaIN11DelaySocket10WriteChunkEELb1EED2Ev = comdat any

$_ZN9__gnu_cxx13new_allocatorIN11DelaySocket10WriteChunkEED2Ev = comdat any

$_ZNSt16allocator_traitsISaIN11DelaySocket10WriteChunkEEE7destroyIS1_EEvRS2_PT_ = comdat any

$_ZNSt23_Sp_counted_ptr_inplaceIN11DelaySocket10WriteChunkESaIS1_ELN9__gnu_cxx12_Lock_policyE2EE5_Impl8_M_allocEv = comdat any

$_ZN9__gnu_cxx13new_allocatorIN11DelaySocket10WriteChunkEE7destroyIS2_EEvPT_ = comdat any

$_ZN11DelaySocket10WriteChunkD2Ev = comdat any

$_ZNSt14_Sp_ebo_helperILi0ESaIN11DelaySocket10WriteChunkEELb1EE6_S_getERS3_ = comdat any

$_ZN9__gnu_cxx16__aligned_bufferIN11DelaySocket10WriteChunkEE6_M_ptrEv = comdat any

$_ZN9__gnu_cxx16__aligned_bufferIN11DelaySocket10WriteChunkEE7_M_addrEv = comdat any

$_ZNSt16allocator_traitsISaISt23_Sp_counted_ptr_inplaceIN11DelaySocket10WriteChunkESaIS2_ELN9__gnu_cxx12_Lock_policyE2EEEE10deallocateERS7_PS6_m = comdat any

$_ZN9__gnu_cxx13new_allocatorISt23_Sp_counted_ptr_inplaceIN11DelaySocket10WriteChunkESaIS3_ELNS_12_Lock_policyE2EEE10deallocateEPS6_m = comdat any

$_ZN9__gnu_cxx13new_allocatorISt23_Sp_counted_ptr_inplaceIN11DelaySocket10WriteChunkESaIS3_ELNS_12_Lock_policyE2EEED2Ev = comdat any

$_ZN9__gnu_cxx13new_allocatorIN11DelaySocket10WriteChunkEEC2Ev = comdat any

$_ZN11DelaySocket14pushCloseChunkEv = comdat any

$_ZNSt10shared_ptrI11DelaySocketEC2EDn = comdat any

$_ZNSt10shared_ptrI11DelaySocketEaSEOS1_ = comdat any

$_ZNSt6vectorISt10shared_ptrIN11DelaySocket10WriteChunkEESaIS3_EE9push_backEOS3_ = comdat any

$_ZNSt6vectorISt10shared_ptrIN11DelaySocket10WriteChunkEESaIS3_EE12emplace_backIJS3_EEERS3_DpOT_ = comdat any

$_ZNSt16allocator_traitsISaISt10shared_ptrIN11DelaySocket10WriteChunkEEEE9constructIS3_JS3_EEEvRS4_PT_DpOT0_ = comdat any

$_ZNSt6vectorISt10shared_ptrIN11DelaySocket10WriteChunkEESaIS3_EE17_M_realloc_insertIJS3_EEEvN9__gnu_cxx17__normal_iteratorIPS3_S5_EEDpOT_ = comdat any

$_ZNSt6vectorISt10shared_ptrIN11DelaySocket10WriteChunkEESaIS3_EE3endEv = comdat any

$_ZNSt6vectorISt10shared_ptrIN11DelaySocket10WriteChunkEESaIS3_EE4backEv = comdat any

$_ZN9__gnu_cxx13new_allocatorISt10shared_ptrIN11DelaySocket10WriteChunkEEE9constructIS4_JS4_EEEvPT_DpOT0_ = comdat any

$_ZNSt10shared_ptrIN11DelaySocket10WriteChunkEEC2EOS2_ = comdat any

$_ZNKSt6vectorISt10shared_ptrIN11DelaySocket10WriteChunkEESaIS3_EE12_M_check_lenEmPKc = comdat any

$_ZN9__gnu_cxxmiIPSt10shared_ptrIN11DelaySocket10WriteChunkEESt6vectorIS4_SaIS4_EEEENS_17__normal_iteratorIT_T0_E15difference_typeERKSC_SF_ = comdat any

$_ZNSt12_Vector_baseISt10shared_ptrIN11DelaySocket10WriteChunkEESaIS3_EE11_M_allocateEm = comdat any

$_ZNSt6vectorISt10shared_ptrIN11DelaySocket10WriteChunkEESaIS3_EE11_S_relocateEPS3_S6_S6_RS4_ = comdat any

$_ZNK9__gnu_cxx17__normal_iteratorIPSt10shared_ptrIN11DelaySocket10WriteChunkEESt6vectorIS4_SaIS4_EEE4baseEv = comdat any

$_ZNKSt6vectorISt10shared_ptrIN11DelaySocket10WriteChunkEESaIS3_EE8max_sizeEv = comdat any

$_ZNSt6vectorISt10shared_ptrIN11DelaySocket10WriteChunkEESaIS3_EE11_S_max_sizeERKS4_ = comdat any

$_ZNKSt12_Vector_baseISt10shared_ptrIN11DelaySocket10WriteChunkEESaIS3_EE19_M_get_Tp_allocatorEv = comdat any

$_ZNSt16allocator_traitsISaISt10shared_ptrIN11DelaySocket10WriteChunkEEEE8max_sizeERKS4_ = comdat any

$_ZNK9__gnu_cxx13new_allocatorISt10shared_ptrIN11DelaySocket10WriteChunkEEE8max_sizeEv = comdat any

$_ZNK9__gnu_cxx13new_allocatorISt10shared_ptrIN11DelaySocket10WriteChunkEEE11_M_max_sizeEv = comdat any

$_ZNSt16allocator_traitsISaISt10shared_ptrIN11DelaySocket10WriteChunkEEEE8allocateERS4_m = comdat any

$_ZN9__gnu_cxx13new_allocatorISt10shared_ptrIN11DelaySocket10WriteChunkEEE8allocateEmPKv = comdat any

$_ZNSt6vectorISt10shared_ptrIN11DelaySocket10WriteChunkEESaIS3_EE14_S_do_relocateEPS3_S6_S6_RS4_St17integral_constantIbLb1EE = comdat any

$_ZSt12__relocate_aIPSt10shared_ptrIN11DelaySocket10WriteChunkEES4_SaIS3_EET0_T_S7_S6_RT1_ = comdat any

$_ZSt14__relocate_a_1IPSt10shared_ptrIN11DelaySocket10WriteChunkEES4_SaIS3_EET0_T_S7_S6_RT1_ = comdat any

$_ZSt12__niter_baseIPSt10shared_ptrIN11DelaySocket10WriteChunkEEET_S5_ = comdat any

$_ZSt19__relocate_object_aISt10shared_ptrIN11DelaySocket10WriteChunkEES3_SaIS3_EEvPT_PT0_RT1_ = comdat any

$_ZNSt16allocator_traitsISaISt10shared_ptrIN11DelaySocket10WriteChunkEEEE7destroyIS3_EEvRS4_PT_ = comdat any

$_ZN9__gnu_cxx13new_allocatorISt10shared_ptrIN11DelaySocket10WriteChunkEEE7destroyIS4_EEvPT_ = comdat any

$_ZNK9__gnu_cxx17__normal_iteratorIPSt10shared_ptrIN11DelaySocket10WriteChunkEESt6vectorIS4_SaIS4_EEEmiEl = comdat any

$_ZNSt12__shared_ptrI11DelaySocketLN9__gnu_cxx12_Lock_policyE2EEaSEOS3_ = comdat any

$_ZNSt12__shared_ptrI11DelaySocketLN9__gnu_cxx12_Lock_policyE2EEC2EOS3_ = comdat any

$_ZNSt12__shared_ptrI11DelaySocketLN9__gnu_cxx12_Lock_policyE2EE4swapERS3_ = comdat any

$_ZNSt12__shared_ptrI11DelaySocketLN9__gnu_cxx12_Lock_policyE2EED2Ev = comdat any

$_ZSt4swapIP11DelaySocketENSt9enable_ifIXsr6__and_ISt6__not_ISt15__is_tuple_likeIT_EESt21is_move_constructibleIS5_ESt18is_move_assignableIS5_EEE5valueEvE4typeERS5_SE_ = comdat any

$_ZN9__gnu_cxxmiIPKcSt6vectorIcSaIcEEEENS_17__normal_iteratorIT_T0_E15difference_typeERKS9_SC_ = comdat any

$_ZNKSt6vectorIcSaIcEE6cbeginEv = comdat any

$_ZNSt6vectorIcSaIcEE18_M_insert_dispatchIPcEEvN9__gnu_cxx17__normal_iteratorIS3_S1_EET_S7_St12__false_type = comdat any

$_ZNK9__gnu_cxx17__normal_iteratorIPKcSt6vectorIcSaIcEEE4baseEv = comdat any

$_ZN9__gnu_cxx17__normal_iteratorIPKcSt6vectorIcSaIcEEEC2ERKS2_ = comdat any

$_ZNSt6vectorIcSaIcEE15_M_range_insertIPcEEvN9__gnu_cxx17__normal_iteratorIS3_S1_EET_S7_St20forward_iterator_tag = comdat any

$_ZSt19__iterator_categoryIPcENSt15iterator_traitsIT_E17iterator_categoryERKS2_ = comdat any

$_ZSt8distanceIPcENSt15iterator_traitsIT_E15difference_typeES2_S2_ = comdat any

$_ZN9__gnu_cxxmiIPcSt6vectorIcSaIcEEEENS_17__normal_iteratorIT_T0_E15difference_typeERKS8_SB_ = comdat any

$_ZSt22__uninitialized_move_aIPcS0_SaIcEET0_T_S3_S2_RT1_ = comdat any

$_ZSt13move_backwardIPcS0_ET0_T_S2_S1_ = comdat any

$_ZNK9__gnu_cxx17__normal_iteratorIPcSt6vectorIcSaIcEEE4baseEv = comdat any

$_ZSt4copyIPcN9__gnu_cxx17__normal_iteratorIS0_St6vectorIcSaIcEEEEET0_T_S8_S7_ = comdat any

$_ZSt7advanceIPcmEvRT_T0_ = comdat any

$_ZSt22__uninitialized_copy_aIPcS0_cET0_T_S2_S1_RSaIT1_E = comdat any

$_ZNKSt6vectorIcSaIcEE12_M_check_lenEmPKc = comdat any

$_ZNSt12_Vector_baseIcSaIcEE11_M_allocateEm = comdat any

$_ZSt34__uninitialized_move_if_noexcept_aIPcS0_SaIcEET0_T_S3_S2_RT1_ = comdat any

$_ZSt10__distanceIPcENSt15iterator_traitsIT_E15difference_typeES2_S2_St26random_access_iterator_tag = comdat any

$_ZSt22__uninitialized_copy_aISt13move_iteratorIPcES1_cET0_T_S4_S3_RSaIT1_E = comdat any

$_ZSt18make_move_iteratorIPcESt13move_iteratorIT_ES2_ = comdat any

$_ZSt18uninitialized_copyISt13move_iteratorIPcES1_ET0_T_S4_S3_ = comdat any

$_ZNSt20__uninitialized_copyILb1EE13__uninit_copyISt13move_iteratorIPcES3_EET0_T_S6_S5_ = comdat any

$_ZSt4copyISt13move_iteratorIPcES1_ET0_T_S4_S3_ = comdat any

$_ZSt13__copy_move_aILb1EPcS0_ET1_T0_S2_S1_ = comdat any

$_ZSt12__miter_baseIPcEDTcl12__miter_basecldtfp_4baseEEESt13move_iteratorIT_E = comdat any

$_ZSt12__niter_wrapIPcET_RKS1_S1_ = comdat any

$_ZSt14__copy_move_a1ILb1EPcS0_ET1_T0_S2_S1_ = comdat any

$_ZSt12__niter_baseIPcET_S1_ = comdat any

$_ZSt14__copy_move_a2ILb1EPcS0_ET1_T0_S2_S1_ = comdat any

$_ZNSt11__copy_moveILb1ELb1ESt26random_access_iterator_tagE8__copy_mIcEEPT_PKS3_S6_S4_ = comdat any

$_ZSt12__miter_baseIPcET_S1_ = comdat any

$_ZNKSt13move_iteratorIPcE4baseEv = comdat any

$_ZNSt13move_iteratorIPcEC2ES0_ = comdat any

$_ZSt22__copy_move_backward_aILb1EPcS0_ET1_T0_S2_S1_ = comdat any

$_ZSt23__copy_move_backward_a1ILb1EPcS0_ET1_T0_S2_S1_ = comdat any

$_ZSt23__copy_move_backward_a2ILb1EPcS0_ET1_T0_S2_S1_ = comdat any

$_ZNSt20__copy_move_backwardILb1ELb1ESt26random_access_iterator_tagE13__copy_move_bIcEEPT_PKS3_S6_S4_ = comdat any

$_ZSt13__copy_move_aILb0EPcN9__gnu_cxx17__normal_iteratorIS0_St6vectorIcSaIcEEEEET1_T0_S8_S7_ = comdat any

$_ZSt12__niter_wrapIN9__gnu_cxx17__normal_iteratorIPcSt6vectorIcSaIcEEEES2_ET_S7_T0_ = comdat any

$_ZSt14__copy_move_a1ILb0EPcS0_ET1_T0_S2_S1_ = comdat any

$_ZSt12__niter_baseIPcSt6vectorIcSaIcEEET_N9__gnu_cxx17__normal_iteratorIS4_T0_EE = comdat any

$_ZSt14__copy_move_a2ILb0EPcS0_ET1_T0_S2_S1_ = comdat any

$_ZNSt11__copy_moveILb0ELb1ESt26random_access_iterator_tagE8__copy_mIcEEPT_PKS3_S6_S4_ = comdat any

$_ZSt9__advanceIPclEvRT_T0_St26random_access_iterator_tag = comdat any

$_ZSt18uninitialized_copyIPcS0_ET0_T_S2_S1_ = comdat any

$_ZNSt20__uninitialized_copyILb1EE13__uninit_copyIPcS2_EET0_T_S4_S3_ = comdat any

$_ZSt4copyIPcS0_ET0_T_S2_S1_ = comdat any

$_ZSt13__copy_move_aILb0EPcS0_ET1_T0_S2_S1_ = comdat any

$_ZNKSt6vectorIcSaIcEE8max_sizeEv = comdat any

$_ZNSt6vectorIcSaIcEE11_S_max_sizeERKS0_ = comdat any

$_ZNKSt12_Vector_baseIcSaIcEE19_M_get_Tp_allocatorEv = comdat any

$_ZNSt16allocator_traitsISaIcEE8max_sizeERKS0_ = comdat any

$_ZNK9__gnu_cxx13new_allocatorIcE8max_sizeEv = comdat any

$_ZNK9__gnu_cxx13new_allocatorIcE11_M_max_sizeEv = comdat any

$_ZNSt16allocator_traitsISaIcEE8allocateERS0_m = comdat any

$_ZN9__gnu_cxx13new_allocatorIcE8allocateEmPKv = comdat any

$_ZSt32__make_move_if_noexcept_iteratorIcSt13move_iteratorIPcEET0_PT_ = comdat any

$_ZN9__gnu_cxx17__normal_iteratorIPcSt6vectorIcSaIcEEEC2ERKS1_ = comdat any

$_ZNSt16allocator_traitsISaISt10shared_ptrIN11DelaySocket10WriteChunkEEEE9constructIS3_JRKS3_EEEvRS4_PT_DpOT0_ = comdat any

$_ZNSt6vectorISt10shared_ptrIN11DelaySocket10WriteChunkEESaIS3_EE17_M_realloc_insertIJRKS3_EEEvN9__gnu_cxx17__normal_iteratorIPS3_S5_EEDpOT_ = comdat any

$_ZN9__gnu_cxx13new_allocatorISt10shared_ptrIN11DelaySocket10WriteChunkEEE9constructIS4_JRKS4_EEEvPT_DpOT0_ = comdat any

$_ZNSt12__shared_ptrIN11DelaySocket10WriteChunkELN9__gnu_cxx12_Lock_policyE2EEC2ERKS4_ = comdat any

$_ZNSt6chrono20__duration_cast_implINS_8durationIlSt5ratioILl1ELl1000EEEES2_ILl1ELl1000000EElLb1ELb0EE6__castIlS2_ILl1ELl1000000000EEEES4_RKNS1_IT_T0_EE = comdat any

$_ZNSt6chrono8durationIlSt5ratioILl1ELl1000EEEC2IlvEERKT_ = comdat any

$_ZNSt6vectorIcSaIcEE8_M_eraseEN9__gnu_cxx17__normal_iteratorIPcS1_EES5_ = comdat any

$_ZN9__gnu_cxxneIPcSt6vectorIcSaIcEEEEbRKNS_17__normal_iteratorIT_T0_EESA_ = comdat any

$_ZSt4moveIN9__gnu_cxx17__normal_iteratorIPcSt6vectorIcSaIcEEEES6_ET0_T_S8_S7_ = comdat any

$_ZNSt6vectorIcSaIcEE15_M_erase_at_endEPc = comdat any

$_ZSt13__copy_move_aILb1EN9__gnu_cxx17__normal_iteratorIPcSt6vectorIcSaIcEEEES6_ET1_T0_S8_S7_ = comdat any

$_ZSt12__miter_baseIN9__gnu_cxx17__normal_iteratorIPcSt6vectorIcSaIcEEEEET_S7_ = comdat any

$_ZNKSt6vectorISt10shared_ptrIN11DelaySocket10WriteChunkEESaIS3_EE6cbeginEv = comdat any

$_ZNSt6vectorISt10shared_ptrIN11DelaySocket10WriteChunkEESaIS3_EE8_M_eraseEN9__gnu_cxx17__normal_iteratorIPS3_S5_EES9_ = comdat any

$_ZN9__gnu_cxxmiIPKSt10shared_ptrIN11DelaySocket10WriteChunkEESt6vectorIS4_SaIS4_EEEENS_17__normal_iteratorIT_T0_E15difference_typeERKSD_SG_ = comdat any

$_ZN9__gnu_cxx17__normal_iteratorIPKSt10shared_ptrIN11DelaySocket10WriteChunkEESt6vectorIS4_SaIS4_EEEC2ERKS6_ = comdat any

$_ZN9__gnu_cxxneIPSt10shared_ptrIN11DelaySocket10WriteChunkEESt6vectorIS4_SaIS4_EEEEbRKNS_17__normal_iteratorIT_T0_EESE_ = comdat any

$_ZSt4moveIN9__gnu_cxx17__normal_iteratorIPSt10shared_ptrIN11DelaySocket10WriteChunkEESt6vectorIS5_SaIS5_EEEESA_ET0_T_SC_SB_ = comdat any

$_ZNSt6vectorISt10shared_ptrIN11DelaySocket10WriteChunkEESaIS3_EE15_M_erase_at_endEPS3_ = comdat any

$_ZSt13__copy_move_aILb1EN9__gnu_cxx17__normal_iteratorIPSt10shared_ptrIN11DelaySocket10WriteChunkEESt6vectorIS5_SaIS5_EEEESA_ET1_T0_SC_SB_ = comdat any

$_ZSt12__miter_baseIN9__gnu_cxx17__normal_iteratorIPSt10shared_ptrIN11DelaySocket10WriteChunkEESt6vectorIS5_SaIS5_EEEEET_SB_ = comdat any

$_ZSt12__niter_wrapIN9__gnu_cxx17__normal_iteratorIPSt10shared_ptrIN11DelaySocket10WriteChunkEESt6vectorIS5_SaIS5_EEEES6_ET_SB_T0_ = comdat any

$_ZSt14__copy_move_a1ILb1EPSt10shared_ptrIN11DelaySocket10WriteChunkEES4_ET1_T0_S6_S5_ = comdat any

$_ZSt12__niter_baseIPSt10shared_ptrIN11DelaySocket10WriteChunkEESt6vectorIS3_SaIS3_EEET_N9__gnu_cxx17__normal_iteratorIS8_T0_EE = comdat any

$_ZSt14__copy_move_a2ILb1EPSt10shared_ptrIN11DelaySocket10WriteChunkEES4_ET1_T0_S6_S5_ = comdat any

$_ZNSt11__copy_moveILb1ELb0ESt26random_access_iterator_tagE8__copy_mIPSt10shared_ptrIN11DelaySocket10WriteChunkEES7_EET0_T_S9_S8_ = comdat any

$_ZNSt10shared_ptrIN11DelaySocket10WriteChunkEEaSEOS2_ = comdat any

$_ZNSt12__shared_ptrIN11DelaySocket10WriteChunkELN9__gnu_cxx12_Lock_policyE2EEaSEOS4_ = comdat any

$_ZNSt12__shared_ptrIN11DelaySocket10WriteChunkELN9__gnu_cxx12_Lock_policyE2EEC2EOS4_ = comdat any

$_ZNSt12__shared_ptrIN11DelaySocket10WriteChunkELN9__gnu_cxx12_Lock_policyE2EE4swapERS4_ = comdat any

$_ZNSt12__shared_ptrIN11DelaySocket10WriteChunkELN9__gnu_cxx12_Lock_policyE2EED2Ev = comdat any

$_ZSt4swapIPN11DelaySocket10WriteChunkEENSt9enable_ifIXsr6__and_ISt6__not_ISt15__is_tuple_likeIT_EESt21is_move_constructibleIS6_ESt18is_move_assignableIS6_EEE5valueEvE4typeERS6_SF_ = comdat any

$_ZNK9__gnu_cxx17__normal_iteratorIPKSt10shared_ptrIN11DelaySocket10WriteChunkEESt6vectorIS4_SaIS4_EEE4baseEv = comdat any

$_ZlsRSoRKNSt6chrono8durationIlSt5ratioILl1ELl1000EEEE = comdat any

$_ZN9__gnu_cxx17__normal_iteratorIPSt10shared_ptrIN11DelaySocket10WriteChunkEESt6vectorIS4_SaIS4_EEEppEv = comdat any

$_ZNSt14_Sp_ebo_helperILi0ESaI11DelaySocketELb1EED2Ev = comdat any

$_ZN9__gnu_cxx13new_allocatorI11DelaySocketED2Ev = comdat any

$_ZNSt16allocator_traitsISaI11DelaySocketEE7destroyIS0_EEvRS1_PT_ = comdat any

$_ZNSt23_Sp_counted_ptr_inplaceI11DelaySocketSaIS0_ELN9__gnu_cxx12_Lock_policyE2EE5_Impl8_M_allocEv = comdat any

$_ZN9__gnu_cxx13new_allocatorI11DelaySocketE7destroyIS1_EEvPT_ = comdat any

$_ZNSt14_Sp_ebo_helperILi0ESaI11DelaySocketELb1EE6_S_getERS2_ = comdat any

$_ZN9__gnu_cxx16__aligned_bufferI11DelaySocketE6_M_ptrEv = comdat any

$_ZN9__gnu_cxx16__aligned_bufferI11DelaySocketE7_M_addrEv = comdat any

$_ZNSt16allocator_traitsISaISt23_Sp_counted_ptr_inplaceI11DelaySocketSaIS1_ELN9__gnu_cxx12_Lock_policyE2EEEE10deallocateERS6_PS5_m = comdat any

$_ZN9__gnu_cxx13new_allocatorISt23_Sp_counted_ptr_inplaceI11DelaySocketSaIS2_ELNS_12_Lock_policyE2EEE10deallocateEPS5_m = comdat any

$_ZN9__gnu_cxx13new_allocatorISt23_Sp_counted_ptr_inplaceI11DelaySocketSaIS2_ELNS_12_Lock_policyE2EEED2Ev = comdat any

$_ZN9__gnu_cxx13new_allocatorI11DelaySocketEC2Ev = comdat any

$_ZNSt12__shared_ptrI6SocketLN9__gnu_cxx12_Lock_policyE2EEC2I11DelaySocketvEERKS_IT_LS2_2EE = comdat any

$_ZZNSt8__detail18__to_chars_10_implIjEEvPcjT_E8__digits = comdat any

$_ZTVSt23_Sp_counted_ptr_inplaceI15TerminatingPollSaIS0_ELN9__gnu_cxx12_Lock_policyE2EE = comdat any

$_ZTSSt23_Sp_counted_ptr_inplaceI15TerminatingPollSaIS0_ELN9__gnu_cxx12_Lock_policyE2EE = comdat any

$_ZTSSt16_Sp_counted_baseILN9__gnu_cxx12_Lock_policyE2EE = comdat any

$_ZTSSt11_Mutex_baseILN9__gnu_cxx12_Lock_policyE2EE = comdat any

$_ZTISt11_Mutex_baseILN9__gnu_cxx12_Lock_policyE2EE = comdat any

$_ZTISt16_Sp_counted_baseILN9__gnu_cxx12_Lock_policyE2EE = comdat any

$_ZTISt23_Sp_counted_ptr_inplaceI15TerminatingPollSaIS0_ELN9__gnu_cxx12_Lock_policyE2EE = comdat any

$_ZTVSt16_Sp_counted_baseILN9__gnu_cxx12_Lock_policyE2EE = comdat any

$_ZTV15TerminatingPoll = comdat any

$_ZTS15TerminatingPoll = comdat any

$_ZTI15TerminatingPoll = comdat any

$_ZN10SocketPoll24DefaultPollTimeoutMicroSE = comdat any

$_ZTSSt19_Sp_make_shared_tag = comdat any

$_ZTISt19_Sp_make_shared_tag = comdat any

$_ZZNSt19_Sp_make_shared_tag5_S_tiEvE5__tag = comdat any

$_ZTVSt23_Sp_counted_ptr_inplaceI11DelaySocketSaIS0_ELN9__gnu_cxx12_Lock_policyE2EE = comdat any

$_ZTSSt23_Sp_counted_ptr_inplaceI11DelaySocketSaIS0_ELN9__gnu_cxx12_Lock_policyE2EE = comdat any

$_ZTISt23_Sp_counted_ptr_inplaceI11DelaySocketSaIS0_ELN9__gnu_cxx12_Lock_policyE2EE = comdat any

$_ZTV11DelaySocket = comdat any

$_ZTS11DelaySocket = comdat any

$_ZTS6Socket = comdat any

$_ZTI6Socket = comdat any

$_ZTI11DelaySocket = comdat any

$_ZTV6Socket = comdat any

$_ZTVSt23_Sp_counted_ptr_inplaceIN11DelaySocket10WriteChunkESaIS1_ELN9__gnu_cxx12_Lock_policyE2EE = comdat any

$_ZTSSt23_Sp_counted_ptr_inplaceIN11DelaySocket10WriteChunkESaIS1_ELN9__gnu_cxx12_Lock_policyE2EE = comdat any

$_ZTISt23_Sp_counted_ptr_inplaceIN11DelaySocket10WriteChunkESaIS1_ELN9__gnu_cxx12_Lock_policyE2EE = comdat any

@_ZStL8__ioinit = internal global %"class.std::ios_base::Init" zeroinitializer, align 1, !dbg !0
@__dso_handle = external hidden global i8
@_ZN3LogL3endE = internal global %"struct.Log::_end_marker" zeroinitializer, align 1, !dbg !7
@_ZN5Delay9DelayPollE = dso_local global { ptr, %"class.std::__shared_count" } zeroinitializer, align 8, !dbg !18
@_ZN5Delay17DelayPollOnceFlagE = dso_local global %"struct.std::once_flag" zeroinitializer, align 4, !dbg !4705
@.str = private unnamed_addr constant [4 x i8] c"TRC\00", align 1, !dbg !4707
@.str.3 = private unnamed_addr constant [39 x i8] c"Created DelaySockets with physicalFd: \00", align 1, !dbg !4712
@.str.4 = private unnamed_addr constant [18 x i8] c" and internalFd: \00", align 1, !dbg !4717
@.str.5 = private unnamed_addr constant [3 x i8] c"| \00", align 1, !dbg !4722
@.str.6 = private unnamed_addr constant [20 x i8] c"net/DelaySocket.cpp\00", align 1, !dbg !4727
@.str.7 = private unnamed_addr constant [4 x i8] c"ERR\00", align 1, !dbg !4732
@.str.8 = private unnamed_addr constant [47 x i8] c"Failed to create DelaySockets for physicalFd: \00", align 1, !dbg !4734
@.str.9 = private unnamed_addr constant [23 x i8] c". No DelayPoll exists.\00", align 1, !dbg !4739
@.str.10 = private unnamed_addr constant [13 x i8] c"Delay poll:\0A\00", align 1, !dbg !4744
@.str.11 = private unnamed_addr constant [28 x i8] c"Delay poll: doesn't exist.\0A\00", align 1, !dbg !4749
@__libc_single_threaded = external global i8, align 1
@.str.12 = private unnamed_addr constant [4 x i8] c"DBG\00", align 1, !dbg !4754
@.str.13 = private unnamed_addr constant [19 x i8] c"Inserting socket #\00", align 1, !dbg !4756
@.str.14 = private unnamed_addr constant [7 x i8] c" into \00", align 1, !dbg !4761
@.str.15 = private unnamed_addr constant [17 x i8] c"./net/Socket.hpp\00", align 1, !dbg !4766
@.str.16 = private unnamed_addr constant [50 x i8] c" resetting thread affinity while in transit (was \00", align 1, !dbg !4771
@.str.17 = private unnamed_addr constant [3 x i8] c"0x\00", align 1, !dbg !4776
@.str.18 = private unnamed_addr constant [2 x i8] c"0\00", align 1, !dbg !4778
@.str.19 = private unnamed_addr constant [37 x i8] c"thread::id of a non-executing thread\00", align 1, !dbg !4783
@.str.20 = private unnamed_addr constant [26 x i8] c"vector::_M_realloc_insert\00", align 1, !dbg !4789
@.str.21 = private unnamed_addr constant [4 x i8] c"WRN\00", align 1, !dbg !4795
@.str.22 = private unnamed_addr constant [29 x i8] c"Waking up dead poll thread [\00", align 1, !dbg !4797
@.str.23 = private unnamed_addr constant [13 x i8] c"], started: \00", align 1, !dbg !4802
@.str.24 = private unnamed_addr constant [5 x i8] c"true\00", align 1, !dbg !4804
@.str.25 = private unnamed_addr constant [6 x i8] c"false\00", align 1, !dbg !4809
@.str.26 = private unnamed_addr constant [13 x i8] c", finished: \00", align 1, !dbg !4814
@.str.27 = private unnamed_addr constant [2 x i8] c"w\00", align 1, !dbg !4816
@.str.28 = private unnamed_addr constant [16 x i8] c"wakeup socket #\00", align 1, !dbg !4818
@.str.29 = private unnamed_addr constant [22 x i8] c" is closed at wakeup?\00", align 1, !dbg !4821
@.str.30 = private unnamed_addr constant [3 x i8] c" (\00", align 1, !dbg !4826
@.str.31 = private unnamed_addr constant [3 x i8] c": \00", align 1, !dbg !4828
@.str.32 = private unnamed_addr constant [6 x i8] c"EPERM\00", align 1, !dbg !4830
@.str.33 = private unnamed_addr constant [7 x i8] c"ENOENT\00", align 1, !dbg !4833
@.str.34 = private unnamed_addr constant [6 x i8] c"ESRCH\00", align 1, !dbg !4835
@.str.35 = private unnamed_addr constant [6 x i8] c"EINTR\00", align 1, !dbg !4837
@.str.36 = private unnamed_addr constant [4 x i8] c"EIO\00", align 1, !dbg !4839
@.str.37 = private unnamed_addr constant [6 x i8] c"ENXIO\00", align 1, !dbg !4841
@.str.38 = private unnamed_addr constant [6 x i8] c"E2BIG\00", align 1, !dbg !4843
@.str.39 = private unnamed_addr constant [8 x i8] c"ENOEXEC\00", align 1, !dbg !4845
@.str.40 = private unnamed_addr constant [6 x i8] c"EBADF\00", align 1, !dbg !4850
@.str.41 = private unnamed_addr constant [7 x i8] c"ECHILD\00", align 1, !dbg !4852
@.str.42 = private unnamed_addr constant [7 x i8] c"EAGAIN\00", align 1, !dbg !4854
@.str.43 = private unnamed_addr constant [7 x i8] c"ENOMEM\00", align 1, !dbg !4856
@.str.44 = private unnamed_addr constant [7 x i8] c"EACCES\00", align 1, !dbg !4858
@.str.45 = private unnamed_addr constant [7 x i8] c"EFAULT\00", align 1, !dbg !4860
@.str.46 = private unnamed_addr constant [8 x i8] c"ENOTBLK\00", align 1, !dbg !4862
@.str.47 = private unnamed_addr constant [6 x i8] c"EBUSY\00", align 1, !dbg !4864
@.str.48 = private unnamed_addr constant [7 x i8] c"EEXIST\00", align 1, !dbg !4866
@.str.49 = private unnamed_addr constant [6 x i8] c"EXDEV\00", align 1, !dbg !4868
@.str.50 = private unnamed_addr constant [7 x i8] c"ENODEV\00", align 1, !dbg !4870
@.str.51 = private unnamed_addr constant [8 x i8] c"ENOTDIR\00", align 1, !dbg !4872
@.str.52 = private unnamed_addr constant [7 x i8] c"EISDIR\00", align 1, !dbg !4874
@.str.53 = private unnamed_addr constant [7 x i8] c"EINVAL\00", align 1, !dbg !4876
@.str.54 = private unnamed_addr constant [7 x i8] c"ENFILE\00", align 1, !dbg !4878
@.str.55 = private unnamed_addr constant [7 x i8] c"EMFILE\00", align 1, !dbg !4880
@.str.56 = private unnamed_addr constant [7 x i8] c"ENOTTY\00", align 1, !dbg !4882
@.str.57 = private unnamed_addr constant [8 x i8] c"ETXTBSY\00", align 1, !dbg !4884
@.str.58 = private unnamed_addr constant [6 x i8] c"EFBIG\00", align 1, !dbg !4886
@.str.59 = private unnamed_addr constant [7 x i8] c"ENOSPC\00", align 1, !dbg !4888
@.str.60 = private unnamed_addr constant [7 x i8] c"ESPIPE\00", align 1, !dbg !4890
@.str.61 = private unnamed_addr constant [6 x i8] c"EROFS\00", align 1, !dbg !4892
@.str.62 = private unnamed_addr constant [7 x i8] c"EMLINK\00", align 1, !dbg !4894
@.str.63 = private unnamed_addr constant [6 x i8] c"EPIPE\00", align 1, !dbg !4896
@.str.64 = private unnamed_addr constant [5 x i8] c"EDOM\00", align 1, !dbg !4898
@.str.65 = private unnamed_addr constant [7 x i8] c"ERANGE\00", align 1, !dbg !4900
@.str.66 = private unnamed_addr constant [8 x i8] c"EDEADLK\00", align 1, !dbg !4902
@.str.67 = private unnamed_addr constant [13 x i8] c"ENAMETOOLONG\00", align 1, !dbg !4904
@.str.68 = private unnamed_addr constant [7 x i8] c"ENOLCK\00", align 1, !dbg !4906
@.str.69 = private unnamed_addr constant [7 x i8] c"ENOSYS\00", align 1, !dbg !4908
@.str.70 = private unnamed_addr constant [10 x i8] c"ENOTEMPTY\00", align 1, !dbg !4910
@.str.71 = private unnamed_addr constant [6 x i8] c"ELOOP\00", align 1, !dbg !4915
@.str.72 = private unnamed_addr constant [7 x i8] c"ENOMSG\00", align 1, !dbg !4917
@.str.73 = private unnamed_addr constant [6 x i8] c"EIDRM\00", align 1, !dbg !4919
@.str.74 = private unnamed_addr constant [7 x i8] c"ECHRNG\00", align 1, !dbg !4921
@.str.75 = private unnamed_addr constant [9 x i8] c"EL2NSYNC\00", align 1, !dbg !4923
@.str.76 = private unnamed_addr constant [7 x i8] c"EL3HLT\00", align 1, !dbg !4928
@.str.77 = private unnamed_addr constant [7 x i8] c"EL3RST\00", align 1, !dbg !4930
@.str.78 = private unnamed_addr constant [7 x i8] c"ELNRNG\00", align 1, !dbg !4932
@.str.79 = private unnamed_addr constant [8 x i8] c"EUNATCH\00", align 1, !dbg !4934
@.str.80 = private unnamed_addr constant [7 x i8] c"ENOCSI\00", align 1, !dbg !4936
@.str.81 = private unnamed_addr constant [7 x i8] c"EL2HLT\00", align 1, !dbg !4938
@.str.82 = private unnamed_addr constant [6 x i8] c"EBADE\00", align 1, !dbg !4940
@.str.83 = private unnamed_addr constant [6 x i8] c"EBADR\00", align 1, !dbg !4942
@.str.84 = private unnamed_addr constant [7 x i8] c"EXFULL\00", align 1, !dbg !4944
@.str.85 = private unnamed_addr constant [7 x i8] c"ENOANO\00", align 1, !dbg !4946
@.str.86 = private unnamed_addr constant [8 x i8] c"EBADRQC\00", align 1, !dbg !4948
@.str.87 = private unnamed_addr constant [8 x i8] c"EBADSLT\00", align 1, !dbg !4950
@.str.88 = private unnamed_addr constant [7 x i8] c"EBFONT\00", align 1, !dbg !4952
@.str.89 = private unnamed_addr constant [7 x i8] c"ENOSTR\00", align 1, !dbg !4954
@.str.90 = private unnamed_addr constant [8 x i8] c"ENODATA\00", align 1, !dbg !4956
@.str.91 = private unnamed_addr constant [6 x i8] c"ETIME\00", align 1, !dbg !4958
@.str.92 = private unnamed_addr constant [6 x i8] c"ENOSR\00", align 1, !dbg !4960
@.str.93 = private unnamed_addr constant [7 x i8] c"ENONET\00", align 1, !dbg !4962
@.str.94 = private unnamed_addr constant [7 x i8] c"ENOPKG\00", align 1, !dbg !4964
@.str.95 = private unnamed_addr constant [8 x i8] c"EREMOTE\00", align 1, !dbg !4966
@.str.96 = private unnamed_addr constant [8 x i8] c"ENOLINK\00", align 1, !dbg !4968
@.str.97 = private unnamed_addr constant [5 x i8] c"EADV\00", align 1, !dbg !4970
@.str.98 = private unnamed_addr constant [7 x i8] c"ESRMNT\00", align 1, !dbg !4972
@.str.99 = private unnamed_addr constant [6 x i8] c"ECOMM\00", align 1, !dbg !4974
@.str.100 = private unnamed_addr constant [7 x i8] c"EPROTO\00", align 1, !dbg !4976
@.str.101 = private unnamed_addr constant [10 x i8] c"EMULTIHOP\00", align 1, !dbg !4978
@.str.102 = private unnamed_addr constant [8 x i8] c"EDOTDOT\00", align 1, !dbg !4980
@.str.103 = private unnamed_addr constant [8 x i8] c"EBADMSG\00", align 1, !dbg !4982
@.str.104 = private unnamed_addr constant [10 x i8] c"EOVERFLOW\00", align 1, !dbg !4984
@.str.105 = private unnamed_addr constant [9 x i8] c"ENOTUNIQ\00", align 1, !dbg !4986
@.str.106 = private unnamed_addr constant [7 x i8] c"EBADFD\00", align 1, !dbg !4988
@.str.107 = private unnamed_addr constant [8 x i8] c"EREMCHG\00", align 1, !dbg !4990
@.str.108 = private unnamed_addr constant [8 x i8] c"ELIBACC\00", align 1, !dbg !4992
@.str.109 = private unnamed_addr constant [8 x i8] c"ELIBBAD\00", align 1, !dbg !4994
@.str.110 = private unnamed_addr constant [8 x i8] c"ELIBSCN\00", align 1, !dbg !4996
@.str.111 = private unnamed_addr constant [8 x i8] c"ELIBMAX\00", align 1, !dbg !4998
@.str.112 = private unnamed_addr constant [9 x i8] c"ELIBEXEC\00", align 1, !dbg !5000
@.str.113 = private unnamed_addr constant [7 x i8] c"EILSEQ\00", align 1, !dbg !5002
@.str.114 = private unnamed_addr constant [9 x i8] c"ERESTART\00", align 1, !dbg !5004
@.str.115 = private unnamed_addr constant [9 x i8] c"ESTRPIPE\00", align 1, !dbg !5006
@.str.116 = private unnamed_addr constant [7 x i8] c"EUSERS\00", align 1, !dbg !5008
@.str.117 = private unnamed_addr constant [9 x i8] c"ENOTSOCK\00", align 1, !dbg !5010
@.str.118 = private unnamed_addr constant [13 x i8] c"EDESTADDRREQ\00", align 1, !dbg !5012
@.str.119 = private unnamed_addr constant [9 x i8] c"EMSGSIZE\00", align 1, !dbg !5014
@.str.120 = private unnamed_addr constant [11 x i8] c"EPROTOTYPE\00", align 1, !dbg !5016
@.str.121 = private unnamed_addr constant [12 x i8] c"ENOPROTOOPT\00", align 1, !dbg !5021
@.str.122 = private unnamed_addr constant [16 x i8] c"EPROTONOSUPPORT\00", align 1, !dbg !5026
@.str.123 = private unnamed_addr constant [16 x i8] c"ESOCKTNOSUPPORT\00", align 1, !dbg !5028
@.str.124 = private unnamed_addr constant [11 x i8] c"EOPNOTSUPP\00", align 1, !dbg !5030
@.str.125 = private unnamed_addr constant [13 x i8] c"EPFNOSUPPORT\00", align 1, !dbg !5032
@.str.126 = private unnamed_addr constant [13 x i8] c"EAFNOSUPPORT\00", align 1, !dbg !5034
@.str.127 = private unnamed_addr constant [11 x i8] c"EADDRINUSE\00", align 1, !dbg !5036
@.str.128 = private unnamed_addr constant [14 x i8] c"EADDRNOTAVAIL\00", align 1, !dbg !5038
@.str.129 = private unnamed_addr constant [9 x i8] c"ENETDOWN\00", align 1, !dbg !5043
@.str.130 = private unnamed_addr constant [12 x i8] c"ENETUNREACH\00", align 1, !dbg !5045
@.str.131 = private unnamed_addr constant [10 x i8] c"ENETRESET\00", align 1, !dbg !5047
@.str.132 = private unnamed_addr constant [13 x i8] c"ECONNABORTED\00", align 1, !dbg !5049
@.str.133 = private unnamed_addr constant [11 x i8] c"ECONNRESET\00", align 1, !dbg !5051
@.str.134 = private unnamed_addr constant [8 x i8] c"ENOBUFS\00", align 1, !dbg !5053
@.str.135 = private unnamed_addr constant [8 x i8] c"EISCONN\00", align 1, !dbg !5055
@.str.136 = private unnamed_addr constant [9 x i8] c"ENOTCONN\00", align 1, !dbg !5057
@.str.137 = private unnamed_addr constant [10 x i8] c"ESHUTDOWN\00", align 1, !dbg !5059
@.str.138 = private unnamed_addr constant [13 x i8] c"ETOOMANYREFS\00", align 1, !dbg !5061
@.str.139 = private unnamed_addr constant [10 x i8] c"ETIMEDOUT\00", align 1, !dbg !5063
@.str.140 = private unnamed_addr constant [13 x i8] c"ECONNREFUSED\00", align 1, !dbg !5065
@.str.141 = private unnamed_addr constant [10 x i8] c"EHOSTDOWN\00", align 1, !dbg !5067
@.str.142 = private unnamed_addr constant [13 x i8] c"EHOSTUNREACH\00", align 1, !dbg !5069
@.str.143 = private unnamed_addr constant [9 x i8] c"EALREADY\00", align 1, !dbg !5071
@.str.144 = private unnamed_addr constant [12 x i8] c"EINPROGRESS\00", align 1, !dbg !5073
@.str.145 = private unnamed_addr constant [7 x i8] c"ESTALE\00", align 1, !dbg !5075
@.str.146 = private unnamed_addr constant [8 x i8] c"EUCLEAN\00", align 1, !dbg !5077
@.str.147 = private unnamed_addr constant [8 x i8] c"ENOTNAM\00", align 1, !dbg !5079
@.str.148 = private unnamed_addr constant [8 x i8] c"ENAVAIL\00", align 1, !dbg !5081
@.str.149 = private unnamed_addr constant [7 x i8] c"EISNAM\00", align 1, !dbg !5083
@.str.150 = private unnamed_addr constant [10 x i8] c"EREMOTEIO\00", align 1, !dbg !5085
@.str.151 = private unnamed_addr constant [7 x i8] c"EDQUOT\00", align 1, !dbg !5087
@.str.152 = private unnamed_addr constant [10 x i8] c"ENOMEDIUM\00", align 1, !dbg !5089
@.str.153 = private unnamed_addr constant [12 x i8] c"EMEDIUMTYPE\00", align 1, !dbg !5091
@.str.154 = private unnamed_addr constant [10 x i8] c"ECANCELED\00", align 1, !dbg !5093
@.str.155 = private unnamed_addr constant [7 x i8] c"ENOKEY\00", align 1, !dbg !5095
@.str.156 = private unnamed_addr constant [12 x i8] c"EKEYEXPIRED\00", align 1, !dbg !5097
@.str.157 = private unnamed_addr constant [12 x i8] c"EKEYREVOKED\00", align 1, !dbg !5099
@.str.158 = private unnamed_addr constant [13 x i8] c"EKEYREJECTED\00", align 1, !dbg !5101
@.str.159 = private unnamed_addr constant [11 x i8] c"EOWNERDEAD\00", align 1, !dbg !5103
@.str.160 = private unnamed_addr constant [16 x i8] c"ENOTRECOVERABLE\00", align 1, !dbg !5105
@.str.161 = private unnamed_addr constant [8 x i8] c"ERFKILL\00", align 1, !dbg !5107
@.str.162 = private unnamed_addr constant [10 x i8] c"EHWPOISON\00", align 1, !dbg !5109
@_ZZNSt8__detail18__to_chars_10_implIjEEvPcjT_E8__digits = linkonce_odr dso_local constant [201 x i8] c"00010203040506070809101112131415161718192021222324252627282930313233343536373839404142434445464748495051525354555657585960616263646566676869707172737475767778798081828384858687888990919293949596979899\00", comdat, align 16, !dbg !5111
@_ZN3Log10IsShutdownE = external global i8, align 1
@.str.163 = private unnamed_addr constant [42 x i8] c"basic_string::_M_construct null not valid\00", align 1, !dbg !5124
@_ZSt15__once_callable = external thread_local global ptr, align 8
@_ZSt11__once_call = external thread_local global ptr, align 8
@.str.164 = private unnamed_addr constant [11 x i8] c"delay_poll\00", align 1, !dbg !5129
@_ZTVSt23_Sp_counted_ptr_inplaceI15TerminatingPollSaIS0_ELN9__gnu_cxx12_Lock_policyE2EE = linkonce_odr dso_local unnamed_addr constant { [7 x ptr] } { [7 x ptr] [ptr null, ptr @_ZTISt23_Sp_counted_ptr_inplaceI15TerminatingPollSaIS0_ELN9__gnu_cxx12_Lock_policyE2EE, ptr @_ZNSt23_Sp_counted_ptr_inplaceI15TerminatingPollSaIS0_ELN9__gnu_cxx12_Lock_policyE2EED2Ev, ptr @_ZNSt23_Sp_counted_ptr_inplaceI15TerminatingPollSaIS0_ELN9__gnu_cxx12_Lock_policyE2EED0Ev, ptr @_ZNSt23_Sp_counted_ptr_inplaceI15TerminatingPollSaIS0_ELN9__gnu_cxx12_Lock_policyE2EE10_M_disposeEv, ptr @_ZNSt23_Sp_counted_ptr_inplaceI15TerminatingPollSaIS0_ELN9__gnu_cxx12_Lock_policyE2EE10_M_destroyEv, ptr @_ZNSt23_Sp_counted_ptr_inplaceI15TerminatingPollSaIS0_ELN9__gnu_cxx12_Lock_policyE2EE14_M_get_deleterERKSt9type_info] }, comdat, align 8
@_ZTVN10__cxxabiv120__si_class_type_infoE = external global ptr
@_ZTSSt23_Sp_counted_ptr_inplaceI15TerminatingPollSaIS0_ELN9__gnu_cxx12_Lock_policyE2EE = linkonce_odr dso_local constant [83 x i8] c"St23_Sp_counted_ptr_inplaceI15TerminatingPollSaIS0_ELN9__gnu_cxx12_Lock_policyE2EE\00", comdat, align 1
@_ZTSSt16_Sp_counted_baseILN9__gnu_cxx12_Lock_policyE2EE = linkonce_odr dso_local constant [52 x i8] c"St16_Sp_counted_baseILN9__gnu_cxx12_Lock_policyE2EE\00", comdat, align 1
@_ZTVN10__cxxabiv117__class_type_infoE = external global ptr
@_ZTSSt11_Mutex_baseILN9__gnu_cxx12_Lock_policyE2EE = linkonce_odr dso_local constant [47 x i8] c"St11_Mutex_baseILN9__gnu_cxx12_Lock_policyE2EE\00", comdat, align 1
@_ZTISt11_Mutex_baseILN9__gnu_cxx12_Lock_policyE2EE = linkonce_odr dso_local constant { ptr, ptr } { ptr getelementptr inbounds (ptr, ptr @_ZTVN10__cxxabiv117__class_type_infoE, i64 2), ptr @_ZTSSt11_Mutex_baseILN9__gnu_cxx12_Lock_policyE2EE }, comdat, align 8
@_ZTISt16_Sp_counted_baseILN9__gnu_cxx12_Lock_policyE2EE = linkonce_odr dso_local constant { ptr, ptr, ptr } { ptr getelementptr inbounds (ptr, ptr @_ZTVN10__cxxabiv120__si_class_type_infoE, i64 2), ptr @_ZTSSt16_Sp_counted_baseILN9__gnu_cxx12_Lock_policyE2EE, ptr @_ZTISt11_Mutex_baseILN9__gnu_cxx12_Lock_policyE2EE }, comdat, align 8
@_ZTISt23_Sp_counted_ptr_inplaceI15TerminatingPollSaIS0_ELN9__gnu_cxx12_Lock_policyE2EE = linkonce_odr dso_local constant { ptr, ptr, ptr } { ptr getelementptr inbounds (ptr, ptr @_ZTVN10__cxxabiv120__si_class_type_infoE, i64 2), ptr @_ZTSSt23_Sp_counted_ptr_inplaceI15TerminatingPollSaIS0_ELN9__gnu_cxx12_Lock_policyE2EE, ptr @_ZTISt16_Sp_counted_baseILN9__gnu_cxx12_Lock_policyE2EE }, comdat, align 8
@_ZTVSt16_Sp_counted_baseILN9__gnu_cxx12_Lock_policyE2EE = linkonce_odr dso_local unnamed_addr constant { [7 x ptr] } { [7 x ptr] [ptr null, ptr @_ZTISt16_Sp_counted_baseILN9__gnu_cxx12_Lock_policyE2EE, ptr @_ZNSt16_Sp_counted_baseILN9__gnu_cxx12_Lock_policyE2EED2Ev, ptr @_ZNSt16_Sp_counted_baseILN9__gnu_cxx12_Lock_policyE2EED0Ev, ptr @__cxa_pure_virtual, ptr @_ZNSt16_Sp_counted_baseILN9__gnu_cxx12_Lock_policyE2EE10_M_destroyEv, ptr @__cxa_pure_virtual] }, comdat, align 8
@_ZTV15TerminatingPoll = linkonce_odr dso_local unnamed_addr constant { [8 x ptr] } { [8 x ptr] [ptr null, ptr @_ZTI15TerminatingPoll, ptr @_ZN15TerminatingPollD2Ev, ptr @_ZN15TerminatingPollD0Ev, ptr @_ZN15TerminatingPoll15continuePollingEv, ptr @_ZN10SocketPoll10wakeupHookEv, ptr @_ZN10SocketPoll13pollingThreadEv, ptr @_ZN10SocketPoll9dumpStateERSo] }, comdat, align 8
@_ZTS15TerminatingPoll = linkonce_odr dso_local constant [18 x i8] c"15TerminatingPoll\00", comdat, align 1
@_ZTI10SocketPoll = external constant ptr
@_ZTI15TerminatingPoll = linkonce_odr dso_local constant { ptr, ptr, ptr } { ptr getelementptr inbounds (ptr, ptr @_ZTVN10__cxxabiv120__si_class_type_infoE, i64 2), ptr @_ZTS15TerminatingPoll, ptr @_ZTI10SocketPoll }, comdat, align 8
@_ZN10SocketPoll24DefaultPollTimeoutMicroSE = linkonce_odr dso_local constant %"struct.std::chrono::duration.42" { i64 5000000 }, comdat, align 8, !dbg !5131
@_ZTSSt19_Sp_make_shared_tag = linkonce_odr dso_local constant [24 x i8] c"St19_Sp_make_shared_tag\00", comdat, align 1
@_ZTISt19_Sp_make_shared_tag = linkonce_odr dso_local constant { ptr, ptr } { ptr getelementptr inbounds (ptr, ptr @_ZTVN10__cxxabiv117__class_type_infoE, i64 2), ptr @_ZTSSt19_Sp_make_shared_tag }, comdat, align 8
@_ZZNSt19_Sp_make_shared_tag5_S_tiEvE5__tag = linkonce_odr dso_local constant [16 x i8] zeroinitializer, comdat, align 8, !dbg !5136
@_ZTVSt23_Sp_counted_ptr_inplaceI11DelaySocketSaIS0_ELN9__gnu_cxx12_Lock_policyE2EE = linkonce_odr dso_local unnamed_addr constant { [7 x ptr] } { [7 x ptr] [ptr null, ptr @_ZTISt23_Sp_counted_ptr_inplaceI11DelaySocketSaIS0_ELN9__gnu_cxx12_Lock_policyE2EE, ptr @_ZNSt23_Sp_counted_ptr_inplaceI11DelaySocketSaIS0_ELN9__gnu_cxx12_Lock_policyE2EED2Ev, ptr @_ZNSt23_Sp_counted_ptr_inplaceI11DelaySocketSaIS0_ELN9__gnu_cxx12_Lock_policyE2EED0Ev, ptr @_ZNSt23_Sp_counted_ptr_inplaceI11DelaySocketSaIS0_ELN9__gnu_cxx12_Lock_policyE2EE10_M_disposeEv, ptr @_ZNSt23_Sp_counted_ptr_inplaceI11DelaySocketSaIS0_ELN9__gnu_cxx12_Lock_policyE2EE10_M_destroyEv, ptr @_ZNSt23_Sp_counted_ptr_inplaceI11DelaySocketSaIS0_ELN9__gnu_cxx12_Lock_policyE2EE14_M_get_deleterERKSt9type_info] }, comdat, align 8
@_ZTSSt23_Sp_counted_ptr_inplaceI11DelaySocketSaIS0_ELN9__gnu_cxx12_Lock_policyE2EE = linkonce_odr dso_local constant [79 x i8] c"St23_Sp_counted_ptr_inplaceI11DelaySocketSaIS0_ELN9__gnu_cxx12_Lock_policyE2EE\00", comdat, align 1
@_ZTISt23_Sp_counted_ptr_inplaceI11DelaySocketSaIS0_ELN9__gnu_cxx12_Lock_policyE2EE = linkonce_odr dso_local constant { ptr, ptr, ptr } { ptr getelementptr inbounds (ptr, ptr @_ZTVN10__cxxabiv120__si_class_type_infoE, i64 2), ptr @_ZTSSt23_Sp_counted_ptr_inplaceI11DelaySocketSaIS0_ELN9__gnu_cxx12_Lock_policyE2EE, ptr @_ZTISt16_Sp_counted_baseILN9__gnu_cxx12_Lock_policyE2EE }, comdat, align 8
@_ZTV11DelaySocket = linkonce_odr dso_local unnamed_addr constant { [10 x ptr] } { [10 x ptr] [ptr null, ptr @_ZTI11DelaySocket, ptr @_ZN11DelaySocketD2Ev, ptr @_ZN11DelaySocketD0Ev, ptr @_ZN6Socket8shutdownEv, ptr @_ZN11DelaySocket13getPollEventsENSt6chrono10time_pointINS0_3_V212steady_clockENS0_8durationIlSt5ratioILl1ELl1000000000EEEEEERl, ptr @_ZN11DelaySocket10handlePollER17SocketDispositionNSt6chrono10time_pointINS2_3_V212steady_clockENS2_8durationIlSt5ratioILl1ELl1000000000EEEEEEi, ptr @_ZNK6Socket11hasBufferedEv, ptr @_ZN11DelaySocket9dumpStateERSo, ptr @_ZN6Socket11ignoreInputEv] }, comdat, align 8
@_ZTS11DelaySocket = linkonce_odr dso_local constant [14 x i8] c"11DelaySocket\00", comdat, align 1
@_ZTS6Socket = linkonce_odr dso_local constant [8 x i8] c"6Socket\00", comdat, align 1
@_ZTI6Socket = linkonce_odr dso_local constant { ptr, ptr } { ptr getelementptr inbounds (ptr, ptr @_ZTVN10__cxxabiv117__class_type_infoE, i64 2), ptr @_ZTS6Socket }, comdat, align 8
@_ZTI11DelaySocket = linkonce_odr dso_local constant { ptr, ptr, ptr } { ptr getelementptr inbounds (ptr, ptr @_ZTVN10__cxxabiv120__si_class_type_infoE, i64 2), ptr @_ZTS11DelaySocket, ptr @_ZTI6Socket }, comdat, align 8
@_ZTV6Socket = linkonce_odr dso_local unnamed_addr constant { [10 x ptr] } { [10 x ptr] [ptr null, ptr @_ZTI6Socket, ptr @_ZN6SocketD2Ev, ptr @_ZN6SocketD0Ev, ptr @_ZN6Socket8shutdownEv, ptr @__cxa_pure_virtual, ptr @__cxa_pure_virtual, ptr @_ZNK6Socket11hasBufferedEv, ptr @_ZN6Socket9dumpStateERSo, ptr @_ZN6Socket11ignoreInputEv] }, comdat, align 8
@.str.165 = private unnamed_addr constant [41 x i8] c" Created socket. Thread affinity set to \00", align 1, !dbg !5148
@.str.166 = private unnamed_addr constant [14 x i8] c" Socket dtor.\00", align 1, !dbg !5153
@.str.167 = private unnamed_addr constant [24 x i8] c": socket shutdown RDWR.\00", align 1, !dbg !5155
@_ZSt4cerr = external global %"class.std::basic_ostream", align 8
@.str.168 = private unnamed_addr constant [23 x i8] c" reset timeout max to \00", align 1, !dbg !5160
@.str.169 = private unnamed_addr constant [9 x i8] c"us from \00", align 1, !dbg !5162
@.str.170 = private unnamed_addr constant [4 x i8] c"us\0A\00", align 1, !dbg !5164
@.str.171 = private unnamed_addr constant [7 x i8] c" read \00", align 1, !dbg !5166
@.str.172 = private unnamed_addr constant [12 x i8] c" to queue: \00", align 1, !dbg !5168
@.str.173 = private unnamed_addr constant [10 x i8] c" error : \00", align 1, !dbg !5170
@.str.174 = private unnamed_addr constant [25 x i8] c" handling delayed close\0A\00", align 1, !dbg !5172
@.str.175 = private unnamed_addr constant [27 x i8] c" full - waiting for write\0A\00", align 1, !dbg !5177
@.str.176 = private unnamed_addr constant [23 x i8] c" failed onwards write \00", align 1, !dbg !5182
@.str.177 = private unnamed_addr constant [10 x i8] c"bytes of \00", align 1, !dbg !5184
@.str.178 = private unnamed_addr constant [9 x i8] c" queue: \00", align 1, !dbg !5186
@.str.179 = private unnamed_addr constant [9 x i8] c" error: \00", align 1, !dbg !5188
@.str.180 = private unnamed_addr constant [18 x i8] c" written onwards \00", align 1, !dbg !5190
@.str.181 = private unnamed_addr constant [16 x i8] c" error events: \00", align 1, !dbg !5192
@_ZTVSt23_Sp_counted_ptr_inplaceIN11DelaySocket10WriteChunkESaIS1_ELN9__gnu_cxx12_Lock_policyE2EE = linkonce_odr dso_local unnamed_addr constant { [7 x ptr] } { [7 x ptr] [ptr null, ptr @_ZTISt23_Sp_counted_ptr_inplaceIN11DelaySocket10WriteChunkESaIS1_ELN9__gnu_cxx12_Lock_policyE2EE, ptr @_ZNSt23_Sp_counted_ptr_inplaceIN11DelaySocket10WriteChunkESaIS1_ELN9__gnu_cxx12_Lock_policyE2EED2Ev, ptr @_ZNSt23_Sp_counted_ptr_inplaceIN11DelaySocket10WriteChunkESaIS1_ELN9__gnu_cxx12_Lock_policyE2EED0Ev, ptr @_ZNSt23_Sp_counted_ptr_inplaceIN11DelaySocket10WriteChunkESaIS1_ELN9__gnu_cxx12_Lock_policyE2EE10_M_disposeEv, ptr @_ZNSt23_Sp_counted_ptr_inplaceIN11DelaySocket10WriteChunkESaIS1_ELN9__gnu_cxx12_Lock_policyE2EE10_M_destroyEv, ptr @_ZNSt23_Sp_counted_ptr_inplaceIN11DelaySocket10WriteChunkESaIS1_ELN9__gnu_cxx12_Lock_policyE2EE14_M_get_deleterERKSt9type_info] }, comdat, align 8
@_ZTSSt23_Sp_counted_ptr_inplaceIN11DelaySocket10WriteChunkESaIS1_ELN9__gnu_cxx12_Lock_policyE2EE = linkonce_odr dso_local constant [93 x i8] c"St23_Sp_counted_ptr_inplaceIN11DelaySocket10WriteChunkESaIS1_ELN9__gnu_cxx12_Lock_policyE2EE\00", comdat, align 1
@_ZTISt23_Sp_counted_ptr_inplaceIN11DelaySocket10WriteChunkESaIS1_ELN9__gnu_cxx12_Lock_policyE2EE = linkonce_odr dso_local constant { ptr, ptr, ptr } { ptr getelementptr inbounds (ptr, ptr @_ZTVN10__cxxabiv120__si_class_type_infoE, i64 2), ptr @_ZTSSt23_Sp_counted_ptr_inplaceIN11DelaySocket10WriteChunkESaIS1_ELN9__gnu_cxx12_Lock_policyE2EE, ptr @_ZTISt16_Sp_counted_baseILN9__gnu_cxx12_Lock_policyE2EE }, comdat, align 8
@.str.182 = private unnamed_addr constant [19 x i8] c" changed to state \00", align 1, !dbg !5194
@.str.183 = private unnamed_addr constant [24 x i8] c"vector::_M_range_insert\00", align 1, !dbg !5196
@.str.184 = private unnamed_addr constant [6 x i8] c"\09fd: \00", align 1, !dbg !5198
@.str.185 = private unnamed_addr constant [10 x i8] c"\0A\09queue: \00", align 1, !dbg !5200
@.str.186 = private unnamed_addr constant [7 x i8] c"\09\09in: \00", align 1, !dbg !5202
@.str.187 = private unnamed_addr constant [4 x i8] c" - \00", align 1, !dbg !5204
@.str.188 = private unnamed_addr constant [7 x i8] c"bytes\0A\00", align 1, !dbg !5206
@.str.189 = private unnamed_addr constant [3 x i8] c"ms\00", align 1, !dbg !5208
@.str.190 = private unnamed_addr constant [34 x i8] c": ignore further input on socket.\00", align 1, !dbg !5210
@llvm.global_ctors = appending global [1 x { i32, ptr, ptr }] [{ i32, ptr, ptr } { i32 65535, ptr @_GLOBAL__sub_I_DelaySocket.cpp, ptr null }]

@_ZN5DelayC1Em = dso_local unnamed_addr alias void (ptr, i64), ptr @_ZN5DelayC2Em
@_ZN5DelayD1Ev = dso_local unnamed_addr alias void (ptr), ptr @_ZN5DelayD2Ev

; Function Attrs: noinline uwtable
define internal void @__cxx_global_var_init() #0 section ".text.startup" !dbg !6228 {
  call void @_ZNSt8ios_base4InitC1Ev(ptr noundef nonnull align 1 dereferenceable(1) @_ZStL8__ioinit), !dbg !6229
  %1 = call i32 @__cxa_atexit(ptr @_ZNSt8ios_base4InitD1Ev, ptr @_ZStL8__ioinit, ptr @__dso_handle) #3, !dbg !6231
  ret void, !dbg !6229
}

declare void @_ZNSt8ios_base4InitC1Ev(ptr noundef nonnull align 1 dereferenceable(1)) unnamed_addr #1

; Function Attrs: nounwind
declare void @_ZNSt8ios_base4InitD1Ev(ptr noundef nonnull align 1 dereferenceable(1)) unnamed_addr #2

; Function Attrs: nounwind
declare i32 @__cxa_atexit(ptr, ptr, ptr) #3

; Function Attrs: noinline uwtable
define internal void @__cxx_global_var_init.1() #0 section ".text.startup" !dbg !6232 {
  call void @_ZN3Log11_end_markerC2Ev(ptr noundef nonnull align 1 dereferenceable(1) @_ZN3LogL3endE), !dbg !6233
  ret void, !dbg !6233
}

; Function Attrs: noinline nounwind optnone uwtable
define linkonce_odr dso_local void @_ZN3Log11_end_markerC2Ev(ptr noundef nonnull align 1 dereferenceable(1) %0) unnamed_addr #4 comdat align 2 !dbg !6235 {
  %2 = alloca ptr, align 8
  store ptr %0, ptr %2, align 8
  call void @llvm.dbg.declare(metadata ptr %2, metadata !6236, metadata !DIExpression()), !dbg !6238
  %3 = load ptr, ptr %2, align 8
  ret void, !dbg !6239
}

; Function Attrs: noinline uwtable
define internal void @__cxx_global_var_init.2() #0 section ".text.startup" !dbg !6240 {
  %1 = call i32 @__cxa_atexit(ptr @_ZNSt10shared_ptrI15TerminatingPollED2Ev, ptr @_ZN5Delay9DelayPollE, ptr @__dso_handle) #3, !dbg !6241
  ret void, !dbg !6241
}

; Function Attrs: noinline nounwind optnone uwtable
define linkonce_odr dso_local void @_ZNSt10shared_ptrI15TerminatingPollED2Ev(ptr noundef nonnull align 8 dereferenceable(16) %0) unnamed_addr #4 comdat align 2 !dbg !6242 {
  %2 = alloca ptr, align 8
  store ptr %0, ptr %2, align 8
  call void @llvm.dbg.declare(metadata ptr %2, metadata !6244, metadata !DIExpression()), !dbg !6246
  %3 = load ptr, ptr %2, align 8
  call void @_ZNSt12__shared_ptrI15TerminatingPollLN9__gnu_cxx12_Lock_policyE2EED2Ev(ptr noundef nonnull align 8 dereferenceable(16) %3) #3, !dbg !6247
  ret void, !dbg !6249
}

; Function Attrs: noinline optnone uwtable
define dso_local void @_ZN5DelayC2Em(ptr noundef nonnull align 1 dereferenceable(1) %0, i64 noundef %1) unnamed_addr #5 align 2 !dbg !3384 {
  %3 = alloca ptr, align 8
  %4 = alloca i64, align 8
  %5 = alloca %class.anon, align 1
  store ptr %0, ptr %3, align 8
  call void @llvm.dbg.declare(metadata ptr %3, metadata !6250, metadata !DIExpression()), !dbg !6252
  store i64 %1, ptr %4, align 8
  call void @llvm.dbg.declare(metadata ptr %4, metadata !6253, metadata !DIExpression()), !dbg !6254
  %6 = load ptr, ptr %3, align 8
  %7 = load i64, ptr %4, align 8, !dbg !6255
  %8 = icmp ne i64 %7, 0, !dbg !6255
  br i1 %8, label %9, label %10, !dbg !6258

9:                                                ; preds = %2
  call void @"_ZSt9call_onceIZN5DelayC1EmE3$_0JEEvRSt9once_flagOT_DpOT0_"(ptr noundef nonnull align 4 dereferenceable(4) @_ZN5Delay17DelayPollOnceFlagE, ptr noundef nonnull align 1 dereferenceable(1) %5), !dbg !6259
  br label %10, !dbg !6261

10:                                               ; preds = %9, %2
  ret void, !dbg !6262
}

; Function Attrs: nocallback nofree nosync nounwind speculatable willreturn memory(none)
declare void @llvm.dbg.declare(metadata, metadata, metadata) #6

; Function Attrs: mustprogress noinline optnone uwtable
define internal void @"_ZSt9call_onceIZN5DelayC1EmE3$_0JEEvRSt9once_flagOT_DpOT0_"(ptr noundef nonnull align 4 dereferenceable(4) %0, ptr noundef nonnull align 1 dereferenceable(1) %1) #7 personality ptr @__gxx_personality_v0 !dbg !3361 {
  %3 = alloca ptr, align 8
  %4 = alloca ptr, align 8
  %5 = alloca %class.anon.33, align 8
  %6 = alloca %"struct.std::once_flag::_Prepare_execution", align 1
  %7 = alloca i32, align 4
  %8 = alloca ptr, align 8
  %9 = alloca i32, align 4
  store ptr %0, ptr %3, align 8
  call void @llvm.dbg.declare(metadata ptr %3, metadata !6263, metadata !DIExpression()), !dbg !6264
  store ptr %1, ptr %4, align 8
  call void @llvm.dbg.declare(metadata ptr %4, metadata !6265, metadata !DIExpression()), !dbg !6266
  call void @llvm.dbg.declare(metadata ptr %5, metadata !6267, metadata !DIExpression()), !dbg !6268
  %10 = getelementptr inbounds %class.anon.33, ptr %5, i32 0, i32 0, !dbg !6269
  %11 = load ptr, ptr %4, align 8, !dbg !6270
  store ptr %11, ptr %10, align 8, !dbg !6269
  call void @llvm.dbg.declare(metadata ptr %6, metadata !6271, metadata !DIExpression()), !dbg !6272
  call void @"_ZNSt9once_flag18_Prepare_executionC2IZSt9call_onceIZN5DelayC1EmE3$_0JEEvRS_OT_DpOT0_EUlvE_EERS6_"(ptr noundef nonnull align 1 dereferenceable(1) %6, ptr noundef nonnull align 8 dereferenceable(8) %5), !dbg !6272
  call void @llvm.dbg.declare(metadata ptr %7, metadata !6273, metadata !DIExpression()), !dbg !6275
  %12 = load ptr, ptr %3, align 8, !dbg !6276
  %13 = getelementptr inbounds %"struct.std::once_flag", ptr %12, i32 0, i32 0, !dbg !6277
  %14 = invoke noundef i32 @_ZL14__gthread_oncePiPFvvE(ptr noundef %13, ptr noundef @__once_proxy)
          to label %15 unwind label %21, !dbg !6278

15:                                               ; preds = %2
  store i32 %14, ptr %7, align 4, !dbg !6275
  %16 = load i32, ptr %7, align 4, !dbg !6275
  %17 = icmp ne i32 %16, 0, !dbg !6275
  br i1 %17, label %18, label %25, !dbg !6279

18:                                               ; preds = %15
  %19 = load i32, ptr %7, align 4, !dbg !6280
  invoke void @_ZSt20__throw_system_errori(i32 noundef %19) #17
          to label %20 unwind label %21, !dbg !6281

20:                                               ; preds = %18
  unreachable, !dbg !6281

21:                                               ; preds = %18, %2
  %22 = landingpad { ptr, i32 }
          cleanup, !dbg !6282
  %23 = extractvalue { ptr, i32 } %22, 0, !dbg !6282
  store ptr %23, ptr %8, align 8, !dbg !6282
  %24 = extractvalue { ptr, i32 } %22, 1, !dbg !6282
  store i32 %24, ptr %9, align 4, !dbg !6282
  call void @_ZNSt9once_flag18_Prepare_executionD2Ev(ptr noundef nonnull align 1 dereferenceable(1) %6) #3, !dbg !6283
  br label %26, !dbg !6283

25:                                               ; preds = %15
  call void @_ZNSt9once_flag18_Prepare_executionD2Ev(ptr noundef nonnull align 1 dereferenceable(1) %6) #3, !dbg !6283
  ret void, !dbg !6283

26:                                               ; preds = %21
  %27 = load ptr, ptr %8, align 8, !dbg !6283
  %28 = load i32, ptr %9, align 4, !dbg !6283
  %29 = insertvalue { ptr, i32 } poison, ptr %27, 0, !dbg !6283
  %30 = insertvalue { ptr, i32 } %29, i32 %28, 1, !dbg !6283
  resume { ptr, i32 } %30, !dbg !6283
}

; Function Attrs: noinline nounwind optnone uwtable
define dso_local void @_ZN5DelayD2Ev(ptr noundef nonnull align 1 dereferenceable(1) %0) unnamed_addr #4 align 2 !dbg !6284 {
  %2 = alloca ptr, align 8
  store ptr %0, ptr %2, align 8
  call void @llvm.dbg.declare(metadata ptr %2, metadata !6285, metadata !DIExpression()), !dbg !6286
  %3 = load ptr, ptr %2, align 8
  call void @_ZNSt12__shared_ptrI15TerminatingPollLN9__gnu_cxx12_Lock_policyE2EE5resetEv(ptr noundef nonnull align 8 dereferenceable(16) @_ZN5Delay9DelayPollE) #3, !dbg !6287
  ret void, !dbg !6289
}

; Function Attrs: mustprogress noinline nounwind optnone uwtable
define linkonce_odr dso_local void @_ZNSt12__shared_ptrI15TerminatingPollLN9__gnu_cxx12_Lock_policyE2EE5resetEv(ptr noundef nonnull align 8 dereferenceable(16) %0) #8 comdat align 2 !dbg !6290 {
  %2 = alloca ptr, align 8
  %3 = alloca %"class.std::__shared_ptr.16", align 8
  store ptr %0, ptr %2, align 8
  call void @llvm.dbg.declare(metadata ptr %2, metadata !6291, metadata !DIExpression()), !dbg !6293
  %4 = load ptr, ptr %2, align 8
  call void @_ZNSt12__shared_ptrI15TerminatingPollLN9__gnu_cxx12_Lock_policyE2EEC2Ev(ptr noundef nonnull align 8 dereferenceable(16) %3) #3, !dbg !6294
  call void @_ZNSt12__shared_ptrI15TerminatingPollLN9__gnu_cxx12_Lock_policyE2EE4swapERS3_(ptr noundef nonnull align 8 dereferenceable(16) %3, ptr noundef nonnull align 8 dereferenceable(16) %4) #3, !dbg !6295
  call void @_ZNSt12__shared_ptrI15TerminatingPollLN9__gnu_cxx12_Lock_policyE2EED2Ev(ptr noundef nonnull align 8 dereferenceable(16) %3) #3, !dbg !6294
  ret void, !dbg !6296
}

; Function Attrs: mustprogress noinline optnone uwtable
define dso_local noundef i32 @_ZN5Delay6createEii(i32 noundef %0, i32 noundef %1) #7 align 2 personality ptr @__gxx_personality_v0 !dbg !6297 {
  %3 = alloca i32, align 4
  %4 = alloca i32, align 4
  %5 = alloca i32, align 4
  %6 = alloca %"class.std::shared_ptr.15", align 8
  %7 = alloca ptr, align 8
  %8 = alloca i32, align 4
  %9 = alloca [2 x i32], align 4
  %10 = alloca i32, align 4
  %11 = alloca i32, align 4
  %12 = alloca i32, align 4
  %13 = alloca %"class.std::shared_ptr.18", align 8
  %14 = alloca %"class.std::shared_ptr.18", align 8
  %15 = alloca %"class.std::shared_ptr", align 8
  %16 = alloca %"class.std::shared_ptr", align 8
  %17 = alloca ptr, align 8
  %18 = alloca [1024 x i8], align 16
  %19 = alloca %"class.std::__cxx11::basic_ostringstream", align 8
  %20 = alloca %"class.std::__cxx11::basic_string", align 8
  %21 = alloca %"class.std::allocator", align 1
  %22 = alloca %"class.Poco::Message", align 8
  %23 = alloca %"class.std::__cxx11::basic_string", align 8
  %24 = alloca i32, align 4
  %25 = alloca ptr, align 8
  %26 = alloca [1024 x i8], align 16
  %27 = alloca %"class.std::__cxx11::basic_ostringstream", align 8
  %28 = alloca %"class.std::__cxx11::basic_string", align 8
  %29 = alloca %"class.std::allocator", align 1
  %30 = alloca %"class.Poco::Message", align 8
  %31 = alloca %"class.std::__cxx11::basic_string", align 8
  store i32 %0, ptr %4, align 4
  call void @llvm.dbg.declare(metadata ptr %4, metadata !6298, metadata !DIExpression()), !dbg !6299
  store i32 %1, ptr %5, align 4
  call void @llvm.dbg.declare(metadata ptr %5, metadata !6300, metadata !DIExpression()), !dbg !6301
  call void @llvm.dbg.declare(metadata ptr %6, metadata !6302, metadata !DIExpression()), !dbg !6303
  call void @_ZNSt10shared_ptrI15TerminatingPollEC2ERKS1_(ptr noundef nonnull align 8 dereferenceable(16) %6, ptr noundef nonnull align 8 dereferenceable(16) @_ZN5Delay9DelayPollE) #3, !dbg !6304
  %32 = call noundef zeroext i1 @_ZNKSt12__shared_ptrI15TerminatingPollLN9__gnu_cxx12_Lock_policyE2EEcvbEv(ptr noundef nonnull align 8 dereferenceable(16) %6) #3, !dbg !6305
  br i1 %32, label %33, label %153, !dbg !6307

33:                                               ; preds = %2
  %34 = call noundef ptr @_ZNKSt19__shared_ptr_accessI15TerminatingPollLN9__gnu_cxx12_Lock_policyE2ELb0ELb0EEptEv(ptr noundef nonnull align 1 dereferenceable(1) %6) #3, !dbg !6308
  %35 = invoke noundef zeroext i1 @_ZNK10SocketPoll7isAliveEv(ptr noundef nonnull align 8 dereferenceable(232) %34)
          to label %36 unwind label %104, !dbg !6309

36:                                               ; preds = %33
  br i1 %35, label %37, label %153, !dbg !6310

37:                                               ; preds = %36
  call void @llvm.dbg.declare(metadata ptr %9, metadata !6311, metadata !DIExpression()), !dbg !6314
  call void @llvm.dbg.declare(metadata ptr %10, metadata !6315, metadata !DIExpression()), !dbg !6316
  %38 = getelementptr inbounds [2 x i32], ptr %9, i64 0, i64 0, !dbg !6317
  %39 = call i32 @socketpair(i32 noundef 1, i32 noundef 526337, i32 noundef 0, ptr noundef %38) #3, !dbg !6318
  store i32 %39, ptr %10, align 4, !dbg !6316
  call void @llvm.dbg.declare(metadata ptr %11, metadata !6319, metadata !DIExpression()), !dbg !6320
  %40 = getelementptr inbounds [2 x i32], ptr %9, i64 0, i64 0, !dbg !6321
  %41 = load i32, ptr %40, align 4, !dbg !6321
  store i32 %41, ptr %11, align 4, !dbg !6320
  call void @llvm.dbg.declare(metadata ptr %12, metadata !6322, metadata !DIExpression()), !dbg !6323
  %42 = getelementptr inbounds [2 x i32], ptr %9, i64 0, i64 1, !dbg !6324
  %43 = load i32, ptr %42, align 4, !dbg !6324
  store i32 %43, ptr %12, align 4, !dbg !6323
  call void @llvm.dbg.declare(metadata ptr %13, metadata !6325, metadata !DIExpression()), !dbg !6326
  invoke void @_ZSt11make_sharedI11DelaySocketJRiS1_EESt10shared_ptrIT_EDpOT0_(ptr sret(%"class.std::shared_ptr.18") align 8 %13, ptr noundef nonnull align 4 dereferenceable(4) %4, ptr noundef nonnull align 4 dereferenceable(4) %5)
          to label %44 unwind label %104, !dbg !6327

44:                                               ; preds = %37
  call void @llvm.dbg.declare(metadata ptr %14, metadata !6328, metadata !DIExpression()), !dbg !6329
  invoke void @_ZSt11make_sharedI11DelaySocketJRiS1_EESt10shared_ptrIT_EDpOT0_(ptr sret(%"class.std::shared_ptr.18") align 8 %14, ptr noundef nonnull align 4 dereferenceable(4) %4, ptr noundef nonnull align 4 dereferenceable(4) %11)
          to label %45 unwind label %108, !dbg !6330

45:                                               ; preds = %44
  %46 = call noundef ptr @_ZNKSt19__shared_ptr_accessI11DelaySocketLN9__gnu_cxx12_Lock_policyE2ELb0ELb0EEptEv(ptr noundef nonnull align 1 dereferenceable(1) %13) #3, !dbg !6331
  invoke void @_ZN11DelaySocket14setDestinationERKSt10shared_ptrIS_E(ptr noundef nonnull align 8 dereferenceable(120) %46, ptr noundef nonnull align 8 dereferenceable(16) %14)
          to label %47 unwind label %112, !dbg !6332

47:                                               ; preds = %45
  %48 = call noundef ptr @_ZNKSt19__shared_ptr_accessI11DelaySocketLN9__gnu_cxx12_Lock_policyE2ELb0ELb0EEptEv(ptr noundef nonnull align 1 dereferenceable(1) %14) #3, !dbg !6333
  invoke void @_ZN11DelaySocket14setDestinationERKSt10shared_ptrIS_E(ptr noundef nonnull align 8 dereferenceable(120) %48, ptr noundef nonnull align 8 dereferenceable(16) %13)
          to label %49 unwind label %112, !dbg !6334

49:                                               ; preds = %47
  %50 = call noundef ptr @_ZNKSt19__shared_ptr_accessI15TerminatingPollLN9__gnu_cxx12_Lock_policyE2ELb0ELb0EEptEv(ptr noundef nonnull align 1 dereferenceable(1) %6) #3, !dbg !6335
  call void @_ZNSt10shared_ptrI6SocketEC2I11DelaySocketvEERKS_IT_E(ptr noundef nonnull align 8 dereferenceable(16) %15, ptr noundef nonnull align 8 dereferenceable(16) %13) #3, !dbg !6336
  invoke void @_ZN10SocketPoll15insertNewSocketESt10shared_ptrI6SocketE(ptr noundef nonnull align 8 dereferenceable(232) %50, ptr noundef %15)
          to label %51 unwind label %116, !dbg !6337

51:                                               ; preds = %49
  call void @_ZNSt10shared_ptrI6SocketED2Ev(ptr noundef nonnull align 8 dereferenceable(16) %15) #3, !dbg !6335
  %52 = call noundef ptr @_ZNKSt19__shared_ptr_accessI15TerminatingPollLN9__gnu_cxx12_Lock_policyE2ELb0ELb0EEptEv(ptr noundef nonnull align 1 dereferenceable(1) %6) #3, !dbg !6338
  call void @_ZNSt10shared_ptrI6SocketEC2I11DelaySocketvEERKS_IT_E(ptr noundef nonnull align 8 dereferenceable(16) %16, ptr noundef nonnull align 8 dereferenceable(16) %14) #3, !dbg !6339
  invoke void @_ZN10SocketPoll15insertNewSocketESt10shared_ptrI6SocketE(ptr noundef nonnull align 8 dereferenceable(232) %52, ptr noundef %16)
          to label %53 unwind label %120, !dbg !6340

53:                                               ; preds = %51
  call void @_ZNSt10shared_ptrI6SocketED2Ev(ptr noundef nonnull align 8 dereferenceable(16) %16) #3, !dbg !6338
  br label %54, !dbg !6341

54:                                               ; preds = %53
  call void @llvm.dbg.declare(metadata ptr %17, metadata !6342, metadata !DIExpression()), !dbg !6347
  %55 = invoke noundef nonnull align 8 dereferenceable(68) ptr @_ZN3Log6loggerEv()
          to label %56 unwind label %112, !dbg !6347

56:                                               ; preds = %54
  store ptr %55, ptr %17, align 8, !dbg !6347
  %57 = invoke noundef zeroext i1 @_ZN3Log16isShutdownCalledEv()
          to label %58 unwind label %112, !dbg !6348

58:                                               ; preds = %56
  br i1 %57, label %147, label %59, !dbg !6348

59:                                               ; preds = %58
  %60 = load ptr, ptr %17, align 8, !dbg !6348
  %61 = invoke noundef zeroext i1 @_ZNK4Poco6Logger5traceEv(ptr noundef nonnull align 8 dereferenceable(68) %60)
          to label %62 unwind label %112, !dbg !6348

62:                                               ; preds = %59
  br i1 %61, label %63, label %147, !dbg !6347

63:                                               ; preds = %62
  call void @llvm.dbg.declare(metadata ptr %18, metadata !6350, metadata !DIExpression()), !dbg !6355
  call void @llvm.dbg.declare(metadata ptr %19, metadata !6356, metadata !DIExpression()), !dbg !6355
  %64 = getelementptr inbounds [1024 x i8], ptr %18, i64 0, i64 0, !dbg !6355
  %65 = invoke noundef ptr @_ZN3Log6prefixILi1023EEEPcS1_PKc(ptr noundef %64, ptr noundef @.str)
          to label %66 unwind label %112, !dbg !6355

66:                                               ; preds = %63
  call void @_ZNSaIcEC1Ev(ptr noundef nonnull align 1 dereferenceable(1) %21) #3, !dbg !6355
  invoke void @_ZNSt7__cxx1112basic_stringIcSt11char_traitsIcESaIcEEC2IS3_EEPKcRKS3_(ptr noundef nonnull align 8 dereferenceable(32) %20, ptr noundef %65, ptr noundef nonnull align 1 dereferenceable(1) %21)
          to label %67 unwind label %124, !dbg !6355

67:                                               ; preds = %66
  invoke void @_ZNSt7__cxx1119basic_ostringstreamIcSt11char_traitsIcESaIcEEC1ERKNS_12basic_stringIcS2_S3_EESt13_Ios_Openmode(ptr noundef nonnull align 8 dereferenceable(112) %19, ptr noundef nonnull align 8 dereferenceable(32) %20, i32 noundef 2)
          to label %68 unwind label %128, !dbg !6355

68:                                               ; preds = %67
  call void @_ZNSt7__cxx1112basic_stringIcSt11char_traitsIcESaIcEED1Ev(ptr noundef nonnull align 8 dereferenceable(32) %20) #3, !dbg !6355
  call void @_ZNSaIcED1Ev(ptr noundef nonnull align 1 dereferenceable(1) %21) #3, !dbg !6355
  %69 = invoke noundef nonnull align 8 dereferenceable(8) ptr @_ZNSolsEPFRSt8ios_baseS0_E(ptr noundef nonnull align 8 dereferenceable(8) %19, ptr noundef @_ZSt9boolalphaRSt8ios_base)
          to label %70 unwind label %133, !dbg !6355

70:                                               ; preds = %68
  %71 = invoke noundef nonnull align 8 dereferenceable(8) ptr @_ZStlsISt11char_traitsIcEERSt13basic_ostreamIcT_ES5_PKc(ptr noundef nonnull align 8 dereferenceable(8) %69, ptr noundef @.str.3)
          to label %72 unwind label %133, !dbg !6355

72:                                               ; preds = %70
  %73 = load i32, ptr %5, align 4, !dbg !6355
  %74 = invoke noundef nonnull align 8 dereferenceable(8) ptr @_ZNSolsEi(ptr noundef nonnull align 8 dereferenceable(8) %71, i32 noundef %73)
          to label %75 unwind label %133, !dbg !6355

75:                                               ; preds = %72
  %76 = invoke noundef nonnull align 8 dereferenceable(8) ptr @_ZStlsISt11char_traitsIcEERSt13basic_ostreamIcT_ES5_PKc(ptr noundef nonnull align 8 dereferenceable(8) %74, ptr noundef @.str.4)
          to label %77 unwind label %133, !dbg !6355

77:                                               ; preds = %75
  %78 = load i32, ptr %11, align 4, !dbg !6355
  %79 = invoke noundef nonnull align 8 dereferenceable(8) ptr @_ZNSolsEi(ptr noundef nonnull align 8 dereferenceable(8) %76, i32 noundef %78)
          to label %80 unwind label %133, !dbg !6355

80:                                               ; preds = %77
  br label %81, !dbg !6355

81:                                               ; preds = %80
  %82 = invoke noundef nonnull align 8 dereferenceable(8) ptr @_ZStlsISt11char_traitsIcEERSt13basic_ostreamIcT_ES5_PKc(ptr noundef nonnull align 8 dereferenceable(8) %19, ptr noundef @.str.5)
          to label %83 unwind label %133, !dbg !6360

83:                                               ; preds = %81
  %84 = invoke noundef nonnull align 8 dereferenceable(8) ptr @_ZStlsISt11char_traitsIcEERSt13basic_ostreamIcT_ES5_PKc(ptr noundef nonnull align 8 dereferenceable(8) %82, ptr noundef @.str.6)
          to label %85 unwind label %133, !dbg !6360

85:                                               ; preds = %83
  %86 = invoke noundef nonnull align 8 dereferenceable(8) ptr @_ZStlsISt11char_traitsIcEERSt13basic_ostreamIcT_ES5_c(ptr noundef nonnull align 8 dereferenceable(8) %84, i8 noundef signext 58)
          to label %87 unwind label %133, !dbg !6360

87:                                               ; preds = %85
  %88 = invoke noundef nonnull align 8 dereferenceable(8) ptr @_ZNSolsEi(ptr noundef nonnull align 8 dereferenceable(8) %86, i32 noundef 268)
          to label %89 unwind label %133, !dbg !6360

89:                                               ; preds = %87
  %90 = invoke noundef nonnull align 8 dereferenceable(8) ptr @_ZNSo5flushEv(ptr noundef nonnull align 8 dereferenceable(8) %19)
          to label %91 unwind label %133, !dbg !6363

91:                                               ; preds = %89
  br label %92, !dbg !6363

92:                                               ; preds = %91
  br label %93, !dbg !6363

93:                                               ; preds = %92
  %94 = load ptr, ptr %17, align 8, !dbg !6355
  %95 = load ptr, ptr %17, align 8, !dbg !6355
  %96 = invoke noundef nonnull align 8 dereferenceable(32) ptr @_ZNK4Poco6Logger4nameB5cxx11Ev(ptr noundef nonnull align 8 dereferenceable(68) %95)
          to label %97 unwind label %133, !dbg !6355

97:                                               ; preds = %93
  invoke void @_ZNKSt7__cxx1119basic_ostringstreamIcSt11char_traitsIcESaIcEE3strEv(ptr sret(%"class.std::__cxx11::basic_string") align 8 %23, ptr noundef nonnull align 8 dereferenceable(112) %19)
          to label %98 unwind label %133, !dbg !6355

98:                                               ; preds = %97
  invoke void @_ZN4Poco7MessageC1ERKNSt7__cxx1112basic_stringIcSt11char_traitsIcESaIcEEES8_NS0_8PriorityE(ptr noundef nonnull align 8 dereferenceable(152) %22, ptr noundef nonnull align 8 dereferenceable(32) %96, ptr noundef nonnull align 8 dereferenceable(32) %23, i32 noundef 8)
          to label %99 unwind label %137, !dbg !6355

99:                                               ; preds = %98
  %100 = load ptr, ptr %94, align 8, !dbg !6355
  %101 = getelementptr inbounds ptr, ptr %100, i64 6, !dbg !6355
  %102 = load ptr, ptr %101, align 8, !dbg !6355
  invoke void %102(ptr noundef nonnull align 8 dereferenceable(68) %94, ptr noundef nonnull align 8 dereferenceable(152) %22)
          to label %103 unwind label %141, !dbg !6355

103:                                              ; preds = %99
  call void @_ZN4Poco7MessageD1Ev(ptr noundef nonnull align 8 dereferenceable(152) %22) #3, !dbg !6355
  call void @_ZNSt7__cxx1112basic_stringIcSt11char_traitsIcESaIcEED1Ev(ptr noundef nonnull align 8 dereferenceable(32) %23) #3, !dbg !6355
  call void @_ZNSt7__cxx1119basic_ostringstreamIcSt11char_traitsIcESaIcEED1Ev(ptr noundef nonnull align 8 dereferenceable(112) %19) #3, !dbg !6348
  br label %147, !dbg !6355

104:                                              ; preds = %163, %159, %156, %154, %37, %33
  %105 = landingpad { ptr, i32 }
          cleanup, !dbg !6364
  %106 = extractvalue { ptr, i32 } %105, 0, !dbg !6364
  store ptr %106, ptr %7, align 8, !dbg !6364
  %107 = extractvalue { ptr, i32 } %105, 1, !dbg !6364
  store i32 %107, ptr %8, align 4, !dbg !6364
  br label %230, !dbg !6364

108:                                              ; preds = %44
  %109 = landingpad { ptr, i32 }
          cleanup, !dbg !6365
  %110 = extractvalue { ptr, i32 } %109, 0, !dbg !6365
  store ptr %110, ptr %7, align 8, !dbg !6365
  %111 = extractvalue { ptr, i32 } %109, 1, !dbg !6365
  store i32 %111, ptr %8, align 4, !dbg !6365
  br label %152, !dbg !6365

112:                                              ; preds = %63, %59, %56, %54, %47, %45
  %113 = landingpad { ptr, i32 }
          cleanup, !dbg !6365
  %114 = extractvalue { ptr, i32 } %113, 0, !dbg !6365
  store ptr %114, ptr %7, align 8, !dbg !6365
  %115 = extractvalue { ptr, i32 } %113, 1, !dbg !6365
  store i32 %115, ptr %8, align 4, !dbg !6365
  br label %151, !dbg !6365

116:                                              ; preds = %49
  %117 = landingpad { ptr, i32 }
          cleanup, !dbg !6365
  %118 = extractvalue { ptr, i32 } %117, 0, !dbg !6365
  store ptr %118, ptr %7, align 8, !dbg !6365
  %119 = extractvalue { ptr, i32 } %117, 1, !dbg !6365
  store i32 %119, ptr %8, align 4, !dbg !6365
  call void @_ZNSt10shared_ptrI6SocketED2Ev(ptr noundef nonnull align 8 dereferenceable(16) %15) #3, !dbg !6335
  br label %151, !dbg !6335

120:                                              ; preds = %51
  %121 = landingpad { ptr, i32 }
          cleanup, !dbg !6365
  %122 = extractvalue { ptr, i32 } %121, 0, !dbg !6365
  store ptr %122, ptr %7, align 8, !dbg !6365
  %123 = extractvalue { ptr, i32 } %121, 1, !dbg !6365
  store i32 %123, ptr %8, align 4, !dbg !6365
  call void @_ZNSt10shared_ptrI6SocketED2Ev(ptr noundef nonnull align 8 dereferenceable(16) %16) #3, !dbg !6338
  br label %151, !dbg !6338

124:                                              ; preds = %66
  %125 = landingpad { ptr, i32 }
          cleanup, !dbg !6366
  %126 = extractvalue { ptr, i32 } %125, 0, !dbg !6366
  store ptr %126, ptr %7, align 8, !dbg !6366
  %127 = extractvalue { ptr, i32 } %125, 1, !dbg !6366
  store i32 %127, ptr %8, align 4, !dbg !6366
  br label %132, !dbg !6366

128:                                              ; preds = %67
  %129 = landingpad { ptr, i32 }
          cleanup, !dbg !6366
  %130 = extractvalue { ptr, i32 } %129, 0, !dbg !6366
  store ptr %130, ptr %7, align 8, !dbg !6366
  %131 = extractvalue { ptr, i32 } %129, 1, !dbg !6366
  store i32 %131, ptr %8, align 4, !dbg !6366
  call void @_ZNSt7__cxx1112basic_stringIcSt11char_traitsIcESaIcEED1Ev(ptr noundef nonnull align 8 dereferenceable(32) %20) #3, !dbg !6355
  br label %132, !dbg !6355

132:                                              ; preds = %128, %124
  call void @_ZNSaIcED1Ev(ptr noundef nonnull align 1 dereferenceable(1) %21) #3, !dbg !6355
  br label %151, !dbg !6355

133:                                              ; preds = %97, %93, %89, %87, %85, %83, %81, %77, %75, %72, %70, %68
  %134 = landingpad { ptr, i32 }
          cleanup, !dbg !6366
  %135 = extractvalue { ptr, i32 } %134, 0, !dbg !6366
  store ptr %135, ptr %7, align 8, !dbg !6366
  %136 = extractvalue { ptr, i32 } %134, 1, !dbg !6366
  store i32 %136, ptr %8, align 4, !dbg !6366
  br label %146, !dbg !6366

137:                                              ; preds = %98
  %138 = landingpad { ptr, i32 }
          cleanup, !dbg !6366
  %139 = extractvalue { ptr, i32 } %138, 0, !dbg !6366
  store ptr %139, ptr %7, align 8, !dbg !6366
  %140 = extractvalue { ptr, i32 } %138, 1, !dbg !6366
  store i32 %140, ptr %8, align 4, !dbg !6366
  br label %145, !dbg !6366

141:                                              ; preds = %99
  %142 = landingpad { ptr, i32 }
          cleanup, !dbg !6366
  %143 = extractvalue { ptr, i32 } %142, 0, !dbg !6366
  store ptr %143, ptr %7, align 8, !dbg !6366
  %144 = extractvalue { ptr, i32 } %142, 1, !dbg !6366
  store i32 %144, ptr %8, align 4, !dbg !6366
  call void @_ZN4Poco7MessageD1Ev(ptr noundef nonnull align 8 dereferenceable(152) %22) #3, !dbg !6355
  br label %145, !dbg !6355

145:                                              ; preds = %141, %137
  call void @_ZNSt7__cxx1112basic_stringIcSt11char_traitsIcESaIcEED1Ev(ptr noundef nonnull align 8 dereferenceable(32) %23) #3, !dbg !6355
  br label %146, !dbg !6355

146:                                              ; preds = %145, %133
  call void @_ZNSt7__cxx1119basic_ostringstreamIcSt11char_traitsIcESaIcEED1Ev(ptr noundef nonnull align 8 dereferenceable(112) %19) #3, !dbg !6348
  br label %151, !dbg !6348

147:                                              ; preds = %103, %62, %58
  br label %148, !dbg !6347

148:                                              ; preds = %147
  br label %149, !dbg !6347

149:                                              ; preds = %148
  %150 = load i32, ptr %12, align 4, !dbg !6367
  store i32 %150, ptr %3, align 4, !dbg !6368
  store i32 1, ptr %24, align 4
  call void @_ZNSt10shared_ptrI11DelaySocketED2Ev(ptr noundef nonnull align 8 dereferenceable(16) %14) #3, !dbg !6369
  call void @_ZNSt10shared_ptrI11DelaySocketED2Ev(ptr noundef nonnull align 8 dereferenceable(16) %13) #3, !dbg !6369
  br label %228

151:                                              ; preds = %146, %132, %120, %116, %112
  call void @_ZNSt10shared_ptrI11DelaySocketED2Ev(ptr noundef nonnull align 8 dereferenceable(16) %14) #3, !dbg !6369
  br label %152, !dbg !6369

152:                                              ; preds = %151, %108
  call void @_ZNSt10shared_ptrI11DelaySocketED2Ev(ptr noundef nonnull align 8 dereferenceable(16) %13) #3, !dbg !6369
  br label %230, !dbg !6369

153:                                              ; preds = %36, %2
  br label %154, !dbg !6370

154:                                              ; preds = %153
  call void @llvm.dbg.declare(metadata ptr %25, metadata !6372, metadata !DIExpression()), !dbg !6374
  %155 = invoke noundef nonnull align 8 dereferenceable(68) ptr @_ZN3Log6loggerEv()
          to label %156 unwind label %104, !dbg !6374

156:                                              ; preds = %154
  store ptr %155, ptr %25, align 8, !dbg !6374
  %157 = invoke noundef zeroext i1 @_ZN3Log16isShutdownCalledEv()
          to label %158 unwind label %104, !dbg !6375

158:                                              ; preds = %156
  br i1 %157, label %224, label %159, !dbg !6375

159:                                              ; preds = %158
  %160 = load ptr, ptr %25, align 8, !dbg !6375
  %161 = invoke noundef zeroext i1 @_ZNK4Poco6Logger5errorEv(ptr noundef nonnull align 8 dereferenceable(68) %160)
          to label %162 unwind label %104, !dbg !6375

162:                                              ; preds = %159
  br i1 %161, label %163, label %224, !dbg !6374

163:                                              ; preds = %162
  call void @llvm.dbg.declare(metadata ptr %26, metadata !6377, metadata !DIExpression()), !dbg !6379
  call void @llvm.dbg.declare(metadata ptr %27, metadata !6380, metadata !DIExpression()), !dbg !6379
  %164 = getelementptr inbounds [1024 x i8], ptr %26, i64 0, i64 0, !dbg !6379
  %165 = invoke noundef ptr @_ZN3Log6prefixILi1023EEEPcS1_PKc(ptr noundef %164, ptr noundef @.str.7)
          to label %166 unwind label %104, !dbg !6379

166:                                              ; preds = %163
  call void @_ZNSaIcEC1Ev(ptr noundef nonnull align 1 dereferenceable(1) %29) #3, !dbg !6379
  invoke void @_ZNSt7__cxx1112basic_stringIcSt11char_traitsIcESaIcEEC2IS3_EEPKcRKS3_(ptr noundef nonnull align 8 dereferenceable(32) %28, ptr noundef %165, ptr noundef nonnull align 1 dereferenceable(1) %29)
          to label %167 unwind label %201, !dbg !6379

167:                                              ; preds = %166
  invoke void @_ZNSt7__cxx1119basic_ostringstreamIcSt11char_traitsIcESaIcEEC1ERKNS_12basic_stringIcS2_S3_EESt13_Ios_Openmode(ptr noundef nonnull align 8 dereferenceable(112) %27, ptr noundef nonnull align 8 dereferenceable(32) %28, i32 noundef 2)
          to label %168 unwind label %205, !dbg !6379

168:                                              ; preds = %167
  call void @_ZNSt7__cxx1112basic_stringIcSt11char_traitsIcESaIcEED1Ev(ptr noundef nonnull align 8 dereferenceable(32) %28) #3, !dbg !6379
  call void @_ZNSaIcED1Ev(ptr noundef nonnull align 1 dereferenceable(1) %29) #3, !dbg !6379
  %169 = invoke noundef nonnull align 8 dereferenceable(8) ptr @_ZNSolsEPFRSt8ios_baseS0_E(ptr noundef nonnull align 8 dereferenceable(8) %27, ptr noundef @_ZSt9boolalphaRSt8ios_base)
          to label %170 unwind label %210, !dbg !6379

170:                                              ; preds = %168
  %171 = invoke noundef nonnull align 8 dereferenceable(8) ptr @_ZStlsISt11char_traitsIcEERSt13basic_ostreamIcT_ES5_PKc(ptr noundef nonnull align 8 dereferenceable(8) %169, ptr noundef @.str.8)
          to label %172 unwind label %210, !dbg !6379

172:                                              ; preds = %170
  %173 = load i32, ptr %5, align 4, !dbg !6379
  %174 = invoke noundef nonnull align 8 dereferenceable(8) ptr @_ZNSolsEi(ptr noundef nonnull align 8 dereferenceable(8) %171, i32 noundef %173)
          to label %175 unwind label %210, !dbg !6379

175:                                              ; preds = %172
  %176 = invoke noundef nonnull align 8 dereferenceable(8) ptr @_ZStlsISt11char_traitsIcEERSt13basic_ostreamIcT_ES5_PKc(ptr noundef nonnull align 8 dereferenceable(8) %174, ptr noundef @.str.9)
          to label %177 unwind label %210, !dbg !6379

177:                                              ; preds = %175
  br label %178, !dbg !6379

178:                                              ; preds = %177
  %179 = invoke noundef nonnull align 8 dereferenceable(8) ptr @_ZStlsISt11char_traitsIcEERSt13basic_ostreamIcT_ES5_PKc(ptr noundef nonnull align 8 dereferenceable(8) %27, ptr noundef @.str.5)
          to label %180 unwind label %210, !dbg !6381

180:                                              ; preds = %178
  %181 = invoke noundef nonnull align 8 dereferenceable(8) ptr @_ZStlsISt11char_traitsIcEERSt13basic_ostreamIcT_ES5_PKc(ptr noundef nonnull align 8 dereferenceable(8) %179, ptr noundef @.str.6)
          to label %182 unwind label %210, !dbg !6381

182:                                              ; preds = %180
  %183 = invoke noundef nonnull align 8 dereferenceable(8) ptr @_ZStlsISt11char_traitsIcEERSt13basic_ostreamIcT_ES5_c(ptr noundef nonnull align 8 dereferenceable(8) %181, i8 noundef signext 58)
          to label %184 unwind label %210, !dbg !6381

184:                                              ; preds = %182
  %185 = invoke noundef nonnull align 8 dereferenceable(8) ptr @_ZNSolsEi(ptr noundef nonnull align 8 dereferenceable(8) %183, i32 noundef 274)
          to label %186 unwind label %210, !dbg !6381

186:                                              ; preds = %184
  %187 = invoke noundef nonnull align 8 dereferenceable(8) ptr @_ZNSo5flushEv(ptr noundef nonnull align 8 dereferenceable(8) %27)
          to label %188 unwind label %210, !dbg !6384

188:                                              ; preds = %186
  br label %189, !dbg !6384

189:                                              ; preds = %188
  br label %190, !dbg !6384

190:                                              ; preds = %189
  %191 = load ptr, ptr %25, align 8, !dbg !6379
  %192 = load ptr, ptr %25, align 8, !dbg !6379
  %193 = invoke noundef nonnull align 8 dereferenceable(32) ptr @_ZNK4Poco6Logger4nameB5cxx11Ev(ptr noundef nonnull align 8 dereferenceable(68) %192)
          to label %194 unwind label %210, !dbg !6379

194:                                              ; preds = %190
  invoke void @_ZNKSt7__cxx1119basic_ostringstreamIcSt11char_traitsIcESaIcEE3strEv(ptr sret(%"class.std::__cxx11::basic_string") align 8 %31, ptr noundef nonnull align 8 dereferenceable(112) %27)
          to label %195 unwind label %210, !dbg !6379

195:                                              ; preds = %194
  invoke void @_ZN4Poco7MessageC1ERKNSt7__cxx1112basic_stringIcSt11char_traitsIcESaIcEEES8_NS0_8PriorityE(ptr noundef nonnull align 8 dereferenceable(152) %30, ptr noundef nonnull align 8 dereferenceable(32) %193, ptr noundef nonnull align 8 dereferenceable(32) %31, i32 noundef 3)
          to label %196 unwind label %214, !dbg !6379

196:                                              ; preds = %195
  %197 = load ptr, ptr %191, align 8, !dbg !6379
  %198 = getelementptr inbounds ptr, ptr %197, i64 6, !dbg !6379
  %199 = load ptr, ptr %198, align 8, !dbg !6379
  invoke void %199(ptr noundef nonnull align 8 dereferenceable(68) %191, ptr noundef nonnull align 8 dereferenceable(152) %30)
          to label %200 unwind label %218, !dbg !6379

200:                                              ; preds = %196
  call void @_ZN4Poco7MessageD1Ev(ptr noundef nonnull align 8 dereferenceable(152) %30) #3, !dbg !6379
  call void @_ZNSt7__cxx1112basic_stringIcSt11char_traitsIcESaIcEED1Ev(ptr noundef nonnull align 8 dereferenceable(32) %31) #3, !dbg !6379
  call void @_ZNSt7__cxx1119basic_ostringstreamIcSt11char_traitsIcESaIcEED1Ev(ptr noundef nonnull align 8 dereferenceable(112) %27) #3, !dbg !6375
  br label %224, !dbg !6379

201:                                              ; preds = %166
  %202 = landingpad { ptr, i32 }
          cleanup, !dbg !6385
  %203 = extractvalue { ptr, i32 } %202, 0, !dbg !6385
  store ptr %203, ptr %7, align 8, !dbg !6385
  %204 = extractvalue { ptr, i32 } %202, 1, !dbg !6385
  store i32 %204, ptr %8, align 4, !dbg !6385
  br label %209, !dbg !6385

205:                                              ; preds = %167
  %206 = landingpad { ptr, i32 }
          cleanup, !dbg !6385
  %207 = extractvalue { ptr, i32 } %206, 0, !dbg !6385
  store ptr %207, ptr %7, align 8, !dbg !6385
  %208 = extractvalue { ptr, i32 } %206, 1, !dbg !6385
  store i32 %208, ptr %8, align 4, !dbg !6385
  call void @_ZNSt7__cxx1112basic_stringIcSt11char_traitsIcESaIcEED1Ev(ptr noundef nonnull align 8 dereferenceable(32) %28) #3, !dbg !6379
  br label %209, !dbg !6379

209:                                              ; preds = %205, %201
  call void @_ZNSaIcED1Ev(ptr noundef nonnull align 1 dereferenceable(1) %29) #3, !dbg !6379
  br label %230, !dbg !6379

210:                                              ; preds = %194, %190, %186, %184, %182, %180, %178, %175, %172, %170, %168
  %211 = landingpad { ptr, i32 }
          cleanup, !dbg !6385
  %212 = extractvalue { ptr, i32 } %211, 0, !dbg !6385
  store ptr %212, ptr %7, align 8, !dbg !6385
  %213 = extractvalue { ptr, i32 } %211, 1, !dbg !6385
  store i32 %213, ptr %8, align 4, !dbg !6385
  br label %223, !dbg !6385

214:                                              ; preds = %195
  %215 = landingpad { ptr, i32 }
          cleanup, !dbg !6385
  %216 = extractvalue { ptr, i32 } %215, 0, !dbg !6385
  store ptr %216, ptr %7, align 8, !dbg !6385
  %217 = extractvalue { ptr, i32 } %215, 1, !dbg !6385
  store i32 %217, ptr %8, align 4, !dbg !6385
  br label %222, !dbg !6385

218:                                              ; preds = %196
  %219 = landingpad { ptr, i32 }
          cleanup, !dbg !6385
  %220 = extractvalue { ptr, i32 } %219, 0, !dbg !6385
  store ptr %220, ptr %7, align 8, !dbg !6385
  %221 = extractvalue { ptr, i32 } %219, 1, !dbg !6385
  store i32 %221, ptr %8, align 4, !dbg !6385
  call void @_ZN4Poco7MessageD1Ev(ptr noundef nonnull align 8 dereferenceable(152) %30) #3, !dbg !6379
  br label %222, !dbg !6379

222:                                              ; preds = %218, %214
  call void @_ZNSt7__cxx1112basic_stringIcSt11char_traitsIcESaIcEED1Ev(ptr noundef nonnull align 8 dereferenceable(32) %31) #3, !dbg !6379
  br label %223, !dbg !6379

223:                                              ; preds = %222, %210
  call void @_ZNSt7__cxx1119basic_ostringstreamIcSt11char_traitsIcESaIcEED1Ev(ptr noundef nonnull align 8 dereferenceable(112) %27) #3, !dbg !6375
  br label %230, !dbg !6375

224:                                              ; preds = %200, %162, %158
  br label %225, !dbg !6374

225:                                              ; preds = %224
  br label %226, !dbg !6374

226:                                              ; preds = %225
  br label %227

227:                                              ; preds = %226
  store i32 -1, ptr %3, align 4, !dbg !6386
  store i32 1, ptr %24, align 4
  br label %228, !dbg !6386

228:                                              ; preds = %227, %149
  call void @_ZNSt10shared_ptrI15TerminatingPollED2Ev(ptr noundef nonnull align 8 dereferenceable(16) %6) #3, !dbg !6387
  %229 = load i32, ptr %3, align 4, !dbg !6387
  ret i32 %229, !dbg !6387

230:                                              ; preds = %223, %209, %152, %104
  call void @_ZNSt10shared_ptrI15TerminatingPollED2Ev(ptr noundef nonnull align 8 dereferenceable(16) %6) #3, !dbg !6387
  br label %231, !dbg !6387

231:                                              ; preds = %230
  %232 = load ptr, ptr %7, align 8, !dbg !6387
  %233 = load i32, ptr %8, align 4, !dbg !6387
  %234 = insertvalue { ptr, i32 } poison, ptr %232, 0, !dbg !6387
  %235 = insertvalue { ptr, i32 } %234, i32 %233, 1, !dbg !6387
  resume { ptr, i32 } %235, !dbg !6387
}

; Function Attrs: noinline nounwind optnone uwtable
define linkonce_odr dso_local void @_ZNSt10shared_ptrI15TerminatingPollEC2ERKS1_(ptr noundef nonnull align 8 dereferenceable(16) %0, ptr noundef nonnull align 8 dereferenceable(16) %1) unnamed_addr #4 comdat align 2 !dbg !6388 {
  %3 = alloca ptr, align 8
  %4 = alloca ptr, align 8
  store ptr %0, ptr %3, align 8
  call void @llvm.dbg.declare(metadata ptr %3, metadata !6389, metadata !DIExpression()), !dbg !6390
  store ptr %1, ptr %4, align 8
  call void @llvm.dbg.declare(metadata ptr %4, metadata !6391, metadata !DIExpression()), !dbg !6392
  %5 = load ptr, ptr %3, align 8
  %6 = load ptr, ptr %4, align 8, !dbg !6393
  call void @_ZNSt12__shared_ptrI15TerminatingPollLN9__gnu_cxx12_Lock_policyE2EEC2ERKS3_(ptr noundef nonnull align 8 dereferenceable(16) %5, ptr noundef nonnull align 8 dereferenceable(16) %6) #3, !dbg !6393
  ret void, !dbg !6394
}

; Function Attrs: mustprogress noinline nounwind optnone uwtable
define linkonce_odr dso_local noundef zeroext i1 @_ZNKSt12__shared_ptrI15TerminatingPollLN9__gnu_cxx12_Lock_policyE2EEcvbEv(ptr noundef nonnull align 8 dereferenceable(16) %0) #8 comdat align 2 !dbg !6395 {
  %2 = alloca ptr, align 8
  store ptr %0, ptr %2, align 8
  call void @llvm.dbg.declare(metadata ptr %2, metadata !6396, metadata !DIExpression()), !dbg !6397
  %3 = load ptr, ptr %2, align 8
  %4 = getelementptr inbounds %"class.std::__shared_ptr.16", ptr %3, i32 0, i32 0, !dbg !6398
  %5 = load ptr, ptr %4, align 8, !dbg !6398
  %6 = icmp ne ptr %5, null, !dbg !6399
  ret i1 %6, !dbg !6400
}

; Function Attrs: mustprogress noinline nounwind optnone uwtable
define linkonce_odr dso_local noundef ptr @_ZNKSt19__shared_ptr_accessI15TerminatingPollLN9__gnu_cxx12_Lock_policyE2ELb0ELb0EEptEv(ptr noundef nonnull align 1 dereferenceable(1) %0) #8 comdat align 2 !dbg !6401 {
  %2 = alloca ptr, align 8
  store ptr %0, ptr %2, align 8
  call void @llvm.dbg.declare(metadata ptr %2, metadata !6402, metadata !DIExpression()), !dbg !6404
  %3 = load ptr, ptr %2, align 8
  %4 = call noundef ptr @_ZNKSt19__shared_ptr_accessI15TerminatingPollLN9__gnu_cxx12_Lock_policyE2ELb0ELb0EE6_M_getEv(ptr noundef nonnull align 1 dereferenceable(1) %3) #3, !dbg !6405
  ret ptr %4, !dbg !6406
}

; Function Attrs: mustprogress noinline nounwind optnone uwtable
define linkonce_odr dso_local noundef zeroext i1 @_ZNK10SocketPoll7isAliveEv(ptr noundef nonnull align 8 dereferenceable(232) %0) #8 comdat align 2 !dbg !6407 {
  %2 = alloca ptr, align 8
  store ptr %0, ptr %2, align 8
  call void @llvm.dbg.declare(metadata ptr %2, metadata !6413, metadata !DIExpression()), !dbg !6415
  %3 = load ptr, ptr %2, align 8
  %4 = getelementptr inbounds %class.SocketPoll, ptr %3, i32 0, i32 11, !dbg !6416
  %5 = call noundef i64 @_ZNKSt13__atomic_baseIlEcvlEv(ptr noundef nonnull align 8 dereferenceable(8) %4) #3, !dbg !6416
  %6 = icmp ne i64 %5, 0, !dbg !6416
  br i1 %6, label %7, label %10, !dbg !6417

7:                                                ; preds = %1
  %8 = getelementptr inbounds %class.SocketPoll, ptr %3, i32 0, i32 12, !dbg !6418
  %9 = call noundef zeroext i1 @_ZNKSt6atomicIbEcvbEv(ptr noundef nonnull align 1 dereferenceable(1) %8) #3, !dbg !6418
  br i1 %9, label %10, label %13, !dbg !6419

10:                                               ; preds = %7, %1
  %11 = getelementptr inbounds %class.SocketPoll, ptr %3, i32 0, i32 13, !dbg !6420
  %12 = call noundef zeroext i1 @_ZNKSt6atomicIbEcvbEv(ptr noundef nonnull align 1 dereferenceable(1) %11) #3, !dbg !6420
  br label %13, !dbg !6419

13:                                               ; preds = %10, %7
  %14 = phi i1 [ true, %7 ], [ %12, %10 ]
  ret i1 %14, !dbg !6421
}

declare i32 @__gxx_personality_v0(...)

; Function Attrs: nounwind
declare i32 @socketpair(i32 noundef, i32 noundef, i32 noundef, ptr noundef) #2

; Function Attrs: mustprogress noinline optnone uwtable
define linkonce_odr dso_local void @_ZSt11make_sharedI11DelaySocketJRiS1_EESt10shared_ptrIT_EDpOT0_(ptr noalias sret(%"class.std::shared_ptr.18") align 8 %0, ptr noundef nonnull align 4 dereferenceable(4) %1, ptr noundef nonnull align 4 dereferenceable(4) %2) #7 comdat personality ptr @__gxx_personality_v0 !dbg !6422 {
  %4 = alloca ptr, align 8
  %5 = alloca ptr, align 8
  %6 = alloca ptr, align 8
  %7 = alloca %"class.std::allocator.43", align 1
  %8 = alloca ptr, align 8
  %9 = alloca i32, align 4
  store ptr %0, ptr %4, align 8
  store ptr %1, ptr %5, align 8
  call void @llvm.dbg.declare(metadata ptr %5, metadata !6430, metadata !DIExpression()), !dbg !6431
  store ptr %2, ptr %6, align 8
  call void @llvm.dbg.declare(metadata ptr %6, metadata !6432, metadata !DIExpression()), !dbg !6431
  call void @_ZNSaI11DelaySocketEC2Ev(ptr noundef nonnull align 1 dereferenceable(1) %7) #3, !dbg !6433
  %10 = load ptr, ptr %5, align 8, !dbg !6434
  %11 = load ptr, ptr %6, align 8, !dbg !6434
  invoke void @_ZSt15allocate_sharedI11DelaySocketSaIS0_EJRiS2_EESt10shared_ptrIT_ERKT0_DpOT1_(ptr sret(%"class.std::shared_ptr.18") align 8 %0, ptr noundef nonnull align 1 dereferenceable(1) %7, ptr noundef nonnull align 4 dereferenceable(4) %10, ptr noundef nonnull align 4 dereferenceable(4) %11)
          to label %12 unwind label %13, !dbg !6435

12:                                               ; preds = %3
  call void @_ZNSaI11DelaySocketED2Ev(ptr noundef nonnull align 1 dereferenceable(1) %7) #3, !dbg !6436
  ret void, !dbg !6436

13:                                               ; preds = %3
  %14 = landingpad { ptr, i32 }
          cleanup, !dbg !6437
  %15 = extractvalue { ptr, i32 } %14, 0, !dbg !6437
  store ptr %15, ptr %8, align 8, !dbg !6437
  %16 = extractvalue { ptr, i32 } %14, 1, !dbg !6437
  store i32 %16, ptr %9, align 4, !dbg !6437
  call void @_ZNSaI11DelaySocketED2Ev(ptr noundef nonnull align 1 dereferenceable(1) %7) #3, !dbg !6436
  br label %17, !dbg !6436

17:                                               ; preds = %13
  %18 = load ptr, ptr %8, align 8, !dbg !6436
  %19 = load i32, ptr %9, align 4, !dbg !6436
  %20 = insertvalue { ptr, i32 } poison, ptr %18, 0, !dbg !6436
  %21 = insertvalue { ptr, i32 } %20, i32 %19, 1, !dbg !6436
  resume { ptr, i32 } %21, !dbg !6436
}

; Function Attrs: mustprogress noinline nounwind optnone uwtable
define linkonce_odr dso_local noundef ptr @_ZNKSt19__shared_ptr_accessI11DelaySocketLN9__gnu_cxx12_Lock_policyE2ELb0ELb0EEptEv(ptr noundef nonnull align 1 dereferenceable(1) %0) #8 comdat align 2 !dbg !6438 {
  %2 = alloca ptr, align 8
  store ptr %0, ptr %2, align 8
  call void @llvm.dbg.declare(metadata ptr %2, metadata !6439, metadata !DIExpression()), !dbg !6441
  %3 = load ptr, ptr %2, align 8
  %4 = call noundef ptr @_ZNKSt19__shared_ptr_accessI11DelaySocketLN9__gnu_cxx12_Lock_policyE2ELb0ELb0EE6_M_getEv(ptr noundef nonnull align 1 dereferenceable(1) %3) #3, !dbg !6442
  ret ptr %4, !dbg !6443
}

; Function Attrs: mustprogress noinline nounwind optnone uwtable
define linkonce_odr dso_local void @_ZN11DelaySocket14setDestinationERKSt10shared_ptrIS_E(ptr noundef nonnull align 8 dereferenceable(120) %0, ptr noundef nonnull align 8 dereferenceable(16) %1) #8 comdat align 2 !dbg !6444 {
  %3 = alloca ptr, align 8
  %4 = alloca ptr, align 8
  store ptr %0, ptr %3, align 8
  call void @llvm.dbg.declare(metadata ptr %3, metadata !6445, metadata !DIExpression()), !dbg !6446
  store ptr %1, ptr %4, align 8
  call void @llvm.dbg.declare(metadata ptr %4, metadata !6447, metadata !DIExpression()), !dbg !6448
  %5 = load ptr, ptr %3, align 8
  %6 = load ptr, ptr %4, align 8, !dbg !6449
  %7 = getelementptr inbounds %class.DelaySocket, ptr %5, i32 0, i32 3, !dbg !6450
  %8 = call noundef nonnull align 8 dereferenceable(16) ptr @_ZNSt10shared_ptrI11DelaySocketEaSERKS1_(ptr noundef nonnull align 8 dereferenceable(16) %7, ptr noundef nonnull align 8 dereferenceable(16) %6) #3, !dbg !6451
  ret void, !dbg !6452
}

; Function Attrs: mustprogress noinline optnone uwtable
define linkonce_odr dso_local void @_ZN10SocketPoll15insertNewSocketESt10shared_ptrI6SocketE(ptr noundef nonnull align 8 dereferenceable(232) %0, ptr noundef %1) #7 comdat align 2 personality ptr @__gxx_personality_v0 !dbg !6453 {
  %3 = alloca ptr, align 8
  %4 = alloca ptr, align 8
  %5 = alloca [1024 x i8], align 16
  %6 = alloca %"class.std::__cxx11::basic_ostringstream", align 8
  %7 = alloca %"class.std::__cxx11::basic_string", align 8
  %8 = alloca %"class.std::allocator", align 1
  %9 = alloca ptr, align 8
  %10 = alloca i32, align 4
  %11 = alloca %"class.Poco::Message", align 8
  %12 = alloca %"class.std::__cxx11::basic_string", align 8
  %13 = alloca %"class.std::lock_guard", align 8
  store ptr %0, ptr %3, align 8
  call void @llvm.dbg.declare(metadata ptr %3, metadata !6458, metadata !DIExpression()), !dbg !6460
  call void @llvm.dbg.declare(metadata ptr %1, metadata !6461, metadata !DIExpression()), !dbg !6462
  %14 = load ptr, ptr %3, align 8
  %15 = call noundef zeroext i1 @_ZNKSt12__shared_ptrI6SocketLN9__gnu_cxx12_Lock_policyE2EEcvbEv(ptr noundef nonnull align 8 dereferenceable(16) %1) #3, !dbg !6463
  br i1 %15, label %16, label %100, !dbg !6465

16:                                               ; preds = %2
  br label %17, !dbg !6466

17:                                               ; preds = %16
  call void @llvm.dbg.declare(metadata ptr %4, metadata !6468, metadata !DIExpression()), !dbg !6470
  %18 = call noundef nonnull align 8 dereferenceable(68) ptr @_ZN3Log6loggerEv(), !dbg !6470
  store ptr %18, ptr %4, align 8, !dbg !6470
  %19 = call noundef zeroext i1 @_ZN3Log16isShutdownCalledEv(), !dbg !6471
  br i1 %19, label %88, label %20, !dbg !6471

20:                                               ; preds = %17
  %21 = load ptr, ptr %4, align 8, !dbg !6471
  %22 = call noundef zeroext i1 @_ZNK4Poco6Logger5debugEv(ptr noundef nonnull align 8 dereferenceable(68) %21), !dbg !6471
  br i1 %22, label %23, label %88, !dbg !6470

23:                                               ; preds = %20
  call void @llvm.dbg.declare(metadata ptr %5, metadata !6473, metadata !DIExpression()), !dbg !6475
  call void @llvm.dbg.declare(metadata ptr %6, metadata !6476, metadata !DIExpression()), !dbg !6475
  %24 = getelementptr inbounds [1024 x i8], ptr %5, i64 0, i64 0, !dbg !6475
  %25 = call noundef ptr @_ZN3Log6prefixILi1023EEEPcS1_PKc(ptr noundef %24, ptr noundef @.str.12), !dbg !6475
  call void @_ZNSaIcEC1Ev(ptr noundef nonnull align 1 dereferenceable(1) %8) #3, !dbg !6475
  invoke void @_ZNSt7__cxx1112basic_stringIcSt11char_traitsIcESaIcEEC2IS3_EEPKcRKS3_(ptr noundef nonnull align 8 dereferenceable(32) %7, ptr noundef %25, ptr noundef nonnull align 1 dereferenceable(1) %8)
          to label %26 unwind label %65, !dbg !6475

26:                                               ; preds = %23
  invoke void @_ZNSt7__cxx1119basic_ostringstreamIcSt11char_traitsIcESaIcEEC1ERKNS_12basic_stringIcS2_S3_EESt13_Ios_Openmode(ptr noundef nonnull align 8 dereferenceable(112) %6, ptr noundef nonnull align 8 dereferenceable(32) %7, i32 noundef 2)
          to label %27 unwind label %69, !dbg !6475

27:                                               ; preds = %26
  call void @_ZNSt7__cxx1112basic_stringIcSt11char_traitsIcESaIcEED1Ev(ptr noundef nonnull align 8 dereferenceable(32) %7) #3, !dbg !6475
  call void @_ZNSaIcED1Ev(ptr noundef nonnull align 1 dereferenceable(1) %8) #3, !dbg !6475
  %28 = invoke noundef nonnull align 8 dereferenceable(8) ptr @_ZNSolsEPFRSt8ios_baseS0_E(ptr noundef nonnull align 8 dereferenceable(8) %6, ptr noundef @_ZSt9boolalphaRSt8ios_base)
          to label %29 unwind label %74, !dbg !6475

29:                                               ; preds = %27
  %30 = invoke noundef nonnull align 8 dereferenceable(8) ptr @_ZStlsISt11char_traitsIcEERSt13basic_ostreamIcT_ES5_PKc(ptr noundef nonnull align 8 dereferenceable(8) %28, ptr noundef @.str.13)
          to label %31 unwind label %74, !dbg !6475

31:                                               ; preds = %29
  %32 = call noundef ptr @_ZNKSt19__shared_ptr_accessI6SocketLN9__gnu_cxx12_Lock_policyE2ELb0ELb0EEptEv(ptr noundef nonnull align 1 dereferenceable(1) %1) #3, !dbg !6475
  %33 = invoke noundef i32 @_ZNK6Socket5getFDEv(ptr noundef nonnull align 8 dereferenceable(64) %32)
          to label %34 unwind label %74, !dbg !6475

34:                                               ; preds = %31
  %35 = invoke noundef nonnull align 8 dereferenceable(8) ptr @_ZNSolsEi(ptr noundef nonnull align 8 dereferenceable(8) %30, i32 noundef %33)
          to label %36 unwind label %74, !dbg !6475

36:                                               ; preds = %34
  %37 = invoke noundef nonnull align 8 dereferenceable(8) ptr @_ZStlsISt11char_traitsIcEERSt13basic_ostreamIcT_ES5_PKc(ptr noundef nonnull align 8 dereferenceable(8) %35, ptr noundef @.str.14)
          to label %38 unwind label %74, !dbg !6475

38:                                               ; preds = %36
  %39 = getelementptr inbounds %class.SocketPoll, ptr %14, i32 0, i32 1, !dbg !6475
  %40 = invoke noundef nonnull align 8 dereferenceable(8) ptr @_ZStlsIcSt11char_traitsIcESaIcEERSt13basic_ostreamIT_T0_ES7_RKNSt7__cxx1112basic_stringIS4_S5_T1_EE(ptr noundef nonnull align 8 dereferenceable(8) %37, ptr noundef nonnull align 8 dereferenceable(32) %39)
          to label %41 unwind label %74, !dbg !6475

41:                                               ; preds = %38
  br label %42, !dbg !6475

42:                                               ; preds = %41
  %43 = invoke noundef nonnull align 8 dereferenceable(8) ptr @_ZStlsISt11char_traitsIcEERSt13basic_ostreamIcT_ES5_PKc(ptr noundef nonnull align 8 dereferenceable(8) %6, ptr noundef @.str.5)
          to label %44 unwind label %74, !dbg !6477

44:                                               ; preds = %42
  %45 = invoke noundef nonnull align 8 dereferenceable(8) ptr @_ZStlsISt11char_traitsIcEERSt13basic_ostreamIcT_ES5_PKc(ptr noundef nonnull align 8 dereferenceable(8) %43, ptr noundef @.str.15)
          to label %46 unwind label %74, !dbg !6477

46:                                               ; preds = %44
  %47 = invoke noundef nonnull align 8 dereferenceable(8) ptr @_ZStlsISt11char_traitsIcEERSt13basic_ostreamIcT_ES5_c(ptr noundef nonnull align 8 dereferenceable(8) %45, i8 noundef signext 58)
          to label %48 unwind label %74, !dbg !6477

48:                                               ; preds = %46
  %49 = invoke noundef nonnull align 8 dereferenceable(8) ptr @_ZNSolsEi(ptr noundef nonnull align 8 dereferenceable(8) %47, i32 noundef 734)
          to label %50 unwind label %74, !dbg !6477

50:                                               ; preds = %48
  %51 = invoke noundef nonnull align 8 dereferenceable(8) ptr @_ZNSo5flushEv(ptr noundef nonnull align 8 dereferenceable(8) %6)
          to label %52 unwind label %74, !dbg !6480

52:                                               ; preds = %50
  br label %53, !dbg !6480

53:                                               ; preds = %52
  br label %54, !dbg !6480

54:                                               ; preds = %53
  %55 = load ptr, ptr %4, align 8, !dbg !6475
  %56 = load ptr, ptr %4, align 8, !dbg !6475
  %57 = invoke noundef nonnull align 8 dereferenceable(32) ptr @_ZNK4Poco6Logger4nameB5cxx11Ev(ptr noundef nonnull align 8 dereferenceable(68) %56)
          to label %58 unwind label %74, !dbg !6475

58:                                               ; preds = %54
  invoke void @_ZNKSt7__cxx1119basic_ostringstreamIcSt11char_traitsIcESaIcEE3strEv(ptr sret(%"class.std::__cxx11::basic_string") align 8 %12, ptr noundef nonnull align 8 dereferenceable(112) %6)
          to label %59 unwind label %74, !dbg !6475

59:                                               ; preds = %58
  invoke void @_ZN4Poco7MessageC1ERKNSt7__cxx1112basic_stringIcSt11char_traitsIcESaIcEEES8_NS0_8PriorityE(ptr noundef nonnull align 8 dereferenceable(152) %11, ptr noundef nonnull align 8 dereferenceable(32) %57, ptr noundef nonnull align 8 dereferenceable(32) %12, i32 noundef 7)
          to label %60 unwind label %78, !dbg !6475

60:                                               ; preds = %59
  %61 = load ptr, ptr %55, align 8, !dbg !6475
  %62 = getelementptr inbounds ptr, ptr %61, i64 6, !dbg !6475
  %63 = load ptr, ptr %62, align 8, !dbg !6475
  invoke void %63(ptr noundef nonnull align 8 dereferenceable(68) %55, ptr noundef nonnull align 8 dereferenceable(152) %11)
          to label %64 unwind label %82, !dbg !6475

64:                                               ; preds = %60
  call void @_ZN4Poco7MessageD1Ev(ptr noundef nonnull align 8 dereferenceable(152) %11) #3, !dbg !6475
  call void @_ZNSt7__cxx1112basic_stringIcSt11char_traitsIcESaIcEED1Ev(ptr noundef nonnull align 8 dereferenceable(32) %12) #3, !dbg !6475
  call void @_ZNSt7__cxx1119basic_ostringstreamIcSt11char_traitsIcESaIcEED1Ev(ptr noundef nonnull align 8 dereferenceable(112) %6) #3, !dbg !6471
  br label %88, !dbg !6475

65:                                               ; preds = %23
  %66 = landingpad { ptr, i32 }
          cleanup, !dbg !6481
  %67 = extractvalue { ptr, i32 } %66, 0, !dbg !6481
  store ptr %67, ptr %9, align 8, !dbg !6481
  %68 = extractvalue { ptr, i32 } %66, 1, !dbg !6481
  store i32 %68, ptr %10, align 4, !dbg !6481
  br label %73, !dbg !6481

69:                                               ; preds = %26
  %70 = landingpad { ptr, i32 }
          cleanup, !dbg !6481
  %71 = extractvalue { ptr, i32 } %70, 0, !dbg !6481
  store ptr %71, ptr %9, align 8, !dbg !6481
  %72 = extractvalue { ptr, i32 } %70, 1, !dbg !6481
  store i32 %72, ptr %10, align 4, !dbg !6481
  call void @_ZNSt7__cxx1112basic_stringIcSt11char_traitsIcESaIcEED1Ev(ptr noundef nonnull align 8 dereferenceable(32) %7) #3, !dbg !6475
  br label %73, !dbg !6475

73:                                               ; preds = %69, %65
  call void @_ZNSaIcED1Ev(ptr noundef nonnull align 1 dereferenceable(1) %8) #3, !dbg !6475
  br label %101, !dbg !6475

74:                                               ; preds = %58, %54, %50, %48, %46, %44, %42, %38, %36, %34, %31, %29, %27
  %75 = landingpad { ptr, i32 }
          cleanup, !dbg !6481
  %76 = extractvalue { ptr, i32 } %75, 0, !dbg !6481
  store ptr %76, ptr %9, align 8, !dbg !6481
  %77 = extractvalue { ptr, i32 } %75, 1, !dbg !6481
  store i32 %77, ptr %10, align 4, !dbg !6481
  br label %87, !dbg !6481

78:                                               ; preds = %59
  %79 = landingpad { ptr, i32 }
          cleanup, !dbg !6481
  %80 = extractvalue { ptr, i32 } %79, 0, !dbg !6481
  store ptr %80, ptr %9, align 8, !dbg !6481
  %81 = extractvalue { ptr, i32 } %79, 1, !dbg !6481
  store i32 %81, ptr %10, align 4, !dbg !6481
  br label %86, !dbg !6481

82:                                               ; preds = %60
  %83 = landingpad { ptr, i32 }
          cleanup, !dbg !6481
  %84 = extractvalue { ptr, i32 } %83, 0, !dbg !6481
  store ptr %84, ptr %9, align 8, !dbg !6481
  %85 = extractvalue { ptr, i32 } %83, 1, !dbg !6481
  store i32 %85, ptr %10, align 4, !dbg !6481
  call void @_ZN4Poco7MessageD1Ev(ptr noundef nonnull align 8 dereferenceable(152) %11) #3, !dbg !6475
  br label %86, !dbg !6475

86:                                               ; preds = %82, %78
  call void @_ZNSt7__cxx1112basic_stringIcSt11char_traitsIcESaIcEED1Ev(ptr noundef nonnull align 8 dereferenceable(32) %12) #3, !dbg !6475
  br label %87, !dbg !6475

87:                                               ; preds = %86, %74
  call void @_ZNSt7__cxx1119basic_ostringstreamIcSt11char_traitsIcESaIcEED1Ev(ptr noundef nonnull align 8 dereferenceable(112) %6) #3, !dbg !6471
  br label %101, !dbg !6471

88:                                               ; preds = %64, %20, %17
  br label %89, !dbg !6470

89:                                               ; preds = %88
  %90 = call noundef ptr @_ZNKSt19__shared_ptr_accessI6SocketLN9__gnu_cxx12_Lock_policyE2ELb0ELb0EEptEv(ptr noundef nonnull align 1 dereferenceable(1) %1) #3, !dbg !6482
  call void @_ZN6Socket16resetThreadOwnerEv(ptr noundef nonnull align 8 dereferenceable(64) %90), !dbg !6483
  call void @llvm.dbg.declare(metadata ptr %13, metadata !6484, metadata !DIExpression()), !dbg !6485
  %91 = getelementptr inbounds %class.SocketPoll, ptr %14, i32 0, i32 5, !dbg !6486
  call void @_ZNSt10lock_guardISt5mutexEC2ERS0_(ptr noundef nonnull align 8 dereferenceable(8) %13, ptr noundef nonnull align 8 dereferenceable(40) %91), !dbg !6485
  %92 = getelementptr inbounds %class.SocketPoll, ptr %14, i32 0, i32 6, !dbg !6487
  %93 = invoke noundef nonnull align 8 dereferenceable(16) ptr @_ZNSt6vectorISt10shared_ptrI6SocketESaIS2_EE12emplace_backIJS2_EEERS2_DpOT_(ptr noundef nonnull align 8 dereferenceable(24) %92, ptr noundef nonnull align 8 dereferenceable(16) %1)
          to label %94 unwind label %96, !dbg !6488

94:                                               ; preds = %89
  invoke void @_ZN10SocketPoll6wakeupEv(ptr noundef nonnull align 8 dereferenceable(232) %14)
          to label %95 unwind label %96, !dbg !6489

95:                                               ; preds = %94
  call void @_ZNSt10lock_guardISt5mutexED2Ev(ptr noundef nonnull align 8 dereferenceable(8) %13) #3, !dbg !6490
  br label %100, !dbg !6491

96:                                               ; preds = %94, %89
  %97 = landingpad { ptr, i32 }
          cleanup, !dbg !6492
  %98 = extractvalue { ptr, i32 } %97, 0, !dbg !6492
  store ptr %98, ptr %9, align 8, !dbg !6492
  %99 = extractvalue { ptr, i32 } %97, 1, !dbg !6492
  store i32 %99, ptr %10, align 4, !dbg !6492
  call void @_ZNSt10lock_guardISt5mutexED2Ev(ptr noundef nonnull align 8 dereferenceable(8) %13) #3, !dbg !6490
  br label %101, !dbg !6490

100:                                              ; preds = %95, %2
  ret void, !dbg !6493

101:                                              ; preds = %96, %87, %73
  %102 = load ptr, ptr %9, align 8, !dbg !6475
  %103 = load i32, ptr %10, align 4, !dbg !6475
  %104 = insertvalue { ptr, i32 } poison, ptr %102, 0, !dbg !6475
  %105 = insertvalue { ptr, i32 } %104, i32 %103, 1, !dbg !6475
  resume { ptr, i32 } %105, !dbg !6475
}

; Function Attrs: noinline nounwind optnone uwtable
define linkonce_odr dso_local void @_ZNSt10shared_ptrI6SocketEC2I11DelaySocketvEERKS_IT_E(ptr noundef nonnull align 8 dereferenceable(16) %0, ptr noundef nonnull align 8 dereferenceable(16) %1) unnamed_addr #4 comdat align 2 !dbg !6494 {
  %3 = alloca ptr, align 8
  %4 = alloca ptr, align 8
  store ptr %0, ptr %3, align 8
  call void @llvm.dbg.declare(metadata ptr %3, metadata !6501, metadata !DIExpression()), !dbg !6502
  store ptr %1, ptr %4, align 8
  call void @llvm.dbg.declare(metadata ptr %4, metadata !6503, metadata !DIExpression()), !dbg !6504
  %5 = load ptr, ptr %3, align 8
  %6 = load ptr, ptr %4, align 8, !dbg !6505
  call void @_ZNSt12__shared_ptrI6SocketLN9__gnu_cxx12_Lock_policyE2EEC2I11DelaySocketvEERKS_IT_LS2_2EE(ptr noundef nonnull align 8 dereferenceable(16) %5, ptr noundef nonnull align 8 dereferenceable(16) %6) #3, !dbg !6506
  ret void, !dbg !6507
}

; Function Attrs: noinline nounwind optnone uwtable
define linkonce_odr dso_local void @_ZNSt10shared_ptrI6SocketED2Ev(ptr noundef nonnull align 8 dereferenceable(16) %0) unnamed_addr #4 comdat align 2 !dbg !6508 {
  %2 = alloca ptr, align 8
  store ptr %0, ptr %2, align 8
  call void @llvm.dbg.declare(metadata ptr %2, metadata !6510, metadata !DIExpression()), !dbg !6511
  %3 = load ptr, ptr %2, align 8
  call void @_ZNSt12__shared_ptrI6SocketLN9__gnu_cxx12_Lock_policyE2EED2Ev(ptr noundef nonnull align 8 dereferenceable(16) %3) #3, !dbg !6512
  ret void, !dbg !6514
}

declare noundef nonnull align 8 dereferenceable(68) ptr @_ZN3Log6loggerEv() #1

; Function Attrs: mustprogress noinline nounwind optnone uwtable
define linkonce_odr dso_local noundef zeroext i1 @_ZN3Log16isShutdownCalledEv() #8 comdat !dbg !6515 {
  %1 = load i8, ptr @_ZN3Log10IsShutdownE, align 1, !dbg !6516
  %2 = trunc i8 %1 to i1, !dbg !6516
  ret i1 %2, !dbg !6517
}

; Function Attrs: mustprogress noinline nounwind optnone uwtable
define linkonce_odr dso_local noundef zeroext i1 @_ZNK4Poco6Logger5traceEv(ptr noundef nonnull align 8 dereferenceable(68) %0) #8 comdat align 2 !dbg !6518 {
  %2 = alloca ptr, align 8
  store ptr %0, ptr %2, align 8
  call void @llvm.dbg.declare(metadata ptr %2, metadata !6524, metadata !DIExpression()), !dbg !6526
  %3 = load ptr, ptr %2, align 8
  %4 = getelementptr inbounds %"class.Poco::Logger", ptr %3, i32 0, i32 4, !dbg !6527
  %5 = load i32, ptr %4, align 8, !dbg !6527
  %6 = icmp sge i32 %5, 8, !dbg !6528
  ret i1 %6, !dbg !6529
}

; Function Attrs: mustprogress noinline optnone uwtable
define linkonce_odr dso_local noundef ptr @_ZN3Log6prefixILi1023EEEPcS1_PKc(ptr noundef %0, ptr noundef %1) #7 comdat personality ptr @__gxx_personality_v0 !dbg !6530 {
  %3 = alloca ptr, align 8
  %4 = alloca ptr, align 8
  %5 = alloca %"class.Poco::LocalDateTime", align 8
  %6 = alloca ptr, align 8
  %7 = alloca i32, align 4
  store ptr %0, ptr %3, align 8
  call void @llvm.dbg.declare(metadata ptr %3, metadata !6535, metadata !DIExpression()), !dbg !6536
  store ptr %1, ptr %4, align 8
  call void @llvm.dbg.declare(metadata ptr %4, metadata !6537, metadata !DIExpression()), !dbg !6538
  call void @_ZN4Poco13LocalDateTimeC1Ev(ptr noundef nonnull align 8 dereferenceable(28) %5), !dbg !6539
  %8 = load ptr, ptr %3, align 8, !dbg !6540
  %9 = load ptr, ptr %4, align 8, !dbg !6541
  %10 = invoke noundef ptr @_ZN3Log6prefixERKN4Poco13LocalDateTimeEPcPKc(ptr noundef nonnull align 8 dereferenceable(28) %5, ptr noundef %8, ptr noundef %9)
          to label %11 unwind label %12, !dbg !6542

11:                                               ; preds = %2
  call void @_ZN4Poco13LocalDateTimeD1Ev(ptr noundef nonnull align 8 dereferenceable(28) %5) #3, !dbg !6543
  ret ptr %10, !dbg !6543

12:                                               ; preds = %2
  %13 = landingpad { ptr, i32 }
          cleanup, !dbg !6544
  %14 = extractvalue { ptr, i32 } %13, 0, !dbg !6544
  store ptr %14, ptr %6, align 8, !dbg !6544
  %15 = extractvalue { ptr, i32 } %13, 1, !dbg !6544
  store i32 %15, ptr %7, align 4, !dbg !6544
  call void @_ZN4Poco13LocalDateTimeD1Ev(ptr noundef nonnull align 8 dereferenceable(28) %5) #3, !dbg !6543
  br label %16, !dbg !6543

16:                                               ; preds = %12
  %17 = load ptr, ptr %6, align 8, !dbg !6543
  %18 = load i32, ptr %7, align 4, !dbg !6543
  %19 = insertvalue { ptr, i32 } poison, ptr %17, 0, !dbg !6543
  %20 = insertvalue { ptr, i32 } %19, i32 %18, 1, !dbg !6543
  resume { ptr, i32 } %20, !dbg !6543
}

; Function Attrs: nounwind
declare void @_ZNSaIcEC1Ev(ptr noundef nonnull align 1 dereferenceable(1)) unnamed_addr #2

; Function Attrs: noinline optnone uwtable
define linkonce_odr dso_local void @_ZNSt7__cxx1112basic_stringIcSt11char_traitsIcESaIcEEC2IS3_EEPKcRKS3_(ptr noundef nonnull align 8 dereferenceable(32) %0, ptr noundef %1, ptr noundef nonnull align 1 dereferenceable(1) %2) unnamed_addr #5 comdat align 2 personality ptr @__gxx_personality_v0 !dbg !6545 {
  %4 = alloca ptr, align 8
  %5 = alloca ptr, align 8
  %6 = alloca ptr, align 8
  %7 = alloca ptr, align 8
  %8 = alloca ptr, align 8
  %9 = alloca i32, align 4
  %10 = alloca %"struct.std::forward_iterator_tag", align 1
  %11 = alloca %"struct.std::random_access_iterator_tag", align 1
  store ptr %0, ptr %4, align 8
  call void @llvm.dbg.declare(metadata ptr %4, metadata !6551, metadata !DIExpression()), !dbg !6553
  store ptr %1, ptr %5, align 8
  call void @llvm.dbg.declare(metadata ptr %5, metadata !6554, metadata !DIExpression()), !dbg !6555
  store ptr %2, ptr %6, align 8
  call void @llvm.dbg.declare(metadata ptr %6, metadata !6556, metadata !DIExpression()), !dbg !6557
  %12 = load ptr, ptr %4, align 8
  %13 = getelementptr inbounds %"class.std::__cxx11::basic_string", ptr %12, i32 0, i32 0, !dbg !6558
  %14 = call noundef ptr @_ZNSt7__cxx1112basic_stringIcSt11char_traitsIcESaIcEE13_M_local_dataEv(ptr noundef nonnull align 8 dereferenceable(32) %12), !dbg !6559
  %15 = load ptr, ptr %6, align 8, !dbg !6560
  call void @_ZNSt7__cxx1112basic_stringIcSt11char_traitsIcESaIcEE12_Alloc_hiderC1EPcRKS3_(ptr noundef nonnull align 8 dereferenceable(8) %13, ptr noundef %14, ptr noundef nonnull align 1 dereferenceable(1) %15), !dbg !6558
  call void @llvm.dbg.declare(metadata ptr %7, metadata !6561, metadata !DIExpression()), !dbg !6563
  %16 = load ptr, ptr %5, align 8, !dbg !6564
  %17 = icmp ne ptr %16, null, !dbg !6564
  br i1 %17, label %18, label %24, !dbg !6564

18:                                               ; preds = %3
  %19 = load ptr, ptr %5, align 8, !dbg !6565
  %20 = load ptr, ptr %5, align 8, !dbg !6566
  %21 = invoke noundef i64 @_ZNSt11char_traitsIcE6lengthEPKc(ptr noundef %20)
          to label %22 unwind label %30, !dbg !6567

22:                                               ; preds = %18
  %23 = getelementptr inbounds i8, ptr %19, i64 %21, !dbg !6568
  br label %25, !dbg !6564

24:                                               ; preds = %3
  br label %25, !dbg !6564

25:                                               ; preds = %24, %22
  %26 = phi ptr [ %23, %22 ], [ inttoptr (i64 1 to ptr), %24 ], !dbg !6564
  store ptr %26, ptr %7, align 8, !dbg !6563
  %27 = load ptr, ptr %5, align 8, !dbg !6569
  %28 = load ptr, ptr %7, align 8, !dbg !6570
  invoke void @_ZNSt7__cxx1112basic_stringIcSt11char_traitsIcESaIcEE12_M_constructIPKcEEvT_S8_St20forward_iterator_tag(ptr noundef nonnull align 8 dereferenceable(32) %12, ptr noundef %27, ptr noundef %28)
          to label %29 unwind label %30, !dbg !6571

29:                                               ; preds = %25
  ret void, !dbg !6572

30:                                               ; preds = %25, %18
  %31 = landingpad { ptr, i32 }
          cleanup, !dbg !6573
  %32 = extractvalue { ptr, i32 } %31, 0, !dbg !6573
  store ptr %32, ptr %8, align 8, !dbg !6573
  %33 = extractvalue { ptr, i32 } %31, 1, !dbg !6573
  store i32 %33, ptr %9, align 4, !dbg !6573
  call void @_ZNSt7__cxx1112basic_stringIcSt11char_traitsIcESaIcEE12_Alloc_hiderD2Ev(ptr noundef nonnull align 8 dereferenceable(8) %13) #3, !dbg !6573
  br label %34, !dbg !6573

34:                                               ; preds = %30
  %35 = load ptr, ptr %8, align 8, !dbg !6573
  %36 = load i32, ptr %9, align 4, !dbg !6573
  %37 = insertvalue { ptr, i32 } poison, ptr %35, 0, !dbg !6573
  %38 = insertvalue { ptr, i32 } %37, i32 %36, 1, !dbg !6573
  resume { ptr, i32 } %38, !dbg !6573
}

declare void @_ZNSt7__cxx1119basic_ostringstreamIcSt11char_traitsIcESaIcEEC1ERKNS_12basic_stringIcS2_S3_EESt13_Ios_Openmode(ptr noundef nonnull align 8 dereferenceable(112), ptr noundef nonnull align 8 dereferenceable(32), i32 noundef) unnamed_addr #1

; Function Attrs: nounwind
declare void @_ZNSt7__cxx1112basic_stringIcSt11char_traitsIcESaIcEED1Ev(ptr noundef nonnull align 8 dereferenceable(32)) unnamed_addr #2

; Function Attrs: nounwind
declare void @_ZNSaIcED1Ev(ptr noundef nonnull align 1 dereferenceable(1)) unnamed_addr #2

declare noundef nonnull align 8 dereferenceable(8) ptr @_ZStlsISt11char_traitsIcEERSt13basic_ostreamIcT_ES5_PKc(ptr noundef nonnull align 8 dereferenceable(8), ptr noundef) #1

declare noundef nonnull align 8 dereferenceable(8) ptr @_ZNSolsEPFRSt8ios_baseS0_E(ptr noundef nonnull align 8 dereferenceable(8), ptr noundef) #1

; Function Attrs: mustprogress noinline optnone uwtable
define linkonce_odr dso_local noundef nonnull align 8 dereferenceable(216) ptr @_ZSt9boolalphaRSt8ios_base(ptr noundef nonnull align 8 dereferenceable(216) %0) #7 comdat !dbg !6574 {
  %2 = alloca ptr, align 8
  store ptr %0, ptr %2, align 8
  call void @llvm.dbg.declare(metadata ptr %2, metadata !6578, metadata !DIExpression()), !dbg !6579
  %3 = load ptr, ptr %2, align 8, !dbg !6580
  %4 = call noundef i32 @_ZNSt8ios_base4setfESt13_Ios_Fmtflags(ptr noundef nonnull align 8 dereferenceable(216) %3, i32 noundef 1), !dbg !6581
  %5 = load ptr, ptr %2, align 8, !dbg !6582
  ret ptr %5, !dbg !6583
}

declare noundef nonnull align 8 dereferenceable(8) ptr @_ZNSolsEi(ptr noundef nonnull align 8 dereferenceable(8), i32 noundef) #1

declare noundef nonnull align 8 dereferenceable(8) ptr @_ZStlsISt11char_traitsIcEERSt13basic_ostreamIcT_ES5_c(ptr noundef nonnull align 8 dereferenceable(8), i8 noundef signext) #1

declare noundef nonnull align 8 dereferenceable(8) ptr @_ZNSo5flushEv(ptr noundef nonnull align 8 dereferenceable(8)) #1

; Function Attrs: mustprogress noinline nounwind optnone uwtable
define linkonce_odr dso_local noundef nonnull align 8 dereferenceable(32) ptr @_ZNK4Poco6Logger4nameB5cxx11Ev(ptr noundef nonnull align 8 dereferenceable(68) %0) #8 comdat align 2 !dbg !6584 {
  %2 = alloca ptr, align 8
  store ptr %0, ptr %2, align 8
  call void @llvm.dbg.declare(metadata ptr %2, metadata !6588, metadata !DIExpression()), !dbg !6589
  %3 = load ptr, ptr %2, align 8
  %4 = getelementptr inbounds %"class.Poco::Logger", ptr %3, i32 0, i32 2, !dbg !6590
  ret ptr %4, !dbg !6591
}

declare void @_ZNKSt7__cxx1119basic_ostringstreamIcSt11char_traitsIcESaIcEE3strEv(ptr sret(%"class.std::__cxx11::basic_string") align 8, ptr noundef nonnull align 8 dereferenceable(112)) #1

declare void @_ZN4Poco7MessageC1ERKNSt7__cxx1112basic_stringIcSt11char_traitsIcESaIcEEES8_NS0_8PriorityE(ptr noundef nonnull align 8 dereferenceable(152), ptr noundef nonnull align 8 dereferenceable(32), ptr noundef nonnull align 8 dereferenceable(32), i32 noundef) unnamed_addr #1

; Function Attrs: nounwind
declare void @_ZN4Poco7MessageD1Ev(ptr noundef nonnull align 8 dereferenceable(152)) unnamed_addr #2

; Function Attrs: nounwind
declare void @_ZNSt7__cxx1119basic_ostringstreamIcSt11char_traitsIcESaIcEED1Ev(ptr noundef nonnull align 8 dereferenceable(112)) unnamed_addr #2

; Function Attrs: noinline nounwind optnone uwtable
define linkonce_odr dso_local void @_ZNSt10shared_ptrI11DelaySocketED2Ev(ptr noundef nonnull align 8 dereferenceable(16) %0) unnamed_addr #4 comdat align 2 !dbg !6592 {
  %2 = alloca ptr, align 8
  store ptr %0, ptr %2, align 8
  call void @llvm.dbg.declare(metadata ptr %2, metadata !6594, metadata !DIExpression()), !dbg !6596
  %3 = load ptr, ptr %2, align 8
  call void @_ZNSt12__shared_ptrI11DelaySocketLN9__gnu_cxx12_Lock_policyE2EED2Ev(ptr noundef nonnull align 8 dereferenceable(16) %3) #3, !dbg !6597
  ret void, !dbg !6599
}

; Function Attrs: mustprogress noinline nounwind optnone uwtable
define linkonce_odr dso_local noundef zeroext i1 @_ZNK4Poco6Logger5errorEv(ptr noundef nonnull align 8 dereferenceable(68) %0) #8 comdat align 2 !dbg !6600 {
  %2 = alloca ptr, align 8
  store ptr %0, ptr %2, align 8
  call void @llvm.dbg.declare(metadata ptr %2, metadata !6602, metadata !DIExpression()), !dbg !6603
  %3 = load ptr, ptr %2, align 8
  %4 = getelementptr inbounds %"class.Poco::Logger", ptr %3, i32 0, i32 4, !dbg !6604
  %5 = load i32, ptr %4, align 8, !dbg !6604
  %6 = icmp sge i32 %5, 3, !dbg !6605
  ret i1 %6, !dbg !6606
}

; Function Attrs: mustprogress noinline optnone uwtable
define dso_local void @_ZN5Delay9dumpStateERSo(ptr noundef nonnull align 8 dereferenceable(8) %0) #7 align 2 personality ptr @__gxx_personality_v0 !dbg !6607 {
  %2 = alloca ptr, align 8
  %3 = alloca %"class.std::shared_ptr.15", align 8
  %4 = alloca ptr, align 8
  %5 = alloca i32, align 4
  store ptr %0, ptr %2, align 8
  call void @llvm.dbg.declare(metadata ptr %2, metadata !6608, metadata !DIExpression()), !dbg !6609
  call void @llvm.dbg.declare(metadata ptr %3, metadata !6610, metadata !DIExpression()), !dbg !6611
  call void @_ZNSt10shared_ptrI15TerminatingPollEC2ERKS1_(ptr noundef nonnull align 8 dereferenceable(16) %3, ptr noundef nonnull align 8 dereferenceable(16) @_ZN5Delay9DelayPollE) #3, !dbg !6612
  %6 = call noundef zeroext i1 @_ZNKSt12__shared_ptrI15TerminatingPollLN9__gnu_cxx12_Lock_policyE2EEcvbEv(ptr noundef nonnull align 8 dereferenceable(16) %3) #3, !dbg !6613
  br i1 %6, label %7, label %25, !dbg !6615

7:                                                ; preds = %1
  %8 = call noundef ptr @_ZNKSt19__shared_ptr_accessI15TerminatingPollLN9__gnu_cxx12_Lock_policyE2ELb0ELb0EEptEv(ptr noundef nonnull align 1 dereferenceable(1) %3) #3, !dbg !6616
  %9 = invoke noundef zeroext i1 @_ZNK10SocketPoll7isAliveEv(ptr noundef nonnull align 8 dereferenceable(232) %8)
          to label %10 unwind label %21, !dbg !6617

10:                                               ; preds = %7
  br i1 %9, label %11, label %25, !dbg !6618

11:                                               ; preds = %10
  %12 = load ptr, ptr %2, align 8, !dbg !6619
  %13 = invoke noundef nonnull align 8 dereferenceable(8) ptr @_ZStlsISt11char_traitsIcEERSt13basic_ostreamIcT_ES5_PKc(ptr noundef nonnull align 8 dereferenceable(8) %12, ptr noundef @.str.10)
          to label %14 unwind label %21, !dbg !6621

14:                                               ; preds = %11
  %15 = call noundef ptr @_ZNKSt19__shared_ptr_accessI15TerminatingPollLN9__gnu_cxx12_Lock_policyE2ELb0ELb0EEptEv(ptr noundef nonnull align 1 dereferenceable(1) %3) #3, !dbg !6622
  %16 = load ptr, ptr %2, align 8, !dbg !6623
  %17 = load ptr, ptr %15, align 8, !dbg !6624
  %18 = getelementptr inbounds ptr, ptr %17, i64 5, !dbg !6624
  %19 = load ptr, ptr %18, align 8, !dbg !6624
  invoke void %19(ptr noundef nonnull align 8 dereferenceable(232) %15, ptr noundef nonnull align 8 dereferenceable(8) %16)
          to label %20 unwind label %21, !dbg !6624

20:                                               ; preds = %14
  br label %29, !dbg !6625

21:                                               ; preds = %25, %14, %11, %7
  %22 = landingpad { ptr, i32 }
          cleanup, !dbg !6626
  %23 = extractvalue { ptr, i32 } %22, 0, !dbg !6626
  store ptr %23, ptr %4, align 8, !dbg !6626
  %24 = extractvalue { ptr, i32 } %22, 1, !dbg !6626
  store i32 %24, ptr %5, align 4, !dbg !6626
  call void @_ZNSt10shared_ptrI15TerminatingPollED2Ev(ptr noundef nonnull align 8 dereferenceable(16) %3) #3, !dbg !6627
  br label %30, !dbg !6627

25:                                               ; preds = %10, %1
  %26 = load ptr, ptr %2, align 8, !dbg !6628
  %27 = invoke noundef nonnull align 8 dereferenceable(8) ptr @_ZStlsISt11char_traitsIcEERSt13basic_ostreamIcT_ES5_PKc(ptr noundef nonnull align 8 dereferenceable(8) %26, ptr noundef @.str.11)
          to label %28 unwind label %21, !dbg !6630

28:                                               ; preds = %25
  br label %29

29:                                               ; preds = %28, %20
  call void @_ZNSt10shared_ptrI15TerminatingPollED2Ev(ptr noundef nonnull align 8 dereferenceable(16) %3) #3, !dbg !6627
  ret void, !dbg !6627

30:                                               ; preds = %21
  %31 = load ptr, ptr %4, align 8, !dbg !6627
  %32 = load i32, ptr %5, align 4, !dbg !6627
  %33 = insertvalue { ptr, i32 } poison, ptr %31, 0, !dbg !6627
  %34 = insertvalue { ptr, i32 } %33, i32 %32, 1, !dbg !6627
  resume { ptr, i32 } %34, !dbg !6627
}

; Function Attrs: noinline nounwind optnone uwtable
define linkonce_odr dso_local void @_ZNSt14__shared_countILN9__gnu_cxx12_Lock_policyE2EED2Ev(ptr noundef nonnull align 8 dereferenceable(8) %0) unnamed_addr #4 comdat align 2 !dbg !6631 {
  %2 = alloca ptr, align 8
  store ptr %0, ptr %2, align 8
  call void @llvm.dbg.declare(metadata ptr %2, metadata !6632, metadata !DIExpression()), !dbg !6634
  %3 = load ptr, ptr %2, align 8
  %4 = getelementptr inbounds %"class.std::__shared_count", ptr %3, i32 0, i32 0, !dbg !6635
  %5 = load ptr, ptr %4, align 8, !dbg !6635
  %6 = icmp ne ptr %5, null, !dbg !6638
  br i1 %6, label %7, label %10, !dbg !6639

7:                                                ; preds = %1
  %8 = getelementptr inbounds %"class.std::__shared_count", ptr %3, i32 0, i32 0, !dbg !6640
  %9 = load ptr, ptr %8, align 8, !dbg !6640
  call void @_ZNSt16_Sp_counted_baseILN9__gnu_cxx12_Lock_policyE2EE10_M_releaseEv(ptr noundef nonnull align 8 dereferenceable(16) %9) #3, !dbg !6641
  br label %10, !dbg !6640

10:                                               ; preds = %7, %1
  ret void, !dbg !6642
}

; Function Attrs: mustprogress noinline nounwind optnone uwtable
define linkonce_odr dso_local void @_ZNSt16_Sp_counted_baseILN9__gnu_cxx12_Lock_policyE2EE10_M_releaseEv(ptr noundef nonnull align 8 dereferenceable(16) %0) #8 comdat align 2 personality ptr @__gxx_personality_v0 !dbg !6643 {
  %2 = alloca ptr, align 8
  %3 = alloca i32, align 4
  %4 = alloca i32, align 4
  %5 = alloca i32, align 4
  %6 = alloca ptr, align 8
  %7 = alloca i32, align 4
  %8 = alloca i32, align 4
  %9 = alloca i32, align 4
  %10 = alloca ptr, align 8
  %11 = alloca i32, align 4
  %12 = alloca i32, align 4
  %13 = alloca ptr, align 8
  %14 = alloca i32, align 4
  %15 = alloca i32, align 4
  %16 = alloca i32, align 4
  %17 = alloca ptr, align 8
  %18 = alloca i32, align 4
  %19 = alloca i32, align 4
  %20 = alloca ptr, align 8
  %21 = alloca i32, align 4
  %22 = alloca ptr, align 8
  store ptr %0, ptr %22, align 8
  call void @llvm.dbg.declare(metadata ptr %22, metadata !6644, metadata !DIExpression()), !dbg !6645
  %23 = load ptr, ptr %22, align 8
  %24 = getelementptr inbounds %"class.std::_Sp_counted_base", ptr %23, i32 0, i32 1, !dbg !6646
  store ptr %24, ptr %17, align 8
  call void @llvm.dbg.declare(metadata ptr %17, metadata !6648, metadata !DIExpression()), !dbg !6654
  store i32 -1, ptr %18, align 4
  call void @llvm.dbg.declare(metadata ptr %18, metadata !6656, metadata !DIExpression()), !dbg !6657
  %25 = load i8, ptr @__libc_single_threaded, align 1, !dbg !6658
  %26 = icmp ne i8 %25, 0, !dbg !6658
  br i1 %26, label %27, label %37, !dbg !6662

27:                                               ; preds = %1
  %28 = load ptr, ptr %17, align 8, !dbg !6663
  %29 = load i32, ptr %18, align 4, !dbg !6664
  store ptr %28, ptr %13, align 8
  call void @llvm.dbg.declare(metadata ptr %13, metadata !6665, metadata !DIExpression()), !dbg !6667
  store i32 %29, ptr %14, align 4
  call void @llvm.dbg.declare(metadata ptr %14, metadata !6669, metadata !DIExpression()), !dbg !6670
  call void @llvm.dbg.declare(metadata ptr %15, metadata !6671, metadata !DIExpression()), !dbg !6672
  %30 = load ptr, ptr %13, align 8, !dbg !6673
  %31 = load i32, ptr %30, align 4, !dbg !6674
  store i32 %31, ptr %15, align 4, !dbg !6672
  %32 = load i32, ptr %14, align 4, !dbg !6675
  %33 = load ptr, ptr %13, align 8, !dbg !6676
  %34 = load i32, ptr %33, align 4, !dbg !6677
  %35 = add nsw i32 %34, %32, !dbg !6677
  store i32 %35, ptr %33, align 4, !dbg !6677
  %36 = load i32, ptr %15, align 4, !dbg !6678
  store i32 %36, ptr %16, align 4, !dbg !6679
  br label %45, !dbg !6679

37:                                               ; preds = %1
  %38 = load ptr, ptr %17, align 8, !dbg !6680
  %39 = load i32, ptr %18, align 4, !dbg !6681
  store ptr %38, ptr %6, align 8
  call void @llvm.dbg.declare(metadata ptr %6, metadata !6682, metadata !DIExpression()), !dbg !6688
  store i32 %39, ptr %7, align 4
  call void @llvm.dbg.declare(metadata ptr %7, metadata !6690, metadata !DIExpression()), !dbg !6691
  %40 = load ptr, ptr %6, align 8, !dbg !6692
  %41 = load i32, ptr %7, align 4, !dbg !6693
  store i32 %41, ptr %8, align 4, !dbg !6694
  %42 = load i32, ptr %8, align 4, !dbg !6694
  %43 = atomicrmw volatile add ptr %40, i32 %42 acq_rel, align 4, !dbg !6694
  store i32 %43, ptr %9, align 4, !dbg !6694
  %44 = load i32, ptr %9, align 4, !dbg !6694
  store i32 %44, ptr %16, align 4, !dbg !6695
  br label %45, !dbg !6695

45:                                               ; preds = %27, %37
  %46 = load i32, ptr %16, align 4, !dbg !6696
  br label %47, !dbg !6696

47:                                               ; preds = %45
  %48 = icmp eq i32 %46, 1, !dbg !6697
  br i1 %48, label %49, label %83, !dbg !6698

49:                                               ; preds = %47
  %50 = load ptr, ptr %23, align 8, !dbg !6699
  %51 = getelementptr inbounds ptr, ptr %50, i64 2, !dbg !6699
  %52 = load ptr, ptr %51, align 8, !dbg !6699
  call void %52(ptr noundef nonnull align 8 dereferenceable(16) %23) #3, !dbg !6699
  %53 = getelementptr inbounds %"class.std::_Sp_counted_base", ptr %23, i32 0, i32 2, !dbg !6701
  store ptr %53, ptr %20, align 8
  call void @llvm.dbg.declare(metadata ptr %20, metadata !6648, metadata !DIExpression()), !dbg !6703
  store i32 -1, ptr %21, align 4
  call void @llvm.dbg.declare(metadata ptr %21, metadata !6656, metadata !DIExpression()), !dbg !6705
  %54 = load i8, ptr @__libc_single_threaded, align 1, !dbg !6706
  %55 = icmp ne i8 %54, 0, !dbg !6706
  br i1 %55, label %56, label %66, !dbg !6708

56:                                               ; preds = %49
  %57 = load ptr, ptr %20, align 8, !dbg !6709
  %58 = load i32, ptr %21, align 4, !dbg !6710
  store ptr %57, ptr %10, align 8
  call void @llvm.dbg.declare(metadata ptr %10, metadata !6665, metadata !DIExpression()), !dbg !6711
  store i32 %58, ptr %11, align 4
  call void @llvm.dbg.declare(metadata ptr %11, metadata !6669, metadata !DIExpression()), !dbg !6713
  call void @llvm.dbg.declare(metadata ptr %12, metadata !6671, metadata !DIExpression()), !dbg !6714
  %59 = load ptr, ptr %10, align 8, !dbg !6715
  %60 = load i32, ptr %59, align 4, !dbg !6716
  store i32 %60, ptr %12, align 4, !dbg !6714
  %61 = load i32, ptr %11, align 4, !dbg !6717
  %62 = load ptr, ptr %10, align 8, !dbg !6718
  %63 = load i32, ptr %62, align 4, !dbg !6719
  %64 = add nsw i32 %63, %61, !dbg !6719
  store i32 %64, ptr %62, align 4, !dbg !6719
  %65 = load i32, ptr %12, align 4, !dbg !6720
  store i32 %65, ptr %19, align 4, !dbg !6721
  br label %74, !dbg !6721

66:                                               ; preds = %49
  %67 = load ptr, ptr %20, align 8, !dbg !6722
  %68 = load i32, ptr %21, align 4, !dbg !6723
  store ptr %67, ptr %2, align 8
  call void @llvm.dbg.declare(metadata ptr %2, metadata !6682, metadata !DIExpression()), !dbg !6724
  store i32 %68, ptr %3, align 4
  call void @llvm.dbg.declare(metadata ptr %3, metadata !6690, metadata !DIExpression()), !dbg !6726
  %69 = load ptr, ptr %2, align 8, !dbg !6727
  %70 = load i32, ptr %3, align 4, !dbg !6728
  store i32 %70, ptr %4, align 4, !dbg !6729
  %71 = load i32, ptr %4, align 4, !dbg !6729
  %72 = atomicrmw volatile add ptr %69, i32 %71 acq_rel, align 4, !dbg !6729
  store i32 %72, ptr %5, align 4, !dbg !6729
  %73 = load i32, ptr %5, align 4, !dbg !6729
  store i32 %73, ptr %19, align 4, !dbg !6730
  br label %74, !dbg !6730

74:                                               ; preds = %56, %66
  %75 = load i32, ptr %19, align 4, !dbg !6731
  br label %76, !dbg !6731

76:                                               ; preds = %74
  %77 = icmp eq i32 %75, 1, !dbg !6732
  br i1 %77, label %78, label %82, !dbg !6733

78:                                               ; preds = %76
  %79 = load ptr, ptr %23, align 8, !dbg !6734
  %80 = getelementptr inbounds ptr, ptr %79, i64 3, !dbg !6734
  %81 = load ptr, ptr %80, align 8, !dbg !6734
  call void %81(ptr noundef nonnull align 8 dereferenceable(16) %23) #3, !dbg !6734
  br label %82, !dbg !6736

82:                                               ; preds = %78, %76
  br label %83, !dbg !6737

83:                                               ; preds = %82, %47
  ret void, !dbg !6738

84:                                               ; No predecessors!
  %85 = landingpad { ptr, i32 }
          catch ptr null, !dbg !6739
  %86 = extractvalue { ptr, i32 } %85, 0, !dbg !6739
  call void @__clang_call_terminate(ptr %86) #18, !dbg !6739
  unreachable, !dbg !6739
}

; Function Attrs: noinline noreturn nounwind
define linkonce_odr hidden void @__clang_call_terminate(ptr noundef %0) #9 comdat {
  %2 = call ptr @__cxa_begin_catch(ptr %0) #3
  call void @_ZSt9terminatev() #18
  unreachable
}

declare ptr @__cxa_begin_catch(ptr)

declare void @_ZSt9terminatev()

; Function Attrs: noinline nounwind optnone uwtable
define linkonce_odr dso_local void @_ZNSt12__shared_ptrI15TerminatingPollLN9__gnu_cxx12_Lock_policyE2EEC2ERKS3_(ptr noundef nonnull align 8 dereferenceable(16) %0, ptr noundef nonnull align 8 dereferenceable(16) %1) unnamed_addr #4 comdat align 2 !dbg !6740 {
  %3 = alloca ptr, align 8
  %4 = alloca ptr, align 8
  store ptr %0, ptr %3, align 8
  call void @llvm.dbg.declare(metadata ptr %3, metadata !6741, metadata !DIExpression()), !dbg !6742
  store ptr %1, ptr %4, align 8
  call void @llvm.dbg.declare(metadata ptr %4, metadata !6743, metadata !DIExpression()), !dbg !6744
  %5 = load ptr, ptr %3, align 8
  %6 = load ptr, ptr %4, align 8, !dbg !6745
  %7 = getelementptr inbounds %"class.std::__shared_ptr.16", ptr %5, i32 0, i32 0, !dbg !6745
  %8 = load ptr, ptr %4, align 8, !dbg !6745
  %9 = getelementptr inbounds %"class.std::__shared_ptr.16", ptr %8, i32 0, i32 0, !dbg !6745
  %10 = load ptr, ptr %9, align 8, !dbg !6745
  store ptr %10, ptr %7, align 8, !dbg !6745
  %11 = getelementptr inbounds %"class.std::__shared_ptr.16", ptr %5, i32 0, i32 1, !dbg !6745
  %12 = load ptr, ptr %4, align 8, !dbg !6745
  %13 = getelementptr inbounds %"class.std::__shared_ptr.16", ptr %12, i32 0, i32 1, !dbg !6745
  call void @_ZNSt14__shared_countILN9__gnu_cxx12_Lock_policyE2EEC2ERKS2_(ptr noundef nonnull align 8 dereferenceable(8) %11, ptr noundef nonnull align 8 dereferenceable(8) %13) #3, !dbg !6745
  ret void, !dbg !6746
}

; Function Attrs: noinline nounwind optnone uwtable
define linkonce_odr dso_local void @_ZNSt14__shared_countILN9__gnu_cxx12_Lock_policyE2EEC2ERKS2_(ptr noundef nonnull align 8 dereferenceable(8) %0, ptr noundef nonnull align 8 dereferenceable(8) %1) unnamed_addr #4 comdat align 2 personality ptr @__gxx_personality_v0 !dbg !6747 {
  %3 = alloca ptr, align 8
  %4 = alloca ptr, align 8
  store ptr %0, ptr %3, align 8
  call void @llvm.dbg.declare(metadata ptr %3, metadata !6748, metadata !DIExpression()), !dbg !6749
  store ptr %1, ptr %4, align 8
  call void @llvm.dbg.declare(metadata ptr %4, metadata !6750, metadata !DIExpression()), !dbg !6751
  %5 = load ptr, ptr %3, align 8
  %6 = getelementptr inbounds %"class.std::__shared_count", ptr %5, i32 0, i32 0, !dbg !6752
  %7 = load ptr, ptr %4, align 8, !dbg !6753
  %8 = getelementptr inbounds %"class.std::__shared_count", ptr %7, i32 0, i32 0, !dbg !6754
  %9 = load ptr, ptr %8, align 8, !dbg !6754
  store ptr %9, ptr %6, align 8, !dbg !6752
  %10 = getelementptr inbounds %"class.std::__shared_count", ptr %5, i32 0, i32 0, !dbg !6755
  %11 = load ptr, ptr %10, align 8, !dbg !6755
  %12 = icmp ne ptr %11, null, !dbg !6758
  br i1 %12, label %13, label %17, !dbg !6759

13:                                               ; preds = %2
  %14 = getelementptr inbounds %"class.std::__shared_count", ptr %5, i32 0, i32 0, !dbg !6760
  %15 = load ptr, ptr %14, align 8, !dbg !6760
  invoke void @_ZNSt16_Sp_counted_baseILN9__gnu_cxx12_Lock_policyE2EE15_M_add_ref_copyEv(ptr noundef nonnull align 8 dereferenceable(16) %15)
          to label %16 unwind label %18, !dbg !6761

16:                                               ; preds = %13
  br label %17, !dbg !6760

17:                                               ; preds = %16, %2
  ret void, !dbg !6762

18:                                               ; preds = %13
  %19 = landingpad { ptr, i32 }
          catch ptr null, !dbg !6761
  %20 = extractvalue { ptr, i32 } %19, 0, !dbg !6761
  call void @__clang_call_terminate(ptr %20) #18, !dbg !6761
  unreachable, !dbg !6761
}

; Function Attrs: mustprogress noinline optnone uwtable
define linkonce_odr dso_local void @_ZNSt16_Sp_counted_baseILN9__gnu_cxx12_Lock_policyE2EE15_M_add_ref_copyEv(ptr noundef nonnull align 8 dereferenceable(16) %0) #7 comdat align 2 !dbg !6763 {
  %2 = alloca ptr, align 8
  %3 = alloca i32, align 4
  %4 = alloca i32, align 4
  %5 = alloca i32, align 4
  %6 = alloca ptr, align 8
  %7 = alloca i32, align 4
  %8 = alloca ptr, align 8
  %9 = alloca i32, align 4
  %10 = alloca ptr, align 8
  store ptr %0, ptr %10, align 8
  call void @llvm.dbg.declare(metadata ptr %10, metadata !6764, metadata !DIExpression()), !dbg !6765
  %11 = load ptr, ptr %10, align 8
  %12 = getelementptr inbounds %"class.std::_Sp_counted_base", ptr %11, i32 0, i32 1, !dbg !6766
  store ptr %12, ptr %8, align 8
  call void @llvm.dbg.declare(metadata ptr %8, metadata !6767, metadata !DIExpression()), !dbg !6771
  store i32 1, ptr %9, align 4
  call void @llvm.dbg.declare(metadata ptr %9, metadata !6773, metadata !DIExpression()), !dbg !6774
  %13 = load i8, ptr @__libc_single_threaded, align 1, !dbg !6775
  %14 = icmp ne i8 %13, 0, !dbg !6775
  br i1 %14, label %15, label %22, !dbg !6778

15:                                               ; preds = %1
  %16 = load ptr, ptr %8, align 8, !dbg !6779
  %17 = load i32, ptr %9, align 4, !dbg !6780
  store ptr %16, ptr %6, align 8
  call void @llvm.dbg.declare(metadata ptr %6, metadata !6781, metadata !DIExpression()), !dbg !6783
  store i32 %17, ptr %7, align 4
  call void @llvm.dbg.declare(metadata ptr %7, metadata !6785, metadata !DIExpression()), !dbg !6786
  %18 = load i32, ptr %7, align 4, !dbg !6787
  %19 = load ptr, ptr %6, align 8, !dbg !6788
  %20 = load i32, ptr %19, align 4, !dbg !6789
  %21 = add nsw i32 %20, %18, !dbg !6789
  store i32 %21, ptr %19, align 4, !dbg !6789
  br label %30, !dbg !6790

22:                                               ; preds = %1
  %23 = load ptr, ptr %8, align 8, !dbg !6791
  %24 = load i32, ptr %9, align 4, !dbg !6792
  store ptr %23, ptr %2, align 8
  call void @llvm.dbg.declare(metadata ptr %2, metadata !6793, metadata !DIExpression()), !dbg !6797
  store i32 %24, ptr %3, align 4
  call void @llvm.dbg.declare(metadata ptr %3, metadata !6799, metadata !DIExpression()), !dbg !6800
  %25 = load ptr, ptr %2, align 8, !dbg !6801
  %26 = load i32, ptr %3, align 4, !dbg !6802
  store i32 %26, ptr %4, align 4, !dbg !6803
  %27 = load i32, ptr %4, align 4, !dbg !6803
  %28 = atomicrmw volatile add ptr %25, i32 %27 acq_rel, align 4, !dbg !6803
  store i32 %28, ptr %5, align 4, !dbg !6803
  %29 = load i32, ptr %5, align 4, !dbg !6803
  br label %30

30:                                               ; preds = %15, %22
  ret void, !dbg !6804
}

; Function Attrs: mustprogress noinline nounwind optnone uwtable
define linkonce_odr dso_local noundef i64 @_ZNKSt13__atomic_baseIlEcvlEv(ptr noundef nonnull align 8 dereferenceable(8) %0) #8 comdat align 2 personality ptr @__gxx_personality_v0 !dbg !6805 {
  %2 = alloca ptr, align 8
  %3 = alloca i32, align 4
  %4 = alloca i32, align 4
  %5 = alloca i64, align 8
  %6 = alloca ptr, align 8
  store ptr %0, ptr %6, align 8
  call void @llvm.dbg.declare(metadata ptr %6, metadata !6806, metadata !DIExpression()), !dbg !6808
  %7 = load ptr, ptr %6, align 8
  store ptr %7, ptr %2, align 8
  call void @llvm.dbg.declare(metadata ptr %2, metadata !6809, metadata !DIExpression()), !dbg !6811
  store i32 5, ptr %3, align 4
  call void @llvm.dbg.declare(metadata ptr %3, metadata !6813, metadata !DIExpression()), !dbg !6814
  %8 = load ptr, ptr %2, align 8
  call void @llvm.dbg.declare(metadata ptr %4, metadata !6815, metadata !DIExpression()), !dbg !6816
  %9 = load i32, ptr %3, align 4, !dbg !6817
  %10 = invoke noundef i32 @_ZStanSt12memory_orderSt23__memory_order_modifier(i32 noundef %9, i32 noundef 65535)
          to label %11 unwind label %19, !dbg !6818

11:                                               ; preds = %1
  store i32 %10, ptr %4, align 4, !dbg !6816
  %12 = load i32, ptr %3, align 4, !dbg !6819
  switch i32 %12, label %13 [
    i32 1, label %15
    i32 2, label %15
    i32 5, label %17
  ], !dbg !6820

13:                                               ; preds = %11
  %14 = load atomic i64, ptr %8 monotonic, align 8, !dbg !6820
  store i64 %14, ptr %5, align 8, !dbg !6820
  br label %22, !dbg !6820

15:                                               ; preds = %11, %11
  %16 = load atomic i64, ptr %8 acquire, align 8, !dbg !6820
  store i64 %16, ptr %5, align 8, !dbg !6820
  br label %22, !dbg !6820

17:                                               ; preds = %11
  %18 = load atomic i64, ptr %8 seq_cst, align 8, !dbg !6820
  store i64 %18, ptr %5, align 8, !dbg !6820
  br label %22, !dbg !6820

19:                                               ; preds = %1
  %20 = landingpad { ptr, i32 }
          catch ptr null, !dbg !6818
  %21 = extractvalue { ptr, i32 } %20, 0, !dbg !6818
  call void @__clang_call_terminate(ptr %21) #18, !dbg !6818
  unreachable, !dbg !6818

22:                                               ; preds = %13, %15, %17
  %23 = load i64, ptr %5, align 8, !dbg !6820
  ret i64 %23, !dbg !6821
}

; Function Attrs: mustprogress noinline nounwind optnone uwtable
define linkonce_odr dso_local noundef zeroext i1 @_ZNKSt6atomicIbEcvbEv(ptr noundef nonnull align 1 dereferenceable(1) %0) #8 comdat align 2 !dbg !6822 {
  %2 = alloca ptr, align 8
  %3 = alloca i32, align 4
  %4 = alloca i32, align 4
  %5 = alloca i8, align 1
  %6 = alloca ptr, align 8
  store ptr %0, ptr %6, align 8
  call void @llvm.dbg.declare(metadata ptr %6, metadata !6823, metadata !DIExpression()), !dbg !6825
  %7 = load ptr, ptr %6, align 8
  %8 = getelementptr inbounds %"struct.std::atomic", ptr %7, i32 0, i32 0, !dbg !6826
  store ptr %8, ptr %2, align 8
  call void @llvm.dbg.declare(metadata ptr %2, metadata !6827, metadata !DIExpression()), !dbg !6830
  store i32 5, ptr %3, align 4
  call void @llvm.dbg.declare(metadata ptr %3, metadata !6832, metadata !DIExpression()), !dbg !6833
  %9 = load ptr, ptr %2, align 8
  call void @llvm.dbg.declare(metadata ptr %4, metadata !6834, metadata !DIExpression()), !dbg !6835
  %10 = load i32, ptr %3, align 4, !dbg !6836
  %11 = call noundef i32 @_ZStanSt12memory_orderSt23__memory_order_modifier(i32 noundef %10, i32 noundef 65535), !dbg !6837
  store i32 %11, ptr %4, align 4, !dbg !6835
  %12 = load i32, ptr %3, align 4, !dbg !6838
  switch i32 %12, label %13 [
    i32 1, label %15
    i32 2, label %15
    i32 5, label %17
  ], !dbg !6839

13:                                               ; preds = %1
  %14 = load atomic i8, ptr %9 monotonic, align 1, !dbg !6839
  store i8 %14, ptr %5, align 1, !dbg !6839
  br label %19, !dbg !6839

15:                                               ; preds = %1, %1
  %16 = load atomic i8, ptr %9 acquire, align 1, !dbg !6839
  store i8 %16, ptr %5, align 1, !dbg !6839
  br label %19, !dbg !6839

17:                                               ; preds = %1
  %18 = load atomic i8, ptr %9 seq_cst, align 1, !dbg !6839
  store i8 %18, ptr %5, align 1, !dbg !6839
  br label %19, !dbg !6839

19:                                               ; preds = %13, %15, %17
  %20 = load i8, ptr %5, align 1, !dbg !6839
  %21 = trunc i8 %20 to i1, !dbg !6839
  ret i1 %21, !dbg !6840
}

; Function Attrs: mustprogress noinline nounwind optnone uwtable
define linkonce_odr dso_local noundef i32 @_ZStanSt12memory_orderSt23__memory_order_modifier(i32 noundef %0, i32 noundef %1) #8 comdat !dbg !6841 {
  %3 = alloca i32, align 4
  %4 = alloca i32, align 4
  store i32 %0, ptr %3, align 4
  call void @llvm.dbg.declare(metadata ptr %3, metadata !6844, metadata !DIExpression()), !dbg !6845
  store i32 %1, ptr %4, align 4
  call void @llvm.dbg.declare(metadata ptr %4, metadata !6846, metadata !DIExpression()), !dbg !6847
  %5 = load i32, ptr %3, align 4, !dbg !6848
  %6 = load i32, ptr %4, align 4, !dbg !6849
  %7 = and i32 %5, %6, !dbg !6850
  ret i32 %7, !dbg !6851
}

; Function Attrs: noinline nounwind optnone uwtable
define linkonce_odr dso_local noundef nonnull align 8 dereferenceable(16) ptr @_ZNSt10shared_ptrI11DelaySocketEaSERKS1_(ptr noundef nonnull align 8 dereferenceable(16) %0, ptr noundef nonnull align 8 dereferenceable(16) %1) #4 comdat align 2 !dbg !6852 {
  %3 = alloca ptr, align 8
  %4 = alloca ptr, align 8
  store ptr %0, ptr %3, align 8
  call void @llvm.dbg.declare(metadata ptr %3, metadata !6853, metadata !DIExpression()), !dbg !6854
  store ptr %1, ptr %4, align 8
  call void @llvm.dbg.declare(metadata ptr %4, metadata !6855, metadata !DIExpression()), !dbg !6856
  %5 = load ptr, ptr %3, align 8
  %6 = load ptr, ptr %4, align 8, !dbg !6857
  %7 = call noundef nonnull align 8 dereferenceable(16) ptr @_ZNSt12__shared_ptrI11DelaySocketLN9__gnu_cxx12_Lock_policyE2EEaSERKS3_(ptr noundef nonnull align 8 dereferenceable(16) %5, ptr noundef nonnull align 8 dereferenceable(16) %6) #3, !dbg !6857
  ret ptr %5, !dbg !6857
}

; Function Attrs: noinline nounwind optnone uwtable
define linkonce_odr dso_local noundef nonnull align 8 dereferenceable(16) ptr @_ZNSt12__shared_ptrI11DelaySocketLN9__gnu_cxx12_Lock_policyE2EEaSERKS3_(ptr noundef nonnull align 8 dereferenceable(16) %0, ptr noundef nonnull align 8 dereferenceable(16) %1) #4 comdat align 2 !dbg !6859 {
  %3 = alloca ptr, align 8
  %4 = alloca ptr, align 8
  store ptr %0, ptr %3, align 8
  call void @llvm.dbg.declare(metadata ptr %3, metadata !6860, metadata !DIExpression()), !dbg !6862
  store ptr %1, ptr %4, align 8
  call void @llvm.dbg.declare(metadata ptr %4, metadata !6863, metadata !DIExpression()), !dbg !6864
  %5 = load ptr, ptr %3, align 8
  %6 = load ptr, ptr %4, align 8, !dbg !6865
  %7 = load ptr, ptr %4, align 8, !dbg !6865
  %8 = getelementptr inbounds %"class.std::__shared_ptr.19", ptr %7, i32 0, i32 0, !dbg !6865
  %9 = load ptr, ptr %8, align 8, !dbg !6865
  %10 = getelementptr inbounds %"class.std::__shared_ptr.19", ptr %5, i32 0, i32 0, !dbg !6865
  store ptr %9, ptr %10, align 8, !dbg !6865
  %11 = getelementptr inbounds %"class.std::__shared_ptr.19", ptr %5, i32 0, i32 1, !dbg !6865
  %12 = load ptr, ptr %4, align 8, !dbg !6865
  %13 = getelementptr inbounds %"class.std::__shared_ptr.19", ptr %12, i32 0, i32 1, !dbg !6865
  %14 = call noundef nonnull align 8 dereferenceable(8) ptr @_ZNSt14__shared_countILN9__gnu_cxx12_Lock_policyE2EEaSERKS2_(ptr noundef nonnull align 8 dereferenceable(8) %11, ptr noundef nonnull align 8 dereferenceable(8) %13) #3, !dbg !6865
  ret ptr %5, !dbg !6865
}

; Function Attrs: mustprogress noinline nounwind optnone uwtable
define linkonce_odr dso_local noundef nonnull align 8 dereferenceable(8) ptr @_ZNSt14__shared_countILN9__gnu_cxx12_Lock_policyE2EEaSERKS2_(ptr noundef nonnull align 8 dereferenceable(8) %0, ptr noundef nonnull align 8 dereferenceable(8) %1) #8 comdat align 2 personality ptr @__gxx_personality_v0 !dbg !6867 {
  %3 = alloca ptr, align 8
  %4 = alloca ptr, align 8
  %5 = alloca ptr, align 8
  store ptr %0, ptr %3, align 8
  call void @llvm.dbg.declare(metadata ptr %3, metadata !6868, metadata !DIExpression()), !dbg !6869
  store ptr %1, ptr %4, align 8
  call void @llvm.dbg.declare(metadata ptr %4, metadata !6870, metadata !DIExpression()), !dbg !6871
  %6 = load ptr, ptr %3, align 8
  call void @llvm.dbg.declare(metadata ptr %5, metadata !6872, metadata !DIExpression()), !dbg !6873
  %7 = load ptr, ptr %4, align 8, !dbg !6874
  %8 = getelementptr inbounds %"class.std::__shared_count", ptr %7, i32 0, i32 0, !dbg !6875
  %9 = load ptr, ptr %8, align 8, !dbg !6875
  store ptr %9, ptr %5, align 8, !dbg !6873
  %10 = load ptr, ptr %5, align 8, !dbg !6876
  %11 = getelementptr inbounds %"class.std::__shared_count", ptr %6, i32 0, i32 0, !dbg !6878
  %12 = load ptr, ptr %11, align 8, !dbg !6878
  %13 = icmp ne ptr %10, %12, !dbg !6879
  br i1 %13, label %14, label %30, !dbg !6880

14:                                               ; preds = %2
  %15 = load ptr, ptr %5, align 8, !dbg !6881
  %16 = icmp ne ptr %15, null, !dbg !6884
  br i1 %16, label %17, label %20, !dbg !6885

17:                                               ; preds = %14
  %18 = load ptr, ptr %5, align 8, !dbg !6886
  invoke void @_ZNSt16_Sp_counted_baseILN9__gnu_cxx12_Lock_policyE2EE15_M_add_ref_copyEv(ptr noundef nonnull align 8 dereferenceable(16) %18)
          to label %19 unwind label %31, !dbg !6887

19:                                               ; preds = %17
  br label %20, !dbg !6886

20:                                               ; preds = %19, %14
  %21 = getelementptr inbounds %"class.std::__shared_count", ptr %6, i32 0, i32 0, !dbg !6888
  %22 = load ptr, ptr %21, align 8, !dbg !6888
  %23 = icmp ne ptr %22, null, !dbg !6890
  br i1 %23, label %24, label %27, !dbg !6891

24:                                               ; preds = %20
  %25 = getelementptr inbounds %"class.std::__shared_count", ptr %6, i32 0, i32 0, !dbg !6892
  %26 = load ptr, ptr %25, align 8, !dbg !6892
  call void @_ZNSt16_Sp_counted_baseILN9__gnu_cxx12_Lock_policyE2EE10_M_releaseEv(ptr noundef nonnull align 8 dereferenceable(16) %26) #3, !dbg !6893
  br label %27, !dbg !6892

27:                                               ; preds = %24, %20
  %28 = load ptr, ptr %5, align 8, !dbg !6894
  %29 = getelementptr inbounds %"class.std::__shared_count", ptr %6, i32 0, i32 0, !dbg !6895
  store ptr %28, ptr %29, align 8, !dbg !6896
  br label %30, !dbg !6897

30:                                               ; preds = %27, %2
  ret ptr %6, !dbg !6898

31:                                               ; preds = %17
  %32 = landingpad { ptr, i32 }
          catch ptr null, !dbg !6887
  %33 = extractvalue { ptr, i32 } %32, 0, !dbg !6887
  call void @__clang_call_terminate(ptr %33) #18, !dbg !6887
  unreachable, !dbg !6887
}

; Function Attrs: mustprogress noinline nounwind optnone uwtable
define linkonce_odr dso_local noundef zeroext i1 @_ZNKSt12__shared_ptrI6SocketLN9__gnu_cxx12_Lock_policyE2EEcvbEv(ptr noundef nonnull align 8 dereferenceable(16) %0) #8 comdat align 2 !dbg !6899 {
  %2 = alloca ptr, align 8
  store ptr %0, ptr %2, align 8
  call void @llvm.dbg.declare(metadata ptr %2, metadata !6900, metadata !DIExpression()), !dbg !6901
  %3 = load ptr, ptr %2, align 8
  %4 = getelementptr inbounds %"class.std::__shared_ptr", ptr %3, i32 0, i32 0, !dbg !6902
  %5 = load ptr, ptr %4, align 8, !dbg !6902
  %6 = icmp ne ptr %5, null, !dbg !6903
  ret i1 %6, !dbg !6904
}

; Function Attrs: mustprogress noinline nounwind optnone uwtable
define linkonce_odr dso_local noundef zeroext i1 @_ZNK4Poco6Logger5debugEv(ptr noundef nonnull align 8 dereferenceable(68) %0) #8 comdat align 2 !dbg !6905 {
  %2 = alloca ptr, align 8
  store ptr %0, ptr %2, align 8
  call void @llvm.dbg.declare(metadata ptr %2, metadata !6907, metadata !DIExpression()), !dbg !6908
  %3 = load ptr, ptr %2, align 8
  %4 = getelementptr inbounds %"class.Poco::Logger", ptr %3, i32 0, i32 4, !dbg !6909
  %5 = load i32, ptr %4, align 8, !dbg !6909
  %6 = icmp sge i32 %5, 7, !dbg !6910
  ret i1 %6, !dbg !6911
}

declare noundef nonnull align 8 dereferenceable(8) ptr @_ZStlsIcSt11char_traitsIcESaIcEERSt13basic_ostreamIT_T0_ES7_RKNSt7__cxx1112basic_stringIS4_S5_T1_EE(ptr noundef nonnull align 8 dereferenceable(8), ptr noundef nonnull align 8 dereferenceable(32)) #1

; Function Attrs: mustprogress noinline nounwind optnone uwtable
define linkonce_odr dso_local noundef ptr @_ZNKSt19__shared_ptr_accessI6SocketLN9__gnu_cxx12_Lock_policyE2ELb0ELb0EEptEv(ptr noundef nonnull align 1 dereferenceable(1) %0) #8 comdat align 2 !dbg !6912 {
  %2 = alloca ptr, align 8
  store ptr %0, ptr %2, align 8
  call void @llvm.dbg.declare(metadata ptr %2, metadata !6913, metadata !DIExpression()), !dbg !6915
  %3 = load ptr, ptr %2, align 8
  %4 = call noundef ptr @_ZNKSt19__shared_ptr_accessI6SocketLN9__gnu_cxx12_Lock_policyE2ELb0ELb0EE6_M_getEv(ptr noundef nonnull align 1 dereferenceable(1) %3) #3, !dbg !6916
  ret ptr %4, !dbg !6917
}

; Function Attrs: mustprogress noinline nounwind optnone uwtable
define linkonce_odr dso_local noundef i32 @_ZNK6Socket5getFDEv(ptr noundef nonnull align 8 dereferenceable(64) %0) #8 comdat align 2 !dbg !6918 {
  %2 = alloca ptr, align 8
  store ptr %0, ptr %2, align 8
  call void @llvm.dbg.declare(metadata ptr %2, metadata !6919, metadata !DIExpression()), !dbg !6921
  %3 = load ptr, ptr %2, align 8
  %4 = getelementptr inbounds %class.Socket, ptr %3, i32 0, i32 2, !dbg !6922
  %5 = load i32, ptr %4, align 8, !dbg !6922
  ret i32 %5, !dbg !6923
}

; Function Attrs: mustprogress noinline optnone uwtable
define linkonce_odr dso_local void @_ZN6Socket16resetThreadOwnerEv(ptr noundef nonnull align 8 dereferenceable(64) %0) #7 comdat align 2 personality ptr @__gxx_personality_v0 !dbg !6924 {
  %2 = alloca ptr, align 8
  %3 = alloca %"class.std::thread::id", align 8
  %4 = alloca %"class.std::thread::id", align 8
  %5 = alloca ptr, align 8
  %6 = alloca [1024 x i8], align 16
  %7 = alloca %"class.std::__cxx11::basic_ostringstream", align 8
  %8 = alloca %"class.std::__cxx11::basic_string", align 8
  %9 = alloca %"class.std::allocator", align 1
  %10 = alloca ptr, align 8
  %11 = alloca i32, align 4
  %12 = alloca %"class.std::__cxx11::basic_string", align 8
  %13 = alloca %"class.Poco::Message", align 8
  %14 = alloca %"class.std::__cxx11::basic_string", align 8
  %15 = alloca %"class.std::thread::id", align 8
  store ptr %0, ptr %2, align 8
  call void @llvm.dbg.declare(metadata ptr %2, metadata !6925, metadata !DIExpression()), !dbg !6927
  %16 = load ptr, ptr %2, align 8
  call void @_ZNSt6thread2idC2Ev(ptr noundef nonnull align 8 dereferenceable(8) %3) #3, !dbg !6928
  %17 = getelementptr inbounds %class.Socket, ptr %16, i32 0, i32 5, !dbg !6930
  call void @llvm.memcpy.p0.p0.i64(ptr align 8 %4, ptr align 8 %17, i64 8, i1 false), !dbg !6930
  %18 = getelementptr inbounds %"class.std::thread::id", ptr %3, i32 0, i32 0, !dbg !6931
  %19 = load i64, ptr %18, align 8, !dbg !6931
  %20 = getelementptr inbounds %"class.std::thread::id", ptr %4, i32 0, i32 0, !dbg !6931
  %21 = load i64, ptr %20, align 8, !dbg !6931
  %22 = call noundef zeroext i1 @_ZStneNSt6thread2idES0_(i64 %19, i64 %21) #3, !dbg !6931
  br i1 %22, label %23, label %104, !dbg !6932

23:                                               ; preds = %1
  br label %24, !dbg !6933

24:                                               ; preds = %23
  call void @llvm.dbg.declare(metadata ptr %5, metadata !6935, metadata !DIExpression()), !dbg !6937
  %25 = call noundef nonnull align 8 dereferenceable(68) ptr @_ZN3Log6loggerEv(), !dbg !6937
  store ptr %25, ptr %5, align 8, !dbg !6937
  %26 = call noundef zeroext i1 @_ZN3Log16isShutdownCalledEv(), !dbg !6938
  br i1 %26, label %101, label %27, !dbg !6938

27:                                               ; preds = %24
  %28 = load ptr, ptr %5, align 8, !dbg !6938
  %29 = call noundef zeroext i1 @_ZNK4Poco6Logger5debugEv(ptr noundef nonnull align 8 dereferenceable(68) %28), !dbg !6938
  br i1 %29, label %30, label %101, !dbg !6937

30:                                               ; preds = %27
  call void @llvm.dbg.declare(metadata ptr %6, metadata !6940, metadata !DIExpression()), !dbg !6942
  call void @llvm.dbg.declare(metadata ptr %7, metadata !6943, metadata !DIExpression()), !dbg !6942
  %31 = getelementptr inbounds [1024 x i8], ptr %6, i64 0, i64 0, !dbg !6942
  %32 = call noundef ptr @_ZN3Log6prefixILi1023EEEPcS1_PKc(ptr noundef %31, ptr noundef @.str.12), !dbg !6942
  call void @_ZNSaIcEC1Ev(ptr noundef nonnull align 1 dereferenceable(1) %9) #3, !dbg !6942
  invoke void @_ZNSt7__cxx1112basic_stringIcSt11char_traitsIcESaIcEEC2IS3_EEPKcRKS3_(ptr noundef nonnull align 8 dereferenceable(32) %8, ptr noundef %32, ptr noundef nonnull align 1 dereferenceable(1) %9)
          to label %33 unwind label %74, !dbg !6942

33:                                               ; preds = %30
  invoke void @_ZNSt7__cxx1119basic_ostringstreamIcSt11char_traitsIcESaIcEEC1ERKNS_12basic_stringIcS2_S3_EESt13_Ios_Openmode(ptr noundef nonnull align 8 dereferenceable(112) %7, ptr noundef nonnull align 8 dereferenceable(32) %8, i32 noundef 2)
          to label %34 unwind label %78, !dbg !6942

34:                                               ; preds = %33
  call void @_ZNSt7__cxx1112basic_stringIcSt11char_traitsIcESaIcEED1Ev(ptr noundef nonnull align 8 dereferenceable(32) %8) #3, !dbg !6942
  call void @_ZNSaIcED1Ev(ptr noundef nonnull align 1 dereferenceable(1) %9) #3, !dbg !6942
  %35 = invoke noundef nonnull align 8 dereferenceable(8) ptr @_ZNSolsEPFRSt8ios_baseS0_E(ptr noundef nonnull align 8 dereferenceable(8) %7, ptr noundef @_ZSt9boolalphaRSt8ios_base)
          to label %36 unwind label %83, !dbg !6942

36:                                               ; preds = %34
  %37 = invoke noundef nonnull align 8 dereferenceable(8) ptr @_ZStlsISt11char_traitsIcEERSt13basic_ostreamIcT_ES5_c(ptr noundef nonnull align 8 dereferenceable(8) %35, i8 noundef signext 35)
          to label %38 unwind label %83, !dbg !6942

38:                                               ; preds = %36
  %39 = getelementptr inbounds %class.Socket, ptr %16, i32 0, i32 2, !dbg !6942
  %40 = load i32, ptr %39, align 8, !dbg !6942
  %41 = invoke noundef nonnull align 8 dereferenceable(8) ptr @_ZNSolsEi(ptr noundef nonnull align 8 dereferenceable(8) %37, i32 noundef %40)
          to label %42 unwind label %83, !dbg !6942

42:                                               ; preds = %38
  %43 = invoke noundef nonnull align 8 dereferenceable(8) ptr @_ZStlsISt11char_traitsIcEERSt13basic_ostreamIcT_ES5_PKc(ptr noundef nonnull align 8 dereferenceable(8) %41, ptr noundef @.str.16)
          to label %44 unwind label %83, !dbg !6942

44:                                               ; preds = %42
  %45 = getelementptr inbounds %class.Socket, ptr %16, i32 0, i32 5, !dbg !6942
  invoke void @_ZN3Log9to_stringB5cxx11ERKNSt6thread2idE(ptr sret(%"class.std::__cxx11::basic_string") align 8 %12, ptr noundef nonnull align 8 dereferenceable(8) %45)
          to label %46 unwind label %83, !dbg !6942

46:                                               ; preds = %44
  %47 = invoke noundef nonnull align 8 dereferenceable(8) ptr @_ZStlsIcSt11char_traitsIcESaIcEERSt13basic_ostreamIT_T0_ES7_RKNSt7__cxx1112basic_stringIS4_S5_T1_EE(ptr noundef nonnull align 8 dereferenceable(8) %43, ptr noundef nonnull align 8 dereferenceable(32) %12)
          to label %48 unwind label %87, !dbg !6942

48:                                               ; preds = %46
  %49 = invoke noundef nonnull align 8 dereferenceable(8) ptr @_ZStlsISt11char_traitsIcEERSt13basic_ostreamIcT_ES5_c(ptr noundef nonnull align 8 dereferenceable(8) %47, i8 noundef signext 41)
          to label %50 unwind label %87, !dbg !6942

50:                                               ; preds = %48
  call void @_ZNSt7__cxx1112basic_stringIcSt11char_traitsIcESaIcEED1Ev(ptr noundef nonnull align 8 dereferenceable(32) %12) #3, !dbg !6942
  br label %51, !dbg !6942

51:                                               ; preds = %50
  %52 = invoke noundef nonnull align 8 dereferenceable(8) ptr @_ZStlsISt11char_traitsIcEERSt13basic_ostreamIcT_ES5_PKc(ptr noundef nonnull align 8 dereferenceable(8) %7, ptr noundef @.str.5)
          to label %53 unwind label %83, !dbg !6944

53:                                               ; preds = %51
  %54 = invoke noundef nonnull align 8 dereferenceable(8) ptr @_ZStlsISt11char_traitsIcEERSt13basic_ostreamIcT_ES5_PKc(ptr noundef nonnull align 8 dereferenceable(8) %52, ptr noundef @.str.15)
          to label %55 unwind label %83, !dbg !6944

55:                                               ; preds = %53
  %56 = invoke noundef nonnull align 8 dereferenceable(8) ptr @_ZStlsISt11char_traitsIcEERSt13basic_ostreamIcT_ES5_c(ptr noundef nonnull align 8 dereferenceable(8) %54, i8 noundef signext 58)
          to label %57 unwind label %83, !dbg !6944

57:                                               ; preds = %55
  %58 = invoke noundef nonnull align 8 dereferenceable(8) ptr @_ZNSolsEi(ptr noundef nonnull align 8 dereferenceable(8) %56, i32 noundef 325)
          to label %59 unwind label %83, !dbg !6944

59:                                               ; preds = %57
  %60 = invoke noundef nonnull align 8 dereferenceable(8) ptr @_ZNSo5flushEv(ptr noundef nonnull align 8 dereferenceable(8) %7)
          to label %61 unwind label %83, !dbg !6947

61:                                               ; preds = %59
  br label %62, !dbg !6947

62:                                               ; preds = %61
  br label %63, !dbg !6947

63:                                               ; preds = %62
  %64 = load ptr, ptr %5, align 8, !dbg !6942
  %65 = load ptr, ptr %5, align 8, !dbg !6942
  %66 = invoke noundef nonnull align 8 dereferenceable(32) ptr @_ZNK4Poco6Logger4nameB5cxx11Ev(ptr noundef nonnull align 8 dereferenceable(68) %65)
          to label %67 unwind label %83, !dbg !6942

67:                                               ; preds = %63
  invoke void @_ZNKSt7__cxx1119basic_ostringstreamIcSt11char_traitsIcESaIcEE3strEv(ptr sret(%"class.std::__cxx11::basic_string") align 8 %14, ptr noundef nonnull align 8 dereferenceable(112) %7)
          to label %68 unwind label %83, !dbg !6942

68:                                               ; preds = %67
  invoke void @_ZN4Poco7MessageC1ERKNSt7__cxx1112basic_stringIcSt11char_traitsIcESaIcEEES8_NS0_8PriorityE(ptr noundef nonnull align 8 dereferenceable(152) %13, ptr noundef nonnull align 8 dereferenceable(32) %66, ptr noundef nonnull align 8 dereferenceable(32) %14, i32 noundef 7)
          to label %69 unwind label %91, !dbg !6942

69:                                               ; preds = %68
  %70 = load ptr, ptr %64, align 8, !dbg !6942
  %71 = getelementptr inbounds ptr, ptr %70, i64 6, !dbg !6942
  %72 = load ptr, ptr %71, align 8, !dbg !6942
  invoke void %72(ptr noundef nonnull align 8 dereferenceable(68) %64, ptr noundef nonnull align 8 dereferenceable(152) %13)
          to label %73 unwind label %95, !dbg !6942

73:                                               ; preds = %69
  call void @_ZN4Poco7MessageD1Ev(ptr noundef nonnull align 8 dereferenceable(152) %13) #3, !dbg !6942
  call void @_ZNSt7__cxx1112basic_stringIcSt11char_traitsIcESaIcEED1Ev(ptr noundef nonnull align 8 dereferenceable(32) %14) #3, !dbg !6942
  call void @_ZNSt7__cxx1119basic_ostringstreamIcSt11char_traitsIcESaIcEED1Ev(ptr noundef nonnull align 8 dereferenceable(112) %7) #3, !dbg !6938
  br label %101, !dbg !6942

74:                                               ; preds = %30
  %75 = landingpad { ptr, i32 }
          cleanup, !dbg !6948
  %76 = extractvalue { ptr, i32 } %75, 0, !dbg !6948
  store ptr %76, ptr %10, align 8, !dbg !6948
  %77 = extractvalue { ptr, i32 } %75, 1, !dbg !6948
  store i32 %77, ptr %11, align 4, !dbg !6948
  br label %82, !dbg !6948

78:                                               ; preds = %33
  %79 = landingpad { ptr, i32 }
          cleanup, !dbg !6948
  %80 = extractvalue { ptr, i32 } %79, 0, !dbg !6948
  store ptr %80, ptr %10, align 8, !dbg !6948
  %81 = extractvalue { ptr, i32 } %79, 1, !dbg !6948
  store i32 %81, ptr %11, align 4, !dbg !6948
  call void @_ZNSt7__cxx1112basic_stringIcSt11char_traitsIcESaIcEED1Ev(ptr noundef nonnull align 8 dereferenceable(32) %8) #3, !dbg !6942
  br label %82, !dbg !6942

82:                                               ; preds = %78, %74
  call void @_ZNSaIcED1Ev(ptr noundef nonnull align 1 dereferenceable(1) %9) #3, !dbg !6942
  br label %105, !dbg !6942

83:                                               ; preds = %67, %63, %59, %57, %55, %53, %51, %44, %42, %38, %36, %34
  %84 = landingpad { ptr, i32 }
          cleanup, !dbg !6948
  %85 = extractvalue { ptr, i32 } %84, 0, !dbg !6948
  store ptr %85, ptr %10, align 8, !dbg !6948
  %86 = extractvalue { ptr, i32 } %84, 1, !dbg !6948
  store i32 %86, ptr %11, align 4, !dbg !6948
  br label %100, !dbg !6948

87:                                               ; preds = %48, %46
  %88 = landingpad { ptr, i32 }
          cleanup, !dbg !6948
  %89 = extractvalue { ptr, i32 } %88, 0, !dbg !6948
  store ptr %89, ptr %10, align 8, !dbg !6948
  %90 = extractvalue { ptr, i32 } %88, 1, !dbg !6948
  store i32 %90, ptr %11, align 4, !dbg !6948
  call void @_ZNSt7__cxx1112basic_stringIcSt11char_traitsIcESaIcEED1Ev(ptr noundef nonnull align 8 dereferenceable(32) %12) #3, !dbg !6942
  br label %100, !dbg !6942

91:                                               ; preds = %68
  %92 = landingpad { ptr, i32 }
          cleanup, !dbg !6948
  %93 = extractvalue { ptr, i32 } %92, 0, !dbg !6948
  store ptr %93, ptr %10, align 8, !dbg !6948
  %94 = extractvalue { ptr, i32 } %92, 1, !dbg !6948
  store i32 %94, ptr %11, align 4, !dbg !6948
  br label %99, !dbg !6948

95:                                               ; preds = %69
  %96 = landingpad { ptr, i32 }
          cleanup, !dbg !6948
  %97 = extractvalue { ptr, i32 } %96, 0, !dbg !6948
  store ptr %97, ptr %10, align 8, !dbg !6948
  %98 = extractvalue { ptr, i32 } %96, 1, !dbg !6948
  store i32 %98, ptr %11, align 4, !dbg !6948
  call void @_ZN4Poco7MessageD1Ev(ptr noundef nonnull align 8 dereferenceable(152) %13) #3, !dbg !6942
  br label %99, !dbg !6942

99:                                               ; preds = %95, %91
  call void @_ZNSt7__cxx1112basic_stringIcSt11char_traitsIcESaIcEED1Ev(ptr noundef nonnull align 8 dereferenceable(32) %14) #3, !dbg !6942
  br label %100, !dbg !6942

100:                                              ; preds = %99, %87, %83
  call void @_ZNSt7__cxx1119basic_ostringstreamIcSt11char_traitsIcESaIcEED1Ev(ptr noundef nonnull align 8 dereferenceable(112) %7) #3, !dbg !6938
  br label %105, !dbg !6938

101:                                              ; preds = %73, %27, %24
  br label %102, !dbg !6937

102:                                              ; preds = %101
  call void @_ZNSt6thread2idC2Ev(ptr noundef nonnull align 8 dereferenceable(8) %15) #3, !dbg !6949
  %103 = getelementptr inbounds %class.Socket, ptr %16, i32 0, i32 5, !dbg !6950
  call void @llvm.memcpy.p0.p0.i64(ptr align 8 %103, ptr align 8 %15, i64 8, i1 false), !dbg !6951
  br label %104, !dbg !6952

104:                                              ; preds = %102, %1
  ret void, !dbg !6953

105:                                              ; preds = %100, %82
  %106 = load ptr, ptr %10, align 8, !dbg !6942
  %107 = load i32, ptr %11, align 4, !dbg !6942
  %108 = insertvalue { ptr, i32 } poison, ptr %106, 0, !dbg !6942
  %109 = insertvalue { ptr, i32 } %108, i32 %107, 1, !dbg !6942
  resume { ptr, i32 } %109, !dbg !6942
}

; Function Attrs: noinline optnone uwtable
define linkonce_odr dso_local void @_ZNSt10lock_guardISt5mutexEC2ERS0_(ptr noundef nonnull align 8 dereferenceable(8) %0, ptr noundef nonnull align 8 dereferenceable(40) %1) unnamed_addr #5 comdat align 2 !dbg !6954 {
  %3 = alloca ptr, align 8
  %4 = alloca ptr, align 8
  store ptr %0, ptr %3, align 8
  call void @llvm.dbg.declare(metadata ptr %3, metadata !6955, metadata !DIExpression()), !dbg !6957
  store ptr %1, ptr %4, align 8
  call void @llvm.dbg.declare(metadata ptr %4, metadata !6958, metadata !DIExpression()), !dbg !6959
  %5 = load ptr, ptr %3, align 8
  %6 = getelementptr inbounds %"class.std::lock_guard", ptr %5, i32 0, i32 0, !dbg !6960
  %7 = load ptr, ptr %4, align 8, !dbg !6961
  store ptr %7, ptr %6, align 8, !dbg !6960
  %8 = getelementptr inbounds %"class.std::lock_guard", ptr %5, i32 0, i32 0, !dbg !6962
  %9 = load ptr, ptr %8, align 8, !dbg !6962
  call void @_ZNSt5mutex4lockEv(ptr noundef nonnull align 8 dereferenceable(40) %9), !dbg !6964
  ret void, !dbg !6965
}

; Function Attrs: mustprogress noinline optnone uwtable
define linkonce_odr dso_local noundef nonnull align 8 dereferenceable(16) ptr @_ZNSt6vectorISt10shared_ptrI6SocketESaIS2_EE12emplace_backIJS2_EEERS2_DpOT_(ptr noundef nonnull align 8 dereferenceable(24) %0, ptr noundef nonnull align 8 dereferenceable(16) %1) #7 comdat align 2 !dbg !6966 {
  %3 = alloca ptr, align 8
  %4 = alloca ptr, align 8
  %5 = alloca %"class.__gnu_cxx::__normal_iterator", align 8
  store ptr %0, ptr %3, align 8
  call void @llvm.dbg.declare(metadata ptr %3, metadata !6979, metadata !DIExpression()), !dbg !6981
  store ptr %1, ptr %4, align 8
  call void @llvm.dbg.declare(metadata ptr %4, metadata !6982, metadata !DIExpression()), !dbg !6983
  %6 = load ptr, ptr %3, align 8
  %7 = getelementptr inbounds %"struct.std::_Vector_base", ptr %6, i32 0, i32 0, !dbg !6984
  %8 = getelementptr inbounds %"struct.std::_Vector_base<std::shared_ptr<Socket>, std::allocator<std::shared_ptr<Socket>>>::_Vector_impl_data", ptr %7, i32 0, i32 1, !dbg !6986
  %9 = load ptr, ptr %8, align 8, !dbg !6986
  %10 = getelementptr inbounds %"struct.std::_Vector_base", ptr %6, i32 0, i32 0, !dbg !6987
  %11 = getelementptr inbounds %"struct.std::_Vector_base<std::shared_ptr<Socket>, std::allocator<std::shared_ptr<Socket>>>::_Vector_impl_data", ptr %10, i32 0, i32 2, !dbg !6988
  %12 = load ptr, ptr %11, align 8, !dbg !6988
  %13 = icmp ne ptr %9, %12, !dbg !6989
  br i1 %13, label %14, label %24, !dbg !6990

14:                                               ; preds = %2
  %15 = getelementptr inbounds %"struct.std::_Vector_base", ptr %6, i32 0, i32 0, !dbg !6991
  %16 = getelementptr inbounds %"struct.std::_Vector_base", ptr %6, i32 0, i32 0, !dbg !6993
  %17 = getelementptr inbounds %"struct.std::_Vector_base<std::shared_ptr<Socket>, std::allocator<std::shared_ptr<Socket>>>::_Vector_impl_data", ptr %16, i32 0, i32 1, !dbg !6994
  %18 = load ptr, ptr %17, align 8, !dbg !6994
  %19 = load ptr, ptr %4, align 8, !dbg !6995
  call void @_ZNSt16allocator_traitsISaISt10shared_ptrI6SocketEEE9constructIS2_JS2_EEEvRS3_PT_DpOT0_(ptr noundef nonnull align 1 dereferenceable(1) %15, ptr noundef %18, ptr noundef nonnull align 8 dereferenceable(16) %19) #3, !dbg !6996
  %20 = getelementptr inbounds %"struct.std::_Vector_base", ptr %6, i32 0, i32 0, !dbg !6997
  %21 = getelementptr inbounds %"struct.std::_Vector_base<std::shared_ptr<Socket>, std::allocator<std::shared_ptr<Socket>>>::_Vector_impl_data", ptr %20, i32 0, i32 1, !dbg !6998
  %22 = load ptr, ptr %21, align 8, !dbg !6999
  %23 = getelementptr inbounds %"class.std::shared_ptr", ptr %22, i32 1, !dbg !6999
  store ptr %23, ptr %21, align 8, !dbg !6999
  br label %30, !dbg !7000

24:                                               ; preds = %2
  %25 = call ptr @_ZNSt6vectorISt10shared_ptrI6SocketESaIS2_EE3endEv(ptr noundef nonnull align 8 dereferenceable(24) %6) #3, !dbg !7001
  %26 = getelementptr inbounds %"class.__gnu_cxx::__normal_iterator", ptr %5, i32 0, i32 0, !dbg !7001
  store ptr %25, ptr %26, align 8, !dbg !7001
  %27 = load ptr, ptr %4, align 8, !dbg !7002
  %28 = getelementptr inbounds %"class.__gnu_cxx::__normal_iterator", ptr %5, i32 0, i32 0, !dbg !7003
  %29 = load ptr, ptr %28, align 8, !dbg !7003
  call void @_ZNSt6vectorISt10shared_ptrI6SocketESaIS2_EE17_M_realloc_insertIJS2_EEEvN9__gnu_cxx17__normal_iteratorIPS2_S4_EEDpOT_(ptr noundef nonnull align 8 dereferenceable(24) %6, ptr %29, ptr noundef nonnull align 8 dereferenceable(16) %27), !dbg !7003
  br label %30

30:                                               ; preds = %24, %14
  %31 = call noundef nonnull align 8 dereferenceable(16) ptr @_ZNSt6vectorISt10shared_ptrI6SocketESaIS2_EE4backEv(ptr noundef nonnull align 8 dereferenceable(24) %6) #3, !dbg !7004
  ret ptr %31, !dbg !7005
}

; Function Attrs: mustprogress noinline optnone uwtable
define linkonce_odr dso_local void @_ZN10SocketPoll6wakeupEv(ptr noundef nonnull align 8 dereferenceable(232) %0) #7 comdat align 2 personality ptr @__gxx_personality_v0 !dbg !7006 {
  %2 = alloca ptr, align 8
  %3 = alloca ptr, align 8
  %4 = alloca [1024 x i8], align 16
  %5 = alloca %"class.std::__cxx11::basic_ostringstream", align 8
  %6 = alloca %"class.std::__cxx11::basic_string", align 8
  %7 = alloca %"class.std::allocator", align 1
  %8 = alloca ptr, align 8
  %9 = alloca i32, align 4
  %10 = alloca %"class.Poco::Message", align 8
  %11 = alloca %"class.std::__cxx11::basic_string", align 8
  store ptr %0, ptr %2, align 8
  call void @llvm.dbg.declare(metadata ptr %2, metadata !7010, metadata !DIExpression()), !dbg !7011
  %12 = load ptr, ptr %2, align 8
  %13 = call noundef zeroext i1 @_ZNK10SocketPoll7isAliveEv(ptr noundef nonnull align 8 dereferenceable(232) %12), !dbg !7012
  br i1 %13, label %96, label %14, !dbg !7014

14:                                               ; preds = %1
  br label %15, !dbg !7015

15:                                               ; preds = %14
  call void @llvm.dbg.declare(metadata ptr %3, metadata !7016, metadata !DIExpression()), !dbg !7018
  %16 = call noundef nonnull align 8 dereferenceable(68) ptr @_ZN3Log6loggerEv(), !dbg !7018
  store ptr %16, ptr %3, align 8, !dbg !7018
  %17 = call noundef zeroext i1 @_ZN3Log16isShutdownCalledEv(), !dbg !7019
  br i1 %17, label %94, label %18, !dbg !7019

18:                                               ; preds = %15
  %19 = load ptr, ptr %3, align 8, !dbg !7019
  %20 = call noundef zeroext i1 @_ZNK4Poco6Logger7warningEv(ptr noundef nonnull align 8 dereferenceable(68) %19), !dbg !7019
  br i1 %20, label %21, label %94, !dbg !7018

21:                                               ; preds = %18
  call void @llvm.dbg.declare(metadata ptr %4, metadata !7021, metadata !DIExpression()), !dbg !7023
  call void @llvm.dbg.declare(metadata ptr %5, metadata !7024, metadata !DIExpression()), !dbg !7023
  %22 = getelementptr inbounds [1024 x i8], ptr %4, i64 0, i64 0, !dbg !7023
  %23 = call noundef ptr @_ZN3Log6prefixILi1023EEEPcS1_PKc(ptr noundef %22, ptr noundef @.str.21), !dbg !7023
  call void @_ZNSaIcEC1Ev(ptr noundef nonnull align 1 dereferenceable(1) %7) #3, !dbg !7023
  invoke void @_ZNSt7__cxx1112basic_stringIcSt11char_traitsIcESaIcEEC2IS3_EEPKcRKS3_(ptr noundef nonnull align 8 dereferenceable(32) %6, ptr noundef %23, ptr noundef nonnull align 1 dereferenceable(1) %7)
          to label %24 unwind label %71, !dbg !7023

24:                                               ; preds = %21
  invoke void @_ZNSt7__cxx1119basic_ostringstreamIcSt11char_traitsIcESaIcEEC1ERKNS_12basic_stringIcS2_S3_EESt13_Ios_Openmode(ptr noundef nonnull align 8 dereferenceable(112) %5, ptr noundef nonnull align 8 dereferenceable(32) %6, i32 noundef 2)
          to label %25 unwind label %75, !dbg !7023

25:                                               ; preds = %24
  call void @_ZNSt7__cxx1112basic_stringIcSt11char_traitsIcESaIcEED1Ev(ptr noundef nonnull align 8 dereferenceable(32) %6) #3, !dbg !7023
  call void @_ZNSaIcED1Ev(ptr noundef nonnull align 1 dereferenceable(1) %7) #3, !dbg !7023
  %26 = invoke noundef nonnull align 8 dereferenceable(8) ptr @_ZNSolsEPFRSt8ios_baseS0_E(ptr noundef nonnull align 8 dereferenceable(8) %5, ptr noundef @_ZSt9boolalphaRSt8ios_base)
          to label %27 unwind label %80, !dbg !7023

27:                                               ; preds = %25
  %28 = invoke noundef nonnull align 8 dereferenceable(8) ptr @_ZStlsISt11char_traitsIcEERSt13basic_ostreamIcT_ES5_PKc(ptr noundef nonnull align 8 dereferenceable(8) %26, ptr noundef @.str.22)
          to label %29 unwind label %80, !dbg !7023

29:                                               ; preds = %27
  %30 = getelementptr inbounds %class.SocketPoll, ptr %12, i32 0, i32 1, !dbg !7023
  %31 = invoke noundef nonnull align 8 dereferenceable(8) ptr @_ZStlsIcSt11char_traitsIcESaIcEERSt13basic_ostreamIT_T0_ES7_RKNSt7__cxx1112basic_stringIS4_S5_T1_EE(ptr noundef nonnull align 8 dereferenceable(8) %28, ptr noundef nonnull align 8 dereferenceable(32) %30)
          to label %32 unwind label %80, !dbg !7023

32:                                               ; preds = %29
  %33 = invoke noundef nonnull align 8 dereferenceable(8) ptr @_ZStlsISt11char_traitsIcEERSt13basic_ostreamIcT_ES5_PKc(ptr noundef nonnull align 8 dereferenceable(8) %31, ptr noundef @.str.23)
          to label %34 unwind label %80, !dbg !7023

34:                                               ; preds = %32
  %35 = getelementptr inbounds %class.SocketPoll, ptr %12, i32 0, i32 11, !dbg !7023
  %36 = call noundef i64 @_ZNKSt13__atomic_baseIlEcvlEv(ptr noundef nonnull align 8 dereferenceable(8) %35) #3, !dbg !7023
  %37 = icmp ne i64 %36, 0, !dbg !7023
  %38 = zext i1 %37 to i64, !dbg !7023
  %39 = select i1 %37, ptr @.str.24, ptr @.str.25, !dbg !7023
  %40 = invoke noundef nonnull align 8 dereferenceable(8) ptr @_ZStlsISt11char_traitsIcEERSt13basic_ostreamIcT_ES5_PKc(ptr noundef nonnull align 8 dereferenceable(8) %33, ptr noundef %39)
          to label %41 unwind label %80, !dbg !7023

41:                                               ; preds = %34
  %42 = invoke noundef nonnull align 8 dereferenceable(8) ptr @_ZStlsISt11char_traitsIcEERSt13basic_ostreamIcT_ES5_PKc(ptr noundef nonnull align 8 dereferenceable(8) %40, ptr noundef @.str.26)
          to label %43 unwind label %80, !dbg !7023

43:                                               ; preds = %41
  %44 = getelementptr inbounds %class.SocketPoll, ptr %12, i32 0, i32 12, !dbg !7023
  %45 = call noundef zeroext i1 @_ZNKSt6atomicIbEcvbEv(ptr noundef nonnull align 1 dereferenceable(1) %44) #3, !dbg !7023
  %46 = invoke noundef nonnull align 8 dereferenceable(8) ptr @_ZNSolsEb(ptr noundef nonnull align 8 dereferenceable(8) %42, i1 noundef zeroext %45)
          to label %47 unwind label %80, !dbg !7023

47:                                               ; preds = %43
  br label %48, !dbg !7023

48:                                               ; preds = %47
  %49 = invoke noundef nonnull align 8 dereferenceable(8) ptr @_ZStlsISt11char_traitsIcEERSt13basic_ostreamIcT_ES5_PKc(ptr noundef nonnull align 8 dereferenceable(8) %5, ptr noundef @.str.5)
          to label %50 unwind label %80, !dbg !7025

50:                                               ; preds = %48
  %51 = invoke noundef nonnull align 8 dereferenceable(8) ptr @_ZStlsISt11char_traitsIcEERSt13basic_ostreamIcT_ES5_PKc(ptr noundef nonnull align 8 dereferenceable(8) %49, ptr noundef @.str.15)
          to label %52 unwind label %80, !dbg !7025

52:                                               ; preds = %50
  %53 = invoke noundef nonnull align 8 dereferenceable(8) ptr @_ZStlsISt11char_traitsIcEERSt13basic_ostreamIcT_ES5_c(ptr noundef nonnull align 8 dereferenceable(8) %51, i8 noundef signext 58)
          to label %54 unwind label %80, !dbg !7025

54:                                               ; preds = %52
  %55 = invoke noundef nonnull align 8 dereferenceable(8) ptr @_ZNSolsEi(ptr noundef nonnull align 8 dereferenceable(8) %53, i32 noundef 718)
          to label %56 unwind label %80, !dbg !7025

56:                                               ; preds = %54
  %57 = invoke noundef nonnull align 8 dereferenceable(8) ptr @_ZNSo5flushEv(ptr noundef nonnull align 8 dereferenceable(8) %5)
          to label %58 unwind label %80, !dbg !7028

58:                                               ; preds = %56
  br label %59, !dbg !7028

59:                                               ; preds = %58
  br label %60, !dbg !7028

60:                                               ; preds = %59
  %61 = load ptr, ptr %3, align 8, !dbg !7023
  %62 = load ptr, ptr %3, align 8, !dbg !7023
  %63 = invoke noundef nonnull align 8 dereferenceable(32) ptr @_ZNK4Poco6Logger4nameB5cxx11Ev(ptr noundef nonnull align 8 dereferenceable(68) %62)
          to label %64 unwind label %80, !dbg !7023

64:                                               ; preds = %60
  invoke void @_ZNKSt7__cxx1119basic_ostringstreamIcSt11char_traitsIcESaIcEE3strEv(ptr sret(%"class.std::__cxx11::basic_string") align 8 %11, ptr noundef nonnull align 8 dereferenceable(112) %5)
          to label %65 unwind label %80, !dbg !7023

65:                                               ; preds = %64
  invoke void @_ZN4Poco7MessageC1ERKNSt7__cxx1112basic_stringIcSt11char_traitsIcESaIcEEES8_NS0_8PriorityE(ptr noundef nonnull align 8 dereferenceable(152) %10, ptr noundef nonnull align 8 dereferenceable(32) %63, ptr noundef nonnull align 8 dereferenceable(32) %11, i32 noundef 4)
          to label %66 unwind label %84, !dbg !7023

66:                                               ; preds = %65
  %67 = load ptr, ptr %61, align 8, !dbg !7023
  %68 = getelementptr inbounds ptr, ptr %67, i64 6, !dbg !7023
  %69 = load ptr, ptr %68, align 8, !dbg !7023
  invoke void %69(ptr noundef nonnull align 8 dereferenceable(68) %61, ptr noundef nonnull align 8 dereferenceable(152) %10)
          to label %70 unwind label %88, !dbg !7023

70:                                               ; preds = %66
  call void @_ZN4Poco7MessageD1Ev(ptr noundef nonnull align 8 dereferenceable(152) %10) #3, !dbg !7023
  call void @_ZNSt7__cxx1112basic_stringIcSt11char_traitsIcESaIcEED1Ev(ptr noundef nonnull align 8 dereferenceable(32) %11) #3, !dbg !7023
  call void @_ZNSt7__cxx1119basic_ostringstreamIcSt11char_traitsIcESaIcEED1Ev(ptr noundef nonnull align 8 dereferenceable(112) %5) #3, !dbg !7019
  br label %94, !dbg !7023

71:                                               ; preds = %21
  %72 = landingpad { ptr, i32 }
          cleanup, !dbg !7029
  %73 = extractvalue { ptr, i32 } %72, 0, !dbg !7029
  store ptr %73, ptr %8, align 8, !dbg !7029
  %74 = extractvalue { ptr, i32 } %72, 1, !dbg !7029
  store i32 %74, ptr %9, align 4, !dbg !7029
  br label %79, !dbg !7029

75:                                               ; preds = %24
  %76 = landingpad { ptr, i32 }
          cleanup, !dbg !7029
  %77 = extractvalue { ptr, i32 } %76, 0, !dbg !7029
  store ptr %77, ptr %8, align 8, !dbg !7029
  %78 = extractvalue { ptr, i32 } %76, 1, !dbg !7029
  store i32 %78, ptr %9, align 4, !dbg !7029
  call void @_ZNSt7__cxx1112basic_stringIcSt11char_traitsIcESaIcEED1Ev(ptr noundef nonnull align 8 dereferenceable(32) %6) #3, !dbg !7023
  br label %79, !dbg !7023

79:                                               ; preds = %75, %71
  call void @_ZNSaIcED1Ev(ptr noundef nonnull align 1 dereferenceable(1) %7) #3, !dbg !7023
  br label %100, !dbg !7023

80:                                               ; preds = %64, %60, %56, %54, %52, %50, %48, %43, %41, %34, %32, %29, %27, %25
  %81 = landingpad { ptr, i32 }
          cleanup, !dbg !7029
  %82 = extractvalue { ptr, i32 } %81, 0, !dbg !7029
  store ptr %82, ptr %8, align 8, !dbg !7029
  %83 = extractvalue { ptr, i32 } %81, 1, !dbg !7029
  store i32 %83, ptr %9, align 4, !dbg !7029
  br label %93, !dbg !7029

84:                                               ; preds = %65
  %85 = landingpad { ptr, i32 }
          cleanup, !dbg !7029
  %86 = extractvalue { ptr, i32 } %85, 0, !dbg !7029
  store ptr %86, ptr %8, align 8, !dbg !7029
  %87 = extractvalue { ptr, i32 } %85, 1, !dbg !7029
  store i32 %87, ptr %9, align 4, !dbg !7029
  br label %92, !dbg !7029

88:                                               ; preds = %66
  %89 = landingpad { ptr, i32 }
          cleanup, !dbg !7029
  %90 = extractvalue { ptr, i32 } %89, 0, !dbg !7029
  store ptr %90, ptr %8, align 8, !dbg !7029
  %91 = extractvalue { ptr, i32 } %89, 1, !dbg !7029
  store i32 %91, ptr %9, align 4, !dbg !7029
  call void @_ZN4Poco7MessageD1Ev(ptr noundef nonnull align 8 dereferenceable(152) %10) #3, !dbg !7023
  br label %92, !dbg !7023

92:                                               ; preds = %88, %84
  call void @_ZNSt7__cxx1112basic_stringIcSt11char_traitsIcESaIcEED1Ev(ptr noundef nonnull align 8 dereferenceable(32) %11) #3, !dbg !7023
  br label %93, !dbg !7023

93:                                               ; preds = %92, %80
  call void @_ZNSt7__cxx1119basic_ostringstreamIcSt11char_traitsIcESaIcEED1Ev(ptr noundef nonnull align 8 dereferenceable(112) %5) #3, !dbg !7019
  br label %100, !dbg !7019

94:                                               ; preds = %70, %18, %15
  br label %95, !dbg !7018

95:                                               ; preds = %94
  br label %96, !dbg !7018

96:                                               ; preds = %95, %1
  %97 = getelementptr inbounds %class.SocketPoll, ptr %12, i32 0, i32 2, !dbg !7030
  %98 = getelementptr inbounds [2 x i32], ptr %97, i64 0, i64 1, !dbg !7030
  %99 = load i32, ptr %98, align 4, !dbg !7030
  call void @_ZN10SocketPoll6wakeupEi(i32 noundef %99), !dbg !7031
  ret void, !dbg !7032

100:                                              ; preds = %93, %79
  %101 = load ptr, ptr %8, align 8, !dbg !7023
  %102 = load i32, ptr %9, align 4, !dbg !7023
  %103 = insertvalue { ptr, i32 } poison, ptr %101, 0, !dbg !7023
  %104 = insertvalue { ptr, i32 } %103, i32 %102, 1, !dbg !7023
  resume { ptr, i32 } %104, !dbg !7023
}

; Function Attrs: noinline nounwind optnone uwtable
define linkonce_odr dso_local void @_ZNSt10lock_guardISt5mutexED2Ev(ptr noundef nonnull align 8 dereferenceable(8) %0) unnamed_addr #4 comdat align 2 personality ptr @__gxx_personality_v0 !dbg !7033 {
  %2 = alloca ptr, align 8
  store ptr %0, ptr %2, align 8
  call void @llvm.dbg.declare(metadata ptr %2, metadata !7034, metadata !DIExpression()), !dbg !7035
  %3 = load ptr, ptr %2, align 8
  %4 = getelementptr inbounds %"class.std::lock_guard", ptr %3, i32 0, i32 0, !dbg !7036
  %5 = load ptr, ptr %4, align 8, !dbg !7036
  invoke void @_ZNSt5mutex6unlockEv(ptr noundef nonnull align 8 dereferenceable(40) %5)
          to label %6 unwind label %7, !dbg !7038

6:                                                ; preds = %1
  ret void, !dbg !7039

7:                                                ; preds = %1
  %8 = landingpad { ptr, i32 }
          catch ptr null, !dbg !7038
  %9 = extractvalue { ptr, i32 } %8, 0, !dbg !7038
  call void @__clang_call_terminate(ptr %9) #18, !dbg !7038
  unreachable, !dbg !7038
}

; Function Attrs: mustprogress noinline nounwind optnone uwtable
define linkonce_odr dso_local noundef ptr @_ZNKSt19__shared_ptr_accessI6SocketLN9__gnu_cxx12_Lock_policyE2ELb0ELb0EE6_M_getEv(ptr noundef nonnull align 1 dereferenceable(1) %0) #8 comdat align 2 !dbg !7040 {
  %2 = alloca ptr, align 8
  store ptr %0, ptr %2, align 8
  call void @llvm.dbg.declare(metadata ptr %2, metadata !7041, metadata !DIExpression()), !dbg !7042
  %3 = load ptr, ptr %2, align 8
  %4 = call noundef ptr @_ZNKSt12__shared_ptrI6SocketLN9__gnu_cxx12_Lock_policyE2EE3getEv(ptr noundef nonnull align 8 dereferenceable(16) %3) #3, !dbg !7043
  ret ptr %4, !dbg !7044
}

; Function Attrs: mustprogress noinline nounwind optnone uwtable
define linkonce_odr dso_local noundef ptr @_ZNKSt12__shared_ptrI6SocketLN9__gnu_cxx12_Lock_policyE2EE3getEv(ptr noundef nonnull align 8 dereferenceable(16) %0) #8 comdat align 2 !dbg !7045 {
  %2 = alloca ptr, align 8
  store ptr %0, ptr %2, align 8
  call void @llvm.dbg.declare(metadata ptr %2, metadata !7046, metadata !DIExpression()), !dbg !7047
  %3 = load ptr, ptr %2, align 8
  %4 = getelementptr inbounds %"class.std::__shared_ptr", ptr %3, i32 0, i32 0, !dbg !7048
  %5 = load ptr, ptr %4, align 8, !dbg !7048
  ret ptr %5, !dbg !7049
}

; Function Attrs: mustprogress noinline nounwind optnone uwtable
define linkonce_odr dso_local noundef zeroext i1 @_ZStneNSt6thread2idES0_(i64 %0, i64 %1) #8 comdat !dbg !7050 {
  %3 = alloca %"class.std::thread::id", align 8
  %4 = alloca %"class.std::thread::id", align 8
  %5 = alloca %"class.std::thread::id", align 8
  %6 = alloca %"class.std::thread::id", align 8
  %7 = getelementptr inbounds %"class.std::thread::id", ptr %3, i32 0, i32 0
  store i64 %0, ptr %7, align 8
  %8 = getelementptr inbounds %"class.std::thread::id", ptr %4, i32 0, i32 0
  store i64 %1, ptr %8, align 8
  call void @llvm.dbg.declare(metadata ptr %3, metadata !7053, metadata !DIExpression()), !dbg !7054
  call void @llvm.dbg.declare(metadata ptr %4, metadata !7055, metadata !DIExpression()), !dbg !7056
  call void @llvm.memcpy.p0.p0.i64(ptr align 8 %5, ptr align 8 %3, i64 8, i1 false), !dbg !7057
  call void @llvm.memcpy.p0.p0.i64(ptr align 8 %6, ptr align 8 %4, i64 8, i1 false), !dbg !7058
  %9 = getelementptr inbounds %"class.std::thread::id", ptr %5, i32 0, i32 0, !dbg !7059
  %10 = load i64, ptr %9, align 8, !dbg !7059
  %11 = getelementptr inbounds %"class.std::thread::id", ptr %6, i32 0, i32 0, !dbg !7059
  %12 = load i64, ptr %11, align 8, !dbg !7059
  %13 = call noundef zeroext i1 @_ZSteqNSt6thread2idES0_(i64 %10, i64 %12) #3, !dbg !7059
  %14 = xor i1 %13, true, !dbg !7060
  ret i1 %14, !dbg !7061
}

; Function Attrs: noinline nounwind optnone uwtable
define linkonce_odr dso_local void @_ZNSt6thread2idC2Ev(ptr noundef nonnull align 8 dereferenceable(8) %0) unnamed_addr #4 comdat align 2 !dbg !7062 {
  %2 = alloca ptr, align 8
  store ptr %0, ptr %2, align 8
  call void @llvm.dbg.declare(metadata ptr %2, metadata !7063, metadata !DIExpression()), !dbg !7065
  %3 = load ptr, ptr %2, align 8
  %4 = getelementptr inbounds %"class.std::thread::id", ptr %3, i32 0, i32 0, !dbg !7066
  store i64 0, ptr %4, align 8, !dbg !7066
  ret void, !dbg !7067
}

; Function Attrs: nocallback nofree nounwind willreturn memory(argmem: readwrite)
declare void @llvm.memcpy.p0.p0.i64(ptr noalias nocapture writeonly, ptr noalias nocapture readonly, i64, i1 immarg) #10

; Function Attrs: mustprogress noinline optnone uwtable
define linkonce_odr dso_local void @_ZN3Log9to_stringB5cxx11ERKNSt6thread2idE(ptr noalias sret(%"class.std::__cxx11::basic_string") align 8 %0, ptr noundef nonnull align 8 dereferenceable(8) %1) #7 comdat personality ptr @__gxx_personality_v0 !dbg !7068 {
  %3 = alloca ptr, align 8
  %4 = alloca ptr, align 8
  %5 = alloca %"class.std::thread::id", align 8
  %6 = alloca %"class.std::thread::id", align 8
  %7 = alloca %"class.std::__cxx11::basic_ostringstream", align 8
  %8 = alloca ptr, align 8
  %9 = alloca i32, align 4
  %10 = alloca %"class.std::thread::id", align 8
  %11 = alloca %"class.std::allocator", align 1
  store ptr %0, ptr %3, align 8
  store ptr %1, ptr %4, align 8
  call void @llvm.dbg.declare(metadata ptr %4, metadata !7071, metadata !DIExpression()), !dbg !7072
  %12 = load ptr, ptr %4, align 8, !dbg !7073
  call void @llvm.memcpy.p0.p0.i64(ptr align 8 %5, ptr align 8 %12, i64 8, i1 false), !dbg !7073
  call void @_ZNSt6thread2idC2Ev(ptr noundef nonnull align 8 dereferenceable(8) %6) #3, !dbg !7075
  %13 = getelementptr inbounds %"class.std::thread::id", ptr %5, i32 0, i32 0, !dbg !7076
  %14 = load i64, ptr %13, align 8, !dbg !7076
  %15 = getelementptr inbounds %"class.std::thread::id", ptr %6, i32 0, i32 0, !dbg !7076
  %16 = load i64, ptr %15, align 8, !dbg !7076
  %17 = call noundef zeroext i1 @_ZStneNSt6thread2idES0_(i64 %14, i64 %16) #3, !dbg !7076
  br i1 %17, label %18, label %33, !dbg !7077

18:                                               ; preds = %2
  call void @llvm.dbg.declare(metadata ptr %7, metadata !7078, metadata !DIExpression()), !dbg !7080
  call void @_ZNSt7__cxx1119basic_ostringstreamIcSt11char_traitsIcESaIcEEC1Ev(ptr noundef nonnull align 8 dereferenceable(112) %7), !dbg !7080
  %19 = invoke noundef nonnull align 8 dereferenceable(8) ptr @_ZNSolsEPFRSt8ios_baseS0_E(ptr noundef nonnull align 8 dereferenceable(8) %7, ptr noundef @_ZSt3hexRSt8ios_base)
          to label %20 unwind label %29, !dbg !7081

20:                                               ; preds = %18
  %21 = invoke noundef nonnull align 8 dereferenceable(8) ptr @_ZStlsISt11char_traitsIcEERSt13basic_ostreamIcT_ES5_PKc(ptr noundef nonnull align 8 dereferenceable(8) %19, ptr noundef @.str.17)
          to label %22 unwind label %29, !dbg !7082

22:                                               ; preds = %20
  %23 = load ptr, ptr %4, align 8, !dbg !7083
  call void @llvm.memcpy.p0.p0.i64(ptr align 8 %10, ptr align 8 %23, i64 8, i1 false), !dbg !7083
  %24 = getelementptr inbounds %"class.std::thread::id", ptr %10, i32 0, i32 0, !dbg !7084
  %25 = load i64, ptr %24, align 8, !dbg !7084
  %26 = invoke noundef nonnull align 8 dereferenceable(8) ptr @_ZStlsIcSt11char_traitsIcEERSt13basic_ostreamIT_T0_ES6_NSt6thread2idE(ptr noundef nonnull align 8 dereferenceable(8) %21, i64 %25)
          to label %27 unwind label %29, !dbg !7084

27:                                               ; preds = %22
  invoke void @_ZNKSt7__cxx1119basic_ostringstreamIcSt11char_traitsIcESaIcEE3strEv(ptr sret(%"class.std::__cxx11::basic_string") align 8 %0, ptr noundef nonnull align 8 dereferenceable(112) %7)
          to label %28 unwind label %29, !dbg !7085

28:                                               ; preds = %27
  call void @_ZNSt7__cxx1119basic_ostringstreamIcSt11char_traitsIcESaIcEED1Ev(ptr noundef nonnull align 8 dereferenceable(112) %7) #3, !dbg !7086
  br label %39

29:                                               ; preds = %27, %22, %20, %18
  %30 = landingpad { ptr, i32 }
          cleanup, !dbg !7087
  %31 = extractvalue { ptr, i32 } %30, 0, !dbg !7087
  store ptr %31, ptr %8, align 8, !dbg !7087
  %32 = extractvalue { ptr, i32 } %30, 1, !dbg !7087
  store i32 %32, ptr %9, align 4, !dbg !7087
  call void @_ZNSt7__cxx1119basic_ostringstreamIcSt11char_traitsIcESaIcEED1Ev(ptr noundef nonnull align 8 dereferenceable(112) %7) #3, !dbg !7086
  br label %40, !dbg !7086

33:                                               ; preds = %2
  call void @_ZNSaIcEC1Ev(ptr noundef nonnull align 1 dereferenceable(1) %11) #3, !dbg !7088
  invoke void @_ZNSt7__cxx1112basic_stringIcSt11char_traitsIcESaIcEEC2IS3_EEPKcRKS3_(ptr noundef nonnull align 8 dereferenceable(32) %0, ptr noundef @.str.18, ptr noundef nonnull align 1 dereferenceable(1) %11)
          to label %34 unwind label %35, !dbg !7088

34:                                               ; preds = %33
  call void @_ZNSaIcED1Ev(ptr noundef nonnull align 1 dereferenceable(1) %11) #3, !dbg !7089
  br label %39, !dbg !7089

35:                                               ; preds = %33
  %36 = landingpad { ptr, i32 }
          cleanup, !dbg !7090
  %37 = extractvalue { ptr, i32 } %36, 0, !dbg !7090
  store ptr %37, ptr %8, align 8, !dbg !7090
  %38 = extractvalue { ptr, i32 } %36, 1, !dbg !7090
  store i32 %38, ptr %9, align 4, !dbg !7090
  call void @_ZNSaIcED1Ev(ptr noundef nonnull align 1 dereferenceable(1) %11) #3, !dbg !7089
  br label %40, !dbg !7089

39:                                               ; preds = %34, %28
  ret void, !dbg !7090

40:                                               ; preds = %35, %29
  %41 = load ptr, ptr %8, align 8, !dbg !7086
  %42 = load i32, ptr %9, align 4, !dbg !7086
  %43 = insertvalue { ptr, i32 } poison, ptr %41, 0, !dbg !7086
  %44 = insertvalue { ptr, i32 } %43, i32 %42, 1, !dbg !7086
  resume { ptr, i32 } %44, !dbg !7086
}

; Function Attrs: mustprogress noinline nounwind optnone uwtable
define linkonce_odr dso_local noundef zeroext i1 @_ZSteqNSt6thread2idES0_(i64 %0, i64 %1) #8 comdat !dbg !7091 {
  %3 = alloca %"class.std::thread::id", align 8
  %4 = alloca %"class.std::thread::id", align 8
  %5 = getelementptr inbounds %"class.std::thread::id", ptr %3, i32 0, i32 0
  store i64 %0, ptr %5, align 8
  %6 = getelementptr inbounds %"class.std::thread::id", ptr %4, i32 0, i32 0
  store i64 %1, ptr %6, align 8
  call void @llvm.dbg.declare(metadata ptr %3, metadata !7092, metadata !DIExpression()), !dbg !7093
  call void @llvm.dbg.declare(metadata ptr %4, metadata !7094, metadata !DIExpression()), !dbg !7095
  %7 = getelementptr inbounds %"class.std::thread::id", ptr %3, i32 0, i32 0, !dbg !7096
  %8 = load i64, ptr %7, align 8, !dbg !7096
  %9 = getelementptr inbounds %"class.std::thread::id", ptr %4, i32 0, i32 0, !dbg !7097
  %10 = load i64, ptr %9, align 8, !dbg !7097
  %11 = icmp eq i64 %8, %10, !dbg !7098
  ret i1 %11, !dbg !7099
}

declare void @_ZNSt7__cxx1119basic_ostringstreamIcSt11char_traitsIcESaIcEEC1Ev(ptr noundef nonnull align 8 dereferenceable(112)) unnamed_addr #1

; Function Attrs: mustprogress noinline optnone uwtable
define linkonce_odr dso_local noundef nonnull align 8 dereferenceable(8) ptr @_ZStlsIcSt11char_traitsIcEERSt13basic_ostreamIT_T0_ES6_NSt6thread2idE(ptr noundef nonnull align 8 dereferenceable(8) %0, i64 %1) #7 comdat !dbg !7100 {
  %3 = alloca ptr, align 8
  %4 = alloca %"class.std::thread::id", align 8
  %5 = alloca ptr, align 8
  %6 = alloca %"class.std::thread::id", align 8
  %7 = alloca %"class.std::thread::id", align 8
  %8 = getelementptr inbounds %"class.std::thread::id", ptr %4, i32 0, i32 0
  store i64 %1, ptr %8, align 8
  store ptr %0, ptr %5, align 8
  call void @llvm.dbg.declare(metadata ptr %5, metadata !7106, metadata !DIExpression()), !dbg !7107
  call void @llvm.dbg.declare(metadata ptr %4, metadata !7108, metadata !DIExpression()), !dbg !7109
  call void @llvm.memcpy.p0.p0.i64(ptr align 8 %6, ptr align 8 %4, i64 8, i1 false), !dbg !7110
  call void @_ZNSt6thread2idC2Ev(ptr noundef nonnull align 8 dereferenceable(8) %7) #3, !dbg !7112
  %9 = getelementptr inbounds %"class.std::thread::id", ptr %6, i32 0, i32 0, !dbg !7113
  %10 = load i64, ptr %9, align 8, !dbg !7113
  %11 = getelementptr inbounds %"class.std::thread::id", ptr %7, i32 0, i32 0, !dbg !7113
  %12 = load i64, ptr %11, align 8, !dbg !7113
  %13 = call noundef zeroext i1 @_ZSteqNSt6thread2idES0_(i64 %10, i64 %12) #3, !dbg !7113
  br i1 %13, label %14, label %17, !dbg !7114

14:                                               ; preds = %2
  %15 = load ptr, ptr %5, align 8, !dbg !7115
  %16 = call noundef nonnull align 8 dereferenceable(8) ptr @_ZStlsISt11char_traitsIcEERSt13basic_ostreamIcT_ES5_PKc(ptr noundef nonnull align 8 dereferenceable(8) %15, ptr noundef @.str.19), !dbg !7116
  store ptr %16, ptr %3, align 8, !dbg !7117
  br label %22, !dbg !7117

17:                                               ; preds = %2
  %18 = load ptr, ptr %5, align 8, !dbg !7118
  %19 = getelementptr inbounds %"class.std::thread::id", ptr %4, i32 0, i32 0, !dbg !7119
  %20 = load i64, ptr %19, align 8, !dbg !7119
  %21 = call noundef nonnull align 8 dereferenceable(8) ptr @_ZNSolsEm(ptr noundef nonnull align 8 dereferenceable(8) %18, i64 noundef %20), !dbg !7120
  store ptr %21, ptr %3, align 8, !dbg !7121
  br label %22, !dbg !7121

22:                                               ; preds = %17, %14
  %23 = load ptr, ptr %3, align 8, !dbg !7122
  ret ptr %23, !dbg !7122
}

; Function Attrs: mustprogress noinline optnone uwtable
define linkonce_odr dso_local noundef nonnull align 8 dereferenceable(216) ptr @_ZSt3hexRSt8ios_base(ptr noundef nonnull align 8 dereferenceable(216) %0) #7 comdat !dbg !7123 {
  %2 = alloca ptr, align 8
  store ptr %0, ptr %2, align 8
  call void @llvm.dbg.declare(metadata ptr %2, metadata !7124, metadata !DIExpression()), !dbg !7125
  %3 = load ptr, ptr %2, align 8, !dbg !7126
  %4 = call noundef i32 @_ZNSt8ios_base4setfESt13_Ios_FmtflagsS0_(ptr noundef nonnull align 8 dereferenceable(216) %3, i32 noundef 8, i32 noundef 74), !dbg !7127
  %5 = load ptr, ptr %2, align 8, !dbg !7128
  ret ptr %5, !dbg !7129
}

declare noundef nonnull align 8 dereferenceable(8) ptr @_ZNSolsEm(ptr noundef nonnull align 8 dereferenceable(8), i64 noundef) #1

; Function Attrs: mustprogress noinline optnone uwtable
define linkonce_odr dso_local noundef i32 @_ZNSt8ios_base4setfESt13_Ios_FmtflagsS0_(ptr noundef nonnull align 8 dereferenceable(216) %0, i32 noundef %1, i32 noundef %2) #7 comdat align 2 !dbg !7130 {
  %4 = alloca ptr, align 8
  %5 = alloca i32, align 4
  %6 = alloca i32, align 4
  %7 = alloca i32, align 4
  store ptr %0, ptr %4, align 8
  call void @llvm.dbg.declare(metadata ptr %4, metadata !7136, metadata !DIExpression()), !dbg !7138
  store i32 %1, ptr %5, align 4
  call void @llvm.dbg.declare(metadata ptr %5, metadata !7139, metadata !DIExpression()), !dbg !7140
  store i32 %2, ptr %6, align 4
  call void @llvm.dbg.declare(metadata ptr %6, metadata !7141, metadata !DIExpression()), !dbg !7142
  %8 = load ptr, ptr %4, align 8
  call void @llvm.dbg.declare(metadata ptr %7, metadata !7143, metadata !DIExpression()), !dbg !7144
  %9 = getelementptr inbounds %"class.std::ios_base", ptr %8, i32 0, i32 3, !dbg !7145
  %10 = load i32, ptr %9, align 8, !dbg !7145
  store i32 %10, ptr %7, align 4, !dbg !7144
  %11 = load i32, ptr %6, align 4, !dbg !7146
  %12 = call noundef i32 @_ZStcoSt13_Ios_Fmtflags(i32 noundef %11), !dbg !7147
  %13 = getelementptr inbounds %"class.std::ios_base", ptr %8, i32 0, i32 3, !dbg !7148
  %14 = call noundef nonnull align 4 dereferenceable(4) ptr @_ZStaNRSt13_Ios_FmtflagsS_(ptr noundef nonnull align 4 dereferenceable(4) %13, i32 noundef %12), !dbg !7149
  %15 = load i32, ptr %5, align 4, !dbg !7150
  %16 = load i32, ptr %6, align 4, !dbg !7151
  %17 = call noundef i32 @_ZStanSt13_Ios_FmtflagsS_(i32 noundef %15, i32 noundef %16), !dbg !7152
  %18 = getelementptr inbounds %"class.std::ios_base", ptr %8, i32 0, i32 3, !dbg !7153
  %19 = call noundef nonnull align 4 dereferenceable(4) ptr @_ZStoRRSt13_Ios_FmtflagsS_(ptr noundef nonnull align 4 dereferenceable(4) %18, i32 noundef %17), !dbg !7154
  %20 = load i32, ptr %7, align 4, !dbg !7155
  ret i32 %20, !dbg !7156
}

; Function Attrs: mustprogress noinline optnone uwtable
define linkonce_odr dso_local noundef nonnull align 4 dereferenceable(4) ptr @_ZStaNRSt13_Ios_FmtflagsS_(ptr noundef nonnull align 4 dereferenceable(4) %0, i32 noundef %1) #7 comdat !dbg !7157 {
  %3 = alloca ptr, align 8
  %4 = alloca i32, align 4
  store ptr %0, ptr %3, align 8
  call void @llvm.dbg.declare(metadata ptr %3, metadata !7163, metadata !DIExpression()), !dbg !7164
  store i32 %1, ptr %4, align 4
  call void @llvm.dbg.declare(metadata ptr %4, metadata !7165, metadata !DIExpression()), !dbg !7166
  %5 = load ptr, ptr %3, align 8, !dbg !7167
  %6 = load i32, ptr %5, align 4, !dbg !7167
  %7 = load i32, ptr %4, align 4, !dbg !7168
  %8 = call noundef i32 @_ZStanSt13_Ios_FmtflagsS_(i32 noundef %6, i32 noundef %7), !dbg !7169
  %9 = load ptr, ptr %3, align 8, !dbg !7170
  store i32 %8, ptr %9, align 4, !dbg !7171
  ret ptr %9, !dbg !7172
}

; Function Attrs: mustprogress noinline nounwind optnone uwtable
define linkonce_odr dso_local noundef i32 @_ZStcoSt13_Ios_Fmtflags(i32 noundef %0) #8 comdat !dbg !7173 {
  %2 = alloca i32, align 4
  store i32 %0, ptr %2, align 4
  call void @llvm.dbg.declare(metadata ptr %2, metadata !7176, metadata !DIExpression()), !dbg !7177
  %3 = load i32, ptr %2, align 4, !dbg !7178
  %4 = xor i32 %3, -1, !dbg !7179
  ret i32 %4, !dbg !7180
}

; Function Attrs: mustprogress noinline optnone uwtable
define linkonce_odr dso_local noundef nonnull align 4 dereferenceable(4) ptr @_ZStoRRSt13_Ios_FmtflagsS_(ptr noundef nonnull align 4 dereferenceable(4) %0, i32 noundef %1) #7 comdat !dbg !7181 {
  %3 = alloca ptr, align 8
  %4 = alloca i32, align 4
  store ptr %0, ptr %3, align 8
  call void @llvm.dbg.declare(metadata ptr %3, metadata !7182, metadata !DIExpression()), !dbg !7183
  store i32 %1, ptr %4, align 4
  call void @llvm.dbg.declare(metadata ptr %4, metadata !7184, metadata !DIExpression()), !dbg !7185
  %5 = load ptr, ptr %3, align 8, !dbg !7186
  %6 = load i32, ptr %5, align 4, !dbg !7186
  %7 = load i32, ptr %4, align 4, !dbg !7187
  %8 = call noundef i32 @_ZStorSt13_Ios_FmtflagsS_(i32 noundef %6, i32 noundef %7), !dbg !7188
  %9 = load ptr, ptr %3, align 8, !dbg !7189
  store i32 %8, ptr %9, align 4, !dbg !7190
  ret ptr %9, !dbg !7191
}

; Function Attrs: mustprogress noinline nounwind optnone uwtable
define linkonce_odr dso_local noundef i32 @_ZStanSt13_Ios_FmtflagsS_(i32 noundef %0, i32 noundef %1) #8 comdat !dbg !7192 {
  %3 = alloca i32, align 4
  %4 = alloca i32, align 4
  store i32 %0, ptr %3, align 4
  call void @llvm.dbg.declare(metadata ptr %3, metadata !7195, metadata !DIExpression()), !dbg !7196
  store i32 %1, ptr %4, align 4
  call void @llvm.dbg.declare(metadata ptr %4, metadata !7197, metadata !DIExpression()), !dbg !7198
  %5 = load i32, ptr %3, align 4, !dbg !7199
  %6 = load i32, ptr %4, align 4, !dbg !7200
  %7 = and i32 %5, %6, !dbg !7201
  ret i32 %7, !dbg !7202
}

; Function Attrs: mustprogress noinline nounwind optnone uwtable
define linkonce_odr dso_local noundef i32 @_ZStorSt13_Ios_FmtflagsS_(i32 noundef %0, i32 noundef %1) #8 comdat !dbg !7203 {
  %3 = alloca i32, align 4
  %4 = alloca i32, align 4
  store i32 %0, ptr %3, align 4
  call void @llvm.dbg.declare(metadata ptr %3, metadata !7204, metadata !DIExpression()), !dbg !7205
  store i32 %1, ptr %4, align 4
  call void @llvm.dbg.declare(metadata ptr %4, metadata !7206, metadata !DIExpression()), !dbg !7207
  %5 = load i32, ptr %3, align 4, !dbg !7208
  %6 = load i32, ptr %4, align 4, !dbg !7209
  %7 = or i32 %5, %6, !dbg !7210
  ret i32 %7, !dbg !7211
}

; Function Attrs: mustprogress noinline optnone uwtable
define linkonce_odr dso_local void @_ZNSt5mutex4lockEv(ptr noundef nonnull align 8 dereferenceable(40) %0) #7 comdat align 2 !dbg !7212 {
  %2 = alloca ptr, align 8
  %3 = alloca i32, align 4
  store ptr %0, ptr %2, align 8
  call void @llvm.dbg.declare(metadata ptr %2, metadata !7213, metadata !DIExpression()), !dbg !7215
  %4 = load ptr, ptr %2, align 8
  call void @llvm.dbg.declare(metadata ptr %3, metadata !7216, metadata !DIExpression()), !dbg !7217
  %5 = getelementptr inbounds %"class.std::__mutex_base", ptr %4, i32 0, i32 0, !dbg !7218
  %6 = call noundef i32 @_ZL20__gthread_mutex_lockP15pthread_mutex_t(ptr noundef %5), !dbg !7219
  store i32 %6, ptr %3, align 4, !dbg !7217
  %7 = load i32, ptr %3, align 4, !dbg !7220
  %8 = icmp ne i32 %7, 0, !dbg !7220
  br i1 %8, label %9, label %11, !dbg !7222

9:                                                ; preds = %1
  %10 = load i32, ptr %3, align 4, !dbg !7223
  call void @_ZSt20__throw_system_errori(i32 noundef %10) #17, !dbg !7224
  unreachable, !dbg !7224

11:                                               ; preds = %1
  ret void, !dbg !7225
}

; Function Attrs: mustprogress noinline optnone uwtable
define internal noundef i32 @_ZL20__gthread_mutex_lockP15pthread_mutex_t(ptr noundef %0) #7 !dbg !7226 {
  %2 = alloca i32, align 4
  %3 = alloca ptr, align 8
  store ptr %0, ptr %3, align 8
  call void @llvm.dbg.declare(metadata ptr %3, metadata !7230, metadata !DIExpression()), !dbg !7231
  %4 = call noundef i32 @_ZL18__gthread_active_pv(), !dbg !7232
  %5 = icmp ne i32 %4, 0, !dbg !7232
  br i1 %5, label %6, label %9, !dbg !7234

6:                                                ; preds = %1
  %7 = load ptr, ptr %3, align 8, !dbg !7235
  %8 = call i32 @pthread_mutex_lock(ptr noundef %7) #3, !dbg !7236
  store i32 %8, ptr %2, align 4, !dbg !7237
  br label %10, !dbg !7237

9:                                                ; preds = %1
  store i32 0, ptr %2, align 4, !dbg !7238
  br label %10, !dbg !7238

10:                                               ; preds = %9, %6
  %11 = load i32, ptr %2, align 4, !dbg !7239
  ret i32 %11, !dbg !7239
}

; Function Attrs: noreturn
