; ModuleID = 'net/HttpHelper.cpp'
source_filename = "net/HttpHelper.cpp"
target datalayout = "e-m:e-p270:32:32-p271:32:32-p272:64:64-i64:64-f80:128-n8:16:32:64-S128"
target triple = "x86_64-unknown-linux-gnu"

%"class.std::ios_base::Init" = type { i8 }
%"struct.Log::_end_marker" = type { i8 }
%"struct.std::atomic" = type { %"struct.std::__atomic_base" }
%"struct.std::__atomic_base" = type { i8 }
%"class.std::__cxx11::basic_ostringstream" = type { %"class.std::basic_ostream.base", %"class.std::__cxx11::basic_stringbuf", %"class.std::basic_ios" }
%"class.std::basic_ostream.base" = type { ptr }
%"class.std::__cxx11::basic_stringbuf" = type { %"class.std::basic_streambuf", i32, %"class.std::__cxx11::basic_string" }
%"class.std::basic_streambuf" = type { ptr, ptr, ptr, ptr, ptr, ptr, ptr, %"class.std::locale" }
%"class.std::locale" = type { ptr }
%"class.std::__cxx11::basic_string" = type { %"struct.std::__cxx11::basic_string<char>::_Alloc_hider", i64, %union.anon }
%"struct.std::__cxx11::basic_string<char>::_Alloc_hider" = type { ptr }
%union.anon = type { i64, [8 x i8] }
%"class.std::basic_ios" = type { %"class.std::ios_base", ptr, i8, i8, ptr, ptr, ptr, ptr }
%"class.std::ios_base" = type { ptr, i64, i64, i32, i32, i32, ptr, %"struct.std::ios_base::_Words", [8 x %"struct.std::ios_base::_Words"], i32, ptr, %"class.std::locale" }
%"struct.std::ios_base::_Words" = type { ptr, i64 }
%"class.std::basic_ifstream" = type { %"class.std::basic_istream.base", %"class.std::basic_filebuf", %"class.std::basic_ios" }
%"class.std::basic_istream.base" = type { ptr, i64 }
%"class.std::basic_filebuf" = type { %"class.std::basic_streambuf", %union.pthread_mutex_t, %"class.std::__basic_file", i32, %struct.__mbstate_t, %struct.__mbstate_t, %struct.__mbstate_t, ptr, i64, i8, i8, i8, i8, ptr, ptr, i8, ptr, ptr, i64, ptr, ptr }
%union.pthread_mutex_t = type { %struct.__pthread_mutex_s }
%struct.__pthread_mutex_s = type { i32, i32, i32, i32, i32, i16, i16, %struct.__pthread_internal_list }
%struct.__pthread_internal_list = type { ptr, ptr }
%"class.std::__basic_file" = type <{ ptr, i8, [7 x i8] }>
%struct.__mbstate_t = type { i32, %union.anon.12 }
%union.anon.12 = type { i32 }
%"class.std::unique_ptr" = type { %"struct.std::__uniq_ptr_data" }
%"struct.std::__uniq_ptr_data" = type { %"class.std::__uniq_ptr_impl" }
%"class.std::__uniq_ptr_impl" = type { %"class.std::tuple" }
%"class.std::tuple" = type { %"struct.std::_Tuple_impl" }
%"struct.std::_Tuple_impl" = type { %"struct.std::_Head_base.14" }
%"struct.std::_Head_base.14" = type { ptr }
%class.StreamSocket = type <{ %class.Socket, %"class.std::enable_shared_from_this", %"class.std::__cxx11::basic_string", %"class.std::shared_ptr.0", %class.Buffer, %class.Buffer, i64, i64, i32, i8, i8, i8, i8, i32, i32, %"struct.std::atomic", [7 x i8] }>
%class.Socket = type { ptr, %"class.std::__cxx11::basic_string", i32, i8, i32, %"class.std::thread::id" }
%"class.std::thread::id" = type { i64 }
%"class.std::enable_shared_from_this" = type { %"class.std::weak_ptr" }
%"class.std::weak_ptr" = type { %"class.std::__weak_ptr" }
%"class.std::__weak_ptr" = type { ptr, %"class.std::__weak_count" }
%"class.std::__weak_count" = type { ptr }
%"class.std::shared_ptr.0" = type { %"class.std::__shared_ptr.1" }
%"class.std::__shared_ptr.1" = type { ptr, %"class.std::__shared_count" }
%"class.std::__shared_count" = type { ptr }
%class.Buffer = type { i64, i64, %"class.std::vector" }
%"class.std::vector" = type { %"struct.std::_Vector_base" }
%"struct.std::_Vector_base" = type { %"struct.std::_Vector_base<char, std::allocator<char>>::_Vector_impl" }
%"struct.std::_Vector_base<char, std::allocator<char>>::_Vector_impl" = type { %"struct.std::_Vector_base<char, std::allocator<char>>::_Vector_impl_data" }
%"struct.std::_Vector_base<char, std::allocator<char>>::_Vector_impl_data" = type { ptr, ptr, ptr }
%"class.Poco::Net::HTTPResponse" = type { %"class.Poco::Net::HTTPMessage", i32, %"class.std::__cxx11::basic_string" }
%"class.Poco::Net::HTTPMessage" = type { %"class.Poco::Net::MessageHeader.base", %"class.std::__cxx11::basic_string" }
%"class.Poco::Net::MessageHeader.base" = type <{ %"class.Poco::Net::NameValueCollection", i32 }>
%"class.Poco::Net::NameValueCollection" = type { ptr, %"class.Poco::ListMap" }
%"class.Poco::ListMap" = type { %"class.std::vector.15" }
%"class.std::vector.15" = type { %"struct.std::_Vector_base.16" }
%"struct.std::_Vector_base.16" = type { %"struct.std::_Vector_base<std::pair<std::__cxx11::basic_string<char>, std::__cxx11::basic_string<char>>, std::allocator<std::pair<std::__cxx11::basic_string<char>, std::__cxx11::basic_string<char>>>>::_Vector_impl" }
%"struct.std::_Vector_base<std::pair<std::__cxx11::basic_string<char>, std::__cxx11::basic_string<char>>, std::allocator<std::pair<std::__cxx11::basic_string<char>, std::__cxx11::basic_string<char>>>>::_Vector_impl" = type { %"struct.std::_Vector_base<std::pair<std::__cxx11::basic_string<char>, std::__cxx11::basic_string<char>>, std::allocator<std::pair<std::__cxx11::basic_string<char>, std::__cxx11::basic_string<char>>>>::_Vector_impl_data" }
%"struct.std::_Vector_base<std::pair<std::__cxx11::basic_string<char>, std::__cxx11::basic_string<char>>, std::allocator<std::pair<std::__cxx11::basic_string<char>, std::__cxx11::basic_string<char>>>>::_Vector_impl_data" = type { ptr, ptr, ptr }
%"class.FileUtil::Stat" = type { %"class.std::__cxx11::basic_string", %struct.stat, i32, i32 }
%struct.stat = type { i64, i64, i64, i32, i32, i32, i32, i64, i64, i64, i64, %struct.timespec, %struct.timespec, %struct.timespec, [3 x i64] }
%struct.timespec = type { i64, i64 }
%"class.std::allocator" = type { i8 }
%"class.Poco::Message" = type { %"class.std::__cxx11::basic_string", %"class.std::__cxx11::basic_string", i32, %"class.Poco::Timestamp", i64, %"class.std::__cxx11::basic_string", i64, ptr, i32, ptr }
%"class.Poco::Timestamp" = type { i64 }
%"class.Poco::Logger" = type <{ %"class.Poco::Channel.base", [4 x i8], %"class.std::__cxx11::basic_string", %"class.Poco::AutoPtr", i32, [4 x i8] }>
%"class.Poco::Channel.base" = type <{ %"class.Poco::Configurable", %"class.Poco::RefCountedObject.base" }>
%"class.Poco::Configurable" = type { ptr }
%"class.Poco::RefCountedObject.base" = type <{ ptr, %"class.Poco::AtomicCounter" }>
%"class.Poco::AtomicCounter" = type { %"struct.std::atomic.20" }
%"struct.std::atomic.20" = type { %"struct.std::__atomic_base.21" }
%"struct.std::__atomic_base.21" = type { i32 }
%"class.Poco::AutoPtr" = type { ptr }
%"class.Poco::LocalDateTime" = type <{ %"class.Poco::DateTime", i32, [4 x i8] }>
%"class.Poco::DateTime" = type { i64, i16, i16, i16, i16, i16, i16, i16, i16 }
%"struct.std::forward_iterator_tag" = type { i8 }
%"struct.std::random_access_iterator_tag" = type { i8 }
%"class.__gnu_cxx::__normal_iterator.22" = type { ptr }
%"class.__gnu_cxx::__normal_iterator" = type { ptr }
%"struct.std::__false_type" = type { i8 }
%"class.std::move_iterator" = type { ptr }
%"class.std::__shared_ptr" = type { ptr, %"class.std::__shared_count" }

$_ZN3Log11_end_markerC2Ev = comdat any

$_ZNKSt19__shared_ptr_accessI12StreamSocketLN9__gnu_cxx12_Lock_policyE2ELb0ELb0EEptEv = comdat any

$_ZN12StreamSocket4sendERKNSt7__cxx1112basic_stringIcSt11char_traitsIcESaIcEEEb = comdat any

$_ZNSt10unique_ptrIA_cSt14default_deleteIS0_EEC2IPcS2_vbEET_ = comdat any

$_ZNKSt10unique_ptrIA_cSt14default_deleteIS0_EEixEm = comdat any

$_ZN12StreamSocket4sendEPKcib = comdat any

$_ZNSt10unique_ptrIA_cSt14default_deleteIS0_EED2Ev = comdat any

$_ZN8FileUtil4StatC2ERKNSt7__cxx1112basic_stringIcSt11char_traitsIcESaIcEEEb = comdat any

$_ZNK8FileUtil4Stat3badEv = comdat any

$_ZN3Log16isShutdownCalledEv = comdat any

$_ZNK4Poco6Logger7warningEv = comdat any

$_ZN3Log6prefixILi1023EEEPcS1_PKc = comdat any

$_ZNSt7__cxx1112basic_stringIcSt11char_traitsIcESaIcEEC2IS3_EEPKcRKS3_ = comdat any

$_ZSt9boolalphaRSt8ios_base = comdat any

$_ZNK6Socket5getFDEv = comdat any

$_ZNK4Poco6Logger4nameB5cxx11Ev = comdat any

$_ZStplIcSt11char_traitsIcESaIcEENSt7__cxx1112basic_stringIT_T0_T1_EEOS8_PKS5_ = comdat any

$_ZStplIcSt11char_traitsIcESaIcEENSt7__cxx1112basic_stringIT_T0_T1_EEPKS5_RKS8_ = comdat any

$_ZSt3minImERKT_S2_S2_ = comdat any

$_ZNK8FileUtil4Stat4sizeEv = comdat any

$_ZNK6Socket17getSendBufferSizeEv = comdat any

$_ZN6Socket19setSocketBufferSizeEi = comdat any

$_ZNK4Poco6Logger5traceEv = comdat any

$_ZN8FileUtil4StatD2Ev = comdat any

$_ZN6Socket19assertCorrectThreadEPKci = comdat any

$_ZN6Buffer6appendEPKci = comdat any

$_ZNKSt6atomicIbEcvbEv = comdat any

$_ZSteqNSt6thread2idES0_ = comdat any

$_ZNSt6thread2idC2Ev = comdat any

$_ZNSt11this_thread6get_idEv = comdat any

$_ZNK4Poco6Logger5errorEv = comdat any

$_ZStlsIcSt11char_traitsIcEERSt13basic_ostreamIT_T0_ES6_NSt6thread2idE = comdat any

$_ZN3Log9to_stringB5cxx11ERKNSt6thread2idE = comdat any

$_ZStanSt12memory_orderSt23__memory_order_modifier = comdat any

$__clang_call_terminate = comdat any

$_ZNSt6thread2idC2Em = comdat any

$_ZStneNSt6thread2idES0_ = comdat any

$_ZSt3hexRSt8ios_base = comdat any

$_ZNSt8ios_base4setfESt13_Ios_FmtflagsS0_ = comdat any

$_ZStaNRSt13_Ios_FmtflagsS_ = comdat any

$_ZStcoSt13_Ios_Fmtflags = comdat any

$_ZStoRRSt13_Ios_FmtflagsS_ = comdat any

$_ZStanSt13_Ios_FmtflagsS_ = comdat any

$_ZStorSt13_Ios_FmtflagsS_ = comdat any

$_ZNSt6vectorIcSaIcEE6insertIPKcvEEN9__gnu_cxx17__normal_iteratorIPcS1_EENS6_IS4_S1_EET_SA_ = comdat any

$_ZNSt6vectorIcSaIcEE3endEv = comdat any

$_ZN9__gnu_cxx17__normal_iteratorIPKcSt6vectorIcSaIcEEEC2IPcEERKNS0_IT_NS_11__enable_ifIXsr3std10__are_sameIS9_S8_EE7__valueES5_E6__typeEEE = comdat any

$_ZNKSt6vectorIcSaIcEE4sizeEv = comdat any

$_ZN9__gnu_cxxmiIPKcSt6vectorIcSaIcEEEENS_17__normal_iteratorIT_T0_E15difference_typeERKS9_SC_ = comdat any

$_ZNKSt6vectorIcSaIcEE6cbeginEv = comdat any

$_ZNSt6vectorIcSaIcEE18_M_insert_dispatchIPKcEEvN9__gnu_cxx17__normal_iteratorIPcS1_EET_S9_St12__false_type = comdat any

$_ZNSt6vectorIcSaIcEE5beginEv = comdat any

$_ZNK9__gnu_cxx17__normal_iteratorIPcSt6vectorIcSaIcEEEplEl = comdat any

$_ZNK9__gnu_cxx17__normal_iteratorIPKcSt6vectorIcSaIcEEE4baseEv = comdat any

$_ZN9__gnu_cxx17__normal_iteratorIPKcSt6vectorIcSaIcEEEC2ERKS2_ = comdat any

$_ZNSt6vectorIcSaIcEE15_M_range_insertIPKcEEvN9__gnu_cxx17__normal_iteratorIPcS1_EET_S9_St20forward_iterator_tag = comdat any

$_ZSt19__iterator_categoryIPKcENSt15iterator_traitsIT_E17iterator_categoryERKS3_ = comdat any

$_ZSt8distanceIPKcENSt15iterator_traitsIT_E15difference_typeES3_S3_ = comdat any

$_ZN9__gnu_cxxmiIPcSt6vectorIcSaIcEEEENS_17__normal_iteratorIT_T0_E15difference_typeERKS8_SB_ = comdat any

$_ZSt22__uninitialized_move_aIPcS0_SaIcEET0_T_S3_S2_RT1_ = comdat any

$_ZNSt12_Vector_baseIcSaIcEE19_M_get_Tp_allocatorEv = comdat any

$_ZSt13move_backwardIPcS0_ET0_T_S2_S1_ = comdat any

$_ZNK9__gnu_cxx17__normal_iteratorIPcSt6vectorIcSaIcEEE4baseEv = comdat any

$_ZSt4copyIPKcN9__gnu_cxx17__normal_iteratorIPcSt6vectorIcSaIcEEEEET0_T_SA_S9_ = comdat any

$_ZSt7advanceIPKcmEvRT_T0_ = comdat any

$_ZSt22__uninitialized_copy_aIPKcPccET0_T_S4_S3_RSaIT1_E = comdat any

$_ZNKSt6vectorIcSaIcEE12_M_check_lenEmPKc = comdat any

$_ZNSt12_Vector_baseIcSaIcEE11_M_allocateEm = comdat any

$_ZSt34__uninitialized_move_if_noexcept_aIPcS0_SaIcEET0_T_S3_S2_RT1_ = comdat any

$_ZSt8_DestroyIPccEvT_S1_RSaIT0_E = comdat any

$_ZNSt12_Vector_baseIcSaIcEE13_M_deallocateEPcm = comdat any

$_ZSt10__distanceIPKcENSt15iterator_traitsIT_E15difference_typeES3_S3_St26random_access_iterator_tag = comdat any

$_ZSt22__uninitialized_copy_aISt13move_iteratorIPcES1_cET0_T_S4_S3_RSaIT1_E = comdat any

$_ZSt18make_move_iteratorIPcESt13move_iteratorIT_ES2_ = comdat any

$_ZSt18uninitialized_copyISt13move_iteratorIPcES1_ET0_T_S4_S3_ = comdat any

$_ZNSt20__uninitialized_copyILb1EE13__uninit_copyISt13move_iteratorIPcES3_EET0_T_S6_S5_ = comdat any

$_ZSt4copyISt13move_iteratorIPcES1_ET0_T_S4_S3_ = comdat any

$_ZSt13__copy_move_aILb1EPcS0_ET1_T0_S2_S1_ = comdat any

$_ZSt12__miter_baseIPcEDTcl12__miter_basecldtfp_4baseEEESt13move_iteratorIT_E = comdat any

$_ZSt12__niter_wrapIPcET_RKS1_S1_ = comdat any

$_ZSt14__copy_move_a1ILb1EPcS0_ET1_T0_S2_S1_ = comdat any

$_ZSt12__niter_baseIPcET_S1_ = comdat any

$_ZSt14__copy_move_a2ILb1EPcS0_ET1_T0_S2_S1_ = comdat any

$_ZNSt11__copy_moveILb1ELb1ESt26random_access_iterator_tagE8__copy_mIcEEPT_PKS3_S6_S4_ = comdat any

$_ZSt12__miter_baseIPcET_S1_ = comdat any

$_ZNKSt13move_iteratorIPcE4baseEv = comdat any

$_ZNSt13move_iteratorIPcEC2ES0_ = comdat any

$_ZSt22__copy_move_backward_aILb1EPcS0_ET1_T0_S2_S1_ = comdat any

$_ZSt23__copy_move_backward_a1ILb1EPcS0_ET1_T0_S2_S1_ = comdat any

$_ZSt23__copy_move_backward_a2ILb1EPcS0_ET1_T0_S2_S1_ = comdat any

$_ZNSt20__copy_move_backwardILb1ELb1ESt26random_access_iterator_tagE13__copy_move_bIcEEPT_PKS3_S6_S4_ = comdat any

$_ZSt13__copy_move_aILb0EPKcN9__gnu_cxx17__normal_iteratorIPcSt6vectorIcSaIcEEEEET1_T0_SA_S9_ = comdat any

$_ZSt12__miter_baseIPKcET_S2_ = comdat any

$_ZSt12__niter_wrapIN9__gnu_cxx17__normal_iteratorIPcSt6vectorIcSaIcEEEES2_ET_S7_T0_ = comdat any

$_ZSt14__copy_move_a1ILb0EPKcPcET1_T0_S4_S3_ = comdat any

$_ZSt12__niter_baseIPKcET_S2_ = comdat any

$_ZSt12__niter_baseIPcSt6vectorIcSaIcEEET_N9__gnu_cxx17__normal_iteratorIS4_T0_EE = comdat any

$_ZSt14__copy_move_a2ILb0EPKcPcET1_T0_S4_S3_ = comdat any

$_ZNSt11__copy_moveILb0ELb1ESt26random_access_iterator_tagE8__copy_mIcEEPT_PKS3_S6_S4_ = comdat any

$_ZSt9__advanceIPKclEvRT_T0_St26random_access_iterator_tag = comdat any

$_ZSt18uninitialized_copyIPKcPcET0_T_S4_S3_ = comdat any

$_ZNSt20__uninitialized_copyILb1EE13__uninit_copyIPKcPcEET0_T_S6_S5_ = comdat any

$_ZSt4copyIPKcPcET0_T_S4_S3_ = comdat any

$_ZSt13__copy_move_aILb0EPKcPcET1_T0_S4_S3_ = comdat any

$_ZNKSt6vectorIcSaIcEE8max_sizeEv = comdat any

$_ZSt3maxImERKT_S2_S2_ = comdat any

$_ZNSt6vectorIcSaIcEE11_S_max_sizeERKS0_ = comdat any

$_ZNKSt12_Vector_baseIcSaIcEE19_M_get_Tp_allocatorEv = comdat any

$_ZNSt16allocator_traitsISaIcEE8max_sizeERKS0_ = comdat any

$_ZNK9__gnu_cxx13new_allocatorIcE8max_sizeEv = comdat any

$_ZNK9__gnu_cxx13new_allocatorIcE11_M_max_sizeEv = comdat any

$_ZNSt16allocator_traitsISaIcEE8allocateERS0_m = comdat any

$_ZN9__gnu_cxx13new_allocatorIcE8allocateEmPKv = comdat any

$_ZSt32__make_move_if_noexcept_iteratorIcSt13move_iteratorIPcEET0_PT_ = comdat any

$_ZSt8_DestroyIPcEvT_S1_ = comdat any

$_ZNSt12_Destroy_auxILb1EE9__destroyIPcEEvT_S3_ = comdat any

$_ZNSt16allocator_traitsISaIcEE10deallocateERS0_Pcm = comdat any

$_ZN9__gnu_cxx13new_allocatorIcE10deallocateEPcm = comdat any

$_ZN9__gnu_cxx17__normal_iteratorIPcSt6vectorIcSaIcEEEC2ERKS1_ = comdat any

$_ZNK8FileUtil4Stat4goodEv = comdat any

$_ZNSt8ios_base4setfESt13_Ios_Fmtflags = comdat any

$_ZNK6Socket19getSocketBufferSizeEv = comdat any

$_ZN4Util13symbolicErrnoB5cxx11Ei = comdat any

$_ZNSt7__cxx119to_stringEi = comdat any

$_ZNSt8__detail14__to_chars_lenIjEEjT_i = comdat any

$_ZNSt7__cxx1112basic_stringIcSt11char_traitsIcESaIcEEC2IS3_EEmcRKS3_ = comdat any

$_ZNSt8__detail18__to_chars_10_implIjEEvPcjT_ = comdat any

$_ZNSt7__cxx1112basic_stringIcSt11char_traitsIcESaIcEE12_Alloc_hiderD2Ev = comdat any

$_ZNSt11char_traitsIcE6lengthEPKc = comdat any

$_ZNSt7__cxx1112basic_stringIcSt11char_traitsIcESaIcEE12_M_constructIPKcEEvT_S8_St20forward_iterator_tag = comdat any

$_ZN9__gnu_cxx11char_traitsIcE6lengthEPKc = comdat any

$_ZN9__gnu_cxx11char_traitsIcE2eqERKcS3_ = comdat any

$_ZN9__gnu_cxx17__is_null_pointerIKcEEbPT_ = comdat any

$_ZNKSt19__shared_ptr_accessI12StreamSocketLN9__gnu_cxx12_Lock_policyE2ELb0ELb0EE6_M_getEv = comdat any

$_ZNKSt12__shared_ptrI12StreamSocketLN9__gnu_cxx12_Lock_policyE2EE3getEv = comdat any

$_ZNSt15__uniq_ptr_dataIcSt14default_deleteIA_cELb1ELb1EECI2St15__uniq_ptr_implIcS2_EEPc = comdat any

$_ZNSt15__uniq_ptr_implIcSt14default_deleteIA_cEEC2EPc = comdat any

$_ZNSt5tupleIJPcSt14default_deleteIA_cEEEC2ILb1ELb1EEEv = comdat any

$_ZNSt15__uniq_ptr_implIcSt14default_deleteIA_cEE6_M_ptrEv = comdat any

$_ZNSt11_Tuple_implILm0EJPcSt14default_deleteIA_cEEEC2Ev = comdat any

$_ZNSt11_Tuple_implILm1EJSt14default_deleteIA_cEEEC2Ev = comdat any

$_ZNSt10_Head_baseILm0EPcLb0EEC2Ev = comdat any

$_ZNSt10_Head_baseILm1ESt14default_deleteIA_cELb1EEC2Ev = comdat any

$_ZSt3getILm0EJPcSt14default_deleteIA_cEEERNSt13tuple_elementIXT_ESt5tupleIJDpT0_EEE4typeERS8_ = comdat any

$_ZSt12__get_helperILm0EPcJSt14default_deleteIA_cEEERT0_RSt11_Tuple_implIXT_EJS4_DpT1_EE = comdat any

$_ZNSt11_Tuple_implILm0EJPcSt14default_deleteIA_cEEE7_M_headERS4_ = comdat any

$_ZNSt10_Head_baseILm0EPcLb0EE7_M_headERS1_ = comdat any

$_ZNSt10unique_ptrIA_cSt14default_deleteIS0_EE11get_deleterEv = comdat any

$_ZNKSt14default_deleteIA_cEclIcEENSt9enable_ifIXsr14is_convertibleIPA_T_PS0_EE5valueEvE4typeEPS4_ = comdat any

$_ZNSt15__uniq_ptr_implIcSt14default_deleteIA_cEE10_M_deleterEv = comdat any

$_ZSt3getILm1EJPcSt14default_deleteIA_cEEERNSt13tuple_elementIXT_ESt5tupleIJDpT0_EEE4typeERS8_ = comdat any

$_ZSt12__get_helperILm1ESt14default_deleteIA_cEJEERT0_RSt11_Tuple_implIXT_EJS3_DpT1_EE = comdat any

$_ZNSt11_Tuple_implILm1EJSt14default_deleteIA_cEEE7_M_headERS3_ = comdat any

$_ZNSt10_Head_baseILm1ESt14default_deleteIA_cELb1EE7_M_headERS3_ = comdat any

$_ZNKSt10unique_ptrIA_cSt14default_deleteIS0_EE3getEv = comdat any

$_ZNKSt15__uniq_ptr_implIcSt14default_deleteIA_cEE6_M_ptrEv = comdat any

$_ZSt3getILm0EJPcSt14default_deleteIA_cEEERKNSt13tuple_elementIXT_ESt5tupleIJDpT0_EEE4typeERKS8_ = comdat any

$_ZSt12__get_helperILm0EPcJSt14default_deleteIA_cEEERKT0_RKSt11_Tuple_implIXT_EJS4_DpT1_EE = comdat any

$_ZNSt11_Tuple_implILm0EJPcSt14default_deleteIA_cEEE7_M_headERKS4_ = comdat any

$_ZNSt10_Head_baseILm0EPcLb0EE7_M_headERKS1_ = comdat any

$_ZN9__gnu_cxx14__alloc_traitsISaIcEcE17_S_select_on_copyERKS1_ = comdat any

$_ZNSt16allocator_traitsISaIcEE37select_on_container_copy_constructionERKS0_ = comdat any

$_ZZNSt8__detail18__to_chars_10_implIjEEvPcjT_E8__digits = comdat any

@_ZStL8__ioinit = internal global %"class.std::ios_base::Init" zeroinitializer, align 1, !dbg !0
@__dso_handle = external hidden global i8
@_ZN3LogL3endE = internal global %"struct.Log::_end_marker" zeroinitializer, align 1, !dbg !7
@.str = private unnamed_addr constant [10 x i8] c"HTTP/1.1 \00", align 1, !dbg !18
@.str.2 = private unnamed_addr constant [3 x i8] c"\0D\0A\00", align 1, !dbg !26
@.str.3 = private unnamed_addr constant [7 x i8] c"Date: \00", align 1, !dbg !31
@.str.4 = private unnamed_addr constant [13 x i8] c"User-Agent: \00", align 1, !dbg !36
@.str.5 = private unnamed_addr constant [29 x i8] c"COOLWSD HTTP Agent 21.11.0.1\00", align 1, !dbg !41
@.str.6 = private unnamed_addr constant [17 x i8] c"Content-Length: \00", align 1, !dbg !46
@_ZZN10HttpHelper23sendDeflatedFileContentERKSt10shared_ptrI12StreamSocketERKNSt7__cxx1112basic_stringIcSt11char_traitsIcESaIcEEEiE5Level = internal constant i32 1, align 4, !dbg !51
@.str.7 = private unnamed_addr constant [4 x i8] c"WRN\00", align 1, !dbg !2320
@.str.8 = private unnamed_addr constant [19 x i8] c": Failed to stat [\00", align 1, !dbg !2325
@.str.9 = private unnamed_addr constant [26 x i8] c"]. File will not be sent.\00", align 1, !dbg !2330
@.str.10 = private unnamed_addr constant [3 x i8] c"| \00", align 1, !dbg !2335
@.str.11 = private unnamed_addr constant [19 x i8] c"net/HttpHelper.cpp\00", align 1, !dbg !2337
@.str.12 = private unnamed_addr constant [17 x i8] c"Failed to stat [\00", align 1, !dbg !2339
@_ZTIN4Poco21FileNotFoundExceptionE = external constant ptr
@.str.13 = private unnamed_addr constant [14 x i8] c"Cache-Control\00", align 1, !dbg !2341
@.str.14 = private unnamed_addr constant [17 x i8] c"max-age=11059200\00", align 1, !dbg !2346
@.str.15 = private unnamed_addr constant [5 x i8] c"ETag\00", align 1, !dbg !2348
@.str.16 = private unnamed_addr constant [12 x i8] c"\225ffcd450a\22\00", align 1, !dbg !2353
@.str.17 = private unnamed_addr constant [9 x i8] c"no-cache\00", align 1, !dbg !2358
@.str.18 = private unnamed_addr constant [23 x i8] c"X-Content-Type-Options\00", align 1, !dbg !2363
@.str.19 = private unnamed_addr constant [8 x i8] c"nosniff\00", align 1, !dbg !2368
@.str.20 = private unnamed_addr constant [4 x i8] c"TRC\00", align 1, !dbg !2373
@.str.21 = private unnamed_addr constant [11 x i8] c": Sending \00", align 1, !dbg !2375
@.str.22 = private unnamed_addr constant [12 x i8] c"header for \00", align 1, !dbg !2380
@.str.23 = private unnamed_addr constant [1 x i8] zeroinitializer, align 1, !dbg !2382
@.str.24 = private unnamed_addr constant [8 x i8] c" file [\00", align 1, !dbg !2387
@.str.25 = private unnamed_addr constant [3 x i8] c"].\00", align 1, !dbg !2389
@.str.26 = private unnamed_addr constant [17 x i8] c"Content-Encoding\00", align 1, !dbg !2391
@.str.27 = private unnamed_addr constant [8 x i8] c"deflate\00", align 1, !dbg !2393
@.str.28 = private unnamed_addr constant [17 x i8] c"./net/Socket.hpp\00", align 1, !dbg !2395
@_ZN6Socket19InhibitThreadChecksE = external global %"struct.std::atomic", align 1
@.str.29 = private unnamed_addr constant [4 x i8] c"ERR\00", align 1, !dbg !2397
@.str.30 = private unnamed_addr constant [41 x i8] c" Invoked from foreign thread. Expected: \00", align 1, !dbg !2399
@.str.31 = private unnamed_addr constant [18 x i8] c" but called from \00", align 1, !dbg !2404
@.str.32 = private unnamed_addr constant [3 x i8] c" (\00", align 1, !dbg !2409
@.str.33 = private unnamed_addr constant [2 x i8] c")\00", align 1, !dbg !2411
@.str.34 = private unnamed_addr constant [2 x i8] c":\00", align 1, !dbg !2416
@.str.35 = private unnamed_addr constant [37 x i8] c"thread::id of a non-executing thread\00", align 1, !dbg !2418
@.str.36 = private unnamed_addr constant [3 x i8] c"0x\00", align 1, !dbg !2424
@.str.37 = private unnamed_addr constant [2 x i8] c"0\00", align 1, !dbg !2426
@.str.38 = private unnamed_addr constant [24 x i8] c"vector::_M_range_insert\00", align 1, !dbg !2428
@_ZN3Log10IsShutdownE = external global i8, align 1
@.str.39 = private unnamed_addr constant [59 x i8] c": Error getting socket buffer size. Using default size of \00", align 1, !dbg !2434
@.str.40 = private unnamed_addr constant [8 x i8] c" bytes.\00", align 1, !dbg !2439
@.str.41 = private unnamed_addr constant [3 x i8] c": \00", align 1, !dbg !2441
@.str.42 = private unnamed_addr constant [31 x i8] c": Clamped send buffer size to \00", align 1, !dbg !2443
@.str.43 = private unnamed_addr constant [7 x i8] c" from \00", align 1, !dbg !2448
@.str.44 = private unnamed_addr constant [29 x i8] c": Set socket buffer size to \00", align 1, !dbg !2450
@.str.45 = private unnamed_addr constant [6 x i8] c"EPERM\00", align 1, !dbg !2452
@.str.46 = private unnamed_addr constant [7 x i8] c"ENOENT\00", align 1, !dbg !2458
@.str.47 = private unnamed_addr constant [6 x i8] c"ESRCH\00", align 1, !dbg !2460
@.str.48 = private unnamed_addr constant [6 x i8] c"EINTR\00", align 1, !dbg !2462
@.str.49 = private unnamed_addr constant [4 x i8] c"EIO\00", align 1, !dbg !2464
@.str.50 = private unnamed_addr constant [6 x i8] c"ENXIO\00", align 1, !dbg !2466
@.str.51 = private unnamed_addr constant [6 x i8] c"E2BIG\00", align 1, !dbg !2468
@.str.52 = private unnamed_addr constant [8 x i8] c"ENOEXEC\00", align 1, !dbg !2470
@.str.53 = private unnamed_addr constant [6 x i8] c"EBADF\00", align 1, !dbg !2472
@.str.54 = private unnamed_addr constant [7 x i8] c"ECHILD\00", align 1, !dbg !2474
@.str.55 = private unnamed_addr constant [7 x i8] c"EAGAIN\00", align 1, !dbg !2476
@.str.56 = private unnamed_addr constant [7 x i8] c"ENOMEM\00", align 1, !dbg !2478
@.str.57 = private unnamed_addr constant [7 x i8] c"EACCES\00", align 1, !dbg !2480
@.str.58 = private unnamed_addr constant [7 x i8] c"EFAULT\00", align 1, !dbg !2482
@.str.59 = private unnamed_addr constant [8 x i8] c"ENOTBLK\00", align 1, !dbg !2484
@.str.60 = private unnamed_addr constant [6 x i8] c"EBUSY\00", align 1, !dbg !2486
@.str.61 = private unnamed_addr constant [7 x i8] c"EEXIST\00", align 1, !dbg !2488
@.str.62 = private unnamed_addr constant [6 x i8] c"EXDEV\00", align 1, !dbg !2490
@.str.63 = private unnamed_addr constant [7 x i8] c"ENODEV\00", align 1, !dbg !2492
@.str.64 = private unnamed_addr constant [8 x i8] c"ENOTDIR\00", align 1, !dbg !2494
@.str.65 = private unnamed_addr constant [7 x i8] c"EISDIR\00", align 1, !dbg !2496
@.str.66 = private unnamed_addr constant [7 x i8] c"EINVAL\00", align 1, !dbg !2498
@.str.67 = private unnamed_addr constant [7 x i8] c"ENFILE\00", align 1, !dbg !2500
@.str.68 = private unnamed_addr constant [7 x i8] c"EMFILE\00", align 1, !dbg !2502
@.str.69 = private unnamed_addr constant [7 x i8] c"ENOTTY\00", align 1, !dbg !2504
@.str.70 = private unnamed_addr constant [8 x i8] c"ETXTBSY\00", align 1, !dbg !2506
@.str.71 = private unnamed_addr constant [6 x i8] c"EFBIG\00", align 1, !dbg !2508
@.str.72 = private unnamed_addr constant [7 x i8] c"ENOSPC\00", align 1, !dbg !2510
@.str.73 = private unnamed_addr constant [7 x i8] c"ESPIPE\00", align 1, !dbg !2512
@.str.74 = private unnamed_addr constant [6 x i8] c"EROFS\00", align 1, !dbg !2514
@.str.75 = private unnamed_addr constant [7 x i8] c"EMLINK\00", align 1, !dbg !2516
@.str.76 = private unnamed_addr constant [6 x i8] c"EPIPE\00", align 1, !dbg !2518
@.str.77 = private unnamed_addr constant [5 x i8] c"EDOM\00", align 1, !dbg !2520
@.str.78 = private unnamed_addr constant [7 x i8] c"ERANGE\00", align 1, !dbg !2522
@.str.79 = private unnamed_addr constant [8 x i8] c"EDEADLK\00", align 1, !dbg !2524
@.str.80 = private unnamed_addr constant [13 x i8] c"ENAMETOOLONG\00", align 1, !dbg !2526
@.str.81 = private unnamed_addr constant [7 x i8] c"ENOLCK\00", align 1, !dbg !2528
@.str.82 = private unnamed_addr constant [7 x i8] c"ENOSYS\00", align 1, !dbg !2530
@.str.83 = private unnamed_addr constant [10 x i8] c"ENOTEMPTY\00", align 1, !dbg !2532
@.str.84 = private unnamed_addr constant [6 x i8] c"ELOOP\00", align 1, !dbg !2534
@.str.85 = private unnamed_addr constant [7 x i8] c"ENOMSG\00", align 1, !dbg !2536
@.str.86 = private unnamed_addr constant [6 x i8] c"EIDRM\00", align 1, !dbg !2538
@.str.87 = private unnamed_addr constant [7 x i8] c"ECHRNG\00", align 1, !dbg !2540
@.str.88 = private unnamed_addr constant [9 x i8] c"EL2NSYNC\00", align 1, !dbg !2542
@.str.89 = private unnamed_addr constant [7 x i8] c"EL3HLT\00", align 1, !dbg !2544
@.str.90 = private unnamed_addr constant [7 x i8] c"EL3RST\00", align 1, !dbg !2546
@.str.91 = private unnamed_addr constant [7 x i8] c"ELNRNG\00", align 1, !dbg !2548
@.str.92 = private unnamed_addr constant [8 x i8] c"EUNATCH\00", align 1, !dbg !2550
@.str.93 = private unnamed_addr constant [7 x i8] c"ENOCSI\00", align 1, !dbg !2552
@.str.94 = private unnamed_addr constant [7 x i8] c"EL2HLT\00", align 1, !dbg !2554
@.str.95 = private unnamed_addr constant [6 x i8] c"EBADE\00", align 1, !dbg !2556
@.str.96 = private unnamed_addr constant [6 x i8] c"EBADR\00", align 1, !dbg !2558
@.str.97 = private unnamed_addr constant [7 x i8] c"EXFULL\00", align 1, !dbg !2560
@.str.98 = private unnamed_addr constant [7 x i8] c"ENOANO\00", align 1, !dbg !2562
@.str.99 = private unnamed_addr constant [8 x i8] c"EBADRQC\00", align 1, !dbg !2564
@.str.100 = private unnamed_addr constant [8 x i8] c"EBADSLT\00", align 1, !dbg !2566
@.str.101 = private unnamed_addr constant [7 x i8] c"EBFONT\00", align 1, !dbg !2568
@.str.102 = private unnamed_addr constant [7 x i8] c"ENOSTR\00", align 1, !dbg !2570
@.str.103 = private unnamed_addr constant [8 x i8] c"ENODATA\00", align 1, !dbg !2572
@.str.104 = private unnamed_addr constant [6 x i8] c"ETIME\00", align 1, !dbg !2574
@.str.105 = private unnamed_addr constant [6 x i8] c"ENOSR\00", align 1, !dbg !2576
@.str.106 = private unnamed_addr constant [7 x i8] c"ENONET\00", align 1, !dbg !2578
@.str.107 = private unnamed_addr constant [7 x i8] c"ENOPKG\00", align 1, !dbg !2580
@.str.108 = private unnamed_addr constant [8 x i8] c"EREMOTE\00", align 1, !dbg !2582
@.str.109 = private unnamed_addr constant [8 x i8] c"ENOLINK\00", align 1, !dbg !2584
@.str.110 = private unnamed_addr constant [5 x i8] c"EADV\00", align 1, !dbg !2586
@.str.111 = private unnamed_addr constant [7 x i8] c"ESRMNT\00", align 1, !dbg !2588
@.str.112 = private unnamed_addr constant [6 x i8] c"ECOMM\00", align 1, !dbg !2590
@.str.113 = private unnamed_addr constant [7 x i8] c"EPROTO\00", align 1, !dbg !2592
@.str.114 = private unnamed_addr constant [10 x i8] c"EMULTIHOP\00", align 1, !dbg !2594
@.str.115 = private unnamed_addr constant [8 x i8] c"EDOTDOT\00", align 1, !dbg !2596
@.str.116 = private unnamed_addr constant [8 x i8] c"EBADMSG\00", align 1, !dbg !2598
@.str.117 = private unnamed_addr constant [10 x i8] c"EOVERFLOW\00", align 1, !dbg !2600
@.str.118 = private unnamed_addr constant [9 x i8] c"ENOTUNIQ\00", align 1, !dbg !2602
@.str.119 = private unnamed_addr constant [7 x i8] c"EBADFD\00", align 1, !dbg !2604
@.str.120 = private unnamed_addr constant [8 x i8] c"EREMCHG\00", align 1, !dbg !2606
@.str.121 = private unnamed_addr constant [8 x i8] c"ELIBACC\00", align 1, !dbg !2608
@.str.122 = private unnamed_addr constant [8 x i8] c"ELIBBAD\00", align 1, !dbg !2610
@.str.123 = private unnamed_addr constant [8 x i8] c"ELIBSCN\00", align 1, !dbg !2612
@.str.124 = private unnamed_addr constant [8 x i8] c"ELIBMAX\00", align 1, !dbg !2614
@.str.125 = private unnamed_addr constant [9 x i8] c"ELIBEXEC\00", align 1, !dbg !2616
@.str.126 = private unnamed_addr constant [7 x i8] c"EILSEQ\00", align 1, !dbg !2618
@.str.127 = private unnamed_addr constant [9 x i8] c"ERESTART\00", align 1, !dbg !2620
@.str.128 = private unnamed_addr constant [9 x i8] c"ESTRPIPE\00", align 1, !dbg !2622
@.str.129 = private unnamed_addr constant [7 x i8] c"EUSERS\00", align 1, !dbg !2624
@.str.130 = private unnamed_addr constant [9 x i8] c"ENOTSOCK\00", align 1, !dbg !2626
@.str.131 = private unnamed_addr constant [13 x i8] c"EDESTADDRREQ\00", align 1, !dbg !2628
@.str.132 = private unnamed_addr constant [9 x i8] c"EMSGSIZE\00", align 1, !dbg !2630
@.str.133 = private unnamed_addr constant [11 x i8] c"EPROTOTYPE\00", align 1, !dbg !2632
@.str.134 = private unnamed_addr constant [12 x i8] c"ENOPROTOOPT\00", align 1, !dbg !2634
@.str.135 = private unnamed_addr constant [16 x i8] c"EPROTONOSUPPORT\00", align 1, !dbg !2636
@.str.136 = private unnamed_addr constant [16 x i8] c"ESOCKTNOSUPPORT\00", align 1, !dbg !2639
@.str.137 = private unnamed_addr constant [11 x i8] c"EOPNOTSUPP\00", align 1, !dbg !2641
@.str.138 = private unnamed_addr constant [13 x i8] c"EPFNOSUPPORT\00", align 1, !dbg !2643
@.str.139 = private unnamed_addr constant [13 x i8] c"EAFNOSUPPORT\00", align 1, !dbg !2645
@.str.140 = private unnamed_addr constant [11 x i8] c"EADDRINUSE\00", align 1, !dbg !2647
@.str.141 = private unnamed_addr constant [14 x i8] c"EADDRNOTAVAIL\00", align 1, !dbg !2649
@.str.142 = private unnamed_addr constant [9 x i8] c"ENETDOWN\00", align 1, !dbg !2651
@.str.143 = private unnamed_addr constant [12 x i8] c"ENETUNREACH\00", align 1, !dbg !2653
@.str.144 = private unnamed_addr constant [10 x i8] c"ENETRESET\00", align 1, !dbg !2655
@.str.145 = private unnamed_addr constant [13 x i8] c"ECONNABORTED\00", align 1, !dbg !2657
@.str.146 = private unnamed_addr constant [11 x i8] c"ECONNRESET\00", align 1, !dbg !2659
@.str.147 = private unnamed_addr constant [8 x i8] c"ENOBUFS\00", align 1, !dbg !2661
@.str.148 = private unnamed_addr constant [8 x i8] c"EISCONN\00", align 1, !dbg !2663
@.str.149 = private unnamed_addr constant [9 x i8] c"ENOTCONN\00", align 1, !dbg !2665
@.str.150 = private unnamed_addr constant [10 x i8] c"ESHUTDOWN\00", align 1, !dbg !2667
@.str.151 = private unnamed_addr constant [13 x i8] c"ETOOMANYREFS\00", align 1, !dbg !2669
@.str.152 = private unnamed_addr constant [10 x i8] c"ETIMEDOUT\00", align 1, !dbg !2671
@.str.153 = private unnamed_addr constant [13 x i8] c"ECONNREFUSED\00", align 1, !dbg !2673
@.str.154 = private unnamed_addr constant [10 x i8] c"EHOSTDOWN\00", align 1, !dbg !2675
@.str.155 = private unnamed_addr constant [13 x i8] c"EHOSTUNREACH\00", align 1, !dbg !2677
@.str.156 = private unnamed_addr constant [9 x i8] c"EALREADY\00", align 1, !dbg !2679
@.str.157 = private unnamed_addr constant [12 x i8] c"EINPROGRESS\00", align 1, !dbg !2681
@.str.158 = private unnamed_addr constant [7 x i8] c"ESTALE\00", align 1, !dbg !2683
@.str.159 = private unnamed_addr constant [8 x i8] c"EUCLEAN\00", align 1, !dbg !2685
@.str.160 = private unnamed_addr constant [8 x i8] c"ENOTNAM\00", align 1, !dbg !2687
@.str.161 = private unnamed_addr constant [8 x i8] c"ENAVAIL\00", align 1, !dbg !2689
@.str.162 = private unnamed_addr constant [7 x i8] c"EISNAM\00", align 1, !dbg !2691
@.str.163 = private unnamed_addr constant [10 x i8] c"EREMOTEIO\00", align 1, !dbg !2693
@.str.164 = private unnamed_addr constant [7 x i8] c"EDQUOT\00", align 1, !dbg !2695
@.str.165 = private unnamed_addr constant [10 x i8] c"ENOMEDIUM\00", align 1, !dbg !2697
@.str.166 = private unnamed_addr constant [12 x i8] c"EMEDIUMTYPE\00", align 1, !dbg !2699
@.str.167 = private unnamed_addr constant [10 x i8] c"ECANCELED\00", align 1, !dbg !2701
@.str.168 = private unnamed_addr constant [7 x i8] c"ENOKEY\00", align 1, !dbg !2703
@.str.169 = private unnamed_addr constant [12 x i8] c"EKEYEXPIRED\00", align 1, !dbg !2705
@.str.170 = private unnamed_addr constant [12 x i8] c"EKEYREVOKED\00", align 1, !dbg !2707
@.str.171 = private unnamed_addr constant [13 x i8] c"EKEYREJECTED\00", align 1, !dbg !2709
@.str.172 = private unnamed_addr constant [11 x i8] c"EOWNERDEAD\00", align 1, !dbg !2711
@.str.173 = private unnamed_addr constant [16 x i8] c"ENOTRECOVERABLE\00", align 1, !dbg !2713
@.str.174 = private unnamed_addr constant [8 x i8] c"ERFKILL\00", align 1, !dbg !2715
@.str.175 = private unnamed_addr constant [10 x i8] c"EHWPOISON\00", align 1, !dbg !2717
@_ZZNSt8__detail18__to_chars_10_implIjEEvPcjT_E8__digits = linkonce_odr dso_local constant [201 x i8] c"00010203040506070809101112131415161718192021222324252627282930313233343536373839404142434445464748495051525354555657585960616263646566676869707172737475767778798081828384858687888990919293949596979899\00", comdat, align 16, !dbg !2719
@.str.176 = private unnamed_addr constant [42 x i8] c"basic_string::_M_construct null not valid\00", align 1, !dbg !2732
@llvm.global_ctors = appending global [1 x { i32, ptr, ptr }] [{ i32, ptr, ptr } { i32 65535, ptr @_GLOBAL__sub_I_HttpHelper.cpp, ptr null }]

; Function Attrs: noinline uwtable
define internal void @__cxx_global_var_init() #0 section ".text.startup" !dbg !3748 {
  call void @_ZNSt8ios_base4InitC1Ev(ptr noundef nonnull align 1 dereferenceable(1) @_ZStL8__ioinit), !dbg !3749
  %1 = call i32 @__cxa_atexit(ptr @_ZNSt8ios_base4InitD1Ev, ptr @_ZStL8__ioinit, ptr @__dso_handle) #3, !dbg !3751
  ret void, !dbg !3749
}

declare void @_ZNSt8ios_base4InitC1Ev(ptr noundef nonnull align 1 dereferenceable(1)) unnamed_addr #1

; Function Attrs: nounwind
declare void @_ZNSt8ios_base4InitD1Ev(ptr noundef nonnull align 1 dereferenceable(1)) unnamed_addr #2

; Function Attrs: nounwind
declare i32 @__cxa_atexit(ptr, ptr, ptr) #3

; Function Attrs: noinline uwtable
define internal void @__cxx_global_var_init.1() #0 section ".text.startup" !dbg !3752 {
  call void @_ZN3Log11_end_markerC2Ev(ptr noundef nonnull align 1 dereferenceable(1) @_ZN3LogL3endE), !dbg !3753
  ret void, !dbg !3753
}

; Function Attrs: noinline nounwind optnone uwtable
define linkonce_odr dso_local void @_ZN3Log11_end_markerC2Ev(ptr noundef nonnull align 1 dereferenceable(1) %0) unnamed_addr #4 comdat align 2 !dbg !3755 {
  %2 = alloca ptr, align 8
  store ptr %0, ptr %2, align 8
  call void @llvm.dbg.declare(metadata ptr %2, metadata !3756, metadata !DIExpression()), !dbg !3758
  %3 = load ptr, ptr %2, align 8
  ret void, !dbg !3759
}

; Function Attrs: mustprogress noinline optnone uwtable
define dso_local void @_ZN10HttpHelper9sendErrorEiRKSt10shared_ptrI12StreamSocketERKNSt7__cxx1112basic_stringIcSt11char_traitsIcESaIcEEESC_(i32 noundef %0, ptr noundef nonnull align 8 dereferenceable(16) %1, ptr noundef nonnull align 8 dereferenceable(32) %2, ptr noundef nonnull align 8 dereferenceable(32) %3) #5 personality ptr @__gxx_personality_v0 !dbg !3760 {
  %5 = alloca i32, align 4
  %6 = alloca ptr, align 8
  %7 = alloca ptr, align 8
  %8 = alloca ptr, align 8
  %9 = alloca %"class.std::__cxx11::basic_ostringstream", align 8
  %10 = alloca ptr, align 8
  %11 = alloca i32, align 4
  %12 = alloca %"class.std::__cxx11::basic_string", align 8
  %13 = alloca %"class.std::__cxx11::basic_string", align 8
  store i32 %0, ptr %5, align 4
  call void @llvm.dbg.declare(metadata ptr %5, metadata !3763, metadata !DIExpression()), !dbg !3764
  store ptr %1, ptr %6, align 8
  call void @llvm.dbg.declare(metadata ptr %6, metadata !3765, metadata !DIExpression()), !dbg !3766
  store ptr %2, ptr %7, align 8
  call void @llvm.dbg.declare(metadata ptr %7, metadata !3767, metadata !DIExpression()), !dbg !3768
  store ptr %3, ptr %8, align 8
  call void @llvm.dbg.declare(metadata ptr %8, metadata !3769, metadata !DIExpression()), !dbg !3770
  call void @llvm.dbg.declare(metadata ptr %9, metadata !3771, metadata !DIExpression()), !dbg !3776
  call void @_ZNSt7__cxx1119basic_ostringstreamIcSt11char_traitsIcESaIcEEC1Ev(ptr noundef nonnull align 8 dereferenceable(112) %9), !dbg !3776
  %14 = invoke noundef nonnull align 8 dereferenceable(8) ptr @_ZStlsISt11char_traitsIcEERSt13basic_ostreamIcT_ES5_PKc(ptr noundef nonnull align 8 dereferenceable(8) %9, ptr noundef @.str)
          to label %15 unwind label %54, !dbg !3777

15:                                               ; preds = %4
  %16 = load i32, ptr %5, align 4, !dbg !3778
  %17 = invoke noundef nonnull align 8 dereferenceable(8) ptr @_ZNSolsEi(ptr noundef nonnull align 8 dereferenceable(8) %14, i32 noundef %16)
          to label %18 unwind label %54, !dbg !3779

18:                                               ; preds = %15
  %19 = invoke noundef nonnull align 8 dereferenceable(8) ptr @_ZStlsISt11char_traitsIcEERSt13basic_ostreamIcT_ES5_PKc(ptr noundef nonnull align 8 dereferenceable(8) %17, ptr noundef @.str.2)
          to label %20 unwind label %54, !dbg !3780

20:                                               ; preds = %18
  %21 = invoke noundef nonnull align 8 dereferenceable(8) ptr @_ZStlsISt11char_traitsIcEERSt13basic_ostreamIcT_ES5_PKc(ptr noundef nonnull align 8 dereferenceable(8) %19, ptr noundef @.str.3)
          to label %22 unwind label %54, !dbg !3781

22:                                               ; preds = %20
  invoke void @_ZN4Util14getHttpTimeNowB5cxx11Ev(ptr sret(%"class.std::__cxx11::basic_string") align 8 %12)
          to label %23 unwind label %54, !dbg !3782

23:                                               ; preds = %22
  %24 = invoke noundef nonnull align 8 dereferenceable(8) ptr @_ZStlsIcSt11char_traitsIcESaIcEERSt13basic_ostreamIT_T0_ES7_RKNSt7__cxx1112basic_stringIS4_S5_T1_EE(ptr noundef nonnull align 8 dereferenceable(8) %21, ptr noundef nonnull align 8 dereferenceable(32) %12)
          to label %25 unwind label %58, !dbg !3783

25:                                               ; preds = %23
  %26 = invoke noundef nonnull align 8 dereferenceable(8) ptr @_ZStlsISt11char_traitsIcEERSt13basic_ostreamIcT_ES5_PKc(ptr noundef nonnull align 8 dereferenceable(8) %24, ptr noundef @.str.2)
          to label %27 unwind label %58, !dbg !3784

27:                                               ; preds = %25
  %28 = invoke noundef nonnull align 8 dereferenceable(8) ptr @_ZStlsISt11char_traitsIcEERSt13basic_ostreamIcT_ES5_PKc(ptr noundef nonnull align 8 dereferenceable(8) %26, ptr noundef @.str.4)
          to label %29 unwind label %58, !dbg !3785

29:                                               ; preds = %27
  %30 = invoke noundef nonnull align 8 dereferenceable(8) ptr @_ZStlsISt11char_traitsIcEERSt13basic_ostreamIcT_ES5_PKc(ptr noundef nonnull align 8 dereferenceable(8) %28, ptr noundef @.str.5)
          to label %31 unwind label %58, !dbg !3786

31:                                               ; preds = %29
  %32 = invoke noundef nonnull align 8 dereferenceable(8) ptr @_ZStlsISt11char_traitsIcEERSt13basic_ostreamIcT_ES5_PKc(ptr noundef nonnull align 8 dereferenceable(8) %30, ptr noundef @.str.2)
          to label %33 unwind label %58, !dbg !3787

33:                                               ; preds = %31
  %34 = invoke noundef nonnull align 8 dereferenceable(8) ptr @_ZStlsISt11char_traitsIcEERSt13basic_ostreamIcT_ES5_PKc(ptr noundef nonnull align 8 dereferenceable(8) %32, ptr noundef @.str.6)
          to label %35 unwind label %58, !dbg !3788

35:                                               ; preds = %33
  %36 = load ptr, ptr %7, align 8, !dbg !3789
  %37 = call noundef i64 @_ZNKSt7__cxx1112basic_stringIcSt11char_traitsIcESaIcEE4sizeEv(ptr noundef nonnull align 8 dereferenceable(32) %36) #3, !dbg !3790
  %38 = invoke noundef nonnull align 8 dereferenceable(8) ptr @_ZNSolsEm(ptr noundef nonnull align 8 dereferenceable(8) %34, i64 noundef %37)
          to label %39 unwind label %58, !dbg !3791

39:                                               ; preds = %35
  %40 = invoke noundef nonnull align 8 dereferenceable(8) ptr @_ZStlsISt11char_traitsIcEERSt13basic_ostreamIcT_ES5_PKc(ptr noundef nonnull align 8 dereferenceable(8) %38, ptr noundef @.str.2)
          to label %41 unwind label %58, !dbg !3792

41:                                               ; preds = %39
  %42 = load ptr, ptr %8, align 8, !dbg !3793
  %43 = invoke noundef nonnull align 8 dereferenceable(8) ptr @_ZStlsIcSt11char_traitsIcESaIcEERSt13basic_ostreamIT_T0_ES7_RKNSt7__cxx1112basic_stringIS4_S5_T1_EE(ptr noundef nonnull align 8 dereferenceable(8) %40, ptr noundef nonnull align 8 dereferenceable(32) %42)
          to label %44 unwind label %58, !dbg !3794

44:                                               ; preds = %41
  %45 = invoke noundef nonnull align 8 dereferenceable(8) ptr @_ZStlsISt11char_traitsIcEERSt13basic_ostreamIcT_ES5_PKc(ptr noundef nonnull align 8 dereferenceable(8) %43, ptr noundef @.str.2)
          to label %46 unwind label %58, !dbg !3795

46:                                               ; preds = %44
  %47 = load ptr, ptr %7, align 8, !dbg !3796
  %48 = invoke noundef nonnull align 8 dereferenceable(8) ptr @_ZStlsIcSt11char_traitsIcESaIcEERSt13basic_ostreamIT_T0_ES7_RKNSt7__cxx1112basic_stringIS4_S5_T1_EE(ptr noundef nonnull align 8 dereferenceable(8) %45, ptr noundef nonnull align 8 dereferenceable(32) %47)
          to label %49 unwind label %58, !dbg !3797

49:                                               ; preds = %46
  call void @_ZNSt7__cxx1112basic_stringIcSt11char_traitsIcESaIcEED1Ev(ptr noundef nonnull align 8 dereferenceable(32) %12) #3, !dbg !3798
  %50 = load ptr, ptr %6, align 8, !dbg !3799
  %51 = call noundef ptr @_ZNKSt19__shared_ptr_accessI12StreamSocketLN9__gnu_cxx12_Lock_policyE2ELb0ELb0EEptEv(ptr noundef nonnull align 1 dereferenceable(1) %50) #3, !dbg !3799
  invoke void @_ZNKSt7__cxx1119basic_ostringstreamIcSt11char_traitsIcESaIcEE3strEv(ptr sret(%"class.std::__cxx11::basic_string") align 8 %13, ptr noundef nonnull align 8 dereferenceable(112) %9)
          to label %52 unwind label %54, !dbg !3800

52:                                               ; preds = %49
  invoke void @_ZN12StreamSocket4sendERKNSt7__cxx1112basic_stringIcSt11char_traitsIcESaIcEEEb(ptr noundef nonnull align 8 dereferenceable(241) %51, ptr noundef nonnull align 8 dereferenceable(32) %13, i1 noundef zeroext true)
          to label %53 unwind label %62, !dbg !3801

53:                                               ; preds = %52
  call void @_ZNSt7__cxx1112basic_stringIcSt11char_traitsIcESaIcEED1Ev(ptr noundef nonnull align 8 dereferenceable(32) %13) #3, !dbg !3799
  call void @_ZNSt7__cxx1119basic_ostringstreamIcSt11char_traitsIcESaIcEED1Ev(ptr noundef nonnull align 8 dereferenceable(112) %9) #3, !dbg !3802
  ret void, !dbg !3802

54:                                               ; preds = %49, %22, %20, %18, %15, %4
  %55 = landingpad { ptr, i32 }
          cleanup, !dbg !3802
  %56 = extractvalue { ptr, i32 } %55, 0, !dbg !3802
  store ptr %56, ptr %10, align 8, !dbg !3802
  %57 = extractvalue { ptr, i32 } %55, 1, !dbg !3802
  store i32 %57, ptr %11, align 4, !dbg !3802
  br label %66, !dbg !3802

58:                                               ; preds = %46, %44, %41, %39, %35, %33, %31, %29, %27, %25, %23
  %59 = landingpad { ptr, i32 }
          cleanup, !dbg !3802
  %60 = extractvalue { ptr, i32 } %59, 0, !dbg !3802
  store ptr %60, ptr %10, align 8, !dbg !3802
  %61 = extractvalue { ptr, i32 } %59, 1, !dbg !3802
  store i32 %61, ptr %11, align 4, !dbg !3802
  call void @_ZNSt7__cxx1112basic_stringIcSt11char_traitsIcESaIcEED1Ev(ptr noundef nonnull align 8 dereferenceable(32) %12) #3, !dbg !3798
  br label %66, !dbg !3798

62:                                               ; preds = %52
  %63 = landingpad { ptr, i32 }
          cleanup, !dbg !3802
  %64 = extractvalue { ptr, i32 } %63, 0, !dbg !3802
  store ptr %64, ptr %10, align 8, !dbg !3802
  %65 = extractvalue { ptr, i32 } %63, 1, !dbg !3802
  store i32 %65, ptr %11, align 4, !dbg !3802
  call void @_ZNSt7__cxx1112basic_stringIcSt11char_traitsIcESaIcEED1Ev(ptr noundef nonnull align 8 dereferenceable(32) %13) #3, !dbg !3799
  br label %66, !dbg !3799

66:                                               ; preds = %62, %58, %54
  call void @_ZNSt7__cxx1119basic_ostringstreamIcSt11char_traitsIcESaIcEED1Ev(ptr noundef nonnull align 8 dereferenceable(112) %9) #3, !dbg !3802
  br label %67, !dbg !3802

67:                                               ; preds = %66
  %68 = load ptr, ptr %10, align 8, !dbg !3802
  %69 = load i32, ptr %11, align 4, !dbg !3802
  %70 = insertvalue { ptr, i32 } poison, ptr %68, 0, !dbg !3802
  %71 = insertvalue { ptr, i32 } %70, i32 %69, 1, !dbg !3802
  resume { ptr, i32 } %71, !dbg !3802
}

; Function Attrs: nocallback nofree nosync nounwind speculatable willreturn memory(none)
declare void @llvm.dbg.declare(metadata, metadata, metadata) #6

declare void @_ZNSt7__cxx1119basic_ostringstreamIcSt11char_traitsIcESaIcEEC1Ev(ptr noundef nonnull align 8 dereferenceable(112)) unnamed_addr #1

declare noundef nonnull align 8 dereferenceable(8) ptr @_ZStlsIcSt11char_traitsIcESaIcEERSt13basic_ostreamIT_T0_ES7_RKNSt7__cxx1112basic_stringIS4_S5_T1_EE(ptr noundef nonnull align 8 dereferenceable(8), ptr noundef nonnull align 8 dereferenceable(32)) #1

declare noundef nonnull align 8 dereferenceable(8) ptr @_ZStlsISt11char_traitsIcEERSt13basic_ostreamIcT_ES5_PKc(ptr noundef nonnull align 8 dereferenceable(8), ptr noundef) #1

declare i32 @__gxx_personality_v0(...)

declare noundef nonnull align 8 dereferenceable(8) ptr @_ZNSolsEi(ptr noundef nonnull align 8 dereferenceable(8), i32 noundef) #1

declare void @_ZN4Util14getHttpTimeNowB5cxx11Ev(ptr sret(%"class.std::__cxx11::basic_string") align 8) #1

declare noundef nonnull align 8 dereferenceable(8) ptr @_ZNSolsEm(ptr noundef nonnull align 8 dereferenceable(8), i64 noundef) #1

; Function Attrs: nounwind
declare noundef i64 @_ZNKSt7__cxx1112basic_stringIcSt11char_traitsIcESaIcEE4sizeEv(ptr noundef nonnull align 8 dereferenceable(32)) #2

; Function Attrs: nounwind
declare void @_ZNSt7__cxx1112basic_stringIcSt11char_traitsIcESaIcEED1Ev(ptr noundef nonnull align 8 dereferenceable(32)) unnamed_addr #2

; Function Attrs: mustprogress noinline nounwind optnone uwtable
define linkonce_odr dso_local noundef ptr @_ZNKSt19__shared_ptr_accessI12StreamSocketLN9__gnu_cxx12_Lock_policyE2ELb0ELb0EEptEv(ptr noundef nonnull align 1 dereferenceable(1) %0) #7 comdat align 2 !dbg !3803 {
  %2 = alloca ptr, align 8
  store ptr %0, ptr %2, align 8
  call void @llvm.dbg.declare(metadata ptr %2, metadata !3804, metadata !DIExpression()), !dbg !3806
  %3 = load ptr, ptr %2, align 8
  %4 = call noundef ptr @_ZNKSt19__shared_ptr_accessI12StreamSocketLN9__gnu_cxx12_Lock_policyE2ELb0ELb0EE6_M_getEv(ptr noundef nonnull align 1 dereferenceable(1) %3) #3, !dbg !3807
  ret ptr %4, !dbg !3808
}

; Function Attrs: mustprogress noinline optnone uwtable
define linkonce_odr dso_local void @_ZN12StreamSocket4sendERKNSt7__cxx1112basic_stringIcSt11char_traitsIcESaIcEEEb(ptr noundef nonnull align 8 dereferenceable(241) %0, ptr noundef nonnull align 8 dereferenceable(32) %1, i1 noundef zeroext %2) #5 comdat align 2 !dbg !3809 {
  %4 = alloca ptr, align 8
  %5 = alloca ptr, align 8
  %6 = alloca i8, align 1
  store ptr %0, ptr %4, align 8
  call void @llvm.dbg.declare(metadata ptr %4, metadata !3814, metadata !DIExpression()), !dbg !3815
  store ptr %1, ptr %5, align 8
  call void @llvm.dbg.declare(metadata ptr %5, metadata !3816, metadata !DIExpression()), !dbg !3817
  %7 = zext i1 %2 to i8
  store i8 %7, ptr %6, align 1
  call void @llvm.dbg.declare(metadata ptr %6, metadata !3818, metadata !DIExpression()), !dbg !3819
  %8 = load ptr, ptr %4, align 8
  %9 = load ptr, ptr %5, align 8, !dbg !3820
  %10 = call noundef ptr @_ZNKSt7__cxx1112basic_stringIcSt11char_traitsIcESaIcEE4dataEv(ptr noundef nonnull align 8 dereferenceable(32) %9) #3, !dbg !3821
  %11 = load ptr, ptr %5, align 8, !dbg !3822
  %12 = call noundef i64 @_ZNKSt7__cxx1112basic_stringIcSt11char_traitsIcESaIcEE4sizeEv(ptr noundef nonnull align 8 dereferenceable(32) %11) #3, !dbg !3823
  %13 = trunc i64 %12 to i32, !dbg !3822
  %14 = load i8, ptr %6, align 1, !dbg !3824
  %15 = trunc i8 %14 to i1, !dbg !3824
  call void @_ZN12StreamSocket4sendEPKcib(ptr noundef nonnull align 8 dereferenceable(241) %8, ptr noundef %10, i32 noundef %13, i1 noundef zeroext %15), !dbg !3825
  ret void, !dbg !3826
}

declare void @_ZNKSt7__cxx1119basic_ostringstreamIcSt11char_traitsIcESaIcEE3strEv(ptr sret(%"class.std::__cxx11::basic_string") align 8, ptr noundef nonnull align 8 dereferenceable(112)) #1

; Function Attrs: nounwind
declare void @_ZNSt7__cxx1119basic_ostringstreamIcSt11char_traitsIcESaIcEED1Ev(ptr noundef nonnull align 8 dereferenceable(112)) unnamed_addr #2

; Function Attrs: mustprogress noinline optnone uwtable
define dso_local void @_ZN10HttpHelper20sendErrorAndShutdownEiRKSt10shared_ptrI12StreamSocketERKNSt7__cxx1112basic_stringIcSt11char_traitsIcESaIcEEESC_(i32 noundef %0, ptr noundef nonnull align 8 dereferenceable(16) %1, ptr noundef nonnull align 8 dereferenceable(32) %2, ptr noundef nonnull align 8 dereferenceable(32) %3) #5 !dbg !3827 {
  %5 = alloca i32, align 4
  %6 = alloca ptr, align 8
  %7 = alloca ptr, align 8
  %8 = alloca ptr, align 8
  store i32 %0, ptr %5, align 4
  call void @llvm.dbg.declare(metadata ptr %5, metadata !3828, metadata !DIExpression()), !dbg !3829
  store ptr %1, ptr %6, align 8
  call void @llvm.dbg.declare(metadata ptr %6, metadata !3830, metadata !DIExpression()), !dbg !3831
  store ptr %2, ptr %7, align 8
  call void @llvm.dbg.declare(metadata ptr %7, metadata !3832, metadata !DIExpression()), !dbg !3833
  store ptr %3, ptr %8, align 8
  call void @llvm.dbg.declare(metadata ptr %8, metadata !3834, metadata !DIExpression()), !dbg !3835
  %9 = load i32, ptr %5, align 4, !dbg !3836
  %10 = load ptr, ptr %6, align 8, !dbg !3837
  %11 = load ptr, ptr %7, align 8, !dbg !3838
  %12 = load ptr, ptr %8, align 8, !dbg !3839
  call void @_ZN10HttpHelper9sendErrorEiRKSt10shared_ptrI12StreamSocketERKNSt7__cxx1112basic_stringIcSt11char_traitsIcESaIcEEESC_(i32 noundef %9, ptr noundef nonnull align 8 dereferenceable(16) %10, ptr noundef nonnull align 8 dereferenceable(32) %11, ptr noundef nonnull align 8 dereferenceable(32) %12), !dbg !3840
  %13 = load ptr, ptr %6, align 8, !dbg !3841
  %14 = call noundef ptr @_ZNKSt19__shared_ptr_accessI12StreamSocketLN9__gnu_cxx12_Lock_policyE2ELb0ELb0EEptEv(ptr noundef nonnull align 1 dereferenceable(1) %13) #3, !dbg !3841
  %15 = load ptr, ptr %14, align 8, !dbg !3842
  %16 = getelementptr inbounds ptr, ptr %15, i64 2, !dbg !3842
  %17 = load ptr, ptr %16, align 8, !dbg !3842
  call void %17(ptr noundef nonnull align 8 dereferenceable(241) %14), !dbg !3842
  %18 = load ptr, ptr %6, align 8, !dbg !3843
  %19 = call noundef ptr @_ZNKSt19__shared_ptr_accessI12StreamSocketLN9__gnu_cxx12_Lock_policyE2ELb0ELb0EEptEv(ptr noundef nonnull align 1 dereferenceable(1) %18) #3, !dbg !3843
  %20 = load ptr, ptr %19, align 8, !dbg !3844
  %21 = getelementptr inbounds ptr, ptr %20, i64 7, !dbg !3844
  %22 = load ptr, ptr %21, align 8, !dbg !3844
  call void %22(ptr noundef nonnull align 8 dereferenceable(241) %19), !dbg !3844
  ret void, !dbg !3845
}

; Function Attrs: mustprogress noinline optnone uwtable
define dso_local void @_ZN10HttpHelper27sendUncompressedFileContentERKSt10shared_ptrI12StreamSocketERKNSt7__cxx1112basic_stringIcSt11char_traitsIcESaIcEEEi(ptr noundef nonnull align 8 dereferenceable(16) %0, ptr noundef nonnull align 8 dereferenceable(32) %1, i32 noundef %2) #5 personality ptr @__gxx_personality_v0 !dbg !3846 {
  %4 = alloca ptr, align 8
  %5 = alloca ptr, align 8
  %6 = alloca i32, align 4
  %7 = alloca %"class.std::basic_ifstream", align 8
  %8 = alloca %"class.std::unique_ptr", align 8
  %9 = alloca ptr, align 8
  %10 = alloca i32, align 4
  %11 = alloca i32, align 4
  store ptr %0, ptr %4, align 8
  call void @llvm.dbg.declare(metadata ptr %4, metadata !3847, metadata !DIExpression()), !dbg !3848
  store ptr %1, ptr %5, align 8
  call void @llvm.dbg.declare(metadata ptr %5, metadata !3849, metadata !DIExpression()), !dbg !3850
  store i32 %2, ptr %6, align 4
  call void @llvm.dbg.declare(metadata ptr %6, metadata !3851, metadata !DIExpression()), !dbg !3852
  call void @llvm.dbg.declare(metadata ptr %7, metadata !3853, metadata !DIExpression()), !dbg !3857
  %12 = load ptr, ptr %5, align 8, !dbg !3858
  call void @_ZNSt14basic_ifstreamIcSt11char_traitsIcEEC1ERKNSt7__cxx1112basic_stringIcS1_SaIcEEESt13_Ios_Openmode(ptr noundef nonnull align 8 dereferenceable(256) %7, ptr noundef nonnull align 8 dereferenceable(32) %12, i32 noundef 4), !dbg !3857
  call void @llvm.dbg.declare(metadata ptr %8, metadata !3859, metadata !DIExpression()), !dbg !3860
  %13 = load i32, ptr %6, align 4, !dbg !3861
  %14 = sext i32 %13 to i64, !dbg !3861
  %15 = invoke noalias noundef nonnull ptr @_Znam(i64 noundef %14) #16
          to label %16 unwind label %36, !dbg !3862, !heapallocsite !23

16:                                               ; preds = %3
  call void @_ZNSt10unique_ptrIA_cSt14default_deleteIS0_EEC2IPcS2_vbEET_(ptr noundef nonnull align 8 dereferenceable(8) %8, ptr noundef %15) #3, !dbg !3860
  br label %17, !dbg !3863

17:                                               ; preds = %52, %16
  %18 = invoke noundef nonnull align 1 dereferenceable(1) ptr @_ZNKSt10unique_ptrIA_cSt14default_deleteIS0_EEixEm(ptr noundef nonnull align 8 dereferenceable(8) %8, i64 noundef 0)
          to label %19 unwind label %40, !dbg !3864

19:                                               ; preds = %17
  %20 = load i32, ptr %6, align 4, !dbg !3866
  %21 = sext i32 %20 to i64, !dbg !3866
  %22 = invoke noundef nonnull align 8 dereferenceable(16) ptr @_ZNSi4readEPcl(ptr noundef nonnull align 8 dereferenceable(16) %7, ptr noundef %18, i64 noundef %21)
          to label %23 unwind label %40, !dbg !3867

23:                                               ; preds = %19
  call void @llvm.dbg.declare(metadata ptr %11, metadata !3868, metadata !DIExpression()), !dbg !3869
  %24 = invoke noundef i64 @_ZNKSi6gcountEv(ptr noundef nonnull align 8 dereferenceable(16) %7)
          to label %25 unwind label %40, !dbg !3870

25:                                               ; preds = %23
  %26 = trunc i64 %24 to i32, !dbg !3871
  store i32 %26, ptr %11, align 4, !dbg !3869
  %27 = load i32, ptr %11, align 4, !dbg !3872
  %28 = icmp sgt i32 %27, 0, !dbg !3874
  br i1 %28, label %29, label %44, !dbg !3875

29:                                               ; preds = %25
  %30 = load ptr, ptr %4, align 8, !dbg !3876
  %31 = call noundef ptr @_ZNKSt19__shared_ptr_accessI12StreamSocketLN9__gnu_cxx12_Lock_policyE2ELb0ELb0EEptEv(ptr noundef nonnull align 1 dereferenceable(1) %30) #3, !dbg !3876
  %32 = invoke noundef nonnull align 1 dereferenceable(1) ptr @_ZNKSt10unique_ptrIA_cSt14default_deleteIS0_EEixEm(ptr noundef nonnull align 8 dereferenceable(8) %8, i64 noundef 0)
          to label %33 unwind label %40, !dbg !3877

33:                                               ; preds = %29
  %34 = load i32, ptr %11, align 4, !dbg !3878
  invoke void @_ZN12StreamSocket4sendEPKcib(ptr noundef nonnull align 8 dereferenceable(241) %31, ptr noundef %32, i32 noundef %34, i1 noundef zeroext true)
          to label %35 unwind label %40, !dbg !3879

35:                                               ; preds = %33
  br label %45, !dbg !3876

36:                                               ; preds = %3
  %37 = landingpad { ptr, i32 }
          cleanup, !dbg !3880
  %38 = extractvalue { ptr, i32 } %37, 0, !dbg !3880
  store ptr %38, ptr %9, align 8, !dbg !3880
  %39 = extractvalue { ptr, i32 } %37, 1, !dbg !3880
  store i32 %39, ptr %10, align 4, !dbg !3880
  br label %54, !dbg !3880

40:                                               ; preds = %46, %33, %29, %23, %19, %17
  %41 = landingpad { ptr, i32 }
          cleanup, !dbg !3881
  %42 = extractvalue { ptr, i32 } %41, 0, !dbg !3881
  store ptr %42, ptr %9, align 8, !dbg !3881
  %43 = extractvalue { ptr, i32 } %41, 1, !dbg !3881
  store i32 %43, ptr %10, align 4, !dbg !3881
  call void @_ZNSt10unique_ptrIA_cSt14default_deleteIS0_EED2Ev(ptr noundef nonnull align 8 dereferenceable(8) %8) #3, !dbg !3880
  br label %54, !dbg !3880

44:                                               ; preds = %25
  br label %53, !dbg !3882

45:                                               ; preds = %35
  br label %46, !dbg !3883

46:                                               ; preds = %45
  %47 = load ptr, ptr %7, align 8, !dbg !3884
  %48 = getelementptr i8, ptr %47, i64 -24, !dbg !3884
  %49 = load i64, ptr %48, align 8, !dbg !3884
  %50 = getelementptr inbounds i8, ptr %7, i64 %49, !dbg !3884
  %51 = invoke noundef zeroext i1 @_ZNKSt9basic_iosIcSt11char_traitsIcEEcvbEv(ptr noundef nonnull align 8 dereferenceable(264) %50)
          to label %52 unwind label %40, !dbg !3884

52:                                               ; preds = %46
  br i1 %51, label %17, label %53, !dbg !3883, !llvm.loop !3885

53:                                               ; preds = %52, %44
  call void @_ZNSt10unique_ptrIA_cSt14default_deleteIS0_EED2Ev(ptr noundef nonnull align 8 dereferenceable(8) %8) #3, !dbg !3880
  call void @_ZNSt14basic_ifstreamIcSt11char_traitsIcEED1Ev(ptr noundef nonnull align 8 dereferenceable(256) %7) #3, !dbg !3880
  ret void, !dbg !3880

54:                                               ; preds = %40, %36
  call void @_ZNSt14basic_ifstreamIcSt11char_traitsIcEED1Ev(ptr noundef nonnull align 8 dereferenceable(256) %7) #3, !dbg !3880
  br label %55, !dbg !3880

55:                                               ; preds = %54
  %56 = load ptr, ptr %9, align 8, !dbg !3880
  %57 = load i32, ptr %10, align 4, !dbg !3880
  %58 = insertvalue { ptr, i32 } poison, ptr %56, 0, !dbg !3880
  %59 = insertvalue { ptr, i32 } %58, i32 %57, 1, !dbg !3880
  resume { ptr, i32 } %59, !dbg !3880
}

declare void @_ZNSt14basic_ifstreamIcSt11char_traitsIcEEC1ERKNSt7__cxx1112basic_stringIcS1_SaIcEEESt13_Ios_Openmode(ptr noundef nonnull align 8 dereferenceable(256), ptr noundef nonnull align 8 dereferenceable(32), i32 noundef) unnamed_addr #1

; Function Attrs: nobuiltin allocsize(0)
declare noundef nonnull ptr @_Znam(i64 noundef) #8

; Function Attrs: noinline nounwind optnone uwtable
define linkonce_odr dso_local void @_ZNSt10unique_ptrIA_cSt14default_deleteIS0_EEC2IPcS2_vbEET_(ptr noundef nonnull align 8 dereferenceable(8) %0, ptr noundef %1) unnamed_addr #4 comdat align 2 personality ptr @__gxx_personality_v0 !dbg !3888 {
  %3 = alloca ptr, align 8
  %4 = alloca ptr, align 8
  store ptr %0, ptr %3, align 8
  call void @llvm.dbg.declare(metadata ptr %3, metadata !3897, metadata !DIExpression()), !dbg !3899
  store ptr %1, ptr %4, align 8
  call void @llvm.dbg.declare(metadata ptr %4, metadata !3900, metadata !DIExpression()), !dbg !3901
  %5 = load ptr, ptr %3, align 8
  %6 = getelementptr inbounds %"class.std::unique_ptr", ptr %5, i32 0, i32 0, !dbg !3902
  %7 = load ptr, ptr %4, align 8, !dbg !3903
  invoke void @_ZNSt15__uniq_ptr_dataIcSt14default_deleteIA_cELb1ELb1EECI2St15__uniq_ptr_implIcS2_EEPc(ptr noundef nonnull align 8 dereferenceable(8) %6, ptr noundef %7)
          to label %8 unwind label %9, !dbg !3902

8:                                                ; preds = %2
  ret void, !dbg !3904

9:                                                ; preds = %2
  %10 = landingpad { ptr, i32 }
          catch ptr null, !dbg !3902
  %11 = extractvalue { ptr, i32 } %10, 0, !dbg !3902
  call void @__clang_call_terminate(ptr %11) #17, !dbg !3902
  unreachable, !dbg !3902
}

declare noundef nonnull align 8 dereferenceable(16) ptr @_ZNSi4readEPcl(ptr noundef nonnull align 8 dereferenceable(16), ptr noundef, i64 noundef) #1

; Function Attrs: mustprogress noinline nounwind optnone uwtable
define linkonce_odr dso_local noundef nonnull align 1 dereferenceable(1) ptr @_ZNKSt10unique_ptrIA_cSt14default_deleteIS0_EEixEm(ptr noundef nonnull align 8 dereferenceable(8) %0, i64 noundef %1) #7 comdat align 2 !dbg !3905 {
  %3 = alloca ptr, align 8
  %4 = alloca i64, align 8
  store ptr %0, ptr %3, align 8
  call void @llvm.dbg.declare(metadata ptr %3, metadata !3906, metadata !DIExpression()), !dbg !3908
  store i64 %1, ptr %4, align 8
  call void @llvm.dbg.declare(metadata ptr %4, metadata !3909, metadata !DIExpression()), !dbg !3910
  %5 = load ptr, ptr %3, align 8
  br label %6, !dbg !3911

6:                                                ; preds = %2
  br label %7, !dbg !3912

7:                                                ; preds = %6
  %8 = call noundef ptr @_ZNKSt10unique_ptrIA_cSt14default_deleteIS0_EE3getEv(ptr noundef nonnull align 8 dereferenceable(8) %5) #3, !dbg !3914
  %9 = load i64, ptr %4, align 8, !dbg !3915
  %10 = getelementptr inbounds i8, ptr %8, i64 %9, !dbg !3914
  ret ptr %10, !dbg !3916
}

declare noundef i64 @_ZNKSi6gcountEv(ptr noundef nonnull align 8 dereferenceable(16)) #1

; Function Attrs: mustprogress noinline optnone uwtable
define linkonce_odr dso_local void @_ZN12StreamSocket4sendEPKcib(ptr noundef nonnull align 8 dereferenceable(241) %0, ptr noundef %1, i32 noundef %2, i1 noundef zeroext %3) #5 comdat align 2 !dbg !3917 {
  %5 = alloca ptr, align 8
  %6 = alloca ptr, align 8
  %7 = alloca i32, align 4
  %8 = alloca i8, align 1
  store ptr %0, ptr %5, align 8
  call void @llvm.dbg.declare(metadata ptr %5, metadata !3921, metadata !DIExpression()), !dbg !3922
  store ptr %1, ptr %6, align 8
  call void @llvm.dbg.declare(metadata ptr %6, metadata !3923, metadata !DIExpression()), !dbg !3924
  store i32 %2, ptr %7, align 4
  call void @llvm.dbg.declare(metadata ptr %7, metadata !3925, metadata !DIExpression()), !dbg !3926
  %9 = zext i1 %3 to i8
  store i8 %9, ptr %8, align 1
  call void @llvm.dbg.declare(metadata ptr %8, metadata !3927, metadata !DIExpression()), !dbg !3928
  %10 = load ptr, ptr %5, align 8
  call void @_ZN6Socket19assertCorrectThreadEPKci(ptr noundef nonnull align 8 dereferenceable(64) %10, ptr noundef @.str.28, i32 noundef 998), !dbg !3929
  %11 = load ptr, ptr %6, align 8, !dbg !3930
  %12 = icmp ne ptr %11, null, !dbg !3932
  br i1 %12, label %13, label %27, !dbg !3933

13:                                               ; preds = %4
  %14 = load i32, ptr %7, align 4, !dbg !3934
  %15 = icmp sgt i32 %14, 0, !dbg !3935
  br i1 %15, label %16, label %27, !dbg !3936

16:                                               ; preds = %13
  %17 = getelementptr inbounds %class.StreamSocket, ptr %10, i32 0, i32 5, !dbg !3937
  %18 = load ptr, ptr %6, align 8, !dbg !3939
  %19 = load i32, ptr %7, align 4, !dbg !3940
  call void @_ZN6Buffer6appendEPKci(ptr noundef nonnull align 8 dereferenceable(40) %17, ptr noundef %18, i32 noundef %19), !dbg !3941
  %20 = load i8, ptr %8, align 1, !dbg !3942
  %21 = trunc i8 %20 to i1, !dbg !3942
  br i1 %21, label %22, label %26, !dbg !3944

22:                                               ; preds = %16
  %23 = load ptr, ptr %10, align 8, !dbg !3945
  %24 = getelementptr inbounds ptr, ptr %23, i64 10, !dbg !3945
  %25 = load ptr, ptr %24, align 8, !dbg !3945
  call void %25(ptr noundef nonnull align 8 dereferenceable(241) %10), !dbg !3945
  br label %26, !dbg !3945

26:                                               ; preds = %22, %16
  br label %27, !dbg !3946

27:                                               ; preds = %26, %13, %4
  ret void, !dbg !3947
}

declare noundef zeroext i1 @_ZNKSt9basic_iosIcSt11char_traitsIcEEcvbEv(ptr noundef nonnull align 8 dereferenceable(264)) #1

; Function Attrs: noinline nounwind optnone uwtable
define linkonce_odr dso_local void @_ZNSt10unique_ptrIA_cSt14default_deleteIS0_EED2Ev(ptr noundef nonnull align 8 dereferenceable(8) %0) unnamed_addr #4 comdat align 2 personality ptr @__gxx_personality_v0 !dbg !3948 {
  %2 = alloca ptr, align 8
  %3 = alloca ptr, align 8
  store ptr %0, ptr %2, align 8
  call void @llvm.dbg.declare(metadata ptr %2, metadata !3949, metadata !DIExpression()), !dbg !3950
  %4 = load ptr, ptr %2, align 8
  call void @llvm.dbg.declare(metadata ptr %3, metadata !3951, metadata !DIExpression()), !dbg !3953
  %5 = getelementptr inbounds %"class.std::unique_ptr", ptr %4, i32 0, i32 0, !dbg !3954
  %6 = call noundef nonnull align 8 dereferenceable(8) ptr @_ZNSt15__uniq_ptr_implIcSt14default_deleteIA_cEE6_M_ptrEv(ptr noundef nonnull align 8 dereferenceable(8) %5), !dbg !3955
  store ptr %6, ptr %3, align 8, !dbg !3953
  %7 = load ptr, ptr %3, align 8, !dbg !3956
  %8 = load ptr, ptr %7, align 8, !dbg !3956
  %9 = icmp ne ptr %8, null, !dbg !3958
  br i1 %9, label %10, label %15, !dbg !3959

10:                                               ; preds = %1
  %11 = call noundef nonnull align 1 dereferenceable(1) ptr @_ZNSt10unique_ptrIA_cSt14default_deleteIS0_EE11get_deleterEv(ptr noundef nonnull align 8 dereferenceable(8) %4) #3, !dbg !3960
  %12 = load ptr, ptr %3, align 8, !dbg !3961
  %13 = load ptr, ptr %12, align 8, !dbg !3961
  invoke void @_ZNKSt14default_deleteIA_cEclIcEENSt9enable_ifIXsr14is_convertibleIPA_T_PS0_EE5valueEvE4typeEPS4_(ptr noundef nonnull align 1 dereferenceable(1) %11, ptr noundef %13)
          to label %14 unwind label %17, !dbg !3960

14:                                               ; preds = %10
  br label %15, !dbg !3960

15:                                               ; preds = %14, %1
  %16 = load ptr, ptr %3, align 8, !dbg !3962
  store ptr null, ptr %16, align 8, !dbg !3963
  ret void, !dbg !3964

17:                                               ; preds = %10
  %18 = landingpad { ptr, i32 }
          catch ptr null, !dbg !3960
  %19 = extractvalue { ptr, i32 } %18, 0, !dbg !3960
  call void @__clang_call_terminate(ptr %19) #17, !dbg !3960
  unreachable, !dbg !3960
}

; Function Attrs: nounwind
declare void @_ZNSt14basic_ifstreamIcSt11char_traitsIcEED1Ev(ptr noundef nonnull align 8 dereferenceable(256)) unnamed_addr #2

; Function Attrs: mustprogress noinline optnone uwtable
define dso_local void @_ZN10HttpHelper23sendDeflatedFileContentERKSt10shared_ptrI12StreamSocketERKNSt7__cxx1112basic_stringIcSt11char_traitsIcESaIcEEEi(ptr noundef nonnull align 8 dereferenceable(16) %0, ptr noundef nonnull align 8 dereferenceable(32) %1, i32 noundef %2) #5 personality ptr @__gxx_personality_v0 !dbg !53 {
  %4 = alloca ptr, align 8
  %5 = alloca ptr, align 8
  %6 = alloca i32, align 4
  %7 = alloca %"class.std::basic_ifstream", align 8
  %8 = alloca %"class.std::unique_ptr", align 8
  %9 = alloca ptr, align 8
  %10 = alloca i32, align 4
  %11 = alloca i64, align 8
  %12 = alloca i64, align 8
  %13 = alloca %"class.std::unique_ptr", align 8
  store ptr %0, ptr %4, align 8
  call void @llvm.dbg.declare(metadata ptr %4, metadata !3965, metadata !DIExpression()), !dbg !3966
  store ptr %1, ptr %5, align 8
  call void @llvm.dbg.declare(metadata ptr %5, metadata !3967, metadata !DIExpression()), !dbg !3968
  store i32 %2, ptr %6, align 4
  call void @llvm.dbg.declare(metadata ptr %6, metadata !3969, metadata !DIExpression()), !dbg !3970
  %14 = load i32, ptr %6, align 4, !dbg !3971
  %15 = icmp sgt i32 %14, 0, !dbg !3973
  br i1 %15, label %16, label %68, !dbg !3974

16:                                               ; preds = %3
  call void @llvm.dbg.declare(metadata ptr %7, metadata !3975, metadata !DIExpression()), !dbg !3977
  %17 = load ptr, ptr %5, align 8, !dbg !3978
  call void @_ZNSt14basic_ifstreamIcSt11char_traitsIcEEC1ERKNSt7__cxx1112basic_stringIcS1_SaIcEEESt13_Ios_Openmode(ptr noundef nonnull align 8 dereferenceable(256) %7, ptr noundef nonnull align 8 dereferenceable(32) %17, i32 noundef 4), !dbg !3977
  call void @llvm.dbg.declare(metadata ptr %8, metadata !3979, metadata !DIExpression()), !dbg !3980
  %18 = load i32, ptr %6, align 4, !dbg !3981
  %19 = sext i32 %18 to i64, !dbg !3981
  %20 = invoke noalias noundef nonnull ptr @_Znam(i64 noundef %19) #16
          to label %21 unwind label %53, !dbg !3982, !heapallocsite !23

21:                                               ; preds = %16
  call void @_ZNSt10unique_ptrIA_cSt14default_deleteIS0_EEC2IPcS2_vbEET_(ptr noundef nonnull align 8 dereferenceable(8) %8, ptr noundef %20) #3, !dbg !3980
  %22 = invoke noundef nonnull align 1 dereferenceable(1) ptr @_ZNKSt10unique_ptrIA_cSt14default_deleteIS0_EEixEm(ptr noundef nonnull align 8 dereferenceable(8) %8, i64 noundef 0)
          to label %23 unwind label %57, !dbg !3983

23:                                               ; preds = %21
  %24 = load i32, ptr %6, align 4, !dbg !3984
  %25 = sext i32 %24 to i64, !dbg !3984
  %26 = invoke noundef nonnull align 8 dereferenceable(16) ptr @_ZNSi4readEPcl(ptr noundef nonnull align 8 dereferenceable(16) %7, ptr noundef %22, i64 noundef %25)
          to label %27 unwind label %57, !dbg !3985

27:                                               ; preds = %23
  call void @llvm.dbg.declare(metadata ptr %11, metadata !3986, metadata !DIExpression()), !dbg !3988
  %28 = invoke noundef i64 @_ZNKSi6gcountEv(ptr noundef nonnull align 8 dereferenceable(16) %7)
          to label %29 unwind label %57, !dbg !3989

29:                                               ; preds = %27
  store i64 %28, ptr %11, align 8, !dbg !3988
  call void @llvm.dbg.declare(metadata ptr %12, metadata !3990, metadata !DIExpression()), !dbg !3991
  %30 = load i64, ptr %11, align 8, !dbg !3992
  %31 = invoke i64 @compressBound(i64 noundef %30)
          to label %32 unwind label %57, !dbg !3993

32:                                               ; preds = %29
  store i64 %31, ptr %12, align 8, !dbg !3991
  call void @llvm.dbg.declare(metadata ptr %13, metadata !3994, metadata !DIExpression()), !dbg !3995
  %33 = load i64, ptr %12, align 8, !dbg !3996
  %34 = invoke noalias noundef nonnull ptr @_Znam(i64 noundef %33) #16
          to label %35 unwind label %57, !dbg !3997, !heapallocsite !23

35:                                               ; preds = %32
  call void @_ZNSt10unique_ptrIA_cSt14default_deleteIS0_EEC2IPcS2_vbEET_(ptr noundef nonnull align 8 dereferenceable(8) %13, ptr noundef %34) #3, !dbg !3995
  %36 = invoke noundef nonnull align 1 dereferenceable(1) ptr @_ZNKSt10unique_ptrIA_cSt14default_deleteIS0_EEixEm(ptr noundef nonnull align 8 dereferenceable(8) %13, i64 noundef 0)
          to label %37 unwind label %61, !dbg !3998

37:                                               ; preds = %35
  %38 = invoke noundef nonnull align 1 dereferenceable(1) ptr @_ZNKSt10unique_ptrIA_cSt14default_deleteIS0_EEixEm(ptr noundef nonnull align 8 dereferenceable(8) %8, i64 noundef 0)
          to label %39 unwind label %61, !dbg !3999

39:                                               ; preds = %37
  %40 = load i64, ptr %11, align 8, !dbg !4000
  %41 = invoke i32 @compress2(ptr noundef %36, ptr noundef %12, ptr noundef %38, i64 noundef %40, i32 noundef 1)
          to label %42 unwind label %61, !dbg !4001

42:                                               ; preds = %39
  %43 = load i64, ptr %11, align 8, !dbg !4002
  %44 = icmp ugt i64 %43, 0, !dbg !4004
  br i1 %44, label %45, label %65, !dbg !4005

45:                                               ; preds = %42
  %46 = load ptr, ptr %4, align 8, !dbg !4006
  %47 = call noundef ptr @_ZNKSt19__shared_ptr_accessI12StreamSocketLN9__gnu_cxx12_Lock_policyE2ELb0ELb0EEptEv(ptr noundef nonnull align 1 dereferenceable(1) %46) #3, !dbg !4006
  %48 = invoke noundef nonnull align 1 dereferenceable(1) ptr @_ZNKSt10unique_ptrIA_cSt14default_deleteIS0_EEixEm(ptr noundef nonnull align 8 dereferenceable(8) %13, i64 noundef 0)
          to label %49 unwind label %61, !dbg !4007

49:                                               ; preds = %45
  %50 = load i64, ptr %12, align 8, !dbg !4008
  %51 = trunc i64 %50 to i32, !dbg !4008
  invoke void @_ZN12StreamSocket4sendEPKcib(ptr noundef nonnull align 8 dereferenceable(241) %47, ptr noundef %48, i32 noundef %51, i1 noundef zeroext true)
          to label %52 unwind label %61, !dbg !4009

52:                                               ; preds = %49
  br label %65, !dbg !4006

53:                                               ; preds = %16
  %54 = landingpad { ptr, i32 }
          cleanup, !dbg !4010
  %55 = extractvalue { ptr, i32 } %54, 0, !dbg !4010
  store ptr %55, ptr %9, align 8, !dbg !4010
  %56 = extractvalue { ptr, i32 } %54, 1, !dbg !4010
  store i32 %56, ptr %10, align 4, !dbg !4010
  br label %67, !dbg !4010

57:                                               ; preds = %32, %29, %27, %23, %21
  %58 = landingpad { ptr, i32 }
          cleanup, !dbg !4010
  %59 = extractvalue { ptr, i32 } %58, 0, !dbg !4010
  store ptr %59, ptr %9, align 8, !dbg !4010
  %60 = extractvalue { ptr, i32 } %58, 1, !dbg !4010
  store i32 %60, ptr %10, align 4, !dbg !4010
  br label %66, !dbg !4010

61:                                               ; preds = %49, %45, %39, %37, %35
  %62 = landingpad { ptr, i32 }
          cleanup, !dbg !4010
  %63 = extractvalue { ptr, i32 } %62, 0, !dbg !4010
  store ptr %63, ptr %9, align 8, !dbg !4010
  %64 = extractvalue { ptr, i32 } %62, 1, !dbg !4010
  store i32 %64, ptr %10, align 4, !dbg !4010
  call void @_ZNSt10unique_ptrIA_cSt14default_deleteIS0_EED2Ev(ptr noundef nonnull align 8 dereferenceable(8) %13) #3, !dbg !4011
  br label %66, !dbg !4011

65:                                               ; preds = %52, %42
  call void @_ZNSt10unique_ptrIA_cSt14default_deleteIS0_EED2Ev(ptr noundef nonnull align 8 dereferenceable(8) %13) #3, !dbg !4011
  call void @_ZNSt10unique_ptrIA_cSt14default_deleteIS0_EED2Ev(ptr noundef nonnull align 8 dereferenceable(8) %8) #3, !dbg !4011
  call void @_ZNSt14basic_ifstreamIcSt11char_traitsIcEED1Ev(ptr noundef nonnull align 8 dereferenceable(256) %7) #3, !dbg !4011
  br label %68, !dbg !4012

66:                                               ; preds = %61, %57
  call void @_ZNSt10unique_ptrIA_cSt14default_deleteIS0_EED2Ev(ptr noundef nonnull align 8 dereferenceable(8) %8) #3, !dbg !4011
  br label %67, !dbg !4011

67:                                               ; preds = %66, %53
  call void @_ZNSt14basic_ifstreamIcSt11char_traitsIcEED1Ev(ptr noundef nonnull align 8 dereferenceable(256) %7) #3, !dbg !4011
  br label %69, !dbg !4011

68:                                               ; preds = %65, %3
  ret void, !dbg !4013

69:                                               ; preds = %67
  %70 = load ptr, ptr %9, align 8, !dbg !4011
  %71 = load i32, ptr %10, align 4, !dbg !4011
  %72 = insertvalue { ptr, i32 } poison, ptr %70, 0, !dbg !4011
  %73 = insertvalue { ptr, i32 } %72, i32 %71, 1, !dbg !4011
  resume { ptr, i32 } %73, !dbg !4011
}

declare i64 @compressBound(i64 noundef) #1

declare i32 @compress2(ptr noundef, ptr noundef, ptr noundef, i64 noundef, i32 noundef) #1

; Function Attrs: mustprogress noinline optnone uwtable
define dso_local void @_ZN10HttpHelper19sendFileAndShutdownERKSt10shared_ptrI12StreamSocketERKNSt7__cxx1112basic_stringIcSt11char_traitsIcESaIcEEESC_PN4Poco3Net12HTTPResponseEbbb(ptr noundef nonnull align 8 dereferenceable(16) %0, ptr noundef nonnull align 8 dereferenceable(32) %1, ptr noundef nonnull align 8 dereferenceable(32) %2, ptr noundef %3, i1 noundef zeroext %4, i1 noundef zeroext %5, i1 noundef zeroext %6) #5 personality ptr @__gxx_personality_v0 !dbg !4014 {
  %8 = alloca ptr, align 8
  %9 = alloca ptr, align 8
  %10 = alloca ptr, align 8
  %11 = alloca ptr, align 8
  %12 = alloca i8, align 1
  %13 = alloca i8, align 1
  %14 = alloca i8, align 1
  %15 = alloca ptr, align 8
  %16 = alloca %"class.Poco::Net::HTTPResponse", align 8
  %17 = alloca %"class.FileUtil::Stat", align 8
  %18 = alloca ptr, align 8
  %19 = alloca i32, align 4
  %20 = alloca ptr, align 8
  %21 = alloca [1024 x i8], align 16
  %22 = alloca %"class.std::__cxx11::basic_ostringstream", align 8
  %23 = alloca %"class.std::__cxx11::basic_string", align 8
  %24 = alloca %"class.std::allocator", align 1
  %25 = alloca %"class.Poco::Message", align 8
  %26 = alloca %"class.std::__cxx11::basic_string", align 8
  %27 = alloca %"class.std::__cxx11::basic_string", align 8
  %28 = alloca %"class.std::__cxx11::basic_string", align 8
  %29 = alloca i1, align 1
  %30 = alloca %"class.std::__cxx11::basic_string", align 8
  %31 = alloca %"class.std::allocator", align 1
  %32 = alloca %"class.std::__cxx11::basic_string", align 8
  %33 = alloca %"class.std::allocator", align 1
  %34 = alloca %"class.std::__cxx11::basic_string", align 8
  %35 = alloca %"class.std::allocator", align 1
  %36 = alloca %"class.std::__cxx11::basic_string", align 8
  %37 = alloca %"class.std::allocator", align 1
  %38 = alloca %"class.std::__cxx11::basic_string", align 8
  %39 = alloca %"class.std::allocator", align 1
  %40 = alloca %"class.std::__cxx11::basic_string", align 8
  %41 = alloca %"class.std::allocator", align 1
  %42 = alloca %"class.std::__cxx11::basic_string", align 8
  %43 = alloca %"class.std::allocator", align 1
  %44 = alloca %"class.std::__cxx11::basic_string", align 8
  %45 = alloca %"class.std::allocator", align 1
  %46 = alloca i32, align 4
  %47 = alloca i64, align 8
  %48 = alloca i64, align 8
  %49 = alloca ptr, align 8
  %50 = alloca [1024 x i8], align 16
  %51 = alloca %"class.std::__cxx11::basic_ostringstream", align 8
  %52 = alloca %"class.std::__cxx11::basic_string", align 8
  %53 = alloca %"class.std::allocator", align 1
  %54 = alloca %"class.Poco::Message", align 8
  %55 = alloca %"class.std::__cxx11::basic_string", align 8
  %56 = alloca %"class.std::__cxx11::basic_string", align 8
  %57 = alloca %"class.std::allocator", align 1
  %58 = alloca %"class.std::__cxx11::basic_string", align 8
  %59 = alloca %"class.std::allocator", align 1
  %60 = alloca ptr, align 8
  %61 = alloca [1024 x i8], align 16
  %62 = alloca %"class.std::__cxx11::basic_ostringstream", align 8
  %63 = alloca %"class.std::__cxx11::basic_string", align 8
  %64 = alloca %"class.std::allocator", align 1
  %65 = alloca %"class.Poco::Message", align 8
  %66 = alloca %"class.std::__cxx11::basic_string", align 8
  store ptr %0, ptr %8, align 8
  call void @llvm.dbg.declare(metadata ptr %8, metadata !4021, metadata !DIExpression()), !dbg !4022
  store ptr %1, ptr %9, align 8
  call void @llvm.dbg.declare(metadata ptr %9, metadata !4023, metadata !DIExpression()), !dbg !4024
  store ptr %2, ptr %10, align 8
  call void @llvm.dbg.declare(metadata ptr %10, metadata !4025, metadata !DIExpression()), !dbg !4026
  store ptr %3, ptr %11, align 8
  call void @llvm.dbg.declare(metadata ptr %11, metadata !4027, metadata !DIExpression()), !dbg !4028
  %67 = zext i1 %4 to i8
  store i8 %67, ptr %12, align 1
  call void @llvm.dbg.declare(metadata ptr %12, metadata !4029, metadata !DIExpression()), !dbg !4030
  %68 = zext i1 %5 to i8
  store i8 %68, ptr %13, align 1
  call void @llvm.dbg.declare(metadata ptr %13, metadata !4031, metadata !DIExpression()), !dbg !4032
  %69 = zext i1 %6 to i8
  store i8 %69, ptr %14, align 1
  call void @llvm.dbg.declare(metadata ptr %14, metadata !4033, metadata !DIExpression()), !dbg !4034
  call void @llvm.dbg.declare(metadata ptr %15, metadata !4035, metadata !DIExpression()), !dbg !4036
  %70 = load ptr, ptr %11, align 8, !dbg !4037
  store ptr %70, ptr %15, align 8, !dbg !4036
  call void @llvm.dbg.declare(metadata ptr %16, metadata !4038, metadata !DIExpression()), !dbg !4039
  call void @_ZN4Poco3Net12HTTPResponseC1Ev(ptr noundef nonnull align 8 dereferenceable(112) %16), !dbg !4039
  %71 = load ptr, ptr %15, align 8, !dbg !4040
  %72 = icmp ne ptr %71, null, !dbg !4040
  br i1 %72, label %74, label %73, !dbg !4042

73:                                               ; preds = %7
  store ptr %16, ptr %15, align 8, !dbg !4043
  br label %74, !dbg !4044

74:                                               ; preds = %73, %7
  call void @llvm.dbg.declare(metadata ptr %17, metadata !4045, metadata !DIExpression()), !dbg !4046
  %75 = load ptr, ptr %9, align 8, !dbg !4047
  invoke void @_ZN8FileUtil4StatC2ERKNSt7__cxx1112basic_stringIcSt11char_traitsIcESaIcEEEb(ptr noundef nonnull align 8 dereferenceable(184) %17, ptr noundef nonnull align 8 dereferenceable(32) %75, i1 noundef zeroext false)
          to label %76 unwind label %135, !dbg !4046

76:                                               ; preds = %74
  %77 = invoke noundef zeroext i1 @_ZNK8FileUtil4Stat3badEv(ptr noundef nonnull align 8 dereferenceable(184) %17)
          to label %78 unwind label %139, !dbg !4048

78:                                               ; preds = %76
  br i1 %77, label %79, label %191, !dbg !4050

79:                                               ; preds = %78
  br label %80, !dbg !4051

80:                                               ; preds = %79
  call void @llvm.dbg.declare(metadata ptr %20, metadata !4053, metadata !DIExpression()), !dbg !4058
  %81 = invoke noundef nonnull align 8 dereferenceable(68) ptr @_ZN3Log6loggerEv()
          to label %82 unwind label %139, !dbg !4058

82:                                               ; preds = %80
  store ptr %81, ptr %20, align 8, !dbg !4058
  %83 = invoke noundef zeroext i1 @_ZN3Log16isShutdownCalledEv()
          to label %84 unwind label %139, !dbg !4059

84:                                               ; preds = %82
  br i1 %83, label %166, label %85, !dbg !4059

85:                                               ; preds = %84
  %86 = load ptr, ptr %20, align 8, !dbg !4059
  %87 = invoke noundef zeroext i1 @_ZNK4Poco6Logger7warningEv(ptr noundef nonnull align 8 dereferenceable(68) %86)
          to label %88 unwind label %139, !dbg !4059

88:                                               ; preds = %85
  br i1 %87, label %89, label %166, !dbg !4058

89:                                               ; preds = %88
  call void @llvm.dbg.declare(metadata ptr %21, metadata !4061, metadata !DIExpression()), !dbg !4066
  call void @llvm.dbg.declare(metadata ptr %22, metadata !4067, metadata !DIExpression()), !dbg !4066
  %90 = getelementptr inbounds [1024 x i8], ptr %21, i64 0, i64 0, !dbg !4066
  %91 = invoke noundef ptr @_ZN3Log6prefixILi1023EEEPcS1_PKc(ptr noundef %90, ptr noundef @.str.7)
          to label %92 unwind label %139, !dbg !4066

92:                                               ; preds = %89
  call void @_ZNSaIcEC1Ev(ptr noundef nonnull align 1 dereferenceable(1) %24) #3, !dbg !4066
  invoke void @_ZNSt7__cxx1112basic_stringIcSt11char_traitsIcESaIcEEC2IS3_EEPKcRKS3_(ptr noundef nonnull align 8 dereferenceable(32) %23, ptr noundef %91, ptr noundef nonnull align 1 dereferenceable(1) %24)
          to label %93 unwind label %143, !dbg !4066

93:                                               ; preds = %92
  invoke void @_ZNSt7__cxx1119basic_ostringstreamIcSt11char_traitsIcESaIcEEC1ERKNS_12basic_stringIcS2_S3_EESt13_Ios_Openmode(ptr noundef nonnull align 8 dereferenceable(112) %22, ptr noundef nonnull align 8 dereferenceable(32) %23, i32 noundef 2)
          to label %94 unwind label %147, !dbg !4066

94:                                               ; preds = %93
  call void @_ZNSt7__cxx1112basic_stringIcSt11char_traitsIcESaIcEED1Ev(ptr noundef nonnull align 8 dereferenceable(32) %23) #3, !dbg !4066
  call void @_ZNSaIcED1Ev(ptr noundef nonnull align 1 dereferenceable(1) %24) #3, !dbg !4066
  %95 = invoke noundef nonnull align 8 dereferenceable(8) ptr @_ZNSolsEPFRSt8ios_baseS0_E(ptr noundef nonnull align 8 dereferenceable(8) %22, ptr noundef @_ZSt9boolalphaRSt8ios_base)
          to label %96 unwind label %152, !dbg !4066

96:                                               ; preds = %94
  %97 = invoke noundef nonnull align 8 dereferenceable(8) ptr @_ZStlsISt11char_traitsIcEERSt13basic_ostreamIcT_ES5_c(ptr noundef nonnull align 8 dereferenceable(8) %95, i8 noundef signext 35)
          to label %98 unwind label %152, !dbg !4066

98:                                               ; preds = %96
  %99 = load ptr, ptr %8, align 8, !dbg !4066
  %100 = call noundef ptr @_ZNKSt19__shared_ptr_accessI12StreamSocketLN9__gnu_cxx12_Lock_policyE2ELb0ELb0EEptEv(ptr noundef nonnull align 1 dereferenceable(1) %99) #3, !dbg !4066
  %101 = invoke noundef i32 @_ZNK6Socket5getFDEv(ptr noundef nonnull align 8 dereferenceable(64) %100)
          to label %102 unwind label %152, !dbg !4066

102:                                              ; preds = %98
  %103 = invoke noundef nonnull align 8 dereferenceable(8) ptr @_ZNSolsEi(ptr noundef nonnull align 8 dereferenceable(8) %97, i32 noundef %101)
          to label %104 unwind label %152, !dbg !4066

104:                                              ; preds = %102
  %105 = invoke noundef nonnull align 8 dereferenceable(8) ptr @_ZStlsISt11char_traitsIcEERSt13basic_ostreamIcT_ES5_PKc(ptr noundef nonnull align 8 dereferenceable(8) %103, ptr noundef @.str.8)
          to label %106 unwind label %152, !dbg !4066

106:                                              ; preds = %104
  %107 = load ptr, ptr %9, align 8, !dbg !4066
  %108 = invoke noundef nonnull align 8 dereferenceable(8) ptr @_ZStlsIcSt11char_traitsIcESaIcEERSt13basic_ostreamIT_T0_ES7_RKNSt7__cxx1112basic_stringIS4_S5_T1_EE(ptr noundef nonnull align 8 dereferenceable(8) %105, ptr noundef nonnull align 8 dereferenceable(32) %107)
          to label %109 unwind label %152, !dbg !4066

109:                                              ; preds = %106
  %110 = invoke noundef nonnull align 8 dereferenceable(8) ptr @_ZStlsISt11char_traitsIcEERSt13basic_ostreamIcT_ES5_PKc(ptr noundef nonnull align 8 dereferenceable(8) %108, ptr noundef @.str.9)
          to label %111 unwind label %152, !dbg !4066

111:                                              ; preds = %109
  br label %112, !dbg !4066

112:                                              ; preds = %111
  %113 = invoke noundef nonnull align 8 dereferenceable(8) ptr @_ZStlsISt11char_traitsIcEERSt13basic_ostreamIcT_ES5_PKc(ptr noundef nonnull align 8 dereferenceable(8) %22, ptr noundef @.str.10)
          to label %114 unwind label %152, !dbg !4068

114:                                              ; preds = %112
  %115 = invoke noundef nonnull align 8 dereferenceable(8) ptr @_ZStlsISt11char_traitsIcEERSt13basic_ostreamIcT_ES5_PKc(ptr noundef nonnull align 8 dereferenceable(8) %113, ptr noundef @.str.11)
          to label %116 unwind label %152, !dbg !4068

116:                                              ; preds = %114
  %117 = invoke noundef nonnull align 8 dereferenceable(8) ptr @_ZStlsISt11char_traitsIcEERSt13basic_ostreamIcT_ES5_c(ptr noundef nonnull align 8 dereferenceable(8) %115, i8 noundef signext 58)
          to label %118 unwind label %152, !dbg !4068

118:                                              ; preds = %116
  %119 = invoke noundef nonnull align 8 dereferenceable(8) ptr @_ZNSolsEi(ptr noundef nonnull align 8 dereferenceable(8) %117, i32 noundef 99)
          to label %120 unwind label %152, !dbg !4068

120:                                              ; preds = %118
  %121 = invoke noundef nonnull align 8 dereferenceable(8) ptr @_ZNSo5flushEv(ptr noundef nonnull align 8 dereferenceable(8) %22)
          to label %122 unwind label %152, !dbg !4071

122:                                              ; preds = %120
  br label %123, !dbg !4071

123:                                              ; preds = %122
  br label %124, !dbg !4071

124:                                              ; preds = %123
  %125 = load ptr, ptr %20, align 8, !dbg !4066
  %126 = load ptr, ptr %20, align 8, !dbg !4066
  %127 = invoke noundef nonnull align 8 dereferenceable(32) ptr @_ZNK4Poco6Logger4nameB5cxx11Ev(ptr noundef nonnull align 8 dereferenceable(68) %126)
          to label %128 unwind label %152, !dbg !4066

128:                                              ; preds = %124
  invoke void @_ZNKSt7__cxx1119basic_ostringstreamIcSt11char_traitsIcESaIcEE3strEv(ptr sret(%"class.std::__cxx11::basic_string") align 8 %26, ptr noundef nonnull align 8 dereferenceable(112) %22)
          to label %129 unwind label %152, !dbg !4066

129:                                              ; preds = %128
  invoke void @_ZN4Poco7MessageC1ERKNSt7__cxx1112basic_stringIcSt11char_traitsIcESaIcEEES8_NS0_8PriorityE(ptr noundef nonnull align 8 dereferenceable(152) %25, ptr noundef nonnull align 8 dereferenceable(32) %127, ptr noundef nonnull align 8 dereferenceable(32) %26, i32 noundef 4)
          to label %130 unwind label %156, !dbg !4066

130:                                              ; preds = %129
  %131 = load ptr, ptr %125, align 8, !dbg !4066
  %132 = getelementptr inbounds ptr, ptr %131, i64 6, !dbg !4066
  %133 = load ptr, ptr %132, align 8, !dbg !4066
  invoke void %133(ptr noundef nonnull align 8 dereferenceable(68) %125, ptr noundef nonnull align 8 dereferenceable(152) %25)
          to label %134 unwind label %160, !dbg !4066

134:                                              ; preds = %130
  call void @_ZN4Poco7MessageD1Ev(ptr noundef nonnull align 8 dereferenceable(152) %25) #3, !dbg !4066
  call void @_ZNSt7__cxx1112basic_stringIcSt11char_traitsIcESaIcEED1Ev(ptr noundef nonnull align 8 dereferenceable(32) %26) #3, !dbg !4066
  call void @_ZNSt7__cxx1119basic_ostringstreamIcSt11char_traitsIcESaIcEED1Ev(ptr noundef nonnull align 8 dereferenceable(112) %22) #3, !dbg !4059
  br label %166, !dbg !4066

135:                                              ; preds = %74
  %136 = landingpad { ptr, i32 }
          cleanup, !dbg !4072
  %137 = extractvalue { ptr, i32 } %136, 0, !dbg !4072
  store ptr %137, ptr %18, align 8, !dbg !4072
  %138 = extractvalue { ptr, i32 } %136, 1, !dbg !4072
  store i32 %138, ptr %19, align 4, !dbg !4072
  br label %536, !dbg !4072

139:                                              ; preds = %528, %524, %520, %513, %420, %416, %413, %411, %400, %393, %314, %310, %307, %305, %303, %300, %277, %272, %265, %261, %259, %257, %250, %89, %85, %82, %80, %76
  %140 = landingpad { ptr, i32 }
          cleanup, !dbg !4073
  %141 = extractvalue { ptr, i32 } %140, 0, !dbg !4073
  store ptr %141, ptr %18, align 8, !dbg !4073
  %142 = extractvalue { ptr, i32 } %140, 1, !dbg !4073
  store i32 %142, ptr %19, align 4, !dbg !4073
  br label %535, !dbg !4073

143:                                              ; preds = %92
  %144 = landingpad { ptr, i32 }
          cleanup, !dbg !4074
  %145 = extractvalue { ptr, i32 } %144, 0, !dbg !4074
  store ptr %145, ptr %18, align 8, !dbg !4074
  %146 = extractvalue { ptr, i32 } %144, 1, !dbg !4074
  store i32 %146, ptr %19, align 4, !dbg !4074
  br label %151, !dbg !4074

147:                                              ; preds = %93
  %148 = landingpad { ptr, i32 }
          cleanup, !dbg !4074
  %149 = extractvalue { ptr, i32 } %148, 0, !dbg !4074
  store ptr %149, ptr %18, align 8, !dbg !4074
  %150 = extractvalue { ptr, i32 } %148, 1, !dbg !4074
  store i32 %150, ptr %19, align 4, !dbg !4074
  call void @_ZNSt7__cxx1112basic_stringIcSt11char_traitsIcESaIcEED1Ev(ptr noundef nonnull align 8 dereferenceable(32) %23) #3, !dbg !4066
  br label %151, !dbg !4066

151:                                              ; preds = %147, %143
  call void @_ZNSaIcED1Ev(ptr noundef nonnull align 1 dereferenceable(1) %24) #3, !dbg !4066
  br label %535, !dbg !4066

152:                                              ; preds = %128, %124, %120, %118, %116, %114, %112, %109, %106, %104, %102, %98, %96, %94
  %153 = landingpad { ptr, i32 }
          cleanup, !dbg !4074
  %154 = extractvalue { ptr, i32 } %153, 0, !dbg !4074
  store ptr %154, ptr %18, align 8, !dbg !4074
  %155 = extractvalue { ptr, i32 } %153, 1, !dbg !4074
  store i32 %155, ptr %19, align 4, !dbg !4074
  br label %165, !dbg !4074

156:                                              ; preds = %129
  %157 = landingpad { ptr, i32 }
          cleanup, !dbg !4074
  %158 = extractvalue { ptr, i32 } %157, 0, !dbg !4074
  store ptr %158, ptr %18, align 8, !dbg !4074
  %159 = extractvalue { ptr, i32 } %157, 1, !dbg !4074
  store i32 %159, ptr %19, align 4, !dbg !4074
  br label %164, !dbg !4074

160:                                              ; preds = %130
  %161 = landingpad { ptr, i32 }
          cleanup, !dbg !4074
  %162 = extractvalue { ptr, i32 } %161, 0, !dbg !4074
  store ptr %162, ptr %18, align 8, !dbg !4074
  %163 = extractvalue { ptr, i32 } %161, 1, !dbg !4074
  store i32 %163, ptr %19, align 4, !dbg !4074
  call void @_ZN4Poco7MessageD1Ev(ptr noundef nonnull align 8 dereferenceable(152) %25) #3, !dbg !4066
  br label %164, !dbg !4066

164:                                              ; preds = %160, %156
  call void @_ZNSt7__cxx1112basic_stringIcSt11char_traitsIcESaIcEED1Ev(ptr noundef nonnull align 8 dereferenceable(32) %26) #3, !dbg !4066
  br label %165, !dbg !4066

165:                                              ; preds = %164, %152
  call void @_ZNSt7__cxx1119basic_ostringstreamIcSt11char_traitsIcESaIcEED1Ev(ptr noundef nonnull align 8 dereferenceable(112) %22) #3, !dbg !4059
  br label %535, !dbg !4059

166:                                              ; preds = %134, %88, %84
  br label %167, !dbg !4058

167:                                              ; preds = %166
  br label %168, !dbg !4058

168:                                              ; preds = %167
  store i1 true, ptr %29, align 1
  %169 = call ptr @__cxa_allocate_exception(i64 56) #3, !dbg !4075
  %170 = load ptr, ptr %9, align 8, !dbg !4076
  invoke void @_ZStplIcSt11char_traitsIcESaIcEENSt7__cxx1112basic_stringIT_T0_T1_EEPKS5_RKS8_(ptr sret(%"class.std::__cxx11::basic_string") align 8 %28, ptr noundef @.str.12, ptr noundef nonnull align 8 dereferenceable(32) %170)
          to label %171 unwind label %174, !dbg !4077

171:                                              ; preds = %168
  invoke void @_ZStplIcSt11char_traitsIcESaIcEENSt7__cxx1112basic_stringIT_T0_T1_EEOS8_PKS5_(ptr sret(%"class.std::__cxx11::basic_string") align 8 %27, ptr noundef nonnull align 8 dereferenceable(32) %28, ptr noundef @.str.9)
          to label %172 unwind label %178, !dbg !4078

172:                                              ; preds = %171
  invoke void @_ZN4Poco21FileNotFoundExceptionC1ERKNSt7__cxx1112basic_stringIcSt11char_traitsIcESaIcEEEi(ptr noundef nonnull align 8 dereferenceable(52) %169, ptr noundef nonnull align 8 dereferenceable(32) %27, i32 noundef 0)
          to label %173 unwind label %182, !dbg !4079

173:                                              ; preds = %172
  store i1 false, ptr %29, align 1, !dbg !4075
  invoke void @__cxa_throw(ptr %169, ptr @_ZTIN4Poco21FileNotFoundExceptionE, ptr @_ZN4Poco21FileNotFoundExceptionD1Ev) #18
          to label %542 unwind label %182, !dbg !4075

174:                                              ; preds = %168
  %175 = landingpad { ptr, i32 }
          cleanup, !dbg !4080
  %176 = extractvalue { ptr, i32 } %175, 0, !dbg !4080
  store ptr %176, ptr %18, align 8, !dbg !4080
  %177 = extractvalue { ptr, i32 } %175, 1, !dbg !4080
  store i32 %177, ptr %19, align 4, !dbg !4080
  br label %187, !dbg !4080

178:                                              ; preds = %171
  %179 = landingpad { ptr, i32 }
          cleanup, !dbg !4080
  %180 = extractvalue { ptr, i32 } %179, 0, !dbg !4080
  store ptr %180, ptr %18, align 8, !dbg !4080
  %181 = extractvalue { ptr, i32 } %179, 1, !dbg !4080
  store i32 %181, ptr %19, align 4, !dbg !4080
  br label %186, !dbg !4080

182:                                              ; preds = %173, %172
  %183 = landingpad { ptr, i32 }
          cleanup, !dbg !4080
  %184 = extractvalue { ptr, i32 } %183, 0, !dbg !4080
  store ptr %184, ptr %18, align 8, !dbg !4080
  %185 = extractvalue { ptr, i32 } %183, 1, !dbg !4080
  store i32 %185, ptr %19, align 4, !dbg !4080
  call void @_ZNSt7__cxx1112basic_stringIcSt11char_traitsIcESaIcEED1Ev(ptr noundef nonnull align 8 dereferenceable(32) %27) #3, !dbg !4075
  br label %186, !dbg !4075

186:                                              ; preds = %182, %178
  call void @_ZNSt7__cxx1112basic_stringIcSt11char_traitsIcESaIcEED1Ev(ptr noundef nonnull align 8 dereferenceable(32) %28) #3, !dbg !4075
  br label %187, !dbg !4075

187:                                              ; preds = %186, %174
  %188 = load i1, ptr %29, align 1, !dbg !4075
  br i1 %188, label %189, label %190, !dbg !4075

189:                                              ; preds = %187
  call void @__cxa_free_exception(ptr %169) #3, !dbg !4075
  br label %190, !dbg !4075

190:                                              ; preds = %189, %187
  br label %535, !dbg !4075

191:                                              ; preds = %78
  %192 = load i8, ptr %12, align 1, !dbg !4081
  %193 = trunc i8 %192 to i1, !dbg !4081
  br i1 %193, label %231, label %194, !dbg !4083

194:                                              ; preds = %191
  %195 = load ptr, ptr %15, align 8, !dbg !4084
  call void @_ZNSaIcEC1Ev(ptr noundef nonnull align 1 dereferenceable(1) %31) #3, !dbg !4086
  invoke void @_ZNSt7__cxx1112basic_stringIcSt11char_traitsIcESaIcEEC2IS3_EEPKcRKS3_(ptr noundef nonnull align 8 dereferenceable(32) %30, ptr noundef @.str.13, ptr noundef nonnull align 1 dereferenceable(1) %31)
          to label %196 unwind label %203, !dbg !4086

196:                                              ; preds = %194
  call void @_ZNSaIcEC1Ev(ptr noundef nonnull align 1 dereferenceable(1) %33) #3, !dbg !4087
  invoke void @_ZNSt7__cxx1112basic_stringIcSt11char_traitsIcESaIcEEC2IS3_EEPKcRKS3_(ptr noundef nonnull align 8 dereferenceable(32) %32, ptr noundef @.str.14, ptr noundef nonnull align 1 dereferenceable(1) %33)
          to label %197 unwind label %207, !dbg !4087

197:                                              ; preds = %196
  invoke void @_ZN4Poco3Net19NameValueCollection3setERKNSt7__cxx1112basic_stringIcSt11char_traitsIcESaIcEEES9_(ptr noundef nonnull align 8 dereferenceable(32) %195, ptr noundef nonnull align 8 dereferenceable(32) %30, ptr noundef nonnull align 8 dereferenceable(32) %32)
          to label %198 unwind label %211, !dbg !4088

198:                                              ; preds = %197
  call void @_ZNSt7__cxx1112basic_stringIcSt11char_traitsIcESaIcEED1Ev(ptr noundef nonnull align 8 dereferenceable(32) %32) #3, !dbg !4084
  call void @_ZNSaIcED1Ev(ptr noundef nonnull align 1 dereferenceable(1) %33) #3, !dbg !4084
  call void @_ZNSt7__cxx1112basic_stringIcSt11char_traitsIcESaIcEED1Ev(ptr noundef nonnull align 8 dereferenceable(32) %30) #3, !dbg !4084
  call void @_ZNSaIcED1Ev(ptr noundef nonnull align 1 dereferenceable(1) %31) #3, !dbg !4084
  %199 = load ptr, ptr %15, align 8, !dbg !4089
  call void @_ZNSaIcEC1Ev(ptr noundef nonnull align 1 dereferenceable(1) %35) #3, !dbg !4090
  invoke void @_ZNSt7__cxx1112basic_stringIcSt11char_traitsIcESaIcEEC2IS3_EEPKcRKS3_(ptr noundef nonnull align 8 dereferenceable(32) %34, ptr noundef @.str.15, ptr noundef nonnull align 1 dereferenceable(1) %35)
          to label %200 unwind label %217, !dbg !4090

200:                                              ; preds = %198
  call void @_ZNSaIcEC1Ev(ptr noundef nonnull align 1 dereferenceable(1) %37) #3, !dbg !4091
  invoke void @_ZNSt7__cxx1112basic_stringIcSt11char_traitsIcESaIcEEC2IS3_EEPKcRKS3_(ptr noundef nonnull align 8 dereferenceable(32) %36, ptr noundef @.str.16, ptr noundef nonnull align 1 dereferenceable(1) %37)
          to label %201 unwind label %221, !dbg !4091

201:                                              ; preds = %200
  invoke void @_ZN4Poco3Net19NameValueCollection3setERKNSt7__cxx1112basic_stringIcSt11char_traitsIcESaIcEEES9_(ptr noundef nonnull align 8 dereferenceable(32) %199, ptr noundef nonnull align 8 dereferenceable(32) %34, ptr noundef nonnull align 8 dereferenceable(32) %36)
          to label %202 unwind label %225, !dbg !4092

202:                                              ; preds = %201
  call void @_ZNSt7__cxx1112basic_stringIcSt11char_traitsIcESaIcEED1Ev(ptr noundef nonnull align 8 dereferenceable(32) %36) #3, !dbg !4089
  call void @_ZNSaIcED1Ev(ptr noundef nonnull align 1 dereferenceable(1) %37) #3, !dbg !4089
  call void @_ZNSt7__cxx1112basic_stringIcSt11char_traitsIcESaIcEED1Ev(ptr noundef nonnull align 8 dereferenceable(32) %34) #3, !dbg !4089
  call void @_ZNSaIcED1Ev(ptr noundef nonnull align 1 dereferenceable(1) %35) #3, !dbg !4089
  br label %250, !dbg !4093

203:                                              ; preds = %194
  %204 = landingpad { ptr, i32 }
          cleanup, !dbg !4094
  %205 = extractvalue { ptr, i32 } %204, 0, !dbg !4094
  store ptr %205, ptr %18, align 8, !dbg !4094
  %206 = extractvalue { ptr, i32 } %204, 1, !dbg !4094
  store i32 %206, ptr %19, align 4, !dbg !4094
  br label %216, !dbg !4094

207:                                              ; preds = %196
  %208 = landingpad { ptr, i32 }
          cleanup, !dbg !4094
  %209 = extractvalue { ptr, i32 } %208, 0, !dbg !4094
  store ptr %209, ptr %18, align 8, !dbg !4094
  %210 = extractvalue { ptr, i32 } %208, 1, !dbg !4094
  store i32 %210, ptr %19, align 4, !dbg !4094
  br label %215, !dbg !4094

211:                                              ; preds = %197
  %212 = landingpad { ptr, i32 }
          cleanup, !dbg !4094
  %213 = extractvalue { ptr, i32 } %212, 0, !dbg !4094
  store ptr %213, ptr %18, align 8, !dbg !4094
  %214 = extractvalue { ptr, i32 } %212, 1, !dbg !4094
  store i32 %214, ptr %19, align 4, !dbg !4094
  call void @_ZNSt7__cxx1112basic_stringIcSt11char_traitsIcESaIcEED1Ev(ptr noundef nonnull align 8 dereferenceable(32) %32) #3, !dbg !4084
  br label %215, !dbg !4084

215:                                              ; preds = %211, %207
  call void @_ZNSaIcED1Ev(ptr noundef nonnull align 1 dereferenceable(1) %33) #3, !dbg !4084
  call void @_ZNSt7__cxx1112basic_stringIcSt11char_traitsIcESaIcEED1Ev(ptr noundef nonnull align 8 dereferenceable(32) %30) #3, !dbg !4084
  br label %216, !dbg !4084

216:                                              ; preds = %215, %203
  call void @_ZNSaIcED1Ev(ptr noundef nonnull align 1 dereferenceable(1) %31) #3, !dbg !4084
  br label %535, !dbg !4084

217:                                              ; preds = %198
  %218 = landingpad { ptr, i32 }
          cleanup, !dbg !4094
  %219 = extractvalue { ptr, i32 } %218, 0, !dbg !4094
  store ptr %219, ptr %18, align 8, !dbg !4094
  %220 = extractvalue { ptr, i32 } %218, 1, !dbg !4094
  store i32 %220, ptr %19, align 4, !dbg !4094
  br label %230, !dbg !4094

221:                                              ; preds = %200
  %222 = landingpad { ptr, i32 }
          cleanup, !dbg !4094
  %223 = extractvalue { ptr, i32 } %222, 0, !dbg !4094
  store ptr %223, ptr %18, align 8, !dbg !4094
  %224 = extractvalue { ptr, i32 } %222, 1, !dbg !4094
  store i32 %224, ptr %19, align 4, !dbg !4094
  br label %229, !dbg !4094

225:                                              ; preds = %201
  %226 = landingpad { ptr, i32 }
          cleanup, !dbg !4094
  %227 = extractvalue { ptr, i32 } %226, 0, !dbg !4094
  store ptr %227, ptr %18, align 8, !dbg !4094
  %228 = extractvalue { ptr, i32 } %226, 1, !dbg !4094
  store i32 %228, ptr %19, align 4, !dbg !4094
  call void @_ZNSt7__cxx1112basic_stringIcSt11char_traitsIcESaIcEED1Ev(ptr noundef nonnull align 8 dereferenceable(32) %36) #3, !dbg !4089
  br label %229, !dbg !4089

229:                                              ; preds = %225, %221
  call void @_ZNSaIcED1Ev(ptr noundef nonnull align 1 dereferenceable(1) %37) #3, !dbg !4089
  call void @_ZNSt7__cxx1112basic_stringIcSt11char_traitsIcESaIcEED1Ev(ptr noundef nonnull align 8 dereferenceable(32) %34) #3, !dbg !4089
  br label %230, !dbg !4089

230:                                              ; preds = %229, %217
  call void @_ZNSaIcED1Ev(ptr noundef nonnull align 1 dereferenceable(1) %35) #3, !dbg !4089
  br label %535, !dbg !4089

231:                                              ; preds = %191
  %232 = load ptr, ptr %15, align 8, !dbg !4095
  call void @_ZNSaIcEC1Ev(ptr noundef nonnull align 1 dereferenceable(1) %39) #3, !dbg !4097
  invoke void @_ZNSt7__cxx1112basic_stringIcSt11char_traitsIcESaIcEEC2IS3_EEPKcRKS3_(ptr noundef nonnull align 8 dereferenceable(32) %38, ptr noundef @.str.13, ptr noundef nonnull align 1 dereferenceable(1) %39)
          to label %233 unwind label %236, !dbg !4097

233:                                              ; preds = %231
  call void @_ZNSaIcEC1Ev(ptr noundef nonnull align 1 dereferenceable(1) %41) #3, !dbg !4098
  invoke void @_ZNSt7__cxx1112basic_stringIcSt11char_traitsIcESaIcEEC2IS3_EEPKcRKS3_(ptr noundef nonnull align 8 dereferenceable(32) %40, ptr noundef @.str.17, ptr noundef nonnull align 1 dereferenceable(1) %41)
          to label %234 unwind label %240, !dbg !4098

234:                                              ; preds = %233
  invoke void @_ZN4Poco3Net19NameValueCollection3setERKNSt7__cxx1112basic_stringIcSt11char_traitsIcESaIcEEES9_(ptr noundef nonnull align 8 dereferenceable(32) %232, ptr noundef nonnull align 8 dereferenceable(32) %38, ptr noundef nonnull align 8 dereferenceable(32) %40)
          to label %235 unwind label %244, !dbg !4099

235:                                              ; preds = %234
  call void @_ZNSt7__cxx1112basic_stringIcSt11char_traitsIcESaIcEED1Ev(ptr noundef nonnull align 8 dereferenceable(32) %40) #3, !dbg !4095
  call void @_ZNSaIcED1Ev(ptr noundef nonnull align 1 dereferenceable(1) %41) #3, !dbg !4095
  call void @_ZNSt7__cxx1112basic_stringIcSt11char_traitsIcESaIcEED1Ev(ptr noundef nonnull align 8 dereferenceable(32) %38) #3, !dbg !4095
  call void @_ZNSaIcED1Ev(ptr noundef nonnull align 1 dereferenceable(1) %39) #3, !dbg !4095
  br label %250

236:                                              ; preds = %231
  %237 = landingpad { ptr, i32 }
          cleanup, !dbg !4100
  %238 = extractvalue { ptr, i32 } %237, 0, !dbg !4100
  store ptr %238, ptr %18, align 8, !dbg !4100
  %239 = extractvalue { ptr, i32 } %237, 1, !dbg !4100
  store i32 %239, ptr %19, align 4, !dbg !4100
  br label %249, !dbg !4100

240:                                              ; preds = %233
  %241 = landingpad { ptr, i32 }
          cleanup, !dbg !4100
  %242 = extractvalue { ptr, i32 } %241, 0, !dbg !4100
  store ptr %242, ptr %18, align 8, !dbg !4100
  %243 = extractvalue { ptr, i32 } %241, 1, !dbg !4100
  store i32 %243, ptr %19, align 4, !dbg !4100
  br label %248, !dbg !4100

244:                                              ; preds = %234
  %245 = landingpad { ptr, i32 }
          cleanup, !dbg !4100
  %246 = extractvalue { ptr, i32 } %245, 0, !dbg !4100
  store ptr %246, ptr %18, align 8, !dbg !4100
  %247 = extractvalue { ptr, i32 } %245, 1, !dbg !4100
  store i32 %247, ptr %19, align 4, !dbg !4100
  call void @_ZNSt7__cxx1112basic_stringIcSt11char_traitsIcESaIcEED1Ev(ptr noundef nonnull align 8 dereferenceable(32) %40) #3, !dbg !4095
  br label %248, !dbg !4095

248:                                              ; preds = %244, %240
  call void @_ZNSaIcED1Ev(ptr noundef nonnull align 1 dereferenceable(1) %41) #3, !dbg !4095
  call void @_ZNSt7__cxx1112basic_stringIcSt11char_traitsIcESaIcEED1Ev(ptr noundef nonnull align 8 dereferenceable(32) %38) #3, !dbg !4095
  br label %249, !dbg !4095

249:                                              ; preds = %248, %236
  call void @_ZNSaIcED1Ev(ptr noundef nonnull align 1 dereferenceable(1) %39) #3, !dbg !4095
  br label %535, !dbg !4095

250:                                              ; preds = %235, %202
  %251 = load ptr, ptr %15, align 8, !dbg !4101
  %252 = load ptr, ptr %10, align 8, !dbg !4102
  invoke void @_ZN4Poco3Net11HTTPMessage14setContentTypeERKNSt7__cxx1112basic_stringIcSt11char_traitsIcESaIcEEE(ptr noundef nonnull align 8 dereferenceable(72) %251, ptr noundef nonnull align 8 dereferenceable(32) %252)
          to label %253 unwind label %139, !dbg !4103

253:                                              ; preds = %250
  %254 = load ptr, ptr %15, align 8, !dbg !4104
  call void @_ZNSaIcEC1Ev(ptr noundef nonnull align 1 dereferenceable(1) %43) #3, !dbg !4105
  invoke void @_ZNSt7__cxx1112basic_stringIcSt11char_traitsIcESaIcEEC2IS3_EEPKcRKS3_(ptr noundef nonnull align 8 dereferenceable(32) %42, ptr noundef @.str.18, ptr noundef nonnull align 1 dereferenceable(1) %43)
          to label %255 unwind label %282, !dbg !4105

255:                                              ; preds = %253
  call void @_ZNSaIcEC1Ev(ptr noundef nonnull align 1 dereferenceable(1) %45) #3, !dbg !4106
  invoke void @_ZNSt7__cxx1112basic_stringIcSt11char_traitsIcESaIcEEC2IS3_EEPKcRKS3_(ptr noundef nonnull align 8 dereferenceable(32) %44, ptr noundef @.str.19, ptr noundef nonnull align 1 dereferenceable(1) %45)
          to label %256 unwind label %286, !dbg !4106

256:                                              ; preds = %255
  invoke void @_ZN4Poco3Net19NameValueCollection3addERKNSt7__cxx1112basic_stringIcSt11char_traitsIcESaIcEEES9_(ptr noundef nonnull align 8 dereferenceable(32) %254, ptr noundef nonnull align 8 dereferenceable(32) %42, ptr noundef nonnull align 8 dereferenceable(32) %44)
          to label %257 unwind label %290, !dbg !4107

257:                                              ; preds = %256
  call void @_ZNSt7__cxx1112basic_stringIcSt11char_traitsIcESaIcEED1Ev(ptr noundef nonnull align 8 dereferenceable(32) %44) #3, !dbg !4104
  call void @_ZNSaIcED1Ev(ptr noundef nonnull align 1 dereferenceable(1) %45) #3, !dbg !4104
  call void @_ZNSt7__cxx1112basic_stringIcSt11char_traitsIcESaIcEED1Ev(ptr noundef nonnull align 8 dereferenceable(32) %42) #3, !dbg !4104
  call void @_ZNSaIcED1Ev(ptr noundef nonnull align 1 dereferenceable(1) %43) #3, !dbg !4104
  call void @llvm.dbg.declare(metadata ptr %46, metadata !4108, metadata !DIExpression()), !dbg !4109
  %258 = invoke noundef i64 @_ZNK8FileUtil4Stat4sizeEv(ptr noundef nonnull align 8 dereferenceable(184) %17)
          to label %259 unwind label %139, !dbg !4110

259:                                              ; preds = %257
  store i64 %258, ptr %47, align 8, !dbg !4111
  store i64 131072, ptr %48, align 8, !dbg !4112
  %260 = invoke noundef nonnull align 8 dereferenceable(8) ptr @_ZSt3minImERKT_S2_S2_(ptr noundef nonnull align 8 dereferenceable(8) %47, ptr noundef nonnull align 8 dereferenceable(8) %48)
          to label %261 unwind label %139, !dbg !4113

261:                                              ; preds = %259
  %262 = load i64, ptr %260, align 8, !dbg !4113
  %263 = trunc i64 %262 to i32, !dbg !4113
  store i32 %263, ptr %46, align 4, !dbg !4109
  %264 = invoke noundef i64 @_ZNK8FileUtil4Stat4sizeEv(ptr noundef nonnull align 8 dereferenceable(184) %17)
          to label %265 unwind label %139, !dbg !4114

265:                                              ; preds = %261
  %266 = load ptr, ptr %8, align 8, !dbg !4116
  %267 = call noundef ptr @_ZNKSt19__shared_ptr_accessI12StreamSocketLN9__gnu_cxx12_Lock_policyE2ELb0ELb0EEptEv(ptr noundef nonnull align 1 dereferenceable(1) %266) #3, !dbg !4116
  %268 = invoke noundef i32 @_ZNK6Socket17getSendBufferSizeEv(ptr noundef nonnull align 8 dereferenceable(64) %267)
          to label %269 unwind label %139, !dbg !4117

269:                                              ; preds = %265
  %270 = sext i32 %268 to i64, !dbg !4116
  %271 = icmp sge i64 %264, %270, !dbg !4118
  br i1 %271, label %272, label %296, !dbg !4119

272:                                              ; preds = %269
  %273 = load ptr, ptr %8, align 8, !dbg !4120
  %274 = call noundef ptr @_ZNKSt19__shared_ptr_accessI12StreamSocketLN9__gnu_cxx12_Lock_policyE2ELb0ELb0EEptEv(ptr noundef nonnull align 1 dereferenceable(1) %273) #3, !dbg !4120
  %275 = load i32, ptr %46, align 4, !dbg !4122
  %276 = invoke noundef zeroext i1 @_ZN6Socket19setSocketBufferSizeEi(ptr noundef nonnull align 8 dereferenceable(64) %274, i32 noundef %275)
          to label %277 unwind label %139, !dbg !4123

277:                                              ; preds = %272
  %278 = load ptr, ptr %8, align 8, !dbg !4124
  %279 = call noundef ptr @_ZNKSt19__shared_ptr_accessI12StreamSocketLN9__gnu_cxx12_Lock_policyE2ELb0ELb0EEptEv(ptr noundef nonnull align 1 dereferenceable(1) %278) #3, !dbg !4124
  %280 = invoke noundef i32 @_ZNK6Socket17getSendBufferSizeEv(ptr noundef nonnull align 8 dereferenceable(64) %279)
          to label %281 unwind label %139, !dbg !4125

281:                                              ; preds = %277
  store i32 %280, ptr %46, align 4, !dbg !4126
  br label %296, !dbg !4127

282:                                              ; preds = %253
  %283 = landingpad { ptr, i32 }
          cleanup, !dbg !4072
  %284 = extractvalue { ptr, i32 } %283, 0, !dbg !4072
  store ptr %284, ptr %18, align 8, !dbg !4072
  %285 = extractvalue { ptr, i32 } %283, 1, !dbg !4072
  store i32 %285, ptr %19, align 4, !dbg !4072
  br label %295, !dbg !4072

286:                                              ; preds = %255
  %287 = landingpad { ptr, i32 }
          cleanup, !dbg !4072
  %288 = extractvalue { ptr, i32 } %287, 0, !dbg !4072
  store ptr %288, ptr %18, align 8, !dbg !4072
  %289 = extractvalue { ptr, i32 } %287, 1, !dbg !4072
  store i32 %289, ptr %19, align 4, !dbg !4072
  br label %294, !dbg !4072

290:                                              ; preds = %256
  %291 = landingpad { ptr, i32 }
          cleanup, !dbg !4072
  %292 = extractvalue { ptr, i32 } %291, 0, !dbg !4072
  store ptr %292, ptr %18, align 8, !dbg !4072
  %293 = extractvalue { ptr, i32 } %291, 1, !dbg !4072
  store i32 %293, ptr %19, align 4, !dbg !4072
  call void @_ZNSt7__cxx1112basic_stringIcSt11char_traitsIcESaIcEED1Ev(ptr noundef nonnull align 8 dereferenceable(32) %44) #3, !dbg !4104
  br label %294, !dbg !4104

294:                                              ; preds = %290, %286
  call void @_ZNSaIcED1Ev(ptr noundef nonnull align 1 dereferenceable(1) %45) #3, !dbg !4104
  call void @_ZNSt7__cxx1112basic_stringIcSt11char_traitsIcESaIcEED1Ev(ptr noundef nonnull align 8 dereferenceable(32) %42) #3, !dbg !4104
  br label %295, !dbg !4104

295:                                              ; preds = %294, %282
  call void @_ZNSaIcED1Ev(ptr noundef nonnull align 1 dereferenceable(1) %43) #3, !dbg !4104
  br label %535, !dbg !4104

296:                                              ; preds = %281, %269
  %297 = load i8, ptr %13, align 1, !dbg !4128
  %298 = trunc i8 %297 to i1, !dbg !4128
  br i1 %298, label %299, label %300, !dbg !4130

299:                                              ; preds = %296
  br i1 true, label %300, label %406, !dbg !4131

300:                                              ; preds = %299, %296
  %301 = load ptr, ptr %15, align 8, !dbg !4132
  %302 = invoke noundef i64 @_ZNK8FileUtil4Stat4sizeEv(ptr noundef nonnull align 8 dereferenceable(184) %17)
          to label %303 unwind label %139, !dbg !4134

303:                                              ; preds = %300
  invoke void @_ZN4Poco3Net11HTTPMessage16setContentLengthEl(ptr noundef nonnull align 8 dereferenceable(72) %301, i64 noundef %302)
          to label %304 unwind label %139, !dbg !4135

304:                                              ; preds = %303
  br label %305, !dbg !4136

305:                                              ; preds = %304
  call void @llvm.dbg.declare(metadata ptr %49, metadata !4137, metadata !DIExpression()), !dbg !4139
  %306 = invoke noundef nonnull align 8 dereferenceable(68) ptr @_ZN3Log6loggerEv()
          to label %307 unwind label %139, !dbg !4139

307:                                              ; preds = %305
  store ptr %306, ptr %49, align 8, !dbg !4139
  %308 = invoke noundef zeroext i1 @_ZN3Log16isShutdownCalledEv()
          to label %309 unwind label %139, !dbg !4140

309:                                              ; preds = %307
  br i1 %308, label %391, label %310, !dbg !4140

310:                                              ; preds = %309
  %311 = load ptr, ptr %49, align 8, !dbg !4140
  %312 = invoke noundef zeroext i1 @_ZNK4Poco6Logger5traceEv(ptr noundef nonnull align 8 dereferenceable(68) %311)
          to label %313 unwind label %139, !dbg !4140

313:                                              ; preds = %310
  br i1 %312, label %314, label %391, !dbg !4139

314:                                              ; preds = %313
  call void @llvm.dbg.declare(metadata ptr %50, metadata !4142, metadata !DIExpression()), !dbg !4144
  call void @llvm.dbg.declare(metadata ptr %51, metadata !4145, metadata !DIExpression()), !dbg !4144
  %315 = getelementptr inbounds [1024 x i8], ptr %50, i64 0, i64 0, !dbg !4144
  %316 = invoke noundef ptr @_ZN3Log6prefixILi1023EEEPcS1_PKc(ptr noundef %315, ptr noundef @.str.20)
          to label %317 unwind label %139, !dbg !4144

317:                                              ; preds = %314
  call void @_ZNSaIcEC1Ev(ptr noundef nonnull align 1 dereferenceable(1) %53) #3, !dbg !4144
  invoke void @_ZNSt7__cxx1112basic_stringIcSt11char_traitsIcESaIcEEC2IS3_EEPKcRKS3_(ptr noundef nonnull align 8 dereferenceable(32) %52, ptr noundef %316, ptr noundef nonnull align 1 dereferenceable(1) %53)
          to label %318 unwind label %368, !dbg !4144

318:                                              ; preds = %317
  invoke void @_ZNSt7__cxx1119basic_ostringstreamIcSt11char_traitsIcESaIcEEC1ERKNS_12basic_stringIcS2_S3_EESt13_Ios_Openmode(ptr noundef nonnull align 8 dereferenceable(112) %51, ptr noundef nonnull align 8 dereferenceable(32) %52, i32 noundef 2)
          to label %319 unwind label %372, !dbg !4144

319:                                              ; preds = %318
  call void @_ZNSt7__cxx1112basic_stringIcSt11char_traitsIcESaIcEED1Ev(ptr noundef nonnull align 8 dereferenceable(32) %52) #3, !dbg !4144
  call void @_ZNSaIcED1Ev(ptr noundef nonnull align 1 dereferenceable(1) %53) #3, !dbg !4144
  %320 = invoke noundef nonnull align 8 dereferenceable(8) ptr @_ZNSolsEPFRSt8ios_baseS0_E(ptr noundef nonnull align 8 dereferenceable(8) %51, ptr noundef @_ZSt9boolalphaRSt8ios_base)
          to label %321 unwind label %377, !dbg !4144

321:                                              ; preds = %319
  %322 = invoke noundef nonnull align 8 dereferenceable(8) ptr @_ZStlsISt11char_traitsIcEERSt13basic_ostreamIcT_ES5_c(ptr noundef nonnull align 8 dereferenceable(8) %320, i8 noundef signext 35)
          to label %323 unwind label %377, !dbg !4144

323:                                              ; preds = %321
  %324 = load ptr, ptr %8, align 8, !dbg !4144
  %325 = call noundef ptr @_ZNKSt19__shared_ptr_accessI12StreamSocketLN9__gnu_cxx12_Lock_policyE2ELb0ELb0EEptEv(ptr noundef nonnull align 1 dereferenceable(1) %324) #3, !dbg !4144
  %326 = invoke noundef i32 @_ZNK6Socket5getFDEv(ptr noundef nonnull align 8 dereferenceable(64) %325)
          to label %327 unwind label %377, !dbg !4144

327:                                              ; preds = %323
  %328 = invoke noundef nonnull align 8 dereferenceable(8) ptr @_ZNSolsEi(ptr noundef nonnull align 8 dereferenceable(8) %322, i32 noundef %326)
          to label %329 unwind label %377, !dbg !4144

329:                                              ; preds = %327
  %330 = invoke noundef nonnull align 8 dereferenceable(8) ptr @_ZStlsISt11char_traitsIcEERSt13basic_ostreamIcT_ES5_PKc(ptr noundef nonnull align 8 dereferenceable(8) %328, ptr noundef @.str.21)
          to label %331 unwind label %377, !dbg !4144

331:                                              ; preds = %329
  %332 = load i8, ptr %14, align 1, !dbg !4144
  %333 = trunc i8 %332 to i1, !dbg !4144
  %334 = zext i1 %333 to i64, !dbg !4144
  %335 = select i1 %333, ptr @.str.22, ptr @.str.23, !dbg !4144
  %336 = invoke noundef nonnull align 8 dereferenceable(8) ptr @_ZStlsISt11char_traitsIcEERSt13basic_ostreamIcT_ES5_PKc(ptr noundef nonnull align 8 dereferenceable(8) %330, ptr noundef %335)
          to label %337 unwind label %377, !dbg !4144

337:                                              ; preds = %331
  %338 = invoke noundef nonnull align 8 dereferenceable(8) ptr @_ZStlsISt11char_traitsIcEERSt13basic_ostreamIcT_ES5_PKc(ptr noundef nonnull align 8 dereferenceable(8) %336, ptr noundef @.str.24)
          to label %339 unwind label %377, !dbg !4144

339:                                              ; preds = %337
  %340 = load ptr, ptr %9, align 8, !dbg !4144
  %341 = invoke noundef nonnull align 8 dereferenceable(8) ptr @_ZStlsIcSt11char_traitsIcESaIcEERSt13basic_ostreamIT_T0_ES7_RKNSt7__cxx1112basic_stringIS4_S5_T1_EE(ptr noundef nonnull align 8 dereferenceable(8) %338, ptr noundef nonnull align 8 dereferenceable(32) %340)
          to label %342 unwind label %377, !dbg !4144

342:                                              ; preds = %339
  %343 = invoke noundef nonnull align 8 dereferenceable(8) ptr @_ZStlsISt11char_traitsIcEERSt13basic_ostreamIcT_ES5_PKc(ptr noundef nonnull align 8 dereferenceable(8) %341, ptr noundef @.str.25)
          to label %344 unwind label %377, !dbg !4144

344:                                              ; preds = %342
  br label %345, !dbg !4144

345:                                              ; preds = %344
  %346 = invoke noundef nonnull align 8 dereferenceable(8) ptr @_ZStlsISt11char_traitsIcEERSt13basic_ostreamIcT_ES5_PKc(ptr noundef nonnull align 8 dereferenceable(8) %51, ptr noundef @.str.10)
          to label %347 unwind label %377, !dbg !4146

347:                                              ; preds = %345
  %348 = invoke noundef nonnull align 8 dereferenceable(8) ptr @_ZStlsISt11char_traitsIcEERSt13basic_ostreamIcT_ES5_PKc(ptr noundef nonnull align 8 dereferenceable(8) %346, ptr noundef @.str.11)
          to label %349 unwind label %377, !dbg !4146

349:                                              ; preds = %347
  %350 = invoke noundef nonnull align 8 dereferenceable(8) ptr @_ZStlsISt11char_traitsIcEERSt13basic_ostreamIcT_ES5_c(ptr noundef nonnull align 8 dereferenceable(8) %348, i8 noundef signext 58)
          to label %351 unwind label %377, !dbg !4146

351:                                              ; preds = %349
  %352 = invoke noundef nonnull align 8 dereferenceable(8) ptr @_ZNSolsEi(ptr noundef nonnull align 8 dereferenceable(8) %350, i32 noundef 131)
          to label %353 unwind label %377, !dbg !4146

353:                                              ; preds = %351
  %354 = invoke noundef nonnull align 8 dereferenceable(8) ptr @_ZNSo5flushEv(ptr noundef nonnull align 8 dereferenceable(8) %51)
          to label %355 unwind label %377, !dbg !4149

355:                                              ; preds = %353
  br label %356, !dbg !4149

356:                                              ; preds = %355
  br label %357, !dbg !4149

357:                                              ; preds = %356
  %358 = load ptr, ptr %49, align 8, !dbg !4144
  %359 = load ptr, ptr %49, align 8, !dbg !4144
  %360 = invoke noundef nonnull align 8 dereferenceable(32) ptr @_ZNK4Poco6Logger4nameB5cxx11Ev(ptr noundef nonnull align 8 dereferenceable(68) %359)
          to label %361 unwind label %377, !dbg !4144

361:                                              ; preds = %357
  invoke void @_ZNKSt7__cxx1119basic_ostringstreamIcSt11char_traitsIcESaIcEE3strEv(ptr sret(%"class.std::__cxx11::basic_string") align 8 %55, ptr noundef nonnull align 8 dereferenceable(112) %51)
          to label %362 unwind label %377, !dbg !4144

362:                                              ; preds = %361
  invoke void @_ZN4Poco7MessageC1ERKNSt7__cxx1112basic_stringIcSt11char_traitsIcESaIcEEES8_NS0_8PriorityE(ptr noundef nonnull align 8 dereferenceable(152) %54, ptr noundef nonnull align 8 dereferenceable(32) %360, ptr noundef nonnull align 8 dereferenceable(32) %55, i32 noundef 8)
          to label %363 unwind label %381, !dbg !4144

363:                                              ; preds = %362
  %364 = load ptr, ptr %358, align 8, !dbg !4144
  %365 = getelementptr inbounds ptr, ptr %364, i64 6, !dbg !4144
  %366 = load ptr, ptr %365, align 8, !dbg !4144
  invoke void %366(ptr noundef nonnull align 8 dereferenceable(68) %358, ptr noundef nonnull align 8 dereferenceable(152) %54)
          to label %367 unwind label %385, !dbg !4144

367:                                              ; preds = %363
  call void @_ZN4Poco7MessageD1Ev(ptr noundef nonnull align 8 dereferenceable(152) %54) #3, !dbg !4144
  call void @_ZNSt7__cxx1112basic_stringIcSt11char_traitsIcESaIcEED1Ev(ptr noundef nonnull align 8 dereferenceable(32) %55) #3, !dbg !4144
  call void @_ZNSt7__cxx1119basic_ostringstreamIcSt11char_traitsIcESaIcEED1Ev(ptr noundef nonnull align 8 dereferenceable(112) %51) #3, !dbg !4140
  br label %391, !dbg !4144

368:                                              ; preds = %317
  %369 = landingpad { ptr, i32 }
          cleanup, !dbg !4150
  %370 = extractvalue { ptr, i32 } %369, 0, !dbg !4150
  store ptr %370, ptr %18, align 8, !dbg !4150
  %371 = extractvalue { ptr, i32 } %369, 1, !dbg !4150
  store i32 %371, ptr %19, align 4, !dbg !4150
  br label %376, !dbg !4150

372:                                              ; preds = %318
  %373 = landingpad { ptr, i32 }
          cleanup, !dbg !4150
  %374 = extractvalue { ptr, i32 } %373, 0, !dbg !4150
  store ptr %374, ptr %18, align 8, !dbg !4150
  %375 = extractvalue { ptr, i32 } %373, 1, !dbg !4150
  store i32 %375, ptr %19, align 4, !dbg !4150
  call void @_ZNSt7__cxx1112basic_stringIcSt11char_traitsIcESaIcEED1Ev(ptr noundef nonnull align 8 dereferenceable(32) %52) #3, !dbg !4144
  br label %376, !dbg !4144

376:                                              ; preds = %372, %368
  call void @_ZNSaIcED1Ev(ptr noundef nonnull align 1 dereferenceable(1) %53) #3, !dbg !4144
  br label %535, !dbg !4144

377:                                              ; preds = %361, %357, %353, %351, %349, %347, %345, %342, %339, %337, %331, %329, %327, %323, %321, %319
  %378 = landingpad { ptr, i32 }
          cleanup, !dbg !4150
  %379 = extractvalue { ptr, i32 } %378, 0, !dbg !4150
  store ptr %379, ptr %18, align 8, !dbg !4150
  %380 = extractvalue { ptr, i32 } %378, 1, !dbg !4150
  store i32 %380, ptr %19, align 4, !dbg !4150
  br label %390, !dbg !4150

381:                                              ; preds = %362
  %382 = landingpad { ptr, i32 }
          cleanup, !dbg !4150
  %383 = extractvalue { ptr, i32 } %382, 0, !dbg !4150
  store ptr %383, ptr %18, align 8, !dbg !4150
  %384 = extractvalue { ptr, i32 } %382, 1, !dbg !4150
  store i32 %384, ptr %19, align 4, !dbg !4150
  br label %389, !dbg !4150

385:                                              ; preds = %363
  %386 = landingpad { ptr, i32 }
          cleanup, !dbg !4150
  %387 = extractvalue { ptr, i32 } %386, 0, !dbg !4150
  store ptr %387, ptr %18, align 8, !dbg !4150
  %388 = extractvalue { ptr, i32 } %386, 1, !dbg !4150
  store i32 %388, ptr %19, align 4, !dbg !4150
  call void @_ZN4Poco7MessageD1Ev(ptr noundef nonnull align 8 dereferenceable(152) %54) #3, !dbg !4144
  br label %389, !dbg !4144

389:                                              ; preds = %385, %381
  call void @_ZNSt7__cxx1112basic_stringIcSt11char_traitsIcESaIcEED1Ev(ptr noundef nonnull align 8 dereferenceable(32) %55) #3, !dbg !4144
  br label %390, !dbg !4144

390:                                              ; preds = %389, %377
  call void @_ZNSt7__cxx1119basic_ostringstreamIcSt11char_traitsIcESaIcEED1Ev(ptr noundef nonnull align 8 dereferenceable(112) %51) #3, !dbg !4140
  br label %535, !dbg !4140

391:                                              ; preds = %367, %313, %309
  br label %392, !dbg !4139

392:                                              ; preds = %391
  br label %393, !dbg !4139

393:                                              ; preds = %392
  %394 = load ptr, ptr %8, align 8, !dbg !4151
  %395 = call noundef ptr @_ZNKSt19__shared_ptr_accessI12StreamSocketLN9__gnu_cxx12_Lock_policyE2ELb0ELb0EEptEv(ptr noundef nonnull align 1 dereferenceable(1) %394) #3, !dbg !4151
  %396 = load ptr, ptr %15, align 8, !dbg !4152
  invoke void @_ZN12StreamSocket4sendERN4Poco3Net12HTTPResponseE(ptr noundef nonnull align 8 dereferenceable(241) %395, ptr noundef nonnull align 8 dereferenceable(112) %396)
          to label %397 unwind label %139, !dbg !4153

397:                                              ; preds = %393
  %398 = load i8, ptr %14, align 1, !dbg !4154
  %399 = trunc i8 %398 to i1, !dbg !4154
  br i1 %399, label %405, label %400, !dbg !4156

400:                                              ; preds = %397
  %401 = load ptr, ptr %8, align 8, !dbg !4157
  %402 = load ptr, ptr %9, align 8, !dbg !4158
  %403 = load i32, ptr %46, align 4, !dbg !4159
  invoke void @_ZN10HttpHelper27sendUncompressedFileContentERKSt10shared_ptrI12StreamSocketERKNSt7__cxx1112basic_stringIcSt11char_traitsIcESaIcEEEi(ptr noundef nonnull align 8 dereferenceable(16) %401, ptr noundef nonnull align 8 dereferenceable(32) %402, i32 noundef %403)
          to label %404 unwind label %139, !dbg !4160

404:                                              ; preds = %400
  br label %405, !dbg !4160

405:                                              ; preds = %404, %397
  br label %528, !dbg !4161

406:                                              ; preds = %299
  %407 = load ptr, ptr %15, align 8, !dbg !4162
  call void @_ZNSaIcEC1Ev(ptr noundef nonnull align 1 dereferenceable(1) %57) #3, !dbg !4164
  invoke void @_ZNSt7__cxx1112basic_stringIcSt11char_traitsIcESaIcEEC2IS3_EEPKcRKS3_(ptr noundef nonnull align 8 dereferenceable(32) %56, ptr noundef @.str.26, ptr noundef nonnull align 1 dereferenceable(1) %57)
          to label %408 unwind label %474, !dbg !4164

408:                                              ; preds = %406
  call void @_ZNSaIcEC1Ev(ptr noundef nonnull align 1 dereferenceable(1) %59) #3, !dbg !4165
  invoke void @_ZNSt7__cxx1112basic_stringIcSt11char_traitsIcESaIcEEC2IS3_EEPKcRKS3_(ptr noundef nonnull align 8 dereferenceable(32) %58, ptr noundef @.str.27, ptr noundef nonnull align 1 dereferenceable(1) %59)
          to label %409 unwind label %478, !dbg !4165

409:                                              ; preds = %408
  invoke void @_ZN4Poco3Net19NameValueCollection3setERKNSt7__cxx1112basic_stringIcSt11char_traitsIcESaIcEEES9_(ptr noundef nonnull align 8 dereferenceable(32) %407, ptr noundef nonnull align 8 dereferenceable(32) %56, ptr noundef nonnull align 8 dereferenceable(32) %58)
          to label %410 unwind label %482, !dbg !4166

410:                                              ; preds = %409
  call void @_ZNSt7__cxx1112basic_stringIcSt11char_traitsIcESaIcEED1Ev(ptr noundef nonnull align 8 dereferenceable(32) %58) #3, !dbg !4162
  call void @_ZNSaIcED1Ev(ptr noundef nonnull align 1 dereferenceable(1) %59) #3, !dbg !4162
  call void @_ZNSt7__cxx1112basic_stringIcSt11char_traitsIcESaIcEED1Ev(ptr noundef nonnull align 8 dereferenceable(32) %56) #3, !dbg !4162
  call void @_ZNSaIcED1Ev(ptr noundef nonnull align 1 dereferenceable(1) %57) #3, !dbg !4162
  br label %411, !dbg !4167

411:                                              ; preds = %410
  call void @llvm.dbg.declare(metadata ptr %60, metadata !4168, metadata !DIExpression()), !dbg !4170
  %412 = invoke noundef nonnull align 8 dereferenceable(68) ptr @_ZN3Log6loggerEv()
          to label %413 unwind label %139, !dbg !4170

413:                                              ; preds = %411
  store ptr %412, ptr %60, align 8, !dbg !4170
  %414 = invoke noundef zeroext i1 @_ZN3Log16isShutdownCalledEv()
          to label %415 unwind label %139, !dbg !4171

415:                                              ; preds = %413
  br i1 %414, label %511, label %416, !dbg !4171

416:                                              ; preds = %415
  %417 = load ptr, ptr %60, align 8, !dbg !4171
  %418 = invoke noundef zeroext i1 @_ZNK4Poco6Logger5traceEv(ptr noundef nonnull align 8 dereferenceable(68) %417)
          to label %419 unwind label %139, !dbg !4171

419:                                              ; preds = %416
  br i1 %418, label %420, label %511, !dbg !4170

420:                                              ; preds = %419
  call void @llvm.dbg.declare(metadata ptr %61, metadata !4173, metadata !DIExpression()), !dbg !4175
  call void @llvm.dbg.declare(metadata ptr %62, metadata !4176, metadata !DIExpression()), !dbg !4175
  %421 = getelementptr inbounds [1024 x i8], ptr %61, i64 0, i64 0, !dbg !4175
  %422 = invoke noundef ptr @_ZN3Log6prefixILi1023EEEPcS1_PKc(ptr noundef %421, ptr noundef @.str.20)
          to label %423 unwind label %139, !dbg !4175

423:                                              ; preds = %420
  call void @_ZNSaIcEC1Ev(ptr noundef nonnull align 1 dereferenceable(1) %64) #3, !dbg !4175
  invoke void @_ZNSt7__cxx1112basic_stringIcSt11char_traitsIcESaIcEEC2IS3_EEPKcRKS3_(ptr noundef nonnull align 8 dereferenceable(32) %63, ptr noundef %422, ptr noundef nonnull align 1 dereferenceable(1) %64)
          to label %424 unwind label %488, !dbg !4175

424:                                              ; preds = %423
  invoke void @_ZNSt7__cxx1119basic_ostringstreamIcSt11char_traitsIcESaIcEEC1ERKNS_12basic_stringIcS2_S3_EESt13_Ios_Openmode(ptr noundef nonnull align 8 dereferenceable(112) %62, ptr noundef nonnull align 8 dereferenceable(32) %63, i32 noundef 2)
          to label %425 unwind label %492, !dbg !4175

425:                                              ; preds = %424
  call void @_ZNSt7__cxx1112basic_stringIcSt11char_traitsIcESaIcEED1Ev(ptr noundef nonnull align 8 dereferenceable(32) %63) #3, !dbg !4175
  call void @_ZNSaIcED1Ev(ptr noundef nonnull align 1 dereferenceable(1) %64) #3, !dbg !4175
  %426 = invoke noundef nonnull align 8 dereferenceable(8) ptr @_ZNSolsEPFRSt8ios_baseS0_E(ptr noundef nonnull align 8 dereferenceable(8) %62, ptr noundef @_ZSt9boolalphaRSt8ios_base)
          to label %427 unwind label %497, !dbg !4175

427:                                              ; preds = %425
  %428 = invoke noundef nonnull align 8 dereferenceable(8) ptr @_ZStlsISt11char_traitsIcEERSt13basic_ostreamIcT_ES5_c(ptr noundef nonnull align 8 dereferenceable(8) %426, i8 noundef signext 35)
          to label %429 unwind label %497, !dbg !4175

429:                                              ; preds = %427
  %430 = load ptr, ptr %8, align 8, !dbg !4175
  %431 = call noundef ptr @_ZNKSt19__shared_ptr_accessI12StreamSocketLN9__gnu_cxx12_Lock_policyE2ELb0ELb0EEptEv(ptr noundef nonnull align 1 dereferenceable(1) %430) #3, !dbg !4175
  %432 = invoke noundef i32 @_ZNK6Socket5getFDEv(ptr noundef nonnull align 8 dereferenceable(64) %431)
          to label %433 unwind label %497, !dbg !4175

433:                                              ; preds = %429
  %434 = invoke noundef nonnull align 8 dereferenceable(8) ptr @_ZNSolsEi(ptr noundef nonnull align 8 dereferenceable(8) %428, i32 noundef %432)
          to label %435 unwind label %497, !dbg !4175

435:                                              ; preds = %433
  %436 = invoke noundef nonnull align 8 dereferenceable(8) ptr @_ZStlsISt11char_traitsIcEERSt13basic_ostreamIcT_ES5_PKc(ptr noundef nonnull align 8 dereferenceable(8) %434, ptr noundef @.str.21)
          to label %437 unwind label %497, !dbg !4175

437:                                              ; preds = %435
  %438 = load i8, ptr %14, align 1, !dbg !4175
  %439 = trunc i8 %438 to i1, !dbg !4175
  %440 = zext i1 %439 to i64, !dbg !4175
  %441 = select i1 %439, ptr @.str.22, ptr @.str.23, !dbg !4175
  %442 = invoke noundef nonnull align 8 dereferenceable(8) ptr @_ZStlsISt11char_traitsIcEERSt13basic_ostreamIcT_ES5_PKc(ptr noundef nonnull align 8 dereferenceable(8) %436, ptr noundef %441)
          to label %443 unwind label %497, !dbg !4175

443:                                              ; preds = %437
  %444 = invoke noundef nonnull align 8 dereferenceable(8) ptr @_ZStlsISt11char_traitsIcEERSt13basic_ostreamIcT_ES5_PKc(ptr noundef nonnull align 8 dereferenceable(8) %442, ptr noundef @.str.24)
          to label %445 unwind label %497, !dbg !4175

445:                                              ; preds = %443
  %446 = load ptr, ptr %9, align 8, !dbg !4175
  %447 = invoke noundef nonnull align 8 dereferenceable(8) ptr @_ZStlsIcSt11char_traitsIcESaIcEERSt13basic_ostreamIT_T0_ES7_RKNSt7__cxx1112basic_stringIS4_S5_T1_EE(ptr noundef nonnull align 8 dereferenceable(8) %444, ptr noundef nonnull align 8 dereferenceable(32) %446)
          to label %448 unwind label %497, !dbg !4175

448:                                              ; preds = %445
  %449 = invoke noundef nonnull align 8 dereferenceable(8) ptr @_ZStlsISt11char_traitsIcEERSt13basic_ostreamIcT_ES5_PKc(ptr noundef nonnull align 8 dereferenceable(8) %447, ptr noundef @.str.25)
          to label %450 unwind label %497, !dbg !4175

450:                                              ; preds = %448
  br label %451, !dbg !4175

451:                                              ; preds = %450
  %452 = invoke noundef nonnull align 8 dereferenceable(8) ptr @_ZStlsISt11char_traitsIcEERSt13basic_ostreamIcT_ES5_PKc(ptr noundef nonnull align 8 dereferenceable(8) %62, ptr noundef @.str.10)
          to label %453 unwind label %497, !dbg !4177

453:                                              ; preds = %451
  %454 = invoke noundef nonnull align 8 dereferenceable(8) ptr @_ZStlsISt11char_traitsIcEERSt13basic_ostreamIcT_ES5_PKc(ptr noundef nonnull align 8 dereferenceable(8) %452, ptr noundef @.str.11)
          to label %455 unwind label %497, !dbg !4177

455:                                              ; preds = %453
  %456 = invoke noundef nonnull align 8 dereferenceable(8) ptr @_ZStlsISt11char_traitsIcEERSt13basic_ostreamIcT_ES5_c(ptr noundef nonnull align 8 dereferenceable(8) %454, i8 noundef signext 58)
          to label %457 unwind label %497, !dbg !4177

457:                                              ; preds = %455
  %458 = invoke noundef nonnull align 8 dereferenceable(8) ptr @_ZNSolsEi(ptr noundef nonnull align 8 dereferenceable(8) %456, i32 noundef 141)
          to label %459 unwind label %497, !dbg !4177

459:                                              ; preds = %457
  %460 = invoke noundef nonnull align 8 dereferenceable(8) ptr @_ZNSo5flushEv(ptr noundef nonnull align 8 dereferenceable(8) %62)
          to label %461 unwind label %497, !dbg !4180

461:                                              ; preds = %459
  br label %462, !dbg !4180

462:                                              ; preds = %461
  br label %463, !dbg !4180

463:                                              ; preds = %462
  %464 = load ptr, ptr %60, align 8, !dbg !4175
  %465 = load ptr, ptr %60, align 8, !dbg !4175
  %466 = invoke noundef nonnull align 8 dereferenceable(32) ptr @_ZNK4Poco6Logger4nameB5cxx11Ev(ptr noundef nonnull align 8 dereferenceable(68) %465)
          to label %467 unwind label %497, !dbg !4175

467:                                              ; preds = %463
  invoke void @_ZNKSt7__cxx1119basic_ostringstreamIcSt11char_traitsIcESaIcEE3strEv(ptr sret(%"class.std::__cxx11::basic_string") align 8 %66, ptr noundef nonnull align 8 dereferenceable(112) %62)
          to label %468 unwind label %497, !dbg !4175

468:                                              ; preds = %467
  invoke void @_ZN4Poco7MessageC1ERKNSt7__cxx1112basic_stringIcSt11char_traitsIcESaIcEEES8_NS0_8PriorityE(ptr noundef nonnull align 8 dereferenceable(152) %65, ptr noundef nonnull align 8 dereferenceable(32) %466, ptr noundef nonnull align 8 dereferenceable(32) %66, i32 noundef 8)
          to label %469 unwind label %501, !dbg !4175

469:                                              ; preds = %468
  %470 = load ptr, ptr %464, align 8, !dbg !4175
  %471 = getelementptr inbounds ptr, ptr %470, i64 6, !dbg !4175
  %472 = load ptr, ptr %471, align 8, !dbg !4175
  invoke void %472(ptr noundef nonnull align 8 dereferenceable(68) %464, ptr noundef nonnull align 8 dereferenceable(152) %65)
          to label %473 unwind label %505, !dbg !4175

473:                                              ; preds = %469
  call void @_ZN4Poco7MessageD1Ev(ptr noundef nonnull align 8 dereferenceable(152) %65) #3, !dbg !4175
  call void @_ZNSt7__cxx1112basic_stringIcSt11char_traitsIcESaIcEED1Ev(ptr noundef nonnull align 8 dereferenceable(32) %66) #3, !dbg !4175
  call void @_ZNSt7__cxx1119basic_ostringstreamIcSt11char_traitsIcESaIcEED1Ev(ptr noundef nonnull align 8 dereferenceable(112) %62) #3, !dbg !4171
  br label %511, !dbg !4175

474:                                              ; preds = %406
  %475 = landingpad { ptr, i32 }
          cleanup, !dbg !4181
  %476 = extractvalue { ptr, i32 } %475, 0, !dbg !4181
  store ptr %476, ptr %18, align 8, !dbg !4181
  %477 = extractvalue { ptr, i32 } %475, 1, !dbg !4181
  store i32 %477, ptr %19, align 4, !dbg !4181
  br label %487, !dbg !4181

478:                                              ; preds = %408
  %479 = landingpad { ptr, i32 }
          cleanup, !dbg !4181
  %480 = extractvalue { ptr, i32 } %479, 0, !dbg !4181
  store ptr %480, ptr %18, align 8, !dbg !4181
  %481 = extractvalue { ptr, i32 } %479, 1, !dbg !4181
  store i32 %481, ptr %19, align 4, !dbg !4181
  br label %486, !dbg !4181

482:                                              ; preds = %409
  %483 = landingpad { ptr, i32 }
          cleanup, !dbg !4181
  %484 = extractvalue { ptr, i32 } %483, 0, !dbg !4181
  store ptr %484, ptr %18, align 8, !dbg !4181
  %485 = extractvalue { ptr, i32 } %483, 1, !dbg !4181
  store i32 %485, ptr %19, align 4, !dbg !4181
  call void @_ZNSt7__cxx1112basic_stringIcSt11char_traitsIcESaIcEED1Ev(ptr noundef nonnull align 8 dereferenceable(32) %58) #3, !dbg !4162
  br label %486, !dbg !4162

486:                                              ; preds = %482, %478
  call void @_ZNSaIcED1Ev(ptr noundef nonnull align 1 dereferenceable(1) %59) #3, !dbg !4162
  call void @_ZNSt7__cxx1112basic_stringIcSt11char_traitsIcESaIcEED1Ev(ptr noundef nonnull align 8 dereferenceable(32) %56) #3, !dbg !4162
  br label %487, !dbg !4162

487:                                              ; preds = %486, %474
  call void @_ZNSaIcED1Ev(ptr noundef nonnull align 1 dereferenceable(1) %57) #3, !dbg !4162
  br label %535, !dbg !4162

488:                                              ; preds = %423
  %489 = landingpad { ptr, i32 }
          cleanup, !dbg !4182
  %490 = extractvalue { ptr, i32 } %489, 0, !dbg !4182
  store ptr %490, ptr %18, align 8, !dbg !4182
  %491 = extractvalue { ptr, i32 } %489, 1, !dbg !4182
  store i32 %491, ptr %19, align 4, !dbg !4182
  br label %496, !dbg !4182

492:                                              ; preds = %424
  %493 = landingpad { ptr, i32 }
          cleanup, !dbg !4182
  %494 = extractvalue { ptr, i32 } %493, 0, !dbg !4182
  store ptr %494, ptr %18, align 8, !dbg !4182
  %495 = extractvalue { ptr, i32 } %493, 1, !dbg !4182
  store i32 %495, ptr %19, align 4, !dbg !4182
  call void @_ZNSt7__cxx1112basic_stringIcSt11char_traitsIcESaIcEED1Ev(ptr noundef nonnull align 8 dereferenceable(32) %63) #3, !dbg !4175
  br label %496, !dbg !4175

496:                                              ; preds = %492, %488
  call void @_ZNSaIcED1Ev(ptr noundef nonnull align 1 dereferenceable(1) %64) #3, !dbg !4175
  br label %535, !dbg !4175

497:                                              ; preds = %467, %463, %459, %457, %455, %453, %451, %448, %445, %443, %437, %435, %433, %429, %427, %425
  %498 = landingpad { ptr, i32 }
          cleanup, !dbg !4182
  %499 = extractvalue { ptr, i32 } %498, 0, !dbg !4182
  store ptr %499, ptr %18, align 8, !dbg !4182
  %500 = extractvalue { ptr, i32 } %498, 1, !dbg !4182
  store i32 %500, ptr %19, align 4, !dbg !4182
  br label %510, !dbg !4182

501:                                              ; preds = %468
  %502 = landingpad { ptr, i32 }
          cleanup, !dbg !4182
  %503 = extractvalue { ptr, i32 } %502, 0, !dbg !4182
  store ptr %503, ptr %18, align 8, !dbg !4182
  %504 = extractvalue { ptr, i32 } %502, 1, !dbg !4182
  store i32 %504, ptr %19, align 4, !dbg !4182
  br label %509, !dbg !4182

505:                                              ; preds = %469
  %506 = landingpad { ptr, i32 }
          cleanup, !dbg !4182
  %507 = extractvalue { ptr, i32 } %506, 0, !dbg !4182
  store ptr %507, ptr %18, align 8, !dbg !4182
  %508 = extractvalue { ptr, i32 } %506, 1, !dbg !4182
  store i32 %508, ptr %19, align 4, !dbg !4182
  call void @_ZN4Poco7MessageD1Ev(ptr noundef nonnull align 8 dereferenceable(152) %65) #3, !dbg !4175
  br label %509, !dbg !4175

509:                                              ; preds = %505, %501
  call void @_ZNSt7__cxx1112basic_stringIcSt11char_traitsIcESaIcEED1Ev(ptr noundef nonnull align 8 dereferenceable(32) %66) #3, !dbg !4175
  br label %510, !dbg !4175

510:                                              ; preds = %509, %497
  call void @_ZNSt7__cxx1119basic_ostringstreamIcSt11char_traitsIcESaIcEED1Ev(ptr noundef nonnull align 8 dereferenceable(112) %62) #3, !dbg !4171
  br label %535, !dbg !4171

511:                                              ; preds = %473, %419, %415
  br label %512, !dbg !4170

512:                                              ; preds = %511
  br label %513, !dbg !4170

513:                                              ; preds = %512
  %514 = load ptr, ptr %8, align 8, !dbg !4183
  %515 = call noundef ptr @_ZNKSt19__shared_ptr_accessI12StreamSocketLN9__gnu_cxx12_Lock_policyE2ELb0ELb0EEptEv(ptr noundef nonnull align 1 dereferenceable(1) %514) #3, !dbg !4183
  %516 = load ptr, ptr %15, align 8, !dbg !4184
  invoke void @_ZN12StreamSocket4sendERN4Poco3Net12HTTPResponseE(ptr noundef nonnull align 8 dereferenceable(241) %515, ptr noundef nonnull align 8 dereferenceable(112) %516)
          to label %517 unwind label %139, !dbg !4185

517:                                              ; preds = %513
  %518 = load i8, ptr %14, align 1, !dbg !4186
  %519 = trunc i8 %518 to i1, !dbg !4186
  br i1 %519, label %527, label %520, !dbg !4188

520:                                              ; preds = %517
  %521 = load ptr, ptr %8, align 8, !dbg !4189
  %522 = load ptr, ptr %9, align 8, !dbg !4190
  %523 = invoke noundef i64 @_ZNK8FileUtil4Stat4sizeEv(ptr noundef nonnull align 8 dereferenceable(184) %17)
          to label %524 unwind label %139, !dbg !4191

524:                                              ; preds = %520
  %525 = trunc i64 %523 to i32, !dbg !4192
  invoke void @_ZN10HttpHelper23sendDeflatedFileContentERKSt10shared_ptrI12StreamSocketERKNSt7__cxx1112basic_stringIcSt11char_traitsIcESaIcEEEi(ptr noundef nonnull align 8 dereferenceable(16) %521, ptr noundef nonnull align 8 dereferenceable(32) %522, i32 noundef %525)
          to label %526 unwind label %139, !dbg !4193

526:                                              ; preds = %524
  br label %527, !dbg !4193

527:                                              ; preds = %526, %517
  br label %528

528:                                              ; preds = %527, %405
  %529 = load ptr, ptr %8, align 8, !dbg !4194
  %530 = call noundef ptr @_ZNKSt19__shared_ptr_accessI12StreamSocketLN9__gnu_cxx12_Lock_policyE2ELb0ELb0EEptEv(ptr noundef nonnull align 1 dereferenceable(1) %529) #3, !dbg !4194
  %531 = load ptr, ptr %530, align 8, !dbg !4195
  %532 = getelementptr inbounds ptr, ptr %531, i64 2, !dbg !4195
  %533 = load ptr, ptr %532, align 8, !dbg !4195
  invoke void %533(ptr noundef nonnull align 8 dereferenceable(241) %530)
          to label %534 unwind label %139, !dbg !4195

534:                                              ; preds = %528
  call void @_ZN8FileUtil4StatD2Ev(ptr noundef nonnull align 8 dereferenceable(184) %17) #3, !dbg !4072
  call void @_ZN4Poco3Net12HTTPResponseD1Ev(ptr noundef nonnull align 8 dereferenceable(112) %16) #3, !dbg !4072
  ret void, !dbg !4072

535:                                              ; preds = %510, %496, %487, %390, %376, %295, %249, %230, %216, %190, %165, %151, %139
  call void @_ZN8FileUtil4StatD2Ev(ptr noundef nonnull align 8 dereferenceable(184) %17) #3, !dbg !4072
  br label %536, !dbg !4072

536:                                              ; preds = %535, %135
  call void @_ZN4Poco3Net12HTTPResponseD1Ev(ptr noundef nonnull align 8 dereferenceable(112) %16) #3, !dbg !4072
  br label %537, !dbg !4072

537:                                              ; preds = %536
  %538 = load ptr, ptr %18, align 8, !dbg !4072
  %539 = load i32, ptr %19, align 4, !dbg !4072
  %540 = insertvalue { ptr, i32 } poison, ptr %538, 0, !dbg !4072
  %541 = insertvalue { ptr, i32 } %540, i32 %539, 1, !dbg !4072
  resume { ptr, i32 } %541, !dbg !4072

542:                                              ; preds = %173
  unreachable
}

declare void @_ZN4Poco3Net12HTTPResponseC1Ev(ptr noundef nonnull align 8 dereferenceable(112)) unnamed_addr #1

; Function Attrs: noinline optnone uwtable
define linkonce_odr dso_local void @_ZN8FileUtil4StatC2ERKNSt7__cxx1112basic_stringIcSt11char_traitsIcESaIcEEEb(ptr noundef nonnull align 8 dereferenceable(184) %0, ptr noundef nonnull align 8 dereferenceable(32) %1, i1 noundef zeroext %2) unnamed_addr #9 comdat align 2 !dbg !4196 {
  %4 = alloca ptr, align 8
  %5 = alloca ptr, align 8
  %6 = alloca i8, align 1
  store ptr %0, ptr %4, align 8
  call void @llvm.dbg.declare(metadata ptr %4, metadata !4197, metadata !DIExpression()), !dbg !4199
  store ptr %1, ptr %5, align 8
  call void @llvm.dbg.declare(metadata ptr %5, metadata !4200, metadata !DIExpression()), !dbg !4201
  %7 = zext i1 %2 to i8
  store i8 %7, ptr %6, align 1
  call void @llvm.dbg.declare(metadata ptr %6, metadata !4202, metadata !DIExpression()), !dbg !4203
  %8 = load ptr, ptr %4, align 8
  %9 = getelementptr inbounds %"class.FileUtil::Stat", ptr %8, i32 0, i32 0, !dbg !4204
  %10 = load ptr, ptr %5, align 8, !dbg !4205
  call void @_ZNSt7__cxx1112basic_stringIcSt11char_traitsIcESaIcEEC1ERKS4_(ptr noundef nonnull align 8 dereferenceable(32) %9, ptr noundef nonnull align 8 dereferenceable(32) %10), !dbg !4204
  %11 = getelementptr inbounds %"class.FileUtil::Stat", ptr %8, i32 0, i32 1, !dbg !4206
  %12 = getelementptr inbounds %"class.FileUtil::Stat", ptr %8, i32 0, i32 2, !dbg !4207
  %13 = load i8, ptr %6, align 1, !dbg !4208
  %14 = trunc i8 %13 to i1, !dbg !4208
  br i1 %14, label %15, label %20, !dbg !4208

15:                                               ; preds = %3
  %16 = load ptr, ptr %5, align 8, !dbg !4209
  %17 = call noundef ptr @_ZNKSt7__cxx1112basic_stringIcSt11char_traitsIcESaIcEE5c_strEv(ptr noundef nonnull align 8 dereferenceable(32) %16) #3, !dbg !4210
  %18 = getelementptr inbounds %"class.FileUtil::Stat", ptr %8, i32 0, i32 1, !dbg !4211
  %19 = call i32 @lstat(ptr noundef %17, ptr noundef %18) #3, !dbg !4212
  br label %25, !dbg !4208

20:                                               ; preds = %3
  %21 = load ptr, ptr %5, align 8, !dbg !4213
  %22 = call noundef ptr @_ZNKSt7__cxx1112basic_stringIcSt11char_traitsIcESaIcEE5c_strEv(ptr noundef nonnull align 8 dereferenceable(32) %21) #3, !dbg !4214
  %23 = getelementptr inbounds %"class.FileUtil::Stat", ptr %8, i32 0, i32 1, !dbg !4215
  %24 = call i32 @stat(ptr noundef %22, ptr noundef %23) #3, !dbg !4216
  br label %25, !dbg !4208

25:                                               ; preds = %20, %15
  %26 = phi i32 [ %19, %15 ], [ %24, %20 ], !dbg !4208
  store i32 %26, ptr %12, align 8, !dbg !4207
  %27 = getelementptr inbounds %"class.FileUtil::Stat", ptr %8, i32 0, i32 3, !dbg !4217
  %28 = call ptr @__errno_location() #19, !dbg !4218
  %29 = load i32, ptr %28, align 4, !dbg !4218
  store i32 %29, ptr %27, align 4, !dbg !4217
  ret void, !dbg !4219
}

; Function Attrs: mustprogress noinline optnone uwtable
define linkonce_odr dso_local noundef zeroext i1 @_ZNK8FileUtil4Stat3badEv(ptr noundef nonnull align 8 dereferenceable(184) %0) #5 comdat align 2 !dbg !4220 {
  %2 = alloca ptr, align 8
  store ptr %0, ptr %2, align 8
  call void @llvm.dbg.declare(metadata ptr %2, metadata !4221, metadata !DIExpression()), !dbg !4223
  %3 = load ptr, ptr %2, align 8
  %4 = call noundef zeroext i1 @_ZNK8FileUtil4Stat4goodEv(ptr noundef nonnull align 8 dereferenceable(184) %3), !dbg !4224
  %5 = xor i1 %4, true, !dbg !4225
  ret i1 %5, !dbg !4226
}

declare noundef nonnull align 8 dereferenceable(68) ptr @_ZN3Log6loggerEv() #1

; Function Attrs: mustprogress noinline nounwind optnone uwtable
define linkonce_odr dso_local noundef zeroext i1 @_ZN3Log16isShutdownCalledEv() #7 comdat !dbg !4227 {
  %1 = load i8, ptr @_ZN3Log10IsShutdownE, align 1, !dbg !4228
  %2 = trunc i8 %1 to i1, !dbg !4228
  ret i1 %2, !dbg !4229
}

; Function Attrs: mustprogress noinline nounwind optnone uwtable
define linkonce_odr dso_local noundef zeroext i1 @_ZNK4Poco6Logger7warningEv(ptr noundef nonnull align 8 dereferenceable(68) %0) #7 comdat align 2 !dbg !4230 {
  %2 = alloca ptr, align 8
  store ptr %0, ptr %2, align 8
  call void @llvm.dbg.declare(metadata ptr %2, metadata !4236, metadata !DIExpression()), !dbg !4238
  %3 = load ptr, ptr %2, align 8
  %4 = getelementptr inbounds %"class.Poco::Logger", ptr %3, i32 0, i32 4, !dbg !4239
  %5 = load i32, ptr %4, align 8, !dbg !4239
  %6 = icmp sge i32 %5, 4, !dbg !4240
  ret i1 %6, !dbg !4241
}

; Function Attrs: mustprogress noinline optnone uwtable
define linkonce_odr dso_local noundef ptr @_ZN3Log6prefixILi1023EEEPcS1_PKc(ptr noundef %0, ptr noundef %1) #5 comdat personality ptr @__gxx_personality_v0 !dbg !4242 {
  %3 = alloca ptr, align 8
  %4 = alloca ptr, align 8
  %5 = alloca %"class.Poco::LocalDateTime", align 8
  %6 = alloca ptr, align 8
  %7 = alloca i32, align 4
  store ptr %0, ptr %3, align 8
  call void @llvm.dbg.declare(metadata ptr %3, metadata !4247, metadata !DIExpression()), !dbg !4248
  store ptr %1, ptr %4, align 8
  call void @llvm.dbg.declare(metadata ptr %4, metadata !4249, metadata !DIExpression()), !dbg !4250
  call void @_ZN4Poco13LocalDateTimeC1Ev(ptr noundef nonnull align 8 dereferenceable(28) %5), !dbg !4251
  %8 = load ptr, ptr %3, align 8, !dbg !4252
  %9 = load ptr, ptr %4, align 8, !dbg !4253
  %10 = invoke noundef ptr @_ZN3Log6prefixERKN4Poco13LocalDateTimeEPcPKc(ptr noundef nonnull align 8 dereferenceable(28) %5, ptr noundef %8, ptr noundef %9)
          to label %11 unwind label %12, !dbg !4254

11:                                               ; preds = %2
  call void @_ZN4Poco13LocalDateTimeD1Ev(ptr noundef nonnull align 8 dereferenceable(28) %5) #3, !dbg !4255
  ret ptr %10, !dbg !4255

12:                                               ; preds = %2
  %13 = landingpad { ptr, i32 }
          cleanup, !dbg !4256
  %14 = extractvalue { ptr, i32 } %13, 0, !dbg !4256
  store ptr %14, ptr %6, align 8, !dbg !4256
  %15 = extractvalue { ptr, i32 } %13, 1, !dbg !4256
  store i32 %15, ptr %7, align 4, !dbg !4256
  call void @_ZN4Poco13LocalDateTimeD1Ev(ptr noundef nonnull align 8 dereferenceable(28) %5) #3, !dbg !4255
  br label %16, !dbg !4255

16:                                               ; preds = %12
  %17 = load ptr, ptr %6, align 8, !dbg !4255
  %18 = load i32, ptr %7, align 4, !dbg !4255
  %19 = insertvalue { ptr, i32 } poison, ptr %17, 0, !dbg !4255
  %20 = insertvalue { ptr, i32 } %19, i32 %18, 1, !dbg !4255
  resume { ptr, i32 } %20, !dbg !4255
}

; Function Attrs: nounwind
declare void @_ZNSaIcEC1Ev(ptr noundef nonnull align 1 dereferenceable(1)) unnamed_addr #2

; Function Attrs: noinline optnone uwtable
define linkonce_odr dso_local void @_ZNSt7__cxx1112basic_stringIcSt11char_traitsIcESaIcEEC2IS3_EEPKcRKS3_(ptr noundef nonnull align 8 dereferenceable(32) %0, ptr noundef %1, ptr noundef nonnull align 1 dereferenceable(1) %2) unnamed_addr #9 comdat align 2 personality ptr @__gxx_personality_v0 !dbg !4257 {
  %4 = alloca ptr, align 8
  %5 = alloca ptr, align 8
  %6 = alloca ptr, align 8
  %7 = alloca ptr, align 8
  %8 = alloca ptr, align 8
  %9 = alloca i32, align 4
  %10 = alloca %"struct.std::forward_iterator_tag", align 1
  %11 = alloca %"struct.std::random_access_iterator_tag", align 1
  store ptr %0, ptr %4, align 8
  call void @llvm.dbg.declare(metadata ptr %4, metadata !4263, metadata !DIExpression()), !dbg !4265
  store ptr %1, ptr %5, align 8
  call void @llvm.dbg.declare(metadata ptr %5, metadata !4266, metadata !DIExpression()), !dbg !4267
  store ptr %2, ptr %6, align 8
  call void @llvm.dbg.declare(metadata ptr %6, metadata !4268, metadata !DIExpression()), !dbg !4269
  %12 = load ptr, ptr %4, align 8
  %13 = getelementptr inbounds %"class.std::__cxx11::basic_string", ptr %12, i32 0, i32 0, !dbg !4270
  %14 = call noundef ptr @_ZNSt7__cxx1112basic_stringIcSt11char_traitsIcESaIcEE13_M_local_dataEv(ptr noundef nonnull align 8 dereferenceable(32) %12), !dbg !4271
  %15 = load ptr, ptr %6, align 8, !dbg !4272
  call void @_ZNSt7__cxx1112basic_stringIcSt11char_traitsIcESaIcEE12_Alloc_hiderC1EPcRKS3_(ptr noundef nonnull align 8 dereferenceable(8) %13, ptr noundef %14, ptr noundef nonnull align 1 dereferenceable(1) %15), !dbg !4270
  call void @llvm.dbg.declare(metadata ptr %7, metadata !4273, metadata !DIExpression()), !dbg !4275
  %16 = load ptr, ptr %5, align 8, !dbg !4276
  %17 = icmp ne ptr %16, null, !dbg !4276
  br i1 %17, label %18, label %24, !dbg !4276

18:                                               ; preds = %3
  %19 = load ptr, ptr %5, align 8, !dbg !4277
  %20 = load ptr, ptr %5, align 8, !dbg !4278
  %21 = invoke noundef i64 @_ZNSt11char_traitsIcE6lengthEPKc(ptr noundef %20)
          to label %22 unwind label %30, !dbg !4279

22:                                               ; preds = %18
  %23 = getelementptr inbounds i8, ptr %19, i64 %21, !dbg !4280
  br label %25, !dbg !4276

24:                                               ; preds = %3
  br label %25, !dbg !4276

25:                                               ; preds = %24, %22
  %26 = phi ptr [ %23, %22 ], [ inttoptr (i64 1 to ptr), %24 ], !dbg !4276
  store ptr %26, ptr %7, align 8, !dbg !4275
  %27 = load ptr, ptr %5, align 8, !dbg !4281
  %28 = load ptr, ptr %7, align 8, !dbg !4282
  invoke void @_ZNSt7__cxx1112basic_stringIcSt11char_traitsIcESaIcEE12_M_constructIPKcEEvT_S8_St20forward_iterator_tag(ptr noundef nonnull align 8 dereferenceable(32) %12, ptr noundef %27, ptr noundef %28)
          to label %29 unwind label %30, !dbg !4283

29:                                               ; preds = %25
  ret void, !dbg !4284

30:                                               ; preds = %25, %18
  %31 = landingpad { ptr, i32 }
          cleanup, !dbg !4285
  %32 = extractvalue { ptr, i32 } %31, 0, !dbg !4285
  store ptr %32, ptr %8, align 8, !dbg !4285
  %33 = extractvalue { ptr, i32 } %31, 1, !dbg !4285
  store i32 %33, ptr %9, align 4, !dbg !4285
  call void @_ZNSt7__cxx1112basic_stringIcSt11char_traitsIcESaIcEE12_Alloc_hiderD2Ev(ptr noundef nonnull align 8 dereferenceable(8) %13) #3, !dbg !4285
  br label %34, !dbg !4285

34:                                               ; preds = %30
  %35 = load ptr, ptr %8, align 8, !dbg !4285
  %36 = load i32, ptr %9, align 4, !dbg !4285
  %37 = insertvalue { ptr, i32 } poison, ptr %35, 0, !dbg !4285
  %38 = insertvalue { ptr, i32 } %37, i32 %36, 1, !dbg !4285
  resume { ptr, i32 } %38, !dbg !4285
}

declare void @_ZNSt7__cxx1119basic_ostringstreamIcSt11char_traitsIcESaIcEEC1ERKNS_12basic_stringIcS2_S3_EESt13_Ios_Openmode(ptr noundef nonnull align 8 dereferenceable(112), ptr noundef nonnull align 8 dereferenceable(32), i32 noundef) unnamed_addr #1

; Function Attrs: nounwind
declare void @_ZNSaIcED1Ev(ptr noundef nonnull align 1 dereferenceable(1)) unnamed_addr #2

declare noundef nonnull align 8 dereferenceable(8) ptr @_ZStlsISt11char_traitsIcEERSt13basic_ostreamIcT_ES5_c(ptr noundef nonnull align 8 dereferenceable(8), i8 noundef signext) #1

declare noundef nonnull align 8 dereferenceable(8) ptr @_ZNSolsEPFRSt8ios_baseS0_E(ptr noundef nonnull align 8 dereferenceable(8), ptr noundef) #1

; Function Attrs: mustprogress noinline optnone uwtable
define linkonce_odr dso_local noundef nonnull align 8 dereferenceable(216) ptr @_ZSt9boolalphaRSt8ios_base(ptr noundef nonnull align 8 dereferenceable(216) %0) #5 comdat !dbg !4286 {
  %2 = alloca ptr, align 8
  store ptr %0, ptr %2, align 8
  call void @llvm.dbg.declare(metadata ptr %2, metadata !4290, metadata !DIExpression()), !dbg !4291
  %3 = load ptr, ptr %2, align 8, !dbg !4292
  %4 = call noundef i32 @_ZNSt8ios_base4setfESt13_Ios_Fmtflags(ptr noundef nonnull align 8 dereferenceable(216) %3, i32 noundef 1), !dbg !4293
  %5 = load ptr, ptr %2, align 8, !dbg !4294
  ret ptr %5, !dbg !4295
}

; Function Attrs: mustprogress noinline nounwind optnone uwtable
define linkonce_odr dso_local noundef i32 @_ZNK6Socket5getFDEv(ptr noundef nonnull align 8 dereferenceable(64) %0) #7 comdat align 2 !dbg !4296 {
  %2 = alloca ptr, align 8
  store ptr %0, ptr %2, align 8
  call void @llvm.dbg.declare(metadata ptr %2, metadata !4302, metadata !DIExpression()), !dbg !4304
  %3 = load ptr, ptr %2, align 8
  %4 = getelementptr inbounds %class.Socket, ptr %3, i32 0, i32 2, !dbg !4305
  %5 = load i32, ptr %4, align 8, !dbg !4305
  ret i32 %5, !dbg !4306
}

declare noundef nonnull align 8 dereferenceable(8) ptr @_ZNSo5flushEv(ptr noundef nonnull align 8 dereferenceable(8)) #1

; Function Attrs: mustprogress noinline nounwind optnone uwtable
define linkonce_odr dso_local noundef nonnull align 8 dereferenceable(32) ptr @_ZNK4Poco6Logger4nameB5cxx11Ev(ptr noundef nonnull align 8 dereferenceable(68) %0) #7 comdat align 2 !dbg !4307 {
  %2 = alloca ptr, align 8
  store ptr %0, ptr %2, align 8
  call void @llvm.dbg.declare(metadata ptr %2, metadata !4311, metadata !DIExpression()), !dbg !4312
  %3 = load ptr, ptr %2, align 8
  %4 = getelementptr inbounds %"class.Poco::Logger", ptr %3, i32 0, i32 2, !dbg !4313
  ret ptr %4, !dbg !4314
}

declare void @_ZN4Poco7MessageC1ERKNSt7__cxx1112basic_stringIcSt11char_traitsIcESaIcEEES8_NS0_8PriorityE(ptr noundef nonnull align 8 dereferenceable(152), ptr noundef nonnull align 8 dereferenceable(32), ptr noundef nonnull align 8 dereferenceable(32), i32 noundef) unnamed_addr #1

; Function Attrs: nounwind
declare void @_ZN4Poco7MessageD1Ev(ptr noundef nonnull align 8 dereferenceable(152)) unnamed_addr #2

declare ptr @__cxa_allocate_exception(i64)

; Function Attrs: mustprogress noinline optnone uwtable
define linkonce_odr dso_local void @_ZStplIcSt11char_traitsIcESaIcEENSt7__cxx1112basic_stringIT_T0_T1_EEOS8_PKS5_(ptr noalias sret(%"class.std::__cxx11::basic_string") align 8 %0, ptr noundef nonnull align 8 dereferenceable(32) %1, ptr noundef %2) #5 comdat !dbg !4315 {
  %4 = alloca ptr, align 8
  %5 = alloca ptr, align 8
  %6 = alloca ptr, align 8
  store ptr %0, ptr %4, align 8
  store ptr %1, ptr %5, align 8
  call void @llvm.dbg.declare(metadata ptr %5, metadata !4320, metadata !DIExpression()), !dbg !4321
  store ptr %2, ptr %6, align 8
  call void @llvm.dbg.declare(metadata ptr %6, metadata !4322, metadata !DIExpression()), !dbg !4323
  %7 = load ptr, ptr %5, align 8, !dbg !4324
  %8 = load ptr, ptr %6, align 8, !dbg !4325
  %9 = call noundef nonnull align 8 dereferenceable(32) ptr @_ZNSt7__cxx1112basic_stringIcSt11char_traitsIcESaIcEE6appendEPKc(ptr noundef nonnull align 8 dereferenceable(32) %7, ptr noundef %8), !dbg !4326
  call void @_ZNSt7__cxx1112basic_stringIcSt11char_traitsIcESaIcEEC1EOS4_(ptr noundef nonnull align 8 dereferenceable(32) %0, ptr noundef nonnull align 8 dereferenceable(32) %9) #3, !dbg !4327
  ret void, !dbg !4328
}

; Function Attrs: mustprogress noinline optnone uwtable
define linkonce_odr dso_local void @_ZStplIcSt11char_traitsIcESaIcEENSt7__cxx1112basic_stringIT_T0_T1_EEPKS5_RKS8_(ptr noalias sret(%"class.std::__cxx11::basic_string") align 8 %0, ptr noundef %1, ptr noundef nonnull align 8 dereferenceable(32) %2) #5 comdat personality ptr @__gxx_personality_v0 !dbg !4329 {
  %4 = alloca ptr, align 8
  %5 = alloca ptr, align 8
  %6 = alloca ptr, align 8
  %7 = alloca i64, align 8
  %8 = alloca i1, align 1
  %9 = alloca %"class.std::allocator", align 1
  %10 = alloca %"class.std::allocator", align 1
  %11 = alloca ptr, align 8
  %12 = alloca i32, align 4
  store ptr %0, ptr %4, align 8
  store ptr %1, ptr %5, align 8
  call void @llvm.dbg.declare(metadata ptr %5, metadata !4332, metadata !DIExpression()), !dbg !4333
  store ptr %2, ptr %6, align 8
  call void @llvm.dbg.declare(metadata ptr %6, metadata !4334, metadata !DIExpression()), !dbg !4335
  call void @llvm.dbg.declare(metadata ptr %7, metadata !4336, metadata !DIExpression()), !dbg !4339
  %13 = load ptr, ptr %5, align 8, !dbg !4340
  %14 = call noundef i64 @_ZNSt11char_traitsIcE6lengthEPKc(ptr noundef %13), !dbg !4341
  store i64 %14, ptr %7, align 8, !dbg !4339
  store i1 false, ptr %8, align 1, !dbg !4342
  call void @llvm.dbg.declare(metadata ptr %4, metadata !4343, metadata !DIExpression(DW_OP_deref)), !dbg !4345
  %15 = load ptr, ptr %6, align 8, !dbg !4346
  call void @_ZNKSt7__cxx1112basic_stringIcSt11char_traitsIcESaIcEE13get_allocatorEv(ptr sret(%"class.std::allocator") align 1 %10, ptr noundef nonnull align 8 dereferenceable(32) %15) #3, !dbg !4347
  invoke void @_ZN9__gnu_cxx14__alloc_traitsISaIcEcE17_S_select_on_copyERKS1_(ptr sret(%"class.std::allocator") align 1 %9, ptr noundef nonnull align 1 dereferenceable(1) %10)
          to label %16 unwind label %30, !dbg !4348

16:                                               ; preds = %3
  call void @_ZNSt7__cxx1112basic_stringIcSt11char_traitsIcESaIcEEC1ERKS3_(ptr noundef nonnull align 8 dereferenceable(32) %0, ptr noundef nonnull align 1 dereferenceable(1) %9) #3, !dbg !4345
  call void @_ZNSaIcED1Ev(ptr noundef nonnull align 1 dereferenceable(1) %9) #3, !dbg !4345
  call void @_ZNSaIcED1Ev(ptr noundef nonnull align 1 dereferenceable(1) %10) #3, !dbg !4345
  %17 = load i64, ptr %7, align 8, !dbg !4349
  %18 = load ptr, ptr %6, align 8, !dbg !4350
  %19 = call noundef i64 @_ZNKSt7__cxx1112basic_stringIcSt11char_traitsIcESaIcEE4sizeEv(ptr noundef nonnull align 8 dereferenceable(32) %18) #3, !dbg !4351
  %20 = add i64 %17, %19, !dbg !4352
  invoke void @_ZNSt7__cxx1112basic_stringIcSt11char_traitsIcESaIcEE7reserveEm(ptr noundef nonnull align 8 dereferenceable(32) %0, i64 noundef %20)
          to label %21 unwind label %34, !dbg !4353

21:                                               ; preds = %16
  %22 = load ptr, ptr %5, align 8, !dbg !4354
  %23 = load i64, ptr %7, align 8, !dbg !4355
  %24 = invoke noundef nonnull align 8 dereferenceable(32) ptr @_ZNSt7__cxx1112basic_stringIcSt11char_traitsIcESaIcEE6appendEPKcm(ptr noundef nonnull align 8 dereferenceable(32) %0, ptr noundef %22, i64 noundef %23)
          to label %25 unwind label %34, !dbg !4356

25:                                               ; preds = %21
  %26 = load ptr, ptr %6, align 8, !dbg !4357
  %27 = invoke noundef nonnull align 8 dereferenceable(32) ptr @_ZNSt7__cxx1112basic_stringIcSt11char_traitsIcESaIcEE6appendERKS4_(ptr noundef nonnull align 8 dereferenceable(32) %0, ptr noundef nonnull align 8 dereferenceable(32) %26)
          to label %28 unwind label %34, !dbg !4358

28:                                               ; preds = %25
  store i1 true, ptr %8, align 1, !dbg !4359
  %29 = load i1, ptr %8, align 1, !dbg !4360
  br i1 %29, label %39, label %38, !dbg !4360

30:                                               ; preds = %3
  %31 = landingpad { ptr, i32 }
          cleanup, !dbg !4360
  %32 = extractvalue { ptr, i32 } %31, 0, !dbg !4360
  store ptr %32, ptr %11, align 8, !dbg !4360
  %33 = extractvalue { ptr, i32 } %31, 1, !dbg !4360
  store i32 %33, ptr %12, align 4, !dbg !4360
  call void @_ZNSaIcED1Ev(ptr noundef nonnull align 1 dereferenceable(1) %10) #3, !dbg !4345
  br label %40, !dbg !4345

34:                                               ; preds = %25, %21, %16
  %35 = landingpad { ptr, i32 }
          cleanup, !dbg !4360
  %36 = extractvalue { ptr, i32 } %35, 0, !dbg !4360
  store ptr %36, ptr %11, align 8, !dbg !4360
  %37 = extractvalue { ptr, i32 } %35, 1, !dbg !4360
  store i32 %37, ptr %12, align 4, !dbg !4360
  call void @_ZNSt7__cxx1112basic_stringIcSt11char_traitsIcESaIcEED1Ev(ptr noundef nonnull align 8 dereferenceable(32) %0) #3, !dbg !4360
  br label %40, !dbg !4360

38:                                               ; preds = %28
  call void @_ZNSt7__cxx1112basic_stringIcSt11char_traitsIcESaIcEED1Ev(ptr noundef nonnull align 8 dereferenceable(32) %0) #3, !dbg !4360
  br label %39, !dbg !4360

39:                                               ; preds = %38, %28
  ret void, !dbg !4360

40:                                               ; preds = %34, %30
  %41 = load ptr, ptr %11, align 8, !dbg !4345
  %42 = load i32, ptr %12, align 4, !dbg !4345
  %43 = insertvalue { ptr, i32 } poison, ptr %41, 0, !dbg !4345
  %44 = insertvalue { ptr, i32 } %43, i32 %42, 1, !dbg !4345
  resume { ptr, i32 } %44, !dbg !4345
}

declare void @_ZN4Poco21FileNotFoundExceptionC1ERKNSt7__cxx1112basic_stringIcSt11char_traitsIcESaIcEEEi(ptr noundef nonnull align 8 dereferenceable(52), ptr noundef nonnull align 8 dereferenceable(32), i32 noundef) unnamed_addr #1

; Function Attrs: nounwind
declare void @_ZN4Poco21FileNotFoundExceptionD1Ev(ptr noundef nonnull align 8 dereferenceable(52)) unnamed_addr #2

declare void @__cxa_throw(ptr, ptr, ptr)

declare void @__cxa_free_exception(ptr)

declare void @_ZN4Poco3Net19NameValueCollection3setERKNSt7__cxx1112basic_stringIcSt11char_traitsIcESaIcEEES9_(ptr noundef nonnull align 8 dereferenceable(32), ptr noundef nonnull align 8 dereferenceable(32), ptr noundef nonnull align 8 dereferenceable(32)) #1

declare void @_ZN4Poco3Net11HTTPMessage14setContentTypeERKNSt7__cxx1112basic_stringIcSt11char_traitsIcESaIcEEE(ptr noundef nonnull align 8 dereferenceable(72), ptr noundef nonnull align 8 dereferenceable(32)) #1

declare void @_ZN4Poco3Net19NameValueCollection3addERKNSt7__cxx1112basic_stringIcSt11char_traitsIcESaIcEEES9_(ptr noundef nonnull align 8 dereferenceable(32), ptr noundef nonnull align 8 dereferenceable(32), ptr noundef nonnull align 8 dereferenceable(32)) #1

; Function Attrs: mustprogress noinline nounwind optnone uwtable
define linkonce_odr dso_local noundef nonnull align 8 dereferenceable(8) ptr @_ZSt3minImERKT_S2_S2_(ptr noundef nonnull align 8 dereferenceable(8) %0, ptr noundef nonnull align 8 dereferenceable(8) %1) #7 comdat !dbg !4361 {
  %3 = alloca ptr, align 8
  %4 = alloca ptr, align 8
  %5 = alloca ptr, align 8
  store ptr %0, ptr %4, align 8
  call void @llvm.dbg.declare(metadata ptr %4, metadata !4368, metadata !DIExpression()), !dbg !4369
  store ptr %1, ptr %5, align 8
  call void @llvm.dbg.declare(metadata ptr %5, metadata !4370, metadata !DIExpression()), !dbg !4371
  %6 = load ptr, ptr %5, align 8, !dbg !4372
  %7 = load i64, ptr %6, align 8, !dbg !4372
  %8 = load ptr, ptr %4, align 8, !dbg !4374
  %9 = load i64, ptr %8, align 8, !dbg !4374
  %10 = icmp ult i64 %7, %9, !dbg !4375
  br i1 %10, label %11, label %13, !dbg !4376

11:                                               ; preds = %2
  %12 = load ptr, ptr %5, align 8, !dbg !4377
  store ptr %12, ptr %3, align 8, !dbg !4378
  br label %15, !dbg !4378

13:                                               ; preds = %2
  %14 = load ptr, ptr %4, align 8, !dbg !4379
  store ptr %14, ptr %3, align 8, !dbg !4380
  br label %15, !dbg !4380

15:                                               ; preds = %13, %11
  %16 = load ptr, ptr %3, align 8, !dbg !4381
  ret ptr %16, !dbg !4381
}

; Function Attrs: mustprogress noinline nounwind optnone uwtable
define linkonce_odr dso_local noundef i64 @_ZNK8FileUtil4Stat4sizeEv(ptr noundef nonnull align 8 dereferenceable(184) %0) #7 comdat align 2 !dbg !4382 {
  %2 = alloca ptr, align 8
  store ptr %0, ptr %2, align 8
  call void @llvm.dbg.declare(metadata ptr %2, metadata !4383, metadata !DIExpression()), !dbg !4384
  %3 = load ptr, ptr %2, align 8
  %4 = getelementptr inbounds %"class.FileUtil::Stat", ptr %3, i32 0, i32 1, !dbg !4385
  %5 = getelementptr inbounds %struct.stat, ptr %4, i32 0, i32 8, !dbg !4386
  %6 = load i64, ptr %5, align 8, !dbg !4386
  ret i64 %6, !dbg !4387
}

; Function Attrs: mustprogress noinline nounwind optnone uwtable
define linkonce_odr dso_local noundef i32 @_ZNK6Socket17getSendBufferSizeEv(ptr noundef nonnull align 8 dereferenceable(64) %0) #7 comdat align 2 !dbg !4388 {
  %2 = alloca ptr, align 8
  store ptr %0, ptr %2, align 8
  call void @llvm.dbg.declare(metadata ptr %2, metadata !4390, metadata !DIExpression()), !dbg !4391
  %3 = load ptr, ptr %2, align 8
  %4 = getelementptr inbounds %class.Socket, ptr %3, i32 0, i32 4, !dbg !4392
  %5 = load i32, ptr %4, align 8, !dbg !4392
  ret i32 %5, !dbg !4393
}

; Function Attrs: mustprogress noinline optnone uwtable
define linkonce_odr dso_local noundef zeroext i1 @_ZN6Socket19setSocketBufferSizeEi(ptr noundef nonnull align 8 dereferenceable(64) %0, i32 noundef %1) #5 comdat align 2 personality ptr @__gxx_personality_v0 !dbg !4394 {
  %3 = alloca i1, align 1
  %4 = alloca ptr, align 8
  %5 = alloca i32, align 4
  %6 = alloca i32, align 4
  %7 = alloca i32, align 4
  %8 = alloca ptr, align 8
  %9 = alloca [1024 x i8], align 16
  %10 = alloca %"class.std::__cxx11::basic_ostringstream", align 8
  %11 = alloca %"class.std::__cxx11::basic_string", align 8
  %12 = alloca %"class.std::allocator", align 1
  %13 = alloca ptr, align 8
  %14 = alloca i32, align 4
  %15 = alloca %"class.std::__cxx11::basic_string", align 8
  %16 = alloca %"class.Poco::Message", align 8
  %17 = alloca %"class.std::__cxx11::basic_string", align 8
  %18 = alloca ptr, align 8
  %19 = alloca [1024 x i8], align 16
  %20 = alloca %"class.std::__cxx11::basic_ostringstream", align 8
  %21 = alloca %"class.std::__cxx11::basic_string", align 8
  %22 = alloca %"class.std::allocator", align 1
  %23 = alloca %"class.Poco::Message", align 8
  %24 = alloca %"class.std::__cxx11::basic_string", align 8
  %25 = alloca ptr, align 8
  %26 = alloca [1024 x i8], align 16
  %27 = alloca %"class.std::__cxx11::basic_ostringstream", align 8
  %28 = alloca %"class.std::__cxx11::basic_string", align 8
  %29 = alloca %"class.std::allocator", align 1
  %30 = alloca %"class.Poco::Message", align 8
  %31 = alloca %"class.std::__cxx11::basic_string", align 8
  store ptr %0, ptr %4, align 8
  call void @llvm.dbg.declare(metadata ptr %4, metadata !4399, metadata !DIExpression()), !dbg !4401
  store i32 %1, ptr %5, align 4
  call void @llvm.dbg.declare(metadata ptr %5, metadata !4402, metadata !DIExpression()), !dbg !4403
  %32 = load ptr, ptr %4, align 8
  call void @llvm.dbg.declare(metadata ptr %6, metadata !4404, metadata !DIExpression()), !dbg !4405
  %33 = getelementptr inbounds %class.Socket, ptr %32, i32 0, i32 2, !dbg !4406
  %34 = load i32, ptr %33, align 8, !dbg !4406
  %35 = call i32 @setsockopt(i32 noundef %34, i32 noundef 1, i32 noundef 7, ptr noundef %5, i32 noundef 4) #3, !dbg !4407
  store i32 %35, ptr %6, align 4, !dbg !4405
  %36 = call noundef i32 @_ZNK6Socket19getSocketBufferSizeEv(ptr noundef nonnull align 8 dereferenceable(64) %32), !dbg !4408
  %37 = getelementptr inbounds %class.Socket, ptr %32, i32 0, i32 4, !dbg !4409
  store i32 %36, ptr %37, align 8, !dbg !4410
  %38 = load i32, ptr %6, align 4, !dbg !4411
  %39 = icmp ne i32 %38, 0, !dbg !4413
  br i1 %39, label %44, label %40, !dbg !4414

40:                                               ; preds = %2
  %41 = getelementptr inbounds %class.Socket, ptr %32, i32 0, i32 4, !dbg !4415
  %42 = load i32, ptr %41, align 8, !dbg !4415
  %43 = icmp slt i32 %42, 0, !dbg !4416
  br i1 %43, label %44, label %142, !dbg !4417

44:                                               ; preds = %40, %2
  %45 = getelementptr inbounds %class.Socket, ptr %32, i32 0, i32 4, !dbg !4418
  store i32 16384, ptr %45, align 8, !dbg !4420
  br label %46, !dbg !4421

46:                                               ; preds = %44
  call void @llvm.dbg.declare(metadata ptr %7, metadata !4422, metadata !DIExpression()), !dbg !4424
  %47 = call ptr @__errno_location() #19, !dbg !4424
  %48 = load i32, ptr %47, align 4, !dbg !4424
  store i32 %48, ptr %7, align 4, !dbg !4424
  br label %49, !dbg !4424

49:                                               ; preds = %46
  call void @llvm.dbg.declare(metadata ptr %8, metadata !4425, metadata !DIExpression()), !dbg !4427
  %50 = call noundef nonnull align 8 dereferenceable(68) ptr @_ZN3Log6loggerEv(), !dbg !4427
  store ptr %50, ptr %8, align 8, !dbg !4427
  %51 = call noundef zeroext i1 @_ZN3Log16isShutdownCalledEv(), !dbg !4428
  br i1 %51, label %139, label %52, !dbg !4428

52:                                               ; preds = %49
  %53 = load ptr, ptr %8, align 8, !dbg !4428
  %54 = call noundef zeroext i1 @_ZNK4Poco6Logger5errorEv(ptr noundef nonnull align 8 dereferenceable(68) %53), !dbg !4428
  br i1 %54, label %55, label %139, !dbg !4427

55:                                               ; preds = %52
  call void @llvm.dbg.declare(metadata ptr %9, metadata !4430, metadata !DIExpression()), !dbg !4432
  call void @llvm.dbg.declare(metadata ptr %10, metadata !4433, metadata !DIExpression()), !dbg !4432
  %56 = getelementptr inbounds [1024 x i8], ptr %9, i64 0, i64 0, !dbg !4432
  %57 = call noundef ptr @_ZN3Log6prefixILi1023EEEPcS1_PKc(ptr noundef %56, ptr noundef @.str.29), !dbg !4432
  call void @_ZNSaIcEC1Ev(ptr noundef nonnull align 1 dereferenceable(1) %12) #3, !dbg !4432
  invoke void @_ZNSt7__cxx1112basic_stringIcSt11char_traitsIcESaIcEEC2IS3_EEPKcRKS3_(ptr noundef nonnull align 8 dereferenceable(32) %11, ptr noundef %57, ptr noundef nonnull align 1 dereferenceable(1) %12)
          to label %58 unwind label %112, !dbg !4432

58:                                               ; preds = %55
  invoke void @_ZNSt7__cxx1119basic_ostringstreamIcSt11char_traitsIcESaIcEEC1ERKNS_12basic_stringIcS2_S3_EESt13_Ios_Openmode(ptr noundef nonnull align 8 dereferenceable(112) %10, ptr noundef nonnull align 8 dereferenceable(32) %11, i32 noundef 2)
          to label %59 unwind label %116, !dbg !4432

59:                                               ; preds = %58
  call void @_ZNSt7__cxx1112basic_stringIcSt11char_traitsIcESaIcEED1Ev(ptr noundef nonnull align 8 dereferenceable(32) %11) #3, !dbg !4432
  call void @_ZNSaIcED1Ev(ptr noundef nonnull align 1 dereferenceable(1) %12) #3, !dbg !4432
  %60 = invoke noundef nonnull align 8 dereferenceable(8) ptr @_ZNSolsEPFRSt8ios_baseS0_E(ptr noundef nonnull align 8 dereferenceable(8) %10, ptr noundef @_ZSt9boolalphaRSt8ios_base)
          to label %61 unwind label %121, !dbg !4432

61:                                               ; preds = %59
  %62 = invoke noundef nonnull align 8 dereferenceable(8) ptr @_ZStlsISt11char_traitsIcEERSt13basic_ostreamIcT_ES5_c(ptr noundef nonnull align 8 dereferenceable(8) %60, i8 noundef signext 35)
          to label %63 unwind label %121, !dbg !4432

63:                                               ; preds = %61
  %64 = getelementptr inbounds %class.Socket, ptr %32, i32 0, i32 2, !dbg !4432
  %65 = load i32, ptr %64, align 8, !dbg !4432
  %66 = invoke noundef nonnull align 8 dereferenceable(8) ptr @_ZNSolsEi(ptr noundef nonnull align 8 dereferenceable(8) %62, i32 noundef %65)
          to label %67 unwind label %121, !dbg !4432

67:                                               ; preds = %63
  %68 = invoke noundef nonnull align 8 dereferenceable(8) ptr @_ZStlsISt11char_traitsIcEERSt13basic_ostreamIcT_ES5_PKc(ptr noundef nonnull align 8 dereferenceable(8) %66, ptr noundef @.str.39)
          to label %69 unwind label %121, !dbg !4432

69:                                               ; preds = %67
  %70 = getelementptr inbounds %class.Socket, ptr %32, i32 0, i32 4, !dbg !4432
  %71 = load i32, ptr %70, align 8, !dbg !4432
  %72 = invoke noundef nonnull align 8 dereferenceable(8) ptr @_ZNSolsEi(ptr noundef nonnull align 8 dereferenceable(8) %68, i32 noundef %71)
          to label %73 unwind label %121, !dbg !4432

73:                                               ; preds = %69
  %74 = invoke noundef nonnull align 8 dereferenceable(8) ptr @_ZStlsISt11char_traitsIcEERSt13basic_ostreamIcT_ES5_PKc(ptr noundef nonnull align 8 dereferenceable(8) %72, ptr noundef @.str.40)
          to label %75 unwind label %121, !dbg !4432

75:                                               ; preds = %73
  %76 = invoke noundef nonnull align 8 dereferenceable(8) ptr @_ZStlsISt11char_traitsIcEERSt13basic_ostreamIcT_ES5_PKc(ptr noundef nonnull align 8 dereferenceable(8) %74, ptr noundef @.str.32)
          to label %77 unwind label %121, !dbg !4432

77:                                               ; preds = %75
  %78 = load i32, ptr %7, align 4, !dbg !4432
  invoke void @_ZN4Util13symbolicErrnoB5cxx11Ei(ptr sret(%"class.std::__cxx11::basic_string") align 8 %15, i32 noundef %78)
          to label %79 unwind label %121, !dbg !4432

79:                                               ; preds = %77
  %80 = invoke noundef nonnull align 8 dereferenceable(8) ptr @_ZStlsIcSt11char_traitsIcESaIcEERSt13basic_ostreamIT_T0_ES7_RKNSt7__cxx1112basic_stringIS4_S5_T1_EE(ptr noundef nonnull align 8 dereferenceable(8) %76, ptr noundef nonnull align 8 dereferenceable(32) %15)
          to label %81 unwind label %125, !dbg !4432

81:                                               ; preds = %79
  %82 = invoke noundef nonnull align 8 dereferenceable(8) ptr @_ZStlsISt11char_traitsIcEERSt13basic_ostreamIcT_ES5_PKc(ptr noundef nonnull align 8 dereferenceable(8) %80, ptr noundef @.str.41)
          to label %83 unwind label %125, !dbg !4432

83:                                               ; preds = %81
  %84 = load i32, ptr %7, align 4, !dbg !4432
  %85 = call ptr @strerror(i32 noundef %84) #3, !dbg !4432
  %86 = invoke noundef nonnull align 8 dereferenceable(8) ptr @_ZStlsISt11char_traitsIcEERSt13basic_ostreamIcT_ES5_PKc(ptr noundef nonnull align 8 dereferenceable(8) %82, ptr noundef %85)
          to label %87 unwind label %125, !dbg !4432

87:                                               ; preds = %83
  %88 = invoke noundef nonnull align 8 dereferenceable(8) ptr @_ZStlsISt11char_traitsIcEERSt13basic_ostreamIcT_ES5_c(ptr noundef nonnull align 8 dereferenceable(8) %86, i8 noundef signext 41)
          to label %89 unwind label %125, !dbg !4432

89:                                               ; preds = %87
  call void @_ZNSt7__cxx1112basic_stringIcSt11char_traitsIcESaIcEED1Ev(ptr noundef nonnull align 8 dereferenceable(32) %15) #3, !dbg !4432
  br label %90, !dbg !4432

90:                                               ; preds = %89
  %91 = invoke noundef nonnull align 8 dereferenceable(8) ptr @_ZStlsISt11char_traitsIcEERSt13basic_ostreamIcT_ES5_PKc(ptr noundef nonnull align 8 dereferenceable(8) %10, ptr noundef @.str.10)
          to label %92 unwind label %121, !dbg !4434

92:                                               ; preds = %90
  %93 = invoke noundef nonnull align 8 dereferenceable(8) ptr @_ZStlsISt11char_traitsIcEERSt13basic_ostreamIcT_ES5_PKc(ptr noundef nonnull align 8 dereferenceable(8) %91, ptr noundef @.str.28)
          to label %94 unwind label %121, !dbg !4434

94:                                               ; preds = %92
  %95 = invoke noundef nonnull align 8 dereferenceable(8) ptr @_ZStlsISt11char_traitsIcEERSt13basic_ostreamIcT_ES5_c(ptr noundef nonnull align 8 dereferenceable(8) %93, i8 noundef signext 58)
          to label %96 unwind label %121, !dbg !4434

96:                                               ; preds = %94
  %97 = invoke noundef nonnull align 8 dereferenceable(8) ptr @_ZNSolsEi(ptr noundef nonnull align 8 dereferenceable(8) %95, i32 noundef 223)
          to label %98 unwind label %121, !dbg !4434

98:                                               ; preds = %96
  %99 = invoke noundef nonnull align 8 dereferenceable(8) ptr @_ZNSo5flushEv(ptr noundef nonnull align 8 dereferenceable(8) %10)
          to label %100 unwind label %121, !dbg !4437

100:                                              ; preds = %98
  br label %101, !dbg !4437

101:                                              ; preds = %100
  br label %102, !dbg !4437

102:                                              ; preds = %101
  %103 = load ptr, ptr %8, align 8, !dbg !4432
  %104 = load ptr, ptr %8, align 8, !dbg !4432
  %105 = call noundef nonnull align 8 dereferenceable(32) ptr @_ZNK4Poco6Logger4nameB5cxx11Ev(ptr noundef nonnull align 8 dereferenceable(68) %104), !dbg !4432
  invoke void @_ZNKSt7__cxx1119basic_ostringstreamIcSt11char_traitsIcESaIcEE3strEv(ptr sret(%"class.std::__cxx11::basic_string") align 8 %17, ptr noundef nonnull align 8 dereferenceable(112) %10)
          to label %106 unwind label %121, !dbg !4432

106:                                              ; preds = %102
  invoke void @_ZN4Poco7MessageC1ERKNSt7__cxx1112basic_stringIcSt11char_traitsIcESaIcEEES8_NS0_8PriorityE(ptr noundef nonnull align 8 dereferenceable(152) %16, ptr noundef nonnull align 8 dereferenceable(32) %105, ptr noundef nonnull align 8 dereferenceable(32) %17, i32 noundef 3)
          to label %107 unwind label %129, !dbg !4432

107:                                              ; preds = %106
  %108 = load ptr, ptr %103, align 8, !dbg !4432
  %109 = getelementptr inbounds ptr, ptr %108, i64 6, !dbg !4432
  %110 = load ptr, ptr %109, align 8, !dbg !4432
  invoke void %110(ptr noundef nonnull align 8 dereferenceable(68) %103, ptr noundef nonnull align 8 dereferenceable(152) %16)
          to label %111 unwind label %133, !dbg !4432

111:                                              ; preds = %107
  call void @_ZN4Poco7MessageD1Ev(ptr noundef nonnull align 8 dereferenceable(152) %16) #3, !dbg !4432
  call void @_ZNSt7__cxx1112basic_stringIcSt11char_traitsIcESaIcEED1Ev(ptr noundef nonnull align 8 dereferenceable(32) %17) #3, !dbg !4432
  call void @_ZNSt7__cxx1119basic_ostringstreamIcSt11char_traitsIcESaIcEED1Ev(ptr noundef nonnull align 8 dereferenceable(112) %10) #3, !dbg !4428
  br label %139, !dbg !4432

112:                                              ; preds = %55
  %113 = landingpad { ptr, i32 }
          cleanup, !dbg !4438
  %114 = extractvalue { ptr, i32 } %113, 0, !dbg !4438
  store ptr %114, ptr %13, align 8, !dbg !4438
  %115 = extractvalue { ptr, i32 } %113, 1, !dbg !4438
  store i32 %115, ptr %14, align 4, !dbg !4438
  br label %120, !dbg !4438

116:                                              ; preds = %58
  %117 = landingpad { ptr, i32 }
          cleanup, !dbg !4438
  %118 = extractvalue { ptr, i32 } %117, 0, !dbg !4438
  store ptr %118, ptr %13, align 8, !dbg !4438
  %119 = extractvalue { ptr, i32 } %117, 1, !dbg !4438
  store i32 %119, ptr %14, align 4, !dbg !4438
  call void @_ZNSt7__cxx1112basic_stringIcSt11char_traitsIcESaIcEED1Ev(ptr noundef nonnull align 8 dereferenceable(32) %11) #3, !dbg !4432
  br label %120, !dbg !4432

120:                                              ; preds = %116, %112
  call void @_ZNSaIcED1Ev(ptr noundef nonnull align 1 dereferenceable(1) %12) #3, !dbg !4432
  br label %300, !dbg !4432

121:                                              ; preds = %102, %98, %96, %94, %92, %90, %77, %75, %73, %69, %67, %63, %61, %59
  %122 = landingpad { ptr, i32 }
          cleanup, !dbg !4438
  %123 = extractvalue { ptr, i32 } %122, 0, !dbg !4438
  store ptr %123, ptr %13, align 8, !dbg !4438
  %124 = extractvalue { ptr, i32 } %122, 1, !dbg !4438
  store i32 %124, ptr %14, align 4, !dbg !4438
  br label %138, !dbg !4438

125:                                              ; preds = %87, %83, %81, %79
  %126 = landingpad { ptr, i32 }
          cleanup, !dbg !4438
  %127 = extractvalue { ptr, i32 } %126, 0, !dbg !4438
  store ptr %127, ptr %13, align 8, !dbg !4438
  %128 = extractvalue { ptr, i32 } %126, 1, !dbg !4438
  store i32 %128, ptr %14, align 4, !dbg !4438
  call void @_ZNSt7__cxx1112basic_stringIcSt11char_traitsIcESaIcEED1Ev(ptr noundef nonnull align 8 dereferenceable(32) %15) #3, !dbg !4432
  br label %138, !dbg !4432

129:                                              ; preds = %106
  %130 = landingpad { ptr, i32 }
          cleanup, !dbg !4438
  %131 = extractvalue { ptr, i32 } %130, 0, !dbg !4438
  store ptr %131, ptr %13, align 8, !dbg !4438
  %132 = extractvalue { ptr, i32 } %130, 1, !dbg !4438
  store i32 %132, ptr %14, align 4, !dbg !4438
  br label %137, !dbg !4438

133:                                              ; preds = %107
  %134 = landingpad { ptr, i32 }
          cleanup, !dbg !4438
  %135 = extractvalue { ptr, i32 } %134, 0, !dbg !4438
  store ptr %135, ptr %13, align 8, !dbg !4438
  %136 = extractvalue { ptr, i32 } %134, 1, !dbg !4438
  store i32 %136, ptr %14, align 4, !dbg !4438
  call void @_ZN4Poco7MessageD1Ev(ptr noundef nonnull align 8 dereferenceable(152) %16) #3, !dbg !4432
  br label %137, !dbg !4432

137:                                              ; preds = %133, %129
  call void @_ZNSt7__cxx1112basic_stringIcSt11char_traitsIcESaIcEED1Ev(ptr noundef nonnull align 8 dereferenceable(32) %17) #3, !dbg !4432
  br label %138, !dbg !4432

138:                                              ; preds = %137, %125, %121
  call void @_ZNSt7__cxx1119basic_ostringstreamIcSt11char_traitsIcESaIcEED1Ev(ptr noundef nonnull align 8 dereferenceable(112) %10) #3, !dbg !4428
  br label %300, !dbg !4428

139:                                              ; preds = %111, %52, %49
  br label %140, !dbg !4427

140:                                              ; preds = %139
  br label %141, !dbg !4424

141:                                              ; preds = %140
  store i1 false, ptr %3, align 1, !dbg !4439
  br label %298, !dbg !4439

142:                                              ; preds = %40
  %143 = getelementptr inbounds %class.Socket, ptr %32, i32 0, i32 4, !dbg !4440
  %144 = load i32, ptr %143, align 8, !dbg !4440
  %145 = icmp sgt i32 %144, 262144, !dbg !4443
  br i1 %145, label %146, label %224, !dbg !4444

146:                                              ; preds = %142
  br label %147, !dbg !4445

147:                                              ; preds = %146
  call void @llvm.dbg.declare(metadata ptr %18, metadata !4447, metadata !DIExpression()), !dbg !4449
  %148 = call noundef nonnull align 8 dereferenceable(68) ptr @_ZN3Log6loggerEv(), !dbg !4449
  store ptr %148, ptr %18, align 8, !dbg !4449
  %149 = call noundef zeroext i1 @_ZN3Log16isShutdownCalledEv(), !dbg !4450
  br i1 %149, label %221, label %150, !dbg !4450

150:                                              ; preds = %147
  %151 = load ptr, ptr %18, align 8, !dbg !4450
  %152 = call noundef zeroext i1 @_ZNK4Poco6Logger5traceEv(ptr noundef nonnull align 8 dereferenceable(68) %151), !dbg !4450
  br i1 %152, label %153, label %221, !dbg !4449

153:                                              ; preds = %150
  call void @llvm.dbg.declare(metadata ptr %19, metadata !4452, metadata !DIExpression()), !dbg !4454
  call void @llvm.dbg.declare(metadata ptr %20, metadata !4455, metadata !DIExpression()), !dbg !4454
  %154 = getelementptr inbounds [1024 x i8], ptr %19, i64 0, i64 0, !dbg !4454
  %155 = call noundef ptr @_ZN3Log6prefixILi1023EEEPcS1_PKc(ptr noundef %154, ptr noundef @.str.20), !dbg !4454
  call void @_ZNSaIcEC1Ev(ptr noundef nonnull align 1 dereferenceable(1) %22) #3, !dbg !4454
  invoke void @_ZNSt7__cxx1112basic_stringIcSt11char_traitsIcESaIcEEC2IS3_EEPKcRKS3_(ptr noundef nonnull align 8 dereferenceable(32) %21, ptr noundef %155, ptr noundef nonnull align 1 dereferenceable(1) %22)
          to label %156 unwind label %198, !dbg !4454

156:                                              ; preds = %153
  invoke void @_ZNSt7__cxx1119basic_ostringstreamIcSt11char_traitsIcESaIcEEC1ERKNS_12basic_stringIcS2_S3_EESt13_Ios_Openmode(ptr noundef nonnull align 8 dereferenceable(112) %20, ptr noundef nonnull align 8 dereferenceable(32) %21, i32 noundef 2)
          to label %157 unwind label %202, !dbg !4454

157:                                              ; preds = %156
  call void @_ZNSt7__cxx1112basic_stringIcSt11char_traitsIcESaIcEED1Ev(ptr noundef nonnull align 8 dereferenceable(32) %21) #3, !dbg !4454
  call void @_ZNSaIcED1Ev(ptr noundef nonnull align 1 dereferenceable(1) %22) #3, !dbg !4454
  %158 = invoke noundef nonnull align 8 dereferenceable(8) ptr @_ZNSolsEPFRSt8ios_baseS0_E(ptr noundef nonnull align 8 dereferenceable(8) %20, ptr noundef @_ZSt9boolalphaRSt8ios_base)
          to label %159 unwind label %207, !dbg !4454

159:                                              ; preds = %157
  %160 = invoke noundef nonnull align 8 dereferenceable(8) ptr @_ZStlsISt11char_traitsIcEERSt13basic_ostreamIcT_ES5_c(ptr noundef nonnull align 8 dereferenceable(8) %158, i8 noundef signext 35)
          to label %161 unwind label %207, !dbg !4454

161:                                              ; preds = %159
  %162 = getelementptr inbounds %class.Socket, ptr %32, i32 0, i32 2, !dbg !4454
  %163 = load i32, ptr %162, align 8, !dbg !4454
  %164 = invoke noundef nonnull align 8 dereferenceable(8) ptr @_ZNSolsEi(ptr noundef nonnull align 8 dereferenceable(8) %160, i32 noundef %163)
          to label %165 unwind label %207, !dbg !4454

165:                                              ; preds = %161
  %166 = invoke noundef nonnull align 8 dereferenceable(8) ptr @_ZStlsISt11char_traitsIcEERSt13basic_ostreamIcT_ES5_PKc(ptr noundef nonnull align 8 dereferenceable(8) %164, ptr noundef @.str.42)
          to label %167 unwind label %207, !dbg !4454

167:                                              ; preds = %165
  %168 = invoke noundef nonnull align 8 dereferenceable(8) ptr @_ZNSolsEi(ptr noundef nonnull align 8 dereferenceable(8) %166, i32 noundef 131072)
          to label %169 unwind label %207, !dbg !4454

169:                                              ; preds = %167
  %170 = invoke noundef nonnull align 8 dereferenceable(8) ptr @_ZStlsISt11char_traitsIcEERSt13basic_ostreamIcT_ES5_PKc(ptr noundef nonnull align 8 dereferenceable(8) %168, ptr noundef @.str.43)
          to label %171 unwind label %207, !dbg !4454

171:                                              ; preds = %169
  %172 = getelementptr inbounds %class.Socket, ptr %32, i32 0, i32 4, !dbg !4454
  %173 = load i32, ptr %172, align 8, !dbg !4454
  %174 = invoke noundef nonnull align 8 dereferenceable(8) ptr @_ZNSolsEi(ptr noundef nonnull align 8 dereferenceable(8) %170, i32 noundef %173)
          to label %175 unwind label %207, !dbg !4454

175:                                              ; preds = %171
  br label %176, !dbg !4454

176:                                              ; preds = %175
  %177 = invoke noundef nonnull align 8 dereferenceable(8) ptr @_ZStlsISt11char_traitsIcEERSt13basic_ostreamIcT_ES5_PKc(ptr noundef nonnull align 8 dereferenceable(8) %20, ptr noundef @.str.10)
          to label %178 unwind label %207, !dbg !4456

178:                                              ; preds = %176
  %179 = invoke noundef nonnull align 8 dereferenceable(8) ptr @_ZStlsISt11char_traitsIcEERSt13basic_ostreamIcT_ES5_PKc(ptr noundef nonnull align 8 dereferenceable(8) %177, ptr noundef @.str.28)
          to label %180 unwind label %207, !dbg !4456

180:                                              ; preds = %178
  %181 = invoke noundef nonnull align 8 dereferenceable(8) ptr @_ZStlsISt11char_traitsIcEERSt13basic_ostreamIcT_ES5_c(ptr noundef nonnull align 8 dereferenceable(8) %179, i8 noundef signext 58)
          to label %182 unwind label %207, !dbg !4456

182:                                              ; preds = %180
  %183 = invoke noundef nonnull align 8 dereferenceable(8) ptr @_ZNSolsEi(ptr noundef nonnull align 8 dereferenceable(8) %181, i32 noundef 231)
          to label %184 unwind label %207, !dbg !4456

184:                                              ; preds = %182
  %185 = invoke noundef nonnull align 8 dereferenceable(8) ptr @_ZNSo5flushEv(ptr noundef nonnull align 8 dereferenceable(8) %20)
          to label %186 unwind label %207, !dbg !4459

186:                                              ; preds = %184
  br label %187, !dbg !4459

187:                                              ; preds = %186
  br label %188, !dbg !4459

188:                                              ; preds = %187
  %189 = load ptr, ptr %18, align 8, !dbg !4454
  %190 = load ptr, ptr %18, align 8, !dbg !4454
  %191 = call noundef nonnull align 8 dereferenceable(32) ptr @_ZNK4Poco6Logger4nameB5cxx11Ev(ptr noundef nonnull align 8 dereferenceable(68) %190), !dbg !4454
  invoke void @_ZNKSt7__cxx1119basic_ostringstreamIcSt11char_traitsIcESaIcEE3strEv(ptr sret(%"class.std::__cxx11::basic_string") align 8 %24, ptr noundef nonnull align 8 dereferenceable(112) %20)
          to label %192 unwind label %207, !dbg !4454

192:                                              ; preds = %188
  invoke void @_ZN4Poco7MessageC1ERKNSt7__cxx1112basic_stringIcSt11char_traitsIcESaIcEEES8_NS0_8PriorityE(ptr noundef nonnull align 8 dereferenceable(152) %23, ptr noundef nonnull align 8 dereferenceable(32) %191, ptr noundef nonnull align 8 dereferenceable(32) %24, i32 noundef 8)
          to label %193 unwind label %211, !dbg !4454

193:                                              ; preds = %192
  %194 = load ptr, ptr %189, align 8, !dbg !4454
  %195 = getelementptr inbounds ptr, ptr %194, i64 6, !dbg !4454
  %196 = load ptr, ptr %195, align 8, !dbg !4454
  invoke void %196(ptr noundef nonnull align 8 dereferenceable(68) %189, ptr noundef nonnull align 8 dereferenceable(152) %23)
          to label %197 unwind label %215, !dbg !4454

197:                                              ; preds = %193
  call void @_ZN4Poco7MessageD1Ev(ptr noundef nonnull align 8 dereferenceable(152) %23) #3, !dbg !4454
  call void @_ZNSt7__cxx1112basic_stringIcSt11char_traitsIcESaIcEED1Ev(ptr noundef nonnull align 8 dereferenceable(32) %24) #3, !dbg !4454
  call void @_ZNSt7__cxx1119basic_ostringstreamIcSt11char_traitsIcESaIcEED1Ev(ptr noundef nonnull align 8 dereferenceable(112) %20) #3, !dbg !4450
  br label %221, !dbg !4454

198:                                              ; preds = %153
  %199 = landingpad { ptr, i32 }
          cleanup, !dbg !4460
  %200 = extractvalue { ptr, i32 } %199, 0, !dbg !4460
  store ptr %200, ptr %13, align 8, !dbg !4460
  %201 = extractvalue { ptr, i32 } %199, 1, !dbg !4460
  store i32 %201, ptr %14, align 4, !dbg !4460
  br label %206, !dbg !4460

202:                                              ; preds = %156
  %203 = landingpad { ptr, i32 }
          cleanup, !dbg !4460
  %204 = extractvalue { ptr, i32 } %203, 0, !dbg !4460
  store ptr %204, ptr %13, align 8, !dbg !4460
  %205 = extractvalue { ptr, i32 } %203, 1, !dbg !4460
  store i32 %205, ptr %14, align 4, !dbg !4460
  call void @_ZNSt7__cxx1112basic_stringIcSt11char_traitsIcESaIcEED1Ev(ptr noundef nonnull align 8 dereferenceable(32) %21) #3, !dbg !4454
  br label %206, !dbg !4454

206:                                              ; preds = %202, %198
  call void @_ZNSaIcED1Ev(ptr noundef nonnull align 1 dereferenceable(1) %22) #3, !dbg !4454
  br label %300, !dbg !4454

207:                                              ; preds = %188, %184, %182, %180, %178, %176, %171, %169, %167, %165, %161, %159, %157
  %208 = landingpad { ptr, i32 }
          cleanup, !dbg !4460
  %209 = extractvalue { ptr, i32 } %208, 0, !dbg !4460
  store ptr %209, ptr %13, align 8, !dbg !4460
  %210 = extractvalue { ptr, i32 } %208, 1, !dbg !4460
  store i32 %210, ptr %14, align 4, !dbg !4460
  br label %220, !dbg !4460

211:                                              ; preds = %192
  %212 = landingpad { ptr, i32 }
          cleanup, !dbg !4460
  %213 = extractvalue { ptr, i32 } %212, 0, !dbg !4460
  store ptr %213, ptr %13, align 8, !dbg !4460
  %214 = extractvalue { ptr, i32 } %212, 1, !dbg !4460
  store i32 %214, ptr %14, align 4, !dbg !4460
  br label %219, !dbg !4460

215:                                              ; preds = %193
  %216 = landingpad { ptr, i32 }
          cleanup, !dbg !4460
  %217 = extractvalue { ptr, i32 } %216, 0, !dbg !4460
  store ptr %217, ptr %13, align 8, !dbg !4460
  %218 = extractvalue { ptr, i32 } %216, 1, !dbg !4460
  store i32 %218, ptr %14, align 4, !dbg !4460
  call void @_ZN4Poco7MessageD1Ev(ptr noundef nonnull align 8 dereferenceable(152) %23) #3, !dbg !4454
  br label %219, !dbg !4454

219:                                              ; preds = %215, %211
  call void @_ZNSt7__cxx1112basic_stringIcSt11char_traitsIcESaIcEED1Ev(ptr noundef nonnull align 8 dereferenceable(32) %24) #3, !dbg !4454
  br label %220, !dbg !4454

220:                                              ; preds = %219, %207
  call void @_ZNSt7__cxx1119basic_ostringstreamIcSt11char_traitsIcESaIcEED1Ev(ptr noundef nonnull align 8 dereferenceable(112) %20) #3, !dbg !4450
  br label %300, !dbg !4450

221:                                              ; preds = %197, %150, %147
  br label %222, !dbg !4449

222:                                              ; preds = %221
  %223 = getelementptr inbounds %class.Socket, ptr %32, i32 0, i32 4, !dbg !4461
  store i32 131072, ptr %223, align 8, !dbg !4462
  br label %297, !dbg !4463

224:                                              ; preds = %142
  br label %225, !dbg !4464

225:                                              ; preds = %224
  call void @llvm.dbg.declare(metadata ptr %25, metadata !4465, metadata !DIExpression()), !dbg !4467
  %226 = call noundef nonnull align 8 dereferenceable(68) ptr @_ZN3Log6loggerEv(), !dbg !4467
  store ptr %226, ptr %25, align 8, !dbg !4467
  %227 = call noundef zeroext i1 @_ZN3Log16isShutdownCalledEv(), !dbg !4468
  br i1 %227, label %295, label %228, !dbg !4468

228:                                              ; preds = %225
  %229 = load ptr, ptr %25, align 8, !dbg !4468
  %230 = call noundef zeroext i1 @_ZNK4Poco6Logger5traceEv(ptr noundef nonnull align 8 dereferenceable(68) %229), !dbg !4468
  br i1 %230, label %231, label %295, !dbg !4467

231:                                              ; preds = %228
  call void @llvm.dbg.declare(metadata ptr %26, metadata !4470, metadata !DIExpression()), !dbg !4472
  call void @llvm.dbg.declare(metadata ptr %27, metadata !4473, metadata !DIExpression()), !dbg !4472
  %232 = getelementptr inbounds [1024 x i8], ptr %26, i64 0, i64 0, !dbg !4472
  %233 = call noundef ptr @_ZN3Log6prefixILi1023EEEPcS1_PKc(ptr noundef %232, ptr noundef @.str.20), !dbg !4472
  call void @_ZNSaIcEC1Ev(ptr noundef nonnull align 1 dereferenceable(1) %29) #3, !dbg !4472
  invoke void @_ZNSt7__cxx1112basic_stringIcSt11char_traitsIcESaIcEEC2IS3_EEPKcRKS3_(ptr noundef nonnull align 8 dereferenceable(32) %28, ptr noundef %233, ptr noundef nonnull align 1 dereferenceable(1) %29)
          to label %234 unwind label %272, !dbg !4472

234:                                              ; preds = %231
  invoke void @_ZNSt7__cxx1119basic_ostringstreamIcSt11char_traitsIcESaIcEEC1ERKNS_12basic_stringIcS2_S3_EESt13_Ios_Openmode(ptr noundef nonnull align 8 dereferenceable(112) %27, ptr noundef nonnull align 8 dereferenceable(32) %28, i32 noundef 2)
          to label %235 unwind label %276, !dbg !4472

235:                                              ; preds = %234
  call void @_ZNSt7__cxx1112basic_stringIcSt11char_traitsIcESaIcEED1Ev(ptr noundef nonnull align 8 dereferenceable(32) %28) #3, !dbg !4472
  call void @_ZNSaIcED1Ev(ptr noundef nonnull align 1 dereferenceable(1) %29) #3, !dbg !4472
  %236 = invoke noundef nonnull align 8 dereferenceable(8) ptr @_ZNSolsEPFRSt8ios_baseS0_E(ptr noundef nonnull align 8 dereferenceable(8) %27, ptr noundef @_ZSt9boolalphaRSt8ios_base)
          to label %237 unwind label %281, !dbg !4472

237:                                              ; preds = %235
  %238 = invoke noundef nonnull align 8 dereferenceable(8) ptr @_ZStlsISt11char_traitsIcEERSt13basic_ostreamIcT_ES5_c(ptr noundef nonnull align 8 dereferenceable(8) %236, i8 noundef signext 35)
          to label %239 unwind label %281, !dbg !4472

239:                                              ; preds = %237
  %240 = getelementptr inbounds %class.Socket, ptr %32, i32 0, i32 2, !dbg !4472
  %241 = load i32, ptr %240, align 8, !dbg !4472
  %242 = invoke noundef nonnull align 8 dereferenceable(8) ptr @_ZNSolsEi(ptr noundef nonnull align 8 dereferenceable(8) %238, i32 noundef %241)
          to label %243 unwind label %281, !dbg !4472

243:                                              ; preds = %239
  %244 = invoke noundef nonnull align 8 dereferenceable(8) ptr @_ZStlsISt11char_traitsIcEERSt13basic_ostreamIcT_ES5_PKc(ptr noundef nonnull align 8 dereferenceable(8) %242, ptr noundef @.str.44)
          to label %245 unwind label %281, !dbg !4472

245:                                              ; preds = %243
  %246 = getelementptr inbounds %class.Socket, ptr %32, i32 0, i32 4, !dbg !4472
  %247 = load i32, ptr %246, align 8, !dbg !4472
  %248 = invoke noundef nonnull align 8 dereferenceable(8) ptr @_ZNSolsEi(ptr noundef nonnull align 8 dereferenceable(8) %244, i32 noundef %247)
          to label %249 unwind label %281, !dbg !4472

249:                                              ; preds = %245
  br label %250, !dbg !4472

250:                                              ; preds = %249
  %251 = invoke noundef nonnull align 8 dereferenceable(8) ptr @_ZStlsISt11char_traitsIcEERSt13basic_ostreamIcT_ES5_PKc(ptr noundef nonnull align 8 dereferenceable(8) %27, ptr noundef @.str.10)
          to label %252 unwind label %281, !dbg !4474

252:                                              ; preds = %250
  %253 = invoke noundef nonnull align 8 dereferenceable(8) ptr @_ZStlsISt11char_traitsIcEERSt13basic_ostreamIcT_ES5_PKc(ptr noundef nonnull align 8 dereferenceable(8) %251, ptr noundef @.str.28)
          to label %254 unwind label %281, !dbg !4474

254:                                              ; preds = %252
  %255 = invoke noundef nonnull align 8 dereferenceable(8) ptr @_ZStlsISt11char_traitsIcEERSt13basic_ostreamIcT_ES5_c(ptr noundef nonnull align 8 dereferenceable(8) %253, i8 noundef signext 58)
          to label %256 unwind label %281, !dbg !4474

256:                                              ; preds = %254
  %257 = invoke noundef nonnull align 8 dereferenceable(8) ptr @_ZNSolsEi(ptr noundef nonnull align 8 dereferenceable(8) %255, i32 noundef 235)
          to label %258 unwind label %281, !dbg !4474

258:                                              ; preds = %256
  %259 = invoke noundef nonnull align 8 dereferenceable(8) ptr @_ZNSo5flushEv(ptr noundef nonnull align 8 dereferenceable(8) %27)
          to label %260 unwind label %281, !dbg !4477

260:                                              ; preds = %258
  br label %261, !dbg !4477

261:                                              ; preds = %260
  br label %262, !dbg !4477

262:                                              ; preds = %261
  %263 = load ptr, ptr %25, align 8, !dbg !4472
  %264 = load ptr, ptr %25, align 8, !dbg !4472
  %265 = call noundef nonnull align 8 dereferenceable(32) ptr @_ZNK4Poco6Logger4nameB5cxx11Ev(ptr noundef nonnull align 8 dereferenceable(68) %264), !dbg !4472
  invoke void @_ZNKSt7__cxx1119basic_ostringstreamIcSt11char_traitsIcESaIcEE3strEv(ptr sret(%"class.std::__cxx11::basic_string") align 8 %31, ptr noundef nonnull align 8 dereferenceable(112) %27)
          to label %266 unwind label %281, !dbg !4472

266:                                              ; preds = %262
  invoke void @_ZN4Poco7MessageC1ERKNSt7__cxx1112basic_stringIcSt11char_traitsIcESaIcEEES8_NS0_8PriorityE(ptr noundef nonnull align 8 dereferenceable(152) %30, ptr noundef nonnull align 8 dereferenceable(32) %265, ptr noundef nonnull align 8 dereferenceable(32) %31, i32 noundef 8)
          to label %267 unwind label %285, !dbg !4472

267:                                              ; preds = %266
  %268 = load ptr, ptr %263, align 8, !dbg !4472
  %269 = getelementptr inbounds ptr, ptr %268, i64 6, !dbg !4472
  %270 = load ptr, ptr %269, align 8, !dbg !4472
  invoke void %270(ptr noundef nonnull align 8 dereferenceable(68) %263, ptr noundef nonnull align 8 dereferenceable(152) %30)
          to label %271 unwind label %289, !dbg !4472

271:                                              ; preds = %267
  call void @_ZN4Poco7MessageD1Ev(ptr noundef nonnull align 8 dereferenceable(152) %30) #3, !dbg !4472
  call void @_ZNSt7__cxx1112basic_stringIcSt11char_traitsIcESaIcEED1Ev(ptr noundef nonnull align 8 dereferenceable(32) %31) #3, !dbg !4472
  call void @_ZNSt7__cxx1119basic_ostringstreamIcSt11char_traitsIcESaIcEED1Ev(ptr noundef nonnull align 8 dereferenceable(112) %27) #3, !dbg !4468
  br label %295, !dbg !4472

272:                                              ; preds = %231
  %273 = landingpad { ptr, i32 }
          cleanup, !dbg !4478
  %274 = extractvalue { ptr, i32 } %273, 0, !dbg !4478
  store ptr %274, ptr %13, align 8, !dbg !4478
  %275 = extractvalue { ptr, i32 } %273, 1, !dbg !4478
  store i32 %275, ptr %14, align 4, !dbg !4478
  br label %280, !dbg !4478

276:                                              ; preds = %234
  %277 = landingpad { ptr, i32 }
          cleanup, !dbg !4478
  %278 = extractvalue { ptr, i32 } %277, 0, !dbg !4478
  store ptr %278, ptr %13, align 8, !dbg !4478
  %279 = extractvalue { ptr, i32 } %277, 1, !dbg !4478
  store i32 %279, ptr %14, align 4, !dbg !4478
  call void @_ZNSt7__cxx1112basic_stringIcSt11char_traitsIcESaIcEED1Ev(ptr noundef nonnull align 8 dereferenceable(32) %28) #3, !dbg !4472
  br label %280, !dbg !4472

280:                                              ; preds = %276, %272
  call void @_ZNSaIcED1Ev(ptr noundef nonnull align 1 dereferenceable(1) %29) #3, !dbg !4472
  br label %300, !dbg !4472

281:                                              ; preds = %262, %258, %256, %254, %252, %250, %245, %243, %239, %237, %235
  %282 = landingpad { ptr, i32 }
          cleanup, !dbg !4478
  %283 = extractvalue { ptr, i32 } %282, 0, !dbg !4478
  store ptr %283, ptr %13, align 8, !dbg !4478
  %284 = extractvalue { ptr, i32 } %282, 1, !dbg !4478
  store i32 %284, ptr %14, align 4, !dbg !4478
  br label %294, !dbg !4478

285:                                              ; preds = %266
  %286 = landingpad { ptr, i32 }
          cleanup, !dbg !4478
  %287 = extractvalue { ptr, i32 } %286, 0, !dbg !4478
  store ptr %287, ptr %13, align 8, !dbg !4478
  %288 = extractvalue { ptr, i32 } %286, 1, !dbg !4478
  store i32 %288, ptr %14, align 4, !dbg !4478
  br label %293, !dbg !4478

289:                                              ; preds = %267
  %290 = landingpad { ptr, i32 }
          cleanup, !dbg !4478
  %291 = extractvalue { ptr, i32 } %290, 0, !dbg !4478
  store ptr %291, ptr %13, align 8, !dbg !4478
  %292 = extractvalue { ptr, i32 } %290, 1, !dbg !4478
  store i32 %292, ptr %14, align 4, !dbg !4478
  call void @_ZN4Poco7MessageD1Ev(ptr noundef nonnull align 8 dereferenceable(152) %30) #3, !dbg !4472
  br label %293, !dbg !4472

293:                                              ; preds = %289, %285
  call void @_ZNSt7__cxx1112basic_stringIcSt11char_traitsIcESaIcEED1Ev(ptr noundef nonnull align 8 dereferenceable(32) %31) #3, !dbg !4472
  br label %294, !dbg !4472

294:                                              ; preds = %293, %281
  call void @_ZNSt7__cxx1119basic_ostringstreamIcSt11char_traitsIcESaIcEED1Ev(ptr noundef nonnull align 8 dereferenceable(112) %27) #3, !dbg !4468
  br label %300, !dbg !4468

295:                                              ; preds = %271, %228, %225
  br label %296, !dbg !4467

296:                                              ; preds = %295
  br label %297

297:                                              ; preds = %296, %222
  store i1 true, ptr %3, align 1, !dbg !4479
  br label %298, !dbg !4479

298:                                              ; preds = %297, %141
  %299 = load i1, ptr %3, align 1, !dbg !4480
  ret i1 %299, !dbg !4480

300:                                              ; preds = %294, %280, %220, %206, %138, %120
  %301 = load ptr, ptr %13, align 8, !dbg !4432
  %302 = load i32, ptr %14, align 4, !dbg !4432
  %303 = insertvalue { ptr, i32 } poison, ptr %301, 0, !dbg !4432
  %304 = insertvalue { ptr, i32 } %303, i32 %302, 1, !dbg !4432
  resume { ptr, i32 } %304, !dbg !4432
}

declare void @_ZN4Poco3Net11HTTPMessage16setContentLengthEl(ptr noundef nonnull align 8 dereferenceable(72), i64 noundef) #1

; Function Attrs: mustprogress noinline nounwind optnone uwtable
define linkonce_odr dso_local noundef zeroext i1 @_ZNK4Poco6Logger5traceEv(ptr noundef nonnull align 8 dereferenceable(68) %0) #7 comdat align 2 !dbg !4481 {
  %2 = alloca ptr, align 8
  store ptr %0, ptr %2, align 8
  call void @llvm.dbg.declare(metadata ptr %2, metadata !4483, metadata !DIExpression()), !dbg !4484
  %3 = load ptr, ptr %2, align 8
  %4 = getelementptr inbounds %"class.Poco::Logger", ptr %3, i32 0, i32 4, !dbg !4485
  %5 = load i32, ptr %4, align 8, !dbg !4485
  %6 = icmp sge i32 %5, 8, !dbg !4486
  ret i1 %6, !dbg !4487
}

declare void @_ZN12StreamSocket4sendERN4Poco3Net12HTTPResponseE(ptr noundef nonnull align 8 dereferenceable(241), ptr noundef nonnull align 8 dereferenceable(112)) #1

; Function Attrs: noinline nounwind optnone uwtable
define linkonce_odr dso_local void @_ZN8FileUtil4StatD2Ev(ptr noundef nonnull align 8 dereferenceable(184) %0) unnamed_addr #4 comdat align 2 !dbg !4488 {
  %2 = alloca ptr, align 8
  store ptr %0, ptr %2, align 8
  call void @llvm.dbg.declare(metadata ptr %2, metadata !4492, metadata !DIExpression()), !dbg !4493
  %3 = load ptr, ptr %2, align 8
  %4 = getelementptr inbounds %"class.FileUtil::Stat", ptr %3, i32 0, i32 0, !dbg !4494
  call void @_ZNSt7__cxx1112basic_stringIcSt11char_traitsIcESaIcEED1Ev(ptr noundef nonnull align 8 dereferenceable(32) %4) #3, !dbg !4494
  ret void, !dbg !4496
}

; Function Attrs: nounwind
declare void @_ZN4Poco3Net12HTTPResponseD1Ev(ptr noundef nonnull align 8 dereferenceable(112)) unnamed_addr #2

; Function Attrs: nounwind
declare noundef ptr @_ZNKSt7__cxx1112basic_stringIcSt11char_traitsIcESaIcEE4dataEv(ptr noundef nonnull align 8 dereferenceable(32)) #2

; Function Attrs: mustprogress noinline optnone uwtable
define linkonce_odr dso_local void @_ZN6Socket19assertCorrectThreadEPKci(ptr noundef nonnull align 8 dereferenceable(64) %0, ptr noundef %1, i32 noundef %2) #5 comdat align 2 personality ptr @__gxx_personality_v0 !dbg !4497 {
  %4 = alloca ptr, align 8
  %5 = alloca ptr, align 8
  %6 = alloca i32, align 4
  %7 = alloca i8, align 1
  %8 = alloca %"class.std::thread::id", align 8
  %9 = alloca %"class.std::thread::id", align 8
  %10 = alloca %"class.std::thread::id", align 8
  %11 = alloca %"class.std::thread::id", align 8
  %12 = alloca ptr, align 8
  %13 = alloca [1024 x i8], align 16
  %14 = alloca %"class.std::__cxx11::basic_ostringstream", align 8
  %15 = alloca %"class.std::__cxx11::basic_string", align 8
  %16 = alloca %"class.std::allocator", align 1
  %17 = alloca ptr, align 8
  %18 = alloca i32, align 4
  %19 = alloca %"class.std::__cxx11::basic_string", align 8
  %20 = alloca %"class.std::thread::id", align 8
  %21 = alloca %"class.Poco::Message", align 8
  %22 = alloca %"class.std::__cxx11::basic_string", align 8
  store ptr %0, ptr %4, align 8
  call void @llvm.dbg.declare(metadata ptr %4, metadata !4501, metadata !DIExpression()), !dbg !4502
  store ptr %1, ptr %5, align 8
  call void @llvm.dbg.declare(metadata ptr %5, metadata !4503, metadata !DIExpression()), !dbg !4504
  store i32 %2, ptr %6, align 4
  call void @llvm.dbg.declare(metadata ptr %6, metadata !4505, metadata !DIExpression()), !dbg !4506
  %23 = load ptr, ptr %4, align 8
  %24 = call noundef zeroext i1 @_ZNKSt6atomicIbEcvbEv(ptr noundef nonnull align 1 dereferenceable(1) @_ZN6Socket19InhibitThreadChecksE) #3, !dbg !4507
  br i1 %24, label %25, label %26, !dbg !4509

25:                                               ; preds = %3
  br label %153, !dbg !4510

26:                                               ; preds = %3
  call void @llvm.dbg.declare(metadata ptr %7, metadata !4511, metadata !DIExpression()), !dbg !4512
  %27 = getelementptr inbounds %class.Socket, ptr %23, i32 0, i32 5, !dbg !4513
  call void @llvm.memcpy.p0.p0.i64(ptr align 8 %8, ptr align 8 %27, i64 8, i1 false), !dbg !4513
  call void @_ZNSt6thread2idC2Ev(ptr noundef nonnull align 8 dereferenceable(8) %9) #3, !dbg !4514
  %28 = getelementptr inbounds %"class.std::thread::id", ptr %8, i32 0, i32 0, !dbg !4515
  %29 = load i64, ptr %28, align 8, !dbg !4515
  %30 = getelementptr inbounds %"class.std::thread::id", ptr %9, i32 0, i32 0, !dbg !4515
  %31 = load i64, ptr %30, align 8, !dbg !4515
  %32 = call noundef zeroext i1 @_ZSteqNSt6thread2idES0_(i64 %29, i64 %31) #3, !dbg !4515
  br i1 %32, label %42, label %33, !dbg !4516

33:                                               ; preds = %26
  %34 = call i64 @_ZNSt11this_thread6get_idEv() #3, !dbg !4517
  %35 = getelementptr inbounds %"class.std::thread::id", ptr %10, i32 0, i32 0, !dbg !4517
  store i64 %34, ptr %35, align 8, !dbg !4517
  %36 = getelementptr inbounds %class.Socket, ptr %23, i32 0, i32 5, !dbg !4518
  call void @llvm.memcpy.p0.p0.i64(ptr align 8 %11, ptr align 8 %36, i64 8, i1 false), !dbg !4518
  %37 = getelementptr inbounds %"class.std::thread::id", ptr %10, i32 0, i32 0, !dbg !4519
  %38 = load i64, ptr %37, align 8, !dbg !4519
  %39 = getelementptr inbounds %"class.std::thread::id", ptr %11, i32 0, i32 0, !dbg !4519
  %40 = load i64, ptr %39, align 8, !dbg !4519
  %41 = call noundef zeroext i1 @_ZSteqNSt6thread2idES0_(i64 %38, i64 %40) #3, !dbg !4519
  br label %42, !dbg !4516

42:                                               ; preds = %33, %26
  %43 = phi i1 [ true, %26 ], [ %41, %33 ]
  %44 = zext i1 %43 to i8, !dbg !4512
  store i8 %44, ptr %7, align 1, !dbg !4512
  %45 = load i8, ptr %7, align 1, !dbg !4520
  %46 = trunc i8 %45 to i1, !dbg !4520
  br i1 %46, label %153, label %47, !dbg !4522

47:                                               ; preds = %42
  br label %48, !dbg !4523

48:                                               ; preds = %47
  call void @llvm.dbg.declare(metadata ptr %12, metadata !4524, metadata !DIExpression()), !dbg !4526
  %49 = call noundef nonnull align 8 dereferenceable(68) ptr @_ZN3Log6loggerEv(), !dbg !4526
  store ptr %49, ptr %12, align 8, !dbg !4526
  %50 = call noundef zeroext i1 @_ZN3Log16isShutdownCalledEv(), !dbg !4527
  br i1 %50, label %151, label %51, !dbg !4527

51:                                               ; preds = %48
  %52 = load ptr, ptr %12, align 8, !dbg !4527
  %53 = call noundef zeroext i1 @_ZNK4Poco6Logger5errorEv(ptr noundef nonnull align 8 dereferenceable(68) %52), !dbg !4527
  br i1 %53, label %54, label %151, !dbg !4526

54:                                               ; preds = %51
  call void @llvm.dbg.declare(metadata ptr %13, metadata !4529, metadata !DIExpression()), !dbg !4531
  call void @llvm.dbg.declare(metadata ptr %14, metadata !4532, metadata !DIExpression()), !dbg !4531
  %55 = getelementptr inbounds [1024 x i8], ptr %13, i64 0, i64 0, !dbg !4531
  %56 = call noundef ptr @_ZN3Log6prefixILi1023EEEPcS1_PKc(ptr noundef %55, ptr noundef @.str.29), !dbg !4531
  call void @_ZNSaIcEC1Ev(ptr noundef nonnull align 1 dereferenceable(1) %16) #3, !dbg !4531
  invoke void @_ZNSt7__cxx1112basic_stringIcSt11char_traitsIcESaIcEEC2IS3_EEPKcRKS3_(ptr noundef nonnull align 8 dereferenceable(32) %15, ptr noundef %56, ptr noundef nonnull align 1 dereferenceable(1) %16)
          to label %57 unwind label %124, !dbg !4531

57:                                               ; preds = %54
  invoke void @_ZNSt7__cxx1119basic_ostringstreamIcSt11char_traitsIcESaIcEEC1ERKNS_12basic_stringIcS2_S3_EESt13_Ios_Openmode(ptr noundef nonnull align 8 dereferenceable(112) %14, ptr noundef nonnull align 8 dereferenceable(32) %15, i32 noundef 2)
          to label %58 unwind label %128, !dbg !4531

58:                                               ; preds = %57
  call void @_ZNSt7__cxx1112basic_stringIcSt11char_traitsIcESaIcEED1Ev(ptr noundef nonnull align 8 dereferenceable(32) %15) #3, !dbg !4531
  call void @_ZNSaIcED1Ev(ptr noundef nonnull align 1 dereferenceable(1) %16) #3, !dbg !4531
  %59 = invoke noundef nonnull align 8 dereferenceable(8) ptr @_ZNSolsEPFRSt8ios_baseS0_E(ptr noundef nonnull align 8 dereferenceable(8) %14, ptr noundef @_ZSt9boolalphaRSt8ios_base)
          to label %60 unwind label %133, !dbg !4531

60:                                               ; preds = %58
  %61 = invoke noundef nonnull align 8 dereferenceable(8) ptr @_ZStlsISt11char_traitsIcEERSt13basic_ostreamIcT_ES5_c(ptr noundef nonnull align 8 dereferenceable(8) %59, i8 noundef signext 35)
          to label %62 unwind label %133, !dbg !4531

62:                                               ; preds = %60
  %63 = getelementptr inbounds %class.Socket, ptr %23, i32 0, i32 2, !dbg !4531
  %64 = load i32, ptr %63, align 8, !dbg !4531
  %65 = invoke noundef nonnull align 8 dereferenceable(8) ptr @_ZNSolsEi(ptr noundef nonnull align 8 dereferenceable(8) %61, i32 noundef %64)
          to label %66 unwind label %133, !dbg !4531

66:                                               ; preds = %62
  %67 = invoke noundef nonnull align 8 dereferenceable(8) ptr @_ZStlsISt11char_traitsIcEERSt13basic_ostreamIcT_ES5_PKc(ptr noundef nonnull align 8 dereferenceable(8) %65, ptr noundef @.str.30)
          to label %68 unwind label %133, !dbg !4531

68:                                               ; preds = %66
  %69 = getelementptr inbounds %class.Socket, ptr %23, i32 0, i32 5, !dbg !4531
  invoke void @_ZN3Log9to_stringB5cxx11ERKNSt6thread2idE(ptr sret(%"class.std::__cxx11::basic_string") align 8 %19, ptr noundef nonnull align 8 dereferenceable(8) %69)
          to label %70 unwind label %133, !dbg !4531

70:                                               ; preds = %68
  %71 = invoke noundef nonnull align 8 dereferenceable(8) ptr @_ZStlsIcSt11char_traitsIcESaIcEERSt13basic_ostreamIT_T0_ES7_RKNSt7__cxx1112basic_stringIS4_S5_T1_EE(ptr noundef nonnull align 8 dereferenceable(8) %67, ptr noundef nonnull align 8 dereferenceable(32) %19)
          to label %72 unwind label %137, !dbg !4531

72:                                               ; preds = %70
  %73 = invoke noundef nonnull align 8 dereferenceable(8) ptr @_ZStlsISt11char_traitsIcEERSt13basic_ostreamIcT_ES5_PKc(ptr noundef nonnull align 8 dereferenceable(8) %71, ptr noundef @.str.31)
          to label %74 unwind label %137, !dbg !4531

74:                                               ; preds = %72
  %75 = call i64 @_ZNSt11this_thread6get_idEv() #3, !dbg !4531
  %76 = getelementptr inbounds %"class.std::thread::id", ptr %20, i32 0, i32 0, !dbg !4531
  store i64 %75, ptr %76, align 8, !dbg !4531
  %77 = getelementptr inbounds %"class.std::thread::id", ptr %20, i32 0, i32 0, !dbg !4531
  %78 = load i64, ptr %77, align 8, !dbg !4531
  %79 = invoke noundef nonnull align 8 dereferenceable(8) ptr @_ZStlsIcSt11char_traitsIcEERSt13basic_ostreamIT_T0_ES6_NSt6thread2idE(ptr noundef nonnull align 8 dereferenceable(8) %73, i64 %78)
          to label %80 unwind label %137, !dbg !4531

80:                                               ; preds = %74
  %81 = invoke noundef nonnull align 8 dereferenceable(8) ptr @_ZStlsISt11char_traitsIcEERSt13basic_ostreamIcT_ES5_PKc(ptr noundef nonnull align 8 dereferenceable(8) %79, ptr noundef @.str.32)
          to label %82 unwind label %137, !dbg !4531

82:                                               ; preds = %80
  %83 = invoke noundef i32 @_ZN4Util11getThreadIdEv()
          to label %84 unwind label %137, !dbg !4531

84:                                               ; preds = %82
  %85 = invoke noundef nonnull align 8 dereferenceable(8) ptr @_ZNSolsEi(ptr noundef nonnull align 8 dereferenceable(8) %81, i32 noundef %83)
          to label %86 unwind label %137, !dbg !4531

86:                                               ; preds = %84
  %87 = invoke noundef nonnull align 8 dereferenceable(8) ptr @_ZStlsISt11char_traitsIcEERSt13basic_ostreamIcT_ES5_PKc(ptr noundef nonnull align 8 dereferenceable(8) %85, ptr noundef @.str.33)
          to label %88 unwind label %137, !dbg !4531

88:                                               ; preds = %86
  %89 = invoke noundef nonnull align 8 dereferenceable(8) ptr @_ZStlsISt11char_traitsIcEERSt13basic_ostreamIcT_ES5_PKc(ptr noundef nonnull align 8 dereferenceable(8) %87, ptr noundef @.str.32)
          to label %90 unwind label %137, !dbg !4531

90:                                               ; preds = %88
  %91 = load ptr, ptr %5, align 8, !dbg !4531
  %92 = invoke noundef nonnull align 8 dereferenceable(8) ptr @_ZStlsISt11char_traitsIcEERSt13basic_ostreamIcT_ES5_PKc(ptr noundef nonnull align 8 dereferenceable(8) %89, ptr noundef %91)
          to label %93 unwind label %137, !dbg !4531

93:                                               ; preds = %90
  %94 = invoke noundef nonnull align 8 dereferenceable(8) ptr @_ZStlsISt11char_traitsIcEERSt13basic_ostreamIcT_ES5_PKc(ptr noundef nonnull align 8 dereferenceable(8) %92, ptr noundef @.str.34)
          to label %95 unwind label %137, !dbg !4531

95:                                               ; preds = %93
  %96 = load i32, ptr %6, align 4, !dbg !4531
  %97 = invoke noundef nonnull align 8 dereferenceable(8) ptr @_ZNSolsEi(ptr noundef nonnull align 8 dereferenceable(8) %94, i32 noundef %96)
          to label %98 unwind label %137, !dbg !4531

98:                                               ; preds = %95
  %99 = invoke noundef nonnull align 8 dereferenceable(8) ptr @_ZStlsISt11char_traitsIcEERSt13basic_ostreamIcT_ES5_PKc(ptr noundef nonnull align 8 dereferenceable(8) %97, ptr noundef @.str.33)
          to label %100 unwind label %137, !dbg !4531

100:                                              ; preds = %98
  call void @_ZNSt7__cxx1112basic_stringIcSt11char_traitsIcESaIcEED1Ev(ptr noundef nonnull align 8 dereferenceable(32) %19) #3, !dbg !4531
  br label %101, !dbg !4531

101:                                              ; preds = %100
  %102 = invoke noundef nonnull align 8 dereferenceable(8) ptr @_ZStlsISt11char_traitsIcEERSt13basic_ostreamIcT_ES5_PKc(ptr noundef nonnull align 8 dereferenceable(8) %14, ptr noundef @.str.10)
          to label %103 unwind label %133, !dbg !4533

103:                                              ; preds = %101
  %104 = invoke noundef nonnull align 8 dereferenceable(8) ptr @_ZStlsISt11char_traitsIcEERSt13basic_ostreamIcT_ES5_PKc(ptr noundef nonnull align 8 dereferenceable(8) %102, ptr noundef @.str.28)
          to label %105 unwind label %133, !dbg !4533

105:                                              ; preds = %103
  %106 = invoke noundef nonnull align 8 dereferenceable(8) ptr @_ZStlsISt11char_traitsIcEERSt13basic_ostreamIcT_ES5_c(ptr noundef nonnull align 8 dereferenceable(8) %104, i8 noundef signext 58)
          to label %107 unwind label %133, !dbg !4533

107:                                              ; preds = %105
  %108 = invoke noundef nonnull align 8 dereferenceable(8) ptr @_ZNSolsEi(ptr noundef nonnull align 8 dereferenceable(8) %106, i32 noundef 344)
          to label %109 unwind label %133, !dbg !4533

109:                                              ; preds = %107
  %110 = invoke noundef nonnull align 8 dereferenceable(8) ptr @_ZNSo5flushEv(ptr noundef nonnull align 8 dereferenceable(8) %14)
          to label %111 unwind label %133, !dbg !4536

111:                                              ; preds = %109
  br label %112, !dbg !4536

112:                                              ; preds = %111
  br label %113, !dbg !4536

113:                                              ; preds = %112
  %114 = load ptr, ptr %12, align 8, !dbg !4531
  %115 = load ptr, ptr %12, align 8, !dbg !4531
  %116 = invoke noundef nonnull align 8 dereferenceable(32) ptr @_ZNK4Poco6Logger4nameB5cxx11Ev(ptr noundef nonnull align 8 dereferenceable(68) %115)
          to label %117 unwind label %133, !dbg !4531

117:                                              ; preds = %113
  invoke void @_ZNKSt7__cxx1119basic_ostringstreamIcSt11char_traitsIcESaIcEE3strEv(ptr sret(%"class.std::__cxx11::basic_string") align 8 %22, ptr noundef nonnull align 8 dereferenceable(112) %14)
          to label %118 unwind label %133, !dbg !4531

118:                                              ; preds = %117
  invoke void @_ZN4Poco7MessageC1ERKNSt7__cxx1112basic_stringIcSt11char_traitsIcESaIcEEES8_NS0_8PriorityE(ptr noundef nonnull align 8 dereferenceable(152) %21, ptr noundef nonnull align 8 dereferenceable(32) %116, ptr noundef nonnull align 8 dereferenceable(32) %22, i32 noundef 3)
          to label %119 unwind label %141, !dbg !4531

119:                                              ; preds = %118
  %120 = load ptr, ptr %114, align 8, !dbg !4531
  %121 = getelementptr inbounds ptr, ptr %120, i64 6, !dbg !4531
  %122 = load ptr, ptr %121, align 8, !dbg !4531
  invoke void %122(ptr noundef nonnull align 8 dereferenceable(68) %114, ptr noundef nonnull align 8 dereferenceable(152) %21)
          to label %123 unwind label %145, !dbg !4531

123:                                              ; preds = %119
  call void @_ZN4Poco7MessageD1Ev(ptr noundef nonnull align 8 dereferenceable(152) %21) #3, !dbg !4531
  call void @_ZNSt7__cxx1112basic_stringIcSt11char_traitsIcESaIcEED1Ev(ptr noundef nonnull align 8 dereferenceable(32) %22) #3, !dbg !4531
  call void @_ZNSt7__cxx1119basic_ostringstreamIcSt11char_traitsIcESaIcEED1Ev(ptr noundef nonnull align 8 dereferenceable(112) %14) #3, !dbg !4527
  br label %151, !dbg !4531

124:                                              ; preds = %54
  %125 = landingpad { ptr, i32 }
          cleanup, !dbg !4537
  %126 = extractvalue { ptr, i32 } %125, 0, !dbg !4537
  store ptr %126, ptr %17, align 8, !dbg !4537
  %127 = extractvalue { ptr, i32 } %125, 1, !dbg !4537
  store i32 %127, ptr %18, align 4, !dbg !4537
  br label %132, !dbg !4537

128:                                              ; preds = %57
  %129 = landingpad { ptr, i32 }
          cleanup, !dbg !4537
  %130 = extractvalue { ptr, i32 } %129, 0, !dbg !4537
  store ptr %130, ptr %17, align 8, !dbg !4537
  %131 = extractvalue { ptr, i32 } %129, 1, !dbg !4537
  store i32 %131, ptr %18, align 4, !dbg !4537
  call void @_ZNSt7__cxx1112basic_stringIcSt11char_traitsIcESaIcEED1Ev(ptr noundef nonnull align 8 dereferenceable(32) %15) #3, !dbg !4531
  br label %132, !dbg !4531

132:                                              ; preds = %128, %124
  call void @_ZNSaIcED1Ev(ptr noundef nonnull align 1 dereferenceable(1) %16) #3, !dbg !4531
  br label %154, !dbg !4531

133:                                              ; preds = %117, %113, %109, %107, %105, %103, %101, %68, %66, %62, %60, %58
  %134 = landingpad { ptr, i32 }
          cleanup, !dbg !4537
  %135 = extractvalue { ptr, i32 } %134, 0, !dbg !4537
  store ptr %135, ptr %17, align 8, !dbg !4537
  %136 = extractvalue { ptr, i32 } %134, 1, !dbg !4537
  store i32 %136, ptr %18, align 4, !dbg !4537
  br label %150, !dbg !4537

137:                                              ; preds = %98, %95, %93, %90, %88, %86, %84, %82, %80, %74, %72, %70
  %138 = landingpad { ptr, i32 }
          cleanup, !dbg !4537
  %139 = extractvalue { ptr, i32 } %138, 0, !dbg !4537
  store ptr %139, ptr %17, align 8, !dbg !4537
  %140 = extractvalue { ptr, i32 } %138, 1, !dbg !4537
  store i32 %140, ptr %18, align 4, !dbg !4537
  call void @_ZNSt7__cxx1112basic_stringIcSt11char_traitsIcESaIcEED1Ev(ptr noundef nonnull align 8 dereferenceable(32) %19) #3, !dbg !4531
  br label %150, !dbg !4531

141:                                              ; preds = %118
  %142 = landingpad { ptr, i32 }
          cleanup, !dbg !4537
  %143 = extractvalue { ptr, i32 } %142, 0, !dbg !4537
  store ptr %143, ptr %17, align 8, !dbg !4537
  %144 = extractvalue { ptr, i32 } %142, 1, !dbg !4537
  store i32 %144, ptr %18, align 4, !dbg !4537
  br label %149, !dbg !4537

145:                                              ; preds = %119
  %146 = landingpad { ptr, i32 }
          cleanup, !dbg !4537
  %147 = extractvalue { ptr, i32 } %146, 0, !dbg !4537
  store ptr %147, ptr %17, align 8, !dbg !4537
  %148 = extractvalue { ptr, i32 } %146, 1, !dbg !4537
  store i32 %148, ptr %18, align 4, !dbg !4537
  call void @_ZN4Poco7MessageD1Ev(ptr noundef nonnull align 8 dereferenceable(152) %21) #3, !dbg !4531
  br label %149, !dbg !4531

149:                                              ; preds = %145, %141
  call void @_ZNSt7__cxx1112basic_stringIcSt11char_traitsIcESaIcEED1Ev(ptr noundef nonnull align 8 dereferenceable(32) %22) #3, !dbg !4531
  br label %150, !dbg !4531

150:                                              ; preds = %149, %137, %133
  call void @_ZNSt7__cxx1119basic_ostringstreamIcSt11char_traitsIcESaIcEED1Ev(ptr noundef nonnull align 8 dereferenceable(112) %14) #3, !dbg !4527
  br label %154, !dbg !4527

151:                                              ; preds = %123, %51, %48
  br label %152, !dbg !4526

152:                                              ; preds = %151
  br label %153, !dbg !4526

153:                                              ; preds = %25, %152, %42
  ret void, !dbg !4538

154:                                              ; preds = %150, %132
  %155 = load ptr, ptr %17, align 8, !dbg !4531
  %156 = load i32, ptr %18, align 4, !dbg !4531
  %157 = insertvalue { ptr, i32 } poison, ptr %155, 0, !dbg !4531
  %158 = insertvalue { ptr, i32 } %157, i32 %156, 1, !dbg !4531
  resume { ptr, i32 } %158, !dbg !4531
}

; Function Attrs: mustprogress noinline optnone uwtable
define linkonce_odr dso_local void @_ZN6Buffer6appendEPKci(ptr noundef nonnull align 8 dereferenceable(40) %0, ptr noundef %1, i32 noundef %2) #5 comdat align 2 !dbg !4539 {
  %4 = alloca ptr, align 8
  %5 = alloca ptr, align 8
  %6 = alloca i32, align 4
  %7 = alloca %"class.__gnu_cxx::__normal_iterator.22", align 8
  %8 = alloca %"class.__gnu_cxx::__normal_iterator", align 8
  %9 = alloca %"class.__gnu_cxx::__normal_iterator", align 8
  store ptr %0, ptr %4, align 8
  call void @llvm.dbg.declare(metadata ptr %4, metadata !4546, metadata !DIExpression()), !dbg !4548
  store ptr %1, ptr %5, align 8
  call void @llvm.dbg.declare(metadata ptr %5, metadata !4549, metadata !DIExpression()), !dbg !4550
  store i32 %2, ptr %6, align 4
  call void @llvm.dbg.declare(metadata ptr %6, metadata !4551, metadata !DIExpression()), !dbg !4552
  %10 = load ptr, ptr %4, align 8
  %11 = getelementptr inbounds %class.Buffer, ptr %10, i32 0, i32 2, !dbg !4553
  %12 = getelementptr inbounds %class.Buffer, ptr %10, i32 0, i32 2, !dbg !4554
  %13 = call ptr @_ZNSt6vectorIcSaIcEE3endEv(ptr noundef nonnull align 8 dereferenceable(24) %12) #3, !dbg !4555
  %14 = getelementptr inbounds %"class.__gnu_cxx::__normal_iterator", ptr %8, i32 0, i32 0, !dbg !4555
  store ptr %13, ptr %14, align 8, !dbg !4555
  call void @_ZN9__gnu_cxx17__normal_iteratorIPKcSt6vectorIcSaIcEEEC2IPcEERKNS0_IT_NS_11__enable_ifIXsr3std10__are_sameIS9_S8_EE7__valueES5_E6__typeEEE(ptr noundef nonnull align 8 dereferenceable(8) %7, ptr noundef nonnull align 8 dereferenceable(8) %8) #3, !dbg !4554
  %15 = load ptr, ptr %5, align 8, !dbg !4556
  %16 = load ptr, ptr %5, align 8, !dbg !4557
  %17 = load i32, ptr %6, align 4, !dbg !4558
  %18 = sext i32 %17 to i64, !dbg !4559
  %19 = getelementptr inbounds i8, ptr %16, i64 %18, !dbg !4559
  %20 = getelementptr inbounds %"class.__gnu_cxx::__normal_iterator.22", ptr %7, i32 0, i32 0, !dbg !4560
  %21 = load ptr, ptr %20, align 8, !dbg !4560
  %22 = call ptr @_ZNSt6vectorIcSaIcEE6insertIPKcvEEN9__gnu_cxx17__normal_iteratorIPcS1_EENS6_IS4_S1_EET_SA_(ptr noundef nonnull align 8 dereferenceable(24) %11, ptr %21, ptr noundef %15, ptr noundef %19), !dbg !4560
  %23 = getelementptr inbounds %"class.__gnu_cxx::__normal_iterator", ptr %9, i32 0, i32 0, !dbg !4560
  store ptr %22, ptr %23, align 8, !dbg !4560
  %24 = getelementptr inbounds %class.Buffer, ptr %10, i32 0, i32 2, !dbg !4561
  %25 = call noundef i64 @_ZNKSt6vectorIcSaIcEE4sizeEv(ptr noundef nonnull align 8 dereferenceable(24) %24) #3, !dbg !4562
  %26 = getelementptr inbounds %class.Buffer, ptr %10, i32 0, i32 1, !dbg !4563
  %27 = load i64, ptr %26, align 8, !dbg !4563
  %28 = sub i64 %25, %27, !dbg !4564
  %29 = getelementptr inbounds %class.Buffer, ptr %10, i32 0, i32 0, !dbg !4565
  store i64 %28, ptr %29, align 8, !dbg !4566
  ret void, !dbg !4567
}

; Function Attrs: mustprogress noinline nounwind optnone uwtable
define linkonce_odr dso_local noundef zeroext i1 @_ZNKSt6atomicIbEcvbEv(ptr noundef nonnull align 1 dereferenceable(1) %0) #7 comdat align 2 personality ptr @__gxx_personality_v0 !dbg !4568 {
  %2 = alloca ptr, align 8
  %3 = alloca i32, align 4
  %4 = alloca i32, align 4
  %5 = alloca i8, align 1
  %6 = alloca ptr, align 8
  store ptr %0, ptr %6, align 8
  call void @llvm.dbg.declare(metadata ptr %6, metadata !4569, metadata !DIExpression()), !dbg !4571
  %7 = load ptr, ptr %6, align 8
  %8 = getelementptr inbounds %"struct.std::atomic", ptr %7, i32 0, i32 0, !dbg !4572
  store ptr %8, ptr %2, align 8
  call void @llvm.dbg.declare(metadata ptr %2, metadata !4573, metadata !DIExpression()), !dbg !4576
  store i32 5, ptr %3, align 4
  call void @llvm.dbg.declare(metadata ptr %3, metadata !4578, metadata !DIExpression()), !dbg !4579
  %9 = load ptr, ptr %2, align 8
  call void @llvm.dbg.declare(metadata ptr %4, metadata !4580, metadata !DIExpression()), !dbg !4581
  %10 = load i32, ptr %3, align 4, !dbg !4582
  %11 = invoke noundef i32 @_ZStanSt12memory_orderSt23__memory_order_modifier(i32 noundef %10, i32 noundef 65535)
          to label %12 unwind label %20, !dbg !4583

12:                                               ; preds = %1
  store i32 %11, ptr %4, align 4, !dbg !4581
  %13 = load i32, ptr %3, align 4, !dbg !4584
  switch i32 %13, label %14 [
    i32 1, label %16
    i32 2, label %16
    i32 5, label %18
  ], !dbg !4585

14:                                               ; preds = %12
  %15 = load atomic i8, ptr %9 monotonic, align 1, !dbg !4585
  store i8 %15, ptr %5, align 1, !dbg !4585
  br label %23, !dbg !4585

16:                                               ; preds = %12, %12
  %17 = load atomic i8, ptr %9 acquire, align 1, !dbg !4585
  store i8 %17, ptr %5, align 1, !dbg !4585
  br label %23, !dbg !4585

18:                                               ; preds = %12
  %19 = load atomic i8, ptr %9 seq_cst, align 1, !dbg !4585
  store i8 %19, ptr %5, align 1, !dbg !4585
  br label %23, !dbg !4585

20:                                               ; preds = %1
  %21 = landingpad { ptr, i32 }
          catch ptr null, !dbg !4583
  %22 = extractvalue { ptr, i32 } %21, 0, !dbg !4583
  call void @__clang_call_terminate(ptr %22) #17, !dbg !4583
  unreachable, !dbg !4583

23:                                               ; preds = %14, %16, %18
  %24 = load i8, ptr %5, align 1, !dbg !4585
  %25 = trunc i8 %24 to i1, !dbg !4585
  ret i1 %25, !dbg !4586
}

; Function Attrs: mustprogress noinline nounwind optnone uwtable
define linkonce_odr dso_local noundef zeroext i1 @_ZSteqNSt6thread2idES0_(i64 %0, i64 %1) #7 comdat !dbg !4587 {
  %3 = alloca %"class.std::thread::id", align 8
  %4 = alloca %"class.std::thread::id", align 8
  %5 = getelementptr inbounds %"class.std::thread::id", ptr %3, i32 0, i32 0
  store i64 %0, ptr %5, align 8
  %6 = getelementptr inbounds %"class.std::thread::id", ptr %4, i32 0, i32 0
  store i64 %1, ptr %6, align 8
  call void @llvm.dbg.declare(metadata ptr %3, metadata !4590, metadata !DIExpression()), !dbg !4591
  call void @llvm.dbg.declare(metadata ptr %4, metadata !4592, metadata !DIExpression()), !dbg !4593
  %7 = getelementptr inbounds %"class.std::thread::id", ptr %3, i32 0, i32 0, !dbg !4594
  %8 = load i64, ptr %7, align 8, !dbg !4594
  %9 = getelementptr inbounds %"class.std::thread::id", ptr %4, i32 0, i32 0, !dbg !4595
  %10 = load i64, ptr %9, align 8, !dbg !4595
  %11 = icmp eq i64 %8, %10, !dbg !4596
  ret i1 %11, !dbg !4597
}

; Function Attrs: nocallback nofree nounwind willreturn memory(argmem: readwrite)
declare void @llvm.memcpy.p0.p0.i64(ptr noalias nocapture writeonly, ptr noalias nocapture readonly, i64, i1 immarg) #10

; Function Attrs: noinline nounwind optnone uwtable
define linkonce_odr dso_local void @_ZNSt6thread2idC2Ev(ptr noundef nonnull align 8 dereferenceable(8) %0) unnamed_addr #4 comdat align 2 !dbg !4598 {
  %2 = alloca ptr, align 8
  store ptr %0, ptr %2, align 8
  call void @llvm.dbg.declare(metadata ptr %2, metadata !4599, metadata !DIExpression()), !dbg !4601
  %3 = load ptr, ptr %2, align 8
  %4 = getelementptr inbounds %"class.std::thread::id", ptr %3, i32 0, i32 0, !dbg !4602
  store i64 0, ptr %4, align 8, !dbg !4602
  ret void, !dbg !4603
}

; Function Attrs: mustprogress noinline nounwind optnone uwtable
define linkonce_odr dso_local i64 @_ZNSt11this_thread6get_idEv() #7 comdat personality ptr @__gxx_personality_v0 !dbg !4604 {
  %1 = alloca %"class.std::thread::id", align 8
  %2 = call i64 @pthread_self() #19, !dbg !4608
  invoke void @_ZNSt6thread2idC2Em(ptr noundef nonnull align 8 dereferenceable(8) %1, i64 noundef %2)
          to label %3 unwind label %6, !dbg !4609

3:                                                ; preds = %0
  %4 = getelementptr inbounds %"class.std::thread::id", ptr %1, i32 0, i32 0, !dbg !4610
  %5 = load i64, ptr %4, align 8, !dbg !4610
  ret i64 %5, !dbg !4610

6:                                                ; preds = %0
  %7 = landingpad { ptr, i32 }
          catch ptr null, !dbg !4609
  %8 = extractvalue { ptr, i32 } %7, 0, !dbg !4609
  call void @__clang_call_terminate(ptr %8) #17, !dbg !4609
  unreachable, !dbg !4609
}

; Function Attrs: mustprogress noinline nounwind optnone uwtable
define linkonce_odr dso_local noundef zeroext i1 @_ZNK4Poco6Logger5errorEv(ptr noundef nonnull align 8 dereferenceable(68) %0) #7 comdat align 2 !dbg !4611 {
  %2 = alloca ptr, align 8
  store ptr %0, ptr %2, align 8
  call void @llvm.dbg.declare(metadata ptr %2, metadata !4613, metadata !DIExpression()), !dbg !4614
  %3 = load ptr, ptr %2, align 8
  %4 = getelementptr inbounds %"class.Poco::Logger", ptr %3, i32 0, i32 4, !dbg !4615
  %5 = load i32, ptr %4, align 8, !dbg !4615
  %6 = icmp sge i32 %5, 3, !dbg !4616
  ret i1 %6, !dbg !4617
}

; Function Attrs: mustprogress noinline optnone uwtable
define linkonce_odr dso_local noundef nonnull align 8 dereferenceable(8) ptr @_ZStlsIcSt11char_traitsIcEERSt13basic_ostreamIT_T0_ES6_NSt6thread2idE(ptr noundef nonnull align 8 dereferenceable(8) %0, i64 %1) #5 comdat !dbg !4618 {
  %3 = alloca ptr, align 8
  %4 = alloca %"class.std::thread::id", align 8
  %5 = alloca ptr, align 8
  %6 = alloca %"class.std::thread::id", align 8
  %7 = alloca %"class.std::thread::id", align 8
  %8 = getelementptr inbounds %"class.std::thread::id", ptr %4, i32 0, i32 0
  store i64 %1, ptr %8, align 8
  store ptr %0, ptr %5, align 8
  call void @llvm.dbg.declare(metadata ptr %5, metadata !4625, metadata !DIExpression()), !dbg !4626
  call void @llvm.dbg.declare(metadata ptr %4, metadata !4627, metadata !DIExpression()), !dbg !4628
  call void @llvm.memcpy.p0.p0.i64(ptr align 8 %6, ptr align 8 %4, i64 8, i1 false), !dbg !4629
  call void @_ZNSt6thread2idC2Ev(ptr noundef nonnull align 8 dereferenceable(8) %7) #3, !dbg !4631
  %9 = getelementptr inbounds %"class.std::thread::id", ptr %6, i32 0, i32 0, !dbg !4632
  %10 = load i64, ptr %9, align 8, !dbg !4632
  %11 = getelementptr inbounds %"class.std::thread::id", ptr %7, i32 0, i32 0, !dbg !4632
  %12 = load i64, ptr %11, align 8, !dbg !4632
  %13 = call noundef zeroext i1 @_ZSteqNSt6thread2idES0_(i64 %10, i64 %12) #3, !dbg !4632
  br i1 %13, label %14, label %17, !dbg !4633

14:                                               ; preds = %2
  %15 = load ptr, ptr %5, align 8, !dbg !4634
  %16 = call noundef nonnull align 8 dereferenceable(8) ptr @_ZStlsISt11char_traitsIcEERSt13basic_ostreamIcT_ES5_PKc(ptr noundef nonnull align 8 dereferenceable(8) %15, ptr noundef @.str.35), !dbg !4635
  store ptr %16, ptr %3, align 8, !dbg !4636
  br label %22, !dbg !4636

17:                                               ; preds = %2
  %18 = load ptr, ptr %5, align 8, !dbg !4637
  %19 = getelementptr inbounds %"class.std::thread::id", ptr %4, i32 0, i32 0, !dbg !4638
  %20 = load i64, ptr %19, align 8, !dbg !4638
  %21 = call noundef nonnull align 8 dereferenceable(8) ptr @_ZNSolsEm(ptr noundef nonnull align 8 dereferenceable(8) %18, i64 noundef %20), !dbg !4639
  store ptr %21, ptr %3, align 8, !dbg !4640
  br label %22, !dbg !4640

22:                                               ; preds = %17, %14
  %23 = load ptr, ptr %3, align 8, !dbg !4641
  ret ptr %23, !dbg !4641
}

; Function Attrs: mustprogress noinline optnone uwtable
define linkonce_odr dso_local void @_ZN3Log9to_stringB5cxx11ERKNSt6thread2idE(ptr noalias sret(%"class.std::__cxx11::basic_string") align 8 %0, ptr noundef nonnull align 8 dereferenceable(8) %1) #5 comdat personality ptr @__gxx_personality_v0 !dbg !4642 {
  %3 = alloca ptr, align 8
  %4 = alloca ptr, align 8
  %5 = alloca %"class.std::thread::id", align 8
  %6 = alloca %"class.std::thread::id", align 8
  %7 = alloca %"class.std::__cxx11::basic_ostringstream", align 8
  %8 = alloca ptr, align 8
  %9 = alloca i32, align 4
  %10 = alloca %"class.std::thread::id", align 8
  %11 = alloca %"class.std::allocator", align 1
  store ptr %0, ptr %3, align 8
  store ptr %1, ptr %4, align 8
  call void @llvm.dbg.declare(metadata ptr %4, metadata !4647, metadata !DIExpression()), !dbg !4648
  %12 = load ptr, ptr %4, align 8, !dbg !4649
  call void @llvm.memcpy.p0.p0.i64(ptr align 8 %5, ptr align 8 %12, i64 8, i1 false), !dbg !4649
  call void @_ZNSt6thread2idC2Ev(ptr noundef nonnull align 8 dereferenceable(8) %6) #3, !dbg !4651
  %13 = getelementptr inbounds %"class.std::thread::id", ptr %5, i32 0, i32 0, !dbg !4652
  %14 = load i64, ptr %13, align 8, !dbg !4652
  %15 = getelementptr inbounds %"class.std::thread::id", ptr %6, i32 0, i32 0, !dbg !4652
  %16 = load i64, ptr %15, align 8, !dbg !4652
  %17 = call noundef zeroext i1 @_ZStneNSt6thread2idES0_(i64 %14, i64 %16) #3, !dbg !4652
  br i1 %17, label %18, label %33, !dbg !4653

18:                                               ; preds = %2
  call void @llvm.dbg.declare(metadata ptr %7, metadata !4654, metadata !DIExpression()), !dbg !4656
  call void @_ZNSt7__cxx1119basic_ostringstreamIcSt11char_traitsIcESaIcEEC1Ev(ptr noundef nonnull align 8 dereferenceable(112) %7), !dbg !4656
  %19 = invoke noundef nonnull align 8 dereferenceable(8) ptr @_ZNSolsEPFRSt8ios_baseS0_E(ptr noundef nonnull align 8 dereferenceable(8) %7, ptr noundef @_ZSt3hexRSt8ios_base)
          to label %20 unwind label %29, !dbg !4657

20:                                               ; preds = %18
  %21 = invoke noundef nonnull align 8 dereferenceable(8) ptr @_ZStlsISt11char_traitsIcEERSt13basic_ostreamIcT_ES5_PKc(ptr noundef nonnull align 8 dereferenceable(8) %19, ptr noundef @.str.36)
          to label %22 unwind label %29, !dbg !4658

22:                                               ; preds = %20
  %23 = load ptr, ptr %4, align 8, !dbg !4659
  call void @llvm.memcpy.p0.p0.i64(ptr align 8 %10, ptr align 8 %23, i64 8, i1 false), !dbg !4659
  %24 = getelementptr inbounds %"class.std::thread::id", ptr %10, i32 0, i32 0, !dbg !4660
  %25 = load i64, ptr %24, align 8, !dbg !4660
  %26 = invoke noundef nonnull align 8 dereferenceable(8) ptr @_ZStlsIcSt11char_traitsIcEERSt13basic_ostreamIT_T0_ES6_NSt6thread2idE(ptr noundef nonnull align 8 dereferenceable(8) %21, i64 %25)
          to label %27 unwind label %29, !dbg !4660

27:                                               ; preds = %22
