; ModuleID = 'net/HttpRequest.cpp'
source_filename = "net/HttpRequest.cpp"
target datalayout = "e-m:e-p270:32:32-p271:32:32-p272:64:64-i64:64-f80:128-n8:16:32:64-S128"
target triple = "x86_64-unknown-linux-gnu"

%"class.std::ios_base::Init" = type { i8 }
%"struct.Log::_end_marker" = type { i8 }
%"struct.std::nothrow_t" = type { i8 }
%"class.std::__cxx11::basic_ostringstream" = type { %"class.std::basic_ostream.base", %"class.std::__cxx11::basic_stringbuf", %"class.std::basic_ios" }
%"class.std::basic_ostream.base" = type { ptr }
%"class.std::__cxx11::basic_stringbuf" = type { %"class.std::basic_streambuf", i32, %"class.std::__cxx11::basic_string" }
%"class.std::basic_streambuf" = type { ptr, ptr, ptr, ptr, ptr, ptr, ptr, %"class.std::locale" }
%"class.std::locale" = type { ptr }
%"class.std::__cxx11::basic_string" = type { %"struct.std::__cxx11::basic_string<char>::_Alloc_hider", i64, %union.anon }
%"struct.std::__cxx11::basic_string<char>::_Alloc_hider" = type { ptr }
%union.anon = type { i64, [8 x i8] }
%"class.std::basic_ios" = type { %"class.std::ios_base", ptr, i8, i8, ptr, ptr, ptr, ptr }
%"class.std::ios_base" = type { ptr, i64, i64, i32, i32, i32, ptr, %"struct.std::ios_base::_Words", [8 x %"struct.std::ios_base::_Words"], i32, ptr, %"class.std::locale" }
%"struct.std::ios_base::_Words" = type { ptr, i64 }
%"class.std::allocator.0" = type { i8 }
%"class.Poco::Message" = type { %"class.std::__cxx11::basic_string", %"class.std::__cxx11::basic_string", i32, %"class.Poco::Timestamp", i64, %"class.std::__cxx11::basic_string", i64, ptr, i32, ptr }
%"class.Poco::Timestamp" = type { i64 }
%"class.Poco::Net::MessageHeader" = type <{ %"class.Poco::Net::NameValueCollection", i32, [4 x i8] }>
%"class.Poco::Net::NameValueCollection" = type { ptr, %"class.Poco::ListMap" }
%"class.Poco::ListMap" = type { %"class.std::vector" }
%"class.std::vector" = type { %"struct.std::_Vector_base" }
%"struct.std::_Vector_base" = type { %"struct.std::_Vector_base<std::pair<std::__cxx11::basic_string<char>, std::__cxx11::basic_string<char>>, std::allocator<std::pair<std::__cxx11::basic_string<char>, std::__cxx11::basic_string<char>>>>::_Vector_impl" }
%"struct.std::_Vector_base<std::pair<std::__cxx11::basic_string<char>, std::__cxx11::basic_string<char>>, std::allocator<std::pair<std::__cxx11::basic_string<char>, std::__cxx11::basic_string<char>>>>::_Vector_impl" = type { %"struct.std::_Vector_base<std::pair<std::__cxx11::basic_string<char>, std::__cxx11::basic_string<char>>, std::allocator<std::pair<std::__cxx11::basic_string<char>, std::__cxx11::basic_string<char>>>>::_Vector_impl_data" }
%"struct.std::_Vector_base<std::pair<std::__cxx11::basic_string<char>, std::__cxx11::basic_string<char>>, std::allocator<std::pair<std::__cxx11::basic_string<char>, std::__cxx11::basic_string<char>>>>::_Vector_impl_data" = type { ptr, ptr, ptr }
%"class.Poco::MemoryInputStream" = type { %"class.Poco::MemoryIOS.base", %"class.std::basic_istream.base", %"class.std::basic_ios" }
%"class.Poco::MemoryIOS.base" = type { ptr, %"class.Poco::BasicMemoryStreamBuf" }
%"class.Poco::BasicMemoryStreamBuf" = type { %"class.std::basic_streambuf", ptr, i64 }
%"class.std::basic_istream.base" = type { ptr, i64 }
%"class.std::fpos" = type { i64, %struct.__mbstate_t }
%struct.__mbstate_t = type { i32, %union.anon.3 }
%union.anon.3 = type { i32 }
%"class.__gnu_cxx::__normal_iterator" = type { ptr }
%"struct.std::pair" = type { %"class.std::__cxx11::basic_string", %"class.std::__cxx11::basic_string" }
%"class.http::Header" = type <{ %"class.std::vector", i8, [7 x i8] }>
%"class.Poco::Logger" = type <{ %"class.Poco::Channel.base", [4 x i8], %"class.std::__cxx11::basic_string", %"class.Poco::AutoPtr", i32, [4 x i8] }>
%"class.Poco::Channel.base" = type <{ %"class.Poco::Configurable", %"class.Poco::RefCountedObject.base" }>
%"class.Poco::Configurable" = type { ptr }
%"class.Poco::RefCountedObject.base" = type <{ ptr, %"class.Poco::AtomicCounter" }>
%"class.Poco::AtomicCounter" = type { %"struct.std::atomic" }
%"struct.std::atomic" = type { %"struct.std::__atomic_base" }
%"struct.std::__atomic_base" = type { i32 }
%"class.Poco::AutoPtr" = type { ptr }
%"class.Poco::LocalDateTime" = type <{ %"class.Poco::DateTime", i32, [4 x i8] }>
%"class.Poco::DateTime" = type { i64, i16, i16, i16, i16, i16, i16, i16, i16 }
%"struct.std::forward_iterator_tag" = type { i8 }
%"struct.std::random_access_iterator_tag" = type { i8 }
%"class.__gnu_cxx::__normal_iterator.33" = type { ptr }
%"class.http::StatusLine" = type { %"class.std::__cxx11::basic_string", i32, i32, i32, %"class.std::__cxx11::basic_string" }
%"class.http::Request" = type <{ %"class.http::Header", %"class.std::__cxx11::basic_string", %"class.std::__cxx11::basic_string", %"class.std::__cxx11::basic_string", %"class.std::function", i32, [4 x i8] }>
%"class.std::function" = type { %"class.std::_Function_base", ptr }
%"class.std::_Function_base" = type { %"union.std::_Any_data", ptr }
%"union.std::_Any_data" = type { %"union.std::_Nocopy_types" }
%"union.std::_Nocopy_types" = type { { i64, i64 } }
%"class.http::Response" = type { %"class.http::StatusLine", %"class.http::Header", %"struct.std::atomic.5", i32, i64, %"class.std::__cxx11::basic_string", %"class.std::basic_ofstream", %"class.std::function.6", %"class.std::function.9" }
%"struct.std::atomic.5" = type { i32 }
%"class.std::basic_ofstream" = type { %"class.std::basic_ostream.base", %"class.std::basic_filebuf", %"class.std::basic_ios" }
%"class.std::basic_filebuf" = type { %"class.std::basic_streambuf", %union.pthread_mutex_t, %"class.std::__basic_file", i32, %struct.__mbstate_t, %struct.__mbstate_t, %struct.__mbstate_t, ptr, i64, i8, i8, i8, i8, ptr, ptr, i8, ptr, ptr, i64, ptr, ptr }
%union.pthread_mutex_t = type { %struct.__pthread_mutex_s }
%struct.__pthread_mutex_s = type { i32, i32, i32, i32, i32, i16, i16, %struct.__pthread_internal_list }
%struct.__pthread_internal_list = type { ptr, ptr }
%"class.std::__basic_file" = type <{ ptr, i8, [7 x i8] }>
%"class.std::function.6" = type { %"class.std::_Function_base", ptr }
%"class.std::function.9" = type { %"class.std::_Function_base", ptr }
%class.anon.35 = type { ptr }
%"class.std::shared_ptr" = type { %"class.std::__shared_ptr" }
%"class.std::__shared_ptr" = type { ptr, %"class.std::__shared_count" }
%"class.std::__shared_count" = type { ptr }
%"class.__gnu_cxx::__normal_iterator.36" = type { ptr }
%"struct.std::chrono::duration.40" = type { i64 }
%"class.http::Session" = type { %class.ProtocolHandlerInterface, %"class.std::__cxx11::basic_string", %"class.std::__cxx11::basic_string", i32, %"struct.std::chrono::duration", %"struct.std::chrono::time_point", i8, [7 x i8], %"class.http::Request", %"class.std::function.21", %"class.std::shared_ptr.23", %"class.std::weak_ptr.26" }
%class.ProtocolHandlerInterface = type { ptr, %"class.std::enable_shared_from_this", %"class.std::shared_ptr.11" }
%"class.std::enable_shared_from_this" = type { %"class.std::weak_ptr" }
%"class.std::weak_ptr" = type { %"class.std::__weak_ptr" }
%"class.std::__weak_ptr" = type { ptr, %"class.std::__weak_count" }
%"class.std::__weak_count" = type { ptr }
%"class.std::shared_ptr.11" = type { %"class.std::__shared_ptr.12" }
%"class.std::__shared_ptr.12" = type { ptr, %"class.std::__shared_count" }
%"struct.std::chrono::duration" = type { i64 }
%"struct.std::chrono::time_point" = type { %"struct.std::chrono::duration.20" }
%"struct.std::chrono::duration.20" = type { i64 }
%"class.std::function.21" = type { %"class.std::_Function_base", ptr }
%"class.std::shared_ptr.23" = type { %"class.std::__shared_ptr.24" }
%"class.std::__shared_ptr.24" = type { ptr, %"class.std::__shared_count" }
%"class.std::weak_ptr.26" = type { %"class.std::__weak_ptr.27" }
%"class.std::__weak_ptr.27" = type { ptr, %"class.std::__weak_count" }
%"struct.std::integral_constant" = type { i8 }
%class.anon = type { i8 }
%struct._Save_errno = type { i32 }
%"struct.std::integral_constant.34" = type { i8 }
%"struct.std::is_same" = type { i8 }
%"struct.std::__invoke_other" = type { i8 }
%"class.__gnu_cxx::__normal_iterator.37" = type { ptr }
%struct._Save_errno.38 = type { i32 }
%"struct.std::is_same.39" = type { i8 }
%"struct.std::chrono::duration.67" = type { i64 }
%class.anon.68 = type { i8 }
%"class.std::shared_ptr.41" = type { %"class.std::__shared_ptr.42" }
%"class.std::__shared_ptr.42" = type { ptr, %"class.std::__shared_count" }
%"class.std::_Sp_counted_base" = type { ptr, i32, i32 }
%class.Socket = type { ptr, %"class.std::__cxx11::basic_string", i32, i8, i32, %"class.std::thread::id" }
%"class.std::thread::id" = type { i64 }
%class.StreamSocket = type <{ %class.Socket, %"class.std::enable_shared_from_this.28", %"class.std::__cxx11::basic_string", %"class.std::shared_ptr.17", %class.Buffer, %class.Buffer, i64, i64, i32, i8, i8, i8, i8, i32, i32, %"struct.std::atomic.31", [7 x i8] }>
%"class.std::enable_shared_from_this.28" = type { %"class.std::weak_ptr.26" }
%"class.std::shared_ptr.17" = type { %"class.std::__shared_ptr.18" }
%"class.std::__shared_ptr.18" = type { ptr, %"class.std::__shared_count" }
%class.Buffer = type { i64, i64, %"class.std::vector.29" }
%"class.std::vector.29" = type { %"struct.std::_Vector_base.30" }
%"struct.std::_Vector_base.30" = type { %"struct.std::_Vector_base<char, std::allocator<char>>::_Vector_impl" }
%"struct.std::_Vector_base<char, std::allocator<char>>::_Vector_impl" = type { %"struct.std::_Vector_base<char, std::allocator<char>>::_Vector_impl_data" }
%"struct.std::_Vector_base<char, std::allocator<char>>::_Vector_impl_data" = type { ptr, ptr, ptr }
%"struct.std::atomic.31" = type { %"struct.std::__atomic_base.32" }
%"struct.std::__atomic_base.32" = type { i8 }
%"class.__gnu_cxx::__normal_iterator.71" = type { ptr }
%"class.__gnu_cxx::__normal_iterator.70" = type { ptr }
%class.SocketDisposition = type { i32, %"class.std::function.44", ptr, %"class.std::shared_ptr.47" }
%"class.std::function.44" = type { %"class.std::_Function_base", ptr }
%"class.std::shared_ptr.47" = type { %"class.std::__shared_ptr.48" }
%"class.std::__shared_ptr.48" = type { ptr, %"class.std::__shared_count" }
%"class.std::_Sp_counted_ptr" = type { %"class.std::_Sp_counted_base", ptr }

$_ZN3Log11_end_markerC2Ev = comdat any

$_ZN3Log16isShutdownCalledEv = comdat any

$_ZNK4Poco6Logger5traceEv = comdat any

$_ZN3Log6prefixILi1023EEEPcS1_PKc = comdat any

$_ZNSt7__cxx1112basic_stringIcSt11char_traitsIcESaIcEEC2IS3_EEPKcRKS3_ = comdat any

$_ZSt9boolalphaRSt8ios_base = comdat any

$_ZSt3minIlERKT_S2_S2_ = comdat any

$_ZNK4Poco6Logger4nameB5cxx11Ev = comdat any

$_ZNKSt4fposI11__mbstate_tEcvlEv = comdat any

$_ZNK4Poco6Logger5debugEv = comdat any

$_ZN9__gnu_cxxneIPKSt4pairINSt7__cxx1112basic_stringIcSt11char_traitsIcESaIcEEES7_ESt6vectorIS8_SaIS8_EEEEbRKNS_17__normal_iteratorIT_T0_EESJ_ = comdat any

$_ZNK9__gnu_cxx17__normal_iteratorIPKSt4pairINSt7__cxx1112basic_stringIcSt11char_traitsIcESaIcEEES7_ESt6vectorIS8_SaIS8_EEEdeEv = comdat any

$_ZN4http6Header3setERKNSt7__cxx1112basic_stringIcSt11char_traitsIcESaIcEEES6_ = comdat any

$_ZN4Util7trimmedERKNSt7__cxx1112basic_stringIcSt11char_traitsIcESaIcEEE = comdat any

$_ZN9__gnu_cxx17__normal_iteratorIPKSt4pairINSt7__cxx1112basic_stringIcSt11char_traitsIcESaIcEEES7_ESt6vectorIS8_SaIS8_EEEppEv = comdat any

$_ZSteqIcSt11char_traitsIcESaIcEEbRKNSt7__cxx1112basic_stringIT_T0_T1_EEPKS5_ = comdat any

$_ZNK4http6Header19getTransferEncodingB5cxx11Ev = comdat any

$_ZNK4http6Header16hasContentLengthEv = comdat any

$_ZNK4http6Header26getChunkedTransferEncodingEv = comdat any

$__clang_call_terminate = comdat any

$_ZNK4http6Header3getERKNSt7__cxx1112basic_stringIcSt11char_traitsIcESaIcEEES8_ = comdat any

$_ZNSt7__cxx115stollERKNS_12basic_stringIcSt11char_traitsIcESaIcEEEPmi = comdat any

$_ZN4Util10startsWithERKNSt7__cxx1112basic_stringIcSt11char_traitsIcESaIcEEEPKc = comdat any

$_ZNK4Poco6Logger5errorEv = comdat any

$_ZNSt6atomicIN4http8Response5StateEEaSES2_ = comdat any

$_ZNK4http10StatusLine14statusCategoryEv = comdat any

$_ZNK4http10StatusLine10statusCodeEv = comdat any

$_ZN4http8Response16saveBodyToMemoryEv = comdat any

$_ZN4Util16hexDigitFromCharEc = comdat any

$_ZNSt14numeric_limitsIlE3maxEv = comdat any

$_ZNKSt8functionIFlPKclEEclES1_l = comdat any

$_ZN4http8Response8completeEv = comdat any

$_ZN3net8parseUriENSt7__cxx1112basic_stringIcSt11char_traitsIcESaIcEEERS5_S6_S6_ = comdat any

$_ZStplIcSt11char_traitsIcESaIcEENSt7__cxx1112basic_stringIT_T0_T1_EEOS8_PKS5_ = comdat any

$_ZStplIcSt11char_traitsIcESaIcEENSt7__cxx1112basic_stringIT_T0_T1_EEPKS5_RKS8_ = comdat any

$_ZN4Util7toLowerENSt7__cxx1112basic_stringIcSt11char_traitsIcESaIcEEE = comdat any

$_ZNSt7__cxx114stoiERKNS_12basic_stringIcSt11char_traitsIcESaIcEEEPmi = comdat any

$_ZN4http7Session14getDefaultPortENS0_8ProtocolE = comdat any

$_ZN4http7SessionC2ENSt7__cxx1112basic_stringIcSt11char_traitsIcESaIcEEENS0_8ProtocolEi = comdat any

$_ZNSt10shared_ptrIN4http7SessionEEC2IS1_vEEPT_ = comdat any

$_ZNSt8ios_base4setfESt13_Ios_Fmtflags = comdat any

$_ZStoRRSt13_Ios_FmtflagsS_ = comdat any

$_ZStorSt13_Ios_FmtflagsS_ = comdat any

$_ZNSt6vectorISt4pairINSt7__cxx1112basic_stringIcSt11char_traitsIcESaIcEEES6_ESaIS7_EE5beginEv = comdat any

$_ZNSt6vectorISt4pairINSt7__cxx1112basic_stringIcSt11char_traitsIcESaIcEEES6_ESaIS7_EE3endEv = comdat any

$_ZN9__gnu_cxxneIPSt4pairINSt7__cxx1112basic_stringIcSt11char_traitsIcESaIcEEES7_ESt6vectorIS8_SaIS8_EEEEbRKNS_17__normal_iteratorIT_T0_EESI_ = comdat any

$_ZNK9__gnu_cxx17__normal_iteratorIPSt4pairINSt7__cxx1112basic_stringIcSt11char_traitsIcESaIcEEES7_ESt6vectorIS8_SaIS8_EEEdeEv = comdat any

$_ZSteqIcEN9__gnu_cxx11__enable_ifIXsr9__is_charIT_EE7__valueEbE6__typeERKNSt7__cxx1112basic_stringIS2_St11char_traitsIS2_ESaIS2_EEESC_ = comdat any

$_ZN9__gnu_cxx17__normal_iteratorIPSt4pairINSt7__cxx1112basic_stringIcSt11char_traitsIcESaIcEEES7_ESt6vectorIS8_SaIS8_EEEppEv = comdat any

$_ZNSt6vectorISt4pairINSt7__cxx1112basic_stringIcSt11char_traitsIcESaIcEEES6_ESaIS7_EE12emplace_backIJRKS6_S6_EEERS7_DpOT_ = comdat any

$_ZN9__gnu_cxx17__normal_iteratorIPSt4pairINSt7__cxx1112basic_stringIcSt11char_traitsIcESaIcEEES7_ESt6vectorIS8_SaIS8_EEEC2ERKS9_ = comdat any

$_ZNK9__gnu_cxx17__normal_iteratorIPSt4pairINSt7__cxx1112basic_stringIcSt11char_traitsIcESaIcEEES7_ESt6vectorIS8_SaIS8_EEE4baseEv = comdat any

$_ZNSt11char_traitsIcE7compareEPKcS2_m = comdat any

$_ZNSt11char_traitsIcE2ltERKcS2_ = comdat any

$_ZNSt16allocator_traitsISaISt4pairINSt7__cxx1112basic_stringIcSt11char_traitsIcESaIcEEES6_EEE9constructIS7_JRKS6_S6_EEEvRS8_PT_DpOT0_ = comdat any

$_ZNSt6vectorISt4pairINSt7__cxx1112basic_stringIcSt11char_traitsIcESaIcEEES6_ESaIS7_EE17_M_realloc_insertIJRKS6_S6_EEEvN9__gnu_cxx17__normal_iteratorIPS7_S9_EEDpOT_ = comdat any

$_ZNSt6vectorISt4pairINSt7__cxx1112basic_stringIcSt11char_traitsIcESaIcEEES6_ESaIS7_EE4backEv = comdat any

$_ZN9__gnu_cxx13new_allocatorISt4pairINSt7__cxx1112basic_stringIcSt11char_traitsIcESaIcEEES7_EE9constructIS8_JRKS7_S7_EEEvPT_DpOT0_ = comdat any

$_ZNSt4pairINSt7__cxx1112basic_stringIcSt11char_traitsIcESaIcEEES5_EC2IS5_Lb1EEERKS5_OT_ = comdat any

$_ZNKSt6vectorISt4pairINSt7__cxx1112basic_stringIcSt11char_traitsIcESaIcEEES6_ESaIS7_EE12_M_check_lenEmPKc = comdat any

$_ZN9__gnu_cxxmiIPSt4pairINSt7__cxx1112basic_stringIcSt11char_traitsIcESaIcEEES7_ESt6vectorIS8_SaIS8_EEEENS_17__normal_iteratorIT_T0_E15difference_typeERKSG_SJ_ = comdat any

$_ZNSt12_Vector_baseISt4pairINSt7__cxx1112basic_stringIcSt11char_traitsIcESaIcEEES6_ESaIS7_EE11_M_allocateEm = comdat any

$_ZNSt6vectorISt4pairINSt7__cxx1112basic_stringIcSt11char_traitsIcESaIcEEES6_ESaIS7_EE11_S_relocateEPS7_SA_SA_RS8_ = comdat any

$_ZNSt12_Vector_baseISt4pairINSt7__cxx1112basic_stringIcSt11char_traitsIcESaIcEEES6_ESaIS7_EE19_M_get_Tp_allocatorEv = comdat any

$_ZNSt16allocator_traitsISaISt4pairINSt7__cxx1112basic_stringIcSt11char_traitsIcESaIcEEES6_EEE7destroyIS7_EEvRS8_PT_ = comdat any

$_ZSt8_DestroyIPSt4pairINSt7__cxx1112basic_stringIcSt11char_traitsIcESaIcEEES6_ES7_EvT_S9_RSaIT0_E = comdat any

$_ZNSt12_Vector_baseISt4pairINSt7__cxx1112basic_stringIcSt11char_traitsIcESaIcEEES6_ESaIS7_EE13_M_deallocateEPS7_m = comdat any

$_ZNKSt6vectorISt4pairINSt7__cxx1112basic_stringIcSt11char_traitsIcESaIcEEES6_ESaIS7_EE8max_sizeEv = comdat any

$_ZNKSt6vectorISt4pairINSt7__cxx1112basic_stringIcSt11char_traitsIcESaIcEEES6_ESaIS7_EE4sizeEv = comdat any

$_ZSt3maxImERKT_S2_S2_ = comdat any

$_ZNSt6vectorISt4pairINSt7__cxx1112basic_stringIcSt11char_traitsIcESaIcEEES6_ESaIS7_EE11_S_max_sizeERKS8_ = comdat any

$_ZNKSt12_Vector_baseISt4pairINSt7__cxx1112basic_stringIcSt11char_traitsIcESaIcEEES6_ESaIS7_EE19_M_get_Tp_allocatorEv = comdat any

$_ZNSt16allocator_traitsISaISt4pairINSt7__cxx1112basic_stringIcSt11char_traitsIcESaIcEEES6_EEE8max_sizeERKS8_ = comdat any

$_ZSt3minImERKT_S2_S2_ = comdat any

$_ZNK9__gnu_cxx13new_allocatorISt4pairINSt7__cxx1112basic_stringIcSt11char_traitsIcESaIcEEES7_EE8max_sizeEv = comdat any

$_ZNK9__gnu_cxx13new_allocatorISt4pairINSt7__cxx1112basic_stringIcSt11char_traitsIcESaIcEEES7_EE11_M_max_sizeEv = comdat any

$_ZNSt16allocator_traitsISaISt4pairINSt7__cxx1112basic_stringIcSt11char_traitsIcESaIcEEES6_EEE8allocateERS8_m = comdat any

$_ZN9__gnu_cxx13new_allocatorISt4pairINSt7__cxx1112basic_stringIcSt11char_traitsIcESaIcEEES7_EE8allocateEmPKv = comdat any

$_ZNSt6vectorISt4pairINSt7__cxx1112basic_stringIcSt11char_traitsIcESaIcEEES6_ESaIS7_EE14_S_do_relocateEPS7_SA_SA_RS8_St17integral_constantIbLb1EE = comdat any

$_ZSt12__relocate_aIPSt4pairINSt7__cxx1112basic_stringIcSt11char_traitsIcESaIcEEES6_ES8_SaIS7_EET0_T_SB_SA_RT1_ = comdat any

$_ZSt14__relocate_a_1IPSt4pairINSt7__cxx1112basic_stringIcSt11char_traitsIcESaIcEEES6_ES8_SaIS7_EET0_T_SB_SA_RT1_ = comdat any

$_ZSt12__niter_baseIPSt4pairINSt7__cxx1112basic_stringIcSt11char_traitsIcESaIcEEES6_EET_S9_ = comdat any

$_ZSt19__relocate_object_aISt4pairINSt7__cxx1112basic_stringIcSt11char_traitsIcESaIcEEES6_ES7_SaIS7_EEvPT_PT0_RT1_ = comdat any

$_ZNSt16allocator_traitsISaISt4pairINSt7__cxx1112basic_stringIcSt11char_traitsIcESaIcEEES6_EEE9constructIS7_JS7_EEEvRS8_PT_DpOT0_ = comdat any

$_ZN9__gnu_cxx13new_allocatorISt4pairINSt7__cxx1112basic_stringIcSt11char_traitsIcESaIcEEES7_EE9constructIS8_JS8_EEEvPT_DpOT0_ = comdat any

$_ZNSt4pairINSt7__cxx1112basic_stringIcSt11char_traitsIcESaIcEEES5_EC2EOS6_ = comdat any

$_ZN9__gnu_cxx13new_allocatorISt4pairINSt7__cxx1112basic_stringIcSt11char_traitsIcESaIcEEES7_EE7destroyIS8_EEvPT_ = comdat any

$_ZNSt4pairINSt7__cxx1112basic_stringIcSt11char_traitsIcESaIcEEES5_ED2Ev = comdat any

$_ZSt8_DestroyIPSt4pairINSt7__cxx1112basic_stringIcSt11char_traitsIcESaIcEEES6_EEvT_S9_ = comdat any

$_ZNSt12_Destroy_auxILb0EE9__destroyIPSt4pairINSt7__cxx1112basic_stringIcSt11char_traitsIcESaIcEEES8_EEEvT_SB_ = comdat any

$_ZSt8_DestroyISt4pairINSt7__cxx1112basic_stringIcSt11char_traitsIcESaIcEEES6_EEvPT_ = comdat any

$_ZNSt16allocator_traitsISaISt4pairINSt7__cxx1112basic_stringIcSt11char_traitsIcESaIcEEES6_EEE10deallocateERS8_PS7_m = comdat any

$_ZN9__gnu_cxx13new_allocatorISt4pairINSt7__cxx1112basic_stringIcSt11char_traitsIcESaIcEEES7_EE10deallocateEPS8_m = comdat any

$_ZNK9__gnu_cxx17__normal_iteratorIPSt4pairINSt7__cxx1112basic_stringIcSt11char_traitsIcESaIcEEES7_ESt6vectorIS8_SaIS8_EEEmiEl = comdat any

$_ZNK4http6Header3hasERKNSt7__cxx1112basic_stringIcSt11char_traitsIcESaIcEEE = comdat any

$_ZNKSt6vectorISt4pairINSt7__cxx1112basic_stringIcSt11char_traitsIcESaIcEEES6_ESaIS7_EE5beginEv = comdat any

$_ZNKSt6vectorISt4pairINSt7__cxx1112basic_stringIcSt11char_traitsIcESaIcEEES6_ESaIS7_EE3endEv = comdat any

$_ZN4Util6iequalERKNSt7__cxx1112basic_stringIcSt11char_traitsIcESaIcEEES7_ = comdat any

$_ZN9__gnu_cxx17__normal_iteratorIPKSt4pairINSt7__cxx1112basic_stringIcSt11char_traitsIcESaIcEEES7_ESt6vectorIS8_SaIS8_EEEC2ERKSA_ = comdat any

$_ZN4Util6iequalEPKcmS1_m = comdat any

$_ZSt5equalIPKcS1_ZN4Util6iequalES1_mS1_mEUlccE_EbT_S4_T0_T1_ = comdat any

$_ZZN4Util6iequalEPKcmS1_mENKUlccE_clEcc = comdat any

$_ZN9__gnu_cxx6__stoaIxxcJiEEET0_PFT_PKT1_PPS3_DpT2_EPKcS5_PmS9_ = comdat any

$_ZZN9__gnu_cxx6__stoaIxxcJiEEET0_PFT_PKT1_PPS3_DpT2_EPKcS5_PmS9_EN11_Save_errnoC2Ev = comdat any

$_ZZN9__gnu_cxx6__stoaIxxcJiEEET0_PFT_PKT1_PPS3_DpT2_EPKcS5_PmS9_EN10_Range_chk6_S_chkExSt17integral_constantIbLb0EE = comdat any

$_ZZN9__gnu_cxx6__stoaIxxcJiEEET0_PFT_PKT1_PPS3_DpT2_EPKcS5_PmS9_EN11_Save_errnoD2Ev = comdat any

$_ZNSt8functionIFlPKclEEaSIZN4http8Response16saveBodyToMemoryEvEUlS1_lE_EENSt9enable_ifIXsrNS3_9_CallableIT_NS8_IXntsr7is_sameINSt9remove_cvINSt16remove_referenceISA_E4typeEE4typeES3_EE5valueESt5decayISA_EE4type4typeESt15__invoke_resultIRSL_JS1_lEEEE5valueERS3_E4typeEOSA_ = comdat any

$_ZNSt8functionIFlPKclEEC2IZN4http8Response16saveBodyToMemoryEvEUlS1_lE_vEEOT_ = comdat any

$_ZNSt8functionIFlPKclEE4swapERS3_ = comdat any

$_ZNSt8functionIFlPKclEED2Ev = comdat any

$_ZNSt14_Function_baseC2Ev = comdat any

$_ZNSt14_Function_base13_Base_managerIZN4http8Response16saveBodyToMemoryEvEUlPKclE_E21_M_not_empty_functionIS5_EEbRKT_ = comdat any

$_ZNSt14_Function_base13_Base_managerIZN4http8Response16saveBodyToMemoryEvEUlPKclE_E15_M_init_functorIS5_EEvRSt9_Any_dataOT_ = comdat any

$_ZNSt17_Function_handlerIFlPKclEZN4http8Response16saveBodyToMemoryEvEUlS1_lE_E9_M_invokeERKSt9_Any_dataOS1_Ol = comdat any

$_ZNSt17_Function_handlerIFlPKclEZN4http8Response16saveBodyToMemoryEvEUlS1_lE_E10_M_managerERSt9_Any_dataRKS7_St18_Manager_operation = comdat any

$_ZNSt14_Function_base13_Base_managerIZN4http8Response16saveBodyToMemoryEvEUlPKclE_E9_M_createIS5_EEvRSt9_Any_dataOT_St17integral_constantIbLb1EE = comdat any

$_ZNSt9_Any_data9_M_accessEv = comdat any

$_ZSt10__invoke_rIlRZN4http8Response16saveBodyToMemoryEvEUlPKclE_JS3_lEENSt9enable_ifIX16is_invocable_r_vIT_T0_DpT1_EES7_E4typeEOS8_DpOS9_ = comdat any

$_ZNSt14_Function_base13_Base_managerIZN4http8Response16saveBodyToMemoryEvEUlPKclE_E14_M_get_pointerERKSt9_Any_data = comdat any

$_ZSt13__invoke_implIlRZN4http8Response16saveBodyToMemoryEvEUlPKclE_JS3_lEET_St14__invoke_otherOT0_DpOT1_ = comdat any

$_ZZN4http8Response16saveBodyToMemoryEvENKUlPKclE_clES2_l = comdat any

$_ZNSt7__cxx1112basic_stringIcSt11char_traitsIcESaIcEE6insertIPKcvEEN9__gnu_cxx17__normal_iteratorIPcS4_EENS9_IS7_S4_EET_SD_ = comdat any

$_ZN9__gnu_cxx17__normal_iteratorIPKcNSt7__cxx1112basic_stringIcSt11char_traitsIcESaIcEEEEC2IPcEERKNS0_IT_NS_11__enable_ifIXsr3std10__are_sameISC_SB_EE7__valueES8_E6__typeEEE = comdat any

$_ZN9__gnu_cxxmiIPKcPcNSt7__cxx1112basic_stringIcSt11char_traitsIcESaIcEEEEEDTmicldtfp_4baseEcldtfp0_4baseEERKNS_17__normal_iteratorIT_T1_EERKNSB_IT0_SD_EE = comdat any

$_ZN9__gnu_cxx17__normal_iteratorIPcNSt7__cxx1112basic_stringIcSt11char_traitsIcESaIcEEEEC2ERKS1_ = comdat any

$_ZNK9__gnu_cxx17__normal_iteratorIPKcNSt7__cxx1112basic_stringIcSt11char_traitsIcESaIcEEEE4baseEv = comdat any

$_ZNK9__gnu_cxx17__normal_iteratorIPcNSt7__cxx1112basic_stringIcSt11char_traitsIcESaIcEEEE4baseEv = comdat any

$_ZNKSt9_Any_data9_M_accessIZN4http8Response16saveBodyToMemoryEvEUlPKclE_EERKT_v = comdat any

$_ZNKSt9_Any_data9_M_accessEv = comdat any

$_ZNSt9_Any_data9_M_accessIPKSt9type_infoEERT_v = comdat any

$_ZNSt9_Any_data9_M_accessIPZN4http8Response16saveBodyToMemoryEvEUlPKclE_EERT_v = comdat any

$_ZNSt14_Function_base13_Base_managerIZN4http8Response16saveBodyToMemoryEvEUlPKclE_E10_M_managerERSt9_Any_dataRKS7_St18_Manager_operation = comdat any

$_ZNSt14_Function_base13_Base_managerIZN4http8Response16saveBodyToMemoryEvEUlPKclE_E15_M_init_functorIRKS5_EEvRSt9_Any_dataOT_ = comdat any

$_ZNSt14_Function_base13_Base_managerIZN4http8Response16saveBodyToMemoryEvEUlPKclE_E10_M_destroyERSt9_Any_dataSt17integral_constantIbLb1EE = comdat any

$_ZNSt14_Function_base13_Base_managerIZN4http8Response16saveBodyToMemoryEvEUlPKclE_E9_M_createIRKS5_EEvRSt9_Any_dataOT_St17integral_constantIbLb1EE = comdat any

$_ZNSt9_Any_data9_M_accessIZN4http8Response16saveBodyToMemoryEvEUlPKclE_EERT_v = comdat any

$_ZSt4swapISt9_Any_dataENSt9enable_ifIXsr6__and_ISt6__not_ISt15__is_tuple_likeIT_EESt21is_move_constructibleIS4_ESt18is_move_assignableIS4_EEE5valueEvE4typeERS4_SD_ = comdat any

$_ZSt4swapIPFbRSt9_Any_dataRKS0_St18_Manager_operationEENSt9enable_ifIXsr6__and_ISt6__not_ISt15__is_tuple_likeIT_EESt21is_move_constructibleISA_ESt18is_move_assignableISA_EEE5valueEvE4typeERSA_SJ_ = comdat any

$_ZSt4swapIPFlRKSt9_Any_dataOPKcOlEENSt9enable_ifIXsr6__and_ISt6__not_ISt15__is_tuple_likeIT_EESt21is_move_constructibleISC_ESt18is_move_assignableISC_EEE5valueEvE4typeERSC_SL_ = comdat any

$_ZNSt14_Function_baseD2Ev = comdat any

$_ZN4http8Response6finishENS0_5StateE = comdat any

$_ZNK4http8Response4doneEv = comdat any

$_ZNKSt8functionIFvvEEcvbEv = comdat any

$_ZNKSt8functionIFvvEEclEv = comdat any

$_ZNKSt6atomicIN4http8Response5StateEEcvS2_Ev = comdat any

$_ZNKSt6atomicIN4http8Response5StateEE4loadESt12memory_order = comdat any

$_ZNKSt14_Function_base8_M_emptyEv = comdat any

$_ZSt9transformIN9__gnu_cxx17__normal_iteratorIPcNSt7__cxx1112basic_stringIcSt11char_traitsIcESaIcEEEEES9_PDoFiiEET0_T_SD_SC_T1_ = comdat any

$_ZN9__gnu_cxxneIPcNSt7__cxx1112basic_stringIcSt11char_traitsIcESaIcEEEEEbRKNS_17__normal_iteratorIT_T0_EESD_ = comdat any

$_ZNK9__gnu_cxx17__normal_iteratorIPcNSt7__cxx1112basic_stringIcSt11char_traitsIcESaIcEEEEdeEv = comdat any

$_ZN9__gnu_cxx17__normal_iteratorIPcNSt7__cxx1112basic_stringIcSt11char_traitsIcESaIcEEEEppEv = comdat any

$_ZN9__gnu_cxx6__stoaIlicJiEEET0_PFT_PKT1_PPS3_DpT2_EPKcS5_PmS9_ = comdat any

$_ZZN9__gnu_cxx6__stoaIlicJiEEET0_PFT_PKT1_PPS3_DpT2_EPKcS5_PmS9_EN11_Save_errnoC2Ev = comdat any

$_ZZN9__gnu_cxx6__stoaIlicJiEEET0_PFT_PKT1_PPS3_DpT2_EPKcS5_PmS9_EN10_Range_chk6_S_chkElSt17integral_constantIbLb1EE = comdat any

$_ZZN9__gnu_cxx6__stoaIlicJiEEET0_PFT_PKT1_PPS3_DpT2_EPKcS5_PmS9_EN11_Save_errnoD2Ev = comdat any

$_ZN24ProtocolHandlerInterfaceC2Ev = comdat any

$_ZNSt7__cxx119to_stringEi = comdat any

$_ZN4http7Session17getDefaultTimeoutEv = comdat any

$_ZNSt6chrono8durationIlSt5ratioILl1ELl1000000EEEC2IlS1_ILl1ELl1000EEvEERKNS0_IT_T0_EE = comdat any

$_ZNSt6chrono10time_pointINS_3_V212steady_clockENS_8durationIlSt5ratioILl1ELl1000000000EEEEEC2Ev = comdat any

$_ZN4http6HeaderC2Ev = comdat any

$_ZN4http7RequestC2ENSt7__cxx1112basic_stringIcSt11char_traitsIcESaIcEEES6_NS_6HeaderES6_ = comdat any

$_ZN4http6HeaderD2Ev = comdat any

$_ZNSt8functionIFvRKSt10shared_ptrIN4http7SessionEEEEC2Ev = comdat any

$_ZNSt10shared_ptrIN4http8ResponseEEC2Ev = comdat any

$_ZNSt8weak_ptrI12StreamSocketEC2Ev = comdat any

$_ZN4http7SessionD2Ev = comdat any

$_ZN4http7SessionD0Ev = comdat any

$_ZN4http7Session9onConnectERKSt10shared_ptrI12StreamSocketE = comdat any

$_ZN24ProtocolHandlerInterface18enableProcessInputEb = comdat any

$_ZNK24ProtocolHandlerInterface19processInputEnabledEv = comdat any

$_ZN4http7Session21handleIncomingMessageER17SocketDisposition = comdat any

$_ZN4http7Session13getPollEventsENSt6chrono10time_pointINS1_3_V212steady_clockENS1_8durationIlSt5ratioILl1ELl1000000000EEEEEERl = comdat any

$_ZN4http7Session12checkTimeoutENSt6chrono10time_pointINS1_3_V212steady_clockENS1_8durationIlSt5ratioILl1ELl1000000000EEEEEE = comdat any

$_ZN4http7Session13performWritesEm = comdat any

$_ZN4http7Session12onDisconnectEv = comdat any

$_ZN24ProtocolHandlerInterface7disposeEv = comdat any

$_ZNK4http7Session15sendTextMessageEPKcmb = comdat any

$_ZNK4http7Session17sendBinaryMessageEPKcmb = comdat any

$_ZN4http7Session8shutdownEbRKNSt7__cxx1112basic_stringIcSt11char_traitsIcESaIcEEE = comdat any

$_ZN4http7Session10getIOStatsERmS1_ = comdat any

$_ZN24ProtocolHandlerInterface9dumpStateERSo = comdat any

$_ZNSt23enable_shared_from_thisI24ProtocolHandlerInterfaceEC2Ev = comdat any

$_ZNSt10shared_ptrI23MessageHandlerInterfaceEC2Ev = comdat any

$_ZN24ProtocolHandlerInterfaceD2Ev = comdat any

$_ZN24ProtocolHandlerInterfaceD0Ev = comdat any

$_ZN24ProtocolHandlerInterface12checkTimeoutENSt6chrono10time_pointINS0_3_V212steady_clockENS0_8durationIlSt5ratioILl1ELl1000000000EEEEEE = comdat any

$_ZN24ProtocolHandlerInterface12onDisconnectEv = comdat any

$_ZNSt8weak_ptrI24ProtocolHandlerInterfaceEC2Ev = comdat any

$_ZNSt10__weak_ptrI24ProtocolHandlerInterfaceLN9__gnu_cxx12_Lock_policyE2EEC2Ev = comdat any

$_ZNSt12__weak_countILN9__gnu_cxx12_Lock_policyE2EEC2Ev = comdat any

$_ZNSt14__shared_countILN9__gnu_cxx12_Lock_policyE2EEC2Ev = comdat any

$_ZNSt8__detail14__to_chars_lenIjEEjT_i = comdat any

$_ZNSt7__cxx1112basic_stringIcSt11char_traitsIcESaIcEEC2IS3_EEmcRKS3_ = comdat any

$_ZNSt8__detail18__to_chars_10_implIjEEvPcjT_ = comdat any

$_ZNSt7__cxx1112basic_stringIcSt11char_traitsIcESaIcEE12_Alloc_hiderD2Ev = comdat any

$_ZNSt6chrono8durationIlSt5ratioILl1ELl1EEEC2IivEERKT_ = comdat any

$_ZNSt6chrono8durationIlSt5ratioILl1ELl1000EEEC2IlS1_ILl1ELl1EEvEERKNS0_IT_T0_EE = comdat any

$_ZNSt6chrono13duration_castINS_8durationIlSt5ratioILl1ELl1000EEEElS2_ILl1ELl1EEEENSt9enable_ifIXsr13__is_durationIT_EE5valueES7_E4typeERKNS1_IT0_T1_EE = comdat any

$_ZNKSt6chrono8durationIlSt5ratioILl1ELl1000EEE5countEv = comdat any

$_ZNSt6chrono20__duration_cast_implINS_8durationIlSt5ratioILl1ELl1000EEEES2_ILl1000ELl1EElLb0ELb1EE6__castIlS2_ILl1ELl1EEEES4_RKNS1_IT_T0_EE = comdat any

$_ZNKSt6chrono8durationIlSt5ratioILl1ELl1EEE5countEv = comdat any

$_ZNSt6chrono8durationIlSt5ratioILl1ELl1000EEEC2IlvEERKT_ = comdat any

$_ZNSt6chrono13duration_castINS_8durationIlSt5ratioILl1ELl1000000EEEElS2_ILl1ELl1000EEEENSt9enable_ifIXsr13__is_durationIT_EE5valueES7_E4typeERKNS1_IT0_T1_EE = comdat any

$_ZNKSt6chrono8durationIlSt5ratioILl1ELl1000000EEE5countEv = comdat any

$_ZNSt6chrono20__duration_cast_implINS_8durationIlSt5ratioILl1ELl1000000EEEES2_ILl1000ELl1EElLb0ELb1EE6__castIlS2_ILl1ELl1000EEEES4_RKNS1_IT_T0_EE = comdat any

$_ZNSt6chrono8durationIlSt5ratioILl1ELl1000000EEEC2IlvEERKT_ = comdat any

$_ZNSt6chrono8durationIlSt5ratioILl1ELl1000000000EEE4zeroEv = comdat any

$_ZNSt6chrono15duration_valuesIlE4zeroEv = comdat any

$_ZNSt6chrono8durationIlSt5ratioILl1ELl1000000000EEEC2IlvEERKT_ = comdat any

$_ZNSt6vectorISt4pairINSt7__cxx1112basic_stringIcSt11char_traitsIcESaIcEEES6_ESaIS7_EEC2Ev = comdat any

$_ZNSt12_Vector_baseISt4pairINSt7__cxx1112basic_stringIcSt11char_traitsIcESaIcEEES6_ESaIS7_EEC2Ev = comdat any

$_ZNSt12_Vector_baseISt4pairINSt7__cxx1112basic_stringIcSt11char_traitsIcESaIcEEES6_ESaIS7_EE12_Vector_implC2Ev = comdat any

$_ZNSaISt4pairINSt7__cxx1112basic_stringIcSt11char_traitsIcESaIcEEES5_EEC2Ev = comdat any

$_ZNSt12_Vector_baseISt4pairINSt7__cxx1112basic_stringIcSt11char_traitsIcESaIcEEES6_ESaIS7_EE17_Vector_impl_dataC2Ev = comdat any

$_ZN9__gnu_cxx13new_allocatorISt4pairINSt7__cxx1112basic_stringIcSt11char_traitsIcESaIcEEES7_EEC2Ev = comdat any

$_ZN4http6HeaderC2EOS0_ = comdat any

$_ZNSt8functionIFlPclEEC2IZN4http7RequestC1ENSt7__cxx1112basic_stringIcSt11char_traitsIcESaIcEEESB_NS4_6HeaderESB_EUlPKclE_vEEOT_ = comdat any

$_ZNSt6vectorISt4pairINSt7__cxx1112basic_stringIcSt11char_traitsIcESaIcEEES6_ESaIS7_EEC2EOS9_ = comdat any

$_ZNSt12_Vector_baseISt4pairINSt7__cxx1112basic_stringIcSt11char_traitsIcESaIcEEES6_ESaIS7_EEC2EOS9_ = comdat any

$_ZNSt12_Vector_baseISt4pairINSt7__cxx1112basic_stringIcSt11char_traitsIcESaIcEEES6_ESaIS7_EE12_Vector_implC2EOSA_ = comdat any

$_ZNSaISt4pairINSt7__cxx1112basic_stringIcSt11char_traitsIcESaIcEEES5_EEC2ERKS7_ = comdat any

$_ZNSt12_Vector_baseISt4pairINSt7__cxx1112basic_stringIcSt11char_traitsIcESaIcEEES6_ESaIS7_EE17_Vector_impl_dataC2EOSA_ = comdat any

$_ZN9__gnu_cxx13new_allocatorISt4pairINSt7__cxx1112basic_stringIcSt11char_traitsIcESaIcEEES7_EEC2ERKS9_ = comdat any

$_ZNSt14_Function_base13_Base_managerIZN4http7RequestC1ENSt7__cxx1112basic_stringIcSt11char_traitsIcESaIcEEES8_NS1_6HeaderES8_EUlPKclE_E21_M_not_empty_functionISC_EEbRKT_ = comdat any

$_ZNSt14_Function_base13_Base_managerIZN4http7RequestC1ENSt7__cxx1112basic_stringIcSt11char_traitsIcESaIcEEES8_NS1_6HeaderES8_EUlPKclE_E15_M_init_functorISC_EEvRSt9_Any_dataOT_ = comdat any

$_ZNSt17_Function_handlerIFlPclEZN4http7RequestC1ENSt7__cxx1112basic_stringIcSt11char_traitsIcESaIcEEES9_NS2_6HeaderES9_EUlPKclE_E9_M_invokeERKSt9_Any_dataOS0_Ol = comdat any

$_ZNSt17_Function_handlerIFlPclEZN4http7RequestC1ENSt7__cxx1112basic_stringIcSt11char_traitsIcESaIcEEES9_NS2_6HeaderES9_EUlPKclE_E10_M_managerERSt9_Any_dataRKSF_St18_Manager_operation = comdat any

$_ZNSt14_Function_base13_Base_managerIZN4http7RequestC1ENSt7__cxx1112basic_stringIcSt11char_traitsIcESaIcEEES8_NS1_6HeaderES8_EUlPKclE_E9_M_createISC_EEvRSt9_Any_dataOT_St17integral_constantIbLb1EE = comdat any

$_ZSt10__invoke_rIlRZN4http7RequestC1ENSt7__cxx1112basic_stringIcSt11char_traitsIcESaIcEEES7_NS0_6HeaderES7_EUlPKclE_JPclEENSt9enable_ifIX16is_invocable_r_vIT_T0_DpT1_EESF_E4typeEOSG_DpOSH_ = comdat any

$_ZNSt14_Function_base13_Base_managerIZN4http7RequestC1ENSt7__cxx1112basic_stringIcSt11char_traitsIcESaIcEEES8_NS1_6HeaderES8_EUlPKclE_E14_M_get_pointerERKSt9_Any_data = comdat any

$_ZSt13__invoke_implIiRZN4http7RequestC1ENSt7__cxx1112basic_stringIcSt11char_traitsIcESaIcEEES7_NS0_6HeaderES7_EUlPKclE_JPclEET_St14__invoke_otherOT0_DpOT1_ = comdat any

$_ZZN4http7RequestC1ENSt7__cxx1112basic_stringIcSt11char_traitsIcESaIcEEES6_NS_6HeaderES6_ENKUlPKclE_clES9_l = comdat any

$_ZNKSt9_Any_data9_M_accessIZN4http7RequestC1ENSt7__cxx1112basic_stringIcSt11char_traitsIcESaIcEEES8_NS1_6HeaderES8_EUlPKclE_EERKT_v = comdat any

$_ZNSt9_Any_data9_M_accessIPZN4http7RequestC1ENSt7__cxx1112basic_stringIcSt11char_traitsIcESaIcEEES8_NS1_6HeaderES8_EUlPKclE_EERT_v = comdat any

$_ZNSt14_Function_base13_Base_managerIZN4http7RequestC1ENSt7__cxx1112basic_stringIcSt11char_traitsIcESaIcEEES8_NS1_6HeaderES8_EUlPKclE_E10_M_managerERSt9_Any_dataRKSE_St18_Manager_operation = comdat any

$_ZNSt14_Function_base13_Base_managerIZN4http7RequestC1ENSt7__cxx1112basic_stringIcSt11char_traitsIcESaIcEEES8_NS1_6HeaderES8_EUlPKclE_E15_M_init_functorIRKSC_EEvRSt9_Any_dataOT_ = comdat any

$_ZNSt14_Function_base13_Base_managerIZN4http7RequestC1ENSt7__cxx1112basic_stringIcSt11char_traitsIcESaIcEEES8_NS1_6HeaderES8_EUlPKclE_E10_M_destroyERSt9_Any_dataSt17integral_constantIbLb1EE = comdat any

$_ZNSt14_Function_base13_Base_managerIZN4http7RequestC1ENSt7__cxx1112basic_stringIcSt11char_traitsIcESaIcEEES8_NS1_6HeaderES8_EUlPKclE_E9_M_createIRKSC_EEvRSt9_Any_dataOT_St17integral_constantIbLb1EE = comdat any

$_ZNSt9_Any_data9_M_accessIZN4http7RequestC1ENSt7__cxx1112basic_stringIcSt11char_traitsIcESaIcEEES8_NS1_6HeaderES8_EUlPKclE_EERT_v = comdat any

$_ZNSt6vectorISt4pairINSt7__cxx1112basic_stringIcSt11char_traitsIcESaIcEEES6_ESaIS7_EED2Ev = comdat any

$_ZNSt12_Vector_baseISt4pairINSt7__cxx1112basic_stringIcSt11char_traitsIcESaIcEEES6_ESaIS7_EED2Ev = comdat any

$_ZNSt12_Vector_baseISt4pairINSt7__cxx1112basic_stringIcSt11char_traitsIcESaIcEEES6_ESaIS7_EE12_Vector_implD2Ev = comdat any

$_ZNSaISt4pairINSt7__cxx1112basic_stringIcSt11char_traitsIcESaIcEEES5_EED2Ev = comdat any

$_ZN9__gnu_cxx13new_allocatorISt4pairINSt7__cxx1112basic_stringIcSt11char_traitsIcESaIcEEES7_EED2Ev = comdat any

$_ZNSt12__shared_ptrIN4http8ResponseELN9__gnu_cxx12_Lock_policyE2EEC2Ev = comdat any

$_ZNSt10shared_ptrI23MessageHandlerInterfaceED2Ev = comdat any

$_ZNSt23enable_shared_from_thisI24ProtocolHandlerInterfaceED2Ev = comdat any

$_ZNSt14__shared_countILN9__gnu_cxx12_Lock_policyE2EED2Ev = comdat any

$_ZNSt16_Sp_counted_baseILN9__gnu_cxx12_Lock_policyE2EE10_M_releaseEv = comdat any

$_ZNSt8weak_ptrI24ProtocolHandlerInterfaceED2Ev = comdat any

$_ZNSt10__weak_ptrI24ProtocolHandlerInterfaceLN9__gnu_cxx12_Lock_policyE2EED2Ev = comdat any

$_ZNSt12__weak_countILN9__gnu_cxx12_Lock_policyE2EED2Ev = comdat any

$_ZNSt16_Sp_counted_baseILN9__gnu_cxx12_Lock_policyE2EE15_M_weak_releaseEv = comdat any

$_ZNSt8weak_ptrI12StreamSocketED2Ev = comdat any

$_ZNSt10shared_ptrIN4http8ResponseEED2Ev = comdat any

$_ZNSt8functionIFvRKSt10shared_ptrIN4http7SessionEEEED2Ev = comdat any

$_ZN4http7RequestD2Ev = comdat any

$_ZNSt12__shared_ptrIN4http8ResponseELN9__gnu_cxx12_Lock_policyE2EED2Ev = comdat any

$_ZNSt8functionIFlPclEED2Ev = comdat any

$_ZNKSt12__shared_ptrI12StreamSocketLN9__gnu_cxx12_Lock_policyE2EEcvbEv = comdat any

$_ZNKSt19__shared_ptr_accessI12StreamSocketLN9__gnu_cxx12_Lock_policyE2ELb0ELb0EEptEv = comdat any

$_ZNK6Socket5getFDEv = comdat any

$_ZNKSt19__shared_ptr_accessI12StreamSocketLN9__gnu_cxx12_Lock_policyE2ELb0ELb0EE6_M_getEv = comdat any

$_ZNKSt12__shared_ptrI12StreamSocketLN9__gnu_cxx12_Lock_policyE2EE3getEv = comdat any

$_ZNKSt8weak_ptrI12StreamSocketE4lockEv = comdat any

$_ZNK4http7Session11isConnectedEv = comdat any

$_ZN12StreamSocket11getInBufferEv = comdat any

$_ZNKSt19__shared_ptr_accessIN4http8ResponseELN9__gnu_cxx12_Lock_policyE2ELb0ELb0EEptEv = comdat any

$_ZN6Buffer4dataEv = comdat any

$_ZNK6Buffer4sizeEv = comdat any

$_ZN6Buffer10eraseFirstEm = comdat any

$_ZN17SocketDisposition9setClosedEv = comdat any

$_ZNSt10shared_ptrI12StreamSocketED2Ev = comdat any

$_ZNSt10shared_ptrI12StreamSocketEC2ERKSt8weak_ptrIS0_ESt9nothrow_t = comdat any

$_ZNSt12__shared_ptrI12StreamSocketLN9__gnu_cxx12_Lock_policyE2EEC2ERKSt10__weak_ptrIS0_LS2_2EESt9nothrow_t = comdat any

$_ZNSt14__shared_countILN9__gnu_cxx12_Lock_policyE2EEC2ERKSt12__weak_countILS1_2EESt9nothrow_t = comdat any

$_ZNKSt14__shared_countILN9__gnu_cxx12_Lock_policyE2EE16_M_get_use_countEv = comdat any

$_ZNSt16_Sp_counted_baseILN9__gnu_cxx12_Lock_policyE2EE23_M_add_ref_lock_nothrowEv = comdat any

$_ZNKSt16_Sp_counted_baseILN9__gnu_cxx12_Lock_policyE2EE16_M_get_use_countEv = comdat any

$_ZNKSt19__shared_ptr_accessIN4http8ResponseELN9__gnu_cxx12_Lock_policyE2ELb0ELb0EE6_M_getEv = comdat any

$_ZNKSt12__shared_ptrIN4http8ResponseELN9__gnu_cxx12_Lock_policyE2EE3getEv = comdat any

$_ZNSt6vectorIcSaIcEE4dataEv = comdat any

$_ZNKSt6vectorIcSaIcEE11_M_data_ptrIcEEPT_S4_ = comdat any

$_ZNKSt6vectorIcSaIcEE4sizeEv = comdat any

$_ZNSt6vectorIcSaIcEE5eraseEN9__gnu_cxx17__normal_iteratorIPKcS1_EES6_ = comdat any

$_ZNSt6vectorIcSaIcEE5beginEv = comdat any

$_ZN9__gnu_cxx17__normal_iteratorIPKcSt6vectorIcSaIcEEEC2IPcEERKNS0_IT_NS_11__enable_ifIXsr3std10__are_sameIS9_S8_EE7__valueES5_E6__typeEEE = comdat any

$_ZNK9__gnu_cxx17__normal_iteratorIPcSt6vectorIcSaIcEEEplEl = comdat any

$_ZNKSt6vectorIcSaIcEE6cbeginEv = comdat any

$_ZNSt6vectorIcSaIcEE8_M_eraseEN9__gnu_cxx17__normal_iteratorIPcS1_EES5_ = comdat any

$_ZN9__gnu_cxxmiIPKcSt6vectorIcSaIcEEEENS_17__normal_iteratorIT_T0_E15difference_typeERKS9_SC_ = comdat any

$_ZN9__gnu_cxx17__normal_iteratorIPKcSt6vectorIcSaIcEEEC2ERKS2_ = comdat any

$_ZN9__gnu_cxxneIPcSt6vectorIcSaIcEEEEbRKNS_17__normal_iteratorIT_T0_EESA_ = comdat any

$_ZNSt6vectorIcSaIcEE3endEv = comdat any

$_ZSt4moveIN9__gnu_cxx17__normal_iteratorIPcSt6vectorIcSaIcEEEES6_ET0_T_S8_S7_ = comdat any

$_ZNSt6vectorIcSaIcEE15_M_erase_at_endEPc = comdat any

$_ZNK9__gnu_cxx17__normal_iteratorIPcSt6vectorIcSaIcEEE4baseEv = comdat any

$_ZN9__gnu_cxxmiIPcSt6vectorIcSaIcEEEENS_17__normal_iteratorIT_T0_E15difference_typeERKS8_SB_ = comdat any

$_ZN9__gnu_cxx17__normal_iteratorIPcSt6vectorIcSaIcEEEC2ERKS1_ = comdat any

$_ZSt13__copy_move_aILb1EN9__gnu_cxx17__normal_iteratorIPcSt6vectorIcSaIcEEEES6_ET1_T0_S8_S7_ = comdat any

$_ZSt12__miter_baseIN9__gnu_cxx17__normal_iteratorIPcSt6vectorIcSaIcEEEEET_S7_ = comdat any

$_ZSt12__niter_wrapIN9__gnu_cxx17__normal_iteratorIPcSt6vectorIcSaIcEEEES2_ET_S7_T0_ = comdat any

$_ZSt14__copy_move_a1ILb1EPcS0_ET1_T0_S2_S1_ = comdat any

$_ZSt12__niter_baseIPcSt6vectorIcSaIcEEET_N9__gnu_cxx17__normal_iteratorIS4_T0_EE = comdat any

$_ZSt14__copy_move_a2ILb1EPcS0_ET1_T0_S2_S1_ = comdat any

$_ZNSt11__copy_moveILb1ELb1ESt26random_access_iterator_tagE8__copy_mIcEEPT_PKS3_S6_S4_ = comdat any

$_ZSt8_DestroyIPccEvT_S1_RSaIT0_E = comdat any

$_ZNSt12_Vector_baseIcSaIcEE19_M_get_Tp_allocatorEv = comdat any

$_ZSt8_DestroyIPcEvT_S1_ = comdat any

$_ZNSt12_Destroy_auxILb1EE9__destroyIPcEEvT_S3_ = comdat any

$_ZNK9__gnu_cxx17__normal_iteratorIPKcSt6vectorIcSaIcEEE4baseEv = comdat any

$_ZNSt12__shared_ptrI12StreamSocketLN9__gnu_cxx12_Lock_policyE2EED2Ev = comdat any

$_ZNK4http7Request5stageEv = comdat any

$_ZNKSt12__shared_ptrIN4http8ResponseELN9__gnu_cxx12_Lock_policyE2EEcvbEv = comdat any

$_ZNSt6chrono13duration_castINS_8durationIlSt5ratioILl1ELl1000EEEElS2_ILl1ELl1000000000EEEENSt9enable_ifIXsr13__is_durationIT_EE5valueES7_E4typeERKNS1_IT0_T1_EE = comdat any

$_ZNSt6chronomiINS_3_V212steady_clockENS_8durationIlSt5ratioILl1ELl1000000000EEEES6_EENSt11common_typeIJT0_T1_EE4typeERKNS_10time_pointIT_S8_EERKNSC_ISD_S9_EE = comdat any

$_ZNSt6chronogtIlSt5ratioILl1ELl1000EElS1_ILl1ELl1000000EEEEbRKNS_8durationIT_T0_EERKNS4_IT1_T2_EE = comdat any

$_ZNK4http7Session10getTimeoutEv = comdat any

$_ZNK4Poco6Logger7warningEv = comdat any

$_ZlsRSoRKNSt6chrono8durationIlSt5ratioILl1ELl1000EEEE = comdat any

$_ZNK4http7Request7getVerbB5cxx11Ev = comdat any

$_ZNK4http7Request6getUrlB5cxx11Ev = comdat any

$_ZN4http8Response7timeoutEv = comdat any

$_ZNSt6chrono20__duration_cast_implINS_8durationIlSt5ratioILl1ELl1000EEEES2_ILl1ELl1000000EElLb1ELb0EE6__castIlS2_ILl1ELl1000000000EEEES4_RKNS1_IT_T0_EE = comdat any

$_ZNKSt6chrono8durationIlSt5ratioILl1ELl1000000000EEE5countEv = comdat any

$_ZNSt6chronomiIlSt5ratioILl1ELl1000000000EElS2_EENSt11common_typeIJNS_8durationIT_T0_EENS4_IT1_T2_EEEE4typeERKS7_RKSA_ = comdat any

$_ZNKSt6chrono10time_pointINS_3_V212steady_clockENS_8durationIlSt5ratioILl1ELl1000000000EEEEE16time_since_epochEv = comdat any

$_ZNSt6chronoltIlSt5ratioILl1ELl1000000EElS1_ILl1ELl1000EEEEbRKNS_8durationIT_T0_EERKNS4_IT1_T2_EE = comdat any

$_ZN12StreamSocket12getOutBufferEv = comdat any

$_ZNSt10__weak_ptrI12StreamSocketLN9__gnu_cxx12_Lock_policyE2EE5resetEv = comdat any

$_ZN4http8Response6finishEv = comdat any

$_ZNSt10__weak_ptrI12StreamSocketLN9__gnu_cxx12_Lock_policyE2EEC2Ev = comdat any

$_ZNSt10__weak_ptrI12StreamSocketLN9__gnu_cxx12_Lock_policyE2EE4swapERS3_ = comdat any

$_ZNSt10__weak_ptrI12StreamSocketLN9__gnu_cxx12_Lock_policyE2EED2Ev = comdat any

$_ZSt4swapIP12StreamSocketENSt9enable_ifIXsr6__and_ISt6__not_ISt15__is_tuple_likeIT_EESt21is_move_constructibleIS5_ESt18is_move_assignableIS5_EEE5valueEvE4typeERS5_SE_ = comdat any

$_ZNSt12__weak_countILN9__gnu_cxx12_Lock_policyE2EE7_M_swapERS2_ = comdat any

$_ZNSt12__shared_ptrI23MessageHandlerInterfaceLN9__gnu_cxx12_Lock_policyE2EE5resetEv = comdat any

$_ZNSt12__shared_ptrI23MessageHandlerInterfaceLN9__gnu_cxx12_Lock_policyE2EEC2Ev = comdat any

$_ZNSt12__shared_ptrI23MessageHandlerInterfaceLN9__gnu_cxx12_Lock_policyE2EE4swapERS3_ = comdat any

$_ZNSt12__shared_ptrI23MessageHandlerInterfaceLN9__gnu_cxx12_Lock_policyE2EED2Ev = comdat any

$_ZSt4swapIP23MessageHandlerInterfaceENSt9enable_ifIXsr6__and_ISt6__not_ISt15__is_tuple_likeIT_EESt21is_move_constructibleIS5_ESt18is_move_assignableIS5_EEE5valueEvE4typeERS5_SE_ = comdat any

$_ZNSt14__shared_countILN9__gnu_cxx12_Lock_policyE2EE7_M_swapERS2_ = comdat any

$_ZN12StreamSocket10getIOStatsERmS0_ = comdat any

$_ZNSt11char_traitsIcE6lengthEPKc = comdat any

$_ZNSt7__cxx1112basic_stringIcSt11char_traitsIcESaIcEE12_M_constructIPKcEEvT_S8_St20forward_iterator_tag = comdat any

$_ZN9__gnu_cxx11char_traitsIcE6lengthEPKc = comdat any

$_ZN9__gnu_cxx11char_traitsIcE2eqERKcS3_ = comdat any

$_ZN9__gnu_cxx17__is_null_pointerIKcEEbPT_ = comdat any

$_ZSt8distanceIPKcENSt15iterator_traitsIT_E15difference_typeES3_S3_ = comdat any

$_ZSt10__distanceIPKcENSt15iterator_traitsIT_E15difference_typeES3_S3_St26random_access_iterator_tag = comdat any

$_ZSt19__iterator_categoryIPKcENSt15iterator_traitsIT_E17iterator_categoryERKS3_ = comdat any

$_ZNK9__gnu_cxx17__normal_iteratorIPKSt4pairINSt7__cxx1112basic_stringIcSt11char_traitsIcESaIcEEES7_ESt6vectorIS8_SaIS8_EEE4baseEv = comdat any

$_ZNSt6atomicIN4http8Response5StateEE5storeES2_St12memory_order = comdat any

$_ZN9__gnu_cxx14__alloc_traitsISaIcEcE17_S_select_on_copyERKS1_ = comdat any

$_ZNSt16allocator_traitsISaIcEE37select_on_container_copy_constructionERKS0_ = comdat any

$_ZNSt12__shared_ptrIN4http7SessionELN9__gnu_cxx12_Lock_policyE2EEC2IS1_vEEPT_ = comdat any

$_ZNSt14__shared_countILN9__gnu_cxx12_Lock_policyE2EEC2IPN4http7SessionEEET_St17integral_constantIbLb0EE = comdat any

$_ZNSt12__shared_ptrIN4http7SessionELN9__gnu_cxx12_Lock_policyE2EE31_M_enable_shared_from_this_withIS1_S1_EENSt9enable_ifIXsr15__has_esft_baseIT0_EE5valueEvE4typeEPT_ = comdat any

$_ZNSt14__shared_countILN9__gnu_cxx12_Lock_policyE2EEC2IPN4http7SessionEEET_ = comdat any

$_ZNSt15_Sp_counted_ptrIPN4http7SessionELN9__gnu_cxx12_Lock_policyE2EEC2ES2_ = comdat any

$_ZNSt16_Sp_counted_baseILN9__gnu_cxx12_Lock_policyE2EEC2Ev = comdat any

$_ZNSt15_Sp_counted_ptrIPN4http7SessionELN9__gnu_cxx12_Lock_policyE2EED2Ev = comdat any

$_ZNSt15_Sp_counted_ptrIPN4http7SessionELN9__gnu_cxx12_Lock_policyE2EED0Ev = comdat any

$_ZNSt15_Sp_counted_ptrIPN4http7SessionELN9__gnu_cxx12_Lock_policyE2EE10_M_disposeEv = comdat any

$_ZNSt15_Sp_counted_ptrIPN4http7SessionELN9__gnu_cxx12_Lock_policyE2EE10_M_destroyEv = comdat any

$_ZNSt15_Sp_counted_ptrIPN4http7SessionELN9__gnu_cxx12_Lock_policyE2EE14_M_get_deleterERKSt9type_info = comdat any

$_ZNSt16_Sp_counted_baseILN9__gnu_cxx12_Lock_policyE2EED2Ev = comdat any

$_ZNSt16_Sp_counted_baseILN9__gnu_cxx12_Lock_policyE2EED0Ev = comdat any

$_ZNSt16_Sp_counted_baseILN9__gnu_cxx12_Lock_policyE2EE10_M_destroyEv = comdat any

$_ZSt30__enable_shared_from_this_baseRKSt14__shared_countILN9__gnu_cxx12_Lock_policyE2EEPKSt23enable_shared_from_thisI24ProtocolHandlerInterfaceE = comdat any

$_ZNKSt23enable_shared_from_thisI24ProtocolHandlerInterfaceE14_M_weak_assignIN4http7SessionEEEvPT_RKSt14__shared_countILN9__gnu_cxx12_Lock_policyE2EE = comdat any

$_ZNSt10__weak_ptrI24ProtocolHandlerInterfaceLN9__gnu_cxx12_Lock_policyE2EE9_M_assignEPS0_RKSt14__shared_countILS2_2EE = comdat any

$_ZNKSt10__weak_ptrI24ProtocolHandlerInterfaceLN9__gnu_cxx12_Lock_policyE2EE9use_countEv = comdat any

$_ZNSt12__weak_countILN9__gnu_cxx12_Lock_policyE2EEaSERKSt14__shared_countILS1_2EE = comdat any

$_ZNKSt12__weak_countILN9__gnu_cxx12_Lock_policyE2EE16_M_get_use_countEv = comdat any

$_ZNSt16_Sp_counted_baseILN9__gnu_cxx12_Lock_policyE2EE15_M_weak_add_refEv = comdat any

$_ZTSZN4http8Response16saveBodyToMemoryEvEUlPKclE_ = comdat any

$_ZTIZN4http8Response16saveBodyToMemoryEvEUlPKclE_ = comdat any

$_ZTVN4http7SessionE = comdat any

$_ZTSN4http7SessionE = comdat any

$_ZTS24ProtocolHandlerInterface = comdat any

$_ZTSSt23enable_shared_from_thisI24ProtocolHandlerInterfaceE = comdat any

$_ZTISt23enable_shared_from_thisI24ProtocolHandlerInterfaceE = comdat any

$_ZTI24ProtocolHandlerInterface = comdat any

$_ZTIN4http7SessionE = comdat any

$_ZTV24ProtocolHandlerInterface = comdat any

$_ZZNSt8__detail18__to_chars_10_implIjEEvPcjT_E8__digits = comdat any

$_ZTSZN4http7RequestC1ENSt7__cxx1112basic_stringIcSt11char_traitsIcESaIcEEES6_NS_6HeaderES6_EUlPKclE_ = comdat any

$_ZTIZN4http7RequestC1ENSt7__cxx1112basic_stringIcSt11char_traitsIcESaIcEEES6_NS_6HeaderES6_EUlPKclE_ = comdat any

$_ZTVSt15_Sp_counted_ptrIPN4http7SessionELN9__gnu_cxx12_Lock_policyE2EE = comdat any

$_ZTSSt15_Sp_counted_ptrIPN4http7SessionELN9__gnu_cxx12_Lock_policyE2EE = comdat any

$_ZTSSt16_Sp_counted_baseILN9__gnu_cxx12_Lock_policyE2EE = comdat any

$_ZTSSt11_Mutex_baseILN9__gnu_cxx12_Lock_policyE2EE = comdat any

$_ZTISt11_Mutex_baseILN9__gnu_cxx12_Lock_policyE2EE = comdat any

$_ZTISt16_Sp_counted_baseILN9__gnu_cxx12_Lock_policyE2EE = comdat any

$_ZTISt15_Sp_counted_ptrIPN4http7SessionELN9__gnu_cxx12_Lock_policyE2EE = comdat any

$_ZTVSt16_Sp_counted_baseILN9__gnu_cxx12_Lock_policyE2EE = comdat any

@_ZStL8__ioinit = internal global %"class.std::ios_base::Init" zeroinitializer, align 1, !dbg !0
@__dso_handle = external hidden global i8
@_ZN3LogL3endE = internal global %"struct.Log::_end_marker" zeroinitializer, align 1, !dbg !7
@.str = private unnamed_addr constant [4 x i8] c"TRC\00", align 1, !dbg !18
@.str.2 = private unnamed_addr constant [22 x i8] c"Reading header given \00", align 1, !dbg !26
@.str.3 = private unnamed_addr constant [9 x i8] c" bytes: \00", align 1, !dbg !31
@.str.4 = private unnamed_addr constant [3 x i8] c"| \00", align 1, !dbg !36
@.str.5 = private unnamed_addr constant [20 x i8] c"net/HttpRequest.cpp\00", align 1, !dbg !41
@_ZTIN4Poco9ExceptionE = external constant ptr
@.str.6 = private unnamed_addr constant [4 x i8] c"DBG\00", align 1, !dbg !46
@.str.7 = private unnamed_addr constant [29 x i8] c"Failed to parse http header.\00", align 1, !dbg !48
@.str.8 = private unnamed_addr constant [8 x i8] c"chunked\00", align 1, !dbg !53
@.str.9 = private unnamed_addr constant [6 x i8] c"Read \00", align 1, !dbg !58
@.str.10 = private unnamed_addr constant [19 x i8] c" bytes of header:\0A\00", align 1, !dbg !63
@.str.11 = private unnamed_addr constant [20 x i8] c"\0AhasContentLength: \00", align 1, !dbg !68
@.str.12 = private unnamed_addr constant [18 x i8] c", contentLength: \00", align 1, !dbg !70
@.str.13 = private unnamed_addr constant [12 x i8] c", chunked: \00", align 1, !dbg !75
@.str.14 = private unnamed_addr constant [34 x i8] c"ERROR while parsing http header: \00", align 1, !dbg !80
@.str.15 = private unnamed_addr constant [15 x i8] c"Content-Length\00", align 1, !dbg !85
@_ZTISt12out_of_range = external constant ptr
@.str.16 = private unnamed_addr constant [6 x i8] c"HTTP/\00", align 1, !dbg !91
@.str.17 = private unnamed_addr constant [4 x i8] c"ERR\00", align 1, !dbg !93
@.str.18 = private unnamed_addr constant [42 x i8] c"StatusLine::parse: Invalid HTTP version [\00", align 1, !dbg !95
@.str.19 = private unnamed_addr constant [2 x i8] c"]\00", align 1, !dbg !100
@.str.20 = private unnamed_addr constant [49 x i8] c"StatusLine::parse: expected valid integer number\00", align 1, !dbg !105
@.str.21 = private unnamed_addr constant [40 x i8] c"StatusLine::parse: Invalid StatusCode [\00", align 1, !dbg !110
@.str.22 = private unnamed_addr constant [44 x i8] c"StatusLine::parse: StatusCode is too long: \00", align 1, !dbg !115
@.str.23 = private unnamed_addr constant [45 x i8] c"Request::readData: len < MinRequestHeaderLen\00", align 1, !dbg !120
@.str.24 = private unnamed_addr constant [42 x i8] c"Request::dataRead: Invalid HTTP version [\00", align 1, !dbg !125
@.str.25 = private unnamed_addr constant [4 x i8] c"GET\00", align 1, !dbg !127
@.str.26 = private unnamed_addr constant [26 x i8] c"Unsupported HTTP Method [\00", align 1, !dbg !129
@.str.27 = private unnamed_addr constant [11 x i8] c"readData: \00", align 1, !dbg !134
@.str.28 = private unnamed_addr constant [7 x i8] c" bytes\00", align 1, !dbg !139
@.str.29 = private unnamed_addr constant [47 x i8] c"Unexpected Content-Length header in response: \00", align 1, !dbg !144
@.str.30 = private unnamed_addr constant [22 x i8] c", Transfer-Encoding: \00", align 1, !dbg !149
@.str.31 = private unnamed_addr constant [20 x i8] c"ParserStage::Body: \00", align 1, !dbg !151
@.str.32 = private unnamed_addr constant [31 x i8] c"Not enough data for chunk size\00", align 1, !dbg !153
@.str.33 = private unnamed_addr constant [26 x i8] c"Unexpected chunk length: \00", align 1, !dbg !158
@.str.34 = private unnamed_addr constant [11 x i8] c"ChunkLen: \00", align 1, !dbg !160
@.str.35 = private unnamed_addr constant [29 x i8] c"Not enough chunk data. Need \00", align 1, !dbg !162
@.str.36 = private unnamed_addr constant [16 x i8] c" but have only \00", align 1, !dbg !164
@.str.37 = private unnamed_addr constant [61 x i8] c"Error writing http response payload. Write handler returned \00", align 1, !dbg !169
@.str.38 = private unnamed_addr constant [13 x i8] c" instead of \00", align 1, !dbg !174
@.str.39 = private unnamed_addr constant [7 x i8] c"Wrote \00", align 1, !dbg !179
@.str.40 = private unnamed_addr constant [23 x i8] c" bytes for a total of \00", align 1, !dbg !181
@.str.41 = private unnamed_addr constant [25 x i8] c"Got LastChunk, finished.\00", align 1, !dbg !186
@.str.42 = private unnamed_addr constant [29 x i8] c"Wrote all content, finished.\00", align 1, !dbg !191
@.str.43 = private unnamed_addr constant [30 x i8] c"Done consuming response, had \00", align 1, !dbg !193
@.str.44 = private unnamed_addr constant [18 x i8] c" bytes, consumed \00", align 1, !dbg !198
@.str.45 = private unnamed_addr constant [10 x i8] c" leaving \00", align 1, !dbg !200
@.str.46 = private unnamed_addr constant [9 x i8] c" unused.\00", align 1, !dbg !205
@.str.47 = private unnamed_addr constant [14 x i8] c"Invalid URI [\00", align 1, !dbg !207
@.str.48 = private unnamed_addr constant [28 x i8] c"] to http::Session::create.\00", align 1, !dbg !212
@_ZTISt13runtime_error = external constant ptr
@_ZN3Log10IsShutdownE = external global i8, align 1
@.str.49 = private unnamed_addr constant [26 x i8] c"vector::_M_realloc_insert\00", align 1, !dbg !217
@.str.50 = private unnamed_addr constant [18 x i8] c"Transfer-Encoding\00", align 1, !dbg !220
@.str.51 = private unnamed_addr constant [6 x i8] c"stoll\00", align 1, !dbg !222
@_ZTVN10__cxxabiv117__class_type_infoE = external global ptr
@_ZTSZN4http8Response16saveBodyToMemoryEvEUlPKclE_ = linkonce_odr dso_local constant [46 x i8] c"ZN4http8Response16saveBodyToMemoryEvEUlPKclE_\00", comdat, align 1
@_ZTIZN4http8Response16saveBodyToMemoryEvEUlPKclE_ = linkonce_odr dso_local constant { ptr, ptr } { ptr getelementptr inbounds (ptr, ptr @_ZTVN10__cxxabiv117__class_type_infoE, i64 2), ptr @_ZTSZN4http8Response16saveBodyToMemoryEvEUlPKclE_ }, comdat, align 8
@.str.52 = private unnamed_addr constant [16 x i8] c"State::Complete\00", align 1, !dbg !225
@.str.53 = private unnamed_addr constant [22 x i8] c"./net/HttpRequest.hpp\00", align 1, !dbg !227
@.str.54 = private unnamed_addr constant [10 x i8] c"Finishing\00", align 1, !dbg !229
@.str.55 = private unnamed_addr constant [5 x i8] c"stoi\00", align 1, !dbg !231
@_ZTVN4http7SessionE = linkonce_odr dso_local unnamed_addr constant { [18 x ptr] } { [18 x ptr] [ptr null, ptr @_ZTIN4http7SessionE, ptr @_ZN4http7SessionD2Ev, ptr @_ZN4http7SessionD0Ev, ptr @_ZN4http7Session9onConnectERKSt10shared_ptrI12StreamSocketE, ptr @_ZN24ProtocolHandlerInterface18enableProcessInputEb, ptr @_ZNK24ProtocolHandlerInterface19processInputEnabledEv, ptr @_ZN4http7Session21handleIncomingMessageER17SocketDisposition, ptr @_ZN4http7Session13getPollEventsENSt6chrono10time_pointINS1_3_V212steady_clockENS1_8durationIlSt5ratioILl1ELl1000000000EEEEEERl, ptr @_ZN4http7Session12checkTimeoutENSt6chrono10time_pointINS1_3_V212steady_clockENS1_8durationIlSt5ratioILl1ELl1000000000EEEEEE, ptr @_ZN4http7Session13performWritesEm, ptr @_ZN4http7Session12onDisconnectEv, ptr @_ZN24ProtocolHandlerInterface7disposeEv, ptr @_ZNK4http7Session15sendTextMessageEPKcmb, ptr @_ZNK4http7Session17sendBinaryMessageEPKcmb, ptr @_ZN4http7Session8shutdownEbRKNSt7__cxx1112basic_stringIcSt11char_traitsIcESaIcEEE, ptr @_ZN4http7Session10getIOStatsERmS1_, ptr @_ZN24ProtocolHandlerInterface9dumpStateERSo] }, comdat, align 8
@.str.56 = private unnamed_addr constant [2 x i8] c"/\00", align 1, !dbg !236
@.str.57 = private unnamed_addr constant [9 x i8] c"HTTP/1.1\00", align 1, !dbg !238
@_ZTVN10__cxxabiv120__si_class_type_infoE = external global ptr
@_ZTSN4http7SessionE = linkonce_odr dso_local constant [16 x i8] c"N4http7SessionE\00", comdat, align 1
@_ZTVN10__cxxabiv121__vmi_class_type_infoE = external global ptr
@_ZTS24ProtocolHandlerInterface = linkonce_odr dso_local constant [27 x i8] c"24ProtocolHandlerInterface\00", comdat, align 1
@_ZTSSt23enable_shared_from_thisI24ProtocolHandlerInterfaceE = linkonce_odr dso_local constant [56 x i8] c"St23enable_shared_from_thisI24ProtocolHandlerInterfaceE\00", comdat, align 1
@_ZTISt23enable_shared_from_thisI24ProtocolHandlerInterfaceE = linkonce_odr dso_local constant { ptr, ptr } { ptr getelementptr inbounds (ptr, ptr @_ZTVN10__cxxabiv117__class_type_infoE, i64 2), ptr @_ZTSSt23enable_shared_from_thisI24ProtocolHandlerInterfaceE }, comdat, align 8
@_ZTI24ProtocolHandlerInterface = linkonce_odr dso_local constant { ptr, ptr, i32, i32, ptr, i64 } { ptr getelementptr inbounds (ptr, ptr @_ZTVN10__cxxabiv121__vmi_class_type_infoE, i64 2), ptr @_ZTS24ProtocolHandlerInterface, i32 0, i32 1, ptr @_ZTISt23enable_shared_from_thisI24ProtocolHandlerInterfaceE, i64 2050 }, comdat, align 8
@_ZTIN4http7SessionE = linkonce_odr dso_local constant { ptr, ptr, ptr } { ptr getelementptr inbounds (ptr, ptr @_ZTVN10__cxxabiv120__si_class_type_infoE, i64 2), ptr @_ZTSN4http7SessionE, ptr @_ZTI24ProtocolHandlerInterface }, comdat, align 8
@_ZTV24ProtocolHandlerInterface = linkonce_odr dso_local unnamed_addr constant { [18 x ptr] } { [18 x ptr] [ptr null, ptr @_ZTI24ProtocolHandlerInterface, ptr @_ZN24ProtocolHandlerInterfaceD2Ev, ptr @_ZN24ProtocolHandlerInterfaceD0Ev, ptr @__cxa_pure_virtual, ptr @_ZN24ProtocolHandlerInterface18enableProcessInputEb, ptr @_ZNK24ProtocolHandlerInterface19processInputEnabledEv, ptr @__cxa_pure_virtual, ptr @__cxa_pure_virtual, ptr @_ZN24ProtocolHandlerInterface12checkTimeoutENSt6chrono10time_pointINS0_3_V212steady_clockENS0_8durationIlSt5ratioILl1ELl1000000000EEEEEE, ptr @__cxa_pure_virtual, ptr @_ZN24ProtocolHandlerInterface12onDisconnectEv, ptr @_ZN24ProtocolHandlerInterface7disposeEv, ptr @__cxa_pure_virtual, ptr @__cxa_pure_virtual, ptr @__cxa_pure_virtual, ptr @__cxa_pure_virtual, ptr @_ZN24ProtocolHandlerInterface9dumpStateERSo] }, comdat, align 8
@_ZZNSt8__detail18__to_chars_10_implIjEEvPcjT_E8__digits = linkonce_odr dso_local constant [201 x i8] c"00010203040506070809101112131415161718192021222324252627282930313233343536373839404142434445464748495051525354555657585960616263646566676869707172737475767778798081828384858687888990919293949596979899\00", comdat, align 16, !dbg !240
@_ZTSZN4http7RequestC1ENSt7__cxx1112basic_stringIcSt11char_traitsIcESaIcEEES6_NS_6HeaderES6_EUlPKclE_ = linkonce_odr dso_local constant [97 x i8] c"ZN4http7RequestC1ENSt7__cxx1112basic_stringIcSt11char_traitsIcESaIcEEES6_NS_6HeaderES6_EUlPKclE_\00", comdat, align 1
@_ZTIZN4http7RequestC1ENSt7__cxx1112basic_stringIcSt11char_traitsIcESaIcEEES6_NS_6HeaderES6_EUlPKclE_ = linkonce_odr dso_local constant { ptr, ptr } { ptr getelementptr inbounds (ptr, ptr @_ZTVN10__cxxabiv117__class_type_infoE, i64 2), ptr @_ZTSZN4http7RequestC1ENSt7__cxx1112basic_stringIcSt11char_traitsIcESaIcEEES6_NS_6HeaderES6_EUlPKclE_ }, comdat, align 8
@__libc_single_threaded = external global i8, align 1
@.str.58 = private unnamed_addr constant [12 x i8] c" Connected.\00", align 1, !dbg !4264
@.str.59 = private unnamed_addr constant [40 x i8] c"Error: onConnect without a valid socket\00", align 1, !dbg !4266
@.str.60 = private unnamed_addr constant [49 x i8] c"handleIncomingMessage called when not connected.\00", align 1, !dbg !4268
@.str.61 = private unnamed_addr constant [24 x i8] c" handleIncomingMessage.\00", align 1, !dbg !4270
@_ZSt7nothrow = external global %"struct.std::nothrow_t", align 1
@.str.62 = private unnamed_addr constant [14 x i8] c"getPollEvents\00", align 1, !dbg !4275
@.str.63 = private unnamed_addr constant [4 x i8] c"WRN\00", align 1, !dbg !4277
@.str.64 = private unnamed_addr constant [9 x i8] c"Socket #\00", align 1, !dbg !4279
@.str.65 = private unnamed_addr constant [34 x i8] c" has timed out while requesting [\00", align 1, !dbg !4281
@.str.66 = private unnamed_addr constant [9 x i8] c"] after \00", align 1, !dbg !4283
@.str.67 = private unnamed_addr constant [3 x i8] c"ms\00", align 1, !dbg !4285
@.str.68 = private unnamed_addr constant [15 x i8] c"State::Timeout\00", align 1, !dbg !4287
@.str.69 = private unnamed_addr constant [16 x i8] c"performWrites: \00", align 1, !dbg !4289
@.str.70 = private unnamed_addr constant [19 x i8] c" bytes, capacity: \00", align 1, !dbg !4291
@.str.71 = private unnamed_addr constant [32 x i8] c" Error while writing to socket.\00", align 1, !dbg !4293
@.str.72 = private unnamed_addr constant [13 x i8] c"onDisconnect\00", align 1, !dbg !4298
@.str.73 = private unnamed_addr constant [9 x i8] c"shutdown\00", align 1, !dbg !4300
@.str.74 = private unnamed_addr constant [11 x i8] c"getIOStats\00", align 1, !dbg !4302
@.str.75 = private unnamed_addr constant [42 x i8] c"basic_string::_M_construct null not valid\00", align 1, !dbg !4304
@_ZTVSt15_Sp_counted_ptrIPN4http7SessionELN9__gnu_cxx12_Lock_policyE2EE = linkonce_odr dso_local unnamed_addr constant { [7 x ptr] } { [7 x ptr] [ptr null, ptr @_ZTISt15_Sp_counted_ptrIPN4http7SessionELN9__gnu_cxx12_Lock_policyE2EE, ptr @_ZNSt15_Sp_counted_ptrIPN4http7SessionELN9__gnu_cxx12_Lock_policyE2EED2Ev, ptr @_ZNSt15_Sp_counted_ptrIPN4http7SessionELN9__gnu_cxx12_Lock_policyE2EED0Ev, ptr @_ZNSt15_Sp_counted_ptrIPN4http7SessionELN9__gnu_cxx12_Lock_policyE2EE10_M_disposeEv, ptr @_ZNSt15_Sp_counted_ptrIPN4http7SessionELN9__gnu_cxx12_Lock_policyE2EE10_M_destroyEv, ptr @_ZNSt15_Sp_counted_ptrIPN4http7SessionELN9__gnu_cxx12_Lock_policyE2EE14_M_get_deleterERKSt9type_info] }, comdat, align 8
@_ZTSSt15_Sp_counted_ptrIPN4http7SessionELN9__gnu_cxx12_Lock_policyE2EE = linkonce_odr dso_local constant [67 x i8] c"St15_Sp_counted_ptrIPN4http7SessionELN9__gnu_cxx12_Lock_policyE2EE\00", comdat, align 1
@_ZTSSt16_Sp_counted_baseILN9__gnu_cxx12_Lock_policyE2EE = linkonce_odr dso_local constant [52 x i8] c"St16_Sp_counted_baseILN9__gnu_cxx12_Lock_policyE2EE\00", comdat, align 1
@_ZTSSt11_Mutex_baseILN9__gnu_cxx12_Lock_policyE2EE = linkonce_odr dso_local constant [47 x i8] c"St11_Mutex_baseILN9__gnu_cxx12_Lock_policyE2EE\00", comdat, align 1
@_ZTISt11_Mutex_baseILN9__gnu_cxx12_Lock_policyE2EE = linkonce_odr dso_local constant { ptr, ptr } { ptr getelementptr inbounds (ptr, ptr @_ZTVN10__cxxabiv117__class_type_infoE, i64 2), ptr @_ZTSSt11_Mutex_baseILN9__gnu_cxx12_Lock_policyE2EE }, comdat, align 8
@_ZTISt16_Sp_counted_baseILN9__gnu_cxx12_Lock_policyE2EE = linkonce_odr dso_local constant { ptr, ptr, ptr } { ptr getelementptr inbounds (ptr, ptr @_ZTVN10__cxxabiv120__si_class_type_infoE, i64 2), ptr @_ZTSSt16_Sp_counted_baseILN9__gnu_cxx12_Lock_policyE2EE, ptr @_ZTISt11_Mutex_baseILN9__gnu_cxx12_Lock_policyE2EE }, comdat, align 8
@_ZTISt15_Sp_counted_ptrIPN4http7SessionELN9__gnu_cxx12_Lock_policyE2EE = linkonce_odr dso_local constant { ptr, ptr, ptr } { ptr getelementptr inbounds (ptr, ptr @_ZTVN10__cxxabiv120__si_class_type_infoE, i64 2), ptr @_ZTSSt15_Sp_counted_ptrIPN4http7SessionELN9__gnu_cxx12_Lock_policyE2EE, ptr @_ZTISt16_Sp_counted_baseILN9__gnu_cxx12_Lock_policyE2EE }, comdat, align 8
@_ZTVSt16_Sp_counted_baseILN9__gnu_cxx12_Lock_policyE2EE = linkonce_odr dso_local unnamed_addr constant { [7 x ptr] } { [7 x ptr] [ptr null, ptr @_ZTISt16_Sp_counted_baseILN9__gnu_cxx12_Lock_policyE2EE, ptr @_ZNSt16_Sp_counted_baseILN9__gnu_cxx12_Lock_policyE2EED2Ev, ptr @_ZNSt16_Sp_counted_baseILN9__gnu_cxx12_Lock_policyE2EED0Ev, ptr @__cxa_pure_virtual, ptr @_ZNSt16_Sp_counted_baseILN9__gnu_cxx12_Lock_policyE2EE10_M_destroyEv, ptr @__cxa_pure_virtual] }, comdat, align 8
@llvm.global_ctors = appending global [1 x { i32, ptr, ptr }] [{ i32, ptr, ptr } { i32 65535, ptr @_GLOBAL__sub_I_HttpRequest.cpp, ptr null }]

; Function Attrs: noinline uwtable
define internal void @__cxx_global_var_init() #0 section ".text.startup" !dbg !5353 {
  call void @_ZNSt8ios_base4InitC1Ev(ptr noundef nonnull align 1 dereferenceable(1) @_ZStL8__ioinit), !dbg !5354
  %1 = call i32 @__cxa_atexit(ptr @_ZNSt8ios_base4InitD1Ev, ptr @_ZStL8__ioinit, ptr @__dso_handle) #3, !dbg !5356
  ret void, !dbg !5354
}

declare void @_ZNSt8ios_base4InitC1Ev(ptr noundef nonnull align 1 dereferenceable(1)) unnamed_addr #1

; Function Attrs: nounwind
declare void @_ZNSt8ios_base4InitD1Ev(ptr noundef nonnull align 1 dereferenceable(1)) unnamed_addr #2

; Function Attrs: nounwind
declare i32 @__cxa_atexit(ptr, ptr, ptr) #3

; Function Attrs: noinline uwtable
define internal void @__cxx_global_var_init.1() #0 section ".text.startup" !dbg !5357 {
  call void @_ZN3Log11_end_markerC2Ev(ptr noundef nonnull align 1 dereferenceable(1) @_ZN3LogL3endE), !dbg !5358
  ret void, !dbg !5358
}

; Function Attrs: noinline nounwind optnone uwtable
define linkonce_odr dso_local void @_ZN3Log11_end_markerC2Ev(ptr noundef nonnull align 1 dereferenceable(1) %0) unnamed_addr #4 comdat align 2 !dbg !5360 {
  %2 = alloca ptr, align 8
  store ptr %0, ptr %2, align 8
  call void @llvm.dbg.declare(metadata ptr %2, metadata !5361, metadata !DIExpression()), !dbg !5363
  %3 = load ptr, ptr %2, align 8
  ret void, !dbg !5364
}

; Function Attrs: mustprogress noinline optnone uwtable
define dso_local noundef i64 @_ZN4http6Header5parseEPKcl(ptr noundef nonnull align 8 dereferenceable(25) %0, ptr noundef %1, i64 noundef %2) #5 align 2 personality ptr @__gxx_personality_v0 !dbg !5365 {
  %4 = alloca i64, align 8
  %5 = alloca ptr, align 8
  %6 = alloca ptr, align 8
  %7 = alloca i64, align 8
  %8 = alloca ptr, align 8
  %9 = alloca [1024 x i8], align 16
  %10 = alloca %"class.std::__cxx11::basic_ostringstream", align 8
  %11 = alloca %"class.std::__cxx11::basic_string", align 8
  %12 = alloca %"class.std::allocator.0", align 1
  %13 = alloca ptr, align 8
  %14 = alloca i32, align 4
  %15 = alloca %"class.std::__cxx11::basic_string", align 8
  %16 = alloca i64, align 8
  %17 = alloca %"class.std::allocator.0", align 1
  %18 = alloca %"class.Poco::Message", align 8
  %19 = alloca %"class.std::__cxx11::basic_string", align 8
  %20 = alloca i64, align 8
  %21 = alloca %"class.Poco::Net::MessageHeader", align 8
  %22 = alloca %"class.Poco::MemoryInputStream", align 8
  %23 = alloca %"class.std::fpos", align 8
  %24 = alloca ptr, align 8
  %25 = alloca [1024 x i8], align 16
  %26 = alloca %"class.std::__cxx11::basic_ostringstream", align 8
  %27 = alloca %"class.std::__cxx11::basic_string", align 8
  %28 = alloca %"class.std::allocator.0", align 1
  %29 = alloca %"class.Poco::Message", align 8
  %30 = alloca %"class.std::__cxx11::basic_string", align 8
  %31 = alloca i32, align 4
  %32 = alloca ptr, align 8
  %33 = alloca %"class.__gnu_cxx::__normal_iterator", align 8
  %34 = alloca %"class.__gnu_cxx::__normal_iterator", align 8
  %35 = alloca ptr, align 8
  %36 = alloca %"class.std::__cxx11::basic_string", align 8
  %37 = alloca %"class.std::__cxx11::basic_string", align 8
  %38 = alloca %"class.std::__cxx11::basic_string", align 8
  %39 = alloca ptr, align 8
  %40 = alloca [1024 x i8], align 16
  %41 = alloca %"class.std::__cxx11::basic_ostringstream", align 8
  %42 = alloca %"class.std::__cxx11::basic_string", align 8
  %43 = alloca %"class.std::allocator.0", align 1
  %44 = alloca %"class.std::fpos", align 8
  %45 = alloca %"class.std::__cxx11::basic_string", align 8
  %46 = alloca %"class.std::fpos", align 8
  %47 = alloca %"class.std::allocator.0", align 1
  %48 = alloca %"class.Poco::Message", align 8
  %49 = alloca %"class.std::__cxx11::basic_string", align 8
  %50 = alloca ptr, align 8
  %51 = alloca ptr, align 8
  %52 = alloca [1024 x i8], align 16
  %53 = alloca %"class.std::__cxx11::basic_ostringstream", align 8
  %54 = alloca %"class.std::__cxx11::basic_string", align 8
  %55 = alloca %"class.std::allocator.0", align 1
  %56 = alloca %"class.std::__cxx11::basic_string", align 8
  %57 = alloca %"class.Poco::Message", align 8
  %58 = alloca %"class.std::__cxx11::basic_string", align 8
  store ptr %0, ptr %5, align 8
  call void @llvm.dbg.declare(metadata ptr %5, metadata !5366, metadata !DIExpression()), !dbg !5368
  store ptr %1, ptr %6, align 8
  call void @llvm.dbg.declare(metadata ptr %6, metadata !5369, metadata !DIExpression()), !dbg !5370
  store i64 %2, ptr %7, align 8
  call void @llvm.dbg.declare(metadata ptr %7, metadata !5371, metadata !DIExpression()), !dbg !5372
  %59 = load ptr, ptr %5, align 8
  br label %60, !dbg !5373

60:                                               ; preds = %3
  call void @llvm.dbg.declare(metadata ptr %8, metadata !5374, metadata !DIExpression()), !dbg !5379
  %61 = call noundef nonnull align 8 dereferenceable(68) ptr @_ZN3Log6loggerEv(), !dbg !5379
  store ptr %61, ptr %8, align 8, !dbg !5379
  %62 = call noundef zeroext i1 @_ZN3Log16isShutdownCalledEv(), !dbg !5380
  br i1 %62, label %142, label %63, !dbg !5380

63:                                               ; preds = %60
  %64 = load ptr, ptr %8, align 8, !dbg !5380
  %65 = call noundef zeroext i1 @_ZNK4Poco6Logger5traceEv(ptr noundef nonnull align 8 dereferenceable(68) %64), !dbg !5380
  br i1 %65, label %66, label %142, !dbg !5379

66:                                               ; preds = %63
  call void @llvm.dbg.declare(metadata ptr %9, metadata !5382, metadata !DIExpression()), !dbg !5387
  call void @llvm.dbg.declare(metadata ptr %10, metadata !5388, metadata !DIExpression()), !dbg !5387
  %67 = getelementptr inbounds [1024 x i8], ptr %9, i64 0, i64 0, !dbg !5387
  %68 = call noundef ptr @_ZN3Log6prefixILi1023EEEPcS1_PKc(ptr noundef %67, ptr noundef @.str), !dbg !5387
  call void @_ZNSaIcEC1Ev(ptr noundef nonnull align 1 dereferenceable(1) %12) #3, !dbg !5387
  invoke void @_ZNSt7__cxx1112basic_stringIcSt11char_traitsIcESaIcEEC2IS3_EEPKcRKS3_(ptr noundef nonnull align 8 dereferenceable(32) %11, ptr noundef %68, ptr noundef nonnull align 1 dereferenceable(1) %12)
          to label %69 unwind label %110, !dbg !5387

69:                                               ; preds = %66
  invoke void @_ZNSt7__cxx1119basic_ostringstreamIcSt11char_traitsIcESaIcEEC1ERKNS_12basic_stringIcS2_S3_EESt13_Ios_Openmode(ptr noundef nonnull align 8 dereferenceable(112) %10, ptr noundef nonnull align 8 dereferenceable(32) %11, i32 noundef 2)
          to label %70 unwind label %114, !dbg !5387

70:                                               ; preds = %69
  call void @_ZNSt7__cxx1112basic_stringIcSt11char_traitsIcESaIcEED1Ev(ptr noundef nonnull align 8 dereferenceable(32) %11) #3, !dbg !5387
  call void @_ZNSaIcED1Ev(ptr noundef nonnull align 1 dereferenceable(1) %12) #3, !dbg !5387
  %71 = invoke noundef nonnull align 8 dereferenceable(8) ptr @_ZNSolsEPFRSt8ios_baseS0_E(ptr noundef nonnull align 8 dereferenceable(8) %10, ptr noundef @_ZSt9boolalphaRSt8ios_base)
          to label %72 unwind label %119, !dbg !5387

72:                                               ; preds = %70
  %73 = invoke noundef nonnull align 8 dereferenceable(8) ptr @_ZStlsISt11char_traitsIcEERSt13basic_ostreamIcT_ES5_PKc(ptr noundef nonnull align 8 dereferenceable(8) %71, ptr noundef @.str.2)
          to label %74 unwind label %119, !dbg !5387

74:                                               ; preds = %72
  %75 = load i64, ptr %7, align 8, !dbg !5387
  %76 = invoke noundef nonnull align 8 dereferenceable(8) ptr @_ZNSolsEl(ptr noundef nonnull align 8 dereferenceable(8) %73, i64 noundef %75)
          to label %77 unwind label %119, !dbg !5387

77:                                               ; preds = %74
  %78 = invoke noundef nonnull align 8 dereferenceable(8) ptr @_ZStlsISt11char_traitsIcEERSt13basic_ostreamIcT_ES5_PKc(ptr noundef nonnull align 8 dereferenceable(8) %76, ptr noundef @.str.3)
          to label %79 unwind label %119, !dbg !5387

79:                                               ; preds = %77
  %80 = load ptr, ptr %6, align 8, !dbg !5387
  store i64 80, ptr %16, align 8, !dbg !5387
  %81 = invoke noundef nonnull align 8 dereferenceable(8) ptr @_ZSt3minIlERKT_S2_S2_(ptr noundef nonnull align 8 dereferenceable(8) %7, ptr noundef nonnull align 8 dereferenceable(8) %16)
          to label %82 unwind label %119, !dbg !5387

82:                                               ; preds = %79
  %83 = load i64, ptr %81, align 8, !dbg !5387
  call void @_ZNSaIcEC1Ev(ptr noundef nonnull align 1 dereferenceable(1) %17) #3, !dbg !5387
  invoke void @_ZNSt7__cxx1112basic_stringIcSt11char_traitsIcESaIcEEC1EPKcmRKS3_(ptr noundef nonnull align 8 dereferenceable(32) %15, ptr noundef %80, i64 noundef %83, ptr noundef nonnull align 1 dereferenceable(1) %17)
          to label %84 unwind label %123, !dbg !5387

84:                                               ; preds = %82
  %85 = invoke noundef nonnull align 8 dereferenceable(8) ptr @_ZStlsIcSt11char_traitsIcESaIcEERSt13basic_ostreamIT_T0_ES7_RKNSt7__cxx1112basic_stringIS4_S5_T1_EE(ptr noundef nonnull align 8 dereferenceable(8) %78, ptr noundef nonnull align 8 dereferenceable(32) %15)
          to label %86 unwind label %127, !dbg !5387

86:                                               ; preds = %84
  call void @_ZNSt7__cxx1112basic_stringIcSt11char_traitsIcESaIcEED1Ev(ptr noundef nonnull align 8 dereferenceable(32) %15) #3, !dbg !5387
  call void @_ZNSaIcED1Ev(ptr noundef nonnull align 1 dereferenceable(1) %17) #3, !dbg !5387
  br label %87, !dbg !5387

87:                                               ; preds = %86
  %88 = invoke noundef nonnull align 8 dereferenceable(8) ptr @_ZStlsISt11char_traitsIcEERSt13basic_ostreamIcT_ES5_PKc(ptr noundef nonnull align 8 dereferenceable(8) %10, ptr noundef @.str.4)
          to label %89 unwind label %119, !dbg !5392

89:                                               ; preds = %87
  %90 = invoke noundef nonnull align 8 dereferenceable(8) ptr @_ZStlsISt11char_traitsIcEERSt13basic_ostreamIcT_ES5_PKc(ptr noundef nonnull align 8 dereferenceable(8) %88, ptr noundef @.str.5)
          to label %91 unwind label %119, !dbg !5392

91:                                               ; preds = %89
  %92 = invoke noundef nonnull align 8 dereferenceable(8) ptr @_ZStlsISt11char_traitsIcEERSt13basic_ostreamIcT_ES5_c(ptr noundef nonnull align 8 dereferenceable(8) %90, i8 noundef signext 58)
          to label %93 unwind label %119, !dbg !5392

93:                                               ; preds = %91
  %94 = invoke noundef nonnull align 8 dereferenceable(8) ptr @_ZNSolsEi(ptr noundef nonnull align 8 dereferenceable(8) %92, i32 noundef 119)
          to label %95 unwind label %119, !dbg !5392

95:                                               ; preds = %93
  %96 = invoke noundef nonnull align 8 dereferenceable(8) ptr @_ZNSo5flushEv(ptr noundef nonnull align 8 dereferenceable(8) %10)
          to label %97 unwind label %119, !dbg !5395

97:                                               ; preds = %95
  br label %98, !dbg !5395

98:                                               ; preds = %97
  br label %99, !dbg !5395

99:                                               ; preds = %98
  %100 = load ptr, ptr %8, align 8, !dbg !5387
  %101 = load ptr, ptr %8, align 8, !dbg !5387
  %102 = invoke noundef nonnull align 8 dereferenceable(32) ptr @_ZNK4Poco6Logger4nameB5cxx11Ev(ptr noundef nonnull align 8 dereferenceable(68) %101)
          to label %103 unwind label %119, !dbg !5387

103:                                              ; preds = %99
  invoke void @_ZNKSt7__cxx1119basic_ostringstreamIcSt11char_traitsIcESaIcEE3strEv(ptr sret(%"class.std::__cxx11::basic_string") align 8 %19, ptr noundef nonnull align 8 dereferenceable(112) %10)
          to label %104 unwind label %119, !dbg !5387

104:                                              ; preds = %103
  invoke void @_ZN4Poco7MessageC1ERKNSt7__cxx1112basic_stringIcSt11char_traitsIcESaIcEEES8_NS0_8PriorityE(ptr noundef nonnull align 8 dereferenceable(152) %18, ptr noundef nonnull align 8 dereferenceable(32) %102, ptr noundef nonnull align 8 dereferenceable(32) %19, i32 noundef 8)
          to label %105 unwind label %132, !dbg !5387

105:                                              ; preds = %104
  %106 = load ptr, ptr %100, align 8, !dbg !5387
  %107 = getelementptr inbounds ptr, ptr %106, i64 6, !dbg !5387
  %108 = load ptr, ptr %107, align 8, !dbg !5387
  invoke void %108(ptr noundef nonnull align 8 dereferenceable(68) %100, ptr noundef nonnull align 8 dereferenceable(152) %18)
          to label %109 unwind label %136, !dbg !5387

109:                                              ; preds = %105
  call void @_ZN4Poco7MessageD1Ev(ptr noundef nonnull align 8 dereferenceable(152) %18) #3, !dbg !5387
  call void @_ZNSt7__cxx1112basic_stringIcSt11char_traitsIcESaIcEED1Ev(ptr noundef nonnull align 8 dereferenceable(32) %19) #3, !dbg !5387
  call void @_ZNSt7__cxx1119basic_ostringstreamIcSt11char_traitsIcESaIcEED1Ev(ptr noundef nonnull align 8 dereferenceable(112) %10) #3, !dbg !5380
  br label %142, !dbg !5387

110:                                              ; preds = %66
  %111 = landingpad { ptr, i32 }
          cleanup, !dbg !5396
  %112 = extractvalue { ptr, i32 } %111, 0, !dbg !5396
  store ptr %112, ptr %13, align 8, !dbg !5396
  %113 = extractvalue { ptr, i32 } %111, 1, !dbg !5396
  store i32 %113, ptr %14, align 4, !dbg !5396
  br label %118, !dbg !5396

114:                                              ; preds = %69
  %115 = landingpad { ptr, i32 }
          cleanup, !dbg !5396
  %116 = extractvalue { ptr, i32 } %115, 0, !dbg !5396
  store ptr %116, ptr %13, align 8, !dbg !5396
  %117 = extractvalue { ptr, i32 } %115, 1, !dbg !5396
  store i32 %117, ptr %14, align 4, !dbg !5396
  call void @_ZNSt7__cxx1112basic_stringIcSt11char_traitsIcESaIcEED1Ev(ptr noundef nonnull align 8 dereferenceable(32) %11) #3, !dbg !5387
  br label %118, !dbg !5387

118:                                              ; preds = %114, %110
  call void @_ZNSaIcED1Ev(ptr noundef nonnull align 1 dereferenceable(1) %12) #3, !dbg !5387
  br label %518, !dbg !5387

119:                                              ; preds = %103, %99, %95, %93, %91, %89, %87, %79, %77, %74, %72, %70
  %120 = landingpad { ptr, i32 }
          cleanup, !dbg !5396
  %121 = extractvalue { ptr, i32 } %120, 0, !dbg !5396
  store ptr %121, ptr %13, align 8, !dbg !5396
  %122 = extractvalue { ptr, i32 } %120, 1, !dbg !5396
  store i32 %122, ptr %14, align 4, !dbg !5396
  br label %141, !dbg !5396

123:                                              ; preds = %82
  %124 = landingpad { ptr, i32 }
          cleanup, !dbg !5396
  %125 = extractvalue { ptr, i32 } %124, 0, !dbg !5396
  store ptr %125, ptr %13, align 8, !dbg !5396
  %126 = extractvalue { ptr, i32 } %124, 1, !dbg !5396
  store i32 %126, ptr %14, align 4, !dbg !5396
  br label %131, !dbg !5396

127:                                              ; preds = %84
  %128 = landingpad { ptr, i32 }
          cleanup, !dbg !5396
  %129 = extractvalue { ptr, i32 } %128, 0, !dbg !5396
  store ptr %129, ptr %13, align 8, !dbg !5396
  %130 = extractvalue { ptr, i32 } %128, 1, !dbg !5396
  store i32 %130, ptr %14, align 4, !dbg !5396
  call void @_ZNSt7__cxx1112basic_stringIcSt11char_traitsIcESaIcEED1Ev(ptr noundef nonnull align 8 dereferenceable(32) %15) #3, !dbg !5387
  br label %131, !dbg !5387

131:                                              ; preds = %127, %123
  call void @_ZNSaIcED1Ev(ptr noundef nonnull align 1 dereferenceable(1) %17) #3, !dbg !5387
  br label %141, !dbg !5387

132:                                              ; preds = %104
  %133 = landingpad { ptr, i32 }
          cleanup, !dbg !5396
  %134 = extractvalue { ptr, i32 } %133, 0, !dbg !5396
  store ptr %134, ptr %13, align 8, !dbg !5396
  %135 = extractvalue { ptr, i32 } %133, 1, !dbg !5396
  store i32 %135, ptr %14, align 4, !dbg !5396
  br label %140, !dbg !5396

136:                                              ; preds = %105
  %137 = landingpad { ptr, i32 }
          cleanup, !dbg !5396
  %138 = extractvalue { ptr, i32 } %137, 0, !dbg !5396
  store ptr %138, ptr %13, align 8, !dbg !5396
  %139 = extractvalue { ptr, i32 } %137, 1, !dbg !5396
  store i32 %139, ptr %14, align 4, !dbg !5396
  call void @_ZN4Poco7MessageD1Ev(ptr noundef nonnull align 8 dereferenceable(152) %18) #3, !dbg !5387
  br label %140, !dbg !5387

140:                                              ; preds = %136, %132
  call void @_ZNSt7__cxx1112basic_stringIcSt11char_traitsIcESaIcEED1Ev(ptr noundef nonnull align 8 dereferenceable(32) %19) #3, !dbg !5387
  br label %141, !dbg !5387

141:                                              ; preds = %140, %131, %119
  call void @_ZNSt7__cxx1119basic_ostringstreamIcSt11char_traitsIcESaIcEED1Ev(ptr noundef nonnull align 8 dereferenceable(112) %10) #3, !dbg !5380
  br label %518, !dbg !5380

142:                                              ; preds = %109, %63, %60
  br label %143, !dbg !5379

143:                                              ; preds = %142
  %144 = load i64, ptr %7, align 8, !dbg !5397
  %145 = icmp slt i64 %144, 4, !dbg !5399
  br i1 %145, label %146, label %147, !dbg !5400

146:                                              ; preds = %143
  store i64 0, ptr %4, align 8, !dbg !5401
  br label %516, !dbg !5401

147:                                              ; preds = %143
  call void @llvm.dbg.declare(metadata ptr %20, metadata !5403, metadata !DIExpression()), !dbg !5404
  %148 = load ptr, ptr %6, align 8, !dbg !5405
  %149 = load i64, ptr %7, align 8, !dbg !5406
  %150 = call noundef i64 @_ZN4httpL13findBlankLineEPKcll(ptr noundef %148, i64 noundef 0, i64 noundef %149), !dbg !5407
  store i64 %150, ptr %20, align 8, !dbg !5404
  %151 = load i64, ptr %20, align 8, !dbg !5408
  %152 = load i64, ptr %7, align 8, !dbg !5410
  %153 = icmp eq i64 %151, %152, !dbg !5411
  br i1 %153, label %154, label %155, !dbg !5412

154:                                              ; preds = %147
  store i64 0, ptr %4, align 8, !dbg !5413
  br label %516, !dbg !5413

155:                                              ; preds = %147
  call void @llvm.dbg.declare(metadata ptr %21, metadata !5415, metadata !DIExpression()), !dbg !5420
  invoke void @_ZN4Poco3Net13MessageHeaderC1Ev(ptr noundef nonnull align 8 dereferenceable(36) %21)
          to label %156 unwind label %215, !dbg !5420

156:                                              ; preds = %155
  call void @llvm.dbg.declare(metadata ptr %22, metadata !5421, metadata !DIExpression()), !dbg !5424
  %157 = load ptr, ptr %6, align 8, !dbg !5425
  %158 = load i64, ptr %7, align 8, !dbg !5426
  invoke void @_ZN4Poco17MemoryInputStreamC1EPKcl(ptr noundef nonnull align 8 dereferenceable(104) %22, ptr noundef %157, i64 noundef %158)
          to label %159 unwind label %219, !dbg !5424

159:                                              ; preds = %156
  %160 = getelementptr inbounds i8, ptr %22, i64 88, !dbg !5427
  invoke void @_ZN4Poco3Net13MessageHeader4readERSi(ptr noundef nonnull align 8 dereferenceable(36) %21, ptr noundef nonnull align 8 dereferenceable(16) %160)
          to label %161 unwind label %223, !dbg !5428

161:                                              ; preds = %159
  %162 = getelementptr inbounds i8, ptr %22, i64 88, !dbg !5429
  %163 = invoke { i64, i64 } @_ZNSi5tellgEv(ptr noundef nonnull align 8 dereferenceable(16) %162)
          to label %164 unwind label %223, !dbg !5431

164:                                              ; preds = %161
  %165 = getelementptr inbounds { i64, i64 }, ptr %23, i32 0, i32 0, !dbg !5431
  %166 = extractvalue { i64, i64 } %163, 0, !dbg !5431
  store i64 %166, ptr %165, align 8, !dbg !5431
  %167 = getelementptr inbounds { i64, i64 }, ptr %23, i32 0, i32 1, !dbg !5431
  %168 = extractvalue { i64, i64 } %163, 1, !dbg !5431
  store i64 %168, ptr %167, align 8, !dbg !5431
  %169 = invoke noundef i64 @_ZNKSt4fposI11__mbstate_tEcvlEv(ptr noundef nonnull align 8 dereferenceable(16) %23)
          to label %170 unwind label %223, !dbg !5429

170:                                              ; preds = %164
  %171 = icmp slt i64 %169, 0, !dbg !5432
  br i1 %171, label %172, label %253, !dbg !5433

172:                                              ; preds = %170
  br label %173, !dbg !5434

173:                                              ; preds = %172
  call void @llvm.dbg.declare(metadata ptr %24, metadata !5436, metadata !DIExpression()), !dbg !5438
  %174 = invoke noundef nonnull align 8 dereferenceable(68) ptr @_ZN3Log6loggerEv()
          to label %175 unwind label %223, !dbg !5438

175:                                              ; preds = %173
  store ptr %174, ptr %24, align 8, !dbg !5438
  %176 = invoke noundef zeroext i1 @_ZN3Log16isShutdownCalledEv()
          to label %177 unwind label %223, !dbg !5439

177:                                              ; preds = %175
  br i1 %176, label %250, label %178, !dbg !5439

178:                                              ; preds = %177
  %179 = load ptr, ptr %24, align 8, !dbg !5439
  %180 = invoke noundef zeroext i1 @_ZNK4Poco6Logger5debugEv(ptr noundef nonnull align 8 dereferenceable(68) %179)
          to label %181 unwind label %223, !dbg !5439

181:                                              ; preds = %178
  br i1 %180, label %182, label %250, !dbg !5438

182:                                              ; preds = %181
  call void @llvm.dbg.declare(metadata ptr %25, metadata !5441, metadata !DIExpression()), !dbg !5443
  call void @llvm.dbg.declare(metadata ptr %26, metadata !5444, metadata !DIExpression()), !dbg !5443
  %183 = getelementptr inbounds [1024 x i8], ptr %25, i64 0, i64 0, !dbg !5443
  %184 = invoke noundef ptr @_ZN3Log6prefixILi1023EEEPcS1_PKc(ptr noundef %183, ptr noundef @.str.6)
          to label %185 unwind label %223, !dbg !5443

185:                                              ; preds = %182
  call void @_ZNSaIcEC1Ev(ptr noundef nonnull align 1 dereferenceable(1) %28) #3, !dbg !5443
  invoke void @_ZNSt7__cxx1112basic_stringIcSt11char_traitsIcESaIcEEC2IS3_EEPKcRKS3_(ptr noundef nonnull align 8 dereferenceable(32) %27, ptr noundef %184, ptr noundef nonnull align 1 dereferenceable(1) %28)
          to label %186 unwind label %227, !dbg !5443

186:                                              ; preds = %185
  invoke void @_ZNSt7__cxx1119basic_ostringstreamIcSt11char_traitsIcESaIcEEC1ERKNS_12basic_stringIcS2_S3_EESt13_Ios_Openmode(ptr noundef nonnull align 8 dereferenceable(112) %26, ptr noundef nonnull align 8 dereferenceable(32) %27, i32 noundef 2)
          to label %187 unwind label %231, !dbg !5443

187:                                              ; preds = %186
  call void @_ZNSt7__cxx1112basic_stringIcSt11char_traitsIcESaIcEED1Ev(ptr noundef nonnull align 8 dereferenceable(32) %27) #3, !dbg !5443
  call void @_ZNSaIcED1Ev(ptr noundef nonnull align 1 dereferenceable(1) %28) #3, !dbg !5443
  %188 = invoke noundef nonnull align 8 dereferenceable(8) ptr @_ZNSolsEPFRSt8ios_baseS0_E(ptr noundef nonnull align 8 dereferenceable(8) %26, ptr noundef @_ZSt9boolalphaRSt8ios_base)
          to label %189 unwind label %236, !dbg !5443

189:                                              ; preds = %187
  %190 = invoke noundef nonnull align 8 dereferenceable(8) ptr @_ZStlsISt11char_traitsIcEERSt13basic_ostreamIcT_ES5_PKc(ptr noundef nonnull align 8 dereferenceable(8) %188, ptr noundef @.str.7)
          to label %191 unwind label %236, !dbg !5443

191:                                              ; preds = %189
  br label %192, !dbg !5443

192:                                              ; preds = %191
  %193 = invoke noundef nonnull align 8 dereferenceable(8) ptr @_ZStlsISt11char_traitsIcEERSt13basic_ostreamIcT_ES5_PKc(ptr noundef nonnull align 8 dereferenceable(8) %26, ptr noundef @.str.4)
          to label %194 unwind label %236, !dbg !5445

194:                                              ; preds = %192
  %195 = invoke noundef nonnull align 8 dereferenceable(8) ptr @_ZStlsISt11char_traitsIcEERSt13basic_ostreamIcT_ES5_PKc(ptr noundef nonnull align 8 dereferenceable(8) %193, ptr noundef @.str.5)
          to label %196 unwind label %236, !dbg !5445

196:                                              ; preds = %194
  %197 = invoke noundef nonnull align 8 dereferenceable(8) ptr @_ZStlsISt11char_traitsIcEERSt13basic_ostreamIcT_ES5_c(ptr noundef nonnull align 8 dereferenceable(8) %195, i8 noundef signext 58)
          to label %198 unwind label %236, !dbg !5445

198:                                              ; preds = %196
  %199 = invoke noundef nonnull align 8 dereferenceable(8) ptr @_ZNSolsEi(ptr noundef nonnull align 8 dereferenceable(8) %197, i32 noundef 146)
          to label %200 unwind label %236, !dbg !5445

200:                                              ; preds = %198
  %201 = invoke noundef nonnull align 8 dereferenceable(8) ptr @_ZNSo5flushEv(ptr noundef nonnull align 8 dereferenceable(8) %26)
          to label %202 unwind label %236, !dbg !5448

202:                                              ; preds = %200
  br label %203, !dbg !5448

203:                                              ; preds = %202
  br label %204, !dbg !5448

204:                                              ; preds = %203
  %205 = load ptr, ptr %24, align 8, !dbg !5443
  %206 = load ptr, ptr %24, align 8, !dbg !5443
  %207 = invoke noundef nonnull align 8 dereferenceable(32) ptr @_ZNK4Poco6Logger4nameB5cxx11Ev(ptr noundef nonnull align 8 dereferenceable(68) %206)
          to label %208 unwind label %236, !dbg !5443

208:                                              ; preds = %204
  invoke void @_ZNKSt7__cxx1119basic_ostringstreamIcSt11char_traitsIcESaIcEE3strEv(ptr sret(%"class.std::__cxx11::basic_string") align 8 %30, ptr noundef nonnull align 8 dereferenceable(112) %26)
          to label %209 unwind label %236, !dbg !5443

209:                                              ; preds = %208
  invoke void @_ZN4Poco7MessageC1ERKNSt7__cxx1112basic_stringIcSt11char_traitsIcESaIcEEES8_NS0_8PriorityE(ptr noundef nonnull align 8 dereferenceable(152) %29, ptr noundef nonnull align 8 dereferenceable(32) %207, ptr noundef nonnull align 8 dereferenceable(32) %30, i32 noundef 7)
          to label %210 unwind label %240, !dbg !5443

210:                                              ; preds = %209
  %211 = load ptr, ptr %205, align 8, !dbg !5443
  %212 = getelementptr inbounds ptr, ptr %211, i64 6, !dbg !5443
  %213 = load ptr, ptr %212, align 8, !dbg !5443
  invoke void %213(ptr noundef nonnull align 8 dereferenceable(68) %205, ptr noundef nonnull align 8 dereferenceable(152) %29)
          to label %214 unwind label %244, !dbg !5443

214:                                              ; preds = %210
  call void @_ZN4Poco7MessageD1Ev(ptr noundef nonnull align 8 dereferenceable(152) %29) #3, !dbg !5443
  call void @_ZNSt7__cxx1112basic_stringIcSt11char_traitsIcESaIcEED1Ev(ptr noundef nonnull align 8 dereferenceable(32) %30) #3, !dbg !5443
  call void @_ZNSt7__cxx1119basic_ostringstreamIcSt11char_traitsIcESaIcEED1Ev(ptr noundef nonnull align 8 dereferenceable(112) %26) #3, !dbg !5439
  br label %250, !dbg !5443

215:                                              ; preds = %155
  %216 = landingpad { ptr, i32 }
          catch ptr @_ZTIN4Poco9ExceptionE, !dbg !5449
  %217 = extractvalue { ptr, i32 } %216, 0, !dbg !5449
  store ptr %217, ptr %13, align 8, !dbg !5449
  %218 = extractvalue { ptr, i32 } %216, 1, !dbg !5449
  store i32 %218, ptr %14, align 4, !dbg !5449
  br label %426, !dbg !5449

219:                                              ; preds = %156
  %220 = landingpad { ptr, i32 }
          cleanup
          catch ptr @_ZTIN4Poco9ExceptionE, !dbg !5449
  %221 = extractvalue { ptr, i32 } %220, 0, !dbg !5449
  store ptr %221, ptr %13, align 8, !dbg !5449
  %222 = extractvalue { ptr, i32 } %220, 1, !dbg !5449
  store i32 %222, ptr %14, align 4, !dbg !5449
  br label %425, !dbg !5449

223:                                              ; preds = %299, %295, %292, %290, %284, %264, %256, %253, %182, %178, %175, %173, %164, %161, %159
  %224 = landingpad { ptr, i32 }
          cleanup
          catch ptr @_ZTIN4Poco9ExceptionE, !dbg !5449
  %225 = extractvalue { ptr, i32 } %224, 0, !dbg !5449
  store ptr %225, ptr %13, align 8, !dbg !5449
  %226 = extractvalue { ptr, i32 } %224, 1, !dbg !5449
  store i32 %226, ptr %14, align 4, !dbg !5449
  br label %424, !dbg !5449

227:                                              ; preds = %185
  %228 = landingpad { ptr, i32 }
          cleanup
          catch ptr @_ZTIN4Poco9ExceptionE, !dbg !5450
  %229 = extractvalue { ptr, i32 } %228, 0, !dbg !5450
  store ptr %229, ptr %13, align 8, !dbg !5450
  %230 = extractvalue { ptr, i32 } %228, 1, !dbg !5450
  store i32 %230, ptr %14, align 4, !dbg !5450
  br label %235, !dbg !5450

231:                                              ; preds = %186
  %232 = landingpad { ptr, i32 }
          cleanup
          catch ptr @_ZTIN4Poco9ExceptionE, !dbg !5450
  %233 = extractvalue { ptr, i32 } %232, 0, !dbg !5450
  store ptr %233, ptr %13, align 8, !dbg !5450
  %234 = extractvalue { ptr, i32 } %232, 1, !dbg !5450
  store i32 %234, ptr %14, align 4, !dbg !5450
  call void @_ZNSt7__cxx1112basic_stringIcSt11char_traitsIcESaIcEED1Ev(ptr noundef nonnull align 8 dereferenceable(32) %27) #3, !dbg !5443
  br label %235, !dbg !5443

235:                                              ; preds = %231, %227
  call void @_ZNSaIcED1Ev(ptr noundef nonnull align 1 dereferenceable(1) %28) #3, !dbg !5443
  br label %424, !dbg !5443

236:                                              ; preds = %208, %204, %200, %198, %196, %194, %192, %189, %187
  %237 = landingpad { ptr, i32 }
          cleanup
          catch ptr @_ZTIN4Poco9ExceptionE, !dbg !5450
  %238 = extractvalue { ptr, i32 } %237, 0, !dbg !5450
  store ptr %238, ptr %13, align 8, !dbg !5450
  %239 = extractvalue { ptr, i32 } %237, 1, !dbg !5450
  store i32 %239, ptr %14, align 4, !dbg !5450
  br label %249, !dbg !5450

240:                                              ; preds = %209
  %241 = landingpad { ptr, i32 }
          cleanup
          catch ptr @_ZTIN4Poco9ExceptionE, !dbg !5450
  %242 = extractvalue { ptr, i32 } %241, 0, !dbg !5450
  store ptr %242, ptr %13, align 8, !dbg !5450
  %243 = extractvalue { ptr, i32 } %241, 1, !dbg !5450
  store i32 %243, ptr %14, align 4, !dbg !5450
  br label %248, !dbg !5450

244:                                              ; preds = %210
  %245 = landingpad { ptr, i32 }
          cleanup
          catch ptr @_ZTIN4Poco9ExceptionE, !dbg !5450
  %246 = extractvalue { ptr, i32 } %245, 0, !dbg !5450
  store ptr %246, ptr %13, align 8, !dbg !5450
  %247 = extractvalue { ptr, i32 } %245, 1, !dbg !5450
  store i32 %247, ptr %14, align 4, !dbg !5450
  call void @_ZN4Poco7MessageD1Ev(ptr noundef nonnull align 8 dereferenceable(152) %29) #3, !dbg !5443
  br label %248, !dbg !5443

248:                                              ; preds = %244, %240
  call void @_ZNSt7__cxx1112basic_stringIcSt11char_traitsIcESaIcEED1Ev(ptr noundef nonnull align 8 dereferenceable(32) %30) #3, !dbg !5443
  br label %249, !dbg !5443

249:                                              ; preds = %248, %236
  call void @_ZNSt7__cxx1119basic_ostringstreamIcSt11char_traitsIcESaIcEED1Ev(ptr noundef nonnull align 8 dereferenceable(112) %26) #3, !dbg !5439
  br label %424, !dbg !5439

250:                                              ; preds = %214, %181, %177
  br label %251, !dbg !5438

251:                                              ; preds = %250
  br label %252, !dbg !5438

252:                                              ; preds = %251
  store i64 -1, ptr %4, align 8, !dbg !5451
  store i32 1, ptr %31, align 4
  br label %423, !dbg !5451

253:                                              ; preds = %170
  call void @llvm.dbg.declare(metadata ptr %32, metadata !5452, metadata !DIExpression()), !dbg !5455
  store ptr %21, ptr %32, align 8, !dbg !5456
  call void @llvm.dbg.declare(metadata ptr %33, metadata !5457, metadata !DIExpression()), !dbg !5455
  %254 = load ptr, ptr %32, align 8, !dbg !5464
  %255 = invoke ptr @_ZNK4Poco3Net19NameValueCollection5beginB5cxx11Ev(ptr noundef nonnull align 8 dereferenceable(32) %254)
          to label %256 unwind label %223, !dbg !5464

256:                                              ; preds = %253
  %257 = getelementptr inbounds %"class.__gnu_cxx::__normal_iterator", ptr %33, i32 0, i32 0, !dbg !5464
  store ptr %255, ptr %257, align 8, !dbg !5464
  call void @llvm.dbg.declare(metadata ptr %34, metadata !5465, metadata !DIExpression()), !dbg !5455
  %258 = load ptr, ptr %32, align 8, !dbg !5464
  %259 = invoke ptr @_ZNK4Poco3Net19NameValueCollection3endB5cxx11Ev(ptr noundef nonnull align 8 dereferenceable(32) %258)
          to label %260 unwind label %223, !dbg !5464

260:                                              ; preds = %256
  %261 = getelementptr inbounds %"class.__gnu_cxx::__normal_iterator", ptr %34, i32 0, i32 0, !dbg !5464
  store ptr %259, ptr %261, align 8, !dbg !5464
  br label %262, !dbg !5464

262:                                              ; preds = %273, %260
  %263 = call noundef zeroext i1 @_ZN9__gnu_cxxneIPKSt4pairINSt7__cxx1112basic_stringIcSt11char_traitsIcESaIcEEES7_ESt6vectorIS8_SaIS8_EEEEbRKNS_17__normal_iteratorIT_T0_EESJ_(ptr noundef nonnull align 8 dereferenceable(8) %33, ptr noundef nonnull align 8 dereferenceable(8) %34) #3, !dbg !5464
  br i1 %263, label %264, label %284, !dbg !5464

264:                                              ; preds = %262
  call void @llvm.dbg.declare(metadata ptr %35, metadata !5466, metadata !DIExpression()), !dbg !5468
  %265 = call noundef nonnull align 8 dereferenceable(64) ptr @_ZNK9__gnu_cxx17__normal_iteratorIPKSt4pairINSt7__cxx1112basic_stringIcSt11char_traitsIcESaIcEEES7_ESt6vectorIS8_SaIS8_EEEdeEv(ptr noundef nonnull align 8 dereferenceable(8) %33) #3, !dbg !5469
  store ptr %265, ptr %35, align 8, !dbg !5468
  %266 = load ptr, ptr %35, align 8, !dbg !5470
  %267 = getelementptr inbounds %"struct.std::pair", ptr %266, i32 0, i32 0, !dbg !5472
  invoke void @_ZN4Util7trimmedERKNSt7__cxx1112basic_stringIcSt11char_traitsIcESaIcEEE(ptr sret(%"class.std::__cxx11::basic_string") align 8 %36, ptr noundef nonnull align 8 dereferenceable(32) %267)
          to label %268 unwind label %223, !dbg !5473

268:                                              ; preds = %264
  %269 = load ptr, ptr %35, align 8, !dbg !5474
  %270 = getelementptr inbounds %"struct.std::pair", ptr %269, i32 0, i32 1, !dbg !5475
  invoke void @_ZN4Util7trimmedERKNSt7__cxx1112basic_stringIcSt11char_traitsIcESaIcEEE(ptr sret(%"class.std::__cxx11::basic_string") align 8 %37, ptr noundef nonnull align 8 dereferenceable(32) %270)
          to label %271 unwind label %275, !dbg !5476

271:                                              ; preds = %268
  invoke void @_ZN4http6Header3setERKNSt7__cxx1112basic_stringIcSt11char_traitsIcESaIcEEES6_(ptr noundef nonnull align 8 dereferenceable(25) %59, ptr noundef nonnull align 8 dereferenceable(32) %36, ptr noundef %37)
          to label %272 unwind label %279, !dbg !5477

272:                                              ; preds = %271
  call void @_ZNSt7__cxx1112basic_stringIcSt11char_traitsIcESaIcEED1Ev(ptr noundef nonnull align 8 dereferenceable(32) %37) #3, !dbg !5477
  call void @_ZNSt7__cxx1112basic_stringIcSt11char_traitsIcESaIcEED1Ev(ptr noundef nonnull align 8 dereferenceable(32) %36) #3, !dbg !5477
  br label %273, !dbg !5478

273:                                              ; preds = %272
  %274 = call noundef nonnull align 8 dereferenceable(8) ptr @_ZN9__gnu_cxx17__normal_iteratorIPKSt4pairINSt7__cxx1112basic_stringIcSt11char_traitsIcESaIcEEES7_ESt6vectorIS8_SaIS8_EEEppEv(ptr noundef nonnull align 8 dereferenceable(8) %33) #3, !dbg !5464
  br label %262, !dbg !5464, !llvm.loop !5479

275:                                              ; preds = %268
  %276 = landingpad { ptr, i32 }
          cleanup
          catch ptr @_ZTIN4Poco9ExceptionE, !dbg !5481
  %277 = extractvalue { ptr, i32 } %276, 0, !dbg !5481
  store ptr %277, ptr %13, align 8, !dbg !5481
  %278 = extractvalue { ptr, i32 } %276, 1, !dbg !5481
  store i32 %278, ptr %14, align 4, !dbg !5481
  br label %283, !dbg !5481

279:                                              ; preds = %271
  %280 = landingpad { ptr, i32 }
          cleanup
          catch ptr @_ZTIN4Poco9ExceptionE, !dbg !5481
  %281 = extractvalue { ptr, i32 } %280, 0, !dbg !5481
  store ptr %281, ptr %13, align 8, !dbg !5481
  %282 = extractvalue { ptr, i32 } %280, 1, !dbg !5481
  store i32 %282, ptr %14, align 4, !dbg !5481
  call void @_ZNSt7__cxx1112basic_stringIcSt11char_traitsIcESaIcEED1Ev(ptr noundef nonnull align 8 dereferenceable(32) %37) #3, !dbg !5477
  br label %283, !dbg !5477

283:                                              ; preds = %279, %275
  call void @_ZNSt7__cxx1112basic_stringIcSt11char_traitsIcESaIcEED1Ev(ptr noundef nonnull align 8 dereferenceable(32) %36) #3, !dbg !5477
  br label %424, !dbg !5477

284:                                              ; preds = %262
  invoke void @_ZNK4http6Header19getTransferEncodingB5cxx11Ev(ptr sret(%"class.std::__cxx11::basic_string") align 8 %38, ptr noundef nonnull align 8 dereferenceable(25) %59)
          to label %285 unwind label %223, !dbg !5482

285:                                              ; preds = %284
  %286 = invoke noundef zeroext i1 @_ZSteqIcSt11char_traitsIcESaIcEEbRKNSt7__cxx1112basic_stringIT_T0_T1_EEPKS5_(ptr noundef nonnull align 8 dereferenceable(32) %38, ptr noundef @.str.8)
          to label %287 unwind label %382, !dbg !5483

287:                                              ; preds = %285
  %288 = getelementptr inbounds %"class.http::Header", ptr %59, i32 0, i32 1, !dbg !5484
  %289 = zext i1 %286 to i8, !dbg !5485
  store i8 %289, ptr %288, align 8, !dbg !5485
  call void @_ZNSt7__cxx1112basic_stringIcSt11char_traitsIcESaIcEED1Ev(ptr noundef nonnull align 8 dereferenceable(32) %38) #3, !dbg !5484
  br label %290, !dbg !5486

290:                                              ; preds = %287
  call void @llvm.dbg.declare(metadata ptr %39, metadata !5487, metadata !DIExpression()), !dbg !5489
  %291 = invoke noundef nonnull align 8 dereferenceable(68) ptr @_ZN3Log6loggerEv()
          to label %292 unwind label %223, !dbg !5489

292:                                              ; preds = %290
  store ptr %291, ptr %39, align 8, !dbg !5489
  %293 = invoke noundef zeroext i1 @_ZN3Log16isShutdownCalledEv()
          to label %294 unwind label %223, !dbg !5490

294:                                              ; preds = %292
  br i1 %293, label %418, label %295, !dbg !5490

295:                                              ; preds = %294
  %296 = load ptr, ptr %39, align 8, !dbg !5490
  %297 = invoke noundef zeroext i1 @_ZNK4Poco6Logger5traceEv(ptr noundef nonnull align 8 dereferenceable(68) %296)
          to label %298 unwind label %223, !dbg !5490

298:                                              ; preds = %295
  br i1 %297, label %299, label %418, !dbg !5489

299:                                              ; preds = %298
  call void @llvm.dbg.declare(metadata ptr %40, metadata !5492, metadata !DIExpression()), !dbg !5494
  call void @llvm.dbg.declare(metadata ptr %41, metadata !5495, metadata !DIExpression()), !dbg !5494
  %300 = getelementptr inbounds [1024 x i8], ptr %40, i64 0, i64 0, !dbg !5494
  %301 = invoke noundef ptr @_ZN3Log6prefixILi1023EEEPcS1_PKc(ptr noundef %300, ptr noundef @.str)
          to label %302 unwind label %223, !dbg !5494

302:                                              ; preds = %299
  call void @_ZNSaIcEC1Ev(ptr noundef nonnull align 1 dereferenceable(1) %43) #3, !dbg !5494
  invoke void @_ZNSt7__cxx1112basic_stringIcSt11char_traitsIcESaIcEEC2IS3_EEPKcRKS3_(ptr noundef nonnull align 8 dereferenceable(32) %42, ptr noundef %301, ptr noundef nonnull align 1 dereferenceable(1) %43)
          to label %303 unwind label %386, !dbg !5494

303:                                              ; preds = %302
  invoke void @_ZNSt7__cxx1119basic_ostringstreamIcSt11char_traitsIcESaIcEEC1ERKNS_12basic_stringIcS2_S3_EESt13_Ios_Openmode(ptr noundef nonnull align 8 dereferenceable(112) %41, ptr noundef nonnull align 8 dereferenceable(32) %42, i32 noundef 2)
          to label %304 unwind label %390, !dbg !5494

304:                                              ; preds = %303
  call void @_ZNSt7__cxx1112basic_stringIcSt11char_traitsIcESaIcEED1Ev(ptr noundef nonnull align 8 dereferenceable(32) %42) #3, !dbg !5494
  call void @_ZNSaIcED1Ev(ptr noundef nonnull align 1 dereferenceable(1) %43) #3, !dbg !5494
  %305 = invoke noundef nonnull align 8 dereferenceable(8) ptr @_ZNSolsEPFRSt8ios_baseS0_E(ptr noundef nonnull align 8 dereferenceable(8) %41, ptr noundef @_ZSt9boolalphaRSt8ios_base)
          to label %306 unwind label %395, !dbg !5494

306:                                              ; preds = %304
  %307 = invoke noundef nonnull align 8 dereferenceable(8) ptr @_ZStlsISt11char_traitsIcEERSt13basic_ostreamIcT_ES5_PKc(ptr noundef nonnull align 8 dereferenceable(8) %305, ptr noundef @.str.9)
          to label %308 unwind label %395, !dbg !5494

308:                                              ; preds = %306
  %309 = getelementptr inbounds i8, ptr %22, i64 88, !dbg !5494
  %310 = invoke { i64, i64 } @_ZNSi5tellgEv(ptr noundef nonnull align 8 dereferenceable(16) %309)
          to label %311 unwind label %395, !dbg !5494

311:                                              ; preds = %308
  %312 = getelementptr inbounds { i64, i64 }, ptr %44, i32 0, i32 0, !dbg !5494
  %313 = extractvalue { i64, i64 } %310, 0, !dbg !5494
  store i64 %313, ptr %312, align 8, !dbg !5494
  %314 = getelementptr inbounds { i64, i64 }, ptr %44, i32 0, i32 1, !dbg !5494
  %315 = extractvalue { i64, i64 } %310, 1, !dbg !5494
  store i64 %315, ptr %314, align 8, !dbg !5494
  %316 = invoke noundef i64 @_ZNKSt4fposI11__mbstate_tEcvlEv(ptr noundef nonnull align 8 dereferenceable(16) %44)
          to label %317 unwind label %395, !dbg !5494

317:                                              ; preds = %311
  %318 = invoke noundef nonnull align 8 dereferenceable(8) ptr @_ZNSolsEl(ptr noundef nonnull align 8 dereferenceable(8) %307, i64 noundef %316)
          to label %319 unwind label %395, !dbg !5494

319:                                              ; preds = %317
  %320 = invoke noundef nonnull align 8 dereferenceable(8) ptr @_ZStlsISt11char_traitsIcEERSt13basic_ostreamIcT_ES5_PKc(ptr noundef nonnull align 8 dereferenceable(8) %318, ptr noundef @.str.10)
          to label %321 unwind label %395, !dbg !5494

321:                                              ; preds = %319
  %322 = load ptr, ptr %6, align 8, !dbg !5494
  %323 = getelementptr inbounds i8, ptr %22, i64 88, !dbg !5494
  %324 = invoke { i64, i64 } @_ZNSi5tellgEv(ptr noundef nonnull align 8 dereferenceable(16) %323)
          to label %325 unwind label %395, !dbg !5494

325:                                              ; preds = %321
  %326 = getelementptr inbounds { i64, i64 }, ptr %46, i32 0, i32 0, !dbg !5494
  %327 = extractvalue { i64, i64 } %324, 0, !dbg !5494
  store i64 %327, ptr %326, align 8, !dbg !5494
  %328 = getelementptr inbounds { i64, i64 }, ptr %46, i32 0, i32 1, !dbg !5494
  %329 = extractvalue { i64, i64 } %324, 1, !dbg !5494
  store i64 %329, ptr %328, align 8, !dbg !5494
  %330 = invoke noundef i64 @_ZNKSt4fposI11__mbstate_tEcvlEv(ptr noundef nonnull align 8 dereferenceable(16) %46)
          to label %331 unwind label %395, !dbg !5494

331:                                              ; preds = %325
  call void @_ZNSaIcEC1Ev(ptr noundef nonnull align 1 dereferenceable(1) %47) #3, !dbg !5494
  invoke void @_ZNSt7__cxx1112basic_stringIcSt11char_traitsIcESaIcEEC1EPKcmRKS3_(ptr noundef nonnull align 8 dereferenceable(32) %45, ptr noundef %322, i64 noundef %330, ptr noundef nonnull align 1 dereferenceable(1) %47)
          to label %332 unwind label %399, !dbg !5494

332:                                              ; preds = %331
  %333 = invoke noundef nonnull align 8 dereferenceable(8) ptr @_ZStlsIcSt11char_traitsIcESaIcEERSt13basic_ostreamIT_T0_ES7_RKNSt7__cxx1112basic_stringIS4_S5_T1_EE(ptr noundef nonnull align 8 dereferenceable(8) %320, ptr noundef nonnull align 8 dereferenceable(32) %45)
          to label %334 unwind label %403, !dbg !5494

334:                                              ; preds = %332
  %335 = invoke noundef nonnull align 8 dereferenceable(8) ptr @_ZStlsISt11char_traitsIcEERSt13basic_ostreamIcT_ES5_PKc(ptr noundef nonnull align 8 dereferenceable(8) %333, ptr noundef @.str.11)
          to label %336 unwind label %403, !dbg !5494

336:                                              ; preds = %334
  %337 = invoke noundef zeroext i1 @_ZNK4http6Header16hasContentLengthEv(ptr noundef nonnull align 8 dereferenceable(25) %59)
          to label %338 unwind label %403, !dbg !5494

338:                                              ; preds = %336
  %339 = invoke noundef nonnull align 8 dereferenceable(8) ptr @_ZNSolsEb(ptr noundef nonnull align 8 dereferenceable(8) %335, i1 noundef zeroext %337)
          to label %340 unwind label %403, !dbg !5494

340:                                              ; preds = %338
  %341 = invoke noundef nonnull align 8 dereferenceable(8) ptr @_ZStlsISt11char_traitsIcEERSt13basic_ostreamIcT_ES5_PKc(ptr noundef nonnull align 8 dereferenceable(8) %339, ptr noundef @.str.12)
          to label %342 unwind label %403, !dbg !5494

342:                                              ; preds = %340
  %343 = invoke noundef zeroext i1 @_ZNK4http6Header16hasContentLengthEv(ptr noundef nonnull align 8 dereferenceable(25) %59)
          to label %344 unwind label %403, !dbg !5494

344:                                              ; preds = %342
  br i1 %343, label %345, label %348, !dbg !5494

345:                                              ; preds = %344
  %346 = invoke noundef i64 @_ZNK4http6Header16getContentLengthEv(ptr noundef nonnull align 8 dereferenceable(25) %59)
          to label %347 unwind label %403, !dbg !5494

347:                                              ; preds = %345
  br label %349, !dbg !5494

348:                                              ; preds = %344
  br label %349, !dbg !5494

349:                                              ; preds = %348, %347
  %350 = phi i64 [ %346, %347 ], [ -1, %348 ], !dbg !5494
  %351 = invoke noundef nonnull align 8 dereferenceable(8) ptr @_ZNSolsEl(ptr noundef nonnull align 8 dereferenceable(8) %341, i64 noundef %350)
          to label %352 unwind label %403, !dbg !5494

352:                                              ; preds = %349
  %353 = invoke noundef nonnull align 8 dereferenceable(8) ptr @_ZStlsISt11char_traitsIcEERSt13basic_ostreamIcT_ES5_PKc(ptr noundef nonnull align 8 dereferenceable(8) %351, ptr noundef @.str.13)
          to label %354 unwind label %403, !dbg !5494

354:                                              ; preds = %352
  %355 = invoke noundef zeroext i1 @_ZNK4http6Header26getChunkedTransferEncodingEv(ptr noundef nonnull align 8 dereferenceable(25) %59)
          to label %356 unwind label %403, !dbg !5494

356:                                              ; preds = %354
  %357 = invoke noundef nonnull align 8 dereferenceable(8) ptr @_ZNSolsEb(ptr noundef nonnull align 8 dereferenceable(8) %353, i1 noundef zeroext %355)
          to label %358 unwind label %403, !dbg !5494

358:                                              ; preds = %356
  call void @_ZNSt7__cxx1112basic_stringIcSt11char_traitsIcESaIcEED1Ev(ptr noundef nonnull align 8 dereferenceable(32) %45) #3, !dbg !5494
  call void @_ZNSaIcED1Ev(ptr noundef nonnull align 1 dereferenceable(1) %47) #3, !dbg !5494
  br label %359, !dbg !5494

359:                                              ; preds = %358
  %360 = invoke noundef nonnull align 8 dereferenceable(8) ptr @_ZStlsISt11char_traitsIcEERSt13basic_ostreamIcT_ES5_PKc(ptr noundef nonnull align 8 dereferenceable(8) %41, ptr noundef @.str.4)
          to label %361 unwind label %395, !dbg !5496

361:                                              ; preds = %359
  %362 = invoke noundef nonnull align 8 dereferenceable(8) ptr @_ZStlsISt11char_traitsIcEERSt13basic_ostreamIcT_ES5_PKc(ptr noundef nonnull align 8 dereferenceable(8) %360, ptr noundef @.str.5)
          to label %363 unwind label %395, !dbg !5496

363:                                              ; preds = %361
  %364 = invoke noundef nonnull align 8 dereferenceable(8) ptr @_ZStlsISt11char_traitsIcEERSt13basic_ostreamIcT_ES5_c(ptr noundef nonnull align 8 dereferenceable(8) %362, i8 noundef signext 58)
          to label %365 unwind label %395, !dbg !5496

365:                                              ; preds = %363
  %366 = invoke noundef nonnull align 8 dereferenceable(8) ptr @_ZNSolsEi(ptr noundef nonnull align 8 dereferenceable(8) %364, i32 noundef 162)
          to label %367 unwind label %395, !dbg !5496

367:                                              ; preds = %365
  %368 = invoke noundef nonnull align 8 dereferenceable(8) ptr @_ZNSo5flushEv(ptr noundef nonnull align 8 dereferenceable(8) %41)
          to label %369 unwind label %395, !dbg !5499

369:                                              ; preds = %367
  br label %370, !dbg !5499

370:                                              ; preds = %369
  br label %371, !dbg !5499

371:                                              ; preds = %370
  %372 = load ptr, ptr %39, align 8, !dbg !5494
  %373 = load ptr, ptr %39, align 8, !dbg !5494
  %374 = invoke noundef nonnull align 8 dereferenceable(32) ptr @_ZNK4Poco6Logger4nameB5cxx11Ev(ptr noundef nonnull align 8 dereferenceable(68) %373)
          to label %375 unwind label %395, !dbg !5494

375:                                              ; preds = %371
  invoke void @_ZNKSt7__cxx1119basic_ostringstreamIcSt11char_traitsIcESaIcEE3strEv(ptr sret(%"class.std::__cxx11::basic_string") align 8 %49, ptr noundef nonnull align 8 dereferenceable(112) %41)
          to label %376 unwind label %395, !dbg !5494

376:                                              ; preds = %375
  invoke void @_ZN4Poco7MessageC1ERKNSt7__cxx1112basic_stringIcSt11char_traitsIcESaIcEEES8_NS0_8PriorityE(ptr noundef nonnull align 8 dereferenceable(152) %48, ptr noundef nonnull align 8 dereferenceable(32) %374, ptr noundef nonnull align 8 dereferenceable(32) %49, i32 noundef 8)
          to label %377 unwind label %408, !dbg !5494

377:                                              ; preds = %376
  %378 = load ptr, ptr %372, align 8, !dbg !5494
  %379 = getelementptr inbounds ptr, ptr %378, i64 6, !dbg !5494
  %380 = load ptr, ptr %379, align 8, !dbg !5494
  invoke void %380(ptr noundef nonnull align 8 dereferenceable(68) %372, ptr noundef nonnull align 8 dereferenceable(152) %48)
          to label %381 unwind label %412, !dbg !5494

381:                                              ; preds = %377
  call void @_ZN4Poco7MessageD1Ev(ptr noundef nonnull align 8 dereferenceable(152) %48) #3, !dbg !5494
  call void @_ZNSt7__cxx1112basic_stringIcSt11char_traitsIcESaIcEED1Ev(ptr noundef nonnull align 8 dereferenceable(32) %49) #3, !dbg !5494
  call void @_ZNSt7__cxx1119basic_ostringstreamIcSt11char_traitsIcESaIcEED1Ev(ptr noundef nonnull align 8 dereferenceable(112) %41) #3, !dbg !5490
  br label %418, !dbg !5494

382:                                              ; preds = %285
  %383 = landingpad { ptr, i32 }
          cleanup
          catch ptr @_ZTIN4Poco9ExceptionE, !dbg !5449
  %384 = extractvalue { ptr, i32 } %383, 0, !dbg !5449
  store ptr %384, ptr %13, align 8, !dbg !5449
  %385 = extractvalue { ptr, i32 } %383, 1, !dbg !5449
  store i32 %385, ptr %14, align 4, !dbg !5449
  call void @_ZNSt7__cxx1112basic_stringIcSt11char_traitsIcESaIcEED1Ev(ptr noundef nonnull align 8 dereferenceable(32) %38) #3, !dbg !5484
  br label %424, !dbg !5484

386:                                              ; preds = %302
  %387 = landingpad { ptr, i32 }
          cleanup
          catch ptr @_ZTIN4Poco9ExceptionE, !dbg !5500
  %388 = extractvalue { ptr, i32 } %387, 0, !dbg !5500
  store ptr %388, ptr %13, align 8, !dbg !5500
  %389 = extractvalue { ptr, i32 } %387, 1, !dbg !5500
  store i32 %389, ptr %14, align 4, !dbg !5500
  br label %394, !dbg !5500

390:                                              ; preds = %303
  %391 = landingpad { ptr, i32 }
          cleanup
          catch ptr @_ZTIN4Poco9ExceptionE, !dbg !5500
  %392 = extractvalue { ptr, i32 } %391, 0, !dbg !5500
  store ptr %392, ptr %13, align 8, !dbg !5500
  %393 = extractvalue { ptr, i32 } %391, 1, !dbg !5500
  store i32 %393, ptr %14, align 4, !dbg !5500
  call void @_ZNSt7__cxx1112basic_stringIcSt11char_traitsIcESaIcEED1Ev(ptr noundef nonnull align 8 dereferenceable(32) %42) #3, !dbg !5494
  br label %394, !dbg !5494

394:                                              ; preds = %390, %386
  call void @_ZNSaIcED1Ev(ptr noundef nonnull align 1 dereferenceable(1) %43) #3, !dbg !5494
  br label %424, !dbg !5494

395:                                              ; preds = %375, %371, %367, %365, %363, %361, %359, %325, %321, %319, %317, %311, %308, %306, %304
  %396 = landingpad { ptr, i32 }
          cleanup
          catch ptr @_ZTIN4Poco9ExceptionE, !dbg !5500
  %397 = extractvalue { ptr, i32 } %396, 0, !dbg !5500
  store ptr %397, ptr %13, align 8, !dbg !5500
  %398 = extractvalue { ptr, i32 } %396, 1, !dbg !5500
  store i32 %398, ptr %14, align 4, !dbg !5500
  br label %417, !dbg !5500

399:                                              ; preds = %331
  %400 = landingpad { ptr, i32 }
          cleanup
          catch ptr @_ZTIN4Poco9ExceptionE, !dbg !5500
  %401 = extractvalue { ptr, i32 } %400, 0, !dbg !5500
  store ptr %401, ptr %13, align 8, !dbg !5500
  %402 = extractvalue { ptr, i32 } %400, 1, !dbg !5500
  store i32 %402, ptr %14, align 4, !dbg !5500
  br label %407, !dbg !5500

403:                                              ; preds = %356, %354, %352, %349, %345, %342, %340, %338, %336, %334, %332
  %404 = landingpad { ptr, i32 }
          cleanup
          catch ptr @_ZTIN4Poco9ExceptionE, !dbg !5500
  %405 = extractvalue { ptr, i32 } %404, 0, !dbg !5500
  store ptr %405, ptr %13, align 8, !dbg !5500
  %406 = extractvalue { ptr, i32 } %404, 1, !dbg !5500
  store i32 %406, ptr %14, align 4, !dbg !5500
  call void @_ZNSt7__cxx1112basic_stringIcSt11char_traitsIcESaIcEED1Ev(ptr noundef nonnull align 8 dereferenceable(32) %45) #3, !dbg !5494
  br label %407, !dbg !5494

407:                                              ; preds = %403, %399
  call void @_ZNSaIcED1Ev(ptr noundef nonnull align 1 dereferenceable(1) %47) #3, !dbg !5494
  br label %417, !dbg !5494

408:                                              ; preds = %376
  %409 = landingpad { ptr, i32 }
          cleanup
          catch ptr @_ZTIN4Poco9ExceptionE, !dbg !5500
  %410 = extractvalue { ptr, i32 } %409, 0, !dbg !5500
  store ptr %410, ptr %13, align 8, !dbg !5500
  %411 = extractvalue { ptr, i32 } %409, 1, !dbg !5500
  store i32 %411, ptr %14, align 4, !dbg !5500
  br label %416, !dbg !5500

412:                                              ; preds = %377
  %413 = landingpad { ptr, i32 }
          cleanup
          catch ptr @_ZTIN4Poco9ExceptionE, !dbg !5500
  %414 = extractvalue { ptr, i32 } %413, 0, !dbg !5500
  store ptr %414, ptr %13, align 8, !dbg !5500
  %415 = extractvalue { ptr, i32 } %413, 1, !dbg !5500
  store i32 %415, ptr %14, align 4, !dbg !5500
  call void @_ZN4Poco7MessageD1Ev(ptr noundef nonnull align 8 dereferenceable(152) %48) #3, !dbg !5494
  br label %416, !dbg !5494

416:                                              ; preds = %412, %408
  call void @_ZNSt7__cxx1112basic_stringIcSt11char_traitsIcESaIcEED1Ev(ptr noundef nonnull align 8 dereferenceable(32) %49) #3, !dbg !5494
  br label %417, !dbg !5494

417:                                              ; preds = %416, %407, %395
  call void @_ZNSt7__cxx1119basic_ostringstreamIcSt11char_traitsIcESaIcEED1Ev(ptr noundef nonnull align 8 dereferenceable(112) %41) #3, !dbg !5490
  br label %424, !dbg !5490

418:                                              ; preds = %381, %298, %294
  br label %419, !dbg !5489

419:                                              ; preds = %418
  br label %420, !dbg !5489

420:                                              ; preds = %419
  %421 = load i64, ptr %20, align 8, !dbg !5501
  %422 = add nsw i64 %421, 1, !dbg !5502
  store i64 %422, ptr %4, align 8, !dbg !5503
  store i32 1, ptr %31, align 4
  br label %423, !dbg !5503

423:                                              ; preds = %420, %252
  call void @_ZN4Poco17MemoryInputStreamD1Ev(ptr noundef nonnull align 8 dereferenceable(104) %22) #3, !dbg !5504
  call void @_ZN4Poco3Net13MessageHeaderD1Ev(ptr noundef nonnull align 8 dereferenceable(36) %21) #3, !dbg !5504
  br label %516

424:                                              ; preds = %417, %394, %382, %283, %249, %235, %223
  call void @_ZN4Poco17MemoryInputStreamD1Ev(ptr noundef nonnull align 8 dereferenceable(104) %22) #3, !dbg !5504
  br label %425, !dbg !5504

425:                                              ; preds = %424, %219
  call void @_ZN4Poco3Net13MessageHeaderD1Ev(ptr noundef nonnull align 8 dereferenceable(36) %21) #3, !dbg !5504
  br label %426, !dbg !5504

426:                                              ; preds = %425, %215
  %427 = load i32, ptr %14, align 4, !dbg !5505
  %428 = call i32 @llvm.eh.typeid.for(ptr @_ZTIN4Poco9ExceptionE) #3, !dbg !5505
  %429 = icmp eq i32 %427, %428, !dbg !5505
  br i1 %429, label %430, label %518, !dbg !5505

430:                                              ; preds = %426
  call void @llvm.dbg.declare(metadata ptr %50, metadata !5506, metadata !DIExpression()), !dbg !5511
  %431 = load ptr, ptr %13, align 8, !dbg !5505
  %432 = call ptr @__cxa_begin_catch(ptr %431) #3, !dbg !5505
  store ptr %432, ptr %50, align 8, !dbg !5505
  br label %433, !dbg !5512

433:                                              ; preds = %430
  call void @llvm.dbg.declare(metadata ptr %51, metadata !5514, metadata !DIExpression()), !dbg !5516
  %434 = invoke noundef nonnull align 8 dereferenceable(68) ptr @_ZN3Log6loggerEv()
          to label %435 unwind label %479, !dbg !5516

435:                                              ; preds = %433
  store ptr %434, ptr %51, align 8, !dbg !5516
  %436 = invoke noundef zeroext i1 @_ZN3Log16isShutdownCalledEv()
          to label %437 unwind label %479, !dbg !5517

437:                                              ; preds = %435
  br i1 %436, label %510, label %438, !dbg !5517

438:                                              ; preds = %437
  %439 = load ptr, ptr %51, align 8, !dbg !5517
  %440 = invoke noundef zeroext i1 @_ZNK4Poco6Logger5traceEv(ptr noundef nonnull align 8 dereferenceable(68) %439)
          to label %441 unwind label %479, !dbg !5517

441:                                              ; preds = %438
  br i1 %440, label %442, label %510, !dbg !5516

442:                                              ; preds = %441
  call void @llvm.dbg.declare(metadata ptr %52, metadata !5519, metadata !DIExpression()), !dbg !5521
  call void @llvm.dbg.declare(metadata ptr %53, metadata !5522, metadata !DIExpression()), !dbg !5521
  %443 = getelementptr inbounds [1024 x i8], ptr %52, i64 0, i64 0, !dbg !5521
  %444 = invoke noundef ptr @_ZN3Log6prefixILi1023EEEPcS1_PKc(ptr noundef %443, ptr noundef @.str)
          to label %445 unwind label %479, !dbg !5521

445:                                              ; preds = %442
  call void @_ZNSaIcEC1Ev(ptr noundef nonnull align 1 dereferenceable(1) %55) #3, !dbg !5521
  invoke void @_ZNSt7__cxx1112basic_stringIcSt11char_traitsIcESaIcEEC2IS3_EEPKcRKS3_(ptr noundef nonnull align 8 dereferenceable(32) %54, ptr noundef %444, ptr noundef nonnull align 1 dereferenceable(1) %55)
          to label %446 unwind label %483, !dbg !5521

446:                                              ; preds = %445
  invoke void @_ZNSt7__cxx1119basic_ostringstreamIcSt11char_traitsIcESaIcEEC1ERKNS_12basic_stringIcS2_S3_EESt13_Ios_Openmode(ptr noundef nonnull align 8 dereferenceable(112) %53, ptr noundef nonnull align 8 dereferenceable(32) %54, i32 noundef 2)
          to label %447 unwind label %487, !dbg !5521

447:                                              ; preds = %446
  call void @_ZNSt7__cxx1112basic_stringIcSt11char_traitsIcESaIcEED1Ev(ptr noundef nonnull align 8 dereferenceable(32) %54) #3, !dbg !5521
  call void @_ZNSaIcED1Ev(ptr noundef nonnull align 1 dereferenceable(1) %55) #3, !dbg !5521
  %448 = invoke noundef nonnull align 8 dereferenceable(8) ptr @_ZNSolsEPFRSt8ios_baseS0_E(ptr noundef nonnull align 8 dereferenceable(8) %53, ptr noundef @_ZSt9boolalphaRSt8ios_base)
          to label %449 unwind label %492, !dbg !5521

449:                                              ; preds = %447
  %450 = invoke noundef nonnull align 8 dereferenceable(8) ptr @_ZStlsISt11char_traitsIcEERSt13basic_ostreamIcT_ES5_PKc(ptr noundef nonnull align 8 dereferenceable(8) %448, ptr noundef @.str.14)
          to label %451 unwind label %492, !dbg !5521

451:                                              ; preds = %449
  %452 = load ptr, ptr %50, align 8, !dbg !5521
  invoke void @_ZNK4Poco9Exception11displayTextB5cxx11Ev(ptr sret(%"class.std::__cxx11::basic_string") align 8 %56, ptr noundef nonnull align 8 dereferenceable(52) %452)
          to label %453 unwind label %492, !dbg !5521

453:                                              ; preds = %451
  %454 = invoke noundef nonnull align 8 dereferenceable(8) ptr @_ZStlsIcSt11char_traitsIcESaIcEERSt13basic_ostreamIT_T0_ES7_RKNSt7__cxx1112basic_stringIS4_S5_T1_EE(ptr noundef nonnull align 8 dereferenceable(8) %450, ptr noundef nonnull align 8 dereferenceable(32) %56)
          to label %455 unwind label %496, !dbg !5521

455:                                              ; preds = %453
  call void @_ZNSt7__cxx1112basic_stringIcSt11char_traitsIcESaIcEED1Ev(ptr noundef nonnull align 8 dereferenceable(32) %56) #3, !dbg !5521
  br label %456, !dbg !5521

456:                                              ; preds = %455
  %457 = invoke noundef nonnull align 8 dereferenceable(8) ptr @_ZStlsISt11char_traitsIcEERSt13basic_ostreamIcT_ES5_PKc(ptr noundef nonnull align 8 dereferenceable(8) %53, ptr noundef @.str.4)
          to label %458 unwind label %492, !dbg !5523

458:                                              ; preds = %456
  %459 = invoke noundef nonnull align 8 dereferenceable(8) ptr @_ZStlsISt11char_traitsIcEERSt13basic_ostreamIcT_ES5_PKc(ptr noundef nonnull align 8 dereferenceable(8) %457, ptr noundef @.str.5)
          to label %460 unwind label %492, !dbg !5523

460:                                              ; preds = %458
  %461 = invoke noundef nonnull align 8 dereferenceable(8) ptr @_ZStlsISt11char_traitsIcEERSt13basic_ostreamIcT_ES5_c(ptr noundef nonnull align 8 dereferenceable(8) %459, i8 noundef signext 58)
          to label %462 unwind label %492, !dbg !5523

462:                                              ; preds = %460
  %463 = invoke noundef nonnull align 8 dereferenceable(8) ptr @_ZNSolsEi(ptr noundef nonnull align 8 dereferenceable(8) %461, i32 noundef 169)
          to label %464 unwind label %492, !dbg !5523

464:                                              ; preds = %462
  %465 = invoke noundef nonnull align 8 dereferenceable(8) ptr @_ZNSo5flushEv(ptr noundef nonnull align 8 dereferenceable(8) %53)
          to label %466 unwind label %492, !dbg !5526

466:                                              ; preds = %464
  br label %467, !dbg !5526

467:                                              ; preds = %466
  br label %468, !dbg !5526

468:                                              ; preds = %467
  %469 = load ptr, ptr %51, align 8, !dbg !5521
  %470 = load ptr, ptr %51, align 8, !dbg !5521
  %471 = invoke noundef nonnull align 8 dereferenceable(32) ptr @_ZNK4Poco6Logger4nameB5cxx11Ev(ptr noundef nonnull align 8 dereferenceable(68) %470)
          to label %472 unwind label %492, !dbg !5521

472:                                              ; preds = %468
  invoke void @_ZNKSt7__cxx1119basic_ostringstreamIcSt11char_traitsIcESaIcEE3strEv(ptr sret(%"class.std::__cxx11::basic_string") align 8 %58, ptr noundef nonnull align 8 dereferenceable(112) %53)
          to label %473 unwind label %492, !dbg !5521

473:                                              ; preds = %472
  invoke void @_ZN4Poco7MessageC1ERKNSt7__cxx1112basic_stringIcSt11char_traitsIcESaIcEEES8_NS0_8PriorityE(ptr noundef nonnull align 8 dereferenceable(152) %57, ptr noundef nonnull align 8 dereferenceable(32) %471, ptr noundef nonnull align 8 dereferenceable(32) %58, i32 noundef 8)
          to label %474 unwind label %500, !dbg !5521

474:                                              ; preds = %473
  %475 = load ptr, ptr %469, align 8, !dbg !5521
  %476 = getelementptr inbounds ptr, ptr %475, i64 6, !dbg !5521
  %477 = load ptr, ptr %476, align 8, !dbg !5521
  invoke void %477(ptr noundef nonnull align 8 dereferenceable(68) %469, ptr noundef nonnull align 8 dereferenceable(152) %57)
          to label %478 unwind label %504, !dbg !5521

478:                                              ; preds = %474
  call void @_ZN4Poco7MessageD1Ev(ptr noundef nonnull align 8 dereferenceable(152) %57) #3, !dbg !5521
  call void @_ZNSt7__cxx1112basic_stringIcSt11char_traitsIcESaIcEED1Ev(ptr noundef nonnull align 8 dereferenceable(32) %58) #3, !dbg !5521
  call void @_ZNSt7__cxx1119basic_ostringstreamIcSt11char_traitsIcESaIcEED1Ev(ptr noundef nonnull align 8 dereferenceable(112) %53) #3, !dbg !5517
  br label %510, !dbg !5521

479:                                              ; preds = %442, %438, %435, %433
  %480 = landingpad { ptr, i32 }
          cleanup, !dbg !5527
  %481 = extractvalue { ptr, i32 } %480, 0, !dbg !5527
  store ptr %481, ptr %13, align 8, !dbg !5527
  %482 = extractvalue { ptr, i32 } %480, 1, !dbg !5527
  store i32 %482, ptr %14, align 4, !dbg !5527
  br label %514, !dbg !5527

483:                                              ; preds = %445
  %484 = landingpad { ptr, i32 }
          cleanup, !dbg !5528
  %485 = extractvalue { ptr, i32 } %484, 0, !dbg !5528
  store ptr %485, ptr %13, align 8, !dbg !5528
  %486 = extractvalue { ptr, i32 } %484, 1, !dbg !5528
  store i32 %486, ptr %14, align 4, !dbg !5528
  br label %491, !dbg !5528

487:                                              ; preds = %446
  %488 = landingpad { ptr, i32 }
          cleanup, !dbg !5528
  %489 = extractvalue { ptr, i32 } %488, 0, !dbg !5528
  store ptr %489, ptr %13, align 8, !dbg !5528
  %490 = extractvalue { ptr, i32 } %488, 1, !dbg !5528
  store i32 %490, ptr %14, align 4, !dbg !5528
  call void @_ZNSt7__cxx1112basic_stringIcSt11char_traitsIcESaIcEED1Ev(ptr noundef nonnull align 8 dereferenceable(32) %54) #3, !dbg !5521
  br label %491, !dbg !5521

491:                                              ; preds = %487, %483
  call void @_ZNSaIcED1Ev(ptr noundef nonnull align 1 dereferenceable(1) %55) #3, !dbg !5521
  br label %514, !dbg !5521

492:                                              ; preds = %472, %468, %464, %462, %460, %458, %456, %451, %449, %447
  %493 = landingpad { ptr, i32 }
          cleanup, !dbg !5528
  %494 = extractvalue { ptr, i32 } %493, 0, !dbg !5528
  store ptr %494, ptr %13, align 8, !dbg !5528
  %495 = extractvalue { ptr, i32 } %493, 1, !dbg !5528
  store i32 %495, ptr %14, align 4, !dbg !5528
  br label %509, !dbg !5528

496:                                              ; preds = %453
  %497 = landingpad { ptr, i32 }
          cleanup, !dbg !5528
  %498 = extractvalue { ptr, i32 } %497, 0, !dbg !5528
  store ptr %498, ptr %13, align 8, !dbg !5528
  %499 = extractvalue { ptr, i32 } %497, 1, !dbg !5528
  store i32 %499, ptr %14, align 4, !dbg !5528
  call void @_ZNSt7__cxx1112basic_stringIcSt11char_traitsIcESaIcEED1Ev(ptr noundef nonnull align 8 dereferenceable(32) %56) #3, !dbg !5521
  br label %509, !dbg !5521

500:                                              ; preds = %473
  %501 = landingpad { ptr, i32 }
          cleanup, !dbg !5528
  %502 = extractvalue { ptr, i32 } %501, 0, !dbg !5528
  store ptr %502, ptr %13, align 8, !dbg !5528
  %503 = extractvalue { ptr, i32 } %501, 1, !dbg !5528
  store i32 %503, ptr %14, align 4, !dbg !5528
  br label %508, !dbg !5528

504:                                              ; preds = %474
  %505 = landingpad { ptr, i32 }
          cleanup, !dbg !5528
  %506 = extractvalue { ptr, i32 } %505, 0, !dbg !5528
  store ptr %506, ptr %13, align 8, !dbg !5528
  %507 = extractvalue { ptr, i32 } %505, 1, !dbg !5528
  store i32 %507, ptr %14, align 4, !dbg !5528
  call void @_ZN4Poco7MessageD1Ev(ptr noundef nonnull align 8 dereferenceable(152) %57) #3, !dbg !5521
  br label %508, !dbg !5521

508:                                              ; preds = %504, %500
  call void @_ZNSt7__cxx1112basic_stringIcSt11char_traitsIcESaIcEED1Ev(ptr noundef nonnull align 8 dereferenceable(32) %58) #3, !dbg !5521
  br label %509, !dbg !5521

509:                                              ; preds = %508, %496, %492
  call void @_ZNSt7__cxx1119basic_ostringstreamIcSt11char_traitsIcESaIcEED1Ev(ptr noundef nonnull align 8 dereferenceable(112) %53) #3, !dbg !5517
  br label %514, !dbg !5517

510:                                              ; preds = %478, %441, %437
  br label %511, !dbg !5516

511:                                              ; preds = %510
  br label %512, !dbg !5516

512:                                              ; preds = %511
  call void @__cxa_end_catch(), !dbg !5529
  br label %513, !dbg !5529

513:                                              ; preds = %512
  store i64 0, ptr %4, align 8, !dbg !5530
  br label %516, !dbg !5530

514:                                              ; preds = %509, %491, %479
  invoke void @__cxa_end_catch()
          to label %515 unwind label %523, !dbg !5529

515:                                              ; preds = %514
  br label %518, !dbg !5529

516:                                              ; preds = %513, %423, %154, %146
  %517 = load i64, ptr %4, align 8, !dbg !5531
  ret i64 %517, !dbg !5531

518:                                              ; preds = %515, %426, %141, %118
  %519 = load ptr, ptr %13, align 8, !dbg !5387
  %520 = load i32, ptr %14, align 4, !dbg !5387
  %521 = insertvalue { ptr, i32 } poison, ptr %519, 0, !dbg !5387
  %522 = insertvalue { ptr, i32 } %521, i32 %520, 1, !dbg !5387
  resume { ptr, i32 } %522, !dbg !5387

523:                                              ; preds = %514
  %524 = landingpad { ptr, i32 }
          catch ptr null, !dbg !5529
  %525 = extractvalue { ptr, i32 } %524, 0, !dbg !5529
  call void @__clang_call_terminate(ptr %525) #20, !dbg !5529
  unreachable, !dbg !5529
}

; Function Attrs: nocallback nofree nosync nounwind speculatable willreturn memory(none)
declare void @llvm.dbg.declare(metadata, metadata, metadata) #6

declare noundef nonnull align 8 dereferenceable(68) ptr @_ZN3Log6loggerEv() #1

; Function Attrs: mustprogress noinline nounwind optnone uwtable
define linkonce_odr dso_local noundef zeroext i1 @_ZN3Log16isShutdownCalledEv() #7 comdat !dbg !5532 {
  %1 = load i8, ptr @_ZN3Log10IsShutdownE, align 1, !dbg !5533
  %2 = trunc i8 %1 to i1, !dbg !5533
  ret i1 %2, !dbg !5534
}

; Function Attrs: mustprogress noinline nounwind optnone uwtable
define linkonce_odr dso_local noundef zeroext i1 @_ZNK4Poco6Logger5traceEv(ptr noundef nonnull align 8 dereferenceable(68) %0) #7 comdat align 2 !dbg !5535 {
  %2 = alloca ptr, align 8
  store ptr %0, ptr %2, align 8
  call void @llvm.dbg.declare(metadata ptr %2, metadata !5541, metadata !DIExpression()), !dbg !5543
  %3 = load ptr, ptr %2, align 8
  %4 = getelementptr inbounds %"class.Poco::Logger", ptr %3, i32 0, i32 4, !dbg !5544
  %5 = load i32, ptr %4, align 8, !dbg !5544
  %6 = icmp sge i32 %5, 8, !dbg !5545
  ret i1 %6, !dbg !5546
}

; Function Attrs: mustprogress noinline optnone uwtable
define linkonce_odr dso_local noundef ptr @_ZN3Log6prefixILi1023EEEPcS1_PKc(ptr noundef %0, ptr noundef %1) #5 comdat personality ptr @__gxx_personality_v0 !dbg !5547 {
  %3 = alloca ptr, align 8
  %4 = alloca ptr, align 8
  %5 = alloca %"class.Poco::LocalDateTime", align 8
  %6 = alloca ptr, align 8
  %7 = alloca i32, align 4
  store ptr %0, ptr %3, align 8
  call void @llvm.dbg.declare(metadata ptr %3, metadata !5552, metadata !DIExpression()), !dbg !5553
  store ptr %1, ptr %4, align 8
  call void @llvm.dbg.declare(metadata ptr %4, metadata !5554, metadata !DIExpression()), !dbg !5555
  call void @_ZN4Poco13LocalDateTimeC1Ev(ptr noundef nonnull align 8 dereferenceable(28) %5), !dbg !5556
  %8 = load ptr, ptr %3, align 8, !dbg !5557
  %9 = load ptr, ptr %4, align 8, !dbg !5558
  %10 = invoke noundef ptr @_ZN3Log6prefixERKN4Poco13LocalDateTimeEPcPKc(ptr noundef nonnull align 8 dereferenceable(28) %5, ptr noundef %8, ptr noundef %9)
          to label %11 unwind label %12, !dbg !5559

11:                                               ; preds = %2
  call void @_ZN4Poco13LocalDateTimeD1Ev(ptr noundef nonnull align 8 dereferenceable(28) %5) #3, !dbg !5560
  ret ptr %10, !dbg !5560

12:                                               ; preds = %2
  %13 = landingpad { ptr, i32 }
          cleanup, !dbg !5561
  %14 = extractvalue { ptr, i32 } %13, 0, !dbg !5561
  store ptr %14, ptr %6, align 8, !dbg !5561
  %15 = extractvalue { ptr, i32 } %13, 1, !dbg !5561
  store i32 %15, ptr %7, align 4, !dbg !5561
  call void @_ZN4Poco13LocalDateTimeD1Ev(ptr noundef nonnull align 8 dereferenceable(28) %5) #3, !dbg !5560
  br label %16, !dbg !5560

16:                                               ; preds = %12
  %17 = load ptr, ptr %6, align 8, !dbg !5560
  %18 = load i32, ptr %7, align 4, !dbg !5560
  %19 = insertvalue { ptr, i32 } poison, ptr %17, 0, !dbg !5560
  %20 = insertvalue { ptr, i32 } %19, i32 %18, 1, !dbg !5560
  resume { ptr, i32 } %20, !dbg !5560
}

; Function Attrs: nounwind
declare void @_ZNSaIcEC1Ev(ptr noundef nonnull align 1 dereferenceable(1)) unnamed_addr #2

; Function Attrs: noinline optnone uwtable
define linkonce_odr dso_local void @_ZNSt7__cxx1112basic_stringIcSt11char_traitsIcESaIcEEC2IS3_EEPKcRKS3_(ptr noundef nonnull align 8 dereferenceable(32) %0, ptr noundef %1, ptr noundef nonnull align 1 dereferenceable(1) %2) unnamed_addr #8 comdat align 2 personality ptr @__gxx_personality_v0 !dbg !5562 {
  %4 = alloca ptr, align 8
  %5 = alloca ptr, align 8
  %6 = alloca ptr, align 8
  %7 = alloca ptr, align 8
  %8 = alloca ptr, align 8
  %9 = alloca i32, align 4
  %10 = alloca %"struct.std::forward_iterator_tag", align 1
  %11 = alloca %"struct.std::random_access_iterator_tag", align 1
  store ptr %0, ptr %4, align 8
  call void @llvm.dbg.declare(metadata ptr %4, metadata !5568, metadata !DIExpression()), !dbg !5570
  store ptr %1, ptr %5, align 8
  call void @llvm.dbg.declare(metadata ptr %5, metadata !5571, metadata !DIExpression()), !dbg !5572
  store ptr %2, ptr %6, align 8
  call void @llvm.dbg.declare(metadata ptr %6, metadata !5573, metadata !DIExpression()), !dbg !5574
  %12 = load ptr, ptr %4, align 8
  %13 = getelementptr inbounds %"class.std::__cxx11::basic_string", ptr %12, i32 0, i32 0, !dbg !5575
  %14 = call noundef ptr @_ZNSt7__cxx1112basic_stringIcSt11char_traitsIcESaIcEE13_M_local_dataEv(ptr noundef nonnull align 8 dereferenceable(32) %12), !dbg !5576
  %15 = load ptr, ptr %6, align 8, !dbg !5577
  call void @_ZNSt7__cxx1112basic_stringIcSt11char_traitsIcESaIcEE12_Alloc_hiderC1EPcRKS3_(ptr noundef nonnull align 8 dereferenceable(8) %13, ptr noundef %14, ptr noundef nonnull align 1 dereferenceable(1) %15), !dbg !5575
  call void @llvm.dbg.declare(metadata ptr %7, metadata !5578, metadata !DIExpression()), !dbg !5580
  %16 = load ptr, ptr %5, align 8, !dbg !5581
  %17 = icmp ne ptr %16, null, !dbg !5581
  br i1 %17, label %18, label %24, !dbg !5581

18:                                               ; preds = %3
  %19 = load ptr, ptr %5, align 8, !dbg !5582
  %20 = load ptr, ptr %5, align 8, !dbg !5583
  %21 = invoke noundef i64 @_ZNSt11char_traitsIcE6lengthEPKc(ptr noundef %20)
          to label %22 unwind label %30, !dbg !5584

22:                                               ; preds = %18
  %23 = getelementptr inbounds i8, ptr %19, i64 %21, !dbg !5585
  br label %25, !dbg !5581

24:                                               ; preds = %3
  br label %25, !dbg !5581

25:                                               ; preds = %24, %22
  %26 = phi ptr [ %23, %22 ], [ inttoptr (i64 1 to ptr), %24 ], !dbg !5581
  store ptr %26, ptr %7, align 8, !dbg !5580
  %27 = load ptr, ptr %5, align 8, !dbg !5586
  %28 = load ptr, ptr %7, align 8, !dbg !5587
  invoke void @_ZNSt7__cxx1112basic_stringIcSt11char_traitsIcESaIcEE12_M_constructIPKcEEvT_S8_St20forward_iterator_tag(ptr noundef nonnull align 8 dereferenceable(32) %12, ptr noundef %27, ptr noundef %28)
          to label %29 unwind label %30, !dbg !5588

29:                                               ; preds = %25
  ret void, !dbg !5589

30:                                               ; preds = %25, %18
  %31 = landingpad { ptr, i32 }
          cleanup, !dbg !5590
  %32 = extractvalue { ptr, i32 } %31, 0, !dbg !5590
  store ptr %32, ptr %8, align 8, !dbg !5590
  %33 = extractvalue { ptr, i32 } %31, 1, !dbg !5590
  store i32 %33, ptr %9, align 4, !dbg !5590
  call void @_ZNSt7__cxx1112basic_stringIcSt11char_traitsIcESaIcEE12_Alloc_hiderD2Ev(ptr noundef nonnull align 8 dereferenceable(8) %13) #3, !dbg !5590
  br label %34, !dbg !5590

34:                                               ; preds = %30
  %35 = load ptr, ptr %8, align 8, !dbg !5590
  %36 = load i32, ptr %9, align 4, !dbg !5590
  %37 = insertvalue { ptr, i32 } poison, ptr %35, 0, !dbg !5590
  %38 = insertvalue { ptr, i32 } %37, i32 %36, 1, !dbg !5590
  resume { ptr, i32 } %38, !dbg !5590
}

declare i32 @__gxx_personality_v0(...)

declare void @_ZNSt7__cxx1119basic_ostringstreamIcSt11char_traitsIcESaIcEEC1ERKNS_12basic_stringIcS2_S3_EESt13_Ios_Openmode(ptr noundef nonnull align 8 dereferenceable(112), ptr noundef nonnull align 8 dereferenceable(32), i32 noundef) unnamed_addr #1

; Function Attrs: nounwind
declare void @_ZNSt7__cxx1112basic_stringIcSt11char_traitsIcESaIcEED1Ev(ptr noundef nonnull align 8 dereferenceable(32)) unnamed_addr #2

; Function Attrs: nounwind
declare void @_ZNSaIcED1Ev(ptr noundef nonnull align 1 dereferenceable(1)) unnamed_addr #2

declare noundef nonnull align 8 dereferenceable(8) ptr @_ZStlsIcSt11char_traitsIcESaIcEERSt13basic_ostreamIT_T0_ES7_RKNSt7__cxx1112basic_stringIS4_S5_T1_EE(ptr noundef nonnull align 8 dereferenceable(8), ptr noundef nonnull align 8 dereferenceable(32)) #1

declare noundef nonnull align 8 dereferenceable(8) ptr @_ZStlsISt11char_traitsIcEERSt13basic_ostreamIcT_ES5_PKc(ptr noundef nonnull align 8 dereferenceable(8), ptr noundef) #1

declare noundef nonnull align 8 dereferenceable(8) ptr @_ZNSolsEPFRSt8ios_baseS0_E(ptr noundef nonnull align 8 dereferenceable(8), ptr noundef) #1

; Function Attrs: mustprogress noinline optnone uwtable
define linkonce_odr dso_local noundef nonnull align 8 dereferenceable(216) ptr @_ZSt9boolalphaRSt8ios_base(ptr noundef nonnull align 8 dereferenceable(216) %0) #5 comdat !dbg !5591 {
  %2 = alloca ptr, align 8
  store ptr %0, ptr %2, align 8
  call void @llvm.dbg.declare(metadata ptr %2, metadata !5595, metadata !DIExpression()), !dbg !5596
  %3 = load ptr, ptr %2, align 8, !dbg !5597
  %4 = call noundef i32 @_ZNSt8ios_base4setfESt13_Ios_Fmtflags(ptr noundef nonnull align 8 dereferenceable(216) %3, i32 noundef 1), !dbg !5598
  %5 = load ptr, ptr %2, align 8, !dbg !5599
  ret ptr %5, !dbg !5600
}

declare noundef nonnull align 8 dereferenceable(8) ptr @_ZNSolsEl(ptr noundef nonnull align 8 dereferenceable(8), i64 noundef) #1

; Function Attrs: mustprogress noinline nounwind optnone uwtable
define linkonce_odr dso_local noundef nonnull align 8 dereferenceable(8) ptr @_ZSt3minIlERKT_S2_S2_(ptr noundef nonnull align 8 dereferenceable(8) %0, ptr noundef nonnull align 8 dereferenceable(8) %1) #7 comdat !dbg !5601 {
  %3 = alloca ptr, align 8
  %4 = alloca ptr, align 8
  %5 = alloca ptr, align 8
  store ptr %0, ptr %4, align 8
  call void @llvm.dbg.declare(metadata ptr %4, metadata !5607, metadata !DIExpression()), !dbg !5608
  store ptr %1, ptr %5, align 8
  call void @llvm.dbg.declare(metadata ptr %5, metadata !5609, metadata !DIExpression()), !dbg !5610
  %6 = load ptr, ptr %5, align 8, !dbg !5611
  %7 = load i64, ptr %6, align 8, !dbg !5611
  %8 = load ptr, ptr %4, align 8, !dbg !5613
  %9 = load i64, ptr %8, align 8, !dbg !5613
  %10 = icmp slt i64 %7, %9, !dbg !5614
  br i1 %10, label %11, label %13, !dbg !5615

11:                                               ; preds = %2
  %12 = load ptr, ptr %5, align 8, !dbg !5616
  store ptr %12, ptr %3, align 8, !dbg !5617
  br label %15, !dbg !5617

13:                                               ; preds = %2
  %14 = load ptr, ptr %4, align 8, !dbg !5618
  store ptr %14, ptr %3, align 8, !dbg !5619
  br label %15, !dbg !5619

15:                                               ; preds = %13, %11
  %16 = load ptr, ptr %3, align 8, !dbg !5620
  ret ptr %16, !dbg !5620
}

declare void @_ZNSt7__cxx1112basic_stringIcSt11char_traitsIcESaIcEEC1EPKcmRKS3_(ptr noundef nonnull align 8 dereferenceable(32), ptr noundef, i64 noundef, ptr noundef nonnull align 1 dereferenceable(1)) unnamed_addr #1

declare noundef nonnull align 8 dereferenceable(8) ptr @_ZStlsISt11char_traitsIcEERSt13basic_ostreamIcT_ES5_c(ptr noundef nonnull align 8 dereferenceable(8), i8 noundef signext) #1

declare noundef nonnull align 8 dereferenceable(8) ptr @_ZNSolsEi(ptr noundef nonnull align 8 dereferenceable(8), i32 noundef) #1

declare noundef nonnull align 8 dereferenceable(8) ptr @_ZNSo5flushEv(ptr noundef nonnull align 8 dereferenceable(8)) #1

; Function Attrs: mustprogress noinline nounwind optnone uwtable
define linkonce_odr dso_local noundef nonnull align 8 dereferenceable(32) ptr @_ZNK4Poco6Logger4nameB5cxx11Ev(ptr noundef nonnull align 8 dereferenceable(68) %0) #7 comdat align 2 !dbg !5621 {
  %2 = alloca ptr, align 8
  store ptr %0, ptr %2, align 8
  call void @llvm.dbg.declare(metadata ptr %2, metadata !5625, metadata !DIExpression()), !dbg !5626
  %3 = load ptr, ptr %2, align 8
  %4 = getelementptr inbounds %"class.Poco::Logger", ptr %3, i32 0, i32 2, !dbg !5627
  ret ptr %4, !dbg !5628
}

declare void @_ZNKSt7__cxx1119basic_ostringstreamIcSt11char_traitsIcESaIcEE3strEv(ptr sret(%"class.std::__cxx11::basic_string") align 8, ptr noundef nonnull align 8 dereferenceable(112)) #1

declare void @_ZN4Poco7MessageC1ERKNSt7__cxx1112basic_stringIcSt11char_traitsIcESaIcEEES8_NS0_8PriorityE(ptr noundef nonnull align 8 dereferenceable(152), ptr noundef nonnull align 8 dereferenceable(32), ptr noundef nonnull align 8 dereferenceable(32), i32 noundef) unnamed_addr #1

; Function Attrs: nounwind
declare void @_ZN4Poco7MessageD1Ev(ptr noundef nonnull align 8 dereferenceable(152)) unnamed_addr #2

; Function Attrs: nounwind
declare void @_ZNSt7__cxx1119basic_ostringstreamIcSt11char_traitsIcESaIcEED1Ev(ptr noundef nonnull align 8 dereferenceable(112)) unnamed_addr #2

; Function Attrs: mustprogress noinline optnone uwtable
define internal noundef i64 @_ZN4httpL13findBlankLineEPKcll(ptr noundef %0, i64 noundef %1, i64 noundef %2) #5 !dbg !5629 {
  %4 = alloca i64, align 8
  %5 = alloca ptr, align 8
  %6 = alloca i64, align 8
  %7 = alloca i64, align 8
  store ptr %0, ptr %5, align 8
  call void @llvm.dbg.declare(metadata ptr %5, metadata !5632, metadata !DIExpression()), !dbg !5633
  store i64 %1, ptr %6, align 8
  call void @llvm.dbg.declare(metadata ptr %6, metadata !5634, metadata !DIExpression()), !dbg !5635
  store i64 %2, ptr %7, align 8
  call void @llvm.dbg.declare(metadata ptr %7, metadata !5636, metadata !DIExpression()), !dbg !5637
  br label %8, !dbg !5638

8:                                                ; preds = %42, %3
  %9 = load i64, ptr %6, align 8, !dbg !5639
  %10 = load i64, ptr %7, align 8, !dbg !5642
  %11 = icmp slt i64 %9, %10, !dbg !5643
  br i1 %11, label %12, label %45, !dbg !5644

12:                                               ; preds = %8
  %13 = load ptr, ptr %5, align 8, !dbg !5645
  %14 = load i64, ptr %6, align 8, !dbg !5647
  %15 = load i64, ptr %7, align 8, !dbg !5648
  %16 = call noundef i64 @_ZN4httpL13findLineBreakEPKcll(ptr noundef %13, i64 noundef %14, i64 noundef %15), !dbg !5649
  store i64 %16, ptr %6, align 8, !dbg !5650
  %17 = load i64, ptr %6, align 8, !dbg !5651
  %18 = add nsw i64 %17, 2, !dbg !5653
  %19 = load i64, ptr %7, align 8, !dbg !5654
  %20 = icmp sge i64 %18, %19, !dbg !5655
  br i1 %20, label %21, label %23, !dbg !5656

21:                                               ; preds = %12
  %22 = load i64, ptr %7, align 8, !dbg !5657
  store i64 %22, ptr %4, align 8, !dbg !5659
  br label %47, !dbg !5659

23:                                               ; preds = %12
  %24 = load ptr, ptr %5, align 8, !dbg !5660
  %25 = load i64, ptr %6, align 8, !dbg !5662
  %26 = add nsw i64 %25, 1, !dbg !5663
  %27 = getelementptr inbounds i8, ptr %24, i64 %26, !dbg !5660
  %28 = load i8, ptr %27, align 1, !dbg !5660
  %29 = sext i8 %28 to i32, !dbg !5660
  %30 = icmp eq i32 %29, 13, !dbg !5664
  br i1 %30, label %31, label %42, !dbg !5665

31:                                               ; preds = %23
  %32 = load ptr, ptr %5, align 8, !dbg !5666
  %33 = load i64, ptr %6, align 8, !dbg !5667
  %34 = add nsw i64 %33, 2, !dbg !5668
  %35 = getelementptr inbounds i8, ptr %32, i64 %34, !dbg !5666
  %36 = load i8, ptr %35, align 1, !dbg !5666
  %37 = sext i8 %36 to i32, !dbg !5666
  %38 = icmp eq i32 %37, 10, !dbg !5669
  br i1 %38, label %39, label %42, !dbg !5670

39:                                               ; preds = %31
  %40 = load i64, ptr %6, align 8, !dbg !5671
  %41 = add nsw i64 %40, 2, !dbg !5673
  store i64 %41, ptr %4, align 8, !dbg !5674
  br label %47, !dbg !5674

42:                                               ; preds = %31, %23
  %43 = load i64, ptr %6, align 8, !dbg !5675
  %44 = add nsw i64 %43, 3, !dbg !5675
  store i64 %44, ptr %6, align 8, !dbg !5675
  br label %8, !dbg !5676, !llvm.loop !5677

45:                                               ; preds = %8
  %46 = load i64, ptr %7, align 8, !dbg !5680
  store i64 %46, ptr %4, align 8, !dbg !5681
  br label %47, !dbg !5681

47:                                               ; preds = %45, %39, %21
  %48 = load i64, ptr %4, align 8, !dbg !5682
  ret i64 %48, !dbg !5682
}

declare void @_ZN4Poco3Net13MessageHeaderC1Ev(ptr noundef nonnull align 8 dereferenceable(36)) unnamed_addr #1

declare void @_ZN4Poco17MemoryInputStreamC1EPKcl(ptr noundef nonnull align 8 dereferenceable(104), ptr noundef, i64 noundef) unnamed_addr #1

declare void @_ZN4Poco3Net13MessageHeader4readERSi(ptr noundef nonnull align 8 dereferenceable(36), ptr noundef nonnull align 8 dereferenceable(16)) unnamed_addr #1

declare { i64, i64 } @_ZNSi5tellgEv(ptr noundef nonnull align 8 dereferenceable(16)) #1

; Function Attrs: mustprogress noinline nounwind optnone uwtable
define linkonce_odr dso_local noundef i64 @_ZNKSt4fposI11__mbstate_tEcvlEv(ptr noundef nonnull align 8 dereferenceable(16) %0) #7 comdat align 2 !dbg !5683 {
  %2 = alloca ptr, align 8
  store ptr %0, ptr %2, align 8
  call void @llvm.dbg.declare(metadata ptr %2, metadata !5692, metadata !DIExpression()), !dbg !5694
  %3 = load ptr, ptr %2, align 8
  %4 = getelementptr inbounds %"class.std::fpos", ptr %3, i32 0, i32 0, !dbg !5695
  %5 = load i64, ptr %4, align 8, !dbg !5695
  ret i64 %5, !dbg !5696
}

; Function Attrs: mustprogress noinline nounwind optnone uwtable
define linkonce_odr dso_local noundef zeroext i1 @_ZNK4Poco6Logger5debugEv(ptr noundef nonnull align 8 dereferenceable(68) %0) #7 comdat align 2 !dbg !5697 {
  %2 = alloca ptr, align 8
  store ptr %0, ptr %2, align 8
  call void @llvm.dbg.declare(metadata ptr %2, metadata !5699, metadata !DIExpression()), !dbg !5700
  %3 = load ptr, ptr %2, align 8
  %4 = getelementptr inbounds %"class.Poco::Logger", ptr %3, i32 0, i32 4, !dbg !5701
  %5 = load i32, ptr %4, align 8, !dbg !5701
  %6 = icmp sge i32 %5, 7, !dbg !5702
  ret i1 %6, !dbg !5703
}

declare ptr @_ZNK4Poco3Net19NameValueCollection5beginB5cxx11Ev(ptr noundef nonnull align 8 dereferenceable(32)) #1

declare ptr @_ZNK4Poco3Net19NameValueCollection3endB5cxx11Ev(ptr noundef nonnull align 8 dereferenceable(32)) #1

; Function Attrs: mustprogress noinline nounwind optnone uwtable
define linkonce_odr dso_local noundef zeroext i1 @_ZN9__gnu_cxxneIPKSt4pairINSt7__cxx1112basic_stringIcSt11char_traitsIcESaIcEEES7_ESt6vectorIS8_SaIS8_EEEEbRKNS_17__normal_iteratorIT_T0_EESJ_(ptr noundef nonnull align 8 dereferenceable(8) %0, ptr noundef nonnull align 8 dereferenceable(8) %1) #7 comdat !dbg !5704 {
  %3 = alloca ptr, align 8
  %4 = alloca ptr, align 8
  store ptr %0, ptr %3, align 8
  call void @llvm.dbg.declare(metadata ptr %3, metadata !5708, metadata !DIExpression()), !dbg !5709
  store ptr %1, ptr %4, align 8
  call void @llvm.dbg.declare(metadata ptr %4, metadata !5710, metadata !DIExpression()), !dbg !5711
  %5 = load ptr, ptr %3, align 8, !dbg !5712
  %6 = call noundef nonnull align 8 dereferenceable(8) ptr @_ZNK9__gnu_cxx17__normal_iteratorIPKSt4pairINSt7__cxx1112basic_stringIcSt11char_traitsIcESaIcEEES7_ESt6vectorIS8_SaIS8_EEE4baseEv(ptr noundef nonnull align 8 dereferenceable(8) %5) #3, !dbg !5713
  %7 = load ptr, ptr %6, align 8, !dbg !5713
  %8 = load ptr, ptr %4, align 8, !dbg !5714
  %9 = call noundef nonnull align 8 dereferenceable(8) ptr @_ZNK9__gnu_cxx17__normal_iteratorIPKSt4pairINSt7__cxx1112basic_stringIcSt11char_traitsIcESaIcEEES7_ESt6vectorIS8_SaIS8_EEE4baseEv(ptr noundef nonnull align 8 dereferenceable(8) %8) #3, !dbg !5715
  %10 = load ptr, ptr %9, align 8, !dbg !5715
  %11 = icmp ne ptr %7, %10, !dbg !5716
  ret i1 %11, !dbg !5717
}

; Function Attrs: mustprogress noinline nounwind optnone uwtable
define linkonce_odr dso_local noundef nonnull align 8 dereferenceable(64) ptr @_ZNK9__gnu_cxx17__normal_iteratorIPKSt4pairINSt7__cxx1112basic_stringIcSt11char_traitsIcESaIcEEES7_ESt6vectorIS8_SaIS8_EEEdeEv(ptr noundef nonnull align 8 dereferenceable(8) %0) #7 comdat align 2 !dbg !5718 {
  %2 = alloca ptr, align 8
  store ptr %0, ptr %2, align 8
  call void @llvm.dbg.declare(metadata ptr %2, metadata !5719, metadata !DIExpression()), !dbg !5721
  %3 = load ptr, ptr %2, align 8
  %4 = getelementptr inbounds %"class.__gnu_cxx::__normal_iterator", ptr %3, i32 0, i32 0, !dbg !5722
  %5 = load ptr, ptr %4, align 8, !dbg !5722
  ret ptr %5, !dbg !5723
}

; Function Attrs: mustprogress noinline optnone uwtable
define linkonce_odr dso_local void @_ZN4http6Header3setERKNSt7__cxx1112basic_stringIcSt11char_traitsIcESaIcEEES6_(ptr noundef nonnull align 8 dereferenceable(25) %0, ptr noundef nonnull align 8 dereferenceable(32) %1, ptr noundef %2) #5 comdat align 2 !dbg !5724 {
  %4 = alloca ptr, align 8
  %5 = alloca ptr, align 8
  %6 = alloca ptr, align 8
  %7 = alloca %"class.__gnu_cxx::__normal_iterator.33", align 8
  %8 = alloca %"class.__gnu_cxx::__normal_iterator.33", align 8
  %9 = alloca ptr, align 8
  store ptr %0, ptr %4, align 8
  call void @llvm.dbg.declare(metadata ptr %4, metadata !5725, metadata !DIExpression()), !dbg !5726
  store ptr %1, ptr %5, align 8
  call void @llvm.dbg.declare(metadata ptr %5, metadata !5727, metadata !DIExpression()), !dbg !5728
  call void @llvm.dbg.declare(metadata ptr %2, metadata !5729, metadata !DIExpression()), !dbg !5730
  %10 = load ptr, ptr %4, align 8
  call void @llvm.dbg.declare(metadata ptr %6, metadata !5731, metadata !DIExpression()), !dbg !5734
  %11 = getelementptr inbounds %"class.http::Header", ptr %10, i32 0, i32 0, !dbg !5735
  store ptr %11, ptr %6, align 8, !dbg !5735
  call void @llvm.dbg.declare(metadata ptr %7, metadata !5736, metadata !DIExpression()), !dbg !5734
  %12 = load ptr, ptr %6, align 8, !dbg !5737
  %13 = call ptr @_ZNSt6vectorISt4pairINSt7__cxx1112basic_stringIcSt11char_traitsIcESaIcEEES6_ESaIS7_EE5beginEv(ptr noundef nonnull align 8 dereferenceable(24) %12) #3, !dbg !5737
  %14 = getelementptr inbounds %"class.__gnu_cxx::__normal_iterator.33", ptr %7, i32 0, i32 0, !dbg !5737
  store ptr %13, ptr %14, align 8, !dbg !5737
  call void @llvm.dbg.declare(metadata ptr %8, metadata !5738, metadata !DIExpression()), !dbg !5734
  %15 = load ptr, ptr %6, align 8, !dbg !5737
  %16 = call ptr @_ZNSt6vectorISt4pairINSt7__cxx1112basic_stringIcSt11char_traitsIcESaIcEEES6_ESaIS7_EE3endEv(ptr noundef nonnull align 8 dereferenceable(24) %15) #3, !dbg !5737
  %17 = getelementptr inbounds %"class.__gnu_cxx::__normal_iterator.33", ptr %8, i32 0, i32 0, !dbg !5737
  store ptr %16, ptr %17, align 8, !dbg !5737
  br label %18, !dbg !5737

18:                                               ; preds = %30, %3
  %19 = call noundef zeroext i1 @_ZN9__gnu_cxxneIPSt4pairINSt7__cxx1112basic_stringIcSt11char_traitsIcESaIcEEES7_ESt6vectorIS8_SaIS8_EEEEbRKNS_17__normal_iteratorIT_T0_EESI_(ptr noundef nonnull align 8 dereferenceable(8) %7, ptr noundef nonnull align 8 dereferenceable(8) %8) #3, !dbg !5737
  br i1 %19, label %20, label %32, !dbg !5737

20:                                               ; preds = %18
  call void @llvm.dbg.declare(metadata ptr %9, metadata !5739, metadata !DIExpression()), !dbg !5741
  %21 = call noundef nonnull align 8 dereferenceable(64) ptr @_ZNK9__gnu_cxx17__normal_iteratorIPSt4pairINSt7__cxx1112basic_stringIcSt11char_traitsIcESaIcEEES7_ESt6vectorIS8_SaIS8_EEEdeEv(ptr noundef nonnull align 8 dereferenceable(8) %7) #3, !dbg !5742
  store ptr %21, ptr %9, align 8, !dbg !5741
  %22 = load ptr, ptr %9, align 8, !dbg !5743
  %23 = getelementptr inbounds %"struct.std::pair", ptr %22, i32 0, i32 0, !dbg !5746
  %24 = load ptr, ptr %5, align 8, !dbg !5747
  %25 = call noundef zeroext i1 @_ZSteqIcEN9__gnu_cxx11__enable_ifIXsr9__is_charIT_EE7__valueEbE6__typeERKNSt7__cxx1112basic_stringIS2_St11char_traitsIS2_ESaIS2_EEESC_(ptr noundef nonnull align 8 dereferenceable(32) %23, ptr noundef nonnull align 8 dereferenceable(32) %24) #3, !dbg !5748
  br i1 %25, label %26, label %29, !dbg !5749

26:                                               ; preds = %20
  %27 = load ptr, ptr %9, align 8, !dbg !5750
  %28 = getelementptr inbounds %"struct.std::pair", ptr %27, i32 0, i32 1, !dbg !5752
  call void @_ZNSt7__cxx1112basic_stringIcSt11char_traitsIcESaIcEE4swapERS4_(ptr noundef nonnull align 8 dereferenceable(32) %28, ptr noundef nonnull align 8 dereferenceable(32) %2) #3, !dbg !5753
  br label %36, !dbg !5754

29:                                               ; preds = %20
  br label %30, !dbg !5755

30:                                               ; preds = %29
  %31 = call noundef nonnull align 8 dereferenceable(8) ptr @_ZN9__gnu_cxx17__normal_iteratorIPSt4pairINSt7__cxx1112basic_stringIcSt11char_traitsIcESaIcEEES7_ESt6vectorIS8_SaIS8_EEEppEv(ptr noundef nonnull align 8 dereferenceable(8) %7) #3, !dbg !5737
  br label %18, !dbg !5737, !llvm.loop !5756

32:                                               ; preds = %18
  %33 = getelementptr inbounds %"class.http::Header", ptr %10, i32 0, i32 0, !dbg !5758
  %34 = load ptr, ptr %5, align 8, !dbg !5759
  %35 = call noundef nonnull align 8 dereferenceable(64) ptr @_ZNSt6vectorISt4pairINSt7__cxx1112basic_stringIcSt11char_traitsIcESaIcEEES6_ESaIS7_EE12emplace_backIJRKS6_S6_EEERS7_DpOT_(ptr noundef nonnull align 8 dereferenceable(24) %33, ptr noundef nonnull align 8 dereferenceable(32) %34, ptr noundef nonnull align 8 dereferenceable(32) %2), !dbg !5760
  br label %36, !dbg !5761

36:                                               ; preds = %32, %26
  ret void, !dbg !5761
}

; Function Attrs: mustprogress noinline optnone uwtable
define linkonce_odr dso_local void @_ZN4Util7trimmedERKNSt7__cxx1112basic_stringIcSt11char_traitsIcESaIcEEE(ptr noalias sret(%"class.std::__cxx11::basic_string") align 8 %0, ptr noundef nonnull align 8 dereferenceable(32) %1) #5 comdat !dbg !5762 {
  %3 = alloca ptr, align 8
  %4 = alloca ptr, align 8
  %5 = alloca i64, align 8
  %6 = alloca i64, align 8
  store ptr %0, ptr %3, align 8
  store ptr %1, ptr %4, align 8
  call void @llvm.dbg.declare(metadata ptr %4, metadata !5767, metadata !DIExpression()), !dbg !5768
  call void @llvm.dbg.declare(metadata ptr %5, metadata !5769, metadata !DIExpression()), !dbg !5770
  %7 = load ptr, ptr %4, align 8, !dbg !5771
  %8 = call noundef i64 @_ZNKSt7__cxx1112basic_stringIcSt11char_traitsIcESaIcEE17find_first_not_ofEcm(ptr noundef nonnull align 8 dereferenceable(32) %7, i8 noundef signext 32, i64 noundef 0) #3, !dbg !5772
  store i64 %8, ptr %5, align 8, !dbg !5770
  call void @llvm.dbg.declare(metadata ptr %6, metadata !5773, metadata !DIExpression()), !dbg !5774
  %9 = load ptr, ptr %4, align 8, !dbg !5775
  %10 = call noundef i64 @_ZNKSt7__cxx1112basic_stringIcSt11char_traitsIcESaIcEE16find_last_not_ofEcm(ptr noundef nonnull align 8 dereferenceable(32) %9, i8 noundef signext 32, i64 noundef -1) #3, !dbg !5776
  store i64 %10, ptr %6, align 8, !dbg !5774
  %11 = load i64, ptr %5, align 8, !dbg !5777
  %12 = icmp ne i64 %11, -1, !dbg !5779
  br i1 %12, label %13, label %26, !dbg !5780

13:                                               ; preds = %2
  %14 = load i64, ptr %6, align 8, !dbg !5781
  %15 = icmp ne i64 %14, -1, !dbg !5784
  br i1 %15, label %16, label %23, !dbg !5785

16:                                               ; preds = %13
  %17 = load ptr, ptr %4, align 8, !dbg !5786
  %18 = load i64, ptr %5, align 8, !dbg !5788
  %19 = load i64, ptr %6, align 8, !dbg !5789
  %20 = add i64 %19, 1, !dbg !5790
  %21 = load i64, ptr %5, align 8, !dbg !5791
  %22 = sub i64 %20, %21, !dbg !5792
  call void @_ZNKSt7__cxx1112basic_stringIcSt11char_traitsIcESaIcEE6substrEmm(ptr sret(%"class.std::__cxx11::basic_string") align 8 %0, ptr noundef nonnull align 8 dereferenceable(32) %17, i64 noundef %18, i64 noundef %22), !dbg !5793
  br label %34, !dbg !5794

23:                                               ; preds = %13
  %24 = load ptr, ptr %4, align 8, !dbg !5795
  %25 = load i64, ptr %5, align 8, !dbg !5796
  call void @_ZNKSt7__cxx1112basic_stringIcSt11char_traitsIcESaIcEE6substrEmm(ptr sret(%"class.std::__cxx11::basic_string") align 8 %0, ptr noundef nonnull align 8 dereferenceable(32) %24, i64 noundef %25, i64 noundef -1), !dbg !5797
  br label %34, !dbg !5798

26:                                               ; preds = %2
  %27 = load i64, ptr %6, align 8, !dbg !5799
  %28 = icmp ne i64 %27, -1, !dbg !5801
  br i1 %28, label %29, label %33, !dbg !5802

29:                                               ; preds = %26
  %30 = load ptr, ptr %4, align 8, !dbg !5803
  %31 = load i64, ptr %6, align 8, !dbg !5805
  %32 = add i64 %31, 1, !dbg !5806
  call void @_ZNKSt7__cxx1112basic_stringIcSt11char_traitsIcESaIcEE6substrEmm(ptr sret(%"class.std::__cxx11::basic_string") align 8 %0, ptr noundef nonnull align 8 dereferenceable(32) %30, i64 noundef 0, i64 noundef %32), !dbg !5807
  br label %34, !dbg !5808

33:                                               ; preds = %26
  call void @_ZNSt7__cxx1112basic_stringIcSt11char_traitsIcESaIcEEC1Ev(ptr noundef nonnull align 8 dereferenceable(32) %0) #3, !dbg !5809
  br label %34, !dbg !5810

34:                                               ; preds = %33, %29, %23, %16
  ret void, !dbg !5811
}

; Function Attrs: mustprogress noinline nounwind optnone uwtable
define linkonce_odr dso_local noundef nonnull align 8 dereferenceable(8) ptr @_ZN9__gnu_cxx17__normal_iteratorIPKSt4pairINSt7__cxx1112basic_stringIcSt11char_traitsIcESaIcEEES7_ESt6vectorIS8_SaIS8_EEEppEv(ptr noundef nonnull align 8 dereferenceable(8) %0) #7 comdat align 2 !dbg !5812 {
  %2 = alloca ptr, align 8
  store ptr %0, ptr %2, align 8
  call void @llvm.dbg.declare(metadata ptr %2, metadata !5813, metadata !DIExpression()), !dbg !5815
  %3 = load ptr, ptr %2, align 8
  %4 = getelementptr inbounds %"class.__gnu_cxx::__normal_iterator", ptr %3, i32 0, i32 0, !dbg !5816
  %5 = load ptr, ptr %4, align 8, !dbg !5817
  %6 = getelementptr inbounds %"struct.std::pair", ptr %5, i32 1, !dbg !5817
  store ptr %6, ptr %4, align 8, !dbg !5817
  ret ptr %3, !dbg !5818
}

; Function Attrs: mustprogress noinline nounwind optnone uwtable
define linkonce_odr dso_local noundef zeroext i1 @_ZSteqIcSt11char_traitsIcESaIcEEbRKNSt7__cxx1112basic_stringIT_T0_T1_EEPKS5_(ptr noundef nonnull align 8 dereferenceable(32) %0, ptr noundef %1) #7 comdat !dbg !5819 {
  %3 = alloca ptr, align 8
  %4 = alloca ptr, align 8
  store ptr %0, ptr %3, align 8
  call void @llvm.dbg.declare(metadata ptr %3, metadata !5824, metadata !DIExpression()), !dbg !5825
  store ptr %1, ptr %4, align 8
  call void @llvm.dbg.declare(metadata ptr %4, metadata !5826, metadata !DIExpression()), !dbg !5827
  %5 = load ptr, ptr %3, align 8, !dbg !5828
  %6 = load ptr, ptr %4, align 8, !dbg !5829
  %7 = call noundef i32 @_ZNKSt7__cxx1112basic_stringIcSt11char_traitsIcESaIcEE7compareEPKc(ptr noundef nonnull align 8 dereferenceable(32) %5, ptr noundef %6) #3, !dbg !5830
  %8 = icmp eq i32 %7, 0, !dbg !5831
  ret i1 %8, !dbg !5832
}

; Function Attrs: mustprogress noinline optnone uwtable
define linkonce_odr dso_local void @_ZNK4http6Header19getTransferEncodingB5cxx11Ev(ptr noalias sret(%"class.std::__cxx11::basic_string") align 8 %0, ptr noundef nonnull align 8 dereferenceable(25) %1) #5 comdat align 2 personality ptr @__gxx_personality_v0 !dbg !5833 {
  %3 = alloca ptr, align 8
  %4 = alloca ptr, align 8
  %5 = alloca %"class.std::__cxx11::basic_string", align 8
  %6 = alloca %"class.std::allocator.0", align 1
  %7 = alloca ptr, align 8
  %8 = alloca i32, align 4
  %9 = alloca %"class.std::__cxx11::basic_string", align 8
  store ptr %0, ptr %3, align 8
  store ptr %1, ptr %4, align 8
  call void @llvm.dbg.declare(metadata ptr %4, metadata !5834, metadata !DIExpression()), !dbg !5836
  %10 = load ptr, ptr %4, align 8
  call void @_ZNSaIcEC1Ev(ptr noundef nonnull align 1 dereferenceable(1) %6) #3, !dbg !5837
  invoke void @_ZNSt7__cxx1112basic_stringIcSt11char_traitsIcESaIcEEC2IS3_EEPKcRKS3_(ptr noundef nonnull align 8 dereferenceable(32) %5, ptr noundef @.str.50, ptr noundef nonnull align 1 dereferenceable(1) %6)
          to label %11 unwind label %13, !dbg !5837

11:                                               ; preds = %2
  call void @_ZNSt7__cxx1112basic_stringIcSt11char_traitsIcESaIcEEC1Ev(ptr noundef nonnull align 8 dereferenceable(32) %9) #3, !dbg !5838
  invoke void @_ZNK4http6Header3getERKNSt7__cxx1112basic_stringIcSt11char_traitsIcESaIcEEES8_(ptr sret(%"class.std::__cxx11::basic_string") align 8 %0, ptr noundef nonnull align 8 dereferenceable(25) %10, ptr noundef nonnull align 8 dereferenceable(32) %5, ptr noundef nonnull align 8 dereferenceable(32) %9)
          to label %12 unwind label %17, !dbg !5838

12:                                               ; preds = %11
  call void @_ZNSt7__cxx1112basic_stringIcSt11char_traitsIcESaIcEED1Ev(ptr noundef nonnull align 8 dereferenceable(32) %9) #3, !dbg !5839
  call void @_ZNSt7__cxx1112basic_stringIcSt11char_traitsIcESaIcEED1Ev(ptr noundef nonnull align 8 dereferenceable(32) %5) #3, !dbg !5839
  call void @_ZNSaIcED1Ev(ptr noundef nonnull align 1 dereferenceable(1) %6) #3, !dbg !5839
  ret void, !dbg !5839

13:                                               ; preds = %2
  %14 = landingpad { ptr, i32 }
          cleanup, !dbg !5840
  %15 = extractvalue { ptr, i32 } %14, 0, !dbg !5840
  store ptr %15, ptr %7, align 8, !dbg !5840
  %16 = extractvalue { ptr, i32 } %14, 1, !dbg !5840
  store i32 %16, ptr %8, align 4, !dbg !5840
  br label %21, !dbg !5840

17:                                               ; preds = %11
  %18 = landingpad { ptr, i32 }
          cleanup, !dbg !5840
  %19 = extractvalue { ptr, i32 } %18, 0, !dbg !5840
  store ptr %19, ptr %7, align 8, !dbg !5840
  %20 = extractvalue { ptr, i32 } %18, 1, !dbg !5840
  store i32 %20, ptr %8, align 4, !dbg !5840
  call void @_ZNSt7__cxx1112basic_stringIcSt11char_traitsIcESaIcEED1Ev(ptr noundef nonnull align 8 dereferenceable(32) %9) #3, !dbg !5839
  call void @_ZNSt7__cxx1112basic_stringIcSt11char_traitsIcESaIcEED1Ev(ptr noundef nonnull align 8 dereferenceable(32) %5) #3, !dbg !5839
  br label %21, !dbg !5839

21:                                               ; preds = %17, %13
  call void @_ZNSaIcED1Ev(ptr noundef nonnull align 1 dereferenceable(1) %6) #3, !dbg !5839
  br label %22, !dbg !5839

22:                                               ; preds = %21
  %23 = load ptr, ptr %7, align 8, !dbg !5839
  %24 = load i32, ptr %8, align 4, !dbg !5839
  %25 = insertvalue { ptr, i32 } poison, ptr %23, 0, !dbg !5839
  %26 = insertvalue { ptr, i32 } %25, i32 %24, 1, !dbg !5839
  resume { ptr, i32 } %26, !dbg !5839
}

declare noundef nonnull align 8 dereferenceable(8) ptr @_ZNSolsEb(ptr noundef nonnull align 8 dereferenceable(8), i1 noundef zeroext) #1

; Function Attrs: mustprogress noinline optnone uwtable
define linkonce_odr dso_local noundef zeroext i1 @_ZNK4http6Header16hasContentLengthEv(ptr noundef nonnull align 8 dereferenceable(25) %0) #5 comdat align 2 personality ptr @__gxx_personality_v0 !dbg !5841 {
  %2 = alloca ptr, align 8
  %3 = alloca %"class.std::__cxx11::basic_string", align 8
  %4 = alloca %"class.std::allocator.0", align 1
  %5 = alloca ptr, align 8
  %6 = alloca i32, align 4
  store ptr %0, ptr %2, align 8
  call void @llvm.dbg.declare(metadata ptr %2, metadata !5842, metadata !DIExpression()), !dbg !5843
  %7 = load ptr, ptr %2, align 8
  call void @_ZNSaIcEC1Ev(ptr noundef nonnull align 1 dereferenceable(1) %4) #3, !dbg !5844
  invoke void @_ZNSt7__cxx1112basic_stringIcSt11char_traitsIcESaIcEEC2IS3_EEPKcRKS3_(ptr noundef nonnull align 8 dereferenceable(32) %3, ptr noundef @.str.15, ptr noundef nonnull align 1 dereferenceable(1) %4)
          to label %8 unwind label %11, !dbg !5844

8:                                                ; preds = %1
  %9 = invoke noundef zeroext i1 @_ZNK4http6Header3hasERKNSt7__cxx1112basic_stringIcSt11char_traitsIcESaIcEEE(ptr noundef nonnull align 8 dereferenceable(25) %7, ptr noundef nonnull align 8 dereferenceable(32) %3)
          to label %10 unwind label %15, !dbg !5845

10:                                               ; preds = %8
  call void @_ZNSt7__cxx1112basic_stringIcSt11char_traitsIcESaIcEED1Ev(ptr noundef nonnull align 8 dereferenceable(32) %3) #3, !dbg !5846
  call void @_ZNSaIcED1Ev(ptr noundef nonnull align 1 dereferenceable(1) %4) #3, !dbg !5846
  ret i1 %9, !dbg !5846

11:                                               ; preds = %1
  %12 = landingpad { ptr, i32 }
          cleanup, !dbg !5847
  %13 = extractvalue { ptr, i32 } %12, 0, !dbg !5847
  store ptr %13, ptr %5, align 8, !dbg !5847
  %14 = extractvalue { ptr, i32 } %12, 1, !dbg !5847
  store i32 %14, ptr %6, align 4, !dbg !5847
  br label %19, !dbg !5847

15:                                               ; preds = %8
  %16 = landingpad { ptr, i32 }
          cleanup, !dbg !5847
  %17 = extractvalue { ptr, i32 } %16, 0, !dbg !5847
  store ptr %17, ptr %5, align 8, !dbg !5847
  %18 = extractvalue { ptr, i32 } %16, 1, !dbg !5847
  store i32 %18, ptr %6, align 4, !dbg !5847
  call void @_ZNSt7__cxx1112basic_stringIcSt11char_traitsIcESaIcEED1Ev(ptr noundef nonnull align 8 dereferenceable(32) %3) #3, !dbg !5846
  br label %19, !dbg !5846

19:                                               ; preds = %15, %11
  call void @_ZNSaIcED1Ev(ptr noundef nonnull align 1 dereferenceable(1) %4) #3, !dbg !5846
  br label %20, !dbg !5846

20:                                               ; preds = %19
  %21 = load ptr, ptr %5, align 8, !dbg !5846
  %22 = load i32, ptr %6, align 4, !dbg !5846
  %23 = insertvalue { ptr, i32 } poison, ptr %21, 0, !dbg !5846
  %24 = insertvalue { ptr, i32 } %23, i32 %22, 1, !dbg !5846
  resume { ptr, i32 } %24, !dbg !5846
}

; Function Attrs: mustprogress noinline optnone uwtable
define dso_local noundef i64 @_ZNK4http6Header16getContentLengthEv(ptr noundef nonnull align 8 dereferenceable(25) %0) #5 align 2 personality ptr @__gxx_personality_v0 !dbg !5848 {
  %2 = alloca i64, align 8
  %3 = alloca ptr, align 8
  %4 = alloca %"class.std::__cxx11::basic_string", align 8
  %5 = alloca %"class.std::__cxx11::basic_string", align 8
  %6 = alloca %"class.std::allocator.0", align 1
  %7 = alloca ptr, align 8
  %8 = alloca i32, align 4
  %9 = alloca %"class.std::__cxx11::basic_string", align 8
  %10 = alloca i32, align 4
  %11 = alloca ptr, align 8
  store ptr %0, ptr %3, align 8
  call void @llvm.dbg.declare(metadata ptr %3, metadata !5849, metadata !DIExpression()), !dbg !5850
  %12 = load ptr, ptr %3, align 8
  call void @llvm.dbg.declare(metadata ptr %4, metadata !5851, metadata !DIExpression()), !dbg !5852
  call void @_ZNSaIcEC1Ev(ptr noundef nonnull align 1 dereferenceable(1) %6) #3, !dbg !5853
  invoke void @_ZNSt7__cxx1112basic_stringIcSt11char_traitsIcESaIcEEC2IS3_EEPKcRKS3_(ptr noundef nonnull align 8 dereferenceable(32) %5, ptr noundef @.str.15, ptr noundef nonnull align 1 dereferenceable(1) %6)
          to label %13 unwind label %29, !dbg !5853

13:                                               ; preds = %1
  call void @_ZNSt7__cxx1112basic_stringIcSt11char_traitsIcESaIcEEC1Ev(ptr noundef nonnull align 8 dereferenceable(32) %9) #3, !dbg !5854
  invoke void @_ZNK4http6Header3getERKNSt7__cxx1112basic_stringIcSt11char_traitsIcESaIcEEES8_(ptr sret(%"class.std::__cxx11::basic_string") align 8 %4, ptr noundef nonnull align 8 dereferenceable(25) %12, ptr noundef nonnull align 8 dereferenceable(32) %5, ptr noundef nonnull align 8 dereferenceable(32) %9)
          to label %14 unwind label %33, !dbg !5854

14:                                               ; preds = %13
  call void @_ZNSt7__cxx1112basic_stringIcSt11char_traitsIcESaIcEED1Ev(ptr noundef nonnull align 8 dereferenceable(32) %9) #3, !dbg !5854
  call void @_ZNSt7__cxx1112basic_stringIcSt11char_traitsIcESaIcEED1Ev(ptr noundef nonnull align 8 dereferenceable(32) %5) #3, !dbg !5854
  call void @_ZNSaIcED1Ev(ptr noundef nonnull align 1 dereferenceable(1) %6) #3, !dbg !5854
  %15 = call noundef zeroext i1 @_ZNKSt7__cxx1112basic_stringIcSt11char_traitsIcESaIcEE5emptyEv(ptr noundef nonnull align 8 dereferenceable(32) %4) #3, !dbg !5855
  br i1 %15, label %28, label %16, !dbg !5857

16:                                               ; preds = %14
  %17 = invoke noundef nonnull align 1 dereferenceable(1) ptr @_ZNSt7__cxx1112basic_stringIcSt11char_traitsIcESaIcEEixEm(ptr noundef nonnull align 8 dereferenceable(32) %4, i64 noundef 0)
          to label %18 unwind label %38, !dbg !5858

18:                                               ; preds = %16
  %19 = load i8, ptr %17, align 1, !dbg !5858
  %20 = sext i8 %19 to i32, !dbg !5858
  %21 = icmp slt i32 %20, 48, !dbg !5859
  br i1 %21, label %28, label %22, !dbg !5860

22:                                               ; preds = %18
  %23 = invoke noundef nonnull align 1 dereferenceable(1) ptr @_ZNSt7__cxx1112basic_stringIcSt11char_traitsIcESaIcEEixEm(ptr noundef nonnull align 8 dereferenceable(32) %4, i64 noundef 0)
          to label %24 unwind label %38, !dbg !5861

24:                                               ; preds = %22
  %25 = load i8, ptr %23, align 1, !dbg !5861
  %26 = sext i8 %25 to i32, !dbg !5861
  %27 = icmp sgt i32 %26, 57, !dbg !5862
  br i1 %27, label %28, label %42, !dbg !5863

28:                                               ; preds = %24, %18, %14
  store i64 -1, ptr %2, align 8, !dbg !5864
  store i32 1, ptr %10, align 4
  br label %58, !dbg !5864

29:                                               ; preds = %1
  %30 = landingpad { ptr, i32 }
          cleanup, !dbg !5866
  %31 = extractvalue { ptr, i32 } %30, 0, !dbg !5866
  store ptr %31, ptr %7, align 8, !dbg !5866
  %32 = extractvalue { ptr, i32 } %30, 1, !dbg !5866
  store i32 %32, ptr %8, align 4, !dbg !5866
  br label %37, !dbg !5866

33:                                               ; preds = %13
  %34 = landingpad { ptr, i32 }
          cleanup, !dbg !5866
  %35 = extractvalue { ptr, i32 } %34, 0, !dbg !5866
  store ptr %35, ptr %7, align 8, !dbg !5866
  %36 = extractvalue { ptr, i32 } %34, 1, !dbg !5866
  store i32 %36, ptr %8, align 4, !dbg !5866
  call void @_ZNSt7__cxx1112basic_stringIcSt11char_traitsIcESaIcEED1Ev(ptr noundef nonnull align 8 dereferenceable(32) %9) #3, !dbg !5854
  call void @_ZNSt7__cxx1112basic_stringIcSt11char_traitsIcESaIcEED1Ev(ptr noundef nonnull align 8 dereferenceable(32) %5) #3, !dbg !5854
  br label %37, !dbg !5854

37:                                               ; preds = %33, %29
  call void @_ZNSaIcED1Ev(ptr noundef nonnull align 1 dereferenceable(1) %6) #3, !dbg !5854
  br label %61, !dbg !5854

38:                                               ; preds = %53, %22, %16
  %39 = landingpad { ptr, i32 }
          cleanup, !dbg !5867
  %40 = extractvalue { ptr, i32 } %39, 0, !dbg !5867
  store ptr %40, ptr %7, align 8, !dbg !5867
  %41 = extractvalue { ptr, i32 } %39, 1, !dbg !5867
  store i32 %41, ptr %8, align 4, !dbg !5867
  br label %60, !dbg !5867

42:                                               ; preds = %24
  %43 = invoke noundef i64 @_ZNSt7__cxx115stollERKNS_12basic_stringIcSt11char_traitsIcESaIcEEEPmi(ptr noundef nonnull align 8 dereferenceable(32) %4, ptr noundef null, i32 noundef 10)
          to label %44 unwind label %45, !dbg !5868

44:                                               ; preds = %42
  store i64 %43, ptr %2, align 8, !dbg !5870
  store i32 1, ptr %10, align 4
  br label %58, !dbg !5870

45:                                               ; preds = %42
  %46 = landingpad { ptr, i32 }
          cleanup
          catch ptr @_ZTISt12out_of_range, !dbg !5871
  %47 = extractvalue { ptr, i32 } %46, 0, !dbg !5871
  store ptr %47, ptr %7, align 8, !dbg !5871
  %48 = extractvalue { ptr, i32 } %46, 1, !dbg !5871
  store i32 %48, ptr %8, align 4, !dbg !5871
  br label %49, !dbg !5871

49:                                               ; preds = %45
  %50 = load i32, ptr %8, align 4, !dbg !5872
  %51 = call i32 @llvm.eh.typeid.for(ptr @_ZTISt12out_of_range) #3, !dbg !5872
  %52 = icmp eq i32 %50, %51, !dbg !5872
  br i1 %52, label %53, label %60, !dbg !5872

53:                                               ; preds = %49
  call void @llvm.dbg.declare(metadata ptr %11, metadata !5873, metadata !DIExpression()), !dbg !5876
  %54 = load ptr, ptr %7, align 8, !dbg !5872
  %55 = call ptr @__cxa_begin_catch(ptr %54) #3, !dbg !5872
  store ptr %55, ptr %11, align 8, !dbg !5872
  store i64 -1, ptr %2, align 8, !dbg !5877
  store i32 1, ptr %10, align 4
  invoke void @__cxa_end_catch()
          to label %56 unwind label %38, !dbg !5879

56:                                               ; preds = %53
  br label %58

57:                                               ; No predecessors!
  call void @llvm.trap(), !dbg !5879
  unreachable, !dbg !5879

58:                                               ; preds = %56, %44, %28
  call void @_ZNSt7__cxx1112basic_stringIcSt11char_traitsIcESaIcEED1Ev(ptr noundef nonnull align 8 dereferenceable(32) %4) #3, !dbg !5866
  %59 = load i64, ptr %2, align 8, !dbg !5866
  ret i64 %59, !dbg !5866

60:                                               ; preds = %49, %38
  call void @_ZNSt7__cxx1112basic_stringIcSt11char_traitsIcESaIcEED1Ev(ptr noundef nonnull align 8 dereferenceable(32) %4) #3, !dbg !5866
  br label %61, !dbg !5866

61:                                               ; preds = %60, %37
  %62 = load ptr, ptr %7, align 8, !dbg !5854
  %63 = load i32, ptr %8, align 4, !dbg !5854
  %64 = insertvalue { ptr, i32 } poison, ptr %62, 0, !dbg !5854
  %65 = insertvalue { ptr, i32 } %64, i32 %63, 1, !dbg !5854
  resume { ptr, i32 } %65, !dbg !5854
}

; Function Attrs: mustprogress noinline nounwind optnone uwtable
define linkonce_odr dso_local noundef zeroext i1 @_ZNK4http6Header26getChunkedTransferEncodingEv(ptr noundef nonnull align 8 dereferenceable(25) %0) #7 comdat align 2 !dbg !5880 {
  %2 = alloca ptr, align 8
  store ptr %0, ptr %2, align 8
  call void @llvm.dbg.declare(metadata ptr %2, metadata !5881, metadata !DIExpression()), !dbg !5882
  %3 = load ptr, ptr %2, align 8
  %4 = getelementptr inbounds %"class.http::Header", ptr %3, i32 0, i32 1, !dbg !5883
  %5 = load i8, ptr %4, align 8, !dbg !5883
  %6 = trunc i8 %5 to i1, !dbg !5883
  ret i1 %6, !dbg !5884
}

; Function Attrs: nounwind
declare void @_ZN4Poco17MemoryInputStreamD1Ev(ptr noundef nonnull align 8 dereferenceable(104)) unnamed_addr #2

; Function Attrs: nounwind
declare void @_ZN4Poco3Net13MessageHeaderD1Ev(ptr noundef nonnull align 8 dereferenceable(36)) unnamed_addr #2

; Function Attrs: nounwind memory(none)
declare i32 @llvm.eh.typeid.for(ptr) #9

declare ptr @__cxa_begin_catch(ptr)

declare void @_ZNK4Poco9Exception11displayTextB5cxx11Ev(ptr sret(%"class.std::__cxx11::basic_string") align 8, ptr noundef nonnull align 8 dereferenceable(52)) #1

declare void @__cxa_end_catch()

; Function Attrs: noinline noreturn nounwind
define linkonce_odr hidden void @__clang_call_terminate(ptr noundef %0) #10 comdat {
  %2 = call ptr @__cxa_begin_catch(ptr %0) #3
  call void @_ZSt9terminatev() #20
  unreachable
}

declare void @_ZSt9terminatev()

; Function Attrs: mustprogress noinline optnone uwtable
define linkonce_odr dso_local void @_ZNK4http6Header3getERKNSt7__cxx1112basic_stringIcSt11char_traitsIcESaIcEEES8_(ptr noalias sret(%"class.std::__cxx11::basic_string") align 8 %0, ptr noundef nonnull align 8 dereferenceable(25) %1, ptr noundef nonnull align 8 dereferenceable(32) %2, ptr noundef nonnull align 8 dereferenceable(32) %3) #5 comdat align 2 !dbg !5885 {
  %5 = alloca ptr, align 8
  %6 = alloca ptr, align 8
  %7 = alloca ptr, align 8
  %8 = alloca ptr, align 8
  %9 = alloca ptr, align 8
  %10 = alloca %"class.__gnu_cxx::__normal_iterator", align 8
  %11 = alloca %"class.__gnu_cxx::__normal_iterator", align 8
  %12 = alloca ptr, align 8
  store ptr %0, ptr %5, align 8
  store ptr %1, ptr %6, align 8
  call void @llvm.dbg.declare(metadata ptr %6, metadata !5886, metadata !DIExpression()), !dbg !5887
  store ptr %2, ptr %7, align 8
  call void @llvm.dbg.declare(metadata ptr %7, metadata !5888, metadata !DIExpression()), !dbg !5889
  store ptr %3, ptr %8, align 8
  call void @llvm.dbg.declare(metadata ptr %8, metadata !5890, metadata !DIExpression()), !dbg !5891
  %13 = load ptr, ptr %6, align 8
  call void @llvm.dbg.declare(metadata ptr %9, metadata !5892, metadata !DIExpression()), !dbg !5894
  %14 = getelementptr inbounds %"class.http::Header", ptr %13, i32 0, i32 0, !dbg !5895
  store ptr %14, ptr %9, align 8, !dbg !5895
  call void @llvm.dbg.declare(metadata ptr %10, metadata !5896, metadata !DIExpression()), !dbg !5894
  %15 = load ptr, ptr %9, align 8, !dbg !5897
  %16 = call ptr @_ZNKSt6vectorISt4pairINSt7__cxx1112basic_stringIcSt11char_traitsIcESaIcEEES6_ESaIS7_EE5beginEv(ptr noundef nonnull align 8 dereferenceable(24) %15) #3, !dbg !5897
  %17 = getelementptr inbounds %"class.__gnu_cxx::__normal_iterator", ptr %10, i32 0, i32 0, !dbg !5897
  store ptr %16, ptr %17, align 8, !dbg !5897
  call void @llvm.dbg.declare(metadata ptr %11, metadata !5898, metadata !DIExpression()), !dbg !5894
  %18 = load ptr, ptr %9, align 8, !dbg !5897
  %19 = call ptr @_ZNKSt6vectorISt4pairINSt7__cxx1112basic_stringIcSt11char_traitsIcESaIcEEES6_ESaIS7_EE3endEv(ptr noundef nonnull align 8 dereferenceable(24) %18) #3, !dbg !5897
  %20 = getelementptr inbounds %"class.__gnu_cxx::__normal_iterator", ptr %11, i32 0, i32 0, !dbg !5897
  store ptr %19, ptr %20, align 8, !dbg !5897
  br label %21, !dbg !5897

21:                                               ; preds = %33, %4
  %22 = call noundef zeroext i1 @_ZN9__gnu_cxxneIPKSt4pairINSt7__cxx1112basic_stringIcSt11char_traitsIcESaIcEEES7_ESt6vectorIS8_SaIS8_EEEEbRKNS_17__normal_iteratorIT_T0_EESJ_(ptr noundef nonnull align 8 dereferenceable(8) %10, ptr noundef nonnull align 8 dereferenceable(8) %11) #3, !dbg !5897
  br i1 %22, label %23, label %35, !dbg !5897

23:                                               ; preds = %21
  call void @llvm.dbg.declare(metadata ptr %12, metadata !5899, metadata !DIExpression()), !dbg !5901
  %24 = call noundef nonnull align 8 dereferenceable(64) ptr @_ZNK9__gnu_cxx17__normal_iteratorIPKSt4pairINSt7__cxx1112basic_stringIcSt11char_traitsIcESaIcEEES7_ESt6vectorIS8_SaIS8_EEEdeEv(ptr noundef nonnull align 8 dereferenceable(8) %10) #3, !dbg !5902
  store ptr %24, ptr %12, align 8, !dbg !5901
  %25 = load ptr, ptr %12, align 8, !dbg !5903
  %26 = getelementptr inbounds %"struct.std::pair", ptr %25, i32 0, i32 0, !dbg !5906
  %27 = load ptr, ptr %7, align 8, !dbg !5907
  %28 = call noundef zeroext i1 @_ZN4Util6iequalERKNSt7__cxx1112basic_stringIcSt11char_traitsIcESaIcEEES7_(ptr noundef nonnull align 8 dereferenceable(32) %26, ptr noundef nonnull align 8 dereferenceable(32) %27), !dbg !5908
  br i1 %28, label %29, label %32, !dbg !5909

29:                                               ; preds = %23
  %30 = load ptr, ptr %12, align 8, !dbg !5910
  %31 = getelementptr inbounds %"struct.std::pair", ptr %30, i32 0, i32 1, !dbg !5911
  call void @_ZNSt7__cxx1112basic_stringIcSt11char_traitsIcESaIcEEC1ERKS4_(ptr noundef nonnull align 8 dereferenceable(32) %0, ptr noundef nonnull align 8 dereferenceable(32) %31), !dbg !5910
  br label %37, !dbg !5912

32:                                               ; preds = %23
  br label %33, !dbg !5913

33:                                               ; preds = %32
  %34 = call noundef nonnull align 8 dereferenceable(8) ptr @_ZN9__gnu_cxx17__normal_iteratorIPKSt4pairINSt7__cxx1112basic_stringIcSt11char_traitsIcESaIcEEES7_ESt6vectorIS8_SaIS8_EEEppEv(ptr noundef nonnull align 8 dereferenceable(8) %10) #3, !dbg !5897
  br label %21, !dbg !5897, !llvm.loop !5914

35:                                               ; preds = %21
  %36 = load ptr, ptr %8, align 8, !dbg !5916
  call void @_ZNSt7__cxx1112basic_stringIcSt11char_traitsIcESaIcEEC1ERKS4_(ptr noundef nonnull align 8 dereferenceable(32) %0, ptr noundef nonnull align 8 dereferenceable(32) %36), !dbg !5916
  br label %37, !dbg !5917

37:                                               ; preds = %35, %29
  ret void, !dbg !5918
}

; Function Attrs: nounwind
declare void @_ZNSt7__cxx1112basic_stringIcSt11char_traitsIcESaIcEEC1Ev(ptr noundef nonnull align 8 dereferenceable(32)) unnamed_addr #2

; Function Attrs: nounwind
declare noundef zeroext i1 @_ZNKSt7__cxx1112basic_stringIcSt11char_traitsIcESaIcEE5emptyEv(ptr noundef nonnull align 8 dereferenceable(32)) #2

declare noundef nonnull align 1 dereferenceable(1) ptr @_ZNSt7__cxx1112basic_stringIcSt11char_traitsIcESaIcEEixEm(ptr noundef nonnull align 8 dereferenceable(32), i64 noundef) #1

; Function Attrs: mustprogress noinline optnone uwtable
define linkonce_odr dso_local noundef i64 @_ZNSt7__cxx115stollERKNS_12basic_stringIcSt11char_traitsIcESaIcEEEPmi(ptr noundef nonnull align 8 dereferenceable(32) %0, ptr noundef %1, i32 noundef %2) #5 comdat !dbg !5919 {
  %4 = alloca ptr, align 8
  %5 = alloca ptr, align 8
  %6 = alloca i32, align 4
  store ptr %0, ptr %4, align 8
  call void @llvm.dbg.declare(metadata ptr %4, metadata !5922, metadata !DIExpression()), !dbg !5923
  store ptr %1, ptr %5, align 8
  call void @llvm.dbg.declare(metadata ptr %5, metadata !5924, metadata !DIExpression()), !dbg !5925
  store i32 %2, ptr %6, align 4
  call void @llvm.dbg.declare(metadata ptr %6, metadata !5926, metadata !DIExpression()), !dbg !5927
  %7 = load ptr, ptr %4, align 8, !dbg !5928
  %8 = call noundef ptr @_ZNKSt7__cxx1112basic_stringIcSt11char_traitsIcESaIcEE5c_strEv(ptr noundef nonnull align 8 dereferenceable(32) %7) #3, !dbg !5929
  %9 = load ptr, ptr %5, align 8, !dbg !5930
  %10 = load i32, ptr %6, align 4, !dbg !5931
  %11 = call noundef i64 @_ZN9__gnu_cxx6__stoaIxxcJiEEET0_PFT_PKT1_PPS3_DpT2_EPKcS5_PmS9_(ptr noundef @strtoll, ptr noundef @.str.51, ptr noundef %8, ptr noundef %9, i32 noundef %10), !dbg !5932
  ret i64 %11, !dbg !5933
}

; Function Attrs: cold noreturn nounwind
declare void @llvm.trap() #11

; Function Attrs: mustprogress noinline optnone uwtable
define dso_local noundef i32 @_ZN4http10StatusLine5parseEPKcRl(ptr noundef nonnull align 8 dereferenceable(80) %0, ptr noundef %1, ptr noundef nonnull align 8 dereferenceable(8) %2) #5 align 2 personality ptr @__gxx_personality_v0 !dbg !5934 {
  %4 = alloca i32, align 4
  %5 = alloca ptr, align 8
  %6 = alloca ptr, align 8
  %7 = alloca ptr, align 8
  %8 = alloca i64, align 8
  %9 = alloca ptr, align 8
  %10 = alloca i32, align 4
  %11 = alloca i32, align 4
  %12 = alloca i32, align 4
  %13 = alloca i32, align 4
  %14 = alloca i32, align 4
  %15 = alloca i32, align 4
  %16 = alloca %"class.std::__cxx11::basic_string", align 8
  %17 = alloca %"class.std::allocator.0", align 1
  %18 = alloca ptr, align 8
  %19 = alloca i32, align 4
  %20 = alloca ptr, align 8
  %21 = alloca [1024 x i8], align 16
  %22 = alloca %"class.std::__cxx11::basic_ostringstream", align 8
  %23 = alloca %"class.std::__cxx11::basic_string", align 8
  %24 = alloca %"class.std::allocator.0", align 1
  %25 = alloca %"class.std::__cxx11::basic_string", align 8
  %26 = alloca %"class.std::allocator.0", align 1
  %27 = alloca %"class.Poco::Message", align 8
  %28 = alloca %"class.std::__cxx11::basic_string", align 8
  %29 = alloca %"class.std::__cxx11::basic_string", align 8
  %30 = alloca %"class.std::allocator.0", align 1
  %31 = alloca ptr, align 8
  %32 = alloca [1024 x i8], align 16
  %33 = alloca %"class.std::__cxx11::basic_ostringstream", align 8
  %34 = alloca %"class.std::__cxx11::basic_string", align 8
  %35 = alloca %"class.std::allocator.0", align 1
  %36 = alloca %"class.Poco::Message", align 8
  %37 = alloca %"class.std::__cxx11::basic_string", align 8
  %38 = alloca ptr, align 8
  %39 = alloca [1024 x i8], align 16
  %40 = alloca %"class.std::__cxx11::basic_ostringstream", align 8
  %41 = alloca %"class.std::__cxx11::basic_string", align 8
  %42 = alloca %"class.std::allocator.0", align 1
  %43 = alloca %"class.Poco::Message", align 8
  %44 = alloca %"class.std::__cxx11::basic_string", align 8
  %45 = alloca ptr, align 8
  %46 = alloca [1024 x i8], align 16
  %47 = alloca %"class.std::__cxx11::basic_ostringstream", align 8
  %48 = alloca %"class.std::__cxx11::basic_string", align 8
  %49 = alloca %"class.std::allocator.0", align 1
  %50 = alloca %"class.Poco::Message", align 8
  %51 = alloca %"class.std::__cxx11::basic_string", align 8
  %52 = alloca i64, align 8
  %53 = alloca ptr, align 8
  %54 = alloca [1024 x i8], align 16
  %55 = alloca %"class.std::__cxx11::basic_ostringstream", align 8
  %56 = alloca %"class.std::__cxx11::basic_string", align 8
  %57 = alloca %"class.std::allocator.0", align 1
  %58 = alloca %"class.Poco::Message", align 8
  %59 = alloca %"class.std::__cxx11::basic_string", align 8
  %60 = alloca i64, align 8
  %61 = alloca %"class.std::__cxx11::basic_string", align 8
  %62 = alloca %"class.std::allocator.0", align 1
  store ptr %0, ptr %5, align 8
  call void @llvm.dbg.declare(metadata ptr %5, metadata !5939, metadata !DIExpression()), !dbg !5941
  store ptr %1, ptr %6, align 8
  call void @llvm.dbg.declare(metadata ptr %6, metadata !5942, metadata !DIExpression()), !dbg !5943
  store ptr %2, ptr %7, align 8
  call void @llvm.dbg.declare(metadata ptr %7, metadata !5944, metadata !DIExpression()), !dbg !5945
  %63 = load ptr, ptr %5, align 8
  %64 = load ptr, ptr %6, align 8, !dbg !5946
  %65 = icmp eq ptr %64, null, !dbg !5948
  br i1 %65, label %70, label %66, !dbg !5949

66:                                               ; preds = %3
  %67 = load ptr, ptr %7, align 8, !dbg !5950
  %68 = load i64, ptr %67, align 8, !dbg !5950
  %69 = icmp slt i64 %68, 14, !dbg !5951
  br i1 %69, label %70, label %71, !dbg !5952

70:                                               ; preds = %66, %3
  store i32 1, ptr %4, align 4, !dbg !5953
  br label %646, !dbg !5953

71:                                               ; preds = %66
  call void @llvm.dbg.declare(metadata ptr %8, metadata !5954, metadata !DIExpression()), !dbg !5955
  %72 = load ptr, ptr %6, align 8, !dbg !5956
  %73 = load ptr, ptr %7, align 8, !dbg !5957
  %74 = load i64, ptr %73, align 8, !dbg !5957
  %75 = call noundef i64 @_ZN4httpL15skipSpaceAndTabEPKcll(ptr noundef %72, i64 noundef 0, i64 noundef %74), !dbg !5958
  store i64 %75, ptr %8, align 8, !dbg !5955
  %76 = load i64, ptr %8, align 8, !dbg !5959
  %77 = icmp sge i64 %76, 523, !dbg !5961
  br i1 %77, label %78, label %79, !dbg !5962

78:                                               ; preds = %71
  store i32 2, ptr %4, align 4, !dbg !5963
  br label %646, !dbg !5963

79:                                               ; preds = %71
  %80 = load ptr, ptr %7, align 8, !dbg !5964
  %81 = load i64, ptr %80, align 8, !dbg !5964
  %82 = load i64, ptr %8, align 8, !dbg !5966
  %83 = sub nsw i64 %81, %82, !dbg !5967
  %84 = icmp slt i64 %83, 14, !dbg !5968
  br i1 %84, label %85, label %86, !dbg !5969

85:                                               ; preds = %79
  store i32 1, ptr %4, align 4, !dbg !5970
  br label %646, !dbg !5970

86:                                               ; preds = %79
  call void @llvm.dbg.declare(metadata ptr %9, metadata !5971, metadata !DIExpression()), !dbg !5972
  %87 = load ptr, ptr %6, align 8, !dbg !5973
  %88 = load i64, ptr %8, align 8, !dbg !5974
  %89 = getelementptr inbounds i8, ptr %87, i64 %88, !dbg !5973
  store ptr %89, ptr %9, align 8, !dbg !5972
  call void @llvm.dbg.declare(metadata ptr %10, metadata !5975, metadata !DIExpression()), !dbg !5976
  store i32 5, ptr %10, align 4, !dbg !5976
  call void @llvm.dbg.declare(metadata ptr %11, metadata !5977, metadata !DIExpression()), !dbg !5978
  store i32 6, ptr %11, align 4, !dbg !5978
  call void @llvm.dbg.declare(metadata ptr %12, metadata !5979, metadata !DIExpression()), !dbg !5980
  store i32 7, ptr %12, align 4, !dbg !5980
  call void @llvm.dbg.declare(metadata ptr %13, metadata !5981, metadata !DIExpression()), !dbg !5982
  store i32 8, ptr %13, align 4, !dbg !5982
  call void @llvm.dbg.declare(metadata ptr %14, metadata !5983, metadata !DIExpression()), !dbg !5984
  %90 = load ptr, ptr %9, align 8, !dbg !5985
  %91 = getelementptr inbounds i8, ptr %90, i64 5, !dbg !5985
  %92 = load i8, ptr %91, align 1, !dbg !5985
  %93 = sext i8 %92 to i32, !dbg !5985
  %94 = sub nsw i32 %93, 48, !dbg !5986
  store i32 %94, ptr %14, align 4, !dbg !5984
  call void @llvm.dbg.declare(metadata ptr %15, metadata !5987, metadata !DIExpression()), !dbg !5988
  %95 = load ptr, ptr %9, align 8, !dbg !5989
  %96 = getelementptr inbounds i8, ptr %95, i64 7, !dbg !5989
  %97 = load i8, ptr %96, align 1, !dbg !5989
  %98 = sext i8 %97 to i32, !dbg !5989
  %99 = sub nsw i32 %98, 48, !dbg !5990
  store i32 %99, ptr %15, align 4, !dbg !5988
  %100 = load ptr, ptr %9, align 8, !dbg !5991
  call void @_ZNSaIcEC1Ev(ptr noundef nonnull align 1 dereferenceable(1) %17) #3, !dbg !5993
  invoke void @_ZNSt7__cxx1112basic_stringIcSt11char_traitsIcESaIcEEC1EPKcmRKS3_(ptr noundef nonnull align 8 dereferenceable(32) %16, ptr noundef %100, i64 noundef 8, ptr noundef nonnull align 1 dereferenceable(1) %17)
          to label %101 unwind label %176, !dbg !5993

101:                                              ; preds = %86
  %102 = invoke noundef zeroext i1 @_ZN4Util10startsWithERKNSt7__cxx1112basic_stringIcSt11char_traitsIcESaIcEEEPKc(ptr noundef nonnull align 8 dereferenceable(32) %16, ptr noundef @.str.16)
          to label %103 unwind label %180, !dbg !5994

103:                                              ; preds = %101
  br i1 %102, label %104, label %129, !dbg !5995

104:                                              ; preds = %103
  %105 = load i32, ptr %14, align 4, !dbg !5996
  %106 = icmp slt i32 %105, 0, !dbg !5997
  br i1 %106, label %129, label %107, !dbg !5998

107:                                              ; preds = %104
  %108 = load i32, ptr %14, align 4, !dbg !5999
  %109 = icmp sgt i32 %108, 9, !dbg !6000
  br i1 %109, label %129, label %110, !dbg !6001

110:                                              ; preds = %107
  %111 = load ptr, ptr %9, align 8, !dbg !6002
  %112 = getelementptr inbounds i8, ptr %111, i64 6, !dbg !6002
  %113 = load i8, ptr %112, align 1, !dbg !6002
  %114 = sext i8 %113 to i32, !dbg !6002
  %115 = icmp ne i32 %114, 46, !dbg !6003
  br i1 %115, label %129, label %116, !dbg !6004

116:                                              ; preds = %110
  %117 = load i32, ptr %15, align 4, !dbg !6005
  %118 = icmp slt i32 %117, 0, !dbg !6006
  br i1 %118, label %129, label %119, !dbg !6007

119:                                              ; preds = %116
  %120 = load i32, ptr %15, align 4, !dbg !6008
  %121 = icmp sgt i32 %120, 9, !dbg !6009
  br i1 %121, label %129, label %122, !dbg !6010

122:                                              ; preds = %119
  %123 = load ptr, ptr %9, align 8, !dbg !6011
  %124 = getelementptr inbounds i8, ptr %123, i64 8, !dbg !6011
  %125 = load i8, ptr %124, align 1, !dbg !6011
  %126 = invoke noundef zeroext i1 @_ZN4httpL12isWhitespaceEc(i8 noundef signext %125)
          to label %127 unwind label %180, !dbg !6012

127:                                              ; preds = %122
  %128 = xor i1 %126, true, !dbg !6013
  br label %129, !dbg !6010

129:                                              ; preds = %127, %119, %116, %110, %107, %104, %103
  %130 = phi i1 [ true, %119 ], [ true, %116 ], [ true, %110 ], [ true, %107 ], [ true, %104 ], [ true, %103 ], [ %128, %127 ]
  call void @_ZNSt7__cxx1112basic_stringIcSt11char_traitsIcESaIcEED1Ev(ptr noundef nonnull align 8 dereferenceable(32) %16) #3, !dbg !6014
  call void @_ZNSaIcED1Ev(ptr noundef nonnull align 1 dereferenceable(1) %17) #3, !dbg !6014
  br i1 %130, label %131, label %219, !dbg !6015

131:                                              ; preds = %129
  br label %132, !dbg !6016

132:                                              ; preds = %131
  call void @llvm.dbg.declare(metadata ptr %20, metadata !6018, metadata !DIExpression()), !dbg !6020
  %133 = call noundef nonnull align 8 dereferenceable(68) ptr @_ZN3Log6loggerEv(), !dbg !6020
  store ptr %133, ptr %20, align 8, !dbg !6020
  %134 = call noundef zeroext i1 @_ZN3Log16isShutdownCalledEv(), !dbg !6021
  br i1 %134, label %217, label %135, !dbg !6021

135:                                              ; preds = %132
  %136 = load ptr, ptr %20, align 8, !dbg !6021
  %137 = call noundef zeroext i1 @_ZNK4Poco6Logger5errorEv(ptr noundef nonnull align 8 dereferenceable(68) %136), !dbg !6021
  br i1 %137, label %138, label %217, !dbg !6020

138:                                              ; preds = %135
  call void @llvm.dbg.declare(metadata ptr %21, metadata !6023, metadata !DIExpression()), !dbg !6025
  call void @llvm.dbg.declare(metadata ptr %22, metadata !6026, metadata !DIExpression()), !dbg !6025
  %139 = getelementptr inbounds [1024 x i8], ptr %21, i64 0, i64 0, !dbg !6025
  %140 = call noundef ptr @_ZN3Log6prefixILi1023EEEPcS1_PKc(ptr noundef %139, ptr noundef @.str.17), !dbg !6025
  call void @_ZNSaIcEC1Ev(ptr noundef nonnull align 1 dereferenceable(1) %24) #3, !dbg !6025
  invoke void @_ZNSt7__cxx1112basic_stringIcSt11char_traitsIcESaIcEEC2IS3_EEPKcRKS3_(ptr noundef nonnull align 8 dereferenceable(32) %23, ptr noundef %140, ptr noundef nonnull align 1 dereferenceable(1) %24)
          to label %141 unwind label %185, !dbg !6025

141:                                              ; preds = %138
  invoke void @_ZNSt7__cxx1119basic_ostringstreamIcSt11char_traitsIcESaIcEEC1ERKNS_12basic_stringIcS2_S3_EESt13_Ios_Openmode(ptr noundef nonnull align 8 dereferenceable(112) %22, ptr noundef nonnull align 8 dereferenceable(32) %23, i32 noundef 2)
          to label %142 unwind label %189, !dbg !6025

142:                                              ; preds = %141
  call void @_ZNSt7__cxx1112basic_stringIcSt11char_traitsIcESaIcEED1Ev(ptr noundef nonnull align 8 dereferenceable(32) %23) #3, !dbg !6025
  call void @_ZNSaIcED1Ev(ptr noundef nonnull align 1 dereferenceable(1) %24) #3, !dbg !6025
  %143 = invoke noundef nonnull align 8 dereferenceable(8) ptr @_ZNSolsEPFRSt8ios_baseS0_E(ptr noundef nonnull align 8 dereferenceable(8) %22, ptr noundef @_ZSt9boolalphaRSt8ios_base)
          to label %144 unwind label %194, !dbg !6025

144:                                              ; preds = %142
  %145 = invoke noundef nonnull align 8 dereferenceable(8) ptr @_ZStlsISt11char_traitsIcEERSt13basic_ostreamIcT_ES5_PKc(ptr noundef nonnull align 8 dereferenceable(8) %143, ptr noundef @.str.18)
          to label %146 unwind label %194, !dbg !6025

146:                                              ; preds = %144
  %147 = load ptr, ptr %9, align 8, !dbg !6025
  call void @_ZNSaIcEC1Ev(ptr noundef nonnull align 1 dereferenceable(1) %26) #3, !dbg !6025
  invoke void @_ZNSt7__cxx1112basic_stringIcSt11char_traitsIcESaIcEEC1EPKcmRKS3_(ptr noundef nonnull align 8 dereferenceable(32) %25, ptr noundef %147, i64 noundef 8, ptr noundef nonnull align 1 dereferenceable(1) %26)
          to label %148 unwind label %198, !dbg !6025

148:                                              ; preds = %146
  %149 = invoke noundef nonnull align 8 dereferenceable(8) ptr @_ZStlsIcSt11char_traitsIcESaIcEERSt13basic_ostreamIT_T0_ES7_RKNSt7__cxx1112basic_stringIS4_S5_T1_EE(ptr noundef nonnull align 8 dereferenceable(8) %145, ptr noundef nonnull align 8 dereferenceable(32) %25)
          to label %150 unwind label %202, !dbg !6025

150:                                              ; preds = %148
  %151 = invoke noundef nonnull align 8 dereferenceable(8) ptr @_ZStlsISt11char_traitsIcEERSt13basic_ostreamIcT_ES5_PKc(ptr noundef nonnull align 8 dereferenceable(8) %149, ptr noundef @.str.19)
          to label %152 unwind label %202, !dbg !6025

152:                                              ; preds = %150
  call void @_ZNSt7__cxx1112basic_stringIcSt11char_traitsIcESaIcEED1Ev(ptr noundef nonnull align 8 dereferenceable(32) %25) #3, !dbg !6025
  call void @_ZNSaIcED1Ev(ptr noundef nonnull align 1 dereferenceable(1) %26) #3, !dbg !6025
  br label %153, !dbg !6025

153:                                              ; preds = %152
  %154 = invoke noundef nonnull align 8 dereferenceable(8) ptr @_ZStlsISt11char_traitsIcEERSt13basic_ostreamIcT_ES5_PKc(ptr noundef nonnull align 8 dereferenceable(8) %22, ptr noundef @.str.4)
          to label %155 unwind label %194, !dbg !6027

155:                                              ; preds = %153
  %156 = invoke noundef nonnull align 8 dereferenceable(8) ptr @_ZStlsISt11char_traitsIcEERSt13basic_ostreamIcT_ES5_PKc(ptr noundef nonnull align 8 dereferenceable(8) %154, ptr noundef @.str.5)
          to label %157 unwind label %194, !dbg !6027

157:                                              ; preds = %155
  %158 = invoke noundef nonnull align 8 dereferenceable(8) ptr @_ZStlsISt11char_traitsIcEERSt13basic_ostreamIcT_ES5_c(ptr noundef nonnull align 8 dereferenceable(8) %156, i8 noundef signext 58)
          to label %159 unwind label %194, !dbg !6027

159:                                              ; preds = %157
  %160 = invoke noundef nonnull align 8 dereferenceable(8) ptr @_ZNSolsEi(ptr noundef nonnull align 8 dereferenceable(8) %158, i32 noundef 229)
          to label %161 unwind label %194, !dbg !6027

161:                                              ; preds = %159
  %162 = invoke noundef nonnull align 8 dereferenceable(8) ptr @_ZNSo5flushEv(ptr noundef nonnull align 8 dereferenceable(8) %22)
          to label %163 unwind label %194, !dbg !6030

163:                                              ; preds = %161
  br label %164, !dbg !6030

164:                                              ; preds = %163
  br label %165, !dbg !6030

165:                                              ; preds = %164
  %166 = load ptr, ptr %20, align 8, !dbg !6025
  %167 = load ptr, ptr %20, align 8, !dbg !6025
  %168 = invoke noundef nonnull align 8 dereferenceable(32) ptr @_ZNK4Poco6Logger4nameB5cxx11Ev(ptr noundef nonnull align 8 dereferenceable(68) %167)
          to label %169 unwind label %194, !dbg !6025

169:                                              ; preds = %165
  invoke void @_ZNKSt7__cxx1119basic_ostringstreamIcSt11char_traitsIcESaIcEE3strEv(ptr sret(%"class.std::__cxx11::basic_string") align 8 %28, ptr noundef nonnull align 8 dereferenceable(112) %22)
          to label %170 unwind label %194, !dbg !6025

170:                                              ; preds = %169
  invoke void @_ZN4Poco7MessageC1ERKNSt7__cxx1112basic_stringIcSt11char_traitsIcESaIcEEES8_NS0_8PriorityE(ptr noundef nonnull align 8 dereferenceable(152) %27, ptr noundef nonnull align 8 dereferenceable(32) %168, ptr noundef nonnull align 8 dereferenceable(32) %28, i32 noundef 3)
          to label %171 unwind label %207, !dbg !6025

171:                                              ; preds = %170
  %172 = load ptr, ptr %166, align 8, !dbg !6025
  %173 = getelementptr inbounds ptr, ptr %172, i64 6, !dbg !6025
  %174 = load ptr, ptr %173, align 8, !dbg !6025
  invoke void %174(ptr noundef nonnull align 8 dereferenceable(68) %166, ptr noundef nonnull align 8 dereferenceable(152) %27)
          to label %175 unwind label %211, !dbg !6025

175:                                              ; preds = %171
  call void @_ZN4Poco7MessageD1Ev(ptr noundef nonnull align 8 dereferenceable(152) %27) #3, !dbg !6025
  call void @_ZNSt7__cxx1112basic_stringIcSt11char_traitsIcESaIcEED1Ev(ptr noundef nonnull align 8 dereferenceable(32) %28) #3, !dbg !6025
  call void @_ZNSt7__cxx1119basic_ostringstreamIcSt11char_traitsIcESaIcEED1Ev(ptr noundef nonnull align 8 dereferenceable(112) %22) #3, !dbg !6021
  br label %217, !dbg !6025

176:                                              ; preds = %86
  %177 = landingpad { ptr, i32 }
          cleanup, !dbg !6031
  %178 = extractvalue { ptr, i32 } %177, 0, !dbg !6031
  store ptr %178, ptr %18, align 8, !dbg !6031
  %179 = extractvalue { ptr, i32 } %177, 1, !dbg !6031
  store i32 %179, ptr %19, align 4, !dbg !6031
  br label %184, !dbg !6031

180:                                              ; preds = %122, %101
  %181 = landingpad { ptr, i32 }
          cleanup, !dbg !6031
  %182 = extractvalue { ptr, i32 } %181, 0, !dbg !6031
  store ptr %182, ptr %18, align 8, !dbg !6031
  %183 = extractvalue { ptr, i32 } %181, 1, !dbg !6031
  store i32 %183, ptr %19, align 4, !dbg !6031
  call void @_ZNSt7__cxx1112basic_stringIcSt11char_traitsIcESaIcEED1Ev(ptr noundef nonnull align 8 dereferenceable(32) %16) #3, !dbg !6014
  br label %184, !dbg !6014

184:                                              ; preds = %180, %176
  call void @_ZNSaIcED1Ev(ptr noundef nonnull align 1 dereferenceable(1) %17) #3, !dbg !6014
  br label %648, !dbg !6014

185:                                              ; preds = %138
  %186 = landingpad { ptr, i32 }
          cleanup, !dbg !6032
  %187 = extractvalue { ptr, i32 } %186, 0, !dbg !6032
  store ptr %187, ptr %18, align 8, !dbg !6032
  %188 = extractvalue { ptr, i32 } %186, 1, !dbg !6032
  store i32 %188, ptr %19, align 4, !dbg !6032
  br label %193, !dbg !6032

189:                                              ; preds = %141
  %190 = landingpad { ptr, i32 }
          cleanup, !dbg !6032
  %191 = extractvalue { ptr, i32 } %190, 0, !dbg !6032
  store ptr %191, ptr %18, align 8, !dbg !6032
  %192 = extractvalue { ptr, i32 } %190, 1, !dbg !6032
  store i32 %192, ptr %19, align 4, !dbg !6032
  call void @_ZNSt7__cxx1112basic_stringIcSt11char_traitsIcESaIcEED1Ev(ptr noundef nonnull align 8 dereferenceable(32) %23) #3, !dbg !6025
  br label %193, !dbg !6025

193:                                              ; preds = %189, %185
  call void @_ZNSaIcED1Ev(ptr noundef nonnull align 1 dereferenceable(1) %24) #3, !dbg !6025
  br label %648, !dbg !6025

194:                                              ; preds = %169, %165, %161, %159, %157, %155, %153, %144, %142
  %195 = landingpad { ptr, i32 }
          cleanup, !dbg !6032
  %196 = extractvalue { ptr, i32 } %195, 0, !dbg !6032
  store ptr %196, ptr %18, align 8, !dbg !6032
  %197 = extractvalue { ptr, i32 } %195, 1, !dbg !6032
  store i32 %197, ptr %19, align 4, !dbg !6032
  br label %216, !dbg !6032

198:                                              ; preds = %146
  %199 = landingpad { ptr, i32 }
          cleanup, !dbg !6032
  %200 = extractvalue { ptr, i32 } %199, 0, !dbg !6032
  store ptr %200, ptr %18, align 8, !dbg !6032
  %201 = extractvalue { ptr, i32 } %199, 1, !dbg !6032
  store i32 %201, ptr %19, align 4, !dbg !6032
  br label %206, !dbg !6032

202:                                              ; preds = %150, %148
  %203 = landingpad { ptr, i32 }
          cleanup, !dbg !6032
  %204 = extractvalue { ptr, i32 } %203, 0, !dbg !6032
  store ptr %204, ptr %18, align 8, !dbg !6032
  %205 = extractvalue { ptr, i32 } %203, 1, !dbg !6032
  store i32 %205, ptr %19, align 4, !dbg !6032
  call void @_ZNSt7__cxx1112basic_stringIcSt11char_traitsIcESaIcEED1Ev(ptr noundef nonnull align 8 dereferenceable(32) %25) #3, !dbg !6025
  br label %206, !dbg !6025

206:                                              ; preds = %202, %198
  call void @_ZNSaIcED1Ev(ptr noundef nonnull align 1 dereferenceable(1) %26) #3, !dbg !6025
  br label %216, !dbg !6025

207:                                              ; preds = %170
  %208 = landingpad { ptr, i32 }
          cleanup, !dbg !6032
  %209 = extractvalue { ptr, i32 } %208, 0, !dbg !6032
  store ptr %209, ptr %18, align 8, !dbg !6032
  %210 = extractvalue { ptr, i32 } %208, 1, !dbg !6032
  store i32 %210, ptr %19, align 4, !dbg !6032
  br label %215, !dbg !6032

211:                                              ; preds = %171
  %212 = landingpad { ptr, i32 }
          cleanup, !dbg !6032
  %213 = extractvalue { ptr, i32 } %212, 0, !dbg !6032
  store ptr %213, ptr %18, align 8, !dbg !6032
  %214 = extractvalue { ptr, i32 } %212, 1, !dbg !6032
  store i32 %214, ptr %19, align 4, !dbg !6032
  call void @_ZN4Poco7MessageD1Ev(ptr noundef nonnull align 8 dereferenceable(152) %27) #3, !dbg !6025
  br label %215, !dbg !6025

215:                                              ; preds = %211, %207
  call void @_ZNSt7__cxx1112basic_stringIcSt11char_traitsIcESaIcEED1Ev(ptr noundef nonnull align 8 dereferenceable(32) %28) #3, !dbg !6025
  br label %216, !dbg !6025

216:                                              ; preds = %215, %206, %194
  call void @_ZNSt7__cxx1119basic_ostringstreamIcSt11char_traitsIcESaIcEED1Ev(ptr noundef nonnull align 8 dereferenceable(112) %22) #3, !dbg !6021
  br label %648, !dbg !6021

217:                                              ; preds = %175, %135, %132
  br label %218, !dbg !6020

218:                                              ; preds = %217
  store i32 2, ptr %4, align 4, !dbg !6033
  br label %646, !dbg !6033

219:                                              ; preds = %129
  %220 = load ptr, ptr %9, align 8, !dbg !6034
  call void @_ZNSaIcEC1Ev(ptr noundef nonnull align 1 dereferenceable(1) %30) #3, !dbg !6035
  invoke void @_ZNSt7__cxx1112basic_stringIcSt11char_traitsIcESaIcEEC1EPKcmRKS3_(ptr noundef nonnull align 8 dereferenceable(32) %29, ptr noundef %220, i64 noundef 8, ptr noundef nonnull align 1 dereferenceable(1) %30)
          to label %221 unwind label %237, !dbg !6035

221:                                              ; preds = %219
  %222 = getelementptr inbounds %"class.http::StatusLine", ptr %63, i32 0, i32 0, !dbg !6036
  %223 = call noundef nonnull align 8 dereferenceable(32) ptr @_ZNSt7__cxx1112basic_stringIcSt11char_traitsIcESaIcEEaSEOS4_(ptr noundef nonnull align 8 dereferenceable(32) %222, ptr noundef nonnull align 8 dereferenceable(32) %29) #3, !dbg !6037
  call void @_ZNSt7__cxx1112basic_stringIcSt11char_traitsIcESaIcEED1Ev(ptr noundef nonnull align 8 dereferenceable(32) %29) #3, !dbg !6036
  call void @_ZNSaIcED1Ev(ptr noundef nonnull align 1 dereferenceable(1) %30) #3, !dbg !6036
  %224 = load i32, ptr %14, align 4, !dbg !6038
  %225 = getelementptr inbounds %"class.http::StatusLine", ptr %63, i32 0, i32 1, !dbg !6039
  store i32 %224, ptr %225, align 8, !dbg !6040
  %226 = load i32, ptr %15, align 4, !dbg !6041
  %227 = getelementptr inbounds %"class.http::StatusLine", ptr %63, i32 0, i32 2, !dbg !6042
  store i32 %226, ptr %227, align 4, !dbg !6043
  %228 = load ptr, ptr %6, align 8, !dbg !6044
  %229 = load i64, ptr %8, align 8, !dbg !6045
  %230 = add nsw i64 %229, 8, !dbg !6046
  %231 = load ptr, ptr %7, align 8, !dbg !6047
  %232 = load i64, ptr %231, align 8, !dbg !6047
  %233 = call noundef i64 @_ZN4httpL15skipSpaceAndTabEPKcll(ptr noundef %228, i64 noundef %230, i64 noundef %232), !dbg !6048
  store i64 %233, ptr %8, align 8, !dbg !6049
  %234 = load i64, ptr %8, align 8, !dbg !6050
  %235 = icmp sge i64 %234, 523, !dbg !6052
  br i1 %235, label %236, label %241, !dbg !6053

236:                                              ; preds = %221
  store i32 2, ptr %4, align 4, !dbg !6054
  br label %646, !dbg !6054

237:                                              ; preds = %219
  %238 = landingpad { ptr, i32 }
          cleanup, !dbg !6055
  %239 = extractvalue { ptr, i32 } %238, 0, !dbg !6055
  store ptr %239, ptr %18, align 8, !dbg !6055
  %240 = extractvalue { ptr, i32 } %238, 1, !dbg !6055
  store i32 %240, ptr %19, align 4, !dbg !6055
  call void @_ZNSaIcED1Ev(ptr noundef nonnull align 1 dereferenceable(1) %30) #3, !dbg !6036
  br label %648, !dbg !6036

241:                                              ; preds = %221
  %242 = load ptr, ptr %7, align 8, !dbg !6056
  %243 = load i64, ptr %242, align 8, !dbg !6056
  %244 = load i64, ptr %8, align 8, !dbg !6058
  %245 = sub nsw i64 %243, %244, !dbg !6059
  %246 = icmp slt i64 %245, 6, !dbg !6060
  br i1 %246, label %247, label %248, !dbg !6061

247:                                              ; preds = %241
  store i32 1, ptr %4, align 4, !dbg !6062
  br label %646, !dbg !6062

248:                                              ; preds = %241
  %249 = load ptr, ptr %6, align 8, !dbg !6063
  %250 = load i64, ptr %8, align 8, !dbg !6065
  %251 = getelementptr inbounds i8, ptr %249, i64 %250, !dbg !6063
  %252 = load i8, ptr %251, align 1, !dbg !6063
  %253 = sext i8 %252 to i32, !dbg !6063
  %254 = icmp slt i32 %253, 48, !dbg !6066
  br i1 %254, label %262, label %255, !dbg !6067

255:                                              ; preds = %248
  %256 = load ptr, ptr %6, align 8, !dbg !6068
  %257 = load i64, ptr %8, align 8, !dbg !6069
  %258 = getelementptr inbounds i8, ptr %256, i64 %257, !dbg !6068
  %259 = load i8, ptr %258, align 1, !dbg !6068
  %260 = sext i8 %259 to i32, !dbg !6068
  %261 = icmp sgt i32 %260, 57, !dbg !6070
  br i1 %261, label %262, label %326, !dbg !6071

262:                                              ; preds = %255, %248
  br label %263, !dbg !6072

263:                                              ; preds = %262
  call void @llvm.dbg.declare(metadata ptr %31, metadata !6074, metadata !DIExpression()), !dbg !6076
  %264 = call noundef nonnull align 8 dereferenceable(68) ptr @_ZN3Log6loggerEv(), !dbg !6076
  store ptr %264, ptr %31, align 8, !dbg !6076
  %265 = call noundef zeroext i1 @_ZN3Log16isShutdownCalledEv(), !dbg !6077
  br i1 %265, label %324, label %266, !dbg !6077

266:                                              ; preds = %263
  %267 = load ptr, ptr %31, align 8, !dbg !6077
  %268 = call noundef zeroext i1 @_ZNK4Poco6Logger5errorEv(ptr noundef nonnull align 8 dereferenceable(68) %267), !dbg !6077
  br i1 %268, label %269, label %324, !dbg !6076

269:                                              ; preds = %266
  call void @llvm.dbg.declare(metadata ptr %32, metadata !6079, metadata !DIExpression()), !dbg !6081
  call void @llvm.dbg.declare(metadata ptr %33, metadata !6082, metadata !DIExpression()), !dbg !6081
  %270 = getelementptr inbounds [1024 x i8], ptr %32, i64 0, i64 0, !dbg !6081
  %271 = call noundef ptr @_ZN3Log6prefixILi1023EEEPcS1_PKc(ptr noundef %270, ptr noundef @.str.17), !dbg !6081
  call void @_ZNSaIcEC1Ev(ptr noundef nonnull align 1 dereferenceable(1) %35) #3, !dbg !6081
  invoke void @_ZNSt7__cxx1112basic_stringIcSt11char_traitsIcESaIcEEC2IS3_EEPKcRKS3_(ptr noundef nonnull align 8 dereferenceable(32) %34, ptr noundef %271, ptr noundef nonnull align 1 dereferenceable(1) %35)
          to label %272 unwind label %301, !dbg !6081

272:                                              ; preds = %269
  invoke void @_ZNSt7__cxx1119basic_ostringstreamIcSt11char_traitsIcESaIcEEC1ERKNS_12basic_stringIcS2_S3_EESt13_Ios_Openmode(ptr noundef nonnull align 8 dereferenceable(112) %33, ptr noundef nonnull align 8 dereferenceable(32) %34, i32 noundef 2)
          to label %273 unwind label %305, !dbg !6081

273:                                              ; preds = %272
  call void @_ZNSt7__cxx1112basic_stringIcSt11char_traitsIcESaIcEED1Ev(ptr noundef nonnull align 8 dereferenceable(32) %34) #3, !dbg !6081
  call void @_ZNSaIcED1Ev(ptr noundef nonnull align 1 dereferenceable(1) %35) #3, !dbg !6081
  %274 = invoke noundef nonnull align 8 dereferenceable(8) ptr @_ZNSolsEPFRSt8ios_baseS0_E(ptr noundef nonnull align 8 dereferenceable(8) %33, ptr noundef @_ZSt9boolalphaRSt8ios_base)
          to label %275 unwind label %310, !dbg !6081

275:                                              ; preds = %273
  %276 = invoke noundef nonnull align 8 dereferenceable(8) ptr @_ZStlsISt11char_traitsIcEERSt13basic_ostreamIcT_ES5_PKc(ptr noundef nonnull align 8 dereferenceable(8) %274, ptr noundef @.str.20)
          to label %277 unwind label %310, !dbg !6081

277:                                              ; preds = %275
  br label %278, !dbg !6081

278:                                              ; preds = %277
  %279 = invoke noundef nonnull align 8 dereferenceable(8) ptr @_ZStlsISt11char_traitsIcEERSt13basic_ostreamIcT_ES5_PKc(ptr noundef nonnull align 8 dereferenceable(8) %33, ptr noundef @.str.4)
          to label %280 unwind label %310, !dbg !6083

280:                                              ; preds = %278
  %281 = invoke noundef nonnull align 8 dereferenceable(8) ptr @_ZStlsISt11char_traitsIcEERSt13basic_ostreamIcT_ES5_PKc(ptr noundef nonnull align 8 dereferenceable(8) %279, ptr noundef @.str.5)
          to label %282 unwind label %310, !dbg !6083

282:                                              ; preds = %280
  %283 = invoke noundef nonnull align 8 dereferenceable(8) ptr @_ZStlsISt11char_traitsIcEERSt13basic_ostreamIcT_ES5_c(ptr noundef nonnull align 8 dereferenceable(8) %281, i8 noundef signext 58)
          to label %284 unwind label %310, !dbg !6083

284:                                              ; preds = %282
  %285 = invoke noundef nonnull align 8 dereferenceable(8) ptr @_ZNSolsEi(ptr noundef nonnull align 8 dereferenceable(8) %283, i32 noundef 250)
          to label %286 unwind label %310, !dbg !6083

286:                                              ; preds = %284
  %287 = invoke noundef nonnull align 8 dereferenceable(8) ptr @_ZNSo5flushEv(ptr noundef nonnull align 8 dereferenceable(8) %33)
          to label %288 unwind label %310, !dbg !6086

288:                                              ; preds = %286
  br label %289, !dbg !6086

289:                                              ; preds = %288
  br label %290, !dbg !6086

290:                                              ; preds = %289
  %291 = load ptr, ptr %31, align 8, !dbg !6081
  %292 = load ptr, ptr %31, align 8, !dbg !6081
  %293 = invoke noundef nonnull align 8 dereferenceable(32) ptr @_ZNK4Poco6Logger4nameB5cxx11Ev(ptr noundef nonnull align 8 dereferenceable(68) %292)
          to label %294 unwind label %310, !dbg !6081

294:                                              ; preds = %290
  invoke void @_ZNKSt7__cxx1119basic_ostringstreamIcSt11char_traitsIcESaIcEE3strEv(ptr sret(%"class.std::__cxx11::basic_string") align 8 %37, ptr noundef nonnull align 8 dereferenceable(112) %33)
          to label %295 unwind label %310, !dbg !6081

295:                                              ; preds = %294
  invoke void @_ZN4Poco7MessageC1ERKNSt7__cxx1112basic_stringIcSt11char_traitsIcESaIcEEES8_NS0_8PriorityE(ptr noundef nonnull align 8 dereferenceable(152) %36, ptr noundef nonnull align 8 dereferenceable(32) %293, ptr noundef nonnull align 8 dereferenceable(32) %37, i32 noundef 3)
          to label %296 unwind label %314, !dbg !6081

296:                                              ; preds = %295
  %297 = load ptr, ptr %291, align 8, !dbg !6081
  %298 = getelementptr inbounds ptr, ptr %297, i64 6, !dbg !6081
  %299 = load ptr, ptr %298, align 8, !dbg !6081
  invoke void %299(ptr noundef nonnull align 8 dereferenceable(68) %291, ptr noundef nonnull align 8 dereferenceable(152) %36)
          to label %300 unwind label %318, !dbg !6081

300:                                              ; preds = %296
  call void @_ZN4Poco7MessageD1Ev(ptr noundef nonnull align 8 dereferenceable(152) %36) #3, !dbg !6081
  call void @_ZNSt7__cxx1112basic_stringIcSt11char_traitsIcESaIcEED1Ev(ptr noundef nonnull align 8 dereferenceable(32) %37) #3, !dbg !6081
  call void @_ZNSt7__cxx1119basic_ostringstreamIcSt11char_traitsIcESaIcEED1Ev(ptr noundef nonnull align 8 dereferenceable(112) %33) #3, !dbg !6077
  br label %324, !dbg !6081

301:                                              ; preds = %269
  %302 = landingpad { ptr, i32 }
          cleanup, !dbg !6087
  %303 = extractvalue { ptr, i32 } %302, 0, !dbg !6087
  store ptr %303, ptr %18, align 8, !dbg !6087
  %304 = extractvalue { ptr, i32 } %302, 1, !dbg !6087
  store i32 %304, ptr %19, align 4, !dbg !6087
  br label %309, !dbg !6087

305:                                              ; preds = %272
  %306 = landingpad { ptr, i32 }
          cleanup, !dbg !6087
  %307 = extractvalue { ptr, i32 } %306, 0, !dbg !6087
  store ptr %307, ptr %18, align 8, !dbg !6087
  %308 = extractvalue { ptr, i32 } %306, 1, !dbg !6087
  store i32 %308, ptr %19, align 4, !dbg !6087
  call void @_ZNSt7__cxx1112basic_stringIcSt11char_traitsIcESaIcEED1Ev(ptr noundef nonnull align 8 dereferenceable(32) %34) #3, !dbg !6081
  br label %309, !dbg !6081

309:                                              ; preds = %305, %301
  call void @_ZNSaIcED1Ev(ptr noundef nonnull align 1 dereferenceable(1) %35) #3, !dbg !6081
  br label %648, !dbg !6081

310:                                              ; preds = %294, %290, %286, %284, %282, %280, %278, %275, %273
  %311 = landingpad { ptr, i32 }
          cleanup, !dbg !6087
  %312 = extractvalue { ptr, i32 } %311, 0, !dbg !6087
  store ptr %312, ptr %18, align 8, !dbg !6087
  %313 = extractvalue { ptr, i32 } %311, 1, !dbg !6087
  store i32 %313, ptr %19, align 4, !dbg !6087
  br label %323, !dbg !6087

314:                                              ; preds = %295
  %315 = landingpad { ptr, i32 }
          cleanup, !dbg !6087
  %316 = extractvalue { ptr, i32 } %315, 0, !dbg !6087
  store ptr %316, ptr %18, align 8, !dbg !6087
  %317 = extractvalue { ptr, i32 } %315, 1, !dbg !6087
  store i32 %317, ptr %19, align 4, !dbg !6087
  br label %322, !dbg !6087

318:                                              ; preds = %296
  %319 = landingpad { ptr, i32 }
          cleanup, !dbg !6087
  %320 = extractvalue { ptr, i32 } %319, 0, !dbg !6087
  store ptr %320, ptr %18, align 8, !dbg !6087
  %321 = extractvalue { ptr, i32 } %319, 1, !dbg !6087
  store i32 %321, ptr %19, align 4, !dbg !6087
  call void @_ZN4Poco7MessageD1Ev(ptr noundef nonnull align 8 dereferenceable(152) %36) #3, !dbg !6081
  br label %322, !dbg !6081

322:                                              ; preds = %318, %314
  call void @_ZNSt7__cxx1112basic_stringIcSt11char_traitsIcESaIcEED1Ev(ptr noundef nonnull align 8 dereferenceable(32) %37) #3, !dbg !6081
  br label %323, !dbg !6081

323:                                              ; preds = %322, %310
  call void @_ZNSt7__cxx1119basic_ostringstreamIcSt11char_traitsIcESaIcEED1Ev(ptr noundef nonnull align 8 dereferenceable(112) %33) #3, !dbg !6077
  br label %648, !dbg !6077

324:                                              ; preds = %300, %266, %263
  br label %325, !dbg !6076

325:                                              ; preds = %324
  store i32 2, ptr %4, align 4, !dbg !6088
  br label %646, !dbg !6088

326:                                              ; preds = %255
  %327 = load ptr, ptr %6, align 8, !dbg !6089
  %328 = load i64, ptr %8, align 8, !dbg !6090
  %329 = getelementptr inbounds i8, ptr %327, i64 %328, !dbg !6089
  %330 = load ptr, ptr %7, align 8, !dbg !6091
  %331 = load i64, ptr %330, align 8, !dbg !6091
  %332 = load i64, ptr %8, align 8, !dbg !6092
  %333 = sub nsw i64 %331, %332, !dbg !6093
  %334 = trunc i64 %333 to i32, !dbg !6091
  %335 = call noundef i32 @_ZN4Util9safe_atoiEPKci(ptr noundef %329, i32 noundef %334), !dbg !6094
  %336 = getelementptr inbounds %"class.http::StatusLine", ptr %63, i32 0, i32 3, !dbg !6095
  store i32 %335, ptr %336, align 8, !dbg !6096
  %337 = getelementptr inbounds %"class.http::StatusLine", ptr %63, i32 0, i32 3, !dbg !6097
  %338 = load i32, ptr %337, align 8, !dbg !6097
  %339 = zext i32 %338 to i64, !dbg !6097
  %340 = icmp slt i64 %339, 100, !dbg !6099
  br i1 %340, label %346, label %341, !dbg !6100

341:                                              ; preds = %326
  %342 = getelementptr inbounds %"class.http::StatusLine", ptr %63, i32 0, i32 3, !dbg !6101
  %343 = load i32, ptr %342, align 8, !dbg !6101
  %344 = zext i32 %343 to i64, !dbg !6101
  %345 = icmp sgt i64 %344, 599, !dbg !6102
  br i1 %345, label %346, label %416, !dbg !6103

346:                                              ; preds = %341, %326
  br label %347, !dbg !6104

347:                                              ; preds = %346
  call void @llvm.dbg.declare(metadata ptr %38, metadata !6106, metadata !DIExpression()), !dbg !6108
  %348 = call noundef nonnull align 8 dereferenceable(68) ptr @_ZN3Log6loggerEv(), !dbg !6108
  store ptr %348, ptr %38, align 8, !dbg !6108
  %349 = call noundef zeroext i1 @_ZN3Log16isShutdownCalledEv(), !dbg !6109
  br i1 %349, label %414, label %350, !dbg !6109

350:                                              ; preds = %347
  %351 = load ptr, ptr %38, align 8, !dbg !6109
  %352 = call noundef zeroext i1 @_ZNK4Poco6Logger5errorEv(ptr noundef nonnull align 8 dereferenceable(68) %351), !dbg !6109
  br i1 %352, label %353, label %414, !dbg !6108

353:                                              ; preds = %350
  call void @llvm.dbg.declare(metadata ptr %39, metadata !6111, metadata !DIExpression()), !dbg !6113
  call void @llvm.dbg.declare(metadata ptr %40, metadata !6114, metadata !DIExpression()), !dbg !6113
  %354 = getelementptr inbounds [1024 x i8], ptr %39, i64 0, i64 0, !dbg !6113
  %355 = call noundef ptr @_ZN3Log6prefixILi1023EEEPcS1_PKc(ptr noundef %354, ptr noundef @.str.17), !dbg !6113
  call void @_ZNSaIcEC1Ev(ptr noundef nonnull align 1 dereferenceable(1) %42) #3, !dbg !6113
  invoke void @_ZNSt7__cxx1112basic_stringIcSt11char_traitsIcESaIcEEC2IS3_EEPKcRKS3_(ptr noundef nonnull align 8 dereferenceable(32) %41, ptr noundef %355, ptr noundef nonnull align 1 dereferenceable(1) %42)
          to label %356 unwind label %391, !dbg !6113

356:                                              ; preds = %353
  invoke void @_ZNSt7__cxx1119basic_ostringstreamIcSt11char_traitsIcESaIcEEC1ERKNS_12basic_stringIcS2_S3_EESt13_Ios_Openmode(ptr noundef nonnull align 8 dereferenceable(112) %40, ptr noundef nonnull align 8 dereferenceable(32) %41, i32 noundef 2)
          to label %357 unwind label %395, !dbg !6113

357:                                              ; preds = %356
  call void @_ZNSt7__cxx1112basic_stringIcSt11char_traitsIcESaIcEED1Ev(ptr noundef nonnull align 8 dereferenceable(32) %41) #3, !dbg !6113
  call void @_ZNSaIcED1Ev(ptr noundef nonnull align 1 dereferenceable(1) %42) #3, !dbg !6113
  %358 = invoke noundef nonnull align 8 dereferenceable(8) ptr @_ZNSolsEPFRSt8ios_baseS0_E(ptr noundef nonnull align 8 dereferenceable(8) %40, ptr noundef @_ZSt9boolalphaRSt8ios_base)
          to label %359 unwind label %400, !dbg !6113

359:                                              ; preds = %357
  %360 = invoke noundef nonnull align 8 dereferenceable(8) ptr @_ZStlsISt11char_traitsIcEERSt13basic_ostreamIcT_ES5_PKc(ptr noundef nonnull align 8 dereferenceable(8) %358, ptr noundef @.str.21)
          to label %361 unwind label %400, !dbg !6113

361:                                              ; preds = %359
  %362 = getelementptr inbounds %"class.http::StatusLine", ptr %63, i32 0, i32 3, !dbg !6113
  %363 = load i32, ptr %362, align 8, !dbg !6113
  %364 = invoke noundef nonnull align 8 dereferenceable(8) ptr @_ZNSolsEj(ptr noundef nonnull align 8 dereferenceable(8) %360, i32 noundef %363)
          to label %365 unwind label %400, !dbg !6113

365:                                              ; preds = %361
  %366 = invoke noundef nonnull align 8 dereferenceable(8) ptr @_ZStlsISt11char_traitsIcEERSt13basic_ostreamIcT_ES5_PKc(ptr noundef nonnull align 8 dereferenceable(8) %364, ptr noundef @.str.19)
          to label %367 unwind label %400, !dbg !6113

367:                                              ; preds = %365
  br label %368, !dbg !6113

368:                                              ; preds = %367
  %369 = invoke noundef nonnull align 8 dereferenceable(8) ptr @_ZStlsISt11char_traitsIcEERSt13basic_ostreamIcT_ES5_PKc(ptr noundef nonnull align 8 dereferenceable(8) %40, ptr noundef @.str.4)
          to label %370 unwind label %400, !dbg !6115

370:                                              ; preds = %368
  %371 = invoke noundef nonnull align 8 dereferenceable(8) ptr @_ZStlsISt11char_traitsIcEERSt13basic_ostreamIcT_ES5_PKc(ptr noundef nonnull align 8 dereferenceable(8) %369, ptr noundef @.str.5)
          to label %372 unwind label %400, !dbg !6115

372:                                              ; preds = %370
  %373 = invoke noundef nonnull align 8 dereferenceable(8) ptr @_ZStlsISt11char_traitsIcEERSt13basic_ostreamIcT_ES5_c(ptr noundef nonnull align 8 dereferenceable(8) %371, i8 noundef signext 58)
          to label %374 unwind label %400, !dbg !6115

374:                                              ; preds = %372
  %375 = invoke noundef nonnull align 8 dereferenceable(8) ptr @_ZNSolsEi(ptr noundef nonnull align 8 dereferenceable(8) %373, i32 noundef 256)
          to label %376 unwind label %400, !dbg !6115

376:                                              ; preds = %374
  %377 = invoke noundef nonnull align 8 dereferenceable(8) ptr @_ZNSo5flushEv(ptr noundef nonnull align 8 dereferenceable(8) %40)
          to label %378 unwind label %400, !dbg !6118

378:                                              ; preds = %376
  br label %379, !dbg !6118

379:                                              ; preds = %378
  br label %380, !dbg !6118

380:                                              ; preds = %379
  %381 = load ptr, ptr %38, align 8, !dbg !6113
  %382 = load ptr, ptr %38, align 8, !dbg !6113
  %383 = invoke noundef nonnull align 8 dereferenceable(32) ptr @_ZNK4Poco6Logger4nameB5cxx11Ev(ptr noundef nonnull align 8 dereferenceable(68) %382)
          to label %384 unwind label %400, !dbg !6113

384:                                              ; preds = %380
  invoke void @_ZNKSt7__cxx1119basic_ostringstreamIcSt11char_traitsIcESaIcEE3strEv(ptr sret(%"class.std::__cxx11::basic_string") align 8 %44, ptr noundef nonnull align 8 dereferenceable(112) %40)
          to label %385 unwind label %400, !dbg !6113

385:                                              ; preds = %384
  invoke void @_ZN4Poco7MessageC1ERKNSt7__cxx1112basic_stringIcSt11char_traitsIcESaIcEEES8_NS0_8PriorityE(ptr noundef nonnull align 8 dereferenceable(152) %43, ptr noundef nonnull align 8 dereferenceable(32) %383, ptr noundef nonnull align 8 dereferenceable(32) %44, i32 noundef 3)
          to label %386 unwind label %404, !dbg !6113

386:                                              ; preds = %385
  %387 = load ptr, ptr %381, align 8, !dbg !6113
  %388 = getelementptr inbounds ptr, ptr %387, i64 6, !dbg !6113
  %389 = load ptr, ptr %388, align 8, !dbg !6113
  invoke void %389(ptr noundef nonnull align 8 dereferenceable(68) %381, ptr noundef nonnull align 8 dereferenceable(152) %43)
          to label %390 unwind label %408, !dbg !6113

390:                                              ; preds = %386
  call void @_ZN4Poco7MessageD1Ev(ptr noundef nonnull align 8 dereferenceable(152) %43) #3, !dbg !6113
  call void @_ZNSt7__cxx1112basic_stringIcSt11char_traitsIcESaIcEED1Ev(ptr noundef nonnull align 8 dereferenceable(32) %44) #3, !dbg !6113
  call void @_ZNSt7__cxx1119basic_ostringstreamIcSt11char_traitsIcESaIcEED1Ev(ptr noundef nonnull align 8 dereferenceable(112) %40) #3, !dbg !6109
  br label %414, !dbg !6113

391:                                              ; preds = %353
  %392 = landingpad { ptr, i32 }
          cleanup, !dbg !6119
  %393 = extractvalue { ptr, i32 } %392, 0, !dbg !6119
  store ptr %393, ptr %18, align 8, !dbg !6119
  %394 = extractvalue { ptr, i32 } %392, 1, !dbg !6119
  store i32 %394, ptr %19, align 4, !dbg !6119
  br label %399, !dbg !6119

395:                                              ; preds = %356
  %396 = landingpad { ptr, i32 }
          cleanup, !dbg !6119
  %397 = extractvalue { ptr, i32 } %396, 0, !dbg !6119
  store ptr %397, ptr %18, align 8, !dbg !6119
  %398 = extractvalue { ptr, i32 } %396, 1, !dbg !6119
  store i32 %398, ptr %19, align 4, !dbg !6119
  call void @_ZNSt7__cxx1112basic_stringIcSt11char_traitsIcESaIcEED1Ev(ptr noundef nonnull align 8 dereferenceable(32) %41) #3, !dbg !6113
  br label %399, !dbg !6113

399:                                              ; preds = %395, %391
  call void @_ZNSaIcED1Ev(ptr noundef nonnull align 1 dereferenceable(1) %42) #3, !dbg !6113
  br label %648, !dbg !6113

400:                                              ; preds = %384, %380, %376, %374, %372, %370, %368, %365, %361, %359, %357
  %401 = landingpad { ptr, i32 }
          cleanup, !dbg !6119
  %402 = extractvalue { ptr, i32 } %401, 0, !dbg !6119
  store ptr %402, ptr %18, align 8, !dbg !6119
  %403 = extractvalue { ptr, i32 } %401, 1, !dbg !6119
  store i32 %403, ptr %19, align 4, !dbg !6119
  br label %413, !dbg !6119

404:                                              ; preds = %385
  %405 = landingpad { ptr, i32 }
          cleanup, !dbg !6119
  %406 = extractvalue { ptr, i32 } %405, 0, !dbg !6119
  store ptr %406, ptr %18, align 8, !dbg !6119
  %407 = extractvalue { ptr, i32 } %405, 1, !dbg !6119
  store i32 %407, ptr %19, align 4, !dbg !6119
  br label %412, !dbg !6119

408:                                              ; preds = %386
  %409 = landingpad { ptr, i32 }
          cleanup, !dbg !6119
  %410 = extractvalue { ptr, i32 } %409, 0, !dbg !6119
  store ptr %410, ptr %18, align 8, !dbg !6119
  %411 = extractvalue { ptr, i32 } %409, 1, !dbg !6119
  store i32 %411, ptr %19, align 4, !dbg !6119
  call void @_ZN4Poco7MessageD1Ev(ptr noundef nonnull align 8 dereferenceable(152) %43) #3, !dbg !6113
  br label %412, !dbg !6113

412:                                              ; preds = %408, %404
  call void @_ZNSt7__cxx1112basic_stringIcSt11char_traitsIcESaIcEED1Ev(ptr noundef nonnull align 8 dereferenceable(32) %44) #3, !dbg !6113
  br label %413, !dbg !6113

413:                                              ; preds = %412, %400
  call void @_ZNSt7__cxx1119basic_ostringstreamIcSt11char_traitsIcESaIcEED1Ev(ptr noundef nonnull align 8 dereferenceable(112) %40) #3, !dbg !6109
  br label %648, !dbg !6109

414:                                              ; preds = %390, %350, %347
  br label %415, !dbg !6108

415:                                              ; preds = %414
  store i32 2, ptr %4, align 4, !dbg !6120
  br label %646, !dbg !6120

416:                                              ; preds = %341
  %417 = load ptr, ptr %6, align 8, !dbg !6121
  %418 = load i64, ptr %8, align 8, !dbg !6122
  %419 = add nsw i64 %418, 3, !dbg !6123
  %420 = load ptr, ptr %7, align 8, !dbg !6124
  %421 = load i64, ptr %420, align 8, !dbg !6124
  %422 = call noundef i64 @_ZN4httpL15skipSpaceAndTabEPKcll(ptr noundef %417, i64 noundef %419, i64 noundef %421), !dbg !6125
  store i64 %422, ptr %8, align 8, !dbg !6126
  %423 = load i64, ptr %8, align 8, !dbg !6127
  %424 = icmp sge i64 %423, 523, !dbg !6129
  br i1 %424, label %425, label %492, !dbg !6130

425:                                              ; preds = %416
  br label %426, !dbg !6131

426:                                              ; preds = %425
  call void @llvm.dbg.declare(metadata ptr %45, metadata !6133, metadata !DIExpression()), !dbg !6135
  %427 = call noundef nonnull align 8 dereferenceable(68) ptr @_ZN3Log6loggerEv(), !dbg !6135
  store ptr %427, ptr %45, align 8, !dbg !6135
  %428 = call noundef zeroext i1 @_ZN3Log16isShutdownCalledEv(), !dbg !6136
  br i1 %428, label %490, label %429, !dbg !6136

429:                                              ; preds = %426
  %430 = load ptr, ptr %45, align 8, !dbg !6136
  %431 = call noundef zeroext i1 @_ZNK4Poco6Logger5errorEv(ptr noundef nonnull align 8 dereferenceable(68) %430), !dbg !6136
  br i1 %431, label %432, label %490, !dbg !6135

432:                                              ; preds = %429
  call void @llvm.dbg.declare(metadata ptr %46, metadata !6138, metadata !DIExpression()), !dbg !6140
  call void @llvm.dbg.declare(metadata ptr %47, metadata !6141, metadata !DIExpression()), !dbg !6140
  %433 = getelementptr inbounds [1024 x i8], ptr %46, i64 0, i64 0, !dbg !6140
  %434 = call noundef ptr @_ZN3Log6prefixILi1023EEEPcS1_PKc(ptr noundef %433, ptr noundef @.str.17), !dbg !6140
  call void @_ZNSaIcEC1Ev(ptr noundef nonnull align 1 dereferenceable(1) %49) #3, !dbg !6140
  invoke void @_ZNSt7__cxx1112basic_stringIcSt11char_traitsIcESaIcEEC2IS3_EEPKcRKS3_(ptr noundef nonnull align 8 dereferenceable(32) %48, ptr noundef %434, ptr noundef nonnull align 1 dereferenceable(1) %49)
          to label %435 unwind label %467, !dbg !6140

435:                                              ; preds = %432
  invoke void @_ZNSt7__cxx1119basic_ostringstreamIcSt11char_traitsIcESaIcEEC1ERKNS_12basic_stringIcS2_S3_EESt13_Ios_Openmode(ptr noundef nonnull align 8 dereferenceable(112) %47, ptr noundef nonnull align 8 dereferenceable(32) %48, i32 noundef 2)
          to label %436 unwind label %471, !dbg !6140

436:                                              ; preds = %435
  call void @_ZNSt7__cxx1112basic_stringIcSt11char_traitsIcESaIcEED1Ev(ptr noundef nonnull align 8 dereferenceable(32) %48) #3, !dbg !6140
  call void @_ZNSaIcED1Ev(ptr noundef nonnull align 1 dereferenceable(1) %49) #3, !dbg !6140
  %437 = invoke noundef nonnull align 8 dereferenceable(8) ptr @_ZNSolsEPFRSt8ios_baseS0_E(ptr noundef nonnull align 8 dereferenceable(8) %47, ptr noundef @_ZSt9boolalphaRSt8ios_base)
          to label %438 unwind label %476, !dbg !6140

438:                                              ; preds = %436
  %439 = invoke noundef nonnull align 8 dereferenceable(8) ptr @_ZStlsISt11char_traitsIcEERSt13basic_ostreamIcT_ES5_PKc(ptr noundef nonnull align 8 dereferenceable(8) %437, ptr noundef @.str.22)
          to label %440 unwind label %476, !dbg !6140

440:                                              ; preds = %438
  %441 = load i64, ptr %8, align 8, !dbg !6140
  %442 = invoke noundef nonnull align 8 dereferenceable(8) ptr @_ZNSolsEl(ptr noundef nonnull align 8 dereferenceable(8) %439, i64 noundef %441)
          to label %443 unwind label %476, !dbg !6140

443:                                              ; preds = %440
  br label %444, !dbg !6140

444:                                              ; preds = %443
  %445 = invoke noundef nonnull align 8 dereferenceable(8) ptr @_ZStlsISt11char_traitsIcEERSt13basic_ostreamIcT_ES5_PKc(ptr noundef nonnull align 8 dereferenceable(8) %47, ptr noundef @.str.4)
          to label %446 unwind label %476, !dbg !6142

446:                                              ; preds = %444
  %447 = invoke noundef nonnull align 8 dereferenceable(8) ptr @_ZStlsISt11char_traitsIcEERSt13basic_ostreamIcT_ES5_PKc(ptr noundef nonnull align 8 dereferenceable(8) %445, ptr noundef @.str.5)
          to label %448 unwind label %476, !dbg !6142

448:                                              ; preds = %446
  %449 = invoke noundef nonnull align 8 dereferenceable(8) ptr @_ZStlsISt11char_traitsIcEERSt13basic_ostreamIcT_ES5_c(ptr noundef nonnull align 8 dereferenceable(8) %447, i8 noundef signext 58)
          to label %450 unwind label %476, !dbg !6142

450:                                              ; preds = %448
  %451 = invoke noundef nonnull align 8 dereferenceable(8) ptr @_ZNSolsEi(ptr noundef nonnull align 8 dereferenceable(8) %449, i32 noundef 264)
          to label %452 unwind label %476, !dbg !6142

452:                                              ; preds = %450
  %453 = invoke noundef nonnull align 8 dereferenceable(8) ptr @_ZNSo5flushEv(ptr noundef nonnull align 8 dereferenceable(8) %47)
          to label %454 unwind label %476, !dbg !6145

454:                                              ; preds = %452
  br label %455, !dbg !6145

455:                                              ; preds = %454
  br label %456, !dbg !6145

456:                                              ; preds = %455
  %457 = load ptr, ptr %45, align 8, !dbg !6140
  %458 = load ptr, ptr %45, align 8, !dbg !6140
  %459 = invoke noundef nonnull align 8 dereferenceable(32) ptr @_ZNK4Poco6Logger4nameB5cxx11Ev(ptr noundef nonnull align 8 dereferenceable(68) %458)
          to label %460 unwind label %476, !dbg !6140

460:                                              ; preds = %456
  invoke void @_ZNKSt7__cxx1119basic_ostringstreamIcSt11char_traitsIcESaIcEE3strEv(ptr sret(%"class.std::__cxx11::basic_string") align 8 %51, ptr noundef nonnull align 8 dereferenceable(112) %47)
          to label %461 unwind label %476, !dbg !6140

461:                                              ; preds = %460
  invoke void @_ZN4Poco7MessageC1ERKNSt7__cxx1112basic_stringIcSt11char_traitsIcESaIcEEES8_NS0_8PriorityE(ptr noundef nonnull align 8 dereferenceable(152) %50, ptr noundef nonnull align 8 dereferenceable(32) %459, ptr noundef nonnull align 8 dereferenceable(32) %51, i32 noundef 3)
          to label %462 unwind label %480, !dbg !6140

462:                                              ; preds = %461
  %463 = load ptr, ptr %457, align 8, !dbg !6140
  %464 = getelementptr inbounds ptr, ptr %463, i64 6, !dbg !6140
  %465 = load ptr, ptr %464, align 8, !dbg !6140
  invoke void %465(ptr noundef nonnull align 8 dereferenceable(68) %457, ptr noundef nonnull align 8 dereferenceable(152) %50)
          to label %466 unwind label %484, !dbg !6140

466:                                              ; preds = %462
  call void @_ZN4Poco7MessageD1Ev(ptr noundef nonnull align 8 dereferenceable(152) %50) #3, !dbg !6140
  call void @_ZNSt7__cxx1112basic_stringIcSt11char_traitsIcESaIcEED1Ev(ptr noundef nonnull align 8 dereferenceable(32) %51) #3, !dbg !6140
  call void @_ZNSt7__cxx1119basic_ostringstreamIcSt11char_traitsIcESaIcEED1Ev(ptr noundef nonnull align 8 dereferenceable(112) %47) #3, !dbg !6136
  br label %490, !dbg !6140

467:                                              ; preds = %432
  %468 = landingpad { ptr, i32 }
          cleanup, !dbg !6146
  %469 = extractvalue { ptr, i32 } %468, 0, !dbg !6146
  store ptr %469, ptr %18, align 8, !dbg !6146
  %470 = extractvalue { ptr, i32 } %468, 1, !dbg !6146
  store i32 %470, ptr %19, align 4, !dbg !6146
  br label %475, !dbg !6146

471:                                              ; preds = %435
  %472 = landingpad { ptr, i32 }
          cleanup, !dbg !6146
  %473 = extractvalue { ptr, i32 } %472, 0, !dbg !6146
  store ptr %473, ptr %18, align 8, !dbg !6146
  %474 = extractvalue { ptr, i32 } %472, 1, !dbg !6146
  store i32 %474, ptr %19, align 4, !dbg !6146
  call void @_ZNSt7__cxx1112basic_stringIcSt11char_traitsIcESaIcEED1Ev(ptr noundef nonnull align 8 dereferenceable(32) %48) #3, !dbg !6140
  br label %475, !dbg !6140

475:                                              ; preds = %471, %467
  call void @_ZNSaIcED1Ev(ptr noundef nonnull align 1 dereferenceable(1) %49) #3, !dbg !6140
  br label %648, !dbg !6140

476:                                              ; preds = %460, %456, %452, %450, %448, %446, %444, %440, %438, %436
  %477 = landingpad { ptr, i32 }
          cleanup, !dbg !6146
  %478 = extractvalue { ptr, i32 } %477, 0, !dbg !6146
  store ptr %478, ptr %18, align 8, !dbg !6146
  %479 = extractvalue { ptr, i32 } %477, 1, !dbg !6146
  store i32 %479, ptr %19, align 4, !dbg !6146
  br label %489, !dbg !6146

480:                                              ; preds = %461
  %481 = landingpad { ptr, i32 }
          cleanup, !dbg !6146
  %482 = extractvalue { ptr, i32 } %481, 0, !dbg !6146
  store ptr %482, ptr %18, align 8, !dbg !6146
  %483 = extractvalue { ptr, i32 } %481, 1, !dbg !6146
  store i32 %483, ptr %19, align 4, !dbg !6146
  br label %488, !dbg !6146

484:                                              ; preds = %462
  %485 = landingpad { ptr, i32 }
          cleanup, !dbg !6146
  %486 = extractvalue { ptr, i32 } %485, 0, !dbg !6146
  store ptr %486, ptr %18, align 8, !dbg !6146
  %487 = extractvalue { ptr, i32 } %485, 1, !dbg !6146
  store i32 %487, ptr %19, align 4, !dbg !6146
  call void @_ZN4Poco7MessageD1Ev(ptr noundef nonnull align 8 dereferenceable(152) %50) #3, !dbg !6140
  br label %488, !dbg !6140

488:                                              ; preds = %484, %480
  call void @_ZNSt7__cxx1112basic_stringIcSt11char_traitsIcESaIcEED1Ev(ptr noundef nonnull align 8 dereferenceable(32) %51) #3, !dbg !6140
  br label %489, !dbg !6140

489:                                              ; preds = %488, %476
  call void @_ZNSt7__cxx1119basic_ostringstreamIcSt11char_traitsIcESaIcEED1Ev(ptr noundef nonnull align 8 dereferenceable(112) %47) #3, !dbg !6136
  br label %648, !dbg !6136

490:                                              ; preds = %466, %429, %426
  br label %491, !dbg !6135

491:                                              ; preds = %490
  store i32 2, ptr %4, align 4, !dbg !6147
  br label %646, !dbg !6147

492:                                              ; preds = %416
  call void @llvm.dbg.declare(metadata ptr %52, metadata !6148, metadata !DIExpression()), !dbg !6149
  %493 = load i64, ptr %8, align 8, !dbg !6150
  store i64 %493, ptr %52, align 8, !dbg !6149
  %494 = load ptr, ptr %6, align 8, !dbg !6151
  %495 = load i64, ptr %8, align 8, !dbg !6152
  %496 = load ptr, ptr %7, align 8, !dbg !6153
  %497 = load i64, ptr %496, align 8, !dbg !6153
  %498 = call noundef i64 @_ZN4httpL13findLineBreakEPKcll(ptr noundef %494, i64 noundef %495, i64 noundef %497), !dbg !6154
  store i64 %498, ptr %8, align 8, !dbg !6155
  %499 = load i64, ptr %8, align 8, !dbg !6156
  %500 = load ptr, ptr %7, align 8, !dbg !6158
  %501 = load i64, ptr %500, align 8, !dbg !6158
  %502 = icmp sge i64 %499, %501, !dbg !6159
  br i1 %502, label %503, label %504, !dbg !6160

503:                                              ; preds = %492
  store i32 1, ptr %4, align 4, !dbg !6161
  br label %646, !dbg !6161

504:                                              ; preds = %492
  br label %505, !dbg !6162

505:                                              ; preds = %596, %504
  %506 = load i64, ptr %8, align 8, !dbg !6163
  %507 = load ptr, ptr %7, align 8, !dbg !6166
  %508 = load i64, ptr %507, align 8, !dbg !6166
  %509 = icmp slt i64 %506, %508, !dbg !6167
  br i1 %509, label %510, label %599, !dbg !6168

510:                                              ; preds = %505
  %511 = load ptr, ptr %6, align 8, !dbg !6169
  %512 = load i64, ptr %8, align 8, !dbg !6172
  %513 = getelementptr inbounds i8, ptr %511, i64 %512, !dbg !6169
  %514 = load i8, ptr %513, align 1, !dbg !6169
  %515 = sext i8 %514 to i32, !dbg !6169
  %516 = icmp eq i32 %515, 13, !dbg !6173
  br i1 %516, label %524, label %517, !dbg !6174

517:                                              ; preds = %510
  %518 = load ptr, ptr %6, align 8, !dbg !6175
  %519 = load i64, ptr %8, align 8, !dbg !6176
  %520 = getelementptr inbounds i8, ptr %518, i64 %519, !dbg !6175
  %521 = load i8, ptr %520, align 1, !dbg !6175
  %522 = sext i8 %521 to i32, !dbg !6175
  %523 = icmp eq i32 %522, 10, !dbg !6177
  br i1 %523, label %524, label %525, !dbg !6178

524:                                              ; preds = %517, %510
  br label %599, !dbg !6179

525:                                              ; preds = %517
  %526 = load i64, ptr %8, align 8, !dbg !6180
  %527 = icmp sge i64 %526, 523, !dbg !6182
  br i1 %527, label %528, label %595, !dbg !6183

528:                                              ; preds = %525
  br label %529, !dbg !6184

529:                                              ; preds = %528
  call void @llvm.dbg.declare(metadata ptr %53, metadata !6186, metadata !DIExpression()), !dbg !6188
  %530 = call noundef nonnull align 8 dereferenceable(68) ptr @_ZN3Log6loggerEv(), !dbg !6188
  store ptr %530, ptr %53, align 8, !dbg !6188
  %531 = call noundef zeroext i1 @_ZN3Log16isShutdownCalledEv(), !dbg !6189
  br i1 %531, label %593, label %532, !dbg !6189

532:                                              ; preds = %529
  %533 = load ptr, ptr %53, align 8, !dbg !6189
