; ModuleID = 'common/Log.cpp'
source_filename = "common/Log.cpp"
target datalayout = "e-m:e-p270:32:32-p271:32:32-p272:64:64-i64:64-f80:128-n8:16:32:64-S128"
target triple = "x86_64-unknown-linux-gnu"

%"class.std::ios_base::Init" = type { i8 }
%"struct.Log::_end_marker" = type { i8 }
%"struct.Log::StaticHelper" = type <{ ptr, %"class.std::__cxx11::basic_string", %"class.std::__cxx11::basic_string", %"class.std::__cxx11::basic_string", %"struct.std::atomic.0", [7 x i8] }>
%"class.std::__cxx11::basic_string" = type { %"struct.std::__cxx11::basic_string<char>::_Alloc_hider", i64, %union.anon }
%"struct.std::__cxx11::basic_string<char>::_Alloc_hider" = type { ptr }
%union.anon = type { i64, [8 x i8] }
%"struct.std::atomic.0" = type { %"struct.std::__atomic_base.1" }
%"struct.std::__atomic_base.1" = type { i8 }
%"class.std::basic_ostream" = type { ptr, %"class.std::basic_ios" }
%"class.std::basic_ios" = type { %"class.std::ios_base", ptr, i8, i8, ptr, ptr, ptr, ptr }
%"class.std::ios_base" = type { ptr, i64, i64, i32, i32, i32, ptr, %"struct.std::ios_base::_Words", [8 x %"struct.std::ios_base::_Words"], i32, ptr, %"class.std::locale" }
%"struct.std::ios_base::_Words" = type { ptr, i64 }
%"class.std::locale" = type { ptr }
%"class.Poco::LocalDateTime" = type <{ %"class.Poco::DateTime", i32, [4 x i8] }>
%"class.Poco::DateTime" = type { i64, i16, i16, i16, i16, i16, i16, i16, i16 }
%"class.std::__cxx11::basic_ostringstream" = type { %"class.std::basic_ostream.base", %"class.std::__cxx11::basic_stringbuf", %"class.std::basic_ios" }
%"class.std::basic_ostream.base" = type { ptr }
%"class.std::__cxx11::basic_stringbuf" = type { %"class.std::basic_streambuf", i32, %"class.std::__cxx11::basic_string" }
%"class.std::basic_streambuf" = type { ptr, ptr, ptr, ptr, ptr, ptr, ptr, %"class.std::locale" }
%"struct.std::_Setw" = type { i32 }
%"struct.std::_Setfill" = type { i8 }
%"class.Poco::AutoPtr" = type { ptr }
%"class.std::allocator" = type { i8 }
%"struct.std::_Rb_tree_const_iterator" = type { ptr }
%"class.Poco::Message" = type { %"class.std::__cxx11::basic_string", %"class.std::__cxx11::basic_string", i32, %"class.Poco::Timestamp", i64, %"class.std::__cxx11::basic_string", i64, ptr, i32, ptr }
%"class.Poco::Timestamp" = type { i64 }
%"struct.std::pair" = type { %"class.std::__cxx11::basic_string", %"class.std::__cxx11::basic_string" }
%"struct.std::forward_iterator_tag" = type { i8 }
%"struct.std::random_access_iterator_tag" = type { i8 }
%"class.std::map" = type { %"class.std::_Rb_tree" }
%"class.std::_Rb_tree" = type { %"struct.std::_Rb_tree<std::__cxx11::basic_string<char>, std::pair<const std::__cxx11::basic_string<char>, std::__cxx11::basic_string<char>>, std::_Select1st<std::pair<const std::__cxx11::basic_string<char>, std::__cxx11::basic_string<char>>>, std::less<std::__cxx11::basic_string<char>>>::_Rb_tree_impl" }
%"struct.std::_Rb_tree<std::__cxx11::basic_string<char>, std::pair<const std::__cxx11::basic_string<char>, std::__cxx11::basic_string<char>>, std::_Select1st<std::pair<const std::__cxx11::basic_string<char>, std::__cxx11::basic_string<char>>>, std::less<std::__cxx11::basic_string<char>>>::_Rb_tree_impl" = type { %"struct.std::_Rb_tree_key_compare", %"struct.std::_Rb_tree_header" }
%"struct.std::_Rb_tree_key_compare" = type { %"struct.std::less" }
%"struct.std::less" = type { i8 }
%"struct.std::_Rb_tree_header" = type { %"struct.std::_Rb_tree_node_base", i64 }
%"struct.std::_Rb_tree_node_base" = type { i32, ptr, ptr, ptr }
%"class.Poco::Logger" = type <{ %"class.Poco::Channel.base", [4 x i8], %"class.std::__cxx11::basic_string", %"class.Poco::AutoPtr", i32, [4 x i8] }>
%"class.Poco::Channel.base" = type <{ %"class.Poco::Configurable", %"class.Poco::RefCountedObject.base" }>
%"class.Poco::Configurable" = type { ptr }
%"class.Poco::RefCountedObject.base" = type <{ ptr, %"class.Poco::AtomicCounter" }>
%"class.Poco::AtomicCounter" = type { %"struct.std::atomic" }
%"struct.std::atomic" = type { %"struct.std::__atomic_base" }
%"struct.std::__atomic_base" = type { i32 }
%"class.Poco::RefCountedObject" = type <{ ptr, %"class.Poco::AtomicCounter", [4 x i8] }>
%"struct.std::_Rb_tree_node" = type { %"struct.std::_Rb_tree_node_base", %"struct.__gnu_cxx::__aligned_membuf" }
%"struct.__gnu_cxx::__aligned_membuf" = type { [64 x i8] }

$_ZN3Log11_end_markerC2Ev = comdat any

$_ZN3Log12StaticHelperC2Ev = comdat any

$_ZN3Log12StaticHelperD2Ev = comdat any

$_ZNK3Log12StaticHelper9getInitedEv = comdat any

$_ZNK3Log12StaticHelper5getIdB5cxx11Ev = comdat any

$_ZN3Log14to_ascii_fixedILi6EEEvPcm = comdat any

$_ZN3Log14to_ascii_fixedILi5EEEvPcm = comdat any

$_ZN3Log14to_ascii_fixedILi4EEEvPcm = comdat any

$_ZNK4Poco13LocalDateTime4yearEv = comdat any

$_ZN3Log14to_ascii_fixedILi2EEEvPcm = comdat any

$_ZNK4Poco13LocalDateTime5monthEv = comdat any

$_ZNK4Poco13LocalDateTime3dayEv = comdat any

$_ZNK4Poco13LocalDateTime4hourEv = comdat any

$_ZNK4Poco13LocalDateTime6minuteEv = comdat any

$_ZNK4Poco13LocalDateTime6secondEv = comdat any

$_ZNK4Poco13LocalDateTime11millisecondEv = comdat any

$_ZNK4Poco13LocalDateTime11microsecondEv = comdat any

$_ZNK4Poco13LocalDateTime3tzdEv = comdat any

$_ZN3Log6prefixILi1023EEEPcS1_PKc = comdat any

$_ZN3Log12StaticHelper7setNameERKNSt7__cxx1112basic_stringIcSt11char_traitsIcESaIcEEE = comdat any

$_ZNK3Log12StaticHelper7getNameB5cxx11Ev = comdat any

$_ZSt4setwi = comdat any

$_ZSt7setfillIcESt8_SetfillIT_ES1_ = comdat any

$_ZN3Log12StaticHelper5setIdERKNSt7__cxx1112basic_stringIcSt11char_traitsIcESaIcEEE = comdat any

$_ZN4Poco7AutoPtrINS_7ChannelEEC2Ev = comdat any

$_ZNSt7__cxx1112basic_stringIcSt11char_traitsIcESaIcEEC2IS3_EEPKcRKS3_ = comdat any

$_ZN4Poco7AutoPtrINS_7ChannelEEaSEPS1_ = comdat any

$_ZNKSt3mapINSt7__cxx1112basic_stringIcSt11char_traitsIcESaIcEEES5_St4lessIS5_ESaISt4pairIKS5_S5_EEE5beginEv = comdat any

$_ZNKSt3mapINSt7__cxx1112basic_stringIcSt11char_traitsIcESaIcEEES5_St4lessIS5_ESaISt4pairIKS5_S5_EEE3endEv = comdat any

$_ZStneRKSt23_Rb_tree_const_iteratorISt4pairIKNSt7__cxx1112basic_stringIcSt11char_traitsIcESaIcEEES6_EESB_ = comdat any

$_ZNKSt23_Rb_tree_const_iteratorISt4pairIKNSt7__cxx1112basic_stringIcSt11char_traitsIcESaIcEEES6_EEdeEv = comdat any

$_ZN4Poco7AutoPtrINS_7ChannelEEptEv = comdat any

$_ZNSt23_Rb_tree_const_iteratorISt4pairIKNSt7__cxx1112basic_stringIcSt11char_traitsIcESaIcEEES6_EEppEv = comdat any

$_ZN4Poco7AutoPtrINS_7ChannelEEC2ERKS2_ = comdat any

$_ZN4Poco7AutoPtrINS_7ChannelEED2Ev = comdat any

$_ZN3Log12StaticHelper9setLoggerEPN4Poco6LoggerE = comdat any

$__clang_call_terminate = comdat any

$_ZNK3Log12StaticHelper9getLoggerEv = comdat any

$_ZN3Log12StaticHelper8setLevelERKNSt7__cxx1112basic_stringIcSt11char_traitsIcESaIcEEE = comdat any

$_ZNK4Poco6Logger8getLevelEv = comdat any

$_ZN3Log16isShutdownCalledEv = comdat any

$_ZNK4Poco6Logger11informationEv = comdat any

$_ZSt9boolalphaRSt8ios_base = comdat any

$_ZNK4Poco6Logger4nameB5cxx11Ev = comdat any

$_ZNK3Log12StaticHelper20getThreadLocalLoggerEv = comdat any

$_ZStplIcSt11char_traitsIcESaIcEENSt7__cxx1112basic_stringIT_T0_T1_EEOS8_S9_ = comdat any

$_ZStplIcSt11char_traitsIcESaIcEENSt7__cxx1112basic_stringIT_T0_T1_EERKS8_PKS5_ = comdat any

$_ZNSt7__cxx119to_stringEi = comdat any

$_ZN3Log12StaticHelper20setThreadLocalLoggerEPN4Poco6LoggerE = comdat any

$_ZNK3Log12StaticHelper8getLevelB5cxx11Ev = comdat any

$_ZNSt6atomicIbEC2Eb = comdat any

$_ZNSt13__atomic_baseIbEC2Eb = comdat any

$_ZNSt6atomicIbEaSEb = comdat any

$_ZNSt13__atomic_baseIbEaSEb = comdat any

$_ZStanSt12memory_orderSt23__memory_order_modifier = comdat any

$_ZNKSt6atomicIbEcvbEv = comdat any

$_ZNK4Poco8DateTime4yearEv = comdat any

$_ZNK4Poco8DateTime5monthEv = comdat any

$_ZNK4Poco8DateTime3dayEv = comdat any

$_ZNK4Poco8DateTime4hourEv = comdat any

$_ZNK4Poco8DateTime6minuteEv = comdat any

$_ZNK4Poco8DateTime6secondEv = comdat any

$_ZNK4Poco8DateTime11millisecondEv = comdat any

$_ZNK4Poco8DateTime11microsecondEv = comdat any

$_ZNSt8ios_base4setfESt13_Ios_Fmtflags = comdat any

$_ZStoRRSt13_Ios_FmtflagsS_ = comdat any

$_ZStorSt13_Ios_FmtflagsS_ = comdat any

$_ZNSt8__detail14__to_chars_lenIjEEjT_i = comdat any

$_ZNSt7__cxx1112basic_stringIcSt11char_traitsIcESaIcEEC2IS3_EEmcRKS3_ = comdat any

$_ZNSt8__detail18__to_chars_10_implIjEEvPcjT_ = comdat any

$_ZNSt7__cxx1112basic_stringIcSt11char_traitsIcESaIcEE12_Alloc_hiderD2Ev = comdat any

$_ZNSt11char_traitsIcE6lengthEPKc = comdat any

$_ZNSt7__cxx1112basic_stringIcSt11char_traitsIcESaIcEE12_M_constructIPKcEEvT_S8_St20forward_iterator_tag = comdat any

$_ZN9__gnu_cxx11char_traitsIcE6lengthEPKc = comdat any

$_ZN9__gnu_cxx11char_traitsIcE2eqERKcS3_ = comdat any

$_ZN9__gnu_cxx17__is_null_pointerIKcEEbPT_ = comdat any

$_ZSt8distanceIPKcENSt15iterator_traitsIT_E15difference_typeES3_S3_ = comdat any

$_ZSt10__distanceIPKcENSt15iterator_traitsIT_E15difference_typeES3_S3_St26random_access_iterator_tag = comdat any

$_ZSt19__iterator_categoryIPKcENSt15iterator_traitsIT_E17iterator_categoryERKS3_ = comdat any

$_ZNK4Poco16RefCountedObject7releaseEv = comdat any

$_ZN4Poco13AtomicCountermmEv = comdat any

$_ZNSt13__atomic_baseIiEmmEv = comdat any

$_ZN4Poco7AutoPtrINS_7ChannelEE6assignEPS1_ = comdat any

$_ZNKSt8_Rb_treeINSt7__cxx1112basic_stringIcSt11char_traitsIcESaIcEEESt4pairIKS5_S5_ESt10_Select1stIS8_ESt4lessIS5_ESaIS8_EE5beginEv = comdat any

$_ZNSt23_Rb_tree_const_iteratorISt4pairIKNSt7__cxx1112basic_stringIcSt11char_traitsIcESaIcEEES6_EEC2EPKSt18_Rb_tree_node_base = comdat any

$_ZNKSt8_Rb_treeINSt7__cxx1112basic_stringIcSt11char_traitsIcESaIcEEESt4pairIKS5_S5_ESt10_Select1stIS8_ESt4lessIS5_ESaIS8_EE3endEv = comdat any

$_ZNKSt13_Rb_tree_nodeISt4pairIKNSt7__cxx1112basic_stringIcSt11char_traitsIcESaIcEEES6_EE9_M_valptrEv = comdat any

$_ZNK9__gnu_cxx16__aligned_membufISt4pairIKNSt7__cxx1112basic_stringIcSt11char_traitsIcESaIcEEES7_EE6_M_ptrEv = comdat any

$_ZNK9__gnu_cxx16__aligned_membufISt4pairIKNSt7__cxx1112basic_stringIcSt11char_traitsIcESaIcEEES7_EE7_M_addrEv = comdat any

$_ZNK4Poco16RefCountedObject9duplicateEv = comdat any

$_ZN4Poco13AtomicCounterppEv = comdat any

$_ZNSt13__atomic_baseIiEppEv = comdat any

$_ZTWN3Log12StaticHelper18_threadLocalLoggerE = comdat any

$_ZZNSt8__detail18__to_chars_10_implIjEEvPcjT_E8__digits = comdat any

@_ZStL8__ioinit = internal global %"class.std::ios_base::Init" zeroinitializer, align 1, !dbg !0
@__dso_handle = external hidden global i8
@_ZN3LogL3endE = internal global %"struct.Log::_end_marker" zeroinitializer, align 1, !dbg !7
@_ZN3LogL6StaticE = internal global %"struct.Log::StaticHelper" zeroinitializer, align 8, !dbg !18
@_ZN3Log12StaticHelper18_threadLocalLoggerE = dso_local thread_local global ptr null, align 8, !dbg !1261
@_ZN3Log10IsShutdownE = dso_local global i8 0, align 1, !dbg !1263
@.str = private unnamed_addr constant [11 x i8] c"<shutdown>\00", align 1, !dbg !1265
@.str.3 = private unnamed_addr constant [4 x i8] c"SIG\00", align 1, !dbg !1270
@.str.4 = private unnamed_addr constant [12 x i8] c"coolwsd.log\00", align 1, !dbg !1275
@.str.5 = private unnamed_addr constant [11 x i8] c"traceColor\00", align 1, !dbg !1280
@.str.6 = private unnamed_addr constant [6 x i8] c"green\00", align 1, !dbg !1282
@.str.7 = private unnamed_addr constant [13 x i8] c"warningColor\00", align 1, !dbg !1287
@.str.8 = private unnamed_addr constant [8 x i8] c"magenta\00", align 1, !dbg !1292
@_ZTIN4Poco15ExistsExceptionE = external constant ptr
@.str.9 = private unnamed_addr constant [6 x i8] c"trace\00", align 1, !dbg !1297
@.str.10 = private unnamed_addr constant [1 x i8] zeroinitializer, align 1, !dbg !1299
@.str.11 = private unnamed_addr constant [14 x i8] c"Initializing \00", align 1, !dbg !1304
@.str.12 = private unnamed_addr constant [11 x i8] c"%a %F %T%z\00", align 1, !dbg !1309
@.str.13 = private unnamed_addr constant [14 x i8] c" Local time: \00", align 1, !dbg !1311
@.str.14 = private unnamed_addr constant [16 x i8] c" Log level is [\00", align 1, !dbg !1313
@.str.15 = private unnamed_addr constant [3 x i8] c"].\00", align 1, !dbg !1316
@.str.16 = private unnamed_addr constant [4 x i8] c"INF\00", align 1, !dbg !1321
@.str.17 = private unnamed_addr constant [3 x i8] c"| \00", align 1, !dbg !1323
@.str.18 = private unnamed_addr constant [15 x i8] c"common/Log.cpp\00", align 1, !dbg !1325
@_ZSt4cout = external global %"class.std::basic_ostream", align 8
@stdout = external global ptr, align 8
@_ZSt4cerr = external global %"class.std::basic_ostream", align 8
@stderr = external global ptr, align 8
@_ZZN3Log22setThreadLocalLogLevelERKNSt7__cxx1112basic_stringIcSt11char_traitsIcESaIcEEEE7counter = internal global i32 1, align 4, !dbg !1330
@.str.19 = private unnamed_addr constant [2 x i8] c".\00", align 1, !dbg !1810
@_ZZNSt8__detail18__to_chars_10_implIjEEvPcjT_E8__digits = linkonce_odr dso_local constant [201 x i8] c"00010203040506070809101112131415161718192021222324252627282930313233343536373839404142434445464748495051525354555657585960616263646566676869707172737475767778798081828384858687888990919293949596979899\00", comdat, align 16, !dbg !1815
@.str.20 = private unnamed_addr constant [42 x i8] c"basic_string::_M_construct null not valid\00", align 1, !dbg !1828
@_ZTIN4Poco20NullPointerExceptionE = external constant ptr
@.str.21 = private unnamed_addr constant [37 x i8] c"/usr/include/Poco/RefCountedObject.h\00", align 1, !dbg !1833
@llvm.global_ctors = appending global [1 x { i32, ptr, ptr }] [{ i32, ptr, ptr } { i32 65535, ptr @_GLOBAL__sub_I_Log.cpp, ptr null }]

; Function Attrs: noinline uwtable
define internal void @__cxx_global_var_init() #0 section ".text.startup" !dbg !2868 {
  call void @_ZNSt8ios_base4InitC1Ev(ptr noundef nonnull align 1 dereferenceable(1) @_ZStL8__ioinit), !dbg !2869
  %1 = call i32 @__cxa_atexit(ptr @_ZNSt8ios_base4InitD1Ev, ptr @_ZStL8__ioinit, ptr @__dso_handle) #3, !dbg !2871
  ret void, !dbg !2869
}

declare void @_ZNSt8ios_base4InitC1Ev(ptr noundef nonnull align 1 dereferenceable(1)) unnamed_addr #1

; Function Attrs: nounwind
declare void @_ZNSt8ios_base4InitD1Ev(ptr noundef nonnull align 1 dereferenceable(1)) unnamed_addr #2

; Function Attrs: nounwind
declare i32 @__cxa_atexit(ptr, ptr, ptr) #3

; Function Attrs: noinline uwtable
define internal void @__cxx_global_var_init.1() #0 section ".text.startup" !dbg !2872 {
  call void @_ZN3Log11_end_markerC2Ev(ptr noundef nonnull align 1 dereferenceable(1) @_ZN3LogL3endE), !dbg !2873
  ret void, !dbg !2873
}

; Function Attrs: noinline nounwind optnone uwtable
define linkonce_odr dso_local void @_ZN3Log11_end_markerC2Ev(ptr noundef nonnull align 1 dereferenceable(1) %0) unnamed_addr #4 comdat align 2 !dbg !2875 {
  %2 = alloca ptr, align 8
  store ptr %0, ptr %2, align 8
  call void @llvm.dbg.declare(metadata ptr %2, metadata !2876, metadata !DIExpression()), !dbg !2878
  %3 = load ptr, ptr %2, align 8
  ret void, !dbg !2879
}

; Function Attrs: noinline uwtable
define internal void @__cxx_global_var_init.2() #0 section ".text.startup" !dbg !2880 {
  call void @_ZN3Log12StaticHelperC2Ev(ptr noundef nonnull align 8 dereferenceable(105) @_ZN3LogL6StaticE), !dbg !2881
  %1 = call i32 @__cxa_atexit(ptr @_ZN3Log12StaticHelperD2Ev, ptr @_ZN3LogL6StaticE, ptr @__dso_handle) #3, !dbg !2883
  ret void, !dbg !2881
}

; Function Attrs: noinline nounwind optnone uwtable
define linkonce_odr dso_local void @_ZN3Log12StaticHelperC2Ev(ptr noundef nonnull align 8 dereferenceable(105) %0) unnamed_addr #4 comdat align 2 !dbg !2884 {
  %2 = alloca ptr, align 8
  store ptr %0, ptr %2, align 8
  call void @llvm.dbg.declare(metadata ptr %2, metadata !2885, metadata !DIExpression()), !dbg !2887
  %3 = load ptr, ptr %2, align 8
  %4 = getelementptr inbounds %"struct.Log::StaticHelper", ptr %3, i32 0, i32 0, !dbg !2888
  store ptr null, ptr %4, align 8, !dbg !2888
  %5 = getelementptr inbounds %"struct.Log::StaticHelper", ptr %3, i32 0, i32 1, !dbg !2889
  call void @_ZNSt7__cxx1112basic_stringIcSt11char_traitsIcESaIcEEC1Ev(ptr noundef nonnull align 8 dereferenceable(32) %5) #3, !dbg !2889
  %6 = getelementptr inbounds %"struct.Log::StaticHelper", ptr %3, i32 0, i32 2, !dbg !2889
  call void @_ZNSt7__cxx1112basic_stringIcSt11char_traitsIcESaIcEEC1Ev(ptr noundef nonnull align 8 dereferenceable(32) %6) #3, !dbg !2889
  %7 = getelementptr inbounds %"struct.Log::StaticHelper", ptr %3, i32 0, i32 3, !dbg !2889
  call void @_ZNSt7__cxx1112basic_stringIcSt11char_traitsIcESaIcEEC1Ev(ptr noundef nonnull align 8 dereferenceable(32) %7) #3, !dbg !2889
  %8 = getelementptr inbounds %"struct.Log::StaticHelper", ptr %3, i32 0, i32 4, !dbg !2890
  call void @_ZNSt6atomicIbEC2Eb(ptr noundef nonnull align 1 dereferenceable(1) %8, i1 noundef zeroext true) #3, !dbg !2890
  ret void, !dbg !2891
}

; Function Attrs: noinline nounwind optnone uwtable
define linkonce_odr dso_local void @_ZN3Log12StaticHelperD2Ev(ptr noundef nonnull align 8 dereferenceable(105) %0) unnamed_addr #4 comdat align 2 !dbg !2892 {
  %2 = alloca ptr, align 8
  store ptr %0, ptr %2, align 8
  call void @llvm.dbg.declare(metadata ptr %2, metadata !2893, metadata !DIExpression()), !dbg !2894
  %3 = load ptr, ptr %2, align 8
  %4 = getelementptr inbounds %"struct.Log::StaticHelper", ptr %3, i32 0, i32 4, !dbg !2895
  %5 = call noundef zeroext i1 @_ZNSt6atomicIbEaSEb(ptr noundef nonnull align 1 dereferenceable(1) %4, i1 noundef zeroext false) #3, !dbg !2897
  %6 = getelementptr inbounds %"struct.Log::StaticHelper", ptr %3, i32 0, i32 3, !dbg !2898
  call void @_ZNSt7__cxx1112basic_stringIcSt11char_traitsIcESaIcEED1Ev(ptr noundef nonnull align 8 dereferenceable(32) %6) #3, !dbg !2898
  %7 = getelementptr inbounds %"struct.Log::StaticHelper", ptr %3, i32 0, i32 2, !dbg !2898
  call void @_ZNSt7__cxx1112basic_stringIcSt11char_traitsIcESaIcEED1Ev(ptr noundef nonnull align 8 dereferenceable(32) %7) #3, !dbg !2898
  %8 = getelementptr inbounds %"struct.Log::StaticHelper", ptr %3, i32 0, i32 1, !dbg !2898
  call void @_ZNSt7__cxx1112basic_stringIcSt11char_traitsIcESaIcEED1Ev(ptr noundef nonnull align 8 dereferenceable(32) %8) #3, !dbg !2898
  ret void, !dbg !2899
}

; Function Attrs: mustprogress noinline optnone uwtable
define dso_local void @_ZN3Log9signalLogEPKc(ptr noundef %0) #5 !dbg !2900 {
  %2 = alloca ptr, align 8
  %3 = alloca i32, align 4
  %4 = alloca i32, align 4
  store ptr %0, ptr %2, align 8
  call void @llvm.dbg.declare(metadata ptr %2, metadata !2901, metadata !DIExpression()), !dbg !2902
  br label %5, !dbg !2903

5:                                                ; preds = %1, %20, %33
  call void @llvm.dbg.declare(metadata ptr %3, metadata !2904, metadata !DIExpression()), !dbg !2906
  %6 = load ptr, ptr %2, align 8, !dbg !2907
  %7 = call i64 @strlen(ptr noundef %6) #17, !dbg !2908
  %8 = trunc i64 %7 to i32, !dbg !2908
  store i32 %8, ptr %3, align 4, !dbg !2906
  call void @llvm.dbg.declare(metadata ptr %4, metadata !2909, metadata !DIExpression()), !dbg !2910
  %9 = load ptr, ptr %2, align 8, !dbg !2911
  %10 = load i32, ptr %3, align 4, !dbg !2912
  %11 = sext i32 %10 to i64, !dbg !2912
  %12 = call i64 @write(i32 noundef 2, ptr noundef %9, i64 noundef %11), !dbg !2913
  %13 = trunc i64 %12 to i32, !dbg !2913
  store i32 %13, ptr %4, align 4, !dbg !2910
  %14 = load i32, ptr %4, align 4, !dbg !2914
  %15 = icmp slt i32 %14, 0, !dbg !2916
  br i1 %15, label %16, label %22, !dbg !2917

16:                                               ; preds = %5
  %17 = call ptr @__errno_location() #18, !dbg !2918
  %18 = load i32, ptr %17, align 4, !dbg !2918
  %19 = icmp eq i32 %18, 4, !dbg !2921
  br i1 %19, label %20, label %21, !dbg !2922

20:                                               ; preds = %16
  br label %5, !dbg !2923, !llvm.loop !2924

21:                                               ; preds = %16
  br label %34, !dbg !2927

22:                                               ; preds = %5
  %23 = load i32, ptr %4, align 4, !dbg !2928
  %24 = load ptr, ptr %2, align 8, !dbg !2929
  %25 = sext i32 %23 to i64, !dbg !2929
  %26 = getelementptr inbounds i8, ptr %24, i64 %25, !dbg !2929
  store ptr %26, ptr %2, align 8, !dbg !2929
  %27 = load ptr, ptr %2, align 8, !dbg !2930
  %28 = getelementptr inbounds i8, ptr %27, i64 0, !dbg !2930
  %29 = load i8, ptr %28, align 1, !dbg !2930
  %30 = sext i8 %29 to i32, !dbg !2930
  %31 = icmp eq i32 %30, 0, !dbg !2932
  br i1 %31, label %32, label %33, !dbg !2933

32:                                               ; preds = %22
  br label %34, !dbg !2934

33:                                               ; preds = %22
  br label %5, !dbg !2903, !llvm.loop !2924

34:                                               ; preds = %32, %21
  ret void, !dbg !2935
}

; Function Attrs: nocallback nofree nosync nounwind speculatable willreturn memory(none)
declare void @llvm.dbg.declare(metadata, metadata, metadata) #6

; Function Attrs: nounwind willreturn memory(read)
declare i64 @strlen(ptr noundef) #7

declare i64 @write(i32 noundef, ptr noundef, i64 noundef) #1

; Function Attrs: nounwind willreturn memory(none)
declare ptr @__errno_location() #8

; Function Attrs: mustprogress noinline optnone uwtable
define dso_local void @_ZN3Log15signalLogNumberEm(i64 noundef %0) #5 !dbg !2936 {
  %2 = alloca i64, align 8
  %3 = alloca i32, align 4
  %4 = alloca [22 x i8], align 16
  store i64 %0, ptr %2, align 8
  call void @llvm.dbg.declare(metadata ptr %2, metadata !2939, metadata !DIExpression()), !dbg !2940
  call void @llvm.dbg.declare(metadata ptr %3, metadata !2941, metadata !DIExpression()), !dbg !2942
  call void @llvm.dbg.declare(metadata ptr %4, metadata !2943, metadata !DIExpression()), !dbg !2947
  %5 = getelementptr inbounds [22 x i8], ptr %4, i64 0, i64 21, !dbg !2948
  store i8 0, ptr %5, align 1, !dbg !2949
  store i32 20, ptr %3, align 4, !dbg !2950
  br label %6, !dbg !2952

6:                                                ; preds = %24, %1
  %7 = load i32, ptr %3, align 4, !dbg !2953
  %8 = icmp sgt i32 %7, 0, !dbg !2955
  br i1 %8, label %9, label %12, !dbg !2956

9:                                                ; preds = %6
  %10 = load i64, ptr %2, align 8, !dbg !2957
  %11 = icmp ugt i64 %10, 0, !dbg !2958
  br label %12

12:                                               ; preds = %9, %6
  %13 = phi i1 [ false, %6 ], [ %11, %9 ], !dbg !2959
  br i1 %13, label %14, label %27, !dbg !2960

14:                                               ; preds = %12
  %15 = load i64, ptr %2, align 8, !dbg !2961
  %16 = urem i64 %15, 10, !dbg !2963
  %17 = add i64 48, %16, !dbg !2964
  %18 = trunc i64 %17 to i8, !dbg !2965
  %19 = load i32, ptr %3, align 4, !dbg !2966
  %20 = sext i32 %19 to i64, !dbg !2967
  %21 = getelementptr inbounds [22 x i8], ptr %4, i64 0, i64 %20, !dbg !2967
  store i8 %18, ptr %21, align 1, !dbg !2968
  %22 = load i64, ptr %2, align 8, !dbg !2969
  %23 = udiv i64 %22, 10, !dbg !2969
  store i64 %23, ptr %2, align 8, !dbg !2969
  br label %24, !dbg !2970

24:                                               ; preds = %14
  %25 = load i32, ptr %3, align 4, !dbg !2971
  %26 = add nsw i32 %25, -1, !dbg !2971
  store i32 %26, ptr %3, align 4, !dbg !2971
  br label %6, !dbg !2972, !llvm.loop !2973

27:                                               ; preds = %12
  %28 = getelementptr inbounds [22 x i8], ptr %4, i64 0, i64 0, !dbg !2975
  %29 = load i32, ptr %3, align 4, !dbg !2976
  %30 = sext i32 %29 to i64, !dbg !2977
  %31 = getelementptr inbounds i8, ptr %28, i64 %30, !dbg !2977
  %32 = getelementptr inbounds i8, ptr %31, i64 1, !dbg !2978
  call void @_ZN3Log9signalLogEPKc(ptr noundef %32), !dbg !2979
  ret void, !dbg !2980
}

; Function Attrs: mustprogress noinline nounwind optnone uwtable
define dso_local noundef ptr @_ZN3Log7strcopyEPKcPc(ptr noundef %0, ptr noundef %1) #9 !dbg !2981 {
  %3 = alloca ptr, align 8
  %4 = alloca ptr, align 8
  store ptr %0, ptr %3, align 8
  call void @llvm.dbg.declare(metadata ptr %3, metadata !2984, metadata !DIExpression()), !dbg !2985
  store ptr %1, ptr %4, align 8
  call void @llvm.dbg.declare(metadata ptr %4, metadata !2986, metadata !DIExpression()), !dbg !2987
  br label %5, !dbg !2988

5:                                                ; preds = %9, %2
  %6 = load ptr, ptr %3, align 8, !dbg !2989
  %7 = load i8, ptr %6, align 1, !dbg !2990
  %8 = icmp ne i8 %7, 0, !dbg !2990
  br i1 %8, label %9, label %15, !dbg !2988

9:                                                ; preds = %5
  %10 = load ptr, ptr %3, align 8, !dbg !2991
  %11 = getelementptr inbounds i8, ptr %10, i32 1, !dbg !2991
  store ptr %11, ptr %3, align 8, !dbg !2991
  %12 = load i8, ptr %10, align 1, !dbg !2992
  %13 = load ptr, ptr %4, align 8, !dbg !2993
  %14 = getelementptr inbounds i8, ptr %13, i32 1, !dbg !2993
  store ptr %14, ptr %4, align 8, !dbg !2993
  store i8 %12, ptr %13, align 1, !dbg !2994
  br label %5, !dbg !2988, !llvm.loop !2995

15:                                               ; preds = %5
  %16 = load ptr, ptr %4, align 8, !dbg !2996
  ret ptr %16, !dbg !2997
}

; Function Attrs: mustprogress noinline nounwind optnone uwtable
define dso_local noundef ptr @_ZN3Log8to_asciiEPcm(ptr noundef %0, i64 noundef %1) #9 !dbg !2998 {
  %3 = alloca ptr, align 8
  %4 = alloca i64, align 8
  %5 = alloca i32, align 4
  %6 = alloca ptr, align 8
  %7 = alloca ptr, align 8
  %8 = alloca i8, align 1
  store ptr %0, ptr %3, align 8
  call void @llvm.dbg.declare(metadata ptr %3, metadata !3001, metadata !DIExpression()), !dbg !3002
  store i64 %1, ptr %4, align 8
  call void @llvm.dbg.declare(metadata ptr %4, metadata !3003, metadata !DIExpression()), !dbg !3004
  call void @llvm.dbg.declare(metadata ptr %5, metadata !3005, metadata !DIExpression()), !dbg !3006
  store i32 0, ptr %5, align 4, !dbg !3006
  br label %9, !dbg !3007

9:                                                ; preds = %21, %2
  %10 = load i64, ptr %4, align 8, !dbg !3008
  %11 = urem i64 %10, 10, !dbg !3010
  %12 = add i64 48, %11, !dbg !3011
  %13 = trunc i64 %12 to i8, !dbg !3012
  %14 = load ptr, ptr %3, align 8, !dbg !3013
  %15 = load i32, ptr %5, align 4, !dbg !3014
  %16 = add nsw i32 %15, 1, !dbg !3014
  store i32 %16, ptr %5, align 4, !dbg !3014
  %17 = sext i32 %15 to i64, !dbg !3013
  %18 = getelementptr inbounds i8, ptr %14, i64 %17, !dbg !3013
  store i8 %13, ptr %18, align 1, !dbg !3015
  %19 = load i64, ptr %4, align 8, !dbg !3016
  %20 = udiv i64 %19, 10, !dbg !3016
  store i64 %20, ptr %4, align 8, !dbg !3016
  br label %21, !dbg !3017

21:                                               ; preds = %9
  %22 = load i64, ptr %4, align 8, !dbg !3018
  %23 = icmp ugt i64 %22, 0, !dbg !3019
  br i1 %23, label %9, label %24, !dbg !3017, !llvm.loop !3020

24:                                               ; preds = %21
  call void @llvm.dbg.declare(metadata ptr %6, metadata !3022, metadata !DIExpression()), !dbg !3024
  %25 = load ptr, ptr %3, align 8, !dbg !3025
  store ptr %25, ptr %6, align 8, !dbg !3024
  call void @llvm.dbg.declare(metadata ptr %7, metadata !3026, metadata !DIExpression()), !dbg !3027
  %26 = load ptr, ptr %3, align 8, !dbg !3028
  %27 = load i32, ptr %5, align 4, !dbg !3029
  %28 = sext i32 %27 to i64, !dbg !3030
  %29 = getelementptr inbounds i8, ptr %26, i64 %28, !dbg !3030
  %30 = getelementptr inbounds i8, ptr %29, i64 -1, !dbg !3031
  store ptr %30, ptr %7, align 8, !dbg !3027
  br label %31, !dbg !3032

31:                                               ; preds = %43, %24
  %32 = load ptr, ptr %7, align 8, !dbg !3033
  %33 = load ptr, ptr %6, align 8, !dbg !3035
  %34 = icmp ugt ptr %32, %33, !dbg !3036
  br i1 %34, label %35, label %48, !dbg !3037

35:                                               ; preds = %31
  call void @llvm.dbg.declare(metadata ptr %8, metadata !3038, metadata !DIExpression()), !dbg !3040
  %36 = load ptr, ptr %6, align 8, !dbg !3041
  %37 = load i8, ptr %36, align 1, !dbg !3042
  store i8 %37, ptr %8, align 1, !dbg !3040
  %38 = load ptr, ptr %7, align 8, !dbg !3043
  %39 = load i8, ptr %38, align 1, !dbg !3044
  %40 = load ptr, ptr %6, align 8, !dbg !3045
  store i8 %39, ptr %40, align 1, !dbg !3046
  %41 = load i8, ptr %8, align 1, !dbg !3047
  %42 = load ptr, ptr %7, align 8, !dbg !3048
  store i8 %41, ptr %42, align 1, !dbg !3049
  br label %43, !dbg !3050

43:                                               ; preds = %35
  %44 = load ptr, ptr %6, align 8, !dbg !3051
  %45 = getelementptr inbounds i8, ptr %44, i32 1, !dbg !3051
  store ptr %45, ptr %6, align 8, !dbg !3051
  %46 = load ptr, ptr %7, align 8, !dbg !3052
  %47 = getelementptr inbounds i8, ptr %46, i32 -1, !dbg !3052
  store ptr %47, ptr %7, align 8, !dbg !3052
  br label %31, !dbg !3053, !llvm.loop !3054

48:                                               ; preds = %31
  %49 = load ptr, ptr %3, align 8, !dbg !3056
  %50 = load i32, ptr %5, align 4, !dbg !3057
  %51 = sext i32 %50 to i64, !dbg !3058
  %52 = getelementptr inbounds i8, ptr %49, i64 %51, !dbg !3058
  ret ptr %52, !dbg !3059
}

; Function Attrs: mustprogress noinline optnone uwtable
define dso_local noundef ptr @_ZN3Log6prefixERKN4Poco13LocalDateTimeEPcPKc(ptr noundef nonnull align 8 dereferenceable(28) %0, ptr noundef %1, ptr noundef %2) #5 !dbg !3060 {
  %4 = alloca ptr, align 8
  %5 = alloca ptr, align 8
  %6 = alloca ptr, align 8
  %7 = alloca ptr, align 8
  %8 = alloca i32, align 4
  %9 = alloca i32, align 4
  store ptr %0, ptr %4, align 8
  call void @llvm.dbg.declare(metadata ptr %4, metadata !3067, metadata !DIExpression()), !dbg !3068
  store ptr %1, ptr %5, align 8
  call void @llvm.dbg.declare(metadata ptr %5, metadata !3069, metadata !DIExpression()), !dbg !3070
  store ptr %2, ptr %6, align 8
  call void @llvm.dbg.declare(metadata ptr %6, metadata !3071, metadata !DIExpression()), !dbg !3072
  call void @llvm.dbg.declare(metadata ptr %7, metadata !3073, metadata !DIExpression()), !dbg !3074
  %10 = call noundef zeroext i1 @_ZNK3Log12StaticHelper9getInitedEv(ptr noundef nonnull align 8 dereferenceable(105) @_ZN3LogL6StaticE), !dbg !3075
  br i1 %10, label %11, label %14, !dbg !3076

11:                                               ; preds = %3
  %12 = call noundef nonnull align 8 dereferenceable(32) ptr @_ZNK3Log12StaticHelper5getIdB5cxx11Ev(ptr noundef nonnull align 8 dereferenceable(105) @_ZN3LogL6StaticE), !dbg !3077
  %13 = call noundef ptr @_ZNKSt7__cxx1112basic_stringIcSt11char_traitsIcESaIcEE5c_strEv(ptr noundef nonnull align 8 dereferenceable(32) %12) #3, !dbg !3078
  br label %15, !dbg !3076

14:                                               ; preds = %3
  br label %15, !dbg !3076

15:                                               ; preds = %14, %11
  %16 = phi ptr [ %13, %11 ], [ @.str, %14 ], !dbg !3076
  %17 = load ptr, ptr %5, align 8, !dbg !3079
  %18 = call noundef ptr @_ZN3Log7strcopyEPKcPc(ptr noundef %16, ptr noundef %17), !dbg !3080
  store ptr %18, ptr %7, align 8, !dbg !3074
  %19 = load ptr, ptr %7, align 8, !dbg !3081
  %20 = getelementptr inbounds i8, ptr %19, i32 1, !dbg !3081
  store ptr %20, ptr %7, align 8, !dbg !3081
  store i8 45, ptr %19, align 1, !dbg !3082
  call void @llvm.dbg.declare(metadata ptr %8, metadata !3083, metadata !DIExpression()), !dbg !3087
  %21 = call noundef i32 @_ZN4Util11getThreadIdEv(), !dbg !3088
  store i32 %21, ptr %8, align 4, !dbg !3087
  %22 = load i32, ptr %8, align 4, !dbg !3089
  %23 = icmp sgt i32 %22, 99999, !dbg !3091
  br i1 %23, label %24, label %39, !dbg !3092

24:                                               ; preds = %15
  %25 = load i32, ptr %8, align 4, !dbg !3093
  %26 = icmp sgt i32 %25, 999999, !dbg !3096
  br i1 %26, label %27, label %32, !dbg !3097

27:                                               ; preds = %24
  %28 = load ptr, ptr %7, align 8, !dbg !3098
  %29 = load i32, ptr %8, align 4, !dbg !3099
  %30 = sext i32 %29 to i64, !dbg !3099
  %31 = call noundef ptr @_ZN3Log8to_asciiEPcm(ptr noundef %28, i64 noundef %30), !dbg !3100
  store ptr %31, ptr %7, align 8, !dbg !3101
  br label %38, !dbg !3102

32:                                               ; preds = %24
  %33 = load ptr, ptr %7, align 8, !dbg !3103
  %34 = load i32, ptr %8, align 4, !dbg !3105
  %35 = sext i32 %34 to i64, !dbg !3105
  call void @_ZN3Log14to_ascii_fixedILi6EEEvPcm(ptr noundef %33, i64 noundef %35), !dbg !3106
  %36 = load ptr, ptr %7, align 8, !dbg !3107
  %37 = getelementptr inbounds i8, ptr %36, i64 6, !dbg !3107
  store ptr %37, ptr %7, align 8, !dbg !3107
  br label %38

38:                                               ; preds = %32, %27
  br label %45, !dbg !3108

39:                                               ; preds = %15
  %40 = load ptr, ptr %7, align 8, !dbg !3109
  %41 = load i32, ptr %8, align 4, !dbg !3111
  %42 = sext i32 %41 to i64, !dbg !3111
  call void @_ZN3Log14to_ascii_fixedILi5EEEvPcm(ptr noundef %40, i64 noundef %42), !dbg !3112
  %43 = load ptr, ptr %7, align 8, !dbg !3113
  %44 = getelementptr inbounds i8, ptr %43, i64 5, !dbg !3113
  store ptr %44, ptr %7, align 8, !dbg !3113
  br label %45

45:                                               ; preds = %39, %38
  %46 = load ptr, ptr %7, align 8, !dbg !3114
  %47 = getelementptr inbounds i8, ptr %46, i32 1, !dbg !3114
  store ptr %47, ptr %7, align 8, !dbg !3114
  store i8 32, ptr %46, align 1, !dbg !3115
  %48 = load ptr, ptr %7, align 8, !dbg !3116
  %49 = load ptr, ptr %4, align 8, !dbg !3117
  %50 = call noundef i32 @_ZNK4Poco13LocalDateTime4yearEv(ptr noundef nonnull align 8 dereferenceable(28) %49), !dbg !3118
  %51 = sext i32 %50 to i64, !dbg !3117
  call void @_ZN3Log14to_ascii_fixedILi4EEEvPcm(ptr noundef %48, i64 noundef %51), !dbg !3119
  %52 = load ptr, ptr %7, align 8, !dbg !3120
  %53 = getelementptr inbounds i8, ptr %52, i64 4, !dbg !3120
  store i8 45, ptr %53, align 1, !dbg !3121
  %54 = load ptr, ptr %7, align 8, !dbg !3122
  %55 = getelementptr inbounds i8, ptr %54, i64 5, !dbg !3122
  store ptr %55, ptr %7, align 8, !dbg !3122
  %56 = load ptr, ptr %7, align 8, !dbg !3123
  %57 = load ptr, ptr %4, align 8, !dbg !3124
  %58 = call noundef i32 @_ZNK4Poco13LocalDateTime5monthEv(ptr noundef nonnull align 8 dereferenceable(28) %57), !dbg !3125
  %59 = sext i32 %58 to i64, !dbg !3124
  call void @_ZN3Log14to_ascii_fixedILi2EEEvPcm(ptr noundef %56, i64 noundef %59), !dbg !3126
  %60 = load ptr, ptr %7, align 8, !dbg !3127
  %61 = getelementptr inbounds i8, ptr %60, i64 2, !dbg !3127
  store i8 45, ptr %61, align 1, !dbg !3128
  %62 = load ptr, ptr %7, align 8, !dbg !3129
  %63 = getelementptr inbounds i8, ptr %62, i64 3, !dbg !3129
  store ptr %63, ptr %7, align 8, !dbg !3129
  %64 = load ptr, ptr %7, align 8, !dbg !3130
  %65 = load ptr, ptr %4, align 8, !dbg !3131
  %66 = call noundef i32 @_ZNK4Poco13LocalDateTime3dayEv(ptr noundef nonnull align 8 dereferenceable(28) %65), !dbg !3132
  %67 = sext i32 %66 to i64, !dbg !3131
  call void @_ZN3Log14to_ascii_fixedILi2EEEvPcm(ptr noundef %64, i64 noundef %67), !dbg !3133
  %68 = load ptr, ptr %7, align 8, !dbg !3134
  %69 = getelementptr inbounds i8, ptr %68, i64 2, !dbg !3134
  store i8 32, ptr %69, align 1, !dbg !3135
  %70 = load ptr, ptr %7, align 8, !dbg !3136
  %71 = getelementptr inbounds i8, ptr %70, i64 3, !dbg !3136
  store ptr %71, ptr %7, align 8, !dbg !3136
  %72 = load ptr, ptr %7, align 8, !dbg !3137
  %73 = load ptr, ptr %4, align 8, !dbg !3138
  %74 = call noundef i32 @_ZNK4Poco13LocalDateTime4hourEv(ptr noundef nonnull align 8 dereferenceable(28) %73), !dbg !3139
  %75 = sext i32 %74 to i64, !dbg !3138
  call void @_ZN3Log14to_ascii_fixedILi2EEEvPcm(ptr noundef %72, i64 noundef %75), !dbg !3140
  %76 = load ptr, ptr %7, align 8, !dbg !3141
  %77 = getelementptr inbounds i8, ptr %76, i64 2, !dbg !3141
  store i8 58, ptr %77, align 1, !dbg !3142
  %78 = load ptr, ptr %7, align 8, !dbg !3143
  %79 = getelementptr inbounds i8, ptr %78, i64 3, !dbg !3143
  store ptr %79, ptr %7, align 8, !dbg !3143
  %80 = load ptr, ptr %7, align 8, !dbg !3144
  %81 = load ptr, ptr %4, align 8, !dbg !3145
  %82 = call noundef i32 @_ZNK4Poco13LocalDateTime6minuteEv(ptr noundef nonnull align 8 dereferenceable(28) %81), !dbg !3146
  %83 = sext i32 %82 to i64, !dbg !3145
  call void @_ZN3Log14to_ascii_fixedILi2EEEvPcm(ptr noundef %80, i64 noundef %83), !dbg !3147
  %84 = load ptr, ptr %7, align 8, !dbg !3148
  %85 = getelementptr inbounds i8, ptr %84, i64 2, !dbg !3148
  store i8 58, ptr %85, align 1, !dbg !3149
  %86 = load ptr, ptr %7, align 8, !dbg !3150
  %87 = getelementptr inbounds i8, ptr %86, i64 3, !dbg !3150
  store ptr %87, ptr %7, align 8, !dbg !3150
  %88 = load ptr, ptr %7, align 8, !dbg !3151
  %89 = load ptr, ptr %4, align 8, !dbg !3152
  %90 = call noundef i32 @_ZNK4Poco13LocalDateTime6secondEv(ptr noundef nonnull align 8 dereferenceable(28) %89), !dbg !3153
  %91 = sext i32 %90 to i64, !dbg !3152
  call void @_ZN3Log14to_ascii_fixedILi2EEEvPcm(ptr noundef %88, i64 noundef %91), !dbg !3154
  %92 = load ptr, ptr %7, align 8, !dbg !3155
  %93 = getelementptr inbounds i8, ptr %92, i64 2, !dbg !3155
  store i8 46, ptr %93, align 1, !dbg !3156
  %94 = load ptr, ptr %7, align 8, !dbg !3157
  %95 = getelementptr inbounds i8, ptr %94, i64 3, !dbg !3157
  store ptr %95, ptr %7, align 8, !dbg !3157
  %96 = load ptr, ptr %7, align 8, !dbg !3158
  %97 = load ptr, ptr %4, align 8, !dbg !3159
  %98 = call noundef i32 @_ZNK4Poco13LocalDateTime11millisecondEv(ptr noundef nonnull align 8 dereferenceable(28) %97), !dbg !3160
  %99 = mul nsw i32 %98, 1000, !dbg !3161
  %100 = load ptr, ptr %4, align 8, !dbg !3162
  %101 = call noundef i32 @_ZNK4Poco13LocalDateTime11microsecondEv(ptr noundef nonnull align 8 dereferenceable(28) %100), !dbg !3163
  %102 = add nsw i32 %99, %101, !dbg !3164
  %103 = sext i32 %102 to i64, !dbg !3159
  call void @_ZN3Log14to_ascii_fixedILi6EEEvPcm(ptr noundef %96, i64 noundef %103), !dbg !3165
  %104 = load ptr, ptr %7, align 8, !dbg !3166
  %105 = getelementptr inbounds i8, ptr %104, i64 6, !dbg !3166
  store i8 32, ptr %105, align 1, !dbg !3167
  %106 = load ptr, ptr %7, align 8, !dbg !3168
  %107 = getelementptr inbounds i8, ptr %106, i64 7, !dbg !3168
  store ptr %107, ptr %7, align 8, !dbg !3168
  call void @llvm.dbg.declare(metadata ptr %9, metadata !3169, metadata !DIExpression()), !dbg !3170
  %108 = load ptr, ptr %4, align 8, !dbg !3171
  %109 = call noundef i32 @_ZNK4Poco13LocalDateTime3tzdEv(ptr noundef nonnull align 8 dereferenceable(28) %108), !dbg !3172
  store i32 %109, ptr %9, align 4, !dbg !3170
  %110 = load i32, ptr %9, align 4, !dbg !3173
  %111 = icmp slt i32 %110, 0, !dbg !3175
  br i1 %111, label %112, label %117, !dbg !3176

112:                                              ; preds = %45
  %113 = load ptr, ptr %7, align 8, !dbg !3177
  %114 = getelementptr inbounds i8, ptr %113, i64 0, !dbg !3177
  store i8 45, ptr %114, align 1, !dbg !3179
  %115 = load i32, ptr %9, align 4, !dbg !3180
  %116 = sub nsw i32 0, %115, !dbg !3181
  store i32 %116, ptr %9, align 4, !dbg !3182
  br label %120, !dbg !3183

117:                                              ; preds = %45
  %118 = load ptr, ptr %7, align 8, !dbg !3184
  %119 = getelementptr inbounds i8, ptr %118, i64 0, !dbg !3184
  store i8 43, ptr %119, align 1, !dbg !3186
  br label %120

120:                                              ; preds = %117, %112
  %121 = load ptr, ptr %7, align 8, !dbg !3187
  %122 = getelementptr inbounds i8, ptr %121, i64 1, !dbg !3187
  store ptr %122, ptr %7, align 8, !dbg !3187
  %123 = load i32, ptr %9, align 4, !dbg !3188
  %124 = sdiv i32 %123, 36, !dbg !3189
  %125 = load i32, ptr %9, align 4, !dbg !3190
  %126 = sdiv i32 %125, 36, !dbg !3191
  %127 = srem i32 %126, 100, !dbg !3192
  %128 = sub nsw i32 %124, %127, !dbg !3193
  %129 = load i32, ptr %9, align 4, !dbg !3194
  %130 = sdiv i32 %129, 36, !dbg !3195
  %131 = srem i32 %130, 100, !dbg !3196
  %132 = mul nsw i32 %131, 60, !dbg !3197
  %133 = sdiv i32 %132, 100, !dbg !3198
  %134 = add nsw i32 %128, %133, !dbg !3199
  store i32 %134, ptr %9, align 4, !dbg !3200
  %135 = load ptr, ptr %7, align 8, !dbg !3201
  %136 = load i32, ptr %9, align 4, !dbg !3202
  %137 = sext i32 %136 to i64, !dbg !3202
  call void @_ZN3Log14to_ascii_fixedILi4EEEvPcm(ptr noundef %135, i64 noundef %137), !dbg !3203
  %138 = load ptr, ptr %7, align 8, !dbg !3204
  %139 = getelementptr inbounds i8, ptr %138, i64 4, !dbg !3204
  store i8 32, ptr %139, align 1, !dbg !3205
  %140 = load ptr, ptr %7, align 8, !dbg !3206
  %141 = getelementptr inbounds i8, ptr %140, i64 5, !dbg !3206
  store ptr %141, ptr %7, align 8, !dbg !3206
  %142 = load ptr, ptr %7, align 8, !dbg !3207
  %143 = getelementptr inbounds i8, ptr %142, i64 0, !dbg !3207
  store i8 91, ptr %143, align 1, !dbg !3208
  %144 = load ptr, ptr %7, align 8, !dbg !3209
  %145 = getelementptr inbounds i8, ptr %144, i64 1, !dbg !3209
  store i8 32, ptr %145, align 1, !dbg !3210
  %146 = load ptr, ptr %7, align 8, !dbg !3211
  %147 = getelementptr inbounds i8, ptr %146, i64 2, !dbg !3211
  store ptr %147, ptr %7, align 8, !dbg !3211
  %148 = call noundef ptr @_ZN4Util13getThreadNameEv(), !dbg !3212
  %149 = load ptr, ptr %7, align 8, !dbg !3213
  %150 = call noundef ptr @_ZN3Log7strcopyEPKcPc(ptr noundef %148, ptr noundef %149), !dbg !3214
  store ptr %150, ptr %7, align 8, !dbg !3215
  %151 = load ptr, ptr %7, align 8, !dbg !3216
  %152 = getelementptr inbounds i8, ptr %151, i64 0, !dbg !3216
  store i8 32, ptr %152, align 1, !dbg !3217
  %153 = load ptr, ptr %7, align 8, !dbg !3218
  %154 = getelementptr inbounds i8, ptr %153, i64 1, !dbg !3218
  store i8 93, ptr %154, align 1, !dbg !3219
  %155 = load ptr, ptr %7, align 8, !dbg !3220
  %156 = getelementptr inbounds i8, ptr %155, i64 2, !dbg !3220
  store i8 32, ptr %156, align 1, !dbg !3221
  %157 = load ptr, ptr %7, align 8, !dbg !3222
  %158 = getelementptr inbounds i8, ptr %157, i64 3, !dbg !3222
  store ptr %158, ptr %7, align 8, !dbg !3222
  %159 = load ptr, ptr %6, align 8, !dbg !3223
  %160 = load ptr, ptr %7, align 8, !dbg !3224
  %161 = call noundef ptr @_ZN3Log7strcopyEPKcPc(ptr noundef %159, ptr noundef %160), !dbg !3225
  store ptr %161, ptr %7, align 8, !dbg !3226
  %162 = load ptr, ptr %7, align 8, !dbg !3227
  %163 = getelementptr inbounds i8, ptr %162, i64 0, !dbg !3227
  store i8 32, ptr %163, align 1, !dbg !3228
  %164 = load ptr, ptr %7, align 8, !dbg !3229
  %165 = getelementptr inbounds i8, ptr %164, i64 1, !dbg !3229
  store i8 32, ptr %165, align 1, !dbg !3230
  %166 = load ptr, ptr %7, align 8, !dbg !3231
  %167 = getelementptr inbounds i8, ptr %166, i64 2, !dbg !3231
  store i8 0, ptr %167, align 1, !dbg !3232
  %168 = load ptr, ptr %5, align 8, !dbg !3233
  ret ptr %168, !dbg !3234
}

; Function Attrs: mustprogress noinline nounwind optnone uwtable
define linkonce_odr dso_local noundef zeroext i1 @_ZNK3Log12StaticHelper9getInitedEv(ptr noundef nonnull align 8 dereferenceable(105) %0) #9 comdat align 2 !dbg !3235 {
  %2 = alloca ptr, align 8
  store ptr %0, ptr %2, align 8
  call void @llvm.dbg.declare(metadata ptr %2, metadata !3236, metadata !DIExpression()), !dbg !3238
  %3 = load ptr, ptr %2, align 8
  %4 = getelementptr inbounds %"struct.Log::StaticHelper", ptr %3, i32 0, i32 4, !dbg !3239
  %5 = call noundef zeroext i1 @_ZNKSt6atomicIbEcvbEv(ptr noundef nonnull align 1 dereferenceable(1) %4) #3, !dbg !3239
  ret i1 %5, !dbg !3240
}

; Function Attrs: mustprogress noinline nounwind optnone uwtable
define linkonce_odr dso_local noundef nonnull align 8 dereferenceable(32) ptr @_ZNK3Log12StaticHelper5getIdB5cxx11Ev(ptr noundef nonnull align 8 dereferenceable(105) %0) #9 comdat align 2 !dbg !3241 {
  %2 = alloca ptr, align 8
  store ptr %0, ptr %2, align 8
  call void @llvm.dbg.declare(metadata ptr %2, metadata !3242, metadata !DIExpression()), !dbg !3243
  %3 = load ptr, ptr %2, align 8
  %4 = getelementptr inbounds %"struct.Log::StaticHelper", ptr %3, i32 0, i32 3, !dbg !3244
  ret ptr %4, !dbg !3245
}

; Function Attrs: nounwind
declare noundef ptr @_ZNKSt7__cxx1112basic_stringIcSt11char_traitsIcESaIcEE5c_strEv(ptr noundef nonnull align 8 dereferenceable(32)) #2

declare noundef i32 @_ZN4Util11getThreadIdEv() #1

; Function Attrs: mustprogress noinline nounwind optnone uwtable
define linkonce_odr dso_local void @_ZN3Log14to_ascii_fixedILi6EEEvPcm(ptr noundef %0, i64 noundef %1) #9 comdat !dbg !3246 {
  %3 = alloca ptr, align 8
  %4 = alloca i64, align 8
  store ptr %0, ptr %3, align 8
  call void @llvm.dbg.declare(metadata ptr %3, metadata !3251, metadata !DIExpression()), !dbg !3252
  store i64 %1, ptr %4, align 8
  call void @llvm.dbg.declare(metadata ptr %4, metadata !3253, metadata !DIExpression()), !dbg !3254
  %5 = load i64, ptr %4, align 8, !dbg !3255
  %6 = urem i64 %5, 10, !dbg !3256
  %7 = add i64 48, %6, !dbg !3257
  %8 = trunc i64 %7 to i8, !dbg !3258
  %9 = load ptr, ptr %3, align 8, !dbg !3259
  %10 = getelementptr inbounds i8, ptr %9, i64 5, !dbg !3259
  store i8 %8, ptr %10, align 1, !dbg !3260
  %11 = load i64, ptr %4, align 8, !dbg !3261
  %12 = udiv i64 %11, 10, !dbg !3261
  store i64 %12, ptr %4, align 8, !dbg !3261
  %13 = load i64, ptr %4, align 8, !dbg !3264
  %14 = urem i64 %13, 10, !dbg !3265
  %15 = add i64 48, %14, !dbg !3266
  %16 = trunc i64 %15 to i8, !dbg !3267
  %17 = load ptr, ptr %3, align 8, !dbg !3268
  %18 = getelementptr inbounds i8, ptr %17, i64 4, !dbg !3268
  store i8 %16, ptr %18, align 1, !dbg !3269
  %19 = load i64, ptr %4, align 8, !dbg !3270
  %20 = udiv i64 %19, 10, !dbg !3270
  store i64 %20, ptr %4, align 8, !dbg !3270
  %21 = load i64, ptr %4, align 8, !dbg !3273
  %22 = urem i64 %21, 10, !dbg !3274
  %23 = add i64 48, %22, !dbg !3275
  %24 = trunc i64 %23 to i8, !dbg !3276
  %25 = load ptr, ptr %3, align 8, !dbg !3277
  %26 = getelementptr inbounds i8, ptr %25, i64 3, !dbg !3277
  store i8 %24, ptr %26, align 1, !dbg !3278
  %27 = load i64, ptr %4, align 8, !dbg !3279
  %28 = udiv i64 %27, 10, !dbg !3279
  store i64 %28, ptr %4, align 8, !dbg !3279
  %29 = load i64, ptr %4, align 8, !dbg !3282
  %30 = urem i64 %29, 10, !dbg !3283
  %31 = add i64 48, %30, !dbg !3284
  %32 = trunc i64 %31 to i8, !dbg !3285
  %33 = load ptr, ptr %3, align 8, !dbg !3286
  %34 = getelementptr inbounds i8, ptr %33, i64 2, !dbg !3286
  store i8 %32, ptr %34, align 1, !dbg !3287
  %35 = load i64, ptr %4, align 8, !dbg !3288
  %36 = udiv i64 %35, 10, !dbg !3288
  store i64 %36, ptr %4, align 8, !dbg !3288
  %37 = load i64, ptr %4, align 8, !dbg !3291
  %38 = urem i64 %37, 10, !dbg !3292
  %39 = add i64 48, %38, !dbg !3293
  %40 = trunc i64 %39 to i8, !dbg !3294
  %41 = load ptr, ptr %3, align 8, !dbg !3295
  %42 = getelementptr inbounds i8, ptr %41, i64 1, !dbg !3295
  store i8 %40, ptr %42, align 1, !dbg !3296
  %43 = load i64, ptr %4, align 8, !dbg !3297
  %44 = udiv i64 %43, 10, !dbg !3297
  store i64 %44, ptr %4, align 8, !dbg !3297
  %45 = load i64, ptr %4, align 8, !dbg !3300
  %46 = urem i64 %45, 10, !dbg !3301
  %47 = add i64 48, %46, !dbg !3302
  %48 = trunc i64 %47 to i8, !dbg !3303
  %49 = load ptr, ptr %3, align 8, !dbg !3304
  %50 = getelementptr inbounds i8, ptr %49, i64 0, !dbg !3304
  store i8 %48, ptr %50, align 1, !dbg !3305
  ret void, !dbg !3306
}

; Function Attrs: mustprogress noinline nounwind optnone uwtable
define linkonce_odr dso_local void @_ZN3Log14to_ascii_fixedILi5EEEvPcm(ptr noundef %0, i64 noundef %1) #9 comdat !dbg !3307 {
  %3 = alloca ptr, align 8
  %4 = alloca i64, align 8
  store ptr %0, ptr %3, align 8
  call void @llvm.dbg.declare(metadata ptr %3, metadata !3310, metadata !DIExpression()), !dbg !3311
  store i64 %1, ptr %4, align 8
  call void @llvm.dbg.declare(metadata ptr %4, metadata !3312, metadata !DIExpression()), !dbg !3313
  %5 = load i64, ptr %4, align 8, !dbg !3314
  %6 = urem i64 %5, 10, !dbg !3315
  %7 = add i64 48, %6, !dbg !3316
  %8 = trunc i64 %7 to i8, !dbg !3317
  %9 = load ptr, ptr %3, align 8, !dbg !3318
  %10 = getelementptr inbounds i8, ptr %9, i64 4, !dbg !3318
  store i8 %8, ptr %10, align 1, !dbg !3319
  %11 = load i64, ptr %4, align 8, !dbg !3320
  %12 = udiv i64 %11, 10, !dbg !3320
  store i64 %12, ptr %4, align 8, !dbg !3320
  %13 = load i64, ptr %4, align 8, !dbg !3323
  %14 = urem i64 %13, 10, !dbg !3324
  %15 = add i64 48, %14, !dbg !3325
  %16 = trunc i64 %15 to i8, !dbg !3326
  %17 = load ptr, ptr %3, align 8, !dbg !3327
  %18 = getelementptr inbounds i8, ptr %17, i64 3, !dbg !3327
  store i8 %16, ptr %18, align 1, !dbg !3328
  %19 = load i64, ptr %4, align 8, !dbg !3329
  %20 = udiv i64 %19, 10, !dbg !3329
  store i64 %20, ptr %4, align 8, !dbg !3329
  %21 = load i64, ptr %4, align 8, !dbg !3332
  %22 = urem i64 %21, 10, !dbg !3333
  %23 = add i64 48, %22, !dbg !3334
  %24 = trunc i64 %23 to i8, !dbg !3335
  %25 = load ptr, ptr %3, align 8, !dbg !3336
  %26 = getelementptr inbounds i8, ptr %25, i64 2, !dbg !3336
  store i8 %24, ptr %26, align 1, !dbg !3337
  %27 = load i64, ptr %4, align 8, !dbg !3338
  %28 = udiv i64 %27, 10, !dbg !3338
  store i64 %28, ptr %4, align 8, !dbg !3338
  %29 = load i64, ptr %4, align 8, !dbg !3341
  %30 = urem i64 %29, 10, !dbg !3342
  %31 = add i64 48, %30, !dbg !3343
  %32 = trunc i64 %31 to i8, !dbg !3344
  %33 = load ptr, ptr %3, align 8, !dbg !3345
  %34 = getelementptr inbounds i8, ptr %33, i64 1, !dbg !3345
  store i8 %32, ptr %34, align 1, !dbg !3346
  %35 = load i64, ptr %4, align 8, !dbg !3347
  %36 = udiv i64 %35, 10, !dbg !3347
  store i64 %36, ptr %4, align 8, !dbg !3347
  %37 = load i64, ptr %4, align 8, !dbg !3350
  %38 = urem i64 %37, 10, !dbg !3351
  %39 = add i64 48, %38, !dbg !3352
  %40 = trunc i64 %39 to i8, !dbg !3353
  %41 = load ptr, ptr %3, align 8, !dbg !3354
  %42 = getelementptr inbounds i8, ptr %41, i64 0, !dbg !3354
  store i8 %40, ptr %42, align 1, !dbg !3355
  ret void, !dbg !3356
}

; Function Attrs: mustprogress noinline nounwind optnone uwtable
define linkonce_odr dso_local void @_ZN3Log14to_ascii_fixedILi4EEEvPcm(ptr noundef %0, i64 noundef %1) #9 comdat !dbg !3357 {
  %3 = alloca ptr, align 8
  %4 = alloca i64, align 8
  store ptr %0, ptr %3, align 8
  call void @llvm.dbg.declare(metadata ptr %3, metadata !3360, metadata !DIExpression()), !dbg !3361
  store i64 %1, ptr %4, align 8
  call void @llvm.dbg.declare(metadata ptr %4, metadata !3362, metadata !DIExpression()), !dbg !3363
  %5 = load i64, ptr %4, align 8, !dbg !3364
  %6 = urem i64 %5, 10, !dbg !3365
  %7 = add i64 48, %6, !dbg !3366
  %8 = trunc i64 %7 to i8, !dbg !3367
  %9 = load ptr, ptr %3, align 8, !dbg !3368
  %10 = getelementptr inbounds i8, ptr %9, i64 3, !dbg !3368
  store i8 %8, ptr %10, align 1, !dbg !3369
  %11 = load i64, ptr %4, align 8, !dbg !3370
  %12 = udiv i64 %11, 10, !dbg !3370
  store i64 %12, ptr %4, align 8, !dbg !3370
  %13 = load i64, ptr %4, align 8, !dbg !3373
  %14 = urem i64 %13, 10, !dbg !3374
  %15 = add i64 48, %14, !dbg !3375
  %16 = trunc i64 %15 to i8, !dbg !3376
  %17 = load ptr, ptr %3, align 8, !dbg !3377
  %18 = getelementptr inbounds i8, ptr %17, i64 2, !dbg !3377
  store i8 %16, ptr %18, align 1, !dbg !3378
  %19 = load i64, ptr %4, align 8, !dbg !3379
  %20 = udiv i64 %19, 10, !dbg !3379
  store i64 %20, ptr %4, align 8, !dbg !3379
  %21 = load i64, ptr %4, align 8, !dbg !3382
  %22 = urem i64 %21, 10, !dbg !3383
  %23 = add i64 48, %22, !dbg !3384
  %24 = trunc i64 %23 to i8, !dbg !3385
  %25 = load ptr, ptr %3, align 8, !dbg !3386
  %26 = getelementptr inbounds i8, ptr %25, i64 1, !dbg !3386
  store i8 %24, ptr %26, align 1, !dbg !3387
  %27 = load i64, ptr %4, align 8, !dbg !3388
  %28 = udiv i64 %27, 10, !dbg !3388
  store i64 %28, ptr %4, align 8, !dbg !3388
  %29 = load i64, ptr %4, align 8, !dbg !3391
  %30 = urem i64 %29, 10, !dbg !3392
  %31 = add i64 48, %30, !dbg !3393
  %32 = trunc i64 %31 to i8, !dbg !3394
  %33 = load ptr, ptr %3, align 8, !dbg !3395
  %34 = getelementptr inbounds i8, ptr %33, i64 0, !dbg !3395
  store i8 %32, ptr %34, align 1, !dbg !3396
  ret void, !dbg !3397
}

; Function Attrs: mustprogress noinline optnone uwtable
define linkonce_odr dso_local noundef i32 @_ZNK4Poco13LocalDateTime4yearEv(ptr noundef nonnull align 8 dereferenceable(28) %0) #5 comdat align 2 !dbg !3398 {
  %2 = alloca ptr, align 8
  store ptr %0, ptr %2, align 8
  call void @llvm.dbg.declare(metadata ptr %2, metadata !3403, metadata !DIExpression()), !dbg !3405
  %3 = load ptr, ptr %2, align 8
  %4 = getelementptr inbounds %"class.Poco::LocalDateTime", ptr %3, i32 0, i32 0, !dbg !3406
  %5 = call noundef i32 @_ZNK4Poco8DateTime4yearEv(ptr noundef nonnull align 8 dereferenceable(24) %4), !dbg !3407
  ret i32 %5, !dbg !3408
}

; Function Attrs: mustprogress noinline nounwind optnone uwtable
define linkonce_odr dso_local void @_ZN3Log14to_ascii_fixedILi2EEEvPcm(ptr noundef %0, i64 noundef %1) #9 comdat !dbg !3409 {
  %3 = alloca ptr, align 8
  %4 = alloca i64, align 8
  store ptr %0, ptr %3, align 8
  call void @llvm.dbg.declare(metadata ptr %3, metadata !3412, metadata !DIExpression()), !dbg !3413
  store i64 %1, ptr %4, align 8
  call void @llvm.dbg.declare(metadata ptr %4, metadata !3414, metadata !DIExpression()), !dbg !3415
  %5 = load i64, ptr %4, align 8, !dbg !3416
  %6 = urem i64 %5, 10, !dbg !3417
  %7 = add i64 48, %6, !dbg !3418
  %8 = trunc i64 %7 to i8, !dbg !3419
  %9 = load ptr, ptr %3, align 8, !dbg !3420
  %10 = getelementptr inbounds i8, ptr %9, i64 1, !dbg !3420
  store i8 %8, ptr %10, align 1, !dbg !3421
  %11 = load i64, ptr %4, align 8, !dbg !3422
  %12 = udiv i64 %11, 10, !dbg !3422
  store i64 %12, ptr %4, align 8, !dbg !3422
  %13 = load i64, ptr %4, align 8, !dbg !3425
  %14 = urem i64 %13, 10, !dbg !3426
  %15 = add i64 48, %14, !dbg !3427
  %16 = trunc i64 %15 to i8, !dbg !3428
  %17 = load ptr, ptr %3, align 8, !dbg !3429
  %18 = getelementptr inbounds i8, ptr %17, i64 0, !dbg !3429
  store i8 %16, ptr %18, align 1, !dbg !3430
  ret void, !dbg !3431
}

; Function Attrs: mustprogress noinline optnone uwtable
define linkonce_odr dso_local noundef i32 @_ZNK4Poco13LocalDateTime5monthEv(ptr noundef nonnull align 8 dereferenceable(28) %0) #5 comdat align 2 !dbg !3432 {
  %2 = alloca ptr, align 8
  store ptr %0, ptr %2, align 8
  call void @llvm.dbg.declare(metadata ptr %2, metadata !3434, metadata !DIExpression()), !dbg !3435
  %3 = load ptr, ptr %2, align 8
  %4 = getelementptr inbounds %"class.Poco::LocalDateTime", ptr %3, i32 0, i32 0, !dbg !3436
  %5 = call noundef i32 @_ZNK4Poco8DateTime5monthEv(ptr noundef nonnull align 8 dereferenceable(24) %4), !dbg !3437
  ret i32 %5, !dbg !3438
}

; Function Attrs: mustprogress noinline optnone uwtable
define linkonce_odr dso_local noundef i32 @_ZNK4Poco13LocalDateTime3dayEv(ptr noundef nonnull align 8 dereferenceable(28) %0) #5 comdat align 2 !dbg !3439 {
  %2 = alloca ptr, align 8
  store ptr %0, ptr %2, align 8
  call void @llvm.dbg.declare(metadata ptr %2, metadata !3441, metadata !DIExpression()), !dbg !3442
  %3 = load ptr, ptr %2, align 8
  %4 = getelementptr inbounds %"class.Poco::LocalDateTime", ptr %3, i32 0, i32 0, !dbg !3443
  %5 = call noundef i32 @_ZNK4Poco8DateTime3dayEv(ptr noundef nonnull align 8 dereferenceable(24) %4), !dbg !3444
  ret i32 %5, !dbg !3445
}

; Function Attrs: mustprogress noinline optnone uwtable
define linkonce_odr dso_local noundef i32 @_ZNK4Poco13LocalDateTime4hourEv(ptr noundef nonnull align 8 dereferenceable(28) %0) #5 comdat align 2 !dbg !3446 {
  %2 = alloca ptr, align 8
  store ptr %0, ptr %2, align 8
  call void @llvm.dbg.declare(metadata ptr %2, metadata !3448, metadata !DIExpression()), !dbg !3449
  %3 = load ptr, ptr %2, align 8
  %4 = getelementptr inbounds %"class.Poco::LocalDateTime", ptr %3, i32 0, i32 0, !dbg !3450
  %5 = call noundef i32 @_ZNK4Poco8DateTime4hourEv(ptr noundef nonnull align 8 dereferenceable(24) %4), !dbg !3451
  ret i32 %5, !dbg !3452
}

; Function Attrs: mustprogress noinline optnone uwtable
define linkonce_odr dso_local noundef i32 @_ZNK4Poco13LocalDateTime6minuteEv(ptr noundef nonnull align 8 dereferenceable(28) %0) #5 comdat align 2 !dbg !3453 {
  %2 = alloca ptr, align 8
  store ptr %0, ptr %2, align 8
  call void @llvm.dbg.declare(metadata ptr %2, metadata !3455, metadata !DIExpression()), !dbg !3456
  %3 = load ptr, ptr %2, align 8
  %4 = getelementptr inbounds %"class.Poco::LocalDateTime", ptr %3, i32 0, i32 0, !dbg !3457
  %5 = call noundef i32 @_ZNK4Poco8DateTime6minuteEv(ptr noundef nonnull align 8 dereferenceable(24) %4), !dbg !3458
  ret i32 %5, !dbg !3459
}

; Function Attrs: mustprogress noinline optnone uwtable
define linkonce_odr dso_local noundef i32 @_ZNK4Poco13LocalDateTime6secondEv(ptr noundef nonnull align 8 dereferenceable(28) %0) #5 comdat align 2 !dbg !3460 {
  %2 = alloca ptr, align 8
  store ptr %0, ptr %2, align 8
  call void @llvm.dbg.declare(metadata ptr %2, metadata !3462, metadata !DIExpression()), !dbg !3463
  %3 = load ptr, ptr %2, align 8
  %4 = getelementptr inbounds %"class.Poco::LocalDateTime", ptr %3, i32 0, i32 0, !dbg !3464
  %5 = call noundef i32 @_ZNK4Poco8DateTime6secondEv(ptr noundef nonnull align 8 dereferenceable(24) %4), !dbg !3465
  ret i32 %5, !dbg !3466
}

; Function Attrs: mustprogress noinline optnone uwtable
define linkonce_odr dso_local noundef i32 @_ZNK4Poco13LocalDateTime11millisecondEv(ptr noundef nonnull align 8 dereferenceable(28) %0) #5 comdat align 2 !dbg !3467 {
  %2 = alloca ptr, align 8
  store ptr %0, ptr %2, align 8
  call void @llvm.dbg.declare(metadata ptr %2, metadata !3469, metadata !DIExpression()), !dbg !3470
  %3 = load ptr, ptr %2, align 8
  %4 = getelementptr inbounds %"class.Poco::LocalDateTime", ptr %3, i32 0, i32 0, !dbg !3471
  %5 = call noundef i32 @_ZNK4Poco8DateTime11millisecondEv(ptr noundef nonnull align 8 dereferenceable(24) %4), !dbg !3472
  ret i32 %5, !dbg !3473
}

; Function Attrs: mustprogress noinline optnone uwtable
define linkonce_odr dso_local noundef i32 @_ZNK4Poco13LocalDateTime11microsecondEv(ptr noundef nonnull align 8 dereferenceable(28) %0) #5 comdat align 2 !dbg !3474 {
  %2 = alloca ptr, align 8
  store ptr %0, ptr %2, align 8
  call void @llvm.dbg.declare(metadata ptr %2, metadata !3476, metadata !DIExpression()), !dbg !3477
  %3 = load ptr, ptr %2, align 8
  %4 = getelementptr inbounds %"class.Poco::LocalDateTime", ptr %3, i32 0, i32 0, !dbg !3478
  %5 = call noundef i32 @_ZNK4Poco8DateTime11microsecondEv(ptr noundef nonnull align 8 dereferenceable(24) %4), !dbg !3479
  ret i32 %5, !dbg !3480
}

; Function Attrs: mustprogress noinline nounwind optnone uwtable
define linkonce_odr dso_local noundef i32 @_ZNK4Poco13LocalDateTime3tzdEv(ptr noundef nonnull align 8 dereferenceable(28) %0) #9 comdat align 2 !dbg !3481 {
  %2 = alloca ptr, align 8
  store ptr %0, ptr %2, align 8
  call void @llvm.dbg.declare(metadata ptr %2, metadata !3483, metadata !DIExpression()), !dbg !3484
  %3 = load ptr, ptr %2, align 8
  %4 = getelementptr inbounds %"class.Poco::LocalDateTime", ptr %3, i32 0, i32 1, !dbg !3485
  %5 = load i32, ptr %4, align 8, !dbg !3485
  ret i32 %5, !dbg !3486
}

declare noundef ptr @_ZN4Util13getThreadNameEv() #1

; Function Attrs: mustprogress noinline optnone uwtable
define dso_local void @_ZN3Log15signalLogPrefixEv() #5 !dbg !3487 {
  %1 = alloca [1024 x i8], align 16
  call void @llvm.dbg.declare(metadata ptr %1, metadata !3488, metadata !DIExpression()), !dbg !3492
  %2 = getelementptr inbounds [1024 x i8], ptr %1, i64 0, i64 0, !dbg !3493
  %3 = call noundef ptr @_ZN3Log6prefixILi1023EEEPcS1_PKc(ptr noundef %2, ptr noundef @.str.3), !dbg !3494
  %4 = getelementptr inbounds [1024 x i8], ptr %1, i64 0, i64 0, !dbg !3495
  call void @_ZN3Log9signalLogEPKc(ptr noundef %4), !dbg !3496
  ret void, !dbg !3497
}

; Function Attrs: mustprogress noinline optnone uwtable
define linkonce_odr dso_local noundef ptr @_ZN3Log6prefixILi1023EEEPcS1_PKc(ptr noundef %0, ptr noundef %1) #5 comdat personality ptr @__gxx_personality_v0 !dbg !3498 {
  %3 = alloca ptr, align 8
  %4 = alloca ptr, align 8
  %5 = alloca %"class.Poco::LocalDateTime", align 8
  %6 = alloca ptr, align 8
  %7 = alloca i32, align 4
  store ptr %0, ptr %3, align 8
  call void @llvm.dbg.declare(metadata ptr %3, metadata !3503, metadata !DIExpression()), !dbg !3504
  store ptr %1, ptr %4, align 8
  call void @llvm.dbg.declare(metadata ptr %4, metadata !3505, metadata !DIExpression()), !dbg !3506
  call void @_ZN4Poco13LocalDateTimeC1Ev(ptr noundef nonnull align 8 dereferenceable(28) %5), !dbg !3507
  %8 = load ptr, ptr %3, align 8, !dbg !3508
  %9 = load ptr, ptr %4, align 8, !dbg !3509
  %10 = invoke noundef ptr @_ZN3Log6prefixERKN4Poco13LocalDateTimeEPcPKc(ptr noundef nonnull align 8 dereferenceable(28) %5, ptr noundef %8, ptr noundef %9)
          to label %11 unwind label %12, !dbg !3510

11:                                               ; preds = %2
  call void @_ZN4Poco13LocalDateTimeD1Ev(ptr noundef nonnull align 8 dereferenceable(28) %5) #3, !dbg !3511
  ret ptr %10, !dbg !3511

12:                                               ; preds = %2
  %13 = landingpad { ptr, i32 }
          cleanup, !dbg !3512
  %14 = extractvalue { ptr, i32 } %13, 0, !dbg !3512
  store ptr %14, ptr %6, align 8, !dbg !3512
  %15 = extractvalue { ptr, i32 } %13, 1, !dbg !3512
  store i32 %15, ptr %7, align 4, !dbg !3512
  call void @_ZN4Poco13LocalDateTimeD1Ev(ptr noundef nonnull align 8 dereferenceable(28) %5) #3, !dbg !3511
  br label %16, !dbg !3511

16:                                               ; preds = %12
  %17 = load ptr, ptr %6, align 8, !dbg !3511
  %18 = load i32, ptr %7, align 4, !dbg !3511
  %19 = insertvalue { ptr, i32 } poison, ptr %17, 0, !dbg !3511
  %20 = insertvalue { ptr, i32 } %19, i32 %18, 1, !dbg !3511
  resume { ptr, i32 } %20, !dbg !3511
}

; Function Attrs: mustprogress noinline optnone uwtable
define dso_local void @_ZN3Log10initializeERKNSt7__cxx1112basic_stringIcSt11char_traitsIcESaIcEEES7_bbRKSt3mapIS5_S5_St4lessIS5_ESaISt4pairIS6_S5_EEE(ptr noundef nonnull align 8 dereferenceable(32) %0, ptr noundef nonnull align 8 dereferenceable(32) %1, i1 noundef zeroext %2, i1 noundef zeroext %3, ptr noundef nonnull align 8 dereferenceable(48) %4) #5 personality ptr @__gxx_personality_v0 !dbg !3513 {
  %6 = alloca ptr, align 8
  %7 = alloca ptr, align 8
  %8 = alloca i8, align 1
  %9 = alloca i8, align 1
  %10 = alloca ptr, align 8
  %11 = alloca %"class.std::__cxx11::basic_ostringstream", align 8
  %12 = alloca ptr, align 8
  %13 = alloca i32, align 4
  %14 = alloca %"struct.std::_Setw", align 4
  %15 = alloca %"struct.std::_Setfill", align 1
  %16 = alloca %"class.std::__cxx11::basic_string", align 8
  %17 = alloca %"class.Poco::AutoPtr", align 8
  %18 = alloca %"class.std::__cxx11::basic_string", align 8
  %19 = alloca %"class.std::allocator", align 1
  %20 = alloca i1, align 1
  %21 = alloca ptr, align 8
  %22 = alloca %"struct.std::_Rb_tree_const_iterator", align 8
  %23 = alloca %"struct.std::_Rb_tree_const_iterator", align 8
  %24 = alloca ptr, align 8
  %25 = alloca %"class.std::__cxx11::basic_string", align 8
  %26 = alloca %"class.std::allocator", align 1
  %27 = alloca %"class.std::__cxx11::basic_string", align 8
  %28 = alloca %"class.std::allocator", align 1
  %29 = alloca %"class.std::__cxx11::basic_string", align 8
  %30 = alloca %"class.std::allocator", align 1
  %31 = alloca %"class.std::__cxx11::basic_string", align 8
  %32 = alloca %"class.std::allocator", align 1
  %33 = alloca ptr, align 8
  %34 = alloca %"class.Poco::AutoPtr", align 8
  %35 = alloca ptr, align 8
  %36 = alloca ptr, align 8
  %37 = alloca ptr, align 8
  %38 = alloca %"class.std::__cxx11::basic_string", align 8
  %39 = alloca %"class.std::allocator", align 1
  %40 = alloca i1, align 1
  %41 = alloca i64, align 8
  %42 = alloca %"class.std::__cxx11::basic_string", align 8
  %43 = alloca %"class.std::allocator", align 1
  %44 = alloca [32 x i8], align 16
  %45 = alloca ptr, align 8
  %46 = alloca [1024 x i8], align 16
  %47 = alloca %"class.std::__cxx11::basic_ostringstream", align 8
  %48 = alloca %"class.std::__cxx11::basic_string", align 8
  %49 = alloca %"class.std::allocator", align 1
  %50 = alloca %"class.std::__cxx11::basic_string", align 8
  %51 = alloca %"class.Poco::Message", align 8
  %52 = alloca %"class.std::__cxx11::basic_string", align 8
  store ptr %0, ptr %6, align 8
  call void @llvm.dbg.declare(metadata ptr %6, metadata !3520, metadata !DIExpression()), !dbg !3521
  store ptr %1, ptr %7, align 8
  call void @llvm.dbg.declare(metadata ptr %7, metadata !3522, metadata !DIExpression()), !dbg !3523
  %53 = zext i1 %2 to i8
  store i8 %53, ptr %8, align 1
  call void @llvm.dbg.declare(metadata ptr %8, metadata !3524, metadata !DIExpression()), !dbg !3525
  %54 = zext i1 %3 to i8
  store i8 %54, ptr %9, align 1
  call void @llvm.dbg.declare(metadata ptr %9, metadata !3526, metadata !DIExpression()), !dbg !3527
  store ptr %4, ptr %10, align 8
  call void @llvm.dbg.declare(metadata ptr %10, metadata !3528, metadata !DIExpression()), !dbg !3529
  %55 = load ptr, ptr %6, align 8, !dbg !3530
  call void @_ZN3Log12StaticHelper7setNameERKNSt7__cxx1112basic_stringIcSt11char_traitsIcESaIcEEE(ptr noundef nonnull align 8 dereferenceable(105) @_ZN3LogL6StaticE, ptr noundef nonnull align 8 dereferenceable(32) %55), !dbg !3531
  call void @llvm.dbg.declare(metadata ptr %11, metadata !3532, metadata !DIExpression()), !dbg !3537
  call void @_ZNSt7__cxx1119basic_ostringstreamIcSt11char_traitsIcESaIcEEC1Ev(ptr noundef nonnull align 8 dereferenceable(112) %11), !dbg !3537
  %56 = invoke noundef nonnull align 8 dereferenceable(32) ptr @_ZNK3Log12StaticHelper7getNameB5cxx11Ev(ptr noundef nonnull align 8 dereferenceable(105) @_ZN3LogL6StaticE)
          to label %57 unwind label %114, !dbg !3538

57:                                               ; preds = %5
  %58 = invoke noundef nonnull align 8 dereferenceable(8) ptr @_ZStlsIcSt11char_traitsIcESaIcEERSt13basic_ostreamIT_T0_ES7_RKNSt7__cxx1112basic_stringIS4_S5_T1_EE(ptr noundef nonnull align 8 dereferenceable(8) %11, ptr noundef nonnull align 8 dereferenceable(32) %56)
          to label %59 unwind label %114, !dbg !3539

59:                                               ; preds = %57
  %60 = invoke noundef nonnull align 8 dereferenceable(8) ptr @_ZStlsISt11char_traitsIcEERSt13basic_ostreamIcT_ES5_c(ptr noundef nonnull align 8 dereferenceable(8) %11, i8 noundef signext 45)
          to label %61 unwind label %114, !dbg !3540

61:                                               ; preds = %59
  %62 = invoke i32 @_ZSt4setwi(i32 noundef 5)
          to label %63 unwind label %114, !dbg !3541

63:                                               ; preds = %61
  %64 = getelementptr inbounds %"struct.std::_Setw", ptr %14, i32 0, i32 0, !dbg !3541
  store i32 %62, ptr %64, align 4, !dbg !3541
  %65 = getelementptr inbounds %"struct.std::_Setw", ptr %14, i32 0, i32 0, !dbg !3542
  %66 = load i32, ptr %65, align 4, !dbg !3542
  %67 = invoke noundef nonnull align 8 dereferenceable(8) ptr @_ZStlsIcSt11char_traitsIcEERSt13basic_ostreamIT_T0_ES6_St5_Setw(ptr noundef nonnull align 8 dereferenceable(8) %60, i32 %66)
          to label %68 unwind label %114, !dbg !3542

68:                                               ; preds = %63
  %69 = invoke i8 @_ZSt7setfillIcESt8_SetfillIT_ES1_(i8 noundef signext 48)
          to label %70 unwind label %114, !dbg !3543

70:                                               ; preds = %68
  %71 = getelementptr inbounds %"struct.std::_Setfill", ptr %15, i32 0, i32 0, !dbg !3543
  store i8 %69, ptr %71, align 1, !dbg !3543
  %72 = getelementptr inbounds %"struct.std::_Setfill", ptr %15, i32 0, i32 0, !dbg !3544
  %73 = load i8, ptr %72, align 1, !dbg !3544
  %74 = invoke noundef nonnull align 8 dereferenceable(8) ptr @_ZStlsIcSt11char_traitsIcEERSt13basic_ostreamIT_T0_ES6_St8_SetfillIS3_E(ptr noundef nonnull align 8 dereferenceable(8) %67, i8 %73)
          to label %75 unwind label %114, !dbg !3544

75:                                               ; preds = %70
  %76 = call i32 @getpid() #3, !dbg !3545
  %77 = invoke noundef nonnull align 8 dereferenceable(8) ptr @_ZNSolsEi(ptr noundef nonnull align 8 dereferenceable(8) %74, i32 noundef %76)
          to label %78 unwind label %114, !dbg !3546

78:                                               ; preds = %75
  invoke void @_ZNKSt7__cxx1119basic_ostringstreamIcSt11char_traitsIcESaIcEE3strEv(ptr sret(%"class.std::__cxx11::basic_string") align 8 %16, ptr noundef nonnull align 8 dereferenceable(112) %11)
          to label %79 unwind label %114, !dbg !3547

79:                                               ; preds = %78
  invoke void @_ZN3Log12StaticHelper5setIdERKNSt7__cxx1112basic_stringIcSt11char_traitsIcESaIcEEE(ptr noundef nonnull align 8 dereferenceable(105) @_ZN3LogL6StaticE, ptr noundef nonnull align 8 dereferenceable(32) %16)
          to label %80 unwind label %118, !dbg !3548

80:                                               ; preds = %79
  call void @_ZNSt7__cxx1112basic_stringIcSt11char_traitsIcESaIcEED1Ev(ptr noundef nonnull align 8 dereferenceable(32) %16) #3, !dbg !3549
  call void @llvm.dbg.declare(metadata ptr %17, metadata !3550, metadata !DIExpression()), !dbg !3551
  invoke void @_ZN4Poco7AutoPtrINS_7ChannelEEC2Ev(ptr noundef nonnull align 8 dereferenceable(8) %17)
          to label %81 unwind label %114, !dbg !3551

81:                                               ; preds = %80
  %82 = load i8, ptr %9, align 1, !dbg !3552
  %83 = trunc i8 %82 to i1, !dbg !3552
  br i1 %83, label %84, label %139, !dbg !3554

84:                                               ; preds = %81
  %85 = invoke noalias noundef nonnull ptr @_Znwm(i64 noundef 304) #19
          to label %86 unwind label %122, !dbg !3555, !heapallocsite !3557

86:                                               ; preds = %84
  store i1 true, ptr %20, align 1
  call void @_ZNSaIcEC1Ev(ptr noundef nonnull align 1 dereferenceable(1) %19) #3, !dbg !3559
  invoke void @_ZNSt7__cxx1112basic_stringIcSt11char_traitsIcESaIcEEC2IS3_EEPKcRKS3_(ptr noundef nonnull align 8 dereferenceable(32) %18, ptr noundef @.str.4, ptr noundef nonnull align 1 dereferenceable(1) %19)
          to label %87 unwind label %126, !dbg !3559

87:                                               ; preds = %86
  invoke void @_ZN4Poco11FileChannelC1ERKNSt7__cxx1112basic_stringIcSt11char_traitsIcESaIcEEE(ptr noundef nonnull align 8 dereferenceable(304) %85, ptr noundef nonnull align 8 dereferenceable(32) %18)
          to label %88 unwind label %130, !dbg !3560

88:                                               ; preds = %87
  store i1 false, ptr %20, align 1, !dbg !3555
  %89 = invoke noundef nonnull align 8 dereferenceable(8) ptr @_ZN4Poco7AutoPtrINS_7ChannelEEaSEPS1_(ptr noundef nonnull align 8 dereferenceable(8) %17, ptr noundef %85)
          to label %90 unwind label %130, !dbg !3561

90:                                               ; preds = %88
  call void @_ZNSt7__cxx1112basic_stringIcSt11char_traitsIcESaIcEED1Ev(ptr noundef nonnull align 8 dereferenceable(32) %18) #3, !dbg !3562
  call void @_ZNSaIcED1Ev(ptr noundef nonnull align 1 dereferenceable(1) %19) #3, !dbg !3562
  call void @llvm.dbg.declare(metadata ptr %21, metadata !3563, metadata !DIExpression()), !dbg !3565
  %91 = load ptr, ptr %10, align 8, !dbg !3566
  store ptr %91, ptr %21, align 8, !dbg !3566
  call void @llvm.dbg.declare(metadata ptr %22, metadata !3567, metadata !DIExpression()), !dbg !3565
  %92 = load ptr, ptr %21, align 8, !dbg !3569
  %93 = call ptr @_ZNKSt3mapINSt7__cxx1112basic_stringIcSt11char_traitsIcESaIcEEES5_St4lessIS5_ESaISt4pairIKS5_S5_EEE5beginEv(ptr noundef nonnull align 8 dereferenceable(48) %92) #3, !dbg !3569
  %94 = getelementptr inbounds %"struct.std::_Rb_tree_const_iterator", ptr %22, i32 0, i32 0, !dbg !3569
  store ptr %93, ptr %94, align 8, !dbg !3569
  call void @llvm.dbg.declare(metadata ptr %23, metadata !3570, metadata !DIExpression()), !dbg !3565
  %95 = load ptr, ptr %21, align 8, !dbg !3569
  %96 = call ptr @_ZNKSt3mapINSt7__cxx1112basic_stringIcSt11char_traitsIcESaIcEEES5_St4lessIS5_ESaISt4pairIKS5_S5_EEE3endEv(ptr noundef nonnull align 8 dereferenceable(48) %95) #3, !dbg !3569
  %97 = getelementptr inbounds %"struct.std::_Rb_tree_const_iterator", ptr %23, i32 0, i32 0, !dbg !3569
  store ptr %96, ptr %97, align 8, !dbg !3569
  br label %98, !dbg !3569

98:                                               ; preds = %112, %90
  %99 = call noundef zeroext i1 @_ZStneRKSt23_Rb_tree_const_iteratorISt4pairIKNSt7__cxx1112basic_stringIcSt11char_traitsIcESaIcEEES6_EESB_(ptr noundef nonnull align 8 dereferenceable(8) %22, ptr noundef nonnull align 8 dereferenceable(8) %23) #3, !dbg !3569
  br i1 %99, label %100, label %138, !dbg !3569

100:                                              ; preds = %98
  call void @llvm.dbg.declare(metadata ptr %24, metadata !3571, metadata !DIExpression()), !dbg !3573
  %101 = call noundef nonnull align 8 dereferenceable(64) ptr @_ZNKSt23_Rb_tree_const_iteratorISt4pairIKNSt7__cxx1112basic_stringIcSt11char_traitsIcESaIcEEES6_EEdeEv(ptr noundef nonnull align 8 dereferenceable(8) %22) #3, !dbg !3574
  store ptr %101, ptr %24, align 8, !dbg !3573
  %102 = invoke noundef ptr @_ZN4Poco7AutoPtrINS_7ChannelEEptEv(ptr noundef nonnull align 8 dereferenceable(8) %17)
          to label %103 unwind label %122, !dbg !3575

103:                                              ; preds = %100
  %104 = load ptr, ptr %24, align 8, !dbg !3577
  %105 = getelementptr inbounds %"struct.std::pair", ptr %104, i32 0, i32 0, !dbg !3578
  %106 = load ptr, ptr %24, align 8, !dbg !3579
  %107 = getelementptr inbounds %"struct.std::pair", ptr %106, i32 0, i32 1, !dbg !3580
  %108 = load ptr, ptr %102, align 8, !dbg !3581
  %109 = getelementptr inbounds ptr, ptr %108, i64 2, !dbg !3581
  %110 = load ptr, ptr %109, align 8, !dbg !3581
  invoke void %110(ptr noundef nonnull align 8 dereferenceable(20) %102, ptr noundef nonnull align 8 dereferenceable(32) %105, ptr noundef nonnull align 8 dereferenceable(32) %107)
          to label %111 unwind label %122, !dbg !3581

111:                                              ; preds = %103
  br label %112, !dbg !3582

112:                                              ; preds = %111
  %113 = call noundef nonnull align 8 dereferenceable(8) ptr @_ZNSt23_Rb_tree_const_iteratorISt4pairIKNSt7__cxx1112basic_stringIcSt11char_traitsIcESaIcEEES6_EEppEv(ptr noundef nonnull align 8 dereferenceable(8) %22) #3, !dbg !3569
  br label %98, !dbg !3569, !llvm.loop !3583

114:                                              ; preds = %80, %78, %75, %70, %68, %63, %61, %59, %57, %5
  %115 = landingpad { ptr, i32 }
          cleanup, !dbg !3585
  %116 = extractvalue { ptr, i32 } %115, 0, !dbg !3585
  store ptr %116, ptr %12, align 8, !dbg !3585
  %117 = extractvalue { ptr, i32 } %115, 1, !dbg !3585
  store i32 %117, ptr %13, align 4, !dbg !3585
  br label %397, !dbg !3585

118:                                              ; preds = %79
  %119 = landingpad { ptr, i32 }
          cleanup, !dbg !3585
  %120 = extractvalue { ptr, i32 } %119, 0, !dbg !3585
  store ptr %120, ptr %12, align 8, !dbg !3585
  %121 = extractvalue { ptr, i32 } %119, 1, !dbg !3585
  store i32 %121, ptr %13, align 4, !dbg !3585
  call void @_ZNSt7__cxx1112basic_stringIcSt11char_traitsIcESaIcEED1Ev(ptr noundef nonnull align 8 dereferenceable(32) %16) #3, !dbg !3549
  br label %397, !dbg !3549

122:                                              ; preds = %243, %241, %209, %207, %199, %196, %155, %147, %145, %142, %103, %100, %84
  %123 = landingpad { ptr, i32 }
          cleanup, !dbg !3586
  %124 = extractvalue { ptr, i32 } %123, 0, !dbg !3586
  store ptr %124, ptr %12, align 8, !dbg !3586
  %125 = extractvalue { ptr, i32 } %123, 1, !dbg !3586
  store i32 %125, ptr %13, align 4, !dbg !3586
  br label %396, !dbg !3586

126:                                              ; preds = %86
  %127 = landingpad { ptr, i32 }
          cleanup, !dbg !3586
  %128 = extractvalue { ptr, i32 } %127, 0, !dbg !3586
  store ptr %128, ptr %12, align 8, !dbg !3586
  %129 = extractvalue { ptr, i32 } %127, 1, !dbg !3586
  store i32 %129, ptr %13, align 4, !dbg !3586
  br label %134, !dbg !3586

130:                                              ; preds = %88, %87
  %131 = landingpad { ptr, i32 }
          cleanup, !dbg !3586
  %132 = extractvalue { ptr, i32 } %131, 0, !dbg !3586
  store ptr %132, ptr %12, align 8, !dbg !3586
  %133 = extractvalue { ptr, i32 } %131, 1, !dbg !3586
  store i32 %133, ptr %13, align 4, !dbg !3586
  call void @_ZNSt7__cxx1112basic_stringIcSt11char_traitsIcESaIcEED1Ev(ptr noundef nonnull align 8 dereferenceable(32) %18) #3, !dbg !3562
  br label %134, !dbg !3562

134:                                              ; preds = %130, %126
  call void @_ZNSaIcED1Ev(ptr noundef nonnull align 1 dereferenceable(1) %19) #3, !dbg !3562
  %135 = load i1, ptr %20, align 1, !dbg !3562
  br i1 %135, label %136, label %137, !dbg !3562

136:                                              ; preds = %134
  call void @_ZdlPv(ptr noundef %85) #20, !dbg !3562
  br label %137, !dbg !3562

137:                                              ; preds = %136, %134
  br label %396, !dbg !3562

138:                                              ; preds = %98
  br label %207, !dbg !3587

139:                                              ; preds = %81
  %140 = load i8, ptr %8, align 1, !dbg !3588
  %141 = trunc i8 %140 to i1, !dbg !3588
  br i1 %141, label %142, label %196, !dbg !3590

142:                                              ; preds = %139
  %143 = invoke noalias noundef nonnull ptr @_Znwm(i64 noundef 72) #19
          to label %144 unwind label %122, !dbg !3591, !heapallocsite !3593

144:                                              ; preds = %142
  invoke void @_ZN4Poco19ColorConsoleChannelC1Ev(ptr noundef nonnull align 8 dereferenceable(72) %143)
          to label %145 unwind label %164, !dbg !3595

145:                                              ; preds = %144
  %146 = invoke noundef nonnull align 8 dereferenceable(8) ptr @_ZN4Poco7AutoPtrINS_7ChannelEEaSEPS1_(ptr noundef nonnull align 8 dereferenceable(8) %17, ptr noundef %143)
          to label %147 unwind label %122, !dbg !3596

147:                                              ; preds = %145
  %148 = invoke noundef ptr @_ZN4Poco7AutoPtrINS_7ChannelEEptEv(ptr noundef nonnull align 8 dereferenceable(8) %17)
          to label %149 unwind label %122, !dbg !3597

149:                                              ; preds = %147
  call void @_ZNSaIcEC1Ev(ptr noundef nonnull align 1 dereferenceable(1) %26) #3, !dbg !3598
  invoke void @_ZNSt7__cxx1112basic_stringIcSt11char_traitsIcESaIcEEC2IS3_EEPKcRKS3_(ptr noundef nonnull align 8 dereferenceable(32) %25, ptr noundef @.str.5, ptr noundef nonnull align 1 dereferenceable(1) %26)
          to label %150 unwind label %168, !dbg !3598

150:                                              ; preds = %149
  call void @_ZNSaIcEC1Ev(ptr noundef nonnull align 1 dereferenceable(1) %28) #3, !dbg !3599
  invoke void @_ZNSt7__cxx1112basic_stringIcSt11char_traitsIcESaIcEEC2IS3_EEPKcRKS3_(ptr noundef nonnull align 8 dereferenceable(32) %27, ptr noundef @.str.6, ptr noundef nonnull align 1 dereferenceable(1) %28)
          to label %151 unwind label %172, !dbg !3599

151:                                              ; preds = %150
  %152 = load ptr, ptr %148, align 8, !dbg !3600
  %153 = getelementptr inbounds ptr, ptr %152, i64 2, !dbg !3600
  %154 = load ptr, ptr %153, align 8, !dbg !3600
  invoke void %154(ptr noundef nonnull align 8 dereferenceable(20) %148, ptr noundef nonnull align 8 dereferenceable(32) %25, ptr noundef nonnull align 8 dereferenceable(32) %27)
          to label %155 unwind label %176, !dbg !3600

155:                                              ; preds = %151
  call void @_ZNSt7__cxx1112basic_stringIcSt11char_traitsIcESaIcEED1Ev(ptr noundef nonnull align 8 dereferenceable(32) %27) #3, !dbg !3597
  call void @_ZNSaIcED1Ev(ptr noundef nonnull align 1 dereferenceable(1) %28) #3, !dbg !3597
  call void @_ZNSt7__cxx1112basic_stringIcSt11char_traitsIcESaIcEED1Ev(ptr noundef nonnull align 8 dereferenceable(32) %25) #3, !dbg !3597
  call void @_ZNSaIcED1Ev(ptr noundef nonnull align 1 dereferenceable(1) %26) #3, !dbg !3597
  %156 = invoke noundef ptr @_ZN4Poco7AutoPtrINS_7ChannelEEptEv(ptr noundef nonnull align 8 dereferenceable(8) %17)
          to label %157 unwind label %122, !dbg !3601

157:                                              ; preds = %155
  call void @_ZNSaIcEC1Ev(ptr noundef nonnull align 1 dereferenceable(1) %30) #3, !dbg !3602
  invoke void @_ZNSt7__cxx1112basic_stringIcSt11char_traitsIcESaIcEEC2IS3_EEPKcRKS3_(ptr noundef nonnull align 8 dereferenceable(32) %29, ptr noundef @.str.7, ptr noundef nonnull align 1 dereferenceable(1) %30)
          to label %158 unwind label %182, !dbg !3602

158:                                              ; preds = %157
  call void @_ZNSaIcEC1Ev(ptr noundef nonnull align 1 dereferenceable(1) %32) #3, !dbg !3603
  invoke void @_ZNSt7__cxx1112basic_stringIcSt11char_traitsIcESaIcEEC2IS3_EEPKcRKS3_(ptr noundef nonnull align 8 dereferenceable(32) %31, ptr noundef @.str.8, ptr noundef nonnull align 1 dereferenceable(1) %32)
          to label %159 unwind label %186, !dbg !3603

159:                                              ; preds = %158
  %160 = load ptr, ptr %156, align 8, !dbg !3604
  %161 = getelementptr inbounds ptr, ptr %160, i64 2, !dbg !3604
  %162 = load ptr, ptr %161, align 8, !dbg !3604
  invoke void %162(ptr noundef nonnull align 8 dereferenceable(20) %156, ptr noundef nonnull align 8 dereferenceable(32) %29, ptr noundef nonnull align 8 dereferenceable(32) %31)
          to label %163 unwind label %190, !dbg !3604

163:                                              ; preds = %159
  call void @_ZNSt7__cxx1112basic_stringIcSt11char_traitsIcESaIcEED1Ev(ptr noundef nonnull align 8 dereferenceable(32) %31) #3, !dbg !3601
  call void @_ZNSaIcED1Ev(ptr noundef nonnull align 1 dereferenceable(1) %32) #3, !dbg !3601
  call void @_ZNSt7__cxx1112basic_stringIcSt11char_traitsIcESaIcEED1Ev(ptr noundef nonnull align 8 dereferenceable(32) %29) #3, !dbg !3601
  call void @_ZNSaIcED1Ev(ptr noundef nonnull align 1 dereferenceable(1) %30) #3, !dbg !3601
  br label %206, !dbg !3605

164:                                              ; preds = %144
  %165 = landingpad { ptr, i32 }
          cleanup, !dbg !3606
  %166 = extractvalue { ptr, i32 } %165, 0, !dbg !3606
  store ptr %166, ptr %12, align 8, !dbg !3606
  %167 = extractvalue { ptr, i32 } %165, 1, !dbg !3606
  store i32 %167, ptr %13, align 4, !dbg !3606
  call void @_ZdlPv(ptr noundef %143) #20, !dbg !3591
  br label %396, !dbg !3591

168:                                              ; preds = %149
  %169 = landingpad { ptr, i32 }
          cleanup, !dbg !3606
  %170 = extractvalue { ptr, i32 } %169, 0, !dbg !3606
  store ptr %170, ptr %12, align 8, !dbg !3606
  %171 = extractvalue { ptr, i32 } %169, 1, !dbg !3606
  store i32 %171, ptr %13, align 4, !dbg !3606
  br label %181, !dbg !3606

172:                                              ; preds = %150
  %173 = landingpad { ptr, i32 }
          cleanup, !dbg !3606
  %174 = extractvalue { ptr, i32 } %173, 0, !dbg !3606
  store ptr %174, ptr %12, align 8, !dbg !3606
  %175 = extractvalue { ptr, i32 } %173, 1, !dbg !3606
  store i32 %175, ptr %13, align 4, !dbg !3606
  br label %180, !dbg !3606

176:                                              ; preds = %151
  %177 = landingpad { ptr, i32 }
          cleanup, !dbg !3606
  %178 = extractvalue { ptr, i32 } %177, 0, !dbg !3606
  store ptr %178, ptr %12, align 8, !dbg !3606
  %179 = extractvalue { ptr, i32 } %177, 1, !dbg !3606
  store i32 %179, ptr %13, align 4, !dbg !3606
  call void @_ZNSt7__cxx1112basic_stringIcSt11char_traitsIcESaIcEED1Ev(ptr noundef nonnull align 8 dereferenceable(32) %27) #3, !dbg !3597
  br label %180, !dbg !3597

180:                                              ; preds = %176, %172
  call void @_ZNSaIcED1Ev(ptr noundef nonnull align 1 dereferenceable(1) %28) #3, !dbg !3597
  call void @_ZNSt7__cxx1112basic_stringIcSt11char_traitsIcESaIcEED1Ev(ptr noundef nonnull align 8 dereferenceable(32) %25) #3, !dbg !3597
  br label %181, !dbg !3597

181:                                              ; preds = %180, %168
  call void @_ZNSaIcED1Ev(ptr noundef nonnull align 1 dereferenceable(1) %26) #3, !dbg !3597
  br label %396, !dbg !3597

182:                                              ; preds = %157
  %183 = landingpad { ptr, i32 }
          cleanup, !dbg !3606
  %184 = extractvalue { ptr, i32 } %183, 0, !dbg !3606
  store ptr %184, ptr %12, align 8, !dbg !3606
  %185 = extractvalue { ptr, i32 } %183, 1, !dbg !3606
  store i32 %185, ptr %13, align 4, !dbg !3606
  br label %195, !dbg !3606

186:                                              ; preds = %158
  %187 = landingpad { ptr, i32 }
          cleanup, !dbg !3606
  %188 = extractvalue { ptr, i32 } %187, 0, !dbg !3606
  store ptr %188, ptr %12, align 8, !dbg !3606
  %189 = extractvalue { ptr, i32 } %187, 1, !dbg !3606
  store i32 %189, ptr %13, align 4, !dbg !3606
  br label %194, !dbg !3606

190:                                              ; preds = %159
  %191 = landingpad { ptr, i32 }
          cleanup, !dbg !3606
  %192 = extractvalue { ptr, i32 } %191, 0, !dbg !3606
  store ptr %192, ptr %12, align 8, !dbg !3606
  %193 = extractvalue { ptr, i32 } %191, 1, !dbg !3606
  store i32 %193, ptr %13, align 4, !dbg !3606
  call void @_ZNSt7__cxx1112basic_stringIcSt11char_traitsIcESaIcEED1Ev(ptr noundef nonnull align 8 dereferenceable(32) %31) #3, !dbg !3601
  br label %194, !dbg !3601

194:                                              ; preds = %190, %186
  call void @_ZNSaIcED1Ev(ptr noundef nonnull align 1 dereferenceable(1) %32) #3, !dbg !3601
  call void @_ZNSt7__cxx1112basic_stringIcSt11char_traitsIcESaIcEED1Ev(ptr noundef nonnull align 8 dereferenceable(32) %29) #3, !dbg !3601
  br label %195, !dbg !3601

195:                                              ; preds = %194, %182
  call void @_ZNSaIcED1Ev(ptr noundef nonnull align 1 dereferenceable(1) %30) #3, !dbg !3601
  br label %396, !dbg !3601

196:                                              ; preds = %139
  %197 = invoke noalias noundef nonnull ptr @_Znwm(i64 noundef 32) #19
          to label %198 unwind label %122, !dbg !3607, !heapallocsite !3608

198:                                              ; preds = %196
  invoke void @_ZN4Poco14ConsoleChannelC1Ev(ptr noundef nonnull align 8 dereferenceable(32) %197)
          to label %199 unwind label %202, !dbg !3609

199:                                              ; preds = %198
  %200 = invoke noundef nonnull align 8 dereferenceable(8) ptr @_ZN4Poco7AutoPtrINS_7ChannelEEaSEPS1_(ptr noundef nonnull align 8 dereferenceable(8) %17, ptr noundef %197)
          to label %201 unwind label %122, !dbg !3610

201:                                              ; preds = %199
  br label %206

202:                                              ; preds = %198
  %203 = landingpad { ptr, i32 }
          cleanup, !dbg !3611
  %204 = extractvalue { ptr, i32 } %203, 0, !dbg !3611
  store ptr %204, ptr %12, align 8, !dbg !3611
  %205 = extractvalue { ptr, i32 } %203, 1, !dbg !3611
  store i32 %205, ptr %13, align 4, !dbg !3611
  call void @_ZdlPv(ptr noundef %197) #20, !dbg !3607
  br label %396, !dbg !3607

206:                                              ; preds = %201, %163
  br label %207

207:                                              ; preds = %206, %138
  %208 = invoke noundef ptr @_ZN4Poco7AutoPtrINS_7ChannelEEptEv(ptr noundef nonnull align 8 dereferenceable(8) %17)
          to label %209 unwind label %122, !dbg !3612

209:                                              ; preds = %207
  %210 = load ptr, ptr %208, align 8, !dbg !3613
  %211 = getelementptr inbounds ptr, ptr %210, i64 4, !dbg !3613
  %212 = load ptr, ptr %211, align 8, !dbg !3613
  invoke void %212(ptr noundef nonnull align 8 dereferenceable(20) %208)
          to label %213 unwind label %122, !dbg !3613

213:                                              ; preds = %209
  call void @llvm.dbg.declare(metadata ptr %33, metadata !3614, metadata !DIExpression()), !dbg !3617
  %214 = invoke noundef nonnull align 8 dereferenceable(32) ptr @_ZNK3Log12StaticHelper7getNameB5cxx11Ev(ptr noundef nonnull align 8 dereferenceable(105) @_ZN3LogL6StaticE)
          to label %215 unwind label %221, !dbg !3618

215:                                              ; preds = %213
  invoke void @_ZN4Poco7AutoPtrINS_7ChannelEEC2ERKS2_(ptr noundef nonnull align 8 dereferenceable(8) %34, ptr noundef nonnull align 8 dereferenceable(8) %17)
          to label %216 unwind label %221, !dbg !3619

216:                                              ; preds = %215
  %217 = invoke noundef nonnull align 8 dereferenceable(68) ptr @_ZN4Poco6Logger6createERKNSt7__cxx1112basic_stringIcSt11char_traitsIcESaIcEEENS_7AutoPtrINS_7ChannelEEEi(ptr noundef nonnull align 8 dereferenceable(32) %214, ptr noundef %34, i32 noundef 8)
          to label %218 unwind label %225, !dbg !3620

218:                                              ; preds = %216
  call void @_ZN4Poco7AutoPtrINS_7ChannelEED2Ev(ptr noundef nonnull align 8 dereferenceable(8) %34) #3, !dbg !3620
  store ptr %217, ptr %33, align 8, !dbg !3617
  %219 = load ptr, ptr %33, align 8, !dbg !3621
  invoke void @_ZN3Log12StaticHelper9setLoggerEPN4Poco6LoggerE(ptr noundef nonnull align 8 dereferenceable(105) @_ZN3LogL6StaticE, ptr noundef %219)
          to label %220 unwind label %221, !dbg !3622

220:                                              ; preds = %218
  br label %243, !dbg !3623

221:                                              ; preds = %218, %215, %213
  %222 = landingpad { ptr, i32 }
          cleanup
          catch ptr @_ZTIN4Poco15ExistsExceptionE, !dbg !3624
  %223 = extractvalue { ptr, i32 } %222, 0, !dbg !3624
  store ptr %223, ptr %12, align 8, !dbg !3624
  %224 = extractvalue { ptr, i32 } %222, 1, !dbg !3624
  store i32 %224, ptr %13, align 4, !dbg !3624
  br label %229, !dbg !3624

225:                                              ; preds = %216
  %226 = landingpad { ptr, i32 }
          cleanup
          catch ptr @_ZTIN4Poco15ExistsExceptionE, !dbg !3624
  %227 = extractvalue { ptr, i32 } %226, 0, !dbg !3624
  store ptr %227, ptr %12, align 8, !dbg !3624
  %228 = extractvalue { ptr, i32 } %226, 1, !dbg !3624
  store i32 %228, ptr %13, align 4, !dbg !3624
  call void @_ZN4Poco7AutoPtrINS_7ChannelEED2Ev(ptr noundef nonnull align 8 dereferenceable(8) %34) #3, !dbg !3620
  br label %229, !dbg !3620

229:                                              ; preds = %225, %221
  %230 = load i32, ptr %13, align 4, !dbg !3623
  %231 = call i32 @llvm.eh.typeid.for(ptr @_ZTIN4Poco15ExistsExceptionE) #3, !dbg !3623
  %232 = icmp eq i32 %230, %231, !dbg !3623
  br i1 %232, label %233, label %396, !dbg !3623

233:                                              ; preds = %229
  call void @llvm.dbg.declare(metadata ptr %35, metadata !3625, metadata !DIExpression()), !dbg !3629
  %234 = load ptr, ptr %12, align 8, !dbg !3623
  %235 = call ptr @__cxa_begin_catch(ptr %234) #3, !dbg !3623
  store ptr %235, ptr %35, align 8, !dbg !3623
  call void @llvm.dbg.declare(metadata ptr %36, metadata !3630, metadata !DIExpression()), !dbg !3632
  %236 = invoke noundef nonnull align 8 dereferenceable(32) ptr @_ZNK3Log12StaticHelper7getNameB5cxx11Ev(ptr noundef nonnull align 8 dereferenceable(105) @_ZN3LogL6StaticE)
          to label %237 unwind label %287, !dbg !3633

237:                                              ; preds = %233
  %238 = invoke noundef nonnull align 8 dereferenceable(68) ptr @_ZN4Poco6Logger3getERKNSt7__cxx1112basic_stringIcSt11char_traitsIcESaIcEEE(ptr noundef nonnull align 8 dereferenceable(32) %236)
          to label %239 unwind label %287, !dbg !3634

239:                                              ; preds = %237
  store ptr %238, ptr %36, align 8, !dbg !3632
  %240 = load ptr, ptr %36, align 8, !dbg !3635
  invoke void @_ZN3Log12StaticHelper9setLoggerEPN4Poco6LoggerE(ptr noundef nonnull align 8 dereferenceable(105) @_ZN3LogL6StaticE, ptr noundef %240)
          to label %241 unwind label %287, !dbg !3636

241:                                              ; preds = %239
  invoke void @__cxa_end_catch()
          to label %242 unwind label %122, !dbg !3637

242:                                              ; preds = %241
  br label %243, !dbg !3637

243:                                              ; preds = %242, %220
  call void @llvm.dbg.declare(metadata ptr %37, metadata !3638, metadata !DIExpression()), !dbg !3639
  %244 = invoke noundef ptr @_ZNK3Log12StaticHelper9getLoggerEv(ptr noundef nonnull align 8 dereferenceable(105) @_ZN3LogL6StaticE)
          to label %245 unwind label %122, !dbg !3640

245:                                              ; preds = %243
  store ptr %244, ptr %37, align 8, !dbg !3639
  call void @llvm.dbg.declare(metadata ptr %38, metadata !3641, metadata !DIExpression()), !dbg !3642
  %246 = load ptr, ptr %7, align 8, !dbg !3643
  %247 = call noundef zeroext i1 @_ZNKSt7__cxx1112basic_stringIcSt11char_traitsIcESaIcEE5emptyEv(ptr noundef nonnull align 8 dereferenceable(32) %246) #3, !dbg !3644
  store i1 false, ptr %40, align 1
  br i1 %247, label %248, label %250, !dbg !3643

248:                                              ; preds = %245
  call void @_ZNSaIcEC1Ev(ptr noundef nonnull align 1 dereferenceable(1) %39) #3, !dbg !3645
  store i1 true, ptr %40, align 1, !dbg !3645
  invoke void @_ZNSt7__cxx1112basic_stringIcSt11char_traitsIcESaIcEEC2IS3_EEPKcRKS3_(ptr noundef nonnull align 8 dereferenceable(32) %38, ptr noundef @.str.9, ptr noundef nonnull align 1 dereferenceable(1) %39)
          to label %249 unwind label %292, !dbg !3645

249:                                              ; preds = %248
  br label %253, !dbg !3643

250:                                              ; preds = %245
  %251 = load ptr, ptr %7, align 8, !dbg !3646
  invoke void @_ZNSt7__cxx1112basic_stringIcSt11char_traitsIcESaIcEEC1ERKS4_(ptr noundef nonnull align 8 dereferenceable(32) %38, ptr noundef nonnull align 8 dereferenceable(32) %251)
          to label %252 unwind label %292, !dbg !3646

252:                                              ; preds = %250
  br label %253, !dbg !3643

253:                                              ; preds = %252, %249
  %254 = load i1, ptr %40, align 1, !dbg !3643
  br i1 %254, label %255, label %256, !dbg !3643

255:                                              ; preds = %253
  call void @_ZNSaIcED1Ev(ptr noundef nonnull align 1 dereferenceable(1) %39) #3, !dbg !3643
  br label %256, !dbg !3643

256:                                              ; preds = %255, %253
  %257 = load ptr, ptr %37, align 8, !dbg !3647
  invoke void @_ZN4Poco6Logger8setLevelERKNSt7__cxx1112basic_stringIcSt11char_traitsIcESaIcEEE(ptr noundef nonnull align 8 dereferenceable(68) %257, ptr noundef nonnull align 8 dereferenceable(32) %38)
          to label %258 unwind label %299, !dbg !3648

258:                                              ; preds = %256
  invoke void @_ZN3Log12StaticHelper8setLevelERKNSt7__cxx1112basic_stringIcSt11char_traitsIcESaIcEEE(ptr noundef nonnull align 8 dereferenceable(105) @_ZN3LogL6StaticE, ptr noundef nonnull align 8 dereferenceable(32) %38)
          to label %259 unwind label %299, !dbg !3649

259:                                              ; preds = %258
  call void @llvm.dbg.declare(metadata ptr %41, metadata !3650, metadata !DIExpression()), !dbg !3651
  %260 = call i64 @time(ptr noundef null) #3, !dbg !3652
  store i64 %260, ptr %41, align 8, !dbg !3651
  call void @_ZNSaIcEC1Ev(ptr noundef nonnull align 1 dereferenceable(1) %43) #3, !dbg !3653
  invoke void @_ZNSt7__cxx1112basic_stringIcSt11char_traitsIcESaIcEEC2IS3_EEPKcRKS3_(ptr noundef nonnull align 8 dereferenceable(32) %42, ptr noundef @.str.10, ptr noundef nonnull align 1 dereferenceable(1) %43)
          to label %261 unwind label %303, !dbg !3653

261:                                              ; preds = %259
  invoke void @_ZNSt7__cxx1119basic_ostringstreamIcSt11char_traitsIcESaIcEE3strERKNS_12basic_stringIcS2_S3_EE(ptr noundef nonnull align 8 dereferenceable(112) %11, ptr noundef nonnull align 8 dereferenceable(32) %42)
          to label %262 unwind label %307, !dbg !3654

262:                                              ; preds = %261
  call void @_ZNSt7__cxx1112basic_stringIcSt11char_traitsIcESaIcEED1Ev(ptr noundef nonnull align 8 dereferenceable(32) %42) #3, !dbg !3655
  call void @_ZNSaIcED1Ev(ptr noundef nonnull align 1 dereferenceable(1) %43) #3, !dbg !3655
  %263 = load ptr, ptr %11, align 8, !dbg !3656
  %264 = getelementptr i8, ptr %263, i64 -24, !dbg !3656
  %265 = load i64, ptr %264, align 8, !dbg !3656
  %266 = getelementptr inbounds i8, ptr %11, i64 %265, !dbg !3656
  invoke void @_ZNSt9basic_iosIcSt11char_traitsIcEE5clearESt12_Ios_Iostate(ptr noundef nonnull align 8 dereferenceable(264) %266, i32 noundef 0)
          to label %267 unwind label %299, !dbg !3657

267:                                              ; preds = %262
  %268 = invoke noundef nonnull align 8 dereferenceable(8) ptr @_ZStlsISt11char_traitsIcEERSt13basic_ostreamIcT_ES5_PKc(ptr noundef nonnull align 8 dereferenceable(8) %11, ptr noundef @.str.11)
          to label %269 unwind label %299, !dbg !3658

269:                                              ; preds = %267
  %270 = load ptr, ptr %6, align 8, !dbg !3659
  %271 = invoke noundef nonnull align 8 dereferenceable(8) ptr @_ZStlsIcSt11char_traitsIcESaIcEERSt13basic_ostreamIT_T0_ES7_RKNSt7__cxx1112basic_stringIS4_S5_T1_EE(ptr noundef nonnull align 8 dereferenceable(8) %268, ptr noundef nonnull align 8 dereferenceable(32) %270)
          to label %272 unwind label %299, !dbg !3660

272:                                              ; preds = %269
  %273 = invoke noundef nonnull align 8 dereferenceable(8) ptr @_ZStlsISt11char_traitsIcEERSt13basic_ostreamIcT_ES5_c(ptr noundef nonnull align 8 dereferenceable(8) %271, i8 noundef signext 46)
          to label %274 unwind label %299, !dbg !3661

274:                                              ; preds = %272
  call void @llvm.dbg.declare(metadata ptr %44, metadata !3662, metadata !DIExpression()), !dbg !3666
  %275 = getelementptr inbounds [32 x i8], ptr %44, i64 0, i64 0, !dbg !3667
  %276 = call ptr @localtime(ptr noundef %41) #3, !dbg !3669
  %277 = call i64 @strftime(ptr noundef %275, i64 noundef 32, ptr noundef @.str.12, ptr noundef %276) #3, !dbg !3670
  %278 = icmp ugt i64 %277, 0, !dbg !3671
  br i1 %278, label %279, label %312, !dbg !3672

279:                                              ; preds = %274
  %280 = invoke noundef nonnull align 8 dereferenceable(8) ptr @_ZStlsISt11char_traitsIcEERSt13basic_ostreamIcT_ES5_PKc(ptr noundef nonnull align 8 dereferenceable(8) %11, ptr noundef @.str.13)
          to label %281 unwind label %299, !dbg !3673

281:                                              ; preds = %279
  %282 = getelementptr inbounds [32 x i8], ptr %44, i64 0, i64 0, !dbg !3675
  %283 = invoke noundef nonnull align 8 dereferenceable(8) ptr @_ZStlsISt11char_traitsIcEERSt13basic_ostreamIcT_ES5_PKc(ptr noundef nonnull align 8 dereferenceable(8) %280, ptr noundef %282)
          to label %284 unwind label %299, !dbg !3676

284:                                              ; preds = %281
  %285 = invoke noundef nonnull align 8 dereferenceable(8) ptr @_ZStlsISt11char_traitsIcEERSt13basic_ostreamIcT_ES5_c(ptr noundef nonnull align 8 dereferenceable(8) %283, i8 noundef signext 46)
          to label %286 unwind label %299, !dbg !3677

286:                                              ; preds = %284
  br label %312, !dbg !3678

287:                                              ; preds = %239, %237, %233
  %288 = landingpad { ptr, i32 }
          cleanup, !dbg !3679
  %289 = extractvalue { ptr, i32 } %288, 0, !dbg !3679
  store ptr %289, ptr %12, align 8, !dbg !3679
  %290 = extractvalue { ptr, i32 } %288, 1, !dbg !3679
  store i32 %290, ptr %13, align 4, !dbg !3679
  invoke void @__cxa_end_catch()
          to label %291 unwind label %403, !dbg !3637

291:                                              ; preds = %287
  br label %396, !dbg !3637

292:                                              ; preds = %250, %248
  %293 = landingpad { ptr, i32 }
          cleanup, !dbg !3585
  %294 = extractvalue { ptr, i32 } %293, 0, !dbg !3585
  store ptr %294, ptr %12, align 8, !dbg !3585
  %295 = extractvalue { ptr, i32 } %293, 1, !dbg !3585
  store i32 %295, ptr %13, align 4, !dbg !3585
  %296 = load i1, ptr %40, align 1, !dbg !3643
  br i1 %296, label %297, label %298, !dbg !3643

297:                                              ; preds = %292
  call void @_ZNSaIcED1Ev(ptr noundef nonnull align 1 dereferenceable(1) %39) #3, !dbg !3643
  br label %298, !dbg !3643

298:                                              ; preds = %297, %292
  br label %396, !dbg !3643

299:                                              ; preds = %331, %327, %324, %322, %319, %317, %314, %312, %284, %281, %279, %272, %269, %267, %262, %258, %256
  %300 = landingpad { ptr, i32 }
          cleanup, !dbg !3585
  %301 = extractvalue { ptr, i32 } %300, 0, !dbg !3585
  store ptr %301, ptr %12, align 8, !dbg !3585
  %302 = extractvalue { ptr, i32 } %300, 1, !dbg !3585
  store i32 %302, ptr %13, align 4, !dbg !3585
  br label %395, !dbg !3585

303:                                              ; preds = %259
  %304 = landingpad { ptr, i32 }
          cleanup, !dbg !3585
  %305 = extractvalue { ptr, i32 } %304, 0, !dbg !3585
  store ptr %305, ptr %12, align 8, !dbg !3585
  %306 = extractvalue { ptr, i32 } %304, 1, !dbg !3585
  store i32 %306, ptr %13, align 4, !dbg !3585
  br label %311, !dbg !3585

307:                                              ; preds = %261
  %308 = landingpad { ptr, i32 }
          cleanup, !dbg !3585
  %309 = extractvalue { ptr, i32 } %308, 0, !dbg !3585
  store ptr %309, ptr %12, align 8, !dbg !3585
  %310 = extractvalue { ptr, i32 } %308, 1, !dbg !3585
  store i32 %310, ptr %13, align 4, !dbg !3585
  call void @_ZNSt7__cxx1112basic_stringIcSt11char_traitsIcESaIcEED1Ev(ptr noundef nonnull align 8 dereferenceable(32) %42) #3, !dbg !3655
  br label %311, !dbg !3655

311:                                              ; preds = %307, %303
  call void @_ZNSaIcED1Ev(ptr noundef nonnull align 1 dereferenceable(1) %43) #3, !dbg !3655
  br label %395, !dbg !3655

312:                                              ; preds = %286, %274
  %313 = invoke noundef nonnull align 8 dereferenceable(8) ptr @_ZStlsISt11char_traitsIcEERSt13basic_ostreamIcT_ES5_PKc(ptr noundef nonnull align 8 dereferenceable(8) %11, ptr noundef @.str.14)
          to label %314 unwind label %299, !dbg !3680

314:                                              ; preds = %312
  %315 = load ptr, ptr %37, align 8, !dbg !3681
  %316 = invoke noundef i32 @_ZNK4Poco6Logger8getLevelEv(ptr noundef nonnull align 8 dereferenceable(68) %315)
          to label %317 unwind label %299, !dbg !3682

317:                                              ; preds = %314
  %318 = invoke noundef nonnull align 8 dereferenceable(8) ptr @_ZNSolsEi(ptr noundef nonnull align 8 dereferenceable(8) %313, i32 noundef %316)
          to label %319 unwind label %299, !dbg !3683

319:                                              ; preds = %317
  %320 = invoke noundef nonnull align 8 dereferenceable(8) ptr @_ZStlsISt11char_traitsIcEERSt13basic_ostreamIcT_ES5_PKc(ptr noundef nonnull align 8 dereferenceable(8) %318, ptr noundef @.str.15)
          to label %321 unwind label %299, !dbg !3684

321:                                              ; preds = %319
  br label %322, !dbg !3685

322:                                              ; preds = %321
  call void @llvm.dbg.declare(metadata ptr %45, metadata !3686, metadata !DIExpression()), !dbg !3688
  %323 = invoke noundef nonnull align 8 dereferenceable(68) ptr @_ZN3Log6loggerEv()
          to label %324 unwind label %299, !dbg !3688

324:                                              ; preds = %322
  store ptr %323, ptr %45, align 8, !dbg !3688
  %325 = invoke noundef zeroext i1 @_ZN3Log16isShutdownCalledEv()
          to label %326 unwind label %299, !dbg !3689

326:                                              ; preds = %324
  br i1 %325, label %392, label %327, !dbg !3689

327:                                              ; preds = %326
  %328 = load ptr, ptr %45, align 8, !dbg !3689
  %329 = invoke noundef zeroext i1 @_ZNK4Poco6Logger11informationEv(ptr noundef nonnull align 8 dereferenceable(68) %328)
          to label %330 unwind label %299, !dbg !3689

330:                                              ; preds = %327
  br i1 %329, label %331, label %392, !dbg !3688

331:                                              ; preds = %330
  call void @llvm.dbg.declare(metadata ptr %46, metadata !3691, metadata !DIExpression()), !dbg !3693
  call void @llvm.dbg.declare(metadata ptr %47, metadata !3694, metadata !DIExpression()), !dbg !3693
  %332 = getelementptr inbounds [1024 x i8], ptr %46, i64 0, i64 0, !dbg !3693
  %333 = invoke noundef ptr @_ZN3Log6prefixILi1023EEEPcS1_PKc(ptr noundef %332, ptr noundef @.str.16)
          to label %334 unwind label %299, !dbg !3693

334:                                              ; preds = %331
  call void @_ZNSaIcEC1Ev(ptr noundef nonnull align 1 dereferenceable(1) %49) #3, !dbg !3693
  invoke void @_ZNSt7__cxx1112basic_stringIcSt11char_traitsIcESaIcEEC2IS3_EEPKcRKS3_(ptr noundef nonnull align 8 dereferenceable(32) %48, ptr noundef %333, ptr noundef nonnull align 1 dereferenceable(1) %49)
          to label %335 unwind label %365, !dbg !3693

335:                                              ; preds = %334
  invoke void @_ZNSt7__cxx1119basic_ostringstreamIcSt11char_traitsIcESaIcEEC1ERKNS_12basic_stringIcS2_S3_EESt13_Ios_Openmode(ptr noundef nonnull align 8 dereferenceable(112) %47, ptr noundef nonnull align 8 dereferenceable(32) %48, i32 noundef 2)
          to label %336 unwind label %369, !dbg !3693

336:                                              ; preds = %335
  call void @_ZNSt7__cxx1112basic_stringIcSt11char_traitsIcESaIcEED1Ev(ptr noundef nonnull align 8 dereferenceable(32) %48) #3, !dbg !3693
  call void @_ZNSaIcED1Ev(ptr noundef nonnull align 1 dereferenceable(1) %49) #3, !dbg !3693
  %337 = invoke noundef nonnull align 8 dereferenceable(8) ptr @_ZNSolsEPFRSt8ios_baseS0_E(ptr noundef nonnull align 8 dereferenceable(8) %47, ptr noundef @_ZSt9boolalphaRSt8ios_base)
          to label %338 unwind label %374, !dbg !3693

338:                                              ; preds = %336
  invoke void @_ZNKSt7__cxx1119basic_ostringstreamIcSt11char_traitsIcESaIcEE3strEv(ptr sret(%"class.std::__cxx11::basic_string") align 8 %50, ptr noundef nonnull align 8 dereferenceable(112) %11)
          to label %339 unwind label %374, !dbg !3693

339:                                              ; preds = %338
  %340 = invoke noundef nonnull align 8 dereferenceable(8) ptr @_ZStlsIcSt11char_traitsIcESaIcEERSt13basic_ostreamIT_T0_ES7_RKNSt7__cxx1112basic_stringIS4_S5_T1_EE(ptr noundef nonnull align 8 dereferenceable(8) %337, ptr noundef nonnull align 8 dereferenceable(32) %50)
          to label %341 unwind label %378, !dbg !3693

341:                                              ; preds = %339
  call void @_ZNSt7__cxx1112basic_stringIcSt11char_traitsIcESaIcEED1Ev(ptr noundef nonnull align 8 dereferenceable(32) %50) #3, !dbg !3693
  br label %342, !dbg !3693

342:                                              ; preds = %341
  %343 = invoke noundef nonnull align 8 dereferenceable(8) ptr @_ZStlsISt11char_traitsIcEERSt13basic_ostreamIcT_ES5_PKc(ptr noundef nonnull align 8 dereferenceable(8) %47, ptr noundef @.str.17)
          to label %344 unwind label %374, !dbg !3695

344:                                              ; preds = %342
  %345 = invoke noundef nonnull align 8 dereferenceable(8) ptr @_ZStlsISt11char_traitsIcEERSt13basic_ostreamIcT_ES5_PKc(ptr noundef nonnull align 8 dereferenceable(8) %343, ptr noundef @.str.18)
          to label %346 unwind label %374, !dbg !3695

346:                                              ; preds = %344
  %347 = invoke noundef nonnull align 8 dereferenceable(8) ptr @_ZStlsISt11char_traitsIcEERSt13basic_ostreamIcT_ES5_c(ptr noundef nonnull align 8 dereferenceable(8) %345, i8 noundef signext 58)
          to label %348 unwind label %374, !dbg !3695

348:                                              ; preds = %346
  %349 = invoke noundef nonnull align 8 dereferenceable(8) ptr @_ZNSolsEi(ptr noundef nonnull align 8 dereferenceable(8) %347, i32 noundef 384)
          to label %350 unwind label %374, !dbg !3695

350:                                              ; preds = %348
  %351 = invoke noundef nonnull align 8 dereferenceable(8) ptr @_ZNSo5flushEv(ptr noundef nonnull align 8 dereferenceable(8) %47)
          to label %352 unwind label %374, !dbg !3698

352:                                              ; preds = %350
  br label %353, !dbg !3698

353:                                              ; preds = %352
  br label %354, !dbg !3698

354:                                              ; preds = %353
  %355 = load ptr, ptr %45, align 8, !dbg !3693
  %356 = load ptr, ptr %45, align 8, !dbg !3693
  %357 = invoke noundef nonnull align 8 dereferenceable(32) ptr @_ZNK4Poco6Logger4nameB5cxx11Ev(ptr noundef nonnull align 8 dereferenceable(68) %356)
          to label %358 unwind label %374, !dbg !3693

358:                                              ; preds = %354
  invoke void @_ZNKSt7__cxx1119basic_ostringstreamIcSt11char_traitsIcESaIcEE3strEv(ptr sret(%"class.std::__cxx11::basic_string") align 8 %52, ptr noundef nonnull align 8 dereferenceable(112) %47)
          to label %359 unwind label %374, !dbg !3693

359:                                              ; preds = %358
  invoke void @_ZN4Poco7MessageC1ERKNSt7__cxx1112basic_stringIcSt11char_traitsIcESaIcEEES8_NS0_8PriorityE(ptr noundef nonnull align 8 dereferenceable(152) %51, ptr noundef nonnull align 8 dereferenceable(32) %357, ptr noundef nonnull align 8 dereferenceable(32) %52, i32 noundef 6)
          to label %360 unwind label %382, !dbg !3693

360:                                              ; preds = %359
  %361 = load ptr, ptr %355, align 8, !dbg !3693
  %362 = getelementptr inbounds ptr, ptr %361, i64 6, !dbg !3693
  %363 = load ptr, ptr %362, align 8, !dbg !3693
  invoke void %363(ptr noundef nonnull align 8 dereferenceable(68) %355, ptr noundef nonnull align 8 dereferenceable(152) %51)
          to label %364 unwind label %386, !dbg !3693

364:                                              ; preds = %360
  call void @_ZN4Poco7MessageD1Ev(ptr noundef nonnull align 8 dereferenceable(152) %51) #3, !dbg !3693
  call void @_ZNSt7__cxx1112basic_stringIcSt11char_traitsIcESaIcEED1Ev(ptr noundef nonnull align 8 dereferenceable(32) %52) #3, !dbg !3693
  call void @_ZNSt7__cxx1119basic_ostringstreamIcSt11char_traitsIcESaIcEED1Ev(ptr noundef nonnull align 8 dereferenceable(112) %47) #3, !dbg !3689
  br label %392, !dbg !3693

365:                                              ; preds = %334
  %366 = landingpad { ptr, i32 }
          cleanup, !dbg !3699
  %367 = extractvalue { ptr, i32 } %366, 0, !dbg !3699
  store ptr %367, ptr %12, align 8, !dbg !3699
  %368 = extractvalue { ptr, i32 } %366, 1, !dbg !3699
  store i32 %368, ptr %13, align 4, !dbg !3699
  br label %373, !dbg !3699

369:                                              ; preds = %335
  %370 = landingpad { ptr, i32 }
          cleanup, !dbg !3699
  %371 = extractvalue { ptr, i32 } %370, 0, !dbg !3699
  store ptr %371, ptr %12, align 8, !dbg !3699
  %372 = extractvalue { ptr, i32 } %370, 1, !dbg !3699
  store i32 %372, ptr %13, align 4, !dbg !3699
  call void @_ZNSt7__cxx1112basic_stringIcSt11char_traitsIcESaIcEED1Ev(ptr noundef nonnull align 8 dereferenceable(32) %48) #3, !dbg !3693
  br label %373, !dbg !3693

373:                                              ; preds = %369, %365
  call void @_ZNSaIcED1Ev(ptr noundef nonnull align 1 dereferenceable(1) %49) #3, !dbg !3693
  br label %395, !dbg !3693

374:                                              ; preds = %358, %354, %350, %348, %346, %344, %342, %338, %336
  %375 = landingpad { ptr, i32 }
          cleanup, !dbg !3699
  %376 = extractvalue { ptr, i32 } %375, 0, !dbg !3699
  store ptr %376, ptr %12, align 8, !dbg !3699
  %377 = extractvalue { ptr, i32 } %375, 1, !dbg !3699
  store i32 %377, ptr %13, align 4, !dbg !3699
  br label %391, !dbg !3699

378:                                              ; preds = %339
  %379 = landingpad { ptr, i32 }
          cleanup, !dbg !3699
  %380 = extractvalue { ptr, i32 } %379, 0, !dbg !3699
  store ptr %380, ptr %12, align 8, !dbg !3699
  %381 = extractvalue { ptr, i32 } %379, 1, !dbg !3699
  store i32 %381, ptr %13, align 4, !dbg !3699
  call void @_ZNSt7__cxx1112basic_stringIcSt11char_traitsIcESaIcEED1Ev(ptr noundef nonnull align 8 dereferenceable(32) %50) #3, !dbg !3693
  br label %391, !dbg !3693

382:                                              ; preds = %359
  %383 = landingpad { ptr, i32 }
          cleanup, !dbg !3699
  %384 = extractvalue { ptr, i32 } %383, 0, !dbg !3699
  store ptr %384, ptr %12, align 8, !dbg !3699
  %385 = extractvalue { ptr, i32 } %383, 1, !dbg !3699
  store i32 %385, ptr %13, align 4, !dbg !3699
  br label %390, !dbg !3699

386:                                              ; preds = %360
  %387 = landingpad { ptr, i32 }
          cleanup, !dbg !3699
  %388 = extractvalue { ptr, i32 } %387, 0, !dbg !3699
  store ptr %388, ptr %12, align 8, !dbg !3699
  %389 = extractvalue { ptr, i32 } %387, 1, !dbg !3699
  store i32 %389, ptr %13, align 4, !dbg !3699
  call void @_ZN4Poco7MessageD1Ev(ptr noundef nonnull align 8 dereferenceable(152) %51) #3, !dbg !3693
  br label %390, !dbg !3693

390:                                              ; preds = %386, %382
  call void @_ZNSt7__cxx1112basic_stringIcSt11char_traitsIcESaIcEED1Ev(ptr noundef nonnull align 8 dereferenceable(32) %52) #3, !dbg !3693
  br label %391, !dbg !3693

391:                                              ; preds = %390, %378, %374
  call void @_ZNSt7__cxx1119basic_ostringstreamIcSt11char_traitsIcESaIcEED1Ev(ptr noundef nonnull align 8 dereferenceable(112) %47) #3, !dbg !3689
  br label %395, !dbg !3689

392:                                              ; preds = %364, %330, %326
  br label %393, !dbg !3688

393:                                              ; preds = %392
  br label %394, !dbg !3688

394:                                              ; preds = %393
  call void @_ZNSt7__cxx1112basic_stringIcSt11char_traitsIcESaIcEED1Ev(ptr noundef nonnull align 8 dereferenceable(32) %38) #3, !dbg !3585
  call void @_ZN4Poco7AutoPtrINS_7ChannelEED2Ev(ptr noundef nonnull align 8 dereferenceable(8) %17) #3, !dbg !3585
  call void @_ZNSt7__cxx1119basic_ostringstreamIcSt11char_traitsIcESaIcEED1Ev(ptr noundef nonnull align 8 dereferenceable(112) %11) #3, !dbg !3585
  ret void, !dbg !3585

395:                                              ; preds = %391, %373, %311, %299
  call void @_ZNSt7__cxx1112basic_stringIcSt11char_traitsIcESaIcEED1Ev(ptr noundef nonnull align 8 dereferenceable(32) %38) #3, !dbg !3585
  br label %396, !dbg !3585

396:                                              ; preds = %395, %298, %291, %229, %202, %195, %181, %164, %137, %122
  call void @_ZN4Poco7AutoPtrINS_7ChannelEED2Ev(ptr noundef nonnull align 8 dereferenceable(8) %17) #3, !dbg !3585
  br label %397, !dbg !3585

397:                                              ; preds = %396, %118, %114
  call void @_ZNSt7__cxx1119basic_ostringstreamIcSt11char_traitsIcESaIcEED1Ev(ptr noundef nonnull align 8 dereferenceable(112) %11) #3, !dbg !3585
  br label %398, !dbg !3585

398:                                              ; preds = %397
  %399 = load ptr, ptr %12, align 8, !dbg !3585
  %400 = load i32, ptr %13, align 4, !dbg !3585
  %401 = insertvalue { ptr, i32 } poison, ptr %399, 0, !dbg !3585
  %402 = insertvalue { ptr, i32 } %401, i32 %400, 1, !dbg !3585
  resume { ptr, i32 } %402, !dbg !3585

403:                                              ; preds = %287
  %404 = landingpad { ptr, i32 }
          catch ptr null, !dbg !3637
  %405 = extractvalue { ptr, i32 } %404, 0, !dbg !3637
  call void @__clang_call_terminate(ptr %405) #21, !dbg !3637
  unreachable, !dbg !3637
}

; Function Attrs: mustprogress noinline optnone uwtable
define linkonce_odr dso_local void @_ZN3Log12StaticHelper7setNameERKNSt7__cxx1112basic_stringIcSt11char_traitsIcESaIcEEE(ptr noundef nonnull align 8 dereferenceable(105) %0, ptr noundef nonnull align 8 dereferenceable(32) %1) #5 comdat align 2 !dbg !3700 {
  %3 = alloca ptr, align 8
  %4 = alloca ptr, align 8
  store ptr %0, ptr %3, align 8
  call void @llvm.dbg.declare(metadata ptr %3, metadata !3701, metadata !DIExpression()), !dbg !3702
  store ptr %1, ptr %4, align 8
  call void @llvm.dbg.declare(metadata ptr %4, metadata !3703, metadata !DIExpression()), !dbg !3704
  %5 = load ptr, ptr %3, align 8
  %6 = load ptr, ptr %4, align 8, !dbg !3705
  %7 = getelementptr inbounds %"struct.Log::StaticHelper", ptr %5, i32 0, i32 1, !dbg !3706
  %8 = call noundef nonnull align 8 dereferenceable(32) ptr @_ZNSt7__cxx1112basic_stringIcSt11char_traitsIcESaIcEEaSERKS4_(ptr noundef nonnull align 8 dereferenceable(32) %7, ptr noundef nonnull align 8 dereferenceable(32) %6), !dbg !3707
  ret void, !dbg !3708
}

declare void @_ZNSt7__cxx1119basic_ostringstreamIcSt11char_traitsIcESaIcEEC1Ev(ptr noundef nonnull align 8 dereferenceable(112)) unnamed_addr #1

declare noundef nonnull align 8 dereferenceable(8) ptr @_ZStlsIcSt11char_traitsIcESaIcEERSt13basic_ostreamIT_T0_ES7_RKNSt7__cxx1112basic_stringIS4_S5_T1_EE(ptr noundef nonnull align 8 dereferenceable(8), ptr noundef nonnull align 8 dereferenceable(32)) #1

; Function Attrs: mustprogress noinline nounwind optnone uwtable
define linkonce_odr dso_local noundef nonnull align 8 dereferenceable(32) ptr @_ZNK3Log12StaticHelper7getNameB5cxx11Ev(ptr noundef nonnull align 8 dereferenceable(105) %0) #9 comdat align 2 !dbg !3709 {
  %2 = alloca ptr, align 8
  store ptr %0, ptr %2, align 8
  call void @llvm.dbg.declare(metadata ptr %2, metadata !3710, metadata !DIExpression()), !dbg !3711
  %3 = load ptr, ptr %2, align 8
  %4 = getelementptr inbounds %"struct.Log::StaticHelper", ptr %3, i32 0, i32 1, !dbg !3712
  ret ptr %4, !dbg !3713
}

declare i32 @__gxx_personality_v0(...)

declare noundef nonnull align 8 dereferenceable(8) ptr @_ZStlsIcSt11char_traitsIcEERSt13basic_ostreamIT_T0_ES6_St8_SetfillIS3_E(ptr noundef nonnull align 8 dereferenceable(8), i8) #1

declare noundef nonnull align 8 dereferenceable(8) ptr @_ZStlsIcSt11char_traitsIcEERSt13basic_ostreamIT_T0_ES6_St5_Setw(ptr noundef nonnull align 8 dereferenceable(8), i32) #1

declare noundef nonnull align 8 dereferenceable(8) ptr @_ZStlsISt11char_traitsIcEERSt13basic_ostreamIcT_ES5_c(ptr noundef nonnull align 8 dereferenceable(8), i8 noundef signext) #1

; Function Attrs: mustprogress noinline nounwind optnone uwtable
define linkonce_odr dso_local i32 @_ZSt4setwi(i32 noundef %0) #9 comdat !dbg !3714 {
  %2 = alloca %"struct.std::_Setw", align 4
  %3 = alloca i32, align 4
  store i32 %0, ptr %3, align 4
  call void @llvm.dbg.declare(metadata ptr %3, metadata !3721, metadata !DIExpression()), !dbg !3722
  %4 = getelementptr inbounds %"struct.std::_Setw", ptr %2, i32 0, i32 0, !dbg !3723
  %5 = load i32, ptr %3, align 4, !dbg !3724
  store i32 %5, ptr %4, align 4, !dbg !3723
  %6 = getelementptr inbounds %"struct.std::_Setw", ptr %2, i32 0, i32 0, !dbg !3725
  %7 = load i32, ptr %6, align 4, !dbg !3725
  ret i32 %7, !dbg !3725
}

; Function Attrs: mustprogress noinline nounwind optnone uwtable
define linkonce_odr dso_local i8 @_ZSt7setfillIcESt8_SetfillIT_ES1_(i8 noundef signext %0) #9 comdat !dbg !3726 {
  %2 = alloca %"struct.std::_Setfill", align 1
  %3 = alloca i8, align 1
  store i8 %0, ptr %3, align 1
  call void @llvm.dbg.declare(metadata ptr %3, metadata !3732, metadata !DIExpression()), !dbg !3733
  %4 = getelementptr inbounds %"struct.std::_Setfill", ptr %2, i32 0, i32 0, !dbg !3734
  %5 = load i8, ptr %3, align 1, !dbg !3735
  store i8 %5, ptr %4, align 1, !dbg !3734
  %6 = getelementptr inbounds %"struct.std::_Setfill", ptr %2, i32 0, i32 0, !dbg !3736
  %7 = load i8, ptr %6, align 1, !dbg !3736
  ret i8 %7, !dbg !3736
}

declare noundef nonnull align 8 dereferenceable(8) ptr @_ZNSolsEi(ptr noundef nonnull align 8 dereferenceable(8), i32 noundef) #1

; Function Attrs: nounwind
declare i32 @getpid() #2

; Function Attrs: mustprogress noinline optnone uwtable
define linkonce_odr dso_local void @_ZN3Log12StaticHelper5setIdERKNSt7__cxx1112basic_stringIcSt11char_traitsIcESaIcEEE(ptr noundef nonnull align 8 dereferenceable(105) %0, ptr noundef nonnull align 8 dereferenceable(32) %1) #5 comdat align 2 !dbg !3737 {
  %3 = alloca ptr, align 8
  %4 = alloca ptr, align 8
  store ptr %0, ptr %3, align 8
  call void @llvm.dbg.declare(metadata ptr %3, metadata !3738, metadata !DIExpression()), !dbg !3739
  store ptr %1, ptr %4, align 8
  call void @llvm.dbg.declare(metadata ptr %4, metadata !3740, metadata !DIExpression()), !dbg !3741
  %5 = load ptr, ptr %3, align 8
  %6 = load ptr, ptr %4, align 8, !dbg !3742
  %7 = getelementptr inbounds %"struct.Log::StaticHelper", ptr %5, i32 0, i32 3, !dbg !3743
  %8 = call noundef nonnull align 8 dereferenceable(32) ptr @_ZNSt7__cxx1112basic_stringIcSt11char_traitsIcESaIcEEaSERKS4_(ptr noundef nonnull align 8 dereferenceable(32) %7, ptr noundef nonnull align 8 dereferenceable(32) %6), !dbg !3744
  ret void, !dbg !3745
}

declare void @_ZNKSt7__cxx1119basic_ostringstreamIcSt11char_traitsIcESaIcEE3strEv(ptr sret(%"class.std::__cxx11::basic_string") align 8, ptr noundef nonnull align 8 dereferenceable(112)) #1

; Function Attrs: nounwind
declare void @_ZNSt7__cxx1112basic_stringIcSt11char_traitsIcESaIcEED1Ev(ptr noundef nonnull align 8 dereferenceable(32)) unnamed_addr #2

; Function Attrs: noinline nounwind optnone uwtable
define linkonce_odr dso_local void @_ZN4Poco7AutoPtrINS_7ChannelEEC2Ev(ptr noundef nonnull align 8 dereferenceable(8) %0) unnamed_addr #4 comdat align 2 !dbg !3746 {
  %2 = alloca ptr, align 8
  store ptr %0, ptr %2, align 8
  call void @llvm.dbg.declare(metadata ptr %2, metadata !3747, metadata !DIExpression()), !dbg !3749
  %3 = load ptr, ptr %2, align 8
  %4 = getelementptr inbounds %"class.Poco::AutoPtr", ptr %3, i32 0, i32 0, !dbg !3750
  store ptr null, ptr %4, align 8, !dbg !3750
  ret void, !dbg !3751
}

; Function Attrs: nobuiltin allocsize(0)
declare noundef nonnull ptr @_Znwm(i64 noundef) #10

; Function Attrs: nounwind
declare void @_ZNSaIcEC1Ev(ptr noundef nonnull align 1 dereferenceable(1)) unnamed_addr #2

; Function Attrs: noinline optnone uwtable
define linkonce_odr dso_local void @_ZNSt7__cxx1112basic_stringIcSt11char_traitsIcESaIcEEC2IS3_EEPKcRKS3_(ptr noundef nonnull align 8 dereferenceable(32) %0, ptr noundef %1, ptr noundef nonnull align 1 dereferenceable(1) %2) unnamed_addr #11 comdat align 2 personality ptr @__gxx_personality_v0 !dbg !3752 {
  %4 = alloca ptr, align 8
  %5 = alloca ptr, align 8
  %6 = alloca ptr, align 8
  %7 = alloca ptr, align 8
  %8 = alloca ptr, align 8
  %9 = alloca i32, align 4
  %10 = alloca %"struct.std::forward_iterator_tag", align 1
  %11 = alloca %"struct.std::random_access_iterator_tag", align 1
  store ptr %0, ptr %4, align 8
  call void @llvm.dbg.declare(metadata ptr %4, metadata !3758, metadata !DIExpression()), !dbg !3760
  store ptr %1, ptr %5, align 8
  call void @llvm.dbg.declare(metadata ptr %5, metadata !3761, metadata !DIExpression()), !dbg !3762
  store ptr %2, ptr %6, align 8
  call void @llvm.dbg.declare(metadata ptr %6, metadata !3763, metadata !DIExpression()), !dbg !3764
  %12 = load ptr, ptr %4, align 8
  %13 = getelementptr inbounds %"class.std::__cxx11::basic_string", ptr %12, i32 0, i32 0, !dbg !3765
  %14 = call noundef ptr @_ZNSt7__cxx1112basic_stringIcSt11char_traitsIcESaIcEE13_M_local_dataEv(ptr noundef nonnull align 8 dereferenceable(32) %12), !dbg !3766
  %15 = load ptr, ptr %6, align 8, !dbg !3767
  call void @_ZNSt7__cxx1112basic_stringIcSt11char_traitsIcESaIcEE12_Alloc_hiderC1EPcRKS3_(ptr noundef nonnull align 8 dereferenceable(8) %13, ptr noundef %14, ptr noundef nonnull align 1 dereferenceable(1) %15), !dbg !3765
  call void @llvm.dbg.declare(metadata ptr %7, metadata !3768, metadata !DIExpression()), !dbg !3770
  %16 = load ptr, ptr %5, align 8, !dbg !3771
  %17 = icmp ne ptr %16, null, !dbg !3771
  br i1 %17, label %18, label %24, !dbg !3771

18:                                               ; preds = %3
  %19 = load ptr, ptr %5, align 8, !dbg !3772
  %20 = load ptr, ptr %5, align 8, !dbg !3773
  %21 = invoke noundef i64 @_ZNSt11char_traitsIcE6lengthEPKc(ptr noundef %20)
          to label %22 unwind label %30, !dbg !3774

22:                                               ; preds = %18
  %23 = getelementptr inbounds i8, ptr %19, i64 %21, !dbg !3775
  br label %25, !dbg !3771

24:                                               ; preds = %3
  br label %25, !dbg !3771

25:                                               ; preds = %24, %22
  %26 = phi ptr [ %23, %22 ], [ inttoptr (i64 1 to ptr), %24 ], !dbg !3771
  store ptr %26, ptr %7, align 8, !dbg !3770
  %27 = load ptr, ptr %5, align 8, !dbg !3776
  %28 = load ptr, ptr %7, align 8, !dbg !3777
  invoke void @_ZNSt7__cxx1112basic_stringIcSt11char_traitsIcESaIcEE12_M_constructIPKcEEvT_S8_St20forward_iterator_tag(ptr noundef nonnull align 8 dereferenceable(32) %12, ptr noundef %27, ptr noundef %28)
          to label %29 unwind label %30, !dbg !3778

29:                                               ; preds = %25
  ret void, !dbg !3779

30:                                               ; preds = %25, %18
  %31 = landingpad { ptr, i32 }
          cleanup, !dbg !3780
  %32 = extractvalue { ptr, i32 } %31, 0, !dbg !3780
  store ptr %32, ptr %8, align 8, !dbg !3780
  %33 = extractvalue { ptr, i32 } %31, 1, !dbg !3780
  store i32 %33, ptr %9, align 4, !dbg !3780
  call void @_ZNSt7__cxx1112basic_stringIcSt11char_traitsIcESaIcEE12_Alloc_hiderD2Ev(ptr noundef nonnull align 8 dereferenceable(8) %13) #3, !dbg !3780
  br label %34, !dbg !3780

34:                                               ; preds = %30
  %35 = load ptr, ptr %8, align 8, !dbg !3780
  %36 = load i32, ptr %9, align 4, !dbg !3780
  %37 = insertvalue { ptr, i32 } poison, ptr %35, 0, !dbg !3780
  %38 = insertvalue { ptr, i32 } %37, i32 %36, 1, !dbg !3780
  resume { ptr, i32 } %38, !dbg !3780
}

declare void @_ZN4Poco11FileChannelC1ERKNSt7__cxx1112basic_stringIcSt11char_traitsIcESaIcEEE(ptr noundef nonnull align 8 dereferenceable(304), ptr noundef nonnull align 8 dereferenceable(32)) unnamed_addr #1

; Function Attrs: mustprogress noinline optnone uwtable
define linkonce_odr dso_local noundef nonnull align 8 dereferenceable(8) ptr @_ZN4Poco7AutoPtrINS_7ChannelEEaSEPS1_(ptr noundef nonnull align 8 dereferenceable(8) %0, ptr noundef %1) #5 comdat align 2 !dbg !3781 {
  %3 = alloca ptr, align 8
  %4 = alloca ptr, align 8
  store ptr %0, ptr %3, align 8
  call void @llvm.dbg.declare(metadata ptr %3, metadata !3782, metadata !DIExpression()), !dbg !3783
  store ptr %1, ptr %4, align 8
  call void @llvm.dbg.declare(metadata ptr %4, metadata !3784, metadata !DIExpression()), !dbg !3785
  %5 = load ptr, ptr %3, align 8
  %6 = load ptr, ptr %4, align 8, !dbg !3786
  %7 = call noundef nonnull align 8 dereferenceable(8) ptr @_ZN4Poco7AutoPtrINS_7ChannelEE6assignEPS1_(ptr noundef nonnull align 8 dereferenceable(8) %5, ptr noundef %6), !dbg !3787
  ret ptr %7, !dbg !3788
}

; Function Attrs: nounwind
declare void @_ZNSaIcED1Ev(ptr noundef nonnull align 1 dereferenceable(1)) unnamed_addr #2

; Function Attrs: nobuiltin nounwind
declare void @_ZdlPv(ptr noundef) #12

; Function Attrs: mustprogress noinline nounwind optnone uwtable
define linkonce_odr dso_local ptr @_ZNKSt3mapINSt7__cxx1112basic_stringIcSt11char_traitsIcESaIcEEES5_St4lessIS5_ESaISt4pairIKS5_S5_EEE5beginEv(ptr noundef nonnull align 8 dereferenceable(48) %0) #9 comdat align 2 !dbg !3789 {
  %2 = alloca %"struct.std::_Rb_tree_const_iterator", align 8
  %3 = alloca ptr, align 8
  store ptr %0, ptr %3, align 8
  call void @llvm.dbg.declare(metadata ptr %3, metadata !3794, metadata !DIExpression()), !dbg !3796
  %4 = load ptr, ptr %3, align 8
  %5 = getelementptr inbounds %"class.std::map", ptr %4, i32 0, i32 0, !dbg !3797
  %6 = call ptr @_ZNKSt8_Rb_treeINSt7__cxx1112basic_stringIcSt11char_traitsIcESaIcEEESt4pairIKS5_S5_ESt10_Select1stIS8_ESt4lessIS5_ESaIS8_EE5beginEv(ptr noundef nonnull align 8 dereferenceable(48) %5) #3, !dbg !3798
  %7 = getelementptr inbounds %"struct.std::_Rb_tree_const_iterator", ptr %2, i32 0, i32 0, !dbg !3798
  store ptr %6, ptr %7, align 8, !dbg !3798
  %8 = getelementptr inbounds %"struct.std::_Rb_tree_const_iterator", ptr %2, i32 0, i32 0, !dbg !3799
  %9 = load ptr, ptr %8, align 8, !dbg !3799
  ret ptr %9, !dbg !3799
}

; Function Attrs: mustprogress noinline nounwind optnone uwtable
define linkonce_odr dso_local ptr @_ZNKSt3mapINSt7__cxx1112basic_stringIcSt11char_traitsIcESaIcEEES5_St4lessIS5_ESaISt4pairIKS5_S5_EEE3endEv(ptr noundef nonnull align 8 dereferenceable(48) %0) #9 comdat align 2 !dbg !3800 {
  %2 = alloca %"struct.std::_Rb_tree_const_iterator", align 8
  %3 = alloca ptr, align 8
  store ptr %0, ptr %3, align 8
  call void @llvm.dbg.declare(metadata ptr %3, metadata !3802, metadata !DIExpression()), !dbg !3803
  %4 = load ptr, ptr %3, align 8
  %5 = getelementptr inbounds %"class.std::map", ptr %4, i32 0, i32 0, !dbg !3804
  %6 = call ptr @_ZNKSt8_Rb_treeINSt7__cxx1112basic_stringIcSt11char_traitsIcESaIcEEESt4pairIKS5_S5_ESt10_Select1stIS8_ESt4lessIS5_ESaIS8_EE3endEv(ptr noundef nonnull align 8 dereferenceable(48) %5) #3, !dbg !3805
  %7 = getelementptr inbounds %"struct.std::_Rb_tree_const_iterator", ptr %2, i32 0, i32 0, !dbg !3805
  store ptr %6, ptr %7, align 8, !dbg !3805
  %8 = getelementptr inbounds %"struct.std::_Rb_tree_const_iterator", ptr %2, i32 0, i32 0, !dbg !3806
  %9 = load ptr, ptr %8, align 8, !dbg !3806
  ret ptr %9, !dbg !3806
}

; Function Attrs: mustprogress noinline nounwind optnone uwtable
define linkonce_odr dso_local noundef zeroext i1 @_ZStneRKSt23_Rb_tree_const_iteratorISt4pairIKNSt7__cxx1112basic_stringIcSt11char_traitsIcESaIcEEES6_EESB_(ptr noundef nonnull align 8 dereferenceable(8) %0, ptr noundef nonnull align 8 dereferenceable(8) %1) #9 comdat !dbg !3807 {
  %3 = alloca ptr, align 8
  %4 = alloca ptr, align 8
  store ptr %0, ptr %3, align 8
  call void @llvm.dbg.declare(metadata ptr %3, metadata !3812, metadata !DIExpression()), !dbg !3813
  store ptr %1, ptr %4, align 8
  call void @llvm.dbg.declare(metadata ptr %4, metadata !3814, metadata !DIExpression()), !dbg !3815
  %5 = load ptr, ptr %3, align 8, !dbg !3816
  %6 = getelementptr inbounds %"struct.std::_Rb_tree_const_iterator", ptr %5, i32 0, i32 0, !dbg !3817
  %7 = load ptr, ptr %6, align 8, !dbg !3817
  %8 = load ptr, ptr %4, align 8, !dbg !3818
  %9 = getelementptr inbounds %"struct.std::_Rb_tree_const_iterator", ptr %8, i32 0, i32 0, !dbg !3819
  %10 = load ptr, ptr %9, align 8, !dbg !3819
  %11 = icmp ne ptr %7, %10, !dbg !3820
  ret i1 %11, !dbg !3821
}

; Function Attrs: mustprogress noinline nounwind optnone uwtable
define linkonce_odr dso_local noundef nonnull align 8 dereferenceable(64) ptr @_ZNKSt23_Rb_tree_const_iteratorISt4pairIKNSt7__cxx1112basic_stringIcSt11char_traitsIcESaIcEEES6_EEdeEv(ptr noundef nonnull align 8 dereferenceable(8) %0) #9 comdat align 2 personality ptr @__gxx_personality_v0 !dbg !3822 {
  %2 = alloca ptr, align 8
  store ptr %0, ptr %2, align 8
  call void @llvm.dbg.declare(metadata ptr %2, metadata !3823, metadata !DIExpression()), !dbg !3825
  %3 = load ptr, ptr %2, align 8
  %4 = getelementptr inbounds %"struct.std::_Rb_tree_const_iterator", ptr %3, i32 0, i32 0, !dbg !3826
  %5 = load ptr, ptr %4, align 8, !dbg !3826
  %6 = invoke noundef ptr @_ZNKSt13_Rb_tree_nodeISt4pairIKNSt7__cxx1112basic_stringIcSt11char_traitsIcESaIcEEES6_EE9_M_valptrEv(ptr noundef nonnull align 8 dereferenceable(96) %5)
          to label %7 unwind label %8, !dbg !3827

7:                                                ; preds = %1
  ret ptr %6, !dbg !3828

8:                                                ; preds = %1
  %9 = landingpad { ptr, i32 }
          catch ptr null, !dbg !3827
  %10 = extractvalue { ptr, i32 } %9, 0, !dbg !3827
  call void @__clang_call_terminate(ptr %10) #21, !dbg !3827
  unreachable, !dbg !3827
}

; Function Attrs: mustprogress noinline optnone uwtable
define linkonce_odr dso_local noundef ptr @_ZN4Poco7AutoPtrINS_7ChannelEEptEv(ptr noundef nonnull align 8 dereferenceable(8) %0) #5 comdat align 2 personality ptr @__gxx_personality_v0 !dbg !3829 {
  %2 = alloca ptr, align 8
  %3 = alloca ptr, align 8
  %4 = alloca i32, align 4
  store ptr %0, ptr %2, align 8
  call void @llvm.dbg.declare(metadata ptr %2, metadata !3830, metadata !DIExpression()), !dbg !3831
  %5 = load ptr, ptr %2, align 8
  %6 = getelementptr inbounds %"class.Poco::AutoPtr", ptr %5, i32 0, i32 0, !dbg !3832
  %7 = load ptr, ptr %6, align 8, !dbg !3832
  %8 = icmp ne ptr %7, null, !dbg !3832
  br i1 %8, label %9, label %12, !dbg !3834

9:                                                ; preds = %1
  %10 = getelementptr inbounds %"class.Poco::AutoPtr", ptr %5, i32 0, i32 0, !dbg !3835
  %11 = load ptr, ptr %10, align 8, !dbg !3835
  ret ptr %11, !dbg !3836

12:                                               ; preds = %1
  %13 = call ptr @__cxa_allocate_exception(i64 56) #3, !dbg !3837
  invoke void @_ZN4Poco20NullPointerExceptionC1Ei(ptr noundef nonnull align 8 dereferenceable(52) %13, i32 noundef 0)
          to label %14 unwind label %15, !dbg !3838

14:                                               ; preds = %12
  call void @__cxa_throw(ptr %13, ptr @_ZTIN4Poco20NullPointerExceptionE, ptr @_ZN4Poco20NullPointerExceptionD1Ev) #22, !dbg !3837
  unreachable, !dbg !3837

15:                                               ; preds = %12
  %16 = landingpad { ptr, i32 }
          cleanup, !dbg !3839
  %17 = extractvalue { ptr, i32 } %16, 0, !dbg !3839
  store ptr %17, ptr %3, align 8, !dbg !3839
  %18 = extractvalue { ptr, i32 } %16, 1, !dbg !3839
  store i32 %18, ptr %4, align 4, !dbg !3839
  call void @__cxa_free_exception(ptr %13) #3, !dbg !3837
  br label %19, !dbg !3837

19:                                               ; preds = %15
  %20 = load ptr, ptr %3, align 8, !dbg !3837
  %21 = load i32, ptr %4, align 4, !dbg !3837
  %22 = insertvalue { ptr, i32 } poison, ptr %20, 0, !dbg !3837
  %23 = insertvalue { ptr, i32 } %22, i32 %21, 1, !dbg !3837
  resume { ptr, i32 } %23, !dbg !3837
}

; Function Attrs: mustprogress noinline nounwind optnone uwtable
define linkonce_odr dso_local noundef nonnull align 8 dereferenceable(8) ptr @_ZNSt23_Rb_tree_const_iteratorISt4pairIKNSt7__cxx1112basic_stringIcSt11char_traitsIcESaIcEEES6_EEppEv(ptr noundef nonnull align 8 dereferenceable(8) %0) #9 comdat align 2 !dbg !3840 {
  %2 = alloca ptr, align 8
  store ptr %0, ptr %2, align 8
  call void @llvm.dbg.declare(metadata ptr %2, metadata !3841, metadata !DIExpression()), !dbg !3843
  %3 = load ptr, ptr %2, align 8
  %4 = getelementptr inbounds %"struct.std::_Rb_tree_const_iterator", ptr %3, i32 0, i32 0, !dbg !3844
  %5 = load ptr, ptr %4, align 8, !dbg !3844
  %6 = call noundef ptr @_ZSt18_Rb_tree_incrementPKSt18_Rb_tree_node_base(ptr noundef %5) #17, !dbg !3845
  %7 = getelementptr inbounds %"struct.std::_Rb_tree_const_iterator", ptr %3, i32 0, i32 0, !dbg !3846
  store ptr %6, ptr %7, align 8, !dbg !3847
  ret ptr %3, !dbg !3848
}

declare void @_ZN4Poco19ColorConsoleChannelC1Ev(ptr noundef nonnull align 8 dereferenceable(72)) unnamed_addr #1

declare void @_ZN4Poco14ConsoleChannelC1Ev(ptr noundef nonnull align 8 dereferenceable(32)) unnamed_addr #1

declare noundef nonnull align 8 dereferenceable(68) ptr @_ZN4Poco6Logger6createERKNSt7__cxx1112basic_stringIcSt11char_traitsIcESaIcEEENS_7AutoPtrINS_7ChannelEEEi(ptr noundef nonnull align 8 dereferenceable(32), ptr noundef, i32 noundef) #1

; Function Attrs: noinline optnone uwtable
define linkonce_odr dso_local void @_ZN4Poco7AutoPtrINS_7ChannelEEC2ERKS2_(ptr noundef nonnull align 8 dereferenceable(8) %0, ptr noundef nonnull align 8 dereferenceable(8) %1) unnamed_addr #11 comdat align 2 !dbg !3849 {
  %3 = alloca ptr, align 8
  %4 = alloca ptr, align 8
  store ptr %0, ptr %3, align 8
  call void @llvm.dbg.declare(metadata ptr %3, metadata !3850, metadata !DIExpression()), !dbg !3851
  store ptr %1, ptr %4, align 8
  call void @llvm.dbg.declare(metadata ptr %4, metadata !3852, metadata !DIExpression()), !dbg !3853
  %5 = load ptr, ptr %3, align 8
  %6 = getelementptr inbounds %"class.Poco::AutoPtr", ptr %5, i32 0, i32 0, !dbg !3854
  %7 = load ptr, ptr %4, align 8, !dbg !3855
  %8 = getelementptr inbounds %"class.Poco::AutoPtr", ptr %7, i32 0, i32 0, !dbg !3856
  %9 = load ptr, ptr %8, align 8, !dbg !3856
  store ptr %9, ptr %6, align 8, !dbg !3854
  %10 = getelementptr inbounds %"class.Poco::AutoPtr", ptr %5, i32 0, i32 0, !dbg !3857
  %11 = load ptr, ptr %10, align 8, !dbg !3857
  %12 = icmp ne ptr %11, null, !dbg !3857
  br i1 %12, label %13, label %17, !dbg !3860

13:                                               ; preds = %2
  %14 = getelementptr inbounds %"class.Poco::AutoPtr", ptr %5, i32 0, i32 0, !dbg !3861
  %15 = load ptr, ptr %14, align 8, !dbg !3861
  %16 = getelementptr inbounds i8, ptr %15, i64 8, !dbg !3862
  call void @_ZNK4Poco16RefCountedObject9duplicateEv(ptr noundef nonnull align 8 dereferenceable(12) %16), !dbg !3862
  br label %17, !dbg !3861

17:                                               ; preds = %13, %2
  ret void, !dbg !3863
}

; Function Attrs: noinline nounwind optnone uwtable
define linkonce_odr dso_local void @_ZN4Poco7AutoPtrINS_7ChannelEED2Ev(ptr noundef nonnull align 8 dereferenceable(8) %0) unnamed_addr #4 comdat align 2 !dbg !3864 {
  %2 = alloca ptr, align 8
  store ptr %0, ptr %2, align 8
  call void @llvm.dbg.declare(metadata ptr %2, metadata !3865, metadata !DIExpression()), !dbg !3866
  %3 = load ptr, ptr %2, align 8
  %4 = getelementptr inbounds %"class.Poco::AutoPtr", ptr %3, i32 0, i32 0, !dbg !3867
  %5 = load ptr, ptr %4, align 8, !dbg !3867
  %6 = icmp ne ptr %5, null, !dbg !3867
  br i1 %6, label %7, label %11, !dbg !3870

7:                                                ; preds = %1
  %8 = getelementptr inbounds %"class.Poco::AutoPtr", ptr %3, i32 0, i32 0, !dbg !3871
  %9 = load ptr, ptr %8, align 8, !dbg !3871
  %10 = getelementptr inbounds i8, ptr %9, i64 8, !dbg !3872
  call void @_ZNK4Poco16RefCountedObject7releaseEv(ptr noundef nonnull align 8 dereferenceable(12) %10) #3, !dbg !3872
  br label %11, !dbg !3871

11:                                               ; preds = %7, %1
  ret void, !dbg !3873
}

; Function Attrs: mustprogress noinline nounwind optnone uwtable
define linkonce_odr dso_local void @_ZN3Log12StaticHelper9setLoggerEPN4Poco6LoggerE(ptr noundef nonnull align 8 dereferenceable(105) %0, ptr noundef %1) #9 comdat align 2 !dbg !3874 {
  %3 = alloca ptr, align 8
  %4 = alloca ptr, align 8
  store ptr %0, ptr %3, align 8
  call void @llvm.dbg.declare(metadata ptr %3, metadata !3875, metadata !DIExpression()), !dbg !3876
  store ptr %1, ptr %4, align 8
  call void @llvm.dbg.declare(metadata ptr %4, metadata !3877, metadata !DIExpression()), !dbg !3878
  %5 = load ptr, ptr %3, align 8
  %6 = load ptr, ptr %4, align 8, !dbg !3879
  %7 = getelementptr inbounds %"struct.Log::StaticHelper", ptr %5, i32 0, i32 0, !dbg !3880
  store ptr %6, ptr %7, align 8, !dbg !3881
  ret void, !dbg !3882
}

; Function Attrs: nounwind memory(none)
declare i32 @llvm.eh.typeid.for(ptr) #13

declare ptr @__cxa_begin_catch(ptr)

declare noundef nonnull align 8 dereferenceable(68) ptr @_ZN4Poco6Logger3getERKNSt7__cxx1112basic_stringIcSt11char_traitsIcESaIcEEE(ptr noundef nonnull align 8 dereferenceable(32)) #1

declare void @__cxa_end_catch()

; Function Attrs: noinline noreturn nounwind
define linkonce_odr hidden void @__clang_call_terminate(ptr noundef %0) #14 comdat {
  %2 = call ptr @__cxa_begin_catch(ptr %0) #3
  call void @_ZSt9terminatev() #21
  unreachable
}

declare void @_ZSt9terminatev()

; Function Attrs: mustprogress noinline nounwind optnone uwtable
define linkonce_odr dso_local noundef ptr @_ZNK3Log12StaticHelper9getLoggerEv(ptr noundef nonnull align 8 dereferenceable(105) %0) #9 comdat align 2 !dbg !3883 {
  %2 = alloca ptr, align 8
  store ptr %0, ptr %2, align 8
  call void @llvm.dbg.declare(metadata ptr %2, metadata !3884, metadata !DIExpression()), !dbg !3885
  %3 = load ptr, ptr %2, align 8
  %4 = getelementptr inbounds %"struct.Log::StaticHelper", ptr %3, i32 0, i32 0, !dbg !3886
  %5 = load ptr, ptr %4, align 8, !dbg !3886
  ret ptr %5, !dbg !3887
}

; Function Attrs: nounwind
declare noundef zeroext i1 @_ZNKSt7__cxx1112basic_stringIcSt11char_traitsIcESaIcEE5emptyEv(ptr noundef nonnull align 8 dereferenceable(32)) #2

declare void @_ZNSt7__cxx1112basic_stringIcSt11char_traitsIcESaIcEEC1ERKS4_(ptr noundef nonnull align 8 dereferenceable(32), ptr noundef nonnull align 8 dereferenceable(32)) unnamed_addr #1

declare void @_ZN4Poco6Logger8setLevelERKNSt7__cxx1112basic_stringIcSt11char_traitsIcESaIcEEE(ptr noundef nonnull align 8 dereferenceable(68), ptr noundef nonnull align 8 dereferenceable(32)) #1

; Function Attrs: mustprogress noinline optnone uwtable
define linkonce_odr dso_local void @_ZN3Log12StaticHelper8setLevelERKNSt7__cxx1112basic_stringIcSt11char_traitsIcESaIcEEE(ptr noundef nonnull align 8 dereferenceable(105) %0, ptr noundef nonnull align 8 dereferenceable(32) %1) #5 comdat align 2 !dbg !3888 {
  %3 = alloca ptr, align 8
  %4 = alloca ptr, align 8
  store ptr %0, ptr %3, align 8
  call void @llvm.dbg.declare(metadata ptr %3, metadata !3889, metadata !DIExpression()), !dbg !3890
  store ptr %1, ptr %4, align 8
  call void @llvm.dbg.declare(metadata ptr %4, metadata !3891, metadata !DIExpression()), !dbg !3892
  %5 = load ptr, ptr %3, align 8
  %6 = load ptr, ptr %4, align 8, !dbg !3893
  %7 = getelementptr inbounds %"struct.Log::StaticHelper", ptr %5, i32 0, i32 2, !dbg !3894
  %8 = call noundef nonnull align 8 dereferenceable(32) ptr @_ZNSt7__cxx1112basic_stringIcSt11char_traitsIcESaIcEEaSERKS4_(ptr noundef nonnull align 8 dereferenceable(32) %7, ptr noundef nonnull align 8 dereferenceable(32) %6), !dbg !3895
  ret void, !dbg !3896
}

; Function Attrs: nounwind
declare i64 @time(ptr noundef) #2

declare void @_ZNSt7__cxx1119basic_ostringstreamIcSt11char_traitsIcESaIcEE3strERKNS_12basic_stringIcS2_S3_EE(ptr noundef nonnull align 8 dereferenceable(112), ptr noundef nonnull align 8 dereferenceable(32)) #1

declare void @_ZNSt9basic_iosIcSt11char_traitsIcEE5clearESt12_Ios_Iostate(ptr noundef nonnull align 8 dereferenceable(264), i32 noundef) #1

declare noundef nonnull align 8 dereferenceable(8) ptr @_ZStlsISt11char_traitsIcEERSt13basic_ostreamIcT_ES5_PKc(ptr noundef nonnull align 8 dereferenceable(8), ptr noundef) #1

; Function Attrs: nounwind
declare i64 @strftime(ptr noundef, i64 noundef, ptr noundef, ptr noundef) #2

; Function Attrs: nounwind
declare ptr @localtime(ptr noundef) #2

; Function Attrs: mustprogress noinline nounwind optnone uwtable
define linkonce_odr dso_local noundef i32 @_ZNK4Poco6Logger8getLevelEv(ptr noundef nonnull align 8 dereferenceable(68) %0) #9 comdat align 2 !dbg !3897 {
  %2 = alloca ptr, align 8
  store ptr %0, ptr %2, align 8
  call void @llvm.dbg.declare(metadata ptr %2, metadata !3903, metadata !DIExpression()), !dbg !3905
  %3 = load ptr, ptr %2, align 8
  %4 = getelementptr inbounds %"class.Poco::Logger", ptr %3, i32 0, i32 4, !dbg !3906
  %5 = load i32, ptr %4, align 8, !dbg !3906
  ret i32 %5, !dbg !3907
}

; Function Attrs: mustprogress noinline optnone uwtable
define dso_local noundef nonnull align 8 dereferenceable(68) ptr @_ZN3Log6loggerEv() #5 personality ptr @__gxx_personality_v0 !dbg !3908 {
  %1 = alloca ptr, align 8
  %2 = alloca ptr, align 8
  %3 = alloca %"class.std::__cxx11::basic_string", align 8
  %4 = alloca i1, align 1
  %5 = alloca ptr, align 8
  %6 = alloca i32, align 4
  call void @llvm.dbg.declare(metadata ptr %2, metadata !3911, metadata !DIExpression()), !dbg !3912
  %7 = call noundef ptr @_ZNK3Log12StaticHelper20getThreadLocalLoggerEv(ptr noundef nonnull align 8 dereferenceable(105) @_ZN3LogL6StaticE), !dbg !3913
  store ptr %7, ptr %2, align 8, !dbg !3912
  %8 = load ptr, ptr %2, align 8, !dbg !3914
  %9 = icmp ne ptr %8, null, !dbg !3916
  br i1 %9, label %10, label %12, !dbg !3917

10:                                               ; preds = %0
  %11 = load ptr, ptr %2, align 8, !dbg !3918
  store ptr %11, ptr %1, align 8, !dbg !3919
  br label %38, !dbg !3919

12:                                               ; preds = %0
  %13 = call noundef ptr @_ZNK3Log12StaticHelper9getLoggerEv(ptr noundef nonnull align 8 dereferenceable(105) @_ZN3LogL6StaticE), !dbg !3920
  store ptr %13, ptr %2, align 8, !dbg !3921
  %14 = load ptr, ptr %2, align 8, !dbg !3922
  %15 = icmp ne ptr %14, null, !dbg !3922
  store i1 false, ptr %4, align 1
  br i1 %15, label %16, label %18, !dbg !3922

16:                                               ; preds = %12
  %17 = load ptr, ptr %2, align 8, !dbg !3923
  br label %26, !dbg !3922

18:                                               ; preds = %12
  %19 = call noundef zeroext i1 @_ZNK3Log12StaticHelper9getInitedEv(ptr noundef nonnull align 8 dereferenceable(105) @_ZN3LogL6StaticE), !dbg !3924
  br i1 %19, label %20, label %22, !dbg !3925

20:                                               ; preds = %18
  %21 = call noundef nonnull align 8 dereferenceable(32) ptr @_ZNK3Log12StaticHelper7getNameB5cxx11Ev(ptr noundef nonnull align 8 dereferenceable(105) @_ZN3LogL6StaticE), !dbg !3926
  call void @_ZNSt7__cxx1112basic_stringIcSt11char_traitsIcESaIcEEC1ERKS4_(ptr noundef nonnull align 8 dereferenceable(32) %3, ptr noundef nonnull align 8 dereferenceable(32) %21), !dbg !3927
  br label %23, !dbg !3925

22:                                               ; preds = %18
  call void @_ZNSt7__cxx1112basic_stringIcSt11char_traitsIcESaIcEEC1Ev(ptr noundef nonnull align 8 dereferenceable(32) %3) #3, !dbg !3928
  br label %23, !dbg !3925

23:                                               ; preds = %22, %20
  store i1 true, ptr %4, align 1, !dbg !3925
  %24 = invoke noundef nonnull align 8 dereferenceable(68) ptr @_ZN4Poco6Logger3getERKNSt7__cxx1112basic_stringIcSt11char_traitsIcESaIcEEE(ptr noundef nonnull align 8 dereferenceable(32) %3)
          to label %25 unwind label %31, !dbg !3929

25:                                               ; preds = %23
  br label %26, !dbg !3922

26:                                               ; preds = %25, %16
  %27 = phi ptr [ %17, %16 ], [ %24, %25 ], !dbg !3922
  store ptr %27, ptr %1, align 8, !dbg !3930
  %28 = load i1, ptr %4, align 1, !dbg !3930
  br i1 %28, label %29, label %30, !dbg !3930

29:                                               ; preds = %26
  call void @_ZNSt7__cxx1112basic_stringIcSt11char_traitsIcESaIcEED1Ev(ptr noundef nonnull align 8 dereferenceable(32) %3) #3, !dbg !3930
  br label %30, !dbg !3930

30:                                               ; preds = %29, %26
  br label %38, !dbg !3930

31:                                               ; preds = %23
  %32 = landingpad { ptr, i32 }
          cleanup, !dbg !3931
  %33 = extractvalue { ptr, i32 } %32, 0, !dbg !3931
  store ptr %33, ptr %5, align 8, !dbg !3931
  %34 = extractvalue { ptr, i32 } %32, 1, !dbg !3931
  store i32 %34, ptr %6, align 4, !dbg !3931
  %35 = load i1, ptr %4, align 1, !dbg !3930
  br i1 %35, label %36, label %37, !dbg !3930

36:                                               ; preds = %31
  call void @_ZNSt7__cxx1112basic_stringIcSt11char_traitsIcESaIcEED1Ev(ptr noundef nonnull align 8 dereferenceable(32) %3) #3, !dbg !3930
  br label %37, !dbg !3930

37:                                               ; preds = %36, %31
  br label %40, !dbg !3930

38:                                               ; preds = %30, %10
  %39 = load ptr, ptr %1, align 8, !dbg !3931
  ret ptr %39, !dbg !3931

40:                                               ; preds = %37
  %41 = load ptr, ptr %5, align 8, !dbg !3930
  %42 = load i32, ptr %6, align 4, !dbg !3930
  %43 = insertvalue { ptr, i32 } poison, ptr %41, 0, !dbg !3930
  %44 = insertvalue { ptr, i32 } %43, i32 %42, 1, !dbg !3930
  resume { ptr, i32 } %44, !dbg !3930
}

; Function Attrs: mustprogress noinline nounwind optnone uwtable
define linkonce_odr dso_local noundef zeroext i1 @_ZN3Log16isShutdownCalledEv() #9 comdat !dbg !3932 {
  %1 = load i8, ptr @_ZN3Log10IsShutdownE, align 1, !dbg !3933
  %2 = trunc i8 %1 to i1, !dbg !3933
  ret i1 %2, !dbg !3934
}

; Function Attrs: mustprogress noinline nounwind optnone uwtable
define linkonce_odr dso_local noundef zeroext i1 @_ZNK4Poco6Logger11informationEv(ptr noundef nonnull align 8 dereferenceable(68) %0) #9 comdat align 2 !dbg !3935 {
  %2 = alloca ptr, align 8
  store ptr %0, ptr %2, align 8
  call void @llvm.dbg.declare(metadata ptr %2, metadata !3939, metadata !DIExpression()), !dbg !3940
  %3 = load ptr, ptr %2, align 8
  %4 = getelementptr inbounds %"class.Poco::Logger", ptr %3, i32 0, i32 4, !dbg !3941
  %5 = load i32, ptr %4, align 8, !dbg !3941
  %6 = icmp sge i32 %5, 6, !dbg !3942
  ret i1 %6, !dbg !3943
}

declare void @_ZNSt7__cxx1119basic_ostringstreamIcSt11char_traitsIcESaIcEEC1ERKNS_12basic_stringIcS2_S3_EESt13_Ios_Openmode(ptr noundef nonnull align 8 dereferenceable(112), ptr noundef nonnull align 8 dereferenceable(32), i32 noundef) unnamed_addr #1

declare noundef nonnull align 8 dereferenceable(8) ptr @_ZNSolsEPFRSt8ios_baseS0_E(ptr noundef nonnull align 8 dereferenceable(8), ptr noundef) #1

; Function Attrs: mustprogress noinline optnone uwtable
define linkonce_odr dso_local noundef nonnull align 8 dereferenceable(216) ptr @_ZSt9boolalphaRSt8ios_base(ptr noundef nonnull align 8 dereferenceable(216) %0) #5 comdat !dbg !3944 {
  %2 = alloca ptr, align 8
  store ptr %0, ptr %2, align 8
  call void @llvm.dbg.declare(metadata ptr %2, metadata !3948, metadata !DIExpression()), !dbg !3949
  %3 = load ptr, ptr %2, align 8, !dbg !3950
  %4 = call noundef i32 @_ZNSt8ios_base4setfESt13_Ios_Fmtflags(ptr noundef nonnull align 8 dereferenceable(216) %3, i32 noundef 1), !dbg !3951
  %5 = load ptr, ptr %2, align 8, !dbg !3952
  ret ptr %5, !dbg !3953
}

declare noundef nonnull align 8 dereferenceable(8) ptr @_ZNSo5flushEv(ptr noundef nonnull align 8 dereferenceable(8)) #1

; Function Attrs: mustprogress noinline nounwind optnone uwtable
define linkonce_odr dso_local noundef nonnull align 8 dereferenceable(32) ptr @_ZNK4Poco6Logger4nameB5cxx11Ev(ptr noundef nonnull align 8 dereferenceable(68) %0) #9 comdat align 2 !dbg !3954 {
  %2 = alloca ptr, align 8
  store ptr %0, ptr %2, align 8
  call void @llvm.dbg.declare(metadata ptr %2, metadata !3958, metadata !DIExpression()), !dbg !3959
  %3 = load ptr, ptr %2, align 8
  %4 = getelementptr inbounds %"class.Poco::Logger", ptr %3, i32 0, i32 2, !dbg !3960
  ret ptr %4, !dbg !3961
}

declare void @_ZN4Poco7MessageC1ERKNSt7__cxx1112basic_stringIcSt11char_traitsIcESaIcEEES8_NS0_8PriorityE(ptr noundef nonnull align 8 dereferenceable(152), ptr noundef nonnull align 8 dereferenceable(32), ptr noundef nonnull align 8 dereferenceable(32), i32 noundef) unnamed_addr #1

; Function Attrs: nounwind
declare void @_ZN4Poco7MessageD1Ev(ptr noundef nonnull align 8 dereferenceable(152)) unnamed_addr #2

; Function Attrs: nounwind
declare void @_ZNSt7__cxx1119basic_ostringstreamIcSt11char_traitsIcESaIcEED1Ev(ptr noundef nonnull align 8 dereferenceable(112)) unnamed_addr #2

; Function Attrs: mustprogress noinline nounwind optnone uwtable
define linkonce_odr dso_local noundef ptr @_ZNK3Log12StaticHelper20getThreadLocalLoggerEv(ptr noundef nonnull align 8 dereferenceable(105) %0) #9 comdat align 2 !dbg !3962 {
  %2 = alloca ptr, align 8
  store ptr %0, ptr %2, align 8
  call void @llvm.dbg.declare(metadata ptr %2, metadata !3963, metadata !DIExpression()), !dbg !3964
  %3 = load ptr, ptr %2, align 8
  %4 = call align 8 ptr @llvm.threadlocal.address.p0(ptr align 8 @_ZN3Log12StaticHelper18_threadLocalLoggerE), !dbg !3965
  %5 = load ptr, ptr %4, align 8, !dbg !3965
  ret ptr %5, !dbg !3966
}

; Function Attrs: nounwind
declare void @_ZNSt7__cxx1112basic_stringIcSt11char_traitsIcESaIcEEC1Ev(ptr noundef nonnull align 8 dereferenceable(32)) unnamed_addr #2

; Function Attrs: mustprogress noinline optnone uwtable
define dso_local void @_ZN3Log8shutdownEv() #5 !dbg !3967 {
  store i8 1, ptr @_ZN3Log10IsShutdownE, align 1, !dbg !3968
  call void @_ZN4Poco6Logger8shutdownEv(), !dbg !3969
  %1 = call noundef nonnull align 8 dereferenceable(8) ptr @_ZSt5flushIcSt11char_traitsIcEERSt13basic_ostreamIT_T0_ES6_(ptr noundef nonnull align 8 dereferenceable(8) @_ZSt4cout), !dbg !3970
  %2 = load ptr, ptr @stdout, align 8, !dbg !3971
  %3 = call i32 @fflush(ptr noundef %2), !dbg !3972
  %4 = call noundef nonnull align 8 dereferenceable(8) ptr @_ZSt5flushIcSt11char_traitsIcEERSt13basic_ostreamIT_T0_ES6_(ptr noundef nonnull align 8 dereferenceable(8) @_ZSt4cerr), !dbg !3973
  %5 = load ptr, ptr @stderr, align 8, !dbg !3974
  %6 = call i32 @fflush(ptr noundef %5), !dbg !3975
  ret void, !dbg !3976
}

declare void @_ZN4Poco6Logger8shutdownEv() #1

declare noundef nonnull align 8 dereferenceable(8) ptr @_ZSt5flushIcSt11char_traitsIcEERSt13basic_ostreamIT_T0_ES6_(ptr noundef nonnull align 8 dereferenceable(8)) #1

declare i32 @fflush(ptr noundef) #1

; Function Attrs: mustprogress noinline optnone uwtable
define dso_local void @_ZN3Log22setThreadLocalLogLevelERKNSt7__cxx1112basic_stringIcSt11char_traitsIcESaIcEEE(ptr noundef nonnull align 8 dereferenceable(32) %0) #5 personality ptr @__gxx_personality_v0 !dbg !1332 {
  %2 = alloca ptr, align 8
  %3 = alloca %"class.Poco::AutoPtr", align 8
  %4 = alloca ptr, align 8
  %5 = alloca %"class.std::__cxx11::basic_string", align 8
  %6 = alloca %"class.std::__cxx11::basic_string", align 8
  %7 = alloca ptr, align 8
  %8 = alloca i32, align 4
  %9 = alloca %"class.std::__cxx11::basic_string", align 8
  %10 = alloca %"class.Poco::AutoPtr", align 8
  store ptr %0, ptr %2, align 8
  call void @llvm.dbg.declare(metadata ptr %2, metadata !3977, metadata !DIExpression()), !dbg !3978
  %11 = call noundef ptr @_ZNK3Log12StaticHelper9getLoggerEv(ptr noundef nonnull align 8 dereferenceable(105) @_ZN3LogL6StaticE), !dbg !3979
  %12 = icmp ne ptr %11, null, !dbg !3981
  br i1 %12, label %14, label %13, !dbg !3982

13:                                               ; preds = %1
  br label %31, !dbg !3983

14:                                               ; preds = %1
  call void @llvm.dbg.declare(metadata ptr %3, metadata !3985, metadata !DIExpression()), !dbg !3987
  %15 = call noundef ptr @_ZNK3Log12StaticHelper9getLoggerEv(ptr noundef nonnull align 8 dereferenceable(105) @_ZN3LogL6StaticE), !dbg !3988
  call void @_ZNK4Poco6Logger10getChannelEv(ptr sret(%"class.Poco::AutoPtr") align 8 %3, ptr noundef nonnull align 8 dereferenceable(68) %15), !dbg !3989
  call void @llvm.dbg.declare(metadata ptr %4, metadata !3990, metadata !DIExpression()), !dbg !3991
  %16 = invoke noundef nonnull align 8 dereferenceable(32) ptr @_ZNK3Log12StaticHelper7getNameB5cxx11Ev(ptr noundef nonnull align 8 dereferenceable(105) @_ZN3LogL6StaticE)
          to label %17 unwind label %32, !dbg !3992

17:                                               ; preds = %14
  invoke void @_ZStplIcSt11char_traitsIcESaIcEENSt7__cxx1112basic_stringIT_T0_T1_EERKS8_PKS5_(ptr sret(%"class.std::__cxx11::basic_string") align 8 %6, ptr noundef nonnull align 8 dereferenceable(32) %16, ptr noundef @.str.19)
          to label %18 unwind label %32, !dbg !3993

18:                                               ; preds = %17
  %19 = load i32, ptr @_ZZN3Log22setThreadLocalLogLevelERKNSt7__cxx1112basic_stringIcSt11char_traitsIcESaIcEEEE7counter, align 4, !dbg !3994
  %20 = add nsw i32 %19, 1, !dbg !3994
  store i32 %20, ptr @_ZZN3Log22setThreadLocalLogLevelERKNSt7__cxx1112basic_stringIcSt11char_traitsIcESaIcEEEE7counter, align 4, !dbg !3994
  invoke void @_ZNSt7__cxx119to_stringEi(ptr sret(%"class.std::__cxx11::basic_string") align 8 %9, i32 noundef %19)
          to label %21 unwind label %36, !dbg !3995

21:                                               ; preds = %18
  invoke void @_ZStplIcSt11char_traitsIcESaIcEENSt7__cxx1112basic_stringIT_T0_T1_EEOS8_S9_(ptr sret(%"class.std::__cxx11::basic_string") align 8 %5, ptr noundef nonnull align 8 dereferenceable(32) %6, ptr noundef nonnull align 8 dereferenceable(32) %9)
          to label %22 unwind label %40, !dbg !3996

22:                                               ; preds = %21
  invoke void @_ZN4Poco7AutoPtrINS_7ChannelEEC2ERKS2_(ptr noundef nonnull align 8 dereferenceable(8) %10, ptr noundef nonnull align 8 dereferenceable(8) %3)
          to label %23 unwind label %44, !dbg !3997

23:                                               ; preds = %22
  %24 = load ptr, ptr %2, align 8, !dbg !3998
  %25 = invoke noundef i32 @_ZN4Poco6Logger10parseLevelERKNSt7__cxx1112basic_stringIcSt11char_traitsIcESaIcEEE(ptr noundef nonnull align 8 dereferenceable(32) %24)
          to label %26 unwind label %48, !dbg !3999

26:                                               ; preds = %23
  %27 = invoke noundef nonnull align 8 dereferenceable(68) ptr @_ZN4Poco6Logger6createERKNSt7__cxx1112basic_stringIcSt11char_traitsIcESaIcEEENS_7AutoPtrINS_7ChannelEEEi(ptr noundef nonnull align 8 dereferenceable(32) %5, ptr noundef %10, i32 noundef %25)
          to label %28 unwind label %48, !dbg !4000

28:                                               ; preds = %26
  call void @_ZN4Poco7AutoPtrINS_7ChannelEED2Ev(ptr noundef nonnull align 8 dereferenceable(8) %10) #3, !dbg !4000
  call void @_ZNSt7__cxx1112basic_stringIcSt11char_traitsIcESaIcEED1Ev(ptr noundef nonnull align 8 dereferenceable(32) %5) #3, !dbg !4000
  call void @_ZNSt7__cxx1112basic_stringIcSt11char_traitsIcESaIcEED1Ev(ptr noundef nonnull align 8 dereferenceable(32) %9) #3, !dbg !4000
  call void @_ZNSt7__cxx1112basic_stringIcSt11char_traitsIcESaIcEED1Ev(ptr noundef nonnull align 8 dereferenceable(32) %6) #3, !dbg !4000
  store ptr %27, ptr %4, align 8, !dbg !3991
  %29 = load ptr, ptr %4, align 8, !dbg !4001
  invoke void @_ZN3Log12StaticHelper20setThreadLocalLoggerEPN4Poco6LoggerE(ptr noundef nonnull align 8 dereferenceable(105) @_ZN3LogL6StaticE, ptr noundef %29)
          to label %30 unwind label %32, !dbg !4002

30:                                               ; preds = %28
  call void @_ZN4Poco7AutoPtrINS_7ChannelEED2Ev(ptr noundef nonnull align 8 dereferenceable(8) %3) #3, !dbg !4003
  br label %31, !dbg !4003

31:                                               ; preds = %30, %13
  ret void, !dbg !4003

32:                                               ; preds = %28, %17, %14
  %33 = landingpad { ptr, i32 }
          cleanup, !dbg !4003
  %34 = extractvalue { ptr, i32 } %33, 0, !dbg !4003
  store ptr %34, ptr %7, align 8, !dbg !4003
  %35 = extractvalue { ptr, i32 } %33, 1, !dbg !4003
  store i32 %35, ptr %8, align 4, !dbg !4003
  br label %55, !dbg !4003

36:                                               ; preds = %18
  %37 = landingpad { ptr, i32 }
          cleanup, !dbg !4003
  %38 = extractvalue { ptr, i32 } %37, 0, !dbg !4003
  store ptr %38, ptr %7, align 8, !dbg !4003
  %39 = extractvalue { ptr, i32 } %37, 1, !dbg !4003
  store i32 %39, ptr %8, align 4, !dbg !4003
  br label %54, !dbg !4003

40:                                               ; preds = %21
  %41 = landingpad { ptr, i32 }
          cleanup, !dbg !4003
  %42 = extractvalue { ptr, i32 } %41, 0, !dbg !4003
  store ptr %42, ptr %7, align 8, !dbg !4003
  %43 = extractvalue { ptr, i32 } %41, 1, !dbg !4003
  store i32 %43, ptr %8, align 4, !dbg !4003
  br label %53, !dbg !4003

44:                                               ; preds = %22
  %45 = landingpad { ptr, i32 }
          cleanup, !dbg !4003
  %46 = extractvalue { ptr, i32 } %45, 0, !dbg !4003
  store ptr %46, ptr %7, align 8, !dbg !4003
  %47 = extractvalue { ptr, i32 } %45, 1, !dbg !4003
  store i32 %47, ptr %8, align 4, !dbg !4003
  br label %52, !dbg !4003

48:                                               ; preds = %26, %23
  %49 = landingpad { ptr, i32 }
          cleanup, !dbg !4003
  %50 = extractvalue { ptr, i32 } %49, 0, !dbg !4003
  store ptr %50, ptr %7, align 8, !dbg !4003
  %51 = extractvalue { ptr, i32 } %49, 1, !dbg !4003
  store i32 %51, ptr %8, align 4, !dbg !4003
  call void @_ZN4Poco7AutoPtrINS_7ChannelEED2Ev(ptr noundef nonnull align 8 dereferenceable(8) %10) #3, !dbg !4000
  br label %52, !dbg !4000

52:                                               ; preds = %48, %44
  call void @_ZNSt7__cxx1112basic_stringIcSt11char_traitsIcESaIcEED1Ev(ptr noundef nonnull align 8 dereferenceable(32) %5) #3, !dbg !4000
  br label %53, !dbg !4000

53:                                               ; preds = %52, %40
  call void @_ZNSt7__cxx1112basic_stringIcSt11char_traitsIcESaIcEED1Ev(ptr noundef nonnull align 8 dereferenceable(32) %9) #3, !dbg !4000
  br label %54, !dbg !4000

54:                                               ; preds = %53, %36
  call void @_ZNSt7__cxx1112basic_stringIcSt11char_traitsIcESaIcEED1Ev(ptr noundef nonnull align 8 dereferenceable(32) %6) #3, !dbg !4000
  br label %55, !dbg !4000

55:                                               ; preds = %54, %32
  call void @_ZN4Poco7AutoPtrINS_7ChannelEED2Ev(ptr noundef nonnull align 8 dereferenceable(8) %3) #3, !dbg !4003
  br label %56, !dbg !4003

56:                                               ; preds = %55
  %57 = load ptr, ptr %7, align 8, !dbg !4003
  %58 = load i32, ptr %8, align 4, !dbg !4003
  %59 = insertvalue { ptr, i32 } poison, ptr %57, 0, !dbg !4003
  %60 = insertvalue { ptr, i32 } %59, i32 %58, 1, !dbg !4003
  resume { ptr, i32 } %60, !dbg !4003
}

declare void @_ZNK4Poco6Logger10getChannelEv(ptr sret(%"class.Poco::AutoPtr") align 8, ptr noundef nonnull align 8 dereferenceable(68)) #1

; Function Attrs: mustprogress noinline optnone uwtable
define linkonce_odr dso_local void @_ZStplIcSt11char_traitsIcESaIcEENSt7__cxx1112basic_stringIT_T0_T1_EEOS8_S9_(ptr noalias sret(%"class.std::__cxx11::basic_string") align 8 %0, ptr noundef nonnull align 8 dereferenceable(32) %1, ptr noundef nonnull align 8 dereferenceable(32) %2) #5 comdat !dbg !4004 {
  %4 = alloca ptr, align 8
  %5 = alloca ptr, align 8
  %6 = alloca ptr, align 8
  %7 = alloca i8, align 1
  %8 = alloca i64, align 8
  store ptr %0, ptr %4, align 8
  store ptr %1, ptr %5, align 8
  call void @llvm.dbg.declare(metadata ptr %5, metadata !4009, metadata !DIExpression()), !dbg !4010
  store ptr %2, ptr %6, align 8
  call void @llvm.dbg.declare(metadata ptr %6, metadata !4011, metadata !DIExpression()), !dbg !4012
  call void @llvm.dbg.declare(metadata ptr %7, metadata !4013, metadata !DIExpression()), !dbg !4014
  store i8 0, ptr %7, align 1, !dbg !4014
  store i8 1, ptr %7, align 1, !dbg !4015
  %9 = load i8, ptr %7, align 1, !dbg !4017
  %10 = trunc i8 %9 to i1, !dbg !4017
  br i1 %10, label %11, label %31, !dbg !4019

11:                                               ; preds = %3
  call void @llvm.dbg.declare(metadata ptr %8, metadata !4020, metadata !DIExpression()), !dbg !4022
  %12 = load ptr, ptr %5, align 8, !dbg !4023
  %13 = call noundef i64 @_ZNKSt7__cxx1112basic_stringIcSt11char_traitsIcESaIcEE4sizeEv(ptr noundef nonnull align 8 dereferenceable(32) %12) #3, !dbg !4024
  %14 = load ptr, ptr %6, align 8, !dbg !4025
  %15 = call noundef i64 @_ZNKSt7__cxx1112basic_stringIcSt11char_traitsIcESaIcEE4sizeEv(ptr noundef nonnull align 8 dereferenceable(32) %14) #3, !dbg !4026
  %16 = add i64 %13, %15, !dbg !4027
  store i64 %16, ptr %8, align 8, !dbg !4022
  %17 = load i64, ptr %8, align 8, !dbg !4028
  %18 = load ptr, ptr %5, align 8, !dbg !4030
  %19 = call noundef i64 @_ZNKSt7__cxx1112basic_stringIcSt11char_traitsIcESaIcEE8capacityEv(ptr noundef nonnull align 8 dereferenceable(32) %18) #3, !dbg !4031
  %20 = icmp ugt i64 %17, %19, !dbg !4032
  br i1 %20, label %21, label %30, !dbg !4033

21:                                               ; preds = %11
  %22 = load i64, ptr %8, align 8, !dbg !4034
  %23 = load ptr, ptr %6, align 8, !dbg !4035
  %24 = call noundef i64 @_ZNKSt7__cxx1112basic_stringIcSt11char_traitsIcESaIcEE8capacityEv(ptr noundef nonnull align 8 dereferenceable(32) %23) #3, !dbg !4036
  %25 = icmp ule i64 %22, %24, !dbg !4037
  br i1 %25, label %26, label %30, !dbg !4038

26:                                               ; preds = %21
  %27 = load ptr, ptr %6, align 8, !dbg !4039
  %28 = load ptr, ptr %5, align 8, !dbg !4040
  %29 = call noundef nonnull align 8 dereferenceable(32) ptr @_ZNSt7__cxx1112basic_stringIcSt11char_traitsIcESaIcEE6insertEmRKS4_(ptr noundef nonnull align 8 dereferenceable(32) %27, i64 noundef 0, ptr noundef nonnull align 8 dereferenceable(32) %28), !dbg !4041
  call void @_ZNSt7__cxx1112basic_stringIcSt11char_traitsIcESaIcEEC1EOS4_(ptr noundef nonnull align 8 dereferenceable(32) %0, ptr noundef nonnull align 8 dereferenceable(32) %29) #3, !dbg !4042
  br label %35, !dbg !4043

30:                                               ; preds = %21, %11
  br label %31, !dbg !4044

31:                                               ; preds = %30, %3
  %32 = load ptr, ptr %5, align 8, !dbg !4045
  %33 = load ptr, ptr %6, align 8, !dbg !4046
  %34 = call noundef nonnull align 8 dereferenceable(32) ptr @_ZNSt7__cxx1112basic_stringIcSt11char_traitsIcESaIcEE6appendERKS4_(ptr noundef nonnull align 8 dereferenceable(32) %32, ptr noundef nonnull align 8 dereferenceable(32) %33), !dbg !4047
  call void @_ZNSt7__cxx1112basic_stringIcSt11char_traitsIcESaIcEEC1EOS4_(ptr noundef nonnull align 8 dereferenceable(32) %0, ptr noundef nonnull align 8 dereferenceable(32) %34) #3, !dbg !4048
  br label %35, !dbg !4049

35:                                               ; preds = %31, %26
  ret void, !dbg !4050
}

; Function Attrs: mustprogress noinline optnone uwtable
define linkonce_odr dso_local void @_ZStplIcSt11char_traitsIcESaIcEENSt7__cxx1112basic_stringIT_T0_T1_EERKS8_PKS5_(ptr noalias sret(%"class.std::__cxx11::basic_string") align 8 %0, ptr noundef nonnull align 8 dereferenceable(32) %1, ptr noundef %2) #5 comdat personality ptr @__gxx_personality_v0 !dbg !4051 {
  %4 = alloca ptr, align 8
  %5 = alloca ptr, align 8
  %6 = alloca ptr, align 8
  %7 = alloca i1, align 1
  %8 = alloca ptr, align 8
  %9 = alloca i32, align 4
  store ptr %0, ptr %4, align 8
  store ptr %1, ptr %5, align 8
  call void @llvm.dbg.declare(metadata ptr %5, metadata !4054, metadata !DIExpression()), !dbg !4055
  store ptr %2, ptr %6, align 8
  call void @llvm.dbg.declare(metadata ptr %6, metadata !4056, metadata !DIExpression()), !dbg !4057
  store i1 false, ptr %7, align 1, !dbg !4058
  call void @llvm.dbg.declare(metadata ptr %4, metadata !4059, metadata !DIExpression(DW_OP_deref)), !dbg !4060
  %10 = load ptr, ptr %5, align 8, !dbg !4061
  call void @_ZNSt7__cxx1112basic_stringIcSt11char_traitsIcESaIcEEC1ERKS4_(ptr noundef nonnull align 8 dereferenceable(32) %0, ptr noundef nonnull align 8 dereferenceable(32) %10), !dbg !4060
  %11 = load ptr, ptr %6, align 8, !dbg !4062
  %12 = invoke noundef nonnull align 8 dereferenceable(32) ptr @_ZNSt7__cxx1112basic_stringIcSt11char_traitsIcESaIcEE6appendEPKc(ptr noundef nonnull align 8 dereferenceable(32) %0, ptr noundef %11)
          to label %13 unwind label %15, !dbg !4063

13:                                               ; preds = %3
  store i1 true, ptr %7, align 1, !dbg !4064
  %14 = load i1, ptr %7, align 1, !dbg !4065
  br i1 %14, label %20, label %19, !dbg !4065

15:                                               ; preds = %3
  %16 = landingpad { ptr, i32 }
          cleanup, !dbg !4065
  %17 = extractvalue { ptr, i32 } %16, 0, !dbg !4065
  store ptr %17, ptr %8, align 8, !dbg !4065
  %18 = extractvalue { ptr, i32 } %16, 1, !dbg !4065
  store i32 %18, ptr %9, align 4, !dbg !4065
  call void @_ZNSt7__cxx1112basic_stringIcSt11char_traitsIcESaIcEED1Ev(ptr noundef nonnull align 8 dereferenceable(32) %0) #3, !dbg !4065
  br label %21, !dbg !4065

19:                                               ; preds = %13
  call void @_ZNSt7__cxx1112basic_stringIcSt11char_traitsIcESaIcEED1Ev(ptr noundef nonnull align 8 dereferenceable(32) %0) #3, !dbg !4065
  br label %20, !dbg !4065

20:                                               ; preds = %19, %13
  ret void, !dbg !4065

21:                                               ; preds = %15
  %22 = load ptr, ptr %8, align 8, !dbg !4065
  %23 = load i32, ptr %9, align 4, !dbg !4065
  %24 = insertvalue { ptr, i32 } poison, ptr %22, 0, !dbg !4065
  %25 = insertvalue { ptr, i32 } %24, i32 %23, 1, !dbg !4065
  resume { ptr, i32 } %25, !dbg !4065
}

; Function Attrs: mustprogress noinline optnone uwtable
define linkonce_odr dso_local void @_ZNSt7__cxx119to_stringEi(ptr noalias sret(%"class.std::__cxx11::basic_string") align 8 %0, i32 noundef %1) #5 comdat personality ptr @__gxx_personality_v0 !dbg !4066 {
  %3 = alloca ptr, align 8
  %4 = alloca i32, align 4
  %5 = alloca i8, align 1
  %6 = alloca i32, align 4
  %7 = alloca i32, align 4
  %8 = alloca i1, align 1
  %9 = alloca %"class.std::allocator", align 1
  %10 = alloca ptr, align 8
  %11 = alloca i32, align 4
  store ptr %0, ptr %3, align 8
  store i32 %1, ptr %4, align 4
  call void @llvm.dbg.declare(metadata ptr %4, metadata !4069, metadata !DIExpression()), !dbg !4070
  call void @llvm.dbg.declare(metadata ptr %5, metadata !4071, metadata !DIExpression()), !dbg !4072
  %12 = load i32, ptr %4, align 4, !dbg !4073
  %13 = icmp slt i32 %12, 0, !dbg !4074
  %14 = zext i1 %13 to i8, !dbg !4072
  store i8 %14, ptr %5, align 1, !dbg !4072
  call void @llvm.dbg.declare(metadata ptr %6, metadata !4075, metadata !DIExpression()), !dbg !4077
  %15 = load i8, ptr %5, align 1, !dbg !4078
  %16 = trunc i8 %15 to i1, !dbg !4078
  br i1 %16, label %17, label %21, !dbg !4078

17:                                               ; preds = %2
  %18 = load i32, ptr %4, align 4, !dbg !4079
  %19 = xor i32 %18, -1, !dbg !4080
  %20 = add i32 %19, 1, !dbg !4081
  br label %23, !dbg !4078

21:                                               ; preds = %2
  %22 = load i32, ptr %4, align 4, !dbg !4082
  br label %23, !dbg !4078

23:                                               ; preds = %21, %17
  %24 = phi i32 [ %20, %17 ], [ %22, %21 ], !dbg !4078
  store i32 %24, ptr %6, align 4, !dbg !4077
  call void @llvm.dbg.declare(metadata ptr %7, metadata !4083, metadata !DIExpression()), !dbg !4084
  %25 = load i32, ptr %6, align 4, !dbg !4085
  %26 = call noundef i32 @_ZNSt8__detail14__to_chars_lenIjEEjT_i(i32 noundef %25, i32 noundef 10) #3, !dbg !4086
  store i32 %26, ptr %7, align 4, !dbg !4084
  store i1 false, ptr %8, align 1, !dbg !4087
  call void @llvm.dbg.declare(metadata ptr %3, metadata !4088, metadata !DIExpression(DW_OP_deref)), !dbg !4089
  %27 = load i8, ptr %5, align 1, !dbg !4090
  %28 = trunc i8 %27 to i1, !dbg !4090
  %29 = zext i1 %28 to i32, !dbg !4090
  %30 = load i32, ptr %7, align 4, !dbg !4091
  %31 = add i32 %29, %30, !dbg !4092
  %32 = zext i32 %31 to i64, !dbg !4090
  call void @_ZNSaIcEC1Ev(ptr noundef nonnull align 1 dereferenceable(1) %9) #3, !dbg !4089
  invoke void @_ZNSt7__cxx1112basic_stringIcSt11char_traitsIcESaIcEEC2IS3_EEmcRKS3_(ptr noundef nonnull align 8 dereferenceable(32) %0, i64 noundef %32, i8 noundef signext 45, ptr noundef nonnull align 1 dereferenceable(1) %9)
          to label %33 unwind label %42, !dbg !4089

33:                                               ; preds = %23
  call void @_ZNSaIcED1Ev(ptr noundef nonnull align 1 dereferenceable(1) %9) #3, !dbg !4089
  %34 = load i8, ptr %5, align 1, !dbg !4093
  %35 = trunc i8 %34 to i1, !dbg !4093
  %36 = zext i1 %35 to i64, !dbg !4093
  %37 = invoke noundef nonnull align 1 dereferenceable(1) ptr @_ZNSt7__cxx1112basic_stringIcSt11char_traitsIcESaIcEEixEm(ptr noundef nonnull align 8 dereferenceable(32) %0, i64 noundef %36)
          to label %38 unwind label %46, !dbg !4094

38:                                               ; preds = %33
  %39 = load i32, ptr %7, align 4, !dbg !4095
  %40 = load i32, ptr %6, align 4, !dbg !4096
  call void @_ZNSt8__detail18__to_chars_10_implIjEEvPcjT_(ptr noundef %37, i32 noundef %39, i32 noundef %40) #3, !dbg !4097
  store i1 true, ptr %8, align 1, !dbg !4098
  %41 = load i1, ptr %8, align 1, !dbg !4099
  br i1 %41, label %51, label %50, !dbg !4099

42:                                               ; preds = %23
  %43 = landingpad { ptr, i32 }
          cleanup, !dbg !4099
  %44 = extractvalue { ptr, i32 } %43, 0, !dbg !4099
  store ptr %44, ptr %10, align 8, !dbg !4099
  %45 = extractvalue { ptr, i32 } %43, 1, !dbg !4099
  store i32 %45, ptr %11, align 4, !dbg !4099
  call void @_ZNSaIcED1Ev(ptr noundef nonnull align 1 dereferenceable(1) %9) #3, !dbg !4089
  br label %52, !dbg !4089

46:                                               ; preds = %33
  %47 = landingpad { ptr, i32 }
          cleanup, !dbg !4099
  %48 = extractvalue { ptr, i32 } %47, 0, !dbg !4099
  store ptr %48, ptr %10, align 8, !dbg !4099
  %49 = extractvalue { ptr, i32 } %47, 1, !dbg !4099
  store i32 %49, ptr %11, align 4, !dbg !4099
  call void @_ZNSt7__cxx1112basic_stringIcSt11char_traitsIcESaIcEED1Ev(ptr noundef nonnull align 8 dereferenceable(32) %0) #3, !dbg !4099
  br label %52, !dbg !4099

50:                                               ; preds = %38
  call void @_ZNSt7__cxx1112basic_stringIcSt11char_traitsIcESaIcEED1Ev(ptr noundef nonnull align 8 dereferenceable(32) %0) #3, !dbg !4099
  br label %51, !dbg !4099

51:                                               ; preds = %50, %38
  ret void, !dbg !4099

52:                                               ; preds = %46, %42
  %53 = load ptr, ptr %10, align 8, !dbg !4089
  %54 = load i32, ptr %11, align 4, !dbg !4089
  %55 = insertvalue { ptr, i32 } poison, ptr %53, 0, !dbg !4089
  %56 = insertvalue { ptr, i32 } %55, i32 %54, 1, !dbg !4089
  resume { ptr, i32 } %56, !dbg !4089
}

declare noundef i32 @_ZN4Poco6Logger10parseLevelERKNSt7__cxx1112basic_stringIcSt11char_traitsIcESaIcEEE(ptr noundef nonnull align 8 dereferenceable(32)) #1

; Function Attrs: mustprogress noinline nounwind optnone uwtable
define linkonce_odr dso_local void @_ZN3Log12StaticHelper20setThreadLocalLoggerEPN4Poco6LoggerE(ptr noundef nonnull align 8 dereferenceable(105) %0, ptr noundef %1) #9 comdat align 2 !dbg !4100 {
  %3 = alloca ptr, align 8
  %4 = alloca ptr, align 8
  store ptr %0, ptr %3, align 8
  call void @llvm.dbg.declare(metadata ptr %3, metadata !4101, metadata !DIExpression()), !dbg !4102
  store ptr %1, ptr %4, align 8
  call void @llvm.dbg.declare(metadata ptr %4, metadata !4103, metadata !DIExpression()), !dbg !4104
  %5 = load ptr, ptr %3, align 8
  %6 = load ptr, ptr %4, align 8, !dbg !4105
  %7 = call align 8 ptr @llvm.threadlocal.address.p0(ptr align 8 @_ZN3Log12StaticHelper18_threadLocalLoggerE), !dbg !4106
  store ptr %6, ptr %7, align 8, !dbg !4107
  ret void, !dbg !4108
}

; Function Attrs: mustprogress noinline optnone uwtable
define dso_local noundef nonnull align 8 dereferenceable(32) ptr @_ZN3Log8getLevelB5cxx11Ev() #5 !dbg !4109 {
  %1 = call noundef nonnull align 8 dereferenceable(32) ptr @_ZNK3Log12StaticHelper8getLevelB5cxx11Ev(ptr noundef nonnull align 8 dereferenceable(105) @_ZN3LogL6StaticE), !dbg !4112
  ret ptr %1, !dbg !4113
}

; Function Attrs: mustprogress noinline nounwind optnone uwtable
define linkonce_odr dso_local noundef nonnull align 8 dereferenceable(32) ptr @_ZNK3Log12StaticHelper8getLevelB5cxx11Ev(ptr noundef nonnull align 8 dereferenceable(105) %0) #9 comdat align 2 !dbg !4114 {
  %2 = alloca ptr, align 8
  store ptr %0, ptr %2, align 8
  call void @llvm.dbg.declare(metadata ptr %2, metadata !4115, metadata !DIExpression()), !dbg !4116
  %3 = load ptr, ptr %2, align 8
  %4 = getelementptr inbounds %"struct.Log::StaticHelper", ptr %3, i32 0, i32 2, !dbg !4117
  ret ptr %4, !dbg !4118
}

; Function Attrs: noinline nounwind optnone uwtable
define linkonce_odr dso_local void @_ZNSt6atomicIbEC2Eb(ptr noundef nonnull align 1 dereferenceable(1) %0, i1 noundef zeroext %1) unnamed_addr #4 comdat align 2 !dbg !4119 {
  %3 = alloca ptr, align 8
  %4 = alloca i8, align 1
  store ptr %0, ptr %3, align 8
  call void @llvm.dbg.declare(metadata ptr %3, metadata !4120, metadata !DIExpression()), !dbg !4122
  %5 = zext i1 %1 to i8
  store i8 %5, ptr %4, align 1
  call void @llvm.dbg.declare(metadata ptr %4, metadata !4123, metadata !DIExpression()), !dbg !4124
  %6 = load ptr, ptr %3, align 8
  %7 = getelementptr inbounds %"struct.std::atomic.0", ptr %6, i32 0, i32 0, !dbg !4125
  %8 = load i8, ptr %4, align 1, !dbg !4126
  %9 = trunc i8 %8 to i1, !dbg !4126
  call void @_ZNSt13__atomic_baseIbEC2Eb(ptr noundef nonnull align 1 dereferenceable(1) %7, i1 noundef zeroext %9) #3, !dbg !4125
  ret void, !dbg !4127
}

; Function Attrs: noinline nounwind optnone uwtable
define linkonce_odr dso_local void @_ZNSt13__atomic_baseIbEC2Eb(ptr noundef nonnull align 1 dereferenceable(1) %0, i1 noundef zeroext %1) unnamed_addr #4 comdat align 2 !dbg !4128 {
  %3 = alloca ptr, align 8
  %4 = alloca i8, align 1
  store ptr %0, ptr %3, align 8
  call void @llvm.dbg.declare(metadata ptr %3, metadata !4129, metadata !DIExpression()), !dbg !4131
  %5 = zext i1 %1 to i8
  store i8 %5, ptr %4, align 1
  call void @llvm.dbg.declare(metadata ptr %4, metadata !4132, metadata !DIExpression()), !dbg !4133
  %6 = load ptr, ptr %3, align 8
  %7 = getelementptr inbounds %"struct.std::__atomic_base.1", ptr %6, i32 0, i32 0, !dbg !4134
  %8 = load i8, ptr %4, align 1, !dbg !4135
  %9 = trunc i8 %8 to i1, !dbg !4135
  %10 = zext i1 %9 to i8, !dbg !4134
  store i8 %10, ptr %7, align 1, !dbg !4134
  ret void, !dbg !4136
}

; Function Attrs: mustprogress noinline nounwind optnone uwtable
define linkonce_odr dso_local noundef zeroext i1 @_ZNSt6atomicIbEaSEb(ptr noundef nonnull align 1 dereferenceable(1) %0, i1 noundef zeroext %1) #9 comdat align 2 !dbg !4137 {
  %3 = alloca ptr, align 8
  %4 = alloca i8, align 1
  store ptr %0, ptr %3, align 8
  call void @llvm.dbg.declare(metadata ptr %3, metadata !4138, metadata !DIExpression()), !dbg !4139
  %5 = zext i1 %1 to i8
  store i8 %5, ptr %4, align 1
  call void @llvm.dbg.declare(metadata ptr %4, metadata !4140, metadata !DIExpression()), !dbg !4141
  %6 = load ptr, ptr %3, align 8
  %7 = getelementptr inbounds %"struct.std::atomic.0", ptr %6, i32 0, i32 0, !dbg !4142
  %8 = load i8, ptr %4, align 1, !dbg !4143
  %9 = trunc i8 %8 to i1, !dbg !4143
  %10 = call noundef zeroext i1 @_ZNSt13__atomic_baseIbEaSEb(ptr noundef nonnull align 1 dereferenceable(1) %7, i1 noundef zeroext %9) #3, !dbg !4144
  ret i1 %10, !dbg !4145
}

; Function Attrs: mustprogress noinline nounwind optnone uwtable
define linkonce_odr dso_local noundef zeroext i1 @_ZNSt13__atomic_baseIbEaSEb(ptr noundef nonnull align 1 dereferenceable(1) %0, i1 noundef zeroext %1) #9 comdat align 2 personality ptr @__gxx_personality_v0 !dbg !4146 {
  %3 = alloca ptr, align 8
  %4 = alloca i8, align 1
  %5 = alloca i32, align 4
  %6 = alloca i32, align 4
  %7 = alloca i8, align 1
  %8 = alloca ptr, align 8
  %9 = alloca i8, align 1
  store ptr %0, ptr %8, align 8
  call void @llvm.dbg.declare(metadata ptr %8, metadata !4147, metadata !DIExpression()), !dbg !4148
  %10 = zext i1 %1 to i8
  store i8 %10, ptr %9, align 1
  call void @llvm.dbg.declare(metadata ptr %9, metadata !4149, metadata !DIExpression()), !dbg !4150
  %11 = load ptr, ptr %8, align 8
  %12 = load i8, ptr %9, align 1, !dbg !4151
  %13 = trunc i8 %12 to i1, !dbg !4151
  store ptr %11, ptr %3, align 8
  call void @llvm.dbg.declare(metadata ptr %3, metadata !4152, metadata !DIExpression()), !dbg !4154
  %14 = zext i1 %13 to i8
  store i8 %14, ptr %4, align 1
  call void @llvm.dbg.declare(metadata ptr %4, metadata !4156, metadata !DIExpression()), !dbg !4157
  store i32 5, ptr %5, align 4
  call void @llvm.dbg.declare(metadata ptr %5, metadata !4158, metadata !DIExpression()), !dbg !4159
  %15 = load ptr, ptr %3, align 8
  call void @llvm.dbg.declare(metadata ptr %6, metadata !4160, metadata !DIExpression()), !dbg !4161
  %16 = load i32, ptr %5, align 4, !dbg !4162
  %17 = invoke noundef i32 @_ZStanSt12memory_orderSt23__memory_order_modifier(i32 noundef %16, i32 noundef 65535)
          to label %18 unwind label %29, !dbg !4163

18:                                               ; preds = %2
  store i32 %17, ptr %6, align 4, !dbg !4161
  %19 = load i32, ptr %5, align 4, !dbg !4164
  %20 = load i8, ptr %4, align 1, !dbg !4165
  %21 = trunc i8 %20 to i1, !dbg !4165
  %22 = zext i1 %21 to i8, !dbg !4166
  store i8 %22, ptr %7, align 1, !dbg !4166
  switch i32 %19, label %23 [
    i32 3, label %25
    i32 5, label %27
  ], !dbg !4166

23:                                               ; preds = %18
  %24 = load i8, ptr %7, align 1, !dbg !4166
  store atomic i8 %24, ptr %15 monotonic, align 1, !dbg !4166
  br label %32, !dbg !4166

25:                                               ; preds = %18
  %26 = load i8, ptr %7, align 1, !dbg !4166
  store atomic i8 %26, ptr %15 release, align 1, !dbg !4166
  br label %32, !dbg !4166

27:                                               ; preds = %18
  %28 = load i8, ptr %7, align 1, !dbg !4166
  store atomic i8 %28, ptr %15 seq_cst, align 1, !dbg !4166
  br label %32, !dbg !4166

29:                                               ; preds = %2
  %30 = landingpad { ptr, i32 }
          catch ptr null, !dbg !4163
  %31 = extractvalue { ptr, i32 } %30, 0, !dbg !4163
  call void @__clang_call_terminate(ptr %31) #21, !dbg !4163
  unreachable, !dbg !4163

32:                                               ; preds = %23, %25, %27
  %33 = load i8, ptr %9, align 1, !dbg !4167
  %34 = trunc i8 %33 to i1, !dbg !4167
  ret i1 %34, !dbg !4168
}

; Function Attrs: mustprogress noinline nounwind optnone uwtable
define linkonce_odr dso_local noundef i32 @_ZStanSt12memory_orderSt23__memory_order_modifier(i32 noundef %0, i32 noundef %1) #9 comdat !dbg !4169 {
  %3 = alloca i32, align 4
  %4 = alloca i32, align 4
  store i32 %0, ptr %3, align 4
  call void @llvm.dbg.declare(metadata ptr %3, metadata !4172, metadata !DIExpression()), !dbg !4173
  store i32 %1, ptr %4, align 4
  call void @llvm.dbg.declare(metadata ptr %4, metadata !4174, metadata !DIExpression()), !dbg !4175
  %5 = load i32, ptr %3, align 4, !dbg !4176
  %6 = load i32, ptr %4, align 4, !dbg !4177
  %7 = and i32 %5, %6, !dbg !4178
  ret i32 %7, !dbg !4179
}

; Function Attrs: mustprogress noinline nounwind optnone uwtable
define linkonce_odr dso_local noundef zeroext i1 @_ZNKSt6atomicIbEcvbEv(ptr noundef nonnull align 1 dereferenceable(1) %0) #9 comdat align 2 !dbg !4180 {
  %2 = alloca ptr, align 8
  %3 = alloca i32, align 4
  %4 = alloca i32, align 4
  %5 = alloca i8, align 1
  %6 = alloca ptr, align 8
  store ptr %0, ptr %6, align 8
  call void @llvm.dbg.declare(metadata ptr %6, metadata !4181, metadata !DIExpression()), !dbg !4183
  %7 = load ptr, ptr %6, align 8
  %8 = getelementptr inbounds %"struct.std::atomic.0", ptr %7, i32 0, i32 0, !dbg !4184
  store ptr %8, ptr %2, align 8
  call void @llvm.dbg.declare(metadata ptr %2, metadata !4185, metadata !DIExpression()), !dbg !4188
  store i32 5, ptr %3, align 4
  call void @llvm.dbg.declare(metadata ptr %3, metadata !4190, metadata !DIExpression()), !dbg !4191
  %9 = load ptr, ptr %2, align 8
  call void @llvm.dbg.declare(metadata ptr %4, metadata !4192, metadata !DIExpression()), !dbg !4193
  %10 = load i32, ptr %3, align 4, !dbg !4194
  %11 = call noundef i32 @_ZStanSt12memory_orderSt23__memory_order_modifier(i32 noundef %10, i32 noundef 65535), !dbg !4195
  store i32 %11, ptr %4, align 4, !dbg !4193
  %12 = load i32, ptr %3, align 4, !dbg !4196
  switch i32 %12, label %13 [
    i32 1, label %15
    i32 2, label %15
    i32 5, label %17
  ], !dbg !4197

13:                                               ; preds = %1
  %14 = load atomic i8, ptr %9 monotonic, align 1, !dbg !4197
  store i8 %14, ptr %5, align 1, !dbg !4197
  br label %19, !dbg !4197

15:                                               ; preds = %1, %1
  %16 = load atomic i8, ptr %9 acquire, align 1, !dbg !4197
  store i8 %16, ptr %5, align 1, !dbg !4197
  br label %19, !dbg !4197

17:                                               ; preds = %1
  %18 = load atomic i8, ptr %9 seq_cst, align 1, !dbg !4197
  store i8 %18, ptr %5, align 1, !dbg !4197
  br label %19, !dbg !4197

19:                                               ; preds = %13, %15, %17
  %20 = load i8, ptr %5, align 1, !dbg !4197
  %21 = trunc i8 %20 to i1, !dbg !4197
  ret i1 %21, !dbg !4198
}

; Function Attrs: mustprogress noinline nounwind optnone uwtable
define linkonce_odr dso_local noundef i32 @_ZNK4Poco8DateTime4yearEv(ptr noundef nonnull align 8 dereferenceable(24) %0) #9 comdat align 2 !dbg !4199 {
  %2 = alloca ptr, align 8
  store ptr %0, ptr %2, align 8
  call void @llvm.dbg.declare(metadata ptr %2, metadata !4207, metadata !DIExpression()), !dbg !4209
  %3 = load ptr, ptr %2, align 8
  %4 = getelementptr inbounds %"class.Poco::DateTime", ptr %3, i32 0, i32 1, !dbg !4210
  %5 = load i16, ptr %4, align 8, !dbg !4210
  %6 = sext i16 %5 to i32, !dbg !4210
  ret i32 %6, !dbg !4211
}

; Function Attrs: mustprogress noinline nounwind optnone uwtable
define linkonce_odr dso_local noundef i32 @_ZNK4Poco8DateTime5monthEv(ptr noundef nonnull align 8 dereferenceable(24) %0) #9 comdat align 2 !dbg !4212 {
  %2 = alloca ptr, align 8
  store ptr %0, ptr %2, align 8
  call void @llvm.dbg.declare(metadata ptr %2, metadata !4214, metadata !DIExpression()), !dbg !4215
  %3 = load ptr, ptr %2, align 8
  %4 = getelementptr inbounds %"class.Poco::DateTime", ptr %3, i32 0, i32 2, !dbg !4216
  %5 = load i16, ptr %4, align 2, !dbg !4216
  %6 = sext i16 %5 to i32, !dbg !4216
  ret i32 %6, !dbg !4217
}

; Function Attrs: mustprogress noinline nounwind optnone uwtable
define linkonce_odr dso_local noundef i32 @_ZNK4Poco8DateTime3dayEv(ptr noundef nonnull align 8 dereferenceable(24) %0) #9 comdat align 2 !dbg !4218 {
  %2 = alloca ptr, align 8
  store ptr %0, ptr %2, align 8
  call void @llvm.dbg.declare(metadata ptr %2, metadata !4220, metadata !DIExpression()), !dbg !4221
  %3 = load ptr, ptr %2, align 8
  %4 = getelementptr inbounds %"class.Poco::DateTime", ptr %3, i32 0, i32 3, !dbg !4222
  %5 = load i16, ptr %4, align 4, !dbg !4222
  %6 = sext i16 %5 to i32, !dbg !4222
  ret i32 %6, !dbg !4223
}

; Function Attrs: mustprogress noinline nounwind optnone uwtable
define linkonce_odr dso_local noundef i32 @_ZNK4Poco8DateTime4hourEv(ptr noundef nonnull align 8 dereferenceable(24) %0) #9 comdat align 2 !dbg !4224 {
  %2 = alloca ptr, align 8
  store ptr %0, ptr %2, align 8
  call void @llvm.dbg.declare(metadata ptr %2, metadata !4226, metadata !DIExpression()), !dbg !4227
  %3 = load ptr, ptr %2, align 8
  %4 = getelementptr inbounds %"class.Poco::DateTime", ptr %3, i32 0, i32 4, !dbg !4228
  %5 = load i16, ptr %4, align 2, !dbg !4228
  %6 = sext i16 %5 to i32, !dbg !4228
  ret i32 %6, !dbg !4229
}

; Function Attrs: mustprogress noinline nounwind optnone uwtable
define linkonce_odr dso_local noundef i32 @_ZNK4Poco8DateTime6minuteEv(ptr noundef nonnull align 8 dereferenceable(24) %0) #9 comdat align 2 !dbg !4230 {
  %2 = alloca ptr, align 8
  store ptr %0, ptr %2, align 8
  call void @llvm.dbg.declare(metadata ptr %2, metadata !4232, metadata !DIExpression()), !dbg !4233
  %3 = load ptr, ptr %2, align 8
  %4 = getelementptr inbounds %"class.Poco::DateTime", ptr %3, i32 0, i32 5, !dbg !4234
  %5 = load i16, ptr %4, align 8, !dbg !4234
  %6 = sext i16 %5 to i32, !dbg !4234
  ret i32 %6, !dbg !4235
}

; Function Attrs: mustprogress noinline nounwind optnone uwtable
define linkonce_odr dso_local noundef i32 @_ZNK4Poco8DateTime6secondEv(ptr noundef nonnull align 8 dereferenceable(24) %0) #9 comdat align 2 !dbg !4236 {
  %2 = alloca ptr, align 8
  store ptr %0, ptr %2, align 8
  call void @llvm.dbg.declare(metadata ptr %2, metadata !4238, metadata !DIExpression()), !dbg !4239
  %3 = load ptr, ptr %2, align 8
  %4 = getelementptr inbounds %"class.Poco::DateTime", ptr %3, i32 0, i32 6, !dbg !4240
  %5 = load i16, ptr %4, align 2, !dbg !4240
  %6 = sext i16 %5 to i32, !dbg !4240
  ret i32 %6, !dbg !4241
}

; Function Attrs: mustprogress noinline nounwind optnone uwtable
define linkonce_odr dso_local noundef i32 @_ZNK4Poco8DateTime11millisecondEv(ptr noundef nonnull align 8 dereferenceable(24) %0) #9 comdat align 2 !dbg !4242 {
  %2 = alloca ptr, align 8
  store ptr %0, ptr %2, align 8
  call void @llvm.dbg.declare(metadata ptr %2, metadata !4244, metadata !DIExpression()), !dbg !4245
  %3 = load ptr, ptr %2, align 8
  %4 = getelementptr inbounds %"class.Poco::DateTime", ptr %3, i32 0, i32 7, !dbg !4246
  %5 = load i16, ptr %4, align 4, !dbg !4246
  %6 = sext i16 %5 to i32, !dbg !4246
  ret i32 %6, !dbg !4247
}

; Function Attrs: mustprogress noinline nounwind optnone uwtable
define linkonce_odr dso_local noundef i32 @_ZNK4Poco8DateTime11microsecondEv(ptr noundef nonnull align 8 dereferenceable(24) %0) #9 comdat align 2 !dbg !4248 {
  %2 = alloca ptr, align 8
  store ptr %0, ptr %2, align 8
  call void @llvm.dbg.declare(metadata ptr %2, metadata !4250, metadata !DIExpression()), !dbg !4251
  %3 = load ptr, ptr %2, align 8
  %4 = getelementptr inbounds %"class.Poco::DateTime", ptr %3, i32 0, i32 8, !dbg !4252
  %5 = load i16, ptr %4, align 2, !dbg !4252
  %6 = sext i16 %5 to i32, !dbg !4252
  ret i32 %6, !dbg !4253
}

declare noundef nonnull align 8 dereferenceable(32) ptr @_ZNSt7__cxx1112basic_stringIcSt11char_traitsIcESaIcEEaSERKS4_(ptr noundef nonnull align 8 dereferenceable(32), ptr noundef nonnull align 8 dereferenceable(32)) #1

; Function Attrs: mustprogress noinline optnone uwtable
define linkonce_odr dso_local noundef i32 @_ZNSt8ios_base4setfESt13_Ios_Fmtflags(ptr noundef nonnull align 8 dereferenceable(216) %0, i32 noundef %1) #5 comdat align 2 !dbg !4254 {
  %3 = alloca ptr, align 8
  %4 = alloca i32, align 4
  %5 = alloca i32, align 4
  store ptr %0, ptr %3, align 8
  call void @llvm.dbg.declare(metadata ptr %3, metadata !4260, metadata !DIExpression()), !dbg !4262
  store i32 %1, ptr %4, align 4
  call void @llvm.dbg.declare(metadata ptr %4, metadata !4263, metadata !DIExpression()), !dbg !4264
  %6 = load ptr, ptr %3, align 8
  call void @llvm.dbg.declare(metadata ptr %5, metadata !4265, metadata !DIExpression()), !dbg !4266
  %7 = getelementptr inbounds %"class.std::ios_base", ptr %6, i32 0, i32 3, !dbg !4267
  %8 = load i32, ptr %7, align 8, !dbg !4267
  store i32 %8, ptr %5, align 4, !dbg !4266
  %9 = load i32, ptr %4, align 4, !dbg !4268
  %10 = getelementptr inbounds %"class.std::ios_base", ptr %6, i32 0, i32 3, !dbg !4269
  %11 = call noundef nonnull align 4 dereferenceable(4) ptr @_ZStoRRSt13_Ios_FmtflagsS_(ptr noundef nonnull align 4 dereferenceable(4) %10, i32 noundef %9), !dbg !4270
  %12 = load i32, ptr %5, align 4, !dbg !4271
  ret i32 %12, !dbg !4272
}

; Function Attrs: mustprogress noinline optnone uwtable
define linkonce_odr dso_local noundef nonnull align 4 dereferenceable(4) ptr @_ZStoRRSt13_Ios_FmtflagsS_(ptr noundef nonnull align 4 dereferenceable(4) %0, i32 noundef %1) #5 comdat !dbg !4273 {
  %3 = alloca ptr, align 8
  %4 = alloca i32, align 4
  store ptr %0, ptr %3, align 8
  call void @llvm.dbg.declare(metadata ptr %3, metadata !4279, metadata !DIExpression()), !dbg !4280
  store i32 %1, ptr %4, align 4
  call void @llvm.dbg.declare(metadata ptr %4, metadata !4281, metadata !DIExpression()), !dbg !4282
  %5 = load ptr, ptr %3, align 8, !dbg !4283
  %6 = load i32, ptr %5, align 4, !dbg !4283
  %7 = load i32, ptr %4, align 4, !dbg !4284
  %8 = call noundef i32 @_ZStorSt13_Ios_FmtflagsS_(i32 noundef %6, i32 noundef %7), !dbg !4285
  %9 = load ptr, ptr %3, align 8, !dbg !4286
  store i32 %8, ptr %9, align 4, !dbg !4287
  ret ptr %9, !dbg !4288
}

; Function Attrs: mustprogress noinline nounwind optnone uwtable
define linkonce_odr dso_local noundef i32 @_ZStorSt13_Ios_FmtflagsS_(i32 noundef %0, i32 noundef %1) #9 comdat !dbg !4289 {
  %3 = alloca i32, align 4
  %4 = alloca i32, align 4
  store i32 %0, ptr %3, align 4
  call void @llvm.dbg.declare(metadata ptr %3, metadata !4292, metadata !DIExpression()), !dbg !4293
  store i32 %1, ptr %4, align 4
  call void @llvm.dbg.declare(metadata ptr %4, metadata !4294, metadata !DIExpression()), !dbg !4295
  %5 = load i32, ptr %3, align 4, !dbg !4296
  %6 = load i32, ptr %4, align 4, !dbg !4297
  %7 = or i32 %5, %6, !dbg !4298
  ret i32 %7, !dbg !4299
}

; Function Attrs: nocallback nofree nosync nounwind speculatable willreturn memory(none)
declare nonnull ptr @llvm.threadlocal.address.p0(ptr nonnull) #6

; Function Attrs: mustprogress noinline nounwind optnone uwtable
define linkonce_odr dso_local noundef i32 @_ZNSt8__detail14__to_chars_lenIjEEjT_i(i32 noundef %0, i32 noundef %1) #9 comdat !dbg !4300 {
  %3 = alloca i32, align 4
  %4 = alloca i32, align 4
  %5 = alloca i32, align 4
  %6 = alloca i32, align 4
  %7 = alloca i32, align 4
  %8 = alloca i32, align 4
  %9 = alloca i64, align 8
  store i32 %0, ptr %4, align 4
  call void @llvm.dbg.declare(metadata ptr %4, metadata !4303, metadata !DIExpression()), !dbg !4304
  store i32 %1, ptr %5, align 4
  call void @llvm.dbg.declare(metadata ptr %5, metadata !4305, metadata !DIExpression()), !dbg !4306
  call void @llvm.dbg.declare(metadata ptr %6, metadata !4307, metadata !DIExpression()), !dbg !4308
  store i32 1, ptr %6, align 4, !dbg !4308
  call void @llvm.dbg.declare(metadata ptr %7, metadata !4309, metadata !DIExpression()), !dbg !4310
  %10 = load i32, ptr %5, align 4, !dbg !4311
  %11 = load i32, ptr %5, align 4, !dbg !4312
  %12 = mul nsw i32 %10, %11, !dbg !4313
  store i32 %12, ptr %7, align 4, !dbg !4310
  call void @llvm.dbg.declare(metadata ptr %8, metadata !4314, metadata !DIExpression()), !dbg !4315
  %13 = load i32, ptr %7, align 4, !dbg !4316
  %14 = load i32, ptr %5, align 4, !dbg !4317
  %15 = mul i32 %13, %14, !dbg !4318
  store i32 %15, ptr %8, align 4, !dbg !4315
  call void @llvm.dbg.declare(metadata ptr %9, metadata !4319, metadata !DIExpression()), !dbg !4321
  %16 = load i32, ptr %8, align 4, !dbg !4322
  %17 = load i32, ptr %5, align 4, !dbg !4323
  %18 = mul i32 %16, %17, !dbg !4324
  %19 = zext i32 %18 to i64, !dbg !4322
  store i64 %19, ptr %9, align 8, !dbg !4321
  br label %20, !dbg !4325

20:                                               ; preds = %48, %2
  %21 = load i32, ptr %4, align 4, !dbg !4326
  %22 = load i32, ptr %5, align 4, !dbg !4331
  %23 = icmp ult i32 %21, %22, !dbg !4332
  br i1 %23, label %24, label %26, !dbg !4333

24:                                               ; preds = %20
  %25 = load i32, ptr %6, align 4, !dbg !4334
  store i32 %25, ptr %3, align 4, !dbg !4335
  br label %56, !dbg !4335

26:                                               ; preds = %20
  %27 = load i32, ptr %4, align 4, !dbg !4336
  %28 = load i32, ptr %7, align 4, !dbg !4338
  %29 = icmp ult i32 %27, %28, !dbg !4339
  br i1 %29, label %30, label %33, !dbg !4340

30:                                               ; preds = %26
  %31 = load i32, ptr %6, align 4, !dbg !4341
  %32 = add i32 %31, 1, !dbg !4342
  store i32 %32, ptr %3, align 4, !dbg !4343
  br label %56, !dbg !4343

33:                                               ; preds = %26
  %34 = load i32, ptr %4, align 4, !dbg !4344
  %35 = load i32, ptr %8, align 4, !dbg !4346
  %36 = icmp ult i32 %34, %35, !dbg !4347
  br i1 %36, label %37, label %40, !dbg !4348

37:                                               ; preds = %33
  %38 = load i32, ptr %6, align 4, !dbg !4349
  %39 = add i32 %38, 2, !dbg !4350
  store i32 %39, ptr %3, align 4, !dbg !4351
  br label %56, !dbg !4351

40:                                               ; preds = %33
  %41 = load i32, ptr %4, align 4, !dbg !4352
  %42 = zext i32 %41 to i64, !dbg !4352
  %43 = load i64, ptr %9, align 8, !dbg !4354
  %44 = icmp ult i64 %42, %43, !dbg !4355
  br i1 %44, label %45, label %48, !dbg !4356

45:                                               ; preds = %40
  %46 = load i32, ptr %6, align 4, !dbg !4357
  %47 = add i32 %46, 3, !dbg !4358
  store i32 %47, ptr %3, align 4, !dbg !4359
  br label %56, !dbg !4359

48:                                               ; preds = %40
  %49 = load i64, ptr %9, align 8, !dbg !4360
  %50 = load i32, ptr %4, align 4, !dbg !4361
  %51 = zext i32 %50 to i64, !dbg !4361
  %52 = udiv i64 %51, %49, !dbg !4361
  %53 = trunc i64 %52 to i32, !dbg !4361
  store i32 %53, ptr %4, align 4, !dbg !4361
  %54 = load i32, ptr %6, align 4, !dbg !4362
  %55 = add i32 %54, 4, !dbg !4362
  store i32 %55, ptr %6, align 4, !dbg !4362
  br label %20, !dbg !4363, !llvm.loop !4364

56:                                               ; preds = %45, %37, %30, %24
  %57 = load i32, ptr %3, align 4, !dbg !4367
  ret i32 %57, !dbg !4367
}

; Function Attrs: noinline optnone uwtable
define linkonce_odr dso_local void @_ZNSt7__cxx1112basic_stringIcSt11char_traitsIcESaIcEEC2IS3_EEmcRKS3_(ptr noundef nonnull align 8 dereferenceable(32) %0, i64 noundef %1, i8 noundef signext %2, ptr noundef nonnull align 1 dereferenceable(1) %3) unnamed_addr #11 comdat align 2 personality ptr @__gxx_personality_v0 !dbg !4368 {
  %5 = alloca ptr, align 8
  %6 = alloca i64, align 8
  %7 = alloca i8, align 1
  %8 = alloca ptr, align 8
  %9 = alloca ptr, align 8
  %10 = alloca i32, align 4
  store ptr %0, ptr %5, align 8
  call void @llvm.dbg.declare(metadata ptr %5, metadata !4372, metadata !DIExpression()), !dbg !4373
  store i64 %1, ptr %6, align 8
  call void @llvm.dbg.declare(metadata ptr %6, metadata !4374, metadata !DIExpression()), !dbg !4375
  store i8 %2, ptr %7, align 1
  call void @llvm.dbg.declare(metadata ptr %7, metadata !4376, metadata !DIExpression()), !dbg !4377
  store ptr %3, ptr %8, align 8
  call void @llvm.dbg.declare(metadata ptr %8, metadata !4378, metadata !DIExpression()), !dbg !4379
  %11 = load ptr, ptr %5, align 8
  %12 = getelementptr inbounds %"class.std::__cxx11::basic_string", ptr %11, i32 0, i32 0, !dbg !4380
  %13 = call noundef ptr @_ZNSt7__cxx1112basic_stringIcSt11char_traitsIcESaIcEE13_M_local_dataEv(ptr noundef nonnull align 8 dereferenceable(32) %11), !dbg !4381
  %14 = load ptr, ptr %8, align 8, !dbg !4382
  call void @_ZNSt7__cxx1112basic_stringIcSt11char_traitsIcESaIcEE12_Alloc_hiderC1EPcRKS3_(ptr noundef nonnull align 8 dereferenceable(8) %12, ptr noundef %13, ptr noundef nonnull align 1 dereferenceable(1) %14), !dbg !4380
  %15 = load i64, ptr %6, align 8, !dbg !4383
  %16 = load i8, ptr %7, align 1, !dbg !4385
  invoke void @_ZNSt7__cxx1112basic_stringIcSt11char_traitsIcESaIcEE12_M_constructEmc(ptr noundef nonnull align 8 dereferenceable(32) %11, i64 noundef %15, i8 noundef signext %16)
          to label %17 unwind label %18, !dbg !4386

17:                                               ; preds = %4
  ret void, !dbg !4387

18:                                               ; preds = %4
  %19 = landingpad { ptr, i32 }
          cleanup, !dbg !4388
  %20 = extractvalue { ptr, i32 } %19, 0, !dbg !4388
  store ptr %20, ptr %9, align 8, !dbg !4388
  %21 = extractvalue { ptr, i32 } %19, 1, !dbg !4388
  store i32 %21, ptr %10, align 4, !dbg !4388
  call void @_ZNSt7__cxx1112basic_stringIcSt11char_traitsIcESaIcEE12_Alloc_hiderD2Ev(ptr noundef nonnull align 8 dereferenceable(8) %12) #3, !dbg !4388
  br label %22, !dbg !4388

22:                                               ; preds = %18
  %23 = load ptr, ptr %9, align 8, !dbg !4388
  %24 = load i32, ptr %10, align 4, !dbg !4388
  %25 = insertvalue { ptr, i32 } poison, ptr %23, 0, !dbg !4388
  %26 = insertvalue { ptr, i32 } %25, i32 %24, 1, !dbg !4388
  resume { ptr, i32 } %26, !dbg !4388
}

; Function Attrs: mustprogress noinline nounwind optnone uwtable
define linkonce_odr dso_local void @_ZNSt8__detail18__to_chars_10_implIjEEvPcjT_(ptr noundef %0, i32 noundef %1, i32 noundef %2) #9 comdat !dbg !1817 {
  %4 = alloca ptr, align 8
  %5 = alloca i32, align 4
  %6 = alloca i32, align 4
  %7 = alloca i32, align 4
  %8 = alloca i32, align 4
  %9 = alloca i32, align 4
  store ptr %0, ptr %4, align 8
  call void @llvm.dbg.declare(metadata ptr %4, metadata !4389, metadata !DIExpression()), !dbg !4390
  store i32 %1, ptr %5, align 4
  call void @llvm.dbg.declare(metadata ptr %5, metadata !4391, metadata !DIExpression()), !dbg !4392
  store i32 %2, ptr %6, align 4
  call void @llvm.dbg.declare(metadata ptr %6, metadata !4393, metadata !DIExpression()), !dbg !4394
  call void @llvm.dbg.declare(metadata ptr %7, metadata !4395, metadata !DIExpression()), !dbg !4396
  %10 = load i32, ptr %5, align 4, !dbg !4397
  %11 = sub i32 %10, 1, !dbg !4398
  store i32 %11, ptr %7, align 4, !dbg !4396
  br label %12, !dbg !4399

12:                                               ; preds = %15, %3
  %13 = load i32, ptr %6, align 4, !dbg !4400
  %14 = icmp uge i32 %13, 100, !dbg !4401
  br i1 %14, label %15, label %41, !dbg !4399

15:                                               ; preds = %12
  call void @llvm.dbg.declare(metadata ptr %8, metadata !4402, metadata !DIExpression()), !dbg !4404
  %16 = load i32, ptr %6, align 4, !dbg !4405
  %17 = urem i32 %16, 100, !dbg !4406
  %18 = mul i32 %17, 2, !dbg !4407
  store i32 %18, ptr %8, align 4, !dbg !4404
  %19 = load i32, ptr %6, align 4, !dbg !4408
  %20 = udiv i32 %19, 100, !dbg !4408
  store i32 %20, ptr %6, align 4, !dbg !4408
  %21 = load i32, ptr %8, align 4, !dbg !4409
  %22 = add i32 %21, 1, !dbg !4410
  %23 = zext i32 %22 to i64, !dbg !4411
  %24 = getelementptr inbounds [201 x i8], ptr @_ZZNSt8__detail18__to_chars_10_implIjEEvPcjT_E8__digits, i64 0, i64 %23, !dbg !4411
  %25 = load i8, ptr %24, align 1, !dbg !4411
  %26 = load ptr, ptr %4, align 8, !dbg !4412
  %27 = load i32, ptr %7, align 4, !dbg !4413
  %28 = zext i32 %27 to i64, !dbg !4412
  %29 = getelementptr inbounds i8, ptr %26, i64 %28, !dbg !4412
  store i8 %25, ptr %29, align 1, !dbg !4414
  %30 = load i32, ptr %8, align 4, !dbg !4415
  %31 = zext i32 %30 to i64, !dbg !4416
  %32 = getelementptr inbounds [201 x i8], ptr @_ZZNSt8__detail18__to_chars_10_implIjEEvPcjT_E8__digits, i64 0, i64 %31, !dbg !4416
  %33 = load i8, ptr %32, align 1, !dbg !4416
  %34 = load ptr, ptr %4, align 8, !dbg !4417
  %35 = load i32, ptr %7, align 4, !dbg !4418
  %36 = sub i32 %35, 1, !dbg !4419
  %37 = zext i32 %36 to i64, !dbg !4417
  %38 = getelementptr inbounds i8, ptr %34, i64 %37, !dbg !4417
  store i8 %33, ptr %38, align 1, !dbg !4420
  %39 = load i32, ptr %7, align 4, !dbg !4421
  %40 = sub i32 %39, 2, !dbg !4421
  store i32 %40, ptr %7, align 4, !dbg !4421
  br label %12, !dbg !4399, !llvm.loop !4422

41:                                               ; preds = %12
  %42 = load i32, ptr %6, align 4, !dbg !4424
  %43 = icmp uge i32 %42, 10, !dbg !4426
  br i1 %43, label %44, label %60, !dbg !4427

44:                                               ; preds = %41
  call void @llvm.dbg.declare(metadata ptr %9, metadata !4428, metadata !DIExpression()), !dbg !4430
  %45 = load i32, ptr %6, align 4, !dbg !4431
  %46 = mul i32 %45, 2, !dbg !4432
  store i32 %46, ptr %9, align 4, !dbg !4430
  %47 = load i32, ptr %9, align 4, !dbg !4433
  %48 = add i32 %47, 1, !dbg !4434
  %49 = zext i32 %48 to i64, !dbg !4435
  %50 = getelementptr inbounds [201 x i8], ptr @_ZZNSt8__detail18__to_chars_10_implIjEEvPcjT_E8__digits, i64 0, i64 %49, !dbg !4435
  %51 = load i8, ptr %50, align 1, !dbg !4435
  %52 = load ptr, ptr %4, align 8, !dbg !4436
  %53 = getelementptr inbounds i8, ptr %52, i64 1, !dbg !4436
  store i8 %51, ptr %53, align 1, !dbg !4437
  %54 = load i32, ptr %9, align 4, !dbg !4438
  %55 = zext i32 %54 to i64, !dbg !4439
  %56 = getelementptr inbounds [201 x i8], ptr @_ZZNSt8__detail18__to_chars_10_implIjEEvPcjT_E8__digits, i64 0, i64 %55, !dbg !4439
  %57 = load i8, ptr %56, align 1, !dbg !4439
  %58 = load ptr, ptr %4, align 8, !dbg !4440
  %59 = getelementptr inbounds i8, ptr %58, i64 0, !dbg !4440
  store i8 %57, ptr %59, align 1, !dbg !4441
  br label %66, !dbg !4442

60:                                               ; preds = %41
  %61 = load i32, ptr %6, align 4, !dbg !4443
  %62 = add i32 48, %61, !dbg !4444
  %63 = trunc i32 %62 to i8, !dbg !4445
  %64 = load ptr, ptr %4, align 8, !dbg !4446
  %65 = getelementptr inbounds i8, ptr %64, i64 0, !dbg !4446
  store i8 %63, ptr %65, align 1, !dbg !4447
  br label %66

66:                                               ; preds = %60, %44
  ret void, !dbg !4448
}

declare noundef nonnull align 1 dereferenceable(1) ptr @_ZNSt7__cxx1112basic_stringIcSt11char_traitsIcESaIcEEixEm(ptr noundef nonnull align 8 dereferenceable(32), i64 noundef) #1

declare noundef ptr @_ZNSt7__cxx1112basic_stringIcSt11char_traitsIcESaIcEE13_M_local_dataEv(ptr noundef nonnull align 8 dereferenceable(32)) #1

declare void @_ZNSt7__cxx1112basic_stringIcSt11char_traitsIcESaIcEE12_Alloc_hiderC1EPcRKS3_(ptr noundef nonnull align 8 dereferenceable(8), ptr noundef, ptr noundef nonnull align 1 dereferenceable(1)) unnamed_addr #1

declare void @_ZNSt7__cxx1112basic_stringIcSt11char_traitsIcESaIcEE12_M_constructEmc(ptr noundef nonnull align 8 dereferenceable(32), i64 noundef, i8 noundef signext) #1

; Function Attrs: noinline nounwind optnone uwtable
define linkonce_odr dso_local void @_ZNSt7__cxx1112basic_stringIcSt11char_traitsIcESaIcEE12_Alloc_hiderD2Ev(ptr noundef nonnull align 8 dereferenceable(8) %0) unnamed_addr #4 comdat align 2 !dbg !4449 {
  %2 = alloca ptr, align 8
  store ptr %0, ptr %2, align 8
  call void @llvm.dbg.declare(metadata ptr %2, metadata !4454, metadata !DIExpression()), !dbg !4456
  %3 = load ptr, ptr %2, align 8
  call void @_ZNSaIcED2Ev(ptr noundef nonnull align 1 dereferenceable(1) %3) #3, !dbg !4457
  ret void, !dbg !4459
}

; Function Attrs: nounwind
declare void @_ZNSaIcED2Ev(ptr noundef nonnull align 1 dereferenceable(1)) unnamed_addr #2

declare noundef nonnull align 8 dereferenceable(32) ptr @_ZNSt7__cxx1112basic_stringIcSt11char_traitsIcESaIcEE6appendEPKc(ptr noundef nonnull align 8 dereferenceable(32), ptr noundef) #1

; Function Attrs: nounwind
declare noundef i64 @_ZNKSt7__cxx1112basic_stringIcSt11char_traitsIcESaIcEE4sizeEv(ptr noundef nonnull align 8 dereferenceable(32)) #2

; Function Attrs: nounwind
declare noundef i64 @_ZNKSt7__cxx1112basic_stringIcSt11char_traitsIcESaIcEE8capacityEv(ptr noundef nonnull align 8 dereferenceable(32)) #2

declare noundef nonnull align 8 dereferenceable(32) ptr @_ZNSt7__cxx1112basic_stringIcSt11char_traitsIcESaIcEE6insertEmRKS4_(ptr noundef nonnull align 8 dereferenceable(32), i64 noundef, ptr noundef nonnull align 8 dereferenceable(32)) #1

; Function Attrs: nounwind
declare void @_ZNSt7__cxx1112basic_stringIcSt11char_traitsIcESaIcEEC1EOS4_(ptr noundef nonnull align 8 dereferenceable(32), ptr noundef nonnull align 8 dereferenceable(32)) unnamed_addr #2

declare noundef nonnull align 8 dereferenceable(32) ptr @_ZNSt7__cxx1112basic_stringIcSt11char_traitsIcESaIcEE6appendERKS4_(ptr noundef nonnull align 8 dereferenceable(32), ptr noundef nonnull align 8 dereferenceable(32)) #1

; Function Attrs: mustprogress noinline optnone uwtable
define linkonce_odr dso_local noundef i64 @_ZNSt11char_traitsIcE6lengthEPKc(ptr noundef %0) #5 comdat align 2 !dbg !4460 {
  %2 = alloca ptr, align 8
  %3 = alloca i64, align 8
  %4 = alloca ptr, align 8
  store ptr %0, ptr %4, align 8
  call void @llvm.dbg.declare(metadata ptr %4, metadata !4461, metadata !DIExpression()), !dbg !4462
  %5 = load ptr, ptr %4, align 8, !dbg !4463
  store ptr %5, ptr %2, align 8
  call void @llvm.dbg.declare(metadata ptr %2, metadata !4465, metadata !DIExpression()), !dbg !4469
  br i1 false, label %6, label %9, !dbg !4471

6:                                                ; preds = %1
  %7 = load ptr, ptr %4, align 8, !dbg !4472
  %8 = call noundef i64 @_ZN9__gnu_cxx11char_traitsIcE6lengthEPKc(ptr noundef %7), !dbg !4473
  store i64 %8, ptr %3, align 8, !dbg !4474
  br label %12, !dbg !4474

9:                                                ; preds = %1
  %10 = load ptr, ptr %4, align 8, !dbg !4475
  %11 = call i64 @strlen(ptr noundef %10) #3, !dbg !4476
  store i64 %11, ptr %3, align 8, !dbg !4477
  br label %12, !dbg !4477

12:                                               ; preds = %9, %6
  %13 = load i64, ptr %3, align 8, !dbg !4478
  ret i64 %13, !dbg !4478
}

; Function Attrs: mustprogress noinline optnone uwtable
define linkonce_odr dso_local void @_ZNSt7__cxx1112basic_stringIcSt11char_traitsIcESaIcEE12_M_constructIPKcEEvT_S8_St20forward_iterator_tag(ptr noundef nonnull align 8 dereferenceable(32) %0, ptr noundef %1, ptr noundef %2) #5 comdat align 2 personality ptr @__gxx_personality_v0 !dbg !4479 {
  %4 = alloca %"struct.std::forward_iterator_tag", align 1
  %5 = alloca ptr, align 8
  %6 = alloca ptr, align 8
  %7 = alloca ptr, align 8
  %8 = alloca i64, align 8
  %9 = alloca ptr, align 8
  %10 = alloca i32, align 4
  store ptr %0, ptr %5, align 8
  call void @llvm.dbg.declare(metadata ptr %5, metadata !4485, metadata !DIExpression()), !dbg !4486
  store ptr %1, ptr %6, align 8
  call void @llvm.dbg.declare(metadata ptr %6, metadata !4487, metadata !DIExpression()), !dbg !4488
  store ptr %2, ptr %7, align 8
  call void @llvm.dbg.declare(metadata ptr %7, metadata !4489, metadata !DIExpression()), !dbg !4490
  call void @llvm.dbg.declare(metadata ptr %4, metadata !4491, metadata !DIExpression()), !dbg !4492
  %11 = load ptr, ptr %5, align 8
  %12 = load ptr, ptr %6, align 8, !dbg !4493
  %13 = call noundef zeroext i1 @_ZN9__gnu_cxx17__is_null_pointerIKcEEbPT_(ptr noundef %12), !dbg !4495
  br i1 %13, label %14, label %19, !dbg !4496

14:                                               ; preds = %3
  %15 = load ptr, ptr %6, align 8, !dbg !4497
  %16 = load ptr, ptr %7, align 8, !dbg !4498
  %17 = icmp ne ptr %15, %16, !dbg !4499
  br i1 %17, label %18, label %19, !dbg !4500

18:                                               ; preds = %14
  call void @_ZSt19__throw_logic_errorPKc(ptr noundef @.str.20) #22, !dbg !4501
  unreachable, !dbg !4501

19:                                               ; preds = %14, %3
  call void @llvm.dbg.declare(metadata ptr %8, metadata !4502, metadata !DIExpression()), !dbg !4503
  %20 = load ptr, ptr %6, align 8, !dbg !4504
  %21 = load ptr, ptr %7, align 8, !dbg !4505
  %22 = call noundef i64 @_ZSt8distanceIPKcENSt15iterator_traitsIT_E15difference_typeES3_S3_(ptr noundef %20, ptr noundef %21), !dbg !4506
  store i64 %22, ptr %8, align 8, !dbg !4503
  %23 = load i64, ptr %8, align 8, !dbg !4507
  %24 = icmp ugt i64 %23, 15, !dbg !4509
  br i1 %24, label %25, label %28, !dbg !4510

25:                                               ; preds = %19
  %26 = call noundef ptr @_ZNSt7__cxx1112basic_stringIcSt11char_traitsIcESaIcEE9_M_createERmm(ptr noundef nonnull align 8 dereferenceable(32) %11, ptr noundef nonnull align 8 dereferenceable(8) %8, i64 noundef 0), !dbg !4511
  call void @_ZNSt7__cxx1112basic_stringIcSt11char_traitsIcESaIcEE7_M_dataEPc(ptr noundef nonnull align 8 dereferenceable(32) %11, ptr noundef %26), !dbg !4513
  %27 = load i64, ptr %8, align 8, !dbg !4514
  call void @_ZNSt7__cxx1112basic_stringIcSt11char_traitsIcESaIcEE11_M_capacityEm(ptr noundef nonnull align 8 dereferenceable(32) %11, i64 noundef %27), !dbg !4515
  br label %28, !dbg !4516

28:                                               ; preds = %25, %19
  %29 = invoke noundef ptr @_ZNKSt7__cxx1112basic_stringIcSt11char_traitsIcESaIcEE7_M_dataEv(ptr noundef nonnull align 8 dereferenceable(32) %11)
          to label %30 unwind label %33, !dbg !4517

30:                                               ; preds = %28
  %31 = load ptr, ptr %6, align 8, !dbg !4519
  %32 = load ptr, ptr %7, align 8, !dbg !4520
  call void @_ZNSt7__cxx1112basic_stringIcSt11char_traitsIcESaIcEE13_S_copy_charsEPcPKcS7_(ptr noundef %29, ptr noundef %31, ptr noundef %32) #3, !dbg !4521
  br label %46, !dbg !4522

33:                                               ; preds = %28
  %34 = landingpad { ptr, i32 }
          catch ptr null, !dbg !4523
  %35 = extractvalue { ptr, i32 } %34, 0, !dbg !4523
  store ptr %35, ptr %9, align 8, !dbg !4523
  %36 = extractvalue { ptr, i32 } %34, 1, !dbg !4523
  store i32 %36, ptr %10, align 4, !dbg !4523
  br label %37, !dbg !4523

37:                                               ; preds = %33
  %38 = load ptr, ptr %9, align 8, !dbg !4522
  %39 = call ptr @__cxa_begin_catch(ptr %38) #3, !dbg !4522
  invoke void @_ZNSt7__cxx1112basic_stringIcSt11char_traitsIcESaIcEE10_M_disposeEv(ptr noundef nonnull align 8 dereferenceable(32) %11)
          to label %40 unwind label %41, !dbg !4524

40:                                               ; preds = %37
  invoke void @__cxa_rethrow() #22
          to label %56 unwind label %41, !dbg !4526

41:                                               ; preds = %40, %37
  %42 = landingpad { ptr, i32 }
          cleanup, !dbg !4527
  %43 = extractvalue { ptr, i32 } %42, 0, !dbg !4527
  store ptr %43, ptr %9, align 8, !dbg !4527
  %44 = extractvalue { ptr, i32 } %42, 1, !dbg !4527
  store i32 %44, ptr %10, align 4, !dbg !4527
  invoke void @__cxa_end_catch()
          to label %45 unwind label %53, !dbg !4528

45:                                               ; preds = %41
  br label %48, !dbg !4528

46:                                               ; preds = %30
  %47 = load i64, ptr %8, align 8, !dbg !4529
  call void @_ZNSt7__cxx1112basic_stringIcSt11char_traitsIcESaIcEE13_M_set_lengthEm(ptr noundef nonnull align 8 dereferenceable(32) %11, i64 noundef %47), !dbg !4530
  ret void, !dbg !4531

48:                                               ; preds = %45
  %49 = load ptr, ptr %9, align 8, !dbg !4528
  %50 = load i32, ptr %10, align 4, !dbg !4528
  %51 = insertvalue { ptr, i32 } poison, ptr %49, 0, !dbg !4528
  %52 = insertvalue { ptr, i32 } %51, i32 %50, 1, !dbg !4528
  resume { ptr, i32 } %52, !dbg !4528

53:                                               ; preds = %41
  %54 = landingpad { ptr, i32 }
          catch ptr null, !dbg !4528
  %55 = extractvalue { ptr, i32 } %54, 0, !dbg !4528
  call void @__clang_call_terminate(ptr %55) #21, !dbg !4528
  unreachable, !dbg !4528

56:                                               ; preds = %40
  unreachable
}

; Function Attrs: mustprogress noinline optnone uwtable
define linkonce_odr dso_local noundef i64 @_ZN9__gnu_cxx11char_traitsIcE6lengthEPKc(ptr noundef %0) #5 comdat align 2 !dbg !4532 {
  %2 = alloca ptr, align 8
  %3 = alloca i64, align 8
  %4 = alloca i8, align 1
  store ptr %0, ptr %2, align 8
  call void @llvm.dbg.declare(metadata ptr %2, metadata !4584, metadata !DIExpression()), !dbg !4585
  call void @llvm.dbg.declare(metadata ptr %3, metadata !4586, metadata !DIExpression()), !dbg !4587
  store i64 0, ptr %3, align 8, !dbg !4587
  br label %5, !dbg !4588

5:                                                ; preds = %11, %1
  %6 = load ptr, ptr %2, align 8, !dbg !4589
  %7 = load i64, ptr %3, align 8, !dbg !4590
  %8 = getelementptr inbounds i8, ptr %6, i64 %7, !dbg !4589
  store i8 0, ptr %4, align 1, !dbg !4591
  %9 = call noundef zeroext i1 @_ZN9__gnu_cxx11char_traitsIcE2eqERKcS3_(ptr noundef nonnull align 1 dereferenceable(1) %8, ptr noundef nonnull align 1 dereferenceable(1) %4), !dbg !4592
  %10 = xor i1 %9, true, !dbg !4593
  br i1 %10, label %11, label %14, !dbg !4588

11:                                               ; preds = %5
  %12 = load i64, ptr %3, align 8, !dbg !4594
  %13 = add i64 %12, 1, !dbg !4594
  store i64 %13, ptr %3, align 8, !dbg !4594
  br label %5, !dbg !4588, !llvm.loop !4595

14:                                               ; preds = %5
  %15 = load i64, ptr %3, align 8, !dbg !4597
  ret i64 %15, !dbg !4598
}

; Function Attrs: mustprogress noinline nounwind optnone uwtable
define linkonce_odr dso_local noundef zeroext i1 @_ZN9__gnu_cxx11char_traitsIcE2eqERKcS3_(ptr noundef nonnull align 1 dereferenceable(1) %0, ptr noundef nonnull align 1 dereferenceable(1) %1) #9 comdat align 2 !dbg !4599 {
  %3 = alloca ptr, align 8
  %4 = alloca ptr, align 8
  store ptr %0, ptr %3, align 8
  call void @llvm.dbg.declare(metadata ptr %3, metadata !4600, metadata !DIExpression()), !dbg !4601
  store ptr %1, ptr %4, align 8
  call void @llvm.dbg.declare(metadata ptr %4, metadata !4602, metadata !DIExpression()), !dbg !4603
  %5 = load ptr, ptr %3, align 8, !dbg !4604
  %6 = load i8, ptr %5, align 1, !dbg !4604
  %7 = sext i8 %6 to i32, !dbg !4604
  %8 = load ptr, ptr %4, align 8, !dbg !4605
  %9 = load i8, ptr %8, align 1, !dbg !4605
  %10 = sext i8 %9 to i32, !dbg !4605
  %11 = icmp eq i32 %7, %10, !dbg !4606
  ret i1 %11, !dbg !4607
}

; Function Attrs: mustprogress noinline nounwind optnone uwtable
define linkonce_odr dso_local noundef zeroext i1 @_ZN9__gnu_cxx17__is_null_pointerIKcEEbPT_(ptr noundef %0) #9 comdat !dbg !4608 {
  %2 = alloca ptr, align 8
  store ptr %0, ptr %2, align 8
  call void @llvm.dbg.declare(metadata ptr %2, metadata !4612, metadata !DIExpression()), !dbg !4613
  %3 = load ptr, ptr %2, align 8, !dbg !4614
  %4 = icmp eq ptr %3, null, !dbg !4615
  ret i1 %4, !dbg !4616
}

; Function Attrs: noreturn
declare void @_ZSt19__throw_logic_errorPKc(ptr noundef) #15

; Function Attrs: mustprogress noinline optnone uwtable
define linkonce_odr dso_local noundef i64 @_ZSt8distanceIPKcENSt15iterator_traitsIT_E15difference_typeES3_S3_(ptr noundef %0, ptr noundef %1) #5 comdat !dbg !4617 {
  %3 = alloca ptr, align 8
  %4 = alloca ptr, align 8
  %5 = alloca %"struct.std::random_access_iterator_tag", align 1
  %6 = alloca %"struct.std::random_access_iterator_tag", align 1
  store ptr %0, ptr %3, align 8
  call void @llvm.dbg.declare(metadata ptr %3, metadata !4623, metadata !DIExpression()), !dbg !4624
  store ptr %1, ptr %4, align 8
  call void @llvm.dbg.declare(metadata ptr %4, metadata !4625, metadata !DIExpression()), !dbg !4626
  %7 = load ptr, ptr %3, align 8, !dbg !4627
  %8 = load ptr, ptr %4, align 8, !dbg !4628
  call void @_ZSt19__iterator_categoryIPKcENSt15iterator_traitsIT_E17iterator_categoryERKS3_(ptr noundef nonnull align 8 dereferenceable(8) %3), !dbg !4629
  %9 = call noundef i64 @_ZSt10__distanceIPKcENSt15iterator_traitsIT_E15difference_typeES3_S3_St26random_access_iterator_tag(ptr noundef %7, ptr noundef %8), !dbg !4630
  ret i64 %9, !dbg !4631
}

declare void @_ZNSt7__cxx1112basic_stringIcSt11char_traitsIcESaIcEE7_M_dataEPc(ptr noundef nonnull align 8 dereferenceable(32), ptr noundef) #1

declare noundef ptr @_ZNSt7__cxx1112basic_stringIcSt11char_traitsIcESaIcEE9_M_createERmm(ptr noundef nonnull align 8 dereferenceable(32), ptr noundef nonnull align 8 dereferenceable(8), i64 noundef) #1

declare void @_ZNSt7__cxx1112basic_stringIcSt11char_traitsIcESaIcEE11_M_capacityEm(ptr noundef nonnull align 8 dereferenceable(32), i64 noundef) #1

; Function Attrs: nounwind
declare void @_ZNSt7__cxx1112basic_stringIcSt11char_traitsIcESaIcEE13_S_copy_charsEPcPKcS7_(ptr noundef, ptr noundef, ptr noundef) #2

declare noundef ptr @_ZNKSt7__cxx1112basic_stringIcSt11char_traitsIcESaIcEE7_M_dataEv(ptr noundef nonnull align 8 dereferenceable(32)) #1

declare void @_ZNSt7__cxx1112basic_stringIcSt11char_traitsIcESaIcEE10_M_disposeEv(ptr noundef nonnull align 8 dereferenceable(32)) #1

declare void @__cxa_rethrow()

declare void @_ZNSt7__cxx1112basic_stringIcSt11char_traitsIcESaIcEE13_M_set_lengthEm(ptr noundef nonnull align 8 dereferenceable(32), i64 noundef) #1

; Function Attrs: mustprogress noinline nounwind optnone uwtable
define linkonce_odr dso_local noundef i64 @_ZSt10__distanceIPKcENSt15iterator_traitsIT_E15difference_typeES3_S3_St26random_access_iterator_tag(ptr noundef %0, ptr noundef %1) #9 comdat !dbg !4632 {
  %3 = alloca %"struct.std::random_access_iterator_tag", align 1
  %4 = alloca ptr, align 8
  %5 = alloca ptr, align 8
  store ptr %0, ptr %4, align 8
  call void @llvm.dbg.declare(metadata ptr %4, metadata !4637, metadata !DIExpression()), !dbg !4638
  store ptr %1, ptr %5, align 8
  call void @llvm.dbg.declare(metadata ptr %5, metadata !4639, metadata !DIExpression()), !dbg !4640
  call void @llvm.dbg.declare(metadata ptr %3, metadata !4641, metadata !DIExpression()), !dbg !4642
  %6 = load ptr, ptr %5, align 8, !dbg !4643
  %7 = load ptr, ptr %4, align 8, !dbg !4644
  %8 = ptrtoint ptr %6 to i64, !dbg !4645
  %9 = ptrtoint ptr %7 to i64, !dbg !4645
  %10 = sub i64 %8, %9, !dbg !4645
  ret i64 %10, !dbg !4646
}

; Function Attrs: mustprogress noinline nounwind optnone uwtable
define linkonce_odr dso_local void @_ZSt19__iterator_categoryIPKcENSt15iterator_traitsIT_E17iterator_categoryERKS3_(ptr noundef nonnull align 8 dereferenceable(8) %0) #9 comdat !dbg !4647 {
  %2 = alloca ptr, align 8
  store ptr %0, ptr %2, align 8
  call void @llvm.dbg.declare(metadata ptr %2, metadata !4653, metadata !DIExpression()), !dbg !4654
  ret void, !dbg !4655
}

declare ptr @__cxa_allocate_exception(i64)

declare void @_ZN4Poco20NullPointerExceptionC1Ei(ptr noundef nonnull align 8 dereferenceable(52), i32 noundef) unnamed_addr #1

declare void @__cxa_free_exception(ptr)

; Function Attrs: nounwind
declare void @_ZN4Poco20NullPointerExceptionD1Ev(ptr noundef nonnull align 8 dereferenceable(52)) unnamed_addr #2

declare void @__cxa_throw(ptr, ptr, ptr)

declare void @_ZN4Poco13LocalDateTimeC1Ev(ptr noundef nonnull align 8 dereferenceable(28)) unnamed_addr #1

; Function Attrs: nounwind
declare void @_ZN4Poco13LocalDateTimeD1Ev(ptr noundef nonnull align 8 dereferenceable(28)) unnamed_addr #2

; Function Attrs: mustprogress noinline nounwind optnone uwtable
define linkonce_odr dso_local void @_ZNK4Poco16RefCountedObject7releaseEv(ptr noundef nonnull align 8 dereferenceable(12) %0) #9 comdat align 2 personality ptr @__gxx_personality_v0 !dbg !4656 {
  %2 = alloca ptr, align 8
  %3 = alloca ptr, align 8
  %4 = alloca i32, align 4
  store ptr %0, ptr %2, align 8
  call void @llvm.dbg.declare(metadata ptr %2, metadata !4663, metadata !DIExpression()), !dbg !4665
  %5 = load ptr, ptr %2, align 8
  %6 = getelementptr inbounds %"class.Poco::RefCountedObject", ptr %5, i32 0, i32 1, !dbg !4666
  %7 = invoke noundef i32 @_ZN4Poco13AtomicCountermmEv(ptr noundef nonnull align 4 dereferenceable(4) %6)
          to label %8 unwind label %17, !dbg !4669

8:                                                ; preds = %1
  %9 = icmp eq i32 %7, 0, !dbg !4670
  br i1 %9, label %10, label %27, !dbg !4671

10:                                               ; preds = %8
  %11 = icmp eq ptr %5, null, !dbg !4672
  br i1 %11, label %16, label %12, !dbg !4672

12:                                               ; preds = %10
  %13 = load ptr, ptr %5, align 8, !dbg !4672
  %14 = getelementptr inbounds ptr, ptr %13, i64 1, !dbg !4672
  %15 = load ptr, ptr %14, align 8, !dbg !4672
  call void %15(ptr noundef nonnull align 8 dereferenceable(12) %5) #3, !dbg !4672
  br label %16, !dbg !4672

16:                                               ; preds = %12, %10
  br label %27, !dbg !4672

17:                                               ; preds = %1
  %18 = landingpad { ptr, i32 }
          catch ptr null, !dbg !4673
  %19 = extractvalue { ptr, i32 } %18, 0, !dbg !4673
  store ptr %19, ptr %3, align 8, !dbg !4673
  %20 = extractvalue { ptr, i32 } %18, 1, !dbg !4673
  store i32 %20, ptr %4, align 4, !dbg !4673
  br label %21, !dbg !4673

21:                                               ; preds = %17
  %22 = load ptr, ptr %3, align 8, !dbg !4674
  %23 = call ptr @__cxa_begin_catch(ptr %22) #3, !dbg !4674
  invoke void @_ZN4Poco8Bugcheck10unexpectedEPKci(ptr noundef @.str.21, i32 noundef 86)
          to label %24 unwind label %28, !dbg !4675

24:                                               ; preds = %21
  invoke void @__cxa_end_catch()
          to label %25 unwind label %28, !dbg !4677

25:                                               ; preds = %24
  br label %26, !dbg !4677

26:                                               ; preds = %25, %27
  ret void, !dbg !4678

27:                                               ; preds = %16, %8
  br label %26, !dbg !4674

28:                                               ; preds = %24, %21
  %29 = landingpad { ptr, i32 }
          catch ptr null, !dbg !4675
  %30 = extractvalue { ptr, i32 } %29, 0, !dbg !4675
  call void @__clang_call_terminate(ptr %30) #21, !dbg !4675
  unreachable, !dbg !4675
}

; Function Attrs: mustprogress noinline nounwind optnone uwtable
define linkonce_odr dso_local noundef i32 @_ZN4Poco13AtomicCountermmEv(ptr noundef nonnull align 4 dereferenceable(4) %0) #9 comdat align 2 !dbg !4679 {
  %2 = alloca ptr, align 8
  store ptr %0, ptr %2, align 8
  call void @llvm.dbg.declare(metadata ptr %2, metadata !4687, metadata !DIExpression()), !dbg !4689
  %3 = load ptr, ptr %2, align 8
  %4 = getelementptr inbounds %"class.Poco::AtomicCounter", ptr %3, i32 0, i32 0, !dbg !4690
  %5 = call noundef i32 @_ZNSt13__atomic_baseIiEmmEv(ptr noundef nonnull align 4 dereferenceable(4) %4) #3, !dbg !4691
  ret i32 %5, !dbg !4692
}

declare void @_ZN4Poco8Bugcheck10unexpectedEPKci(ptr noundef, i32 noundef) #1

; Function Attrs: mustprogress noinline nounwind optnone uwtable
define linkonce_odr dso_local noundef i32 @_ZNSt13__atomic_baseIiEmmEv(ptr noundef nonnull align 4 dereferenceable(4) %0) #9 comdat align 2 !dbg !4693 {
  %2 = alloca ptr, align 8
  %3 = alloca i32, align 4
  %4 = alloca i32, align 4
  store ptr %0, ptr %2, align 8
  call void @llvm.dbg.declare(metadata ptr %2, metadata !4694, metadata !DIExpression()), !dbg !4696
  %5 = load ptr, ptr %2, align 8
  %6 = getelementptr inbounds %"struct.std::__atomic_base", ptr %5, i32 0, i32 0, !dbg !4697
  store i32 1, ptr %3, align 4, !dbg !4698
  %7 = load i32, ptr %3, align 4, !dbg !4698
  %8 = atomicrmw sub ptr %6, i32 %7 seq_cst, align 4, !dbg !4698
  %9 = sub i32 %8, %7, !dbg !4698
  store i32 %9, ptr %4, align 4, !dbg !4698
  %10 = load i32, ptr %4, align 4, !dbg !4698
  ret i32 %10, !dbg !4699
}

; Function Attrs: mustprogress noinline nounwind optnone uwtable
define linkonce_odr dso_local noundef nonnull align 8 dereferenceable(8) ptr @_ZN4Poco7AutoPtrINS_7ChannelEE6assignEPS1_(ptr noundef nonnull align 8 dereferenceable(8) %0, ptr noundef %1) #9 comdat align 2 !dbg !4700 {
  %3 = alloca ptr, align 8
  %4 = alloca ptr, align 8
  store ptr %0, ptr %3, align 8
  call void @llvm.dbg.declare(metadata ptr %3, metadata !4701, metadata !DIExpression()), !dbg !4702
  store ptr %1, ptr %4, align 8
  call void @llvm.dbg.declare(metadata ptr %4, metadata !4703, metadata !DIExpression()), !dbg !4704
  %5 = load ptr, ptr %3, align 8
  %6 = getelementptr inbounds %"class.Poco::AutoPtr", ptr %5, i32 0, i32 0, !dbg !4705
  %7 = load ptr, ptr %6, align 8, !dbg !4705
  %8 = load ptr, ptr %4, align 8, !dbg !4707
  %9 = icmp ne ptr %7, %8, !dbg !4708
  br i1 %9, label %10, label %21, !dbg !4709

10:                                               ; preds = %2
  %11 = getelementptr inbounds %"class.Poco::AutoPtr", ptr %5, i32 0, i32 0, !dbg !4710
  %12 = load ptr, ptr %11, align 8, !dbg !4710
  %13 = icmp ne ptr %12, null, !dbg !4710
  br i1 %13, label %14, label %18, !dbg !4713

14:                                               ; preds = %10
  %15 = getelementptr inbounds %"class.Poco::AutoPtr", ptr %5, i32 0, i32 0, !dbg !4714
  %16 = load ptr, ptr %15, align 8, !dbg !4714
  %17 = getelementptr inbounds i8, ptr %16, i64 8, !dbg !4715
  call void @_ZNK4Poco16RefCountedObject7releaseEv(ptr noundef nonnull align 8 dereferenceable(12) %17) #3, !dbg !4715
  br label %18, !dbg !4714

18:                                               ; preds = %14, %10
  %19 = load ptr, ptr %4, align 8, !dbg !4716
  %20 = getelementptr inbounds %"class.Poco::AutoPtr", ptr %5, i32 0, i32 0, !dbg !4717
  store ptr %19, ptr %20, align 8, !dbg !4718
  br label %21, !dbg !4719

21:                                               ; preds = %18, %2
  ret ptr %5, !dbg !4720
}

; Function Attrs: mustprogress noinline nounwind optnone uwtable
define linkonce_odr dso_local ptr @_ZNKSt8_Rb_treeINSt7__cxx1112basic_stringIcSt11char_traitsIcESaIcEEESt4pairIKS5_S5_ESt10_Select1stIS8_ESt4lessIS5_ESaIS8_EE5beginEv(ptr noundef nonnull align 8 dereferenceable(48) %0) #9 comdat align 2 !dbg !4721 {
  %2 = alloca %"struct.std::_Rb_tree_const_iterator", align 8
  %3 = alloca ptr, align 8
  store ptr %0, ptr %3, align 8
  call void @llvm.dbg.declare(metadata ptr %3, metadata !4727, metadata !DIExpression()), !dbg !4729
  %4 = load ptr, ptr %3, align 8
  %5 = getelementptr inbounds %"class.std::_Rb_tree", ptr %4, i32 0, i32 0, !dbg !4730
  %6 = getelementptr inbounds i8, ptr %5, i64 8, !dbg !4731
  %7 = getelementptr inbounds %"struct.std::_Rb_tree_header", ptr %6, i32 0, i32 0, !dbg !4732
  %8 = getelementptr inbounds %"struct.std::_Rb_tree_node_base", ptr %7, i32 0, i32 2, !dbg !4733
  %9 = load ptr, ptr %8, align 8, !dbg !4733
  call void @_ZNSt23_Rb_tree_const_iteratorISt4pairIKNSt7__cxx1112basic_stringIcSt11char_traitsIcESaIcEEES6_EEC2EPKSt18_Rb_tree_node_base(ptr noundef nonnull align 8 dereferenceable(8) %2, ptr noundef %9) #3, !dbg !4734
  %10 = getelementptr inbounds %"struct.std::_Rb_tree_const_iterator", ptr %2, i32 0, i32 0, !dbg !4735
  %11 = load ptr, ptr %10, align 8, !dbg !4735
  ret ptr %11, !dbg !4735
}

; Function Attrs: noinline nounwind optnone uwtable
define linkonce_odr dso_local void @_ZNSt23_Rb_tree_const_iteratorISt4pairIKNSt7__cxx1112basic_stringIcSt11char_traitsIcESaIcEEES6_EEC2EPKSt18_Rb_tree_node_base(ptr noundef nonnull align 8 dereferenceable(8) %0, ptr noundef %1) unnamed_addr #4 comdat align 2 !dbg !4736 {
  %3 = alloca ptr, align 8
  %4 = alloca ptr, align 8
  store ptr %0, ptr %3, align 8
  call void @llvm.dbg.declare(metadata ptr %3, metadata !4737, metadata !DIExpression()), !dbg !4738
  store ptr %1, ptr %4, align 8
  call void @llvm.dbg.declare(metadata ptr %4, metadata !4739, metadata !DIExpression()), !dbg !4740
  %5 = load ptr, ptr %3, align 8
  %6 = getelementptr inbounds %"struct.std::_Rb_tree_const_iterator", ptr %5, i32 0, i32 0, !dbg !4741
  %7 = load ptr, ptr %4, align 8, !dbg !4742
  store ptr %7, ptr %6, align 8, !dbg !4741
  ret void, !dbg !4743
}

; Function Attrs: mustprogress noinline nounwind optnone uwtable
define linkonce_odr dso_local ptr @_ZNKSt8_Rb_treeINSt7__cxx1112basic_stringIcSt11char_traitsIcESaIcEEESt4pairIKS5_S5_ESt10_Select1stIS8_ESt4lessIS5_ESaIS8_EE3endEv(ptr noundef nonnull align 8 dereferenceable(48) %0) #9 comdat align 2 !dbg !4744 {
  %2 = alloca %"struct.std::_Rb_tree_const_iterator", align 8
  %3 = alloca ptr, align 8
  store ptr %0, ptr %3, align 8
  call void @llvm.dbg.declare(metadata ptr %3, metadata !4746, metadata !DIExpression()), !dbg !4747
  %4 = load ptr, ptr %3, align 8
  %5 = getelementptr inbounds %"class.std::_Rb_tree", ptr %4, i32 0, i32 0, !dbg !4748
  %6 = getelementptr inbounds i8, ptr %5, i64 8, !dbg !4749
  %7 = getelementptr inbounds %"struct.std::_Rb_tree_header", ptr %6, i32 0, i32 0, !dbg !4750
  call void @_ZNSt23_Rb_tree_const_iteratorISt4pairIKNSt7__cxx1112basic_stringIcSt11char_traitsIcESaIcEEES6_EEC2EPKSt18_Rb_tree_node_base(ptr noundef nonnull align 8 dereferenceable(8) %2, ptr noundef %7) #3, !dbg !4751
  %8 = getelementptr inbounds %"struct.std::_Rb_tree_const_iterator", ptr %2, i32 0, i32 0, !dbg !4752
  %9 = load ptr, ptr %8, align 8, !dbg !4752
  ret ptr %9, !dbg !4752
}

; Function Attrs: nounwind willreturn memory(read)
declare noundef ptr @_ZSt18_Rb_tree_incrementPKSt18_Rb_tree_node_base(ptr noundef) #7

; Function Attrs: mustprogress noinline nounwind optnone uwtable
define linkonce_odr dso_local noundef ptr @_ZNKSt13_Rb_tree_nodeISt4pairIKNSt7__cxx1112basic_stringIcSt11char_traitsIcESaIcEEES6_EE9_M_valptrEv(ptr noundef nonnull align 8 dereferenceable(96) %0) #9 comdat align 2 !dbg !4753 {
  %2 = alloca ptr, align 8
  store ptr %0, ptr %2, align 8
  call void @llvm.dbg.declare(metadata ptr %2, metadata !4754, metadata !DIExpression()), !dbg !4755
  %3 = load ptr, ptr %2, align 8
  %4 = getelementptr inbounds %"struct.std::_Rb_tree_node", ptr %3, i32 0, i32 1, !dbg !4756
  %5 = call noundef ptr @_ZNK9__gnu_cxx16__aligned_membufISt4pairIKNSt7__cxx1112basic_stringIcSt11char_traitsIcESaIcEEES7_EE6_M_ptrEv(ptr noundef nonnull align 8 dereferenceable(64) %4) #3, !dbg !4757
  ret ptr %5, !dbg !4758
}

; Function Attrs: mustprogress noinline nounwind optnone uwtable
define linkonce_odr dso_local noundef ptr @_ZNK9__gnu_cxx16__aligned_membufISt4pairIKNSt7__cxx1112basic_stringIcSt11char_traitsIcESaIcEEES7_EE6_M_ptrEv(ptr noundef nonnull align 8 dereferenceable(64) %0) #9 comdat align 2 !dbg !4759 {
  %2 = alloca ptr, align 8
  store ptr %0, ptr %2, align 8
  call void @llvm.dbg.declare(metadata ptr %2, metadata !4760, metadata !DIExpression()), !dbg !4762
  %3 = load ptr, ptr %2, align 8
  %4 = call noundef ptr @_ZNK9__gnu_cxx16__aligned_membufISt4pairIKNSt7__cxx1112basic_stringIcSt11char_traitsIcESaIcEEES7_EE7_M_addrEv(ptr noundef nonnull align 8 dereferenceable(64) %3) #3, !dbg !4763
  ret ptr %4, !dbg !4764
}

; Function Attrs: mustprogress noinline nounwind optnone uwtable
define linkonce_odr dso_local noundef ptr @_ZNK9__gnu_cxx16__aligned_membufISt4pairIKNSt7__cxx1112basic_stringIcSt11char_traitsIcESaIcEEES7_EE7_M_addrEv(ptr noundef nonnull align 8 dereferenceable(64) %0) #9 comdat align 2 !dbg !4765 {
  %2 = alloca ptr, align 8
  store ptr %0, ptr %2, align 8
  call void @llvm.dbg.declare(metadata ptr %2, metadata !4766, metadata !DIExpression()), !dbg !4767
  %3 = load ptr, ptr %2, align 8
  %4 = getelementptr inbounds %"struct.__gnu_cxx::__aligned_membuf", ptr %3, i32 0, i32 0, !dbg !4768
  ret ptr %4, !dbg !4769
}

; Function Attrs: mustprogress noinline optnone uwtable
define linkonce_odr dso_local void @_ZNK4Poco16RefCountedObject9duplicateEv(ptr noundef nonnull align 8 dereferenceable(12) %0) #5 comdat align 2 !dbg !4770 {
  %2 = alloca ptr, align 8
  store ptr %0, ptr %2, align 8
  call void @llvm.dbg.declare(metadata ptr %2, metadata !4772, metadata !DIExpression()), !dbg !4773
  %3 = load ptr, ptr %2, align 8
  %4 = getelementptr inbounds %"class.Poco::RefCountedObject", ptr %3, i32 0, i32 1, !dbg !4774
  %5 = call noundef i32 @_ZN4Poco13AtomicCounterppEv(ptr noundef nonnull align 4 dereferenceable(4) %4), !dbg !4775
  ret void, !dbg !4776
}

; Function Attrs: mustprogress noinline nounwind optnone uwtable
define linkonce_odr dso_local noundef i32 @_ZN4Poco13AtomicCounterppEv(ptr noundef nonnull align 4 dereferenceable(4) %0) #9 comdat align 2 !dbg !4777 {
  %2 = alloca ptr, align 8
  store ptr %0, ptr %2, align 8
  call void @llvm.dbg.declare(metadata ptr %2, metadata !4779, metadata !DIExpression()), !dbg !4780
  %3 = load ptr, ptr %2, align 8
  %4 = getelementptr inbounds %"class.Poco::AtomicCounter", ptr %3, i32 0, i32 0, !dbg !4781
  %5 = call noundef i32 @_ZNSt13__atomic_baseIiEppEv(ptr noundef nonnull align 4 dereferenceable(4) %4) #3, !dbg !4782
  ret i32 %5, !dbg !4783
}

; Function Attrs: mustprogress noinline nounwind optnone uwtable
define linkonce_odr dso_local noundef i32 @_ZNSt13__atomic_baseIiEppEv(ptr noundef nonnull align 4 dereferenceable(4) %0) #9 comdat align 2 !dbg !4784 {
  %2 = alloca ptr, align 8
  %3 = alloca i32, align 4
  %4 = alloca i32, align 4
  store ptr %0, ptr %2, align 8
  call void @llvm.dbg.declare(metadata ptr %2, metadata !4785, metadata !DIExpression()), !dbg !4786
  %5 = load ptr, ptr %2, align 8
  %6 = getelementptr inbounds %"struct.std::__atomic_base", ptr %5, i32 0, i32 0, !dbg !4787
  store i32 1, ptr %3, align 4, !dbg !4788
  %7 = load i32, ptr %3, align 4, !dbg !4788
  %8 = atomicrmw add ptr %6, i32 %7 seq_cst, align 4, !dbg !4788
  %9 = add i32 %8, %7, !dbg !4788
  store i32 %9, ptr %4, align 4, !dbg !4788
  %10 = load i32, ptr %4, align 4, !dbg !4788
  ret i32 %10, !dbg !4789
}

; Function Attrs: noinline uwtable
define internal void @_GLOBAL__sub_I_Log.cpp() #0 section ".text.startup" !dbg !4790 {
  call void @__cxx_global_var_init(), !dbg !4792
  call void @__cxx_global_var_init.1(), !dbg !4792
  call void @__cxx_global_var_init.2(), !dbg !4792
  ret void
}

; Function Attrs: noinline uwtable
define weak_odr hidden noundef ptr @_ZTWN3Log12StaticHelper18_threadLocalLoggerE() #16 comdat {
  %1 = call align 8 ptr @llvm.threadlocal.address.p0(ptr align 8 @_ZN3Log12StaticHelper18_threadLocalLoggerE)
  ret ptr %1
}

attributes #0 = { noinline uwtable "frame-pointer"="all" "min-legal-vector-width"="0" "no-trapping-math"="true" "stack-protector-buffer-size"="8" "target-cpu"="x86-64" "target-features"="+cx8,+fxsr,+mmx,+sse,+sse2,+x87" "tune-cpu"="generic" }
attributes #1 = { "frame-pointer"="all" "no-trapping-math"="true" "stack-protector-buffer-size"="8" "target-cpu"="x86-64" "target-features"="+cx8,+fxsr,+mmx,+sse,+sse2,+x87" "tune-cpu"="generic" }
attributes #2 = { nounwind "frame-pointer"="all" "no-trapping-math"="true" "stack-protector-buffer-size"="8" "target-cpu"="x86-64" "target-features"="+cx8,+fxsr,+mmx,+sse,+sse2,+x87" "tune-cpu"="generic" }
attributes #3 = { nounwind }
attributes #4 = { noinline nounwind optnone uwtable "frame-pointer"="all" "min-legal-vector-width"="0" "no-trapping-math"="true" "stack-protector-buffer-size"="8" "target-cpu"="x86-64" "target-features"="+cx8,+fxsr,+mmx,+sse,+sse2,+x87" "tune-cpu"="generic" }
attributes #5 = { mustprogress noinline optnone uwtable "frame-pointer"="all" "min-legal-vector-width"="0" "no-trapping-math"="true" "stack-protector-buffer-size"="8" "target-cpu"="x86-64" "target-features"="+cx8,+fxsr,+mmx,+sse,+sse2,+x87" "tune-cpu"="generic" }
attributes #6 = { nocallback nofree nosync nounwind speculatable willreturn memory(none) }
attributes #7 = { nounwind willreturn memory(read) "frame-pointer"="all" "no-trapping-math"="true" "stack-protector-buffer-size"="8" "target-cpu"="x86-64" "target-features"="+cx8,+fxsr,+mmx,+sse,+sse2,+x87" "tune-cpu"="generic" }
attributes #8 = { nounwind willreturn memory(none) "frame-pointer"="all" "no-trapping-math"="true" "stack-protector-buffer-size"="8" "target-cpu"="x86-64" "target-features"="+cx8,+fxsr,+mmx,+sse,+sse2,+x87" "tune-cpu"="generic" }
attributes #9 = { mustprogress noinline nounwind optnone uwtable "frame-pointer"="all" "min-legal-vector-width"="0" "no-trapping-math"="true" "stack-protector-buffer-size"="8" "target-cpu"="x86-64" "target-features"="+cx8,+fxsr,+mmx,+sse,+sse2,+x87" "tune-cpu"="generic" }
attributes #10 = { nobuiltin allocsize(0) "frame-pointer"="all" "no-trapping-math"="true" "stack-protector-buffer-size"="8" "target-cpu"="x86-64" "target-features"="+cx8,+fxsr,+mmx,+sse,+sse2,+x87" "tune-cpu"="generic" }
attributes #11 = { noinline optnone uwtable "frame-pointer"="all" "min-legal-vector-width"="0" "no-trapping-math"="true" "stack-protector-buffer-size"="8" "target-cpu"="x86-64" "target-features"="+cx8,+fxsr,+mmx,+sse,+sse2,+x87" "tune-cpu"="generic" }
attributes #12 = { nobuiltin nounwind "frame-pointer"="all" "no-trapping-math"="true" "stack-protector-buffer-size"="8" "target-cpu"="x86-64" "target-features"="+cx8,+fxsr,+mmx,+sse,+sse2,+x87" "tune-cpu"="generic" }
attributes #13 = { nounwind memory(none) }
attributes #14 = { noinline noreturn nounwind "frame-pointer"="all" "no-trapping-math"="true" "stack-protector-buffer-size"="8" "target-cpu"="x86-64" "target-features"="+cx8,+fxsr,+mmx,+sse,+sse2,+x87" "tune-cpu"="generic" }
attributes #15 = { noreturn "frame-pointer"="all" "no-trapping-math"="true" "stack-protector-buffer-size"="8" "target-cpu"="x86-64" "target-features"="+cx8,+fxsr,+mmx,+sse,+sse2,+x87" "tune-cpu"="generic" }
attributes #16 = { noinline uwtable "frame-pointer"="all" "no-trapping-math"="true" "stack-protector-buffer-size"="8" "target-cpu"="x86-64" "target-features"="+cx8,+fxsr,+mmx,+sse,+sse2,+x87" "tune-cpu"="generic" }
attributes #17 = { nounwind willreturn memory(read) }
attributes #18 = { nounwind willreturn memory(none) }
attributes #19 = { builtin allocsize(0) }
attributes #20 = { builtin nounwind }
attributes #21 = { noreturn nounwind }
attributes #22 = { noreturn }

!llvm.dbg.cu = !{!1335}
!llvm.module.flags = !{!2860, !2861, !2862, !2863, !2864, !2865, !2866}
!llvm.ident = !{!2867}

!0 = !DIGlobalVariableExpression(var: !1, expr: !DIExpression())
!1 = distinct !DIGlobalVariable(name: "__ioinit", linkageName: "_ZStL8__ioinit", scope: !2, file: !3, line: 74, type: !4, isLocal: true, isDefinition: true)
!2 = !DINamespace(name: "std", scope: null)
!3 = !DIFile(filename: "/usr/lib/gcc/x86_64-linux-gnu/11/../../../../include/c++/11/iostream", directory: "")
!4 = !DICompositeType(tag: DW_TAG_class_type, name: "Init", scope: !6, file: !5, line: 626, size: 8, flags: DIFlagFwdDecl | DIFlagNonTrivial, identifier: "_ZTSNSt8ios_base4InitE")
!5 = !DIFile(filename: "/usr/lib/gcc/x86_64-linux-gnu/11/../../../../include/c++/11/bits/ios_base.h", directory: "")
!6 = !DICompositeType(tag: DW_TAG_class_type, name: "ios_base", scope: !2, file: !5, line: 228, size: 1728, flags: DIFlagFwdDecl | DIFlagNonTrivial)
!7 = !DIGlobalVariableExpression(var: !8, expr: !DIExpression())
!8 = distinct !DIGlobalVariable(name: "end", linkageName: "_ZN3LogL3endE", scope: !9, file: !10, line: 119, type: !11, isLocal: true, isDefinition: true)
!9 = !DINamespace(name: "Log", scope: null)
!10 = !DIFile(filename: "./common/Log.hpp", directory: "/home/raj/sme2", checksumkind: CSK_MD5, checksum: "6a8d57b5ce543c7c8a1eb53ba92f9b8e")
!11 = !DIDerivedType(tag: DW_TAG_const_type, baseType: !12)
!12 = distinct !DICompositeType(tag: DW_TAG_structure_type, name: "_end_marker", scope: !9, file: !10, line: 114, size: 8, flags: DIFlagTypePassByValue | DIFlagNonTrivial, elements: !13, identifier: "_ZTSN3Log11_end_markerE")
!13 = !{!14}
!14 = !DISubprogram(name: "_end_marker", scope: !12, file: !10, line: 116, type: !15, scopeLine: 116, flags: DIFlagPrototyped, spFlags: 0)
!15 = !DISubroutineType(types: !16)
!16 = !{null, !17}
!17 = !DIDerivedType(tag: DW_TAG_pointer_type, baseType: !12, size: 64, flags: DIFlagArtificial | DIFlagObjectPointer)
!18 = !DIGlobalVariableExpression(var: !19, expr: !DIExpression())
!19 = distinct !DIGlobalVariable(name: "Static", linkageName: "_ZN3LogL6StaticE", scope: !9, file: !20, line: 88, type: !21, isLocal: true, isDefinition: true)
!20 = !DIFile(filename: "common/Log.cpp", directory: "/home/raj/sme2", checksumkind: CSK_MD5, checksum: "44383061b786f198902e8bdc63f1b207")
!21 = distinct !DICompositeType(tag: DW_TAG_structure_type, name: "StaticHelper", scope: !9, file: !20, line: 40, size: 896, flags: DIFlagTypePassByReference | DIFlagNonTrivial, elements: !22, identifier: "_ZTSN3Log12StaticHelperE")
!22 = !{!23, !28, !29, !1013, !1014, !1015, !1231, !1235, !1236, !1241, !1246, !1249, !1250, !1251, !1252, !1253, !1256, !1257, !1260}
!23 = !DIDerivedType(tag: DW_TAG_member, name: "_logger", scope: !21, file: !20, line: 43, baseType: !24, size: 64, flags: DIFlagPrivate)
!24 = !DIDerivedType(tag: DW_TAG_pointer_type, baseType: !25, size: 64)
!25 = !DICompositeType(tag: DW_TAG_class_type, name: "Logger", scope: !27, file: !26, line: 38, size: 576, flags: DIFlagFwdDecl | DIFlagNonTrivial)
!26 = !DIFile(filename: "/usr/include/Poco/Logger.h", directory: "", checksumkind: CSK_MD5, checksum: "7838b915a6ea410ec2db8909269b1ff6")
!27 = !DINamespace(name: "Poco", scope: null)
!28 = !DIDerivedType(tag: DW_TAG_member, name: "_threadLocalLogger", scope: !21, file: !20, line: 44, baseType: !24, flags: DIFlagPrivate | DIFlagStaticMember)
!29 = !DIDerivedType(tag: DW_TAG_member, name: "_name", scope: !21, file: !20, line: 45, baseType: !30, size: 256, offset: 64, flags: DIFlagPrivate)
!30 = !DIDerivedType(tag: DW_TAG_typedef, name: "string", scope: !2, file: !31, line: 79, baseType: !32)
!31 = !DIFile(filename: "/usr/lib/gcc/x86_64-linux-gnu/11/../../../../include/c++/11/bits/stringfwd.h", directory: "")
!32 = distinct !DICompositeType(tag: DW_TAG_class_type, name: "basic_string<char, std::char_traits<char>, std::allocator<char> >", scope: !34, file: !33, line: 1627, size: 256, flags: DIFlagTypePassByReference | DIFlagNonTrivial, elements: !35, templateParams: !1011, identifier: "_ZTSNSt7__cxx1112basic_stringIcSt11char_traitsIcESaIcEEE")
!33 = !DIFile(filename: "/usr/lib/gcc/x86_64-linux-gnu/11/../../../../include/c++/11/bits/basic_string.tcc", directory: "")
!34 = !DINamespace(name: "__cxx11", scope: !2, exportSymbols: true)
!35 = !{!36, !102, !104, !105, !113, !390, !395, !400, !403, !408, !411, !417, !418, !419, !422, !426, !429, !430, !433, !434, !444, !449, !452, !455, !458, !461, !464, !465, !468, !527, !578, !581, !584, !587, !591, !594, !597, !598, !601, !602, !605, !608, !611, !614, !618, !623, !626, !629, !630, !634, !637, !640, !643, !646, !649, !652, !655, !656, !657, !726, !790, !791, !792, !793, !794, !795, !796, !799, !800, !801, !802, !803, !804, !805, !806, !807, !808, !809, !818, !824, !825, !826, !829, !832, !833, !834, !835, !836, !837, !838, !839, !842, !845, !846, !849, !850, !853, !854, !855, !856, !857, !858, !859, !860, !863, !866, !869, !872, !875, !878, !881, !885, !888, !891, !894, !895, !898, !901, !904, !907, !910, !913, !916, !919, !922, !925, !928, !931, !934, !937, !938, !941, !942, !945, !948, !951, !952, !955, !958, !961, !964, !967, !970, !971, !972, !973, !974, !975, !976, !977, !978, !979, !980, !981, !982, !983, !984, !985, !986, !987, !988, !989, !990, !993, !996, !999, !1002, !1005, !1008}
!36 = !DIDerivedType(tag: DW_TAG_member, name: "npos", scope: !32, file: !37, line: 109, baseType: !38, flags: DIFlagPublic | DIFlagStaticMember, extraData: i64 -1)
!37 = !DIFile(filename: "/usr/lib/gcc/x86_64-linux-gnu/11/../../../../include/c++/11/bits/basic_string.h", directory: "")
!38 = !DIDerivedType(tag: DW_TAG_const_type, baseType: !39)
!39 = !DIDerivedType(tag: DW_TAG_typedef, name: "size_type", scope: !32, file: !37, line: 96, baseType: !40, flags: DIFlagPublic)
!40 = !DIDerivedType(tag: DW_TAG_typedef, name: "size_type", scope: !42, file: !41, line: 59, baseType: !75)
!41 = !DIFile(filename: "/usr/lib/gcc/x86_64-linux-gnu/11/../../../../include/c++/11/ext/alloc_traits.h", directory: "")
!42 = distinct !DICompositeType(tag: DW_TAG_structure_type, name: "__alloc_traits<std::allocator<char>, char>", scope: !43, file: !41, line: 48, size: 8, flags: DIFlagTypePassByValue, elements: !44, templateParams: !100, identifier: "_ZTSN9__gnu_cxx14__alloc_traitsISaIcEcEE")
!43 = !DINamespace(name: "__gnu_cxx", scope: null)
!44 = !{!45, !83, !88, !92, !96, !97, !98, !99}
!45 = !DIDerivedType(tag: DW_TAG_inheritance, scope: !42, baseType: !46, extraData: i32 0)
!46 = distinct !DICompositeType(tag: DW_TAG_structure_type, name: "allocator_traits<std::allocator<char> >", scope: !2, file: !47, line: 411, size: 8, flags: DIFlagTypePassByValue, elements: !48, templateParams: !81, identifier: "_ZTSSt16allocator_traitsISaIcEE")
!47 = !DIFile(filename: "/usr/lib/gcc/x86_64-linux-gnu/11/../../../../include/c++/11/bits/alloc_traits.h", directory: "", checksumkind: CSK_MD5, checksum: "937e9d7f00d3ed7cff7ec8fafeb8a8bc")
!48 = !{!49, !63, !69, !72, !78}
!49 = !DISubprogram(name: "allocate", linkageName: "_ZNSt16allocator_traitsISaIcEE8allocateERS0_m", scope: !46, file: !47, line: 463, type: !50, scopeLine: 463, flags: DIFlagPrototyped | DIFlagStaticMember, spFlags: 0)
!50 = !DISubroutineType(types: !51)
!51 = !{!52, !55, !59}
!52 = !DIDerivedType(tag: DW_TAG_typedef, name: "pointer", scope: !46, file: !47, line: 420, baseType: !53)
!53 = !DIDerivedType(tag: DW_TAG_pointer_type, baseType: !54, size: 64)
!54 = !DIBasicType(name: "char", size: 8, encoding: DW_ATE_signed_char)
!55 = !DIDerivedType(tag: DW_TAG_reference_type, baseType: !56, size: 64)
!56 = !DIDerivedType(tag: DW_TAG_typedef, name: "allocator_type", scope: !46, file: !47, line: 414, baseType: !57)
!57 = !DICompositeType(tag: DW_TAG_class_type, name: "allocator<char>", scope: !2, file: !58, line: 261, size: 8, flags: DIFlagFwdDecl | DIFlagNonTrivial, identifier: "_ZTSSaIcE")
!58 = !DIFile(filename: "/usr/lib/gcc/x86_64-linux-gnu/11/../../../../include/c++/11/bits/allocator.h", directory: "", checksumkind: CSK_MD5, checksum: "52abf05a7426983321ecef80fe4251be")
!59 = !DIDerivedType(tag: DW_TAG_typedef, name: "size_type", file: !47, line: 435, baseType: !60)
!60 = !DIDerivedType(tag: DW_TAG_typedef, name: "size_t", scope: !2, file: !61, line: 280, baseType: !62)
!61 = !DIFile(filename: "/usr/lib/gcc/x86_64-linux-gnu/11/../../../../include/x86_64-linux-gnu/c++/11/bits/c++config.h", directory: "", checksumkind: CSK_MD5, checksum: "b09addf8bea7ac9bf251a76b15f26064")
!62 = !DIBasicType(name: "unsigned long", size: 64, encoding: DW_ATE_unsigned)
