; ModuleID = 'net/NetUtil.cpp'
source_filename = "net/NetUtil.cpp"
target datalayout = "e-m:e-p270:32:32-p271:32:32-p272:64:64-i64:64-f80:128-n8:16:32:64-S128"
target triple = "x86_64-unknown-linux-gnu"

%"class.std::ios_base::Init" = type { i8 }
%"struct.Log::_end_marker" = type { i8 }
%"class.std::unique_ptr" = type { %"struct.std::__uniq_ptr_data" }
%"struct.std::__uniq_ptr_data" = type { %"class.std::__uniq_ptr_impl" }
%"class.std::__uniq_ptr_impl" = type { %"class.std::tuple" }
%"class.std::tuple" = type { %"struct.std::_Tuple_impl" }
%"struct.std::_Tuple_impl" = type { %"struct.std::_Head_base.55" }
%"struct.std::_Head_base.55" = type { ptr }
%"struct.std::atomic.19" = type { %"struct.std::__atomic_base.20" }
%"struct.std::__atomic_base.20" = type { i8 }
%"class.Poco::Net::IPAddress" = type { %"class.Poco::AutoPtr" }
%"class.Poco::AutoPtr" = type { ptr }
%"class.Poco::Net::Impl::IPv4SocketAddressImpl" = type { %"class.Poco::Net::Impl::SocketAddressImpl.base", %struct.sockaddr_in, [4 x i8] }
%"class.Poco::Net::Impl::SocketAddressImpl.base" = type { %"class.Poco::RefCountedObject.base" }
%"class.Poco::RefCountedObject.base" = type <{ ptr, %"class.Poco::AtomicCounter" }>
%"class.Poco::AtomicCounter" = type { %"struct.std::atomic" }
%"struct.std::atomic" = type { %"struct.std::__atomic_base" }
%"struct.std::__atomic_base" = type { i32 }
%struct.sockaddr_in = type { i16, i16, %struct.in_addr, [8 x i8] }
%struct.in_addr = type { i32 }
%"class.Poco::Net::Impl::IPv6SocketAddressImpl" = type { %"class.Poco::Net::Impl::SocketAddressImpl.base", %struct.sockaddr_in6 }
%struct.sockaddr_in6 = type { i16, i16, i32, %struct.in6_addr, i32 }
%struct.in6_addr = type { %union.anon }
%union.anon = type { [4 x i32] }
%"class.std::__cxx11::basic_string" = type { %"struct.std::__cxx11::basic_string<char>::_Alloc_hider", i64, %union.anon.0 }
%"struct.std::__cxx11::basic_string<char>::_Alloc_hider" = type { ptr }
%union.anon.0 = type { i64, [8 x i8] }
%"class.std::__cxx11::basic_ostringstream" = type { %"class.std::basic_ostream.base", %"class.std::__cxx11::basic_stringbuf", %"class.std::basic_ios" }
%"class.std::basic_ostream.base" = type { ptr }
%"class.std::__cxx11::basic_stringbuf" = type { %"class.std::basic_streambuf", i32, %"class.std::__cxx11::basic_string" }
%"class.std::basic_streambuf" = type { ptr, ptr, ptr, ptr, ptr, ptr, ptr, %"class.std::locale" }
%"class.std::locale" = type { ptr }
%"class.std::basic_ios" = type { %"class.std::ios_base", ptr, i8, i8, ptr, ptr, ptr, ptr }
%"class.std::ios_base" = type { ptr, i64, i64, i32, i32, i32, ptr, %"struct.std::ios_base::_Words", [8 x %"struct.std::ios_base::_Words"], i32, ptr, %"class.std::locale" }
%"struct.std::ios_base::_Words" = type { ptr, i64 }
%"class.std::allocator" = type { i8 }
%"class.Poco::Message" = type { %"class.std::__cxx11::basic_string", %"class.std::__cxx11::basic_string", i32, %"class.Poco::Timestamp", i64, %"class.std::__cxx11::basic_string", i64, ptr, i32, ptr }
%"class.Poco::Timestamp" = type { i64 }
%"class.Poco::Logger" = type <{ %"class.Poco::Channel.base", [4 x i8], %"class.std::__cxx11::basic_string", %"class.Poco::AutoPtr.1", i32, [4 x i8] }>
%"class.Poco::Channel.base" = type <{ %"class.Poco::Configurable", %"class.Poco::RefCountedObject.base" }>
%"class.Poco::Configurable" = type { ptr }
%"class.Poco::AutoPtr.1" = type { ptr }
%"class.Poco::LocalDateTime" = type <{ %"class.Poco::DateTime", i32, [4 x i8] }>
%"class.Poco::DateTime" = type { i64, i16, i16, i16, i16, i16, i16, i16, i16 }
%"struct.std::forward_iterator_tag" = type { i8 }
%"struct.std::random_access_iterator_tag" = type { i8 }
%"class.std::vector" = type { %"struct.std::_Vector_base" }
%"struct.std::_Vector_base" = type { %"struct.std::_Vector_base<Poco::Net::NetworkInterface, std::allocator<Poco::Net::NetworkInterface>>::_Vector_impl" }
%"struct.std::_Vector_base<Poco::Net::NetworkInterface, std::allocator<Poco::Net::NetworkInterface>>::_Vector_impl" = type { %"struct.std::_Vector_base<Poco::Net::NetworkInterface, std::allocator<Poco::Net::NetworkInterface>>::_Vector_impl_data" }
%"struct.std::_Vector_base<Poco::Net::NetworkInterface, std::allocator<Poco::Net::NetworkInterface>>::_Vector_impl_data" = type { ptr, ptr, ptr }
%"class.__gnu_cxx::__normal_iterator" = type { ptr }
%"class.Poco::Net::NetworkInterface" = type { ptr }
%"class.std::shared_ptr.11" = type { %"class.std::__shared_ptr.12" }
%"class.std::__shared_ptr.12" = type { ptr, %"class.std::__shared_count" }
%"class.std::__shared_count" = type { ptr }
%struct.addrinfo = type { i32, i32, i32, i32, i32, ptr, ptr, ptr }
%"class.std::shared_ptr.21" = type { %"class.std::__shared_ptr.22" }
%"class.std::__shared_ptr.22" = type { ptr, %"class.std::__shared_count" }
%"class.std::shared_ptr" = type { %"class.std::__shared_ptr" }
%"class.std::__shared_ptr" = type { ptr, %"class.std::__shared_count" }
%struct.sockaddr = type { i16, [14 x i8] }
%"class.__gnu_cxx::__normal_iterator.24" = type { ptr }
%"class.std::_Sp_counted_base" = type { ptr, i32, i32 }
%"class.std::allocator.25" = type { i8 }
%"struct.std::_Sp_alloc_shared_tag" = type { ptr }
%"class.std::allocator.28" = type { i8 }
%"struct.std::__allocated_ptr" = type { ptr, ptr }
%"class.std::_Sp_counted_ptr_inplace" = type { %"class.std::_Sp_counted_base", %"class.std::_Sp_counted_ptr_inplace<SslStreamSocket, std::allocator<SslStreamSocket>, __gnu_cxx::_S_atomic>::_Impl" }
%"class.std::_Sp_counted_ptr_inplace<SslStreamSocket, std::allocator<SslStreamSocket>, __gnu_cxx::_S_atomic>::_Impl" = type { %"struct.__gnu_cxx::__aligned_buffer" }
%"struct.__gnu_cxx::__aligned_buffer" = type { %"union.std::aligned_storage<280, 8>::type" }
%"union.std::aligned_storage<280, 8>::type" = type { [280 x i8] }
%class.SslStreamSocket = type <{ %class.StreamSocket.base, [7 x i8], ptr, ptr, i32, i32, i8, [7 x i8] }>
%class.StreamSocket.base = type <{ %class.Socket, %"class.std::enable_shared_from_this.14", %"class.std::__cxx11::basic_string", %"class.std::shared_ptr", %class.Buffer, %class.Buffer, i64, i64, i32, i8, i8, i8, i8, i32, i32, %"struct.std::atomic.19" }>
%class.Socket = type { ptr, %"class.std::__cxx11::basic_string", i32, i8, i32, %"class.std::thread::id" }
%"class.std::thread::id" = type { i64 }
%"class.std::enable_shared_from_this.14" = type { %"class.std::weak_ptr.15" }
%"class.std::weak_ptr.15" = type { %"class.std::__weak_ptr.16" }
%"class.std::__weak_ptr.16" = type { ptr, %"class.std::__weak_count" }
%"class.std::__weak_count" = type { ptr }
%class.Buffer = type { i64, i64, %"class.std::vector.17" }
%"class.std::vector.17" = type { %"struct.std::_Vector_base.18" }
%"struct.std::_Vector_base.18" = type { %"struct.std::_Vector_base<char, std::allocator<char>>::_Vector_impl" }
%"struct.std::_Vector_base<char, std::allocator<char>>::_Vector_impl" = type { %"struct.std::_Vector_base<char, std::allocator<char>>::_Vector_impl_data" }
%"struct.std::_Vector_base<char, std::allocator<char>>::_Vector_impl_data" = type { ptr, ptr, ptr }
%class.StreamSocket = type <{ %class.Socket, %"class.std::enable_shared_from_this.14", %"class.std::__cxx11::basic_string", %"class.std::shared_ptr", %class.Buffer, %class.Buffer, i64, i64, i32, i8, i8, i8, i8, i32, i32, %"struct.std::atomic.19", [7 x i8] }>
%"struct.std::chrono::time_point" = type { %"struct.std::chrono::duration" }
%"struct.std::chrono::duration" = type { i64 }
%class.SslContext = type <{ ptr, i32, [4 x i8] }>
%class.SocketDisposition = type { i32, %"class.std::function", ptr, %"class.std::shared_ptr.32" }
%"class.std::function" = type { %"class.std::_Function_base", ptr }
%"class.std::_Function_base" = type { %"union.std::_Any_data", ptr }
%"union.std::_Any_data" = type { %"union.std::_Nocopy_types" }
%"union.std::_Nocopy_types" = type { { i64, i64 } }
%"class.std::shared_ptr.32" = type { %"class.std::__shared_ptr.33" }
%"class.std::__shared_ptr.33" = type { ptr, %"class.std::__shared_count" }
%"class.__gnu_cxx::__normal_iterator.57" = type { ptr }
%"class.__gnu_cxx::__normal_iterator.56" = type { ptr }
%"struct.std::__false_type" = type { i8 }
%"class.std::move_iterator" = type { ptr }
%"class.std::type_info" = type { ptr, ptr }
%"class.std::allocator.58" = type { i8 }
%"struct.std::_Sp_alloc_shared_tag.61" = type { ptr }
%"class.std::allocator.62" = type { i8 }
%"struct.std::__allocated_ptr.65" = type { ptr, ptr }
%"class.std::_Sp_counted_ptr_inplace.66" = type { %"class.std::_Sp_counted_base", %"class.std::_Sp_counted_ptr_inplace<StreamSocket, std::allocator<StreamSocket>, __gnu_cxx::_S_atomic>::_Impl" }
%"class.std::_Sp_counted_ptr_inplace<StreamSocket, std::allocator<StreamSocket>, __gnu_cxx::_S_atomic>::_Impl" = type { %"struct.__gnu_cxx::__aligned_buffer.68" }
%"struct.__gnu_cxx::__aligned_buffer.68" = type { %"union.std::aligned_storage<248, 8>::type" }
%"union.std::aligned_storage<248, 8>::type" = type { [248 x i8] }

$_ZN3Log11_end_markerC2Ev = comdat any

$_ZNK4Poco3Net4Impl21IPv4SocketAddressImpl4hostEv = comdat any

$_ZNK4Poco3Net4Impl21IPv6SocketAddressImpl4hostEv = comdat any

$_ZN3Log16isShutdownCalledEv = comdat any

$_ZNK4Poco6Logger7warningEv = comdat any

$_ZN3Log6prefixILi1023EEEPcS1_PKc = comdat any

$_ZNSt7__cxx1112basic_stringIcSt11char_traitsIcESaIcEEC2IS3_EEPKcRKS3_ = comdat any

$_ZSt9boolalphaRSt8ios_base = comdat any

$_ZNK4Poco6Logger4nameB5cxx11Ev = comdat any

$__clang_call_terminate = comdat any

$_ZNKSt6vectorIN4Poco3Net16NetworkInterfaceESaIS2_EE5beginEv = comdat any

$_ZNKSt6vectorIN4Poco3Net16NetworkInterfaceESaIS2_EE3endEv = comdat any

$_ZN9__gnu_cxxneIPKN4Poco3Net16NetworkInterfaceESt6vectorIS3_SaIS3_EEEEbRKNS_17__normal_iteratorIT_T0_EESE_ = comdat any

$_ZNK9__gnu_cxx17__normal_iteratorIPKN4Poco3Net16NetworkInterfaceESt6vectorIS3_SaIS3_EEEdeEv = comdat any

$_ZSteqIcEN9__gnu_cxx11__enable_ifIXsr9__is_charIT_EE7__valueEbE6__typeERKNSt7__cxx1112basic_stringIS2_St11char_traitsIS2_ESaIS2_EEESC_ = comdat any

$_ZNK4Poco6Logger5traceEv = comdat any

$_ZN9__gnu_cxx17__normal_iteratorIPKN4Poco3Net16NetworkInterfaceESt6vectorIS3_SaIS3_EEEppEv = comdat any

$_ZNSt6vectorIN4Poco3Net16NetworkInterfaceESaIS2_EED2Ev = comdat any

$_ZNSt10shared_ptrI12StreamSocketEC2Ev = comdat any

$_ZNK4Poco6Logger5errorEv = comdat any

$_ZNK4Poco6Logger5debugEv = comdat any

$_ZN4Util13symbolicErrnoB5cxx11Ei = comdat any

$_ZN12StreamSocket6createI15SslStreamSocketEESt10shared_ptrIT_ENSt7__cxx1112basic_stringIcSt11char_traitsIcESaIcEEEibS2_I24ProtocolHandlerInterfaceENS_8ReadTypeE = comdat any

$_ZNSt10shared_ptrI24ProtocolHandlerInterfaceEC2ERKS1_ = comdat any

$_ZNSt10shared_ptrI12StreamSocketEaSI15SslStreamSocketEENSt9enable_ifIXsr13is_assignableIRSt12__shared_ptrIS0_LN9__gnu_cxx12_Lock_policyE2EES_IT_EEE5valueERS1_E4typeEOSB_ = comdat any

$_ZNSt10shared_ptrI15SslStreamSocketED2Ev = comdat any

$_ZNSt10shared_ptrI24ProtocolHandlerInterfaceED2Ev = comdat any

$_ZNKSt12__shared_ptrI12StreamSocketLN9__gnu_cxx12_Lock_policyE2EEcvbEv = comdat any

$_ZN12StreamSocket6createIS_EESt10shared_ptrIT_ENSt7__cxx1112basic_stringIcSt11char_traitsIcESaIcEEEibS1_I24ProtocolHandlerInterfaceENS_8ReadTypeE = comdat any

$_ZNSt10shared_ptrI12StreamSocketEaSEOS1_ = comdat any

$_ZNSt10shared_ptrI12StreamSocketED2Ev = comdat any

$_ZN3net8parseUriENSt7__cxx1112basic_stringIcSt11char_traitsIcESaIcEEERS5_S6_S6_ = comdat any

$_ZNSt10shared_ptrI12StreamSocketEC2EDn = comdat any

$_ZN4Util7toLowerENSt7__cxx1112basic_stringIcSt11char_traitsIcESaIcEEE = comdat any

$_ZSteqIcSt11char_traitsIcESaIcEEbRKNSt7__cxx1112basic_stringIT_T0_T1_EEPKS5_ = comdat any

$_ZN4Poco3Net4Impl21IPv4SocketAddressImplD2Ev = comdat any

$_ZN4Poco3Net4Impl21IPv4SocketAddressImplD0Ev = comdat any

$_ZNK4Poco3Net4Impl21IPv4SocketAddressImpl4portEv = comdat any

$_ZNK4Poco3Net4Impl21IPv4SocketAddressImpl6lengthEv = comdat any

$_ZNK4Poco3Net4Impl21IPv4SocketAddressImpl4addrEv = comdat any

$_ZNK4Poco3Net4Impl21IPv4SocketAddressImpl2afEv = comdat any

$_ZNK4Poco3Net4Impl21IPv4SocketAddressImpl6familyEv = comdat any

$_ZN4Poco3Net4Impl21IPv6SocketAddressImplD2Ev = comdat any

$_ZN4Poco3Net4Impl21IPv6SocketAddressImplD0Ev = comdat any

$_ZNK4Poco3Net4Impl21IPv6SocketAddressImpl4portEv = comdat any

$_ZNK4Poco3Net4Impl21IPv6SocketAddressImpl6lengthEv = comdat any

$_ZNK4Poco3Net4Impl21IPv6SocketAddressImpl4addrEv = comdat any

$_ZNK4Poco3Net4Impl21IPv6SocketAddressImpl2afEv = comdat any

$_ZNK4Poco3Net4Impl21IPv6SocketAddressImpl6familyEv = comdat any

$_ZNSt8ios_base4setfESt13_Ios_Fmtflags = comdat any

$_ZStoRRSt13_Ios_FmtflagsS_ = comdat any

$_ZStorSt13_Ios_FmtflagsS_ = comdat any

$_ZNSt12__shared_ptrI12StreamSocketLN9__gnu_cxx12_Lock_policyE2EEC2Ev = comdat any

$_ZNSt14__shared_countILN9__gnu_cxx12_Lock_policyE2EEC2Ev = comdat any

$_ZNSt7__cxx119to_stringEi = comdat any

$_ZNSt8__detail14__to_chars_lenIjEEjT_i = comdat any

$_ZNSt7__cxx1112basic_stringIcSt11char_traitsIcESaIcEEC2IS3_EEmcRKS3_ = comdat any

$_ZNSt8__detail18__to_chars_10_implIjEEvPcjT_ = comdat any

$_ZNSt7__cxx1112basic_stringIcSt11char_traitsIcESaIcEE12_Alloc_hiderD2Ev = comdat any

$_ZNSt12__shared_ptrI24ProtocolHandlerInterfaceLN9__gnu_cxx12_Lock_policyE2EEC2ERKS3_ = comdat any

$_ZNSt14__shared_countILN9__gnu_cxx12_Lock_policyE2EEC2ERKS2_ = comdat any

$_ZNSt16_Sp_counted_baseILN9__gnu_cxx12_Lock_policyE2EE15_M_add_ref_copyEv = comdat any

$_ZNSt12__shared_ptrI15SslStreamSocketLN9__gnu_cxx12_Lock_policyE2EED2Ev = comdat any

$_ZNSt14__shared_countILN9__gnu_cxx12_Lock_policyE2EED2Ev = comdat any

$_ZNSt16_Sp_counted_baseILN9__gnu_cxx12_Lock_policyE2EE10_M_releaseEv = comdat any

$_ZSt9transformIN9__gnu_cxx17__normal_iteratorIPcNSt7__cxx1112basic_stringIcSt11char_traitsIcESaIcEEEEES9_PDoFiiEET0_T_SD_SC_T1_ = comdat any

$_ZN9__gnu_cxxneIPcNSt7__cxx1112basic_stringIcSt11char_traitsIcESaIcEEEEEbRKNS_17__normal_iteratorIT_T0_EESD_ = comdat any

$_ZNK9__gnu_cxx17__normal_iteratorIPcNSt7__cxx1112basic_stringIcSt11char_traitsIcESaIcEEEEdeEv = comdat any

$_ZN9__gnu_cxx17__normal_iteratorIPcNSt7__cxx1112basic_stringIcSt11char_traitsIcESaIcEEEEppEv = comdat any

$_ZNK9__gnu_cxx17__normal_iteratorIPcNSt7__cxx1112basic_stringIcSt11char_traitsIcESaIcEEEE4baseEv = comdat any

$_ZNSt11char_traitsIcE7compareEPKcS2_m = comdat any

$_ZNSt11char_traitsIcE2ltERKcS2_ = comdat any

$_ZNSt11char_traitsIcE6lengthEPKc = comdat any

$_ZNSt7__cxx1112basic_stringIcSt11char_traitsIcESaIcEE12_M_constructIPKcEEvT_S8_St20forward_iterator_tag = comdat any

$_ZN9__gnu_cxx11char_traitsIcE6lengthEPKc = comdat any

$_ZN9__gnu_cxx11char_traitsIcE2eqERKcS3_ = comdat any

$_ZN9__gnu_cxx17__is_null_pointerIKcEEbPT_ = comdat any

$_ZSt8distanceIPKcENSt15iterator_traitsIT_E15difference_typeES3_S3_ = comdat any

$_ZSt10__distanceIPKcENSt15iterator_traitsIT_E15difference_typeES3_S3_St26random_access_iterator_tag = comdat any

$_ZSt19__iterator_categoryIPKcENSt15iterator_traitsIT_E17iterator_categoryERKS3_ = comdat any

$_ZSt8_DestroyIPN4Poco3Net16NetworkInterfaceES2_EvT_S4_RSaIT0_E = comdat any

$_ZNSt12_Vector_baseIN4Poco3Net16NetworkInterfaceESaIS2_EE19_M_get_Tp_allocatorEv = comdat any

$_ZNSt12_Vector_baseIN4Poco3Net16NetworkInterfaceESaIS2_EED2Ev = comdat any

$_ZSt8_DestroyIPN4Poco3Net16NetworkInterfaceEEvT_S4_ = comdat any

$_ZNSt12_Destroy_auxILb0EE9__destroyIPN4Poco3Net16NetworkInterfaceEEEvT_S6_ = comdat any

$_ZSt8_DestroyIN4Poco3Net16NetworkInterfaceEEvPT_ = comdat any

$_ZNSt12_Vector_baseIN4Poco3Net16NetworkInterfaceESaIS2_EE13_M_deallocateEPS2_m = comdat any

$_ZNSt12_Vector_baseIN4Poco3Net16NetworkInterfaceESaIS2_EE12_Vector_implD2Ev = comdat any

$_ZNSt16allocator_traitsISaIN4Poco3Net16NetworkInterfaceEEE10deallocateERS3_PS2_m = comdat any

$_ZN9__gnu_cxx13new_allocatorIN4Poco3Net16NetworkInterfaceEE10deallocateEPS3_m = comdat any

$_ZNSaIN4Poco3Net16NetworkInterfaceEED2Ev = comdat any

$_ZN9__gnu_cxx13new_allocatorIN4Poco3Net16NetworkInterfaceEED2Ev = comdat any

$_ZN9__gnu_cxx17__normal_iteratorIPKN4Poco3Net16NetworkInterfaceESt6vectorIS3_SaIS3_EEEC2ERKS5_ = comdat any

$_ZNK9__gnu_cxx17__normal_iteratorIPKN4Poco3Net16NetworkInterfaceESt6vectorIS3_SaIS3_EEE4baseEv = comdat any

$_ZNKSt12__shared_ptrI24ProtocolHandlerInterfaceLN9__gnu_cxx12_Lock_policyE2EE3getEv = comdat any

$_ZSt11make_sharedI15SslStreamSocketJKNSt7__cxx1112basic_stringIcSt11char_traitsIcESaIcEEERKiRbSt10shared_ptrI24ProtocolHandlerInterfaceERN12StreamSocket8ReadTypeEEESB_IT_EDpOT0_ = comdat any

$_ZNSt10shared_ptrI12StreamSocketEC2I15SslStreamSocketvEERKS_IT_E = comdat any

$_ZSt15allocate_sharedI15SslStreamSocketSaIS0_EJKNSt7__cxx1112basic_stringIcSt11char_traitsIcESaIcEEERKiRbSt10shared_ptrI24ProtocolHandlerInterfaceERN12StreamSocket8ReadTypeEEESC_IT_ERKT0_DpOT1_ = comdat any

$_ZNSaI15SslStreamSocketEC2Ev = comdat any

$_ZNSaI15SslStreamSocketED2Ev = comdat any

$_ZNSt10shared_ptrI15SslStreamSocketEC2ISaIS0_EJKNSt7__cxx1112basic_stringIcSt11char_traitsIcESaIcEEERKiRbS_I24ProtocolHandlerInterfaceERN12StreamSocket8ReadTypeEEEESt20_Sp_alloc_shared_tagIT_EDpOT0_ = comdat any

$_ZNSt12__shared_ptrI15SslStreamSocketLN9__gnu_cxx12_Lock_policyE2EEC2ISaIS0_EJKNSt7__cxx1112basic_stringIcSt11char_traitsIcESaIcEEERKiRbSt10shared_ptrI24ProtocolHandlerInterfaceERN12StreamSocket8ReadTypeEEEESt20_Sp_alloc_shared_tagIT_EDpOT0_ = comdat any

$_ZNSt14__shared_countILN9__gnu_cxx12_Lock_policyE2EEC2I15SslStreamSocketSaIS4_EJKNSt7__cxx1112basic_stringIcSt11char_traitsIcESaIcEEERKiRbSt10shared_ptrI24ProtocolHandlerInterfaceERN12StreamSocket8ReadTypeEEEERPT_St20_Sp_alloc_shared_tagIT0_EDpOT1_ = comdat any

$_ZNSt12__shared_ptrI15SslStreamSocketLN9__gnu_cxx12_Lock_policyE2EE31_M_enable_shared_from_this_withIS0_S0_EENSt9enable_ifIXsr15__has_esft_baseIT0_EE5valueEvE4typeEPT_ = comdat any

$_ZNSaISt23_Sp_counted_ptr_inplaceI15SslStreamSocketSaIS0_ELN9__gnu_cxx12_Lock_policyE2EEEC2IS0_EERKSaIT_E = comdat any

$_ZSt18__allocate_guardedISaISt23_Sp_counted_ptr_inplaceI15SslStreamSocketSaIS1_ELN9__gnu_cxx12_Lock_policyE2EEEESt15__allocated_ptrIT_ERS8_ = comdat any

$_ZNSt15__allocated_ptrISaISt23_Sp_counted_ptr_inplaceI15SslStreamSocketSaIS1_ELN9__gnu_cxx12_Lock_policyE2EEEE3getEv = comdat any

$_ZNSaI15SslStreamSocketEC2ERKS0_ = comdat any

$_ZNSt23_Sp_counted_ptr_inplaceI15SslStreamSocketSaIS0_ELN9__gnu_cxx12_Lock_policyE2EEC2IJKNSt7__cxx1112basic_stringIcSt11char_traitsIcESaIcEEERKiRbSt10shared_ptrI24ProtocolHandlerInterfaceERN12StreamSocket8ReadTypeEEEES1_DpOT_ = comdat any

$_ZNSt15__allocated_ptrISaISt23_Sp_counted_ptr_inplaceI15SslStreamSocketSaIS1_ELN9__gnu_cxx12_Lock_policyE2EEEEaSEDn = comdat any

$_ZNSt23_Sp_counted_ptr_inplaceI15SslStreamSocketSaIS0_ELN9__gnu_cxx12_Lock_policyE2EE6_M_ptrEv = comdat any

$_ZNSt15__allocated_ptrISaISt23_Sp_counted_ptr_inplaceI15SslStreamSocketSaIS1_ELN9__gnu_cxx12_Lock_policyE2EEEED2Ev = comdat any

$_ZNSaISt23_Sp_counted_ptr_inplaceI15SslStreamSocketSaIS0_ELN9__gnu_cxx12_Lock_policyE2EEED2Ev = comdat any

$_ZN9__gnu_cxx13new_allocatorISt23_Sp_counted_ptr_inplaceI15SslStreamSocketSaIS2_ELNS_12_Lock_policyE2EEEC2Ev = comdat any

$_ZNSt16allocator_traitsISaISt23_Sp_counted_ptr_inplaceI15SslStreamSocketSaIS1_ELN9__gnu_cxx12_Lock_policyE2EEEE8allocateERS6_m = comdat any

$_ZNSt15__allocated_ptrISaISt23_Sp_counted_ptr_inplaceI15SslStreamSocketSaIS1_ELN9__gnu_cxx12_Lock_policyE2EEEEC2ERS6_PS5_ = comdat any

$_ZN9__gnu_cxx13new_allocatorISt23_Sp_counted_ptr_inplaceI15SslStreamSocketSaIS2_ELNS_12_Lock_policyE2EEE8allocateEmPKv = comdat any

$_ZNK9__gnu_cxx13new_allocatorISt23_Sp_counted_ptr_inplaceI15SslStreamSocketSaIS2_ELNS_12_Lock_policyE2EEE11_M_max_sizeEv = comdat any

$_ZSt12__to_addressISt23_Sp_counted_ptr_inplaceI15SslStreamSocketSaIS1_ELN9__gnu_cxx12_Lock_policyE2EEEPT_S7_ = comdat any

$_ZN9__gnu_cxx13new_allocatorI15SslStreamSocketEC2ERKS2_ = comdat any

$_ZNSt16_Sp_counted_baseILN9__gnu_cxx12_Lock_policyE2EEC2Ev = comdat any

$_ZNSt23_Sp_counted_ptr_inplaceI15SslStreamSocketSaIS0_ELN9__gnu_cxx12_Lock_policyE2EE5_ImplC2ES1_ = comdat any

$_ZNSt16allocator_traitsISaI15SslStreamSocketEE9constructIS0_JKNSt7__cxx1112basic_stringIcSt11char_traitsIcESaIcEEERKiRbSt10shared_ptrI24ProtocolHandlerInterfaceERN12StreamSocket8ReadTypeEEEEvRS1_PT_DpOT0_ = comdat any

$_ZNSt23_Sp_counted_ptr_inplaceI15SslStreamSocketSaIS0_ELN9__gnu_cxx12_Lock_policyE2EE5_ImplD2Ev = comdat any

$_ZNSt23_Sp_counted_ptr_inplaceI15SslStreamSocketSaIS0_ELN9__gnu_cxx12_Lock_policyE2EED2Ev = comdat any

$_ZNSt23_Sp_counted_ptr_inplaceI15SslStreamSocketSaIS0_ELN9__gnu_cxx12_Lock_policyE2EED0Ev = comdat any

$_ZNSt23_Sp_counted_ptr_inplaceI15SslStreamSocketSaIS0_ELN9__gnu_cxx12_Lock_policyE2EE10_M_disposeEv = comdat any

$_ZNSt23_Sp_counted_ptr_inplaceI15SslStreamSocketSaIS0_ELN9__gnu_cxx12_Lock_policyE2EE10_M_destroyEv = comdat any

$_ZNSt23_Sp_counted_ptr_inplaceI15SslStreamSocketSaIS0_ELN9__gnu_cxx12_Lock_policyE2EE14_M_get_deleterERKSt9type_info = comdat any

$_ZNSt16_Sp_counted_baseILN9__gnu_cxx12_Lock_policyE2EED2Ev = comdat any

$_ZNSt16_Sp_counted_baseILN9__gnu_cxx12_Lock_policyE2EED0Ev = comdat any

$_ZNSt16_Sp_counted_baseILN9__gnu_cxx12_Lock_policyE2EE10_M_destroyEv = comdat any

$_ZNSt14_Sp_ebo_helperILi0ESaI15SslStreamSocketELb1EEC2ERKS1_ = comdat any

$_ZN9__gnu_cxx13new_allocatorI15SslStreamSocketE9constructIS1_JKNSt7__cxx1112basic_stringIcSt11char_traitsIcESaIcEEERKiRbSt10shared_ptrI24ProtocolHandlerInterfaceERN12StreamSocket8ReadTypeEEEEvPT_DpOT0_ = comdat any

$_ZNSt10shared_ptrI24ProtocolHandlerInterfaceEC2EOS1_ = comdat any

$_ZN15SslStreamSocketC2ENSt7__cxx1112basic_stringIcSt11char_traitsIcESaIcEEEibSt10shared_ptrI24ProtocolHandlerInterfaceEN12StreamSocket8ReadTypeE = comdat any

$_ZNSt12__shared_ptrI24ProtocolHandlerInterfaceLN9__gnu_cxx12_Lock_policyE2EEC2EOS3_ = comdat any

$_ZNSt14__shared_countILN9__gnu_cxx12_Lock_policyE2EE7_M_swapERS2_ = comdat any

$_ZN3ssl7Manager12newClientSslERNS_23CertificateVerificationE = comdat any

$_ZN3ssl7Manager12newServerSslERNS_23CertificateVerificationE = comdat any

$_ZNK6Socket5getFDEv = comdat any

$_ZN12StreamSocketD2Ev = comdat any

$_ZN15SslStreamSocketD2Ev = comdat any

$_ZN15SslStreamSocketD0Ev = comdat any

$_ZN12StreamSocket8shutdownEv = comdat any

$_ZN15SslStreamSocket13getPollEventsENSt6chrono10time_pointINS0_3_V212steady_clockENS0_8durationIlSt5ratioILl1ELl1000000000EEEEEERl = comdat any

$_ZN12StreamSocket10handlePollER17SocketDispositionNSt6chrono10time_pointINS2_3_V212steady_clockENS2_8durationIlSt5ratioILl1ELl1000000000EEEEEEi = comdat any

$_ZNK12StreamSocket11hasBufferedEv = comdat any

$_ZN12StreamSocket11ignoreInputEv = comdat any

$_ZN15SslStreamSocket15closeConnectionEv = comdat any

$_ZN15SslStreamSocket16readIncomingDataEv = comdat any

$_ZN15SslStreamSocket17writeOutgoingDataEv = comdat any

$_ZN15SslStreamSocket8readDataEPci = comdat any

$_ZN15SslStreamSocket9writeDataEPKci = comdat any

$_ZN6SocketC2Ei = comdat any

$_ZNSt23enable_shared_from_thisI12StreamSocketEC2Ev = comdat any

$_ZN6BufferC2Ev = comdat any

$_ZNSt6atomicIbEC2Eb = comdat any

$_ZNKSt12__shared_ptrI24ProtocolHandlerInterfaceLN9__gnu_cxx12_Lock_policyE2EEcvbEv = comdat any

$_ZN6BufferD2Ev = comdat any

$_ZNSt23enable_shared_from_thisI12StreamSocketED2Ev = comdat any

$_ZNSt6thread2idC2Ev = comdat any

$_ZN6Socket4initEv = comdat any

$_ZN6SocketD2Ev = comdat any

$_ZN6SocketD0Ev = comdat any

$_ZN6Socket8shutdownEv = comdat any

$_ZNK6Socket11hasBufferedEv = comdat any

$_ZN6Socket9dumpStateERSo = comdat any

$_ZN6Socket11ignoreInputEv = comdat any

$_ZN6Socket10setNoDelayEv = comdat any

$_ZNSt11this_thread6get_idEv = comdat any

$_ZN3Log9to_stringB5cxx11ERKNSt6thread2idE = comdat any

$_ZNSt6thread2idC2Em = comdat any

$_ZStneNSt6thread2idES0_ = comdat any

$_ZStlsIcSt11char_traitsIcEERSt13basic_ostreamIT_T0_ES6_NSt6thread2idE = comdat any

$_ZSt3hexRSt8ios_base = comdat any

$_ZSteqNSt6thread2idES0_ = comdat any

$_ZNSt8ios_base4setfESt13_Ios_FmtflagsS0_ = comdat any

$_ZStaNRSt13_Ios_FmtflagsS_ = comdat any

$_ZStcoSt13_Ios_Fmtflags = comdat any

$_ZStanSt13_Ios_FmtflagsS_ = comdat any

$_ZNSt8weak_ptrI12StreamSocketEC2Ev = comdat any

$_ZNSt10__weak_ptrI12StreamSocketLN9__gnu_cxx12_Lock_policyE2EEC2Ev = comdat any

$_ZNSt12__weak_countILN9__gnu_cxx12_Lock_policyE2EEC2Ev = comdat any

$_ZNSt6vectorIcSaIcEEC2Ev = comdat any

$_ZNSt12_Vector_baseIcSaIcEEC2Ev = comdat any

$_ZNSt12_Vector_baseIcSaIcEE12_Vector_implC2Ev = comdat any

$_ZNSt12_Vector_baseIcSaIcEE17_Vector_impl_dataC2Ev = comdat any

$_ZNSt13__atomic_baseIbEC2Eb = comdat any

$_ZNSt6vectorIcSaIcEED2Ev = comdat any

$_ZSt8_DestroyIPccEvT_S1_RSaIT0_E = comdat any

$_ZNSt12_Vector_baseIcSaIcEE19_M_get_Tp_allocatorEv = comdat any

$_ZNSt12_Vector_baseIcSaIcEED2Ev = comdat any

$_ZSt8_DestroyIPcEvT_S1_ = comdat any

$_ZNSt12_Destroy_auxILb1EE9__destroyIPcEEvT_S3_ = comdat any

$_ZNSt12_Vector_baseIcSaIcEE13_M_deallocateEPcm = comdat any

$_ZNSt12_Vector_baseIcSaIcEE12_Vector_implD2Ev = comdat any

$_ZNSt16allocator_traitsISaIcEE10deallocateERS0_Pcm = comdat any

$_ZN9__gnu_cxx13new_allocatorIcE10deallocateEPcm = comdat any

$_ZNSt8weak_ptrI12StreamSocketED2Ev = comdat any

$_ZNSt10__weak_ptrI12StreamSocketLN9__gnu_cxx12_Lock_policyE2EED2Ev = comdat any

$_ZNSt12__weak_countILN9__gnu_cxx12_Lock_policyE2EED2Ev = comdat any

$_ZNSt16_Sp_counted_baseILN9__gnu_cxx12_Lock_policyE2EE15_M_weak_releaseEv = comdat any

$_ZNKSt10unique_ptrI10SslContextSt14default_deleteIS0_EEptEv = comdat any

$_ZNK10SslContext12verificationEv = comdat any

$_ZN10SslContext6newSslEv = comdat any

$_ZNKSt10unique_ptrI10SslContextSt14default_deleteIS0_EE3getEv = comdat any

$_ZNKSt15__uniq_ptr_implI10SslContextSt14default_deleteIS0_EE6_M_ptrEv = comdat any

$_ZSt3getILm0EJP10SslContextSt14default_deleteIS0_EEERKNSt13tuple_elementIXT_ESt5tupleIJDpT0_EEE4typeERKS8_ = comdat any

$_ZSt12__get_helperILm0EP10SslContextJSt14default_deleteIS0_EEERKT0_RKSt11_Tuple_implIXT_EJS4_DpT1_EE = comdat any

$_ZNSt11_Tuple_implILm0EJP10SslContextSt14default_deleteIS0_EEE7_M_headERKS4_ = comdat any

$_ZNSt10_Head_baseILm0EP10SslContextLb0EE7_M_headERKS2_ = comdat any

$_ZNK6Buffer4sizeEv = comdat any

$_ZN6Socket19assertCorrectThreadEPKci = comdat any

$_ZNKSt19__shared_ptr_accessI24ProtocolHandlerInterfaceLN9__gnu_cxx12_Lock_policyE2ELb0ELb0EEptEv = comdat any

$_ZNSt12__shared_ptrI24ProtocolHandlerInterfaceLN9__gnu_cxx12_Lock_policyE2EE5resetEv = comdat any

$_ZN12StreamSocket15closeConnectionEv = comdat any

$_ZNKSt6atomicIbEcvbEv = comdat any

$_ZStanSt12memory_orderSt23__memory_order_modifier = comdat any

$_ZNKSt19__shared_ptr_accessI24ProtocolHandlerInterfaceLN9__gnu_cxx12_Lock_policyE2ELb0ELb0EE6_M_getEv = comdat any

$_ZNSt12__shared_ptrI24ProtocolHandlerInterfaceLN9__gnu_cxx12_Lock_policyE2EEC2Ev = comdat any

$_ZNSt12__shared_ptrI24ProtocolHandlerInterfaceLN9__gnu_cxx12_Lock_policyE2EE4swapERS3_ = comdat any

$_ZNSt12__shared_ptrI24ProtocolHandlerInterfaceLN9__gnu_cxx12_Lock_policyE2EED2Ev = comdat any

$_ZSt4swapIP24ProtocolHandlerInterfaceENSt9enable_ifIXsr6__and_ISt6__not_ISt15__is_tuple_likeIT_EESt21is_move_constructibleIS5_ESt18is_move_assignableIS5_EEE5valueEvE4typeERS5_SE_ = comdat any

$_ZNK12StreamSocket19isShutdownSignalledEv = comdat any

$_ZN12StreamSocket20setShutdownSignalledEv = comdat any

$_ZN12StreamSocket13getPollEventsENSt6chrono10time_pointINS0_3_V212steady_clockENS0_8durationIlSt5ratioILl1ELl1000000000EEEEEERl = comdat any

$_ZNK6Buffer5emptyEv = comdat any

$_ZNK12StreamSocket19processInputEnabledEv = comdat any

$_ZNK17SocketDisposition6isMoveEv = comdat any

$_ZNK17SocketDisposition10isTransferEv = comdat any

$_ZNK12StreamSocket21getSendBufferCapacityEv = comdat any

$_ZN17SocketDisposition9setClosedEv = comdat any

$_ZNK6Socket17getSendBufferSizeEv = comdat any

$_ZSt3maxIiERKT_S2_S2_ = comdat any

$_ZN6Buffer5clearEv = comdat any

$_ZNSt6vectorIcSaIcEE5clearEv = comdat any

$_ZNSt6vectorIcSaIcEE15_M_erase_at_endEPc = comdat any

$_ZN15SslStreamSocket11doHandshakeEv = comdat any

$_ZN12StreamSocket16readIncomingDataEv = comdat any

$_ZN15SslStreamSocket14handleSslStateEi = comdat any

$_ZNK12StreamSocket8hostnameB5cxx11Ev = comdat any

$_ZNK4Poco6Logger11informationEv = comdat any

$_ZStplIcSt11char_traitsIcESaIcEENSt7__cxx1112basic_stringIT_T0_T1_EEOS8_S5_ = comdat any

$_ZStplIcSt11char_traitsIcESaIcEENSt7__cxx1112basic_stringIT_T0_T1_EEPKS5_OS8_ = comdat any

$_ZNK6Socket13ignoringInputEv = comdat any

$_ZN6Buffer6appendEPKci = comdat any

$_ZNSt6vectorIcSaIcEE6insertIPKcvEEN9__gnu_cxx17__normal_iteratorIPcS1_EENS6_IS4_S1_EET_SA_ = comdat any

$_ZNSt6vectorIcSaIcEE3endEv = comdat any

$_ZN9__gnu_cxx17__normal_iteratorIPKcSt6vectorIcSaIcEEEC2IPcEERKNS0_IT_NS_11__enable_ifIXsr3std10__are_sameIS9_S8_EE7__valueES5_E6__typeEEE = comdat any

$_ZNKSt6vectorIcSaIcEE4sizeEv = comdat any

$_ZN9__gnu_cxxmiIPKcSt6vectorIcSaIcEEEENS_17__normal_iteratorIT_T0_E15difference_typeERKS9_SC_ = comdat any

$_ZNKSt6vectorIcSaIcEE6cbeginEv = comdat any

$_ZNSt6vectorIcSaIcEE18_M_insert_dispatchIPKcEEvN9__gnu_cxx17__normal_iteratorIPcS1_EET_S9_St12__false_type = comdat any

$_ZNSt6vectorIcSaIcEE5beginEv = comdat any

$_ZNK9__gnu_cxx17__normal_iteratorIPcSt6vectorIcSaIcEEEplEl = comdat any

$_ZNK9__gnu_cxx17__normal_iteratorIPKcSt6vectorIcSaIcEEE4baseEv = comdat any

$_ZN9__gnu_cxx17__normal_iteratorIPKcSt6vectorIcSaIcEEEC2ERKS2_ = comdat any

$_ZNSt6vectorIcSaIcEE15_M_range_insertIPKcEEvN9__gnu_cxx17__normal_iteratorIPcS1_EET_S9_St20forward_iterator_tag = comdat any

$_ZN9__gnu_cxxmiIPcSt6vectorIcSaIcEEEENS_17__normal_iteratorIT_T0_E15difference_typeERKS8_SB_ = comdat any

$_ZSt22__uninitialized_move_aIPcS0_SaIcEET0_T_S3_S2_RT1_ = comdat any

$_ZSt13move_backwardIPcS0_ET0_T_S2_S1_ = comdat any

$_ZNK9__gnu_cxx17__normal_iteratorIPcSt6vectorIcSaIcEEE4baseEv = comdat any

$_ZSt4copyIPKcN9__gnu_cxx17__normal_iteratorIPcSt6vectorIcSaIcEEEEET0_T_SA_S9_ = comdat any

$_ZSt7advanceIPKcmEvRT_T0_ = comdat any

$_ZSt22__uninitialized_copy_aIPKcPccET0_T_S4_S3_RSaIT1_E = comdat any

$_ZNKSt6vectorIcSaIcEE12_M_check_lenEmPKc = comdat any

$_ZNSt12_Vector_baseIcSaIcEE11_M_allocateEm = comdat any

$_ZSt34__uninitialized_move_if_noexcept_aIPcS0_SaIcEET0_T_S3_S2_RT1_ = comdat any

$_ZSt22__uninitialized_copy_aISt13move_iteratorIPcES1_cET0_T_S4_S3_RSaIT1_E = comdat any

$_ZSt18make_move_iteratorIPcESt13move_iteratorIT_ES2_ = comdat any

$_ZSt18uninitialized_copyISt13move_iteratorIPcES1_ET0_T_S4_S3_ = comdat any

$_ZNSt20__uninitialized_copyILb1EE13__uninit_copyISt13move_iteratorIPcES3_EET0_T_S6_S5_ = comdat any

$_ZSt4copyISt13move_iteratorIPcES1_ET0_T_S4_S3_ = comdat any

$_ZSt13__copy_move_aILb1EPcS0_ET1_T0_S2_S1_ = comdat any

$_ZSt12__miter_baseIPcEDTcl12__miter_basecldtfp_4baseEEESt13move_iteratorIT_E = comdat any

$_ZSt12__niter_wrapIPcET_RKS1_S1_ = comdat any

$_ZSt14__copy_move_a1ILb1EPcS0_ET1_T0_S2_S1_ = comdat any

$_ZSt12__niter_baseIPcET_S1_ = comdat any

$_ZSt14__copy_move_a2ILb1EPcS0_ET1_T0_S2_S1_ = comdat any

$_ZNSt11__copy_moveILb1ELb1ESt26random_access_iterator_tagE8__copy_mIcEEPT_PKS3_S6_S4_ = comdat any

$_ZSt12__miter_baseIPcET_S1_ = comdat any

$_ZNKSt13move_iteratorIPcE4baseEv = comdat any

$_ZNSt13move_iteratorIPcEC2ES0_ = comdat any

$_ZSt22__copy_move_backward_aILb1EPcS0_ET1_T0_S2_S1_ = comdat any

$_ZSt23__copy_move_backward_a1ILb1EPcS0_ET1_T0_S2_S1_ = comdat any

$_ZSt23__copy_move_backward_a2ILb1EPcS0_ET1_T0_S2_S1_ = comdat any

$_ZNSt20__copy_move_backwardILb1ELb1ESt26random_access_iterator_tagE13__copy_move_bIcEEPT_PKS3_S6_S4_ = comdat any

$_ZSt13__copy_move_aILb0EPKcN9__gnu_cxx17__normal_iteratorIPcSt6vectorIcSaIcEEEEET1_T0_SA_S9_ = comdat any

$_ZSt12__miter_baseIPKcET_S2_ = comdat any

$_ZSt12__niter_wrapIN9__gnu_cxx17__normal_iteratorIPcSt6vectorIcSaIcEEEES2_ET_S7_T0_ = comdat any

$_ZSt14__copy_move_a1ILb0EPKcPcET1_T0_S4_S3_ = comdat any

$_ZSt12__niter_baseIPKcET_S2_ = comdat any

$_ZSt12__niter_baseIPcSt6vectorIcSaIcEEET_N9__gnu_cxx17__normal_iteratorIS4_T0_EE = comdat any

$_ZSt14__copy_move_a2ILb0EPKcPcET1_T0_S4_S3_ = comdat any

$_ZNSt11__copy_moveILb0ELb1ESt26random_access_iterator_tagE8__copy_mIcEEPT_PKS3_S6_S4_ = comdat any

$_ZSt9__advanceIPKclEvRT_T0_St26random_access_iterator_tag = comdat any

$_ZSt18uninitialized_copyIPKcPcET0_T_S4_S3_ = comdat any

$_ZNSt20__uninitialized_copyILb1EE13__uninit_copyIPKcPcEET0_T_S6_S5_ = comdat any

$_ZSt4copyIPKcPcET0_T_S4_S3_ = comdat any

$_ZSt13__copy_move_aILb0EPKcPcET1_T0_S4_S3_ = comdat any

$_ZNKSt6vectorIcSaIcEE8max_sizeEv = comdat any

$_ZSt3maxImERKT_S2_S2_ = comdat any

$_ZNSt6vectorIcSaIcEE11_S_max_sizeERKS0_ = comdat any

$_ZNKSt12_Vector_baseIcSaIcEE19_M_get_Tp_allocatorEv = comdat any

$_ZNSt16allocator_traitsISaIcEE8max_sizeERKS0_ = comdat any

$_ZSt3minImERKT_S2_S2_ = comdat any

$_ZNK9__gnu_cxx13new_allocatorIcE8max_sizeEv = comdat any

$_ZNK9__gnu_cxx13new_allocatorIcE11_M_max_sizeEv = comdat any

$_ZNSt16allocator_traitsISaIcEE8allocateERS0_m = comdat any

$_ZN9__gnu_cxx13new_allocatorIcE8allocateEmPKv = comdat any

$_ZSt32__make_move_if_noexcept_iteratorIcSt13move_iteratorIPcEET0_PT_ = comdat any

$_ZN9__gnu_cxx17__normal_iteratorIPcSt6vectorIcSaIcEEEC2ERKS1_ = comdat any

$_ZN12StreamSocket17writeOutgoingDataEv = comdat any

$_ZSt3minIiERKT_S2_S2_ = comdat any

$_ZNK6Buffer12getBlockSizeEv = comdat any

$_ZNK6Buffer8getBlockEv = comdat any

$_ZN6Buffer10eraseFirstEm = comdat any

$_ZNKSt6vectorIcSaIcEEixEm = comdat any

$_ZNSt6vectorIcSaIcEE5eraseEN9__gnu_cxx17__normal_iteratorIPKcS1_EES6_ = comdat any

$_ZNSt6vectorIcSaIcEE8_M_eraseEN9__gnu_cxx17__normal_iteratorIPcS1_EES5_ = comdat any

$_ZN9__gnu_cxxneIPcSt6vectorIcSaIcEEEEbRKNS_17__normal_iteratorIT_T0_EESA_ = comdat any

$_ZSt4moveIN9__gnu_cxx17__normal_iteratorIPcSt6vectorIcSaIcEEEES6_ET0_T_S8_S7_ = comdat any

$_ZSt13__copy_move_aILb1EN9__gnu_cxx17__normal_iteratorIPcSt6vectorIcSaIcEEEES6_ET1_T0_S8_S7_ = comdat any

$_ZSt12__miter_baseIN9__gnu_cxx17__normal_iteratorIPcSt6vectorIcSaIcEEEEET_S7_ = comdat any

$_ZNSt14_Sp_ebo_helperILi0ESaI15SslStreamSocketELb1EED2Ev = comdat any

$_ZN9__gnu_cxx13new_allocatorI15SslStreamSocketED2Ev = comdat any

$_ZNSt16allocator_traitsISaI15SslStreamSocketEE7destroyIS0_EEvRS1_PT_ = comdat any

$_ZNSt23_Sp_counted_ptr_inplaceI15SslStreamSocketSaIS0_ELN9__gnu_cxx12_Lock_policyE2EE5_Impl8_M_allocEv = comdat any

$_ZN9__gnu_cxx13new_allocatorI15SslStreamSocketE7destroyIS1_EEvPT_ = comdat any

$_ZNSt14_Sp_ebo_helperILi0ESaI15SslStreamSocketELb1EE6_S_getERS2_ = comdat any

$_ZNSt19_Sp_make_shared_tag5_S_tiEv = comdat any

$_ZNKSt9type_infoeqERKS_ = comdat any

$_ZN9__gnu_cxx16__aligned_bufferI15SslStreamSocketE6_M_ptrEv = comdat any

$_ZN9__gnu_cxx16__aligned_bufferI15SslStreamSocketE7_M_addrEv = comdat any

$_ZNSt16allocator_traitsISaISt23_Sp_counted_ptr_inplaceI15SslStreamSocketSaIS1_ELN9__gnu_cxx12_Lock_policyE2EEEE10deallocateERS6_PS5_m = comdat any

$_ZN9__gnu_cxx13new_allocatorISt23_Sp_counted_ptr_inplaceI15SslStreamSocketSaIS2_ELNS_12_Lock_policyE2EEE10deallocateEPS5_m = comdat any

$_ZN9__gnu_cxx13new_allocatorISt23_Sp_counted_ptr_inplaceI15SslStreamSocketSaIS2_ELNS_12_Lock_policyE2EEED2Ev = comdat any

$_ZSt30__enable_shared_from_this_baseRKSt14__shared_countILN9__gnu_cxx12_Lock_policyE2EEPKSt23enable_shared_from_thisI12StreamSocketE = comdat any

$_ZNKSt23enable_shared_from_thisI12StreamSocketE14_M_weak_assignI15SslStreamSocketEEvPT_RKSt14__shared_countILN9__gnu_cxx12_Lock_policyE2EE = comdat any

$_ZNSt10__weak_ptrI12StreamSocketLN9__gnu_cxx12_Lock_policyE2EE9_M_assignEPS0_RKSt14__shared_countILS2_2EE = comdat any

$_ZNKSt10__weak_ptrI12StreamSocketLN9__gnu_cxx12_Lock_policyE2EE9use_countEv = comdat any

$_ZNSt12__weak_countILN9__gnu_cxx12_Lock_policyE2EEaSERKSt14__shared_countILS1_2EE = comdat any

$_ZNKSt12__weak_countILN9__gnu_cxx12_Lock_policyE2EE16_M_get_use_countEv = comdat any

$_ZNKSt16_Sp_counted_baseILN9__gnu_cxx12_Lock_policyE2EE16_M_get_use_countEv = comdat any

$_ZNSt16_Sp_counted_baseILN9__gnu_cxx12_Lock_policyE2EE15_M_weak_add_refEv = comdat any

$_ZN9__gnu_cxx13new_allocatorI15SslStreamSocketEC2Ev = comdat any

$_ZNSt12__shared_ptrI12StreamSocketLN9__gnu_cxx12_Lock_policyE2EEC2I15SslStreamSocketvEERKS_IT_LS2_2EE = comdat any

$_ZNSt12__shared_ptrI12StreamSocketLN9__gnu_cxx12_Lock_policyE2EEaSI15SslStreamSocketEENSt9enable_ifIXsr20__sp_compatible_withIPT_PS0_EE5valueERS3_E4typeEOS_IS7_LS2_2EE = comdat any

$_ZNSt12__shared_ptrI12StreamSocketLN9__gnu_cxx12_Lock_policyE2EEC2I15SslStreamSocketvEEOS_IT_LS2_2EE = comdat any

$_ZNSt12__shared_ptrI12StreamSocketLN9__gnu_cxx12_Lock_policyE2EE4swapERS3_ = comdat any

$_ZNSt12__shared_ptrI12StreamSocketLN9__gnu_cxx12_Lock_policyE2EED2Ev = comdat any

$_ZSt4swapIP12StreamSocketENSt9enable_ifIXsr6__and_ISt6__not_ISt15__is_tuple_likeIT_EESt21is_move_constructibleIS5_ESt18is_move_assignableIS5_EEE5valueEvE4typeERS5_SE_ = comdat any

$_ZSt11make_sharedI12StreamSocketJKNSt7__cxx1112basic_stringIcSt11char_traitsIcESaIcEEERKiRbSt10shared_ptrI24ProtocolHandlerInterfaceERNS0_8ReadTypeEEESB_IT_EDpOT0_ = comdat any

$_ZSt15allocate_sharedI12StreamSocketSaIS0_EJKNSt7__cxx1112basic_stringIcSt11char_traitsIcESaIcEEERKiRbSt10shared_ptrI24ProtocolHandlerInterfaceERNS0_8ReadTypeEEESC_IT_ERKT0_DpOT1_ = comdat any

$_ZNSaI12StreamSocketEC2Ev = comdat any

$_ZNSaI12StreamSocketED2Ev = comdat any

$_ZNSt10shared_ptrI12StreamSocketEC2ISaIS0_EJKNSt7__cxx1112basic_stringIcSt11char_traitsIcESaIcEEERKiRbS_I24ProtocolHandlerInterfaceERNS0_8ReadTypeEEEESt20_Sp_alloc_shared_tagIT_EDpOT0_ = comdat any

$_ZNSt12__shared_ptrI12StreamSocketLN9__gnu_cxx12_Lock_policyE2EEC2ISaIS0_EJKNSt7__cxx1112basic_stringIcSt11char_traitsIcESaIcEEERKiRbSt10shared_ptrI24ProtocolHandlerInterfaceERNS0_8ReadTypeEEEESt20_Sp_alloc_shared_tagIT_EDpOT0_ = comdat any

$_ZNSt14__shared_countILN9__gnu_cxx12_Lock_policyE2EEC2I12StreamSocketSaIS4_EJKNSt7__cxx1112basic_stringIcSt11char_traitsIcESaIcEEERKiRbSt10shared_ptrI24ProtocolHandlerInterfaceERNS4_8ReadTypeEEEERPT_St20_Sp_alloc_shared_tagIT0_EDpOT1_ = comdat any

$_ZNSt12__shared_ptrI12StreamSocketLN9__gnu_cxx12_Lock_policyE2EE31_M_enable_shared_from_this_withIS0_S0_EENSt9enable_ifIXsr15__has_esft_baseIT0_EE5valueEvE4typeEPT_ = comdat any

$_ZNSaISt23_Sp_counted_ptr_inplaceI12StreamSocketSaIS0_ELN9__gnu_cxx12_Lock_policyE2EEEC2IS0_EERKSaIT_E = comdat any

$_ZSt18__allocate_guardedISaISt23_Sp_counted_ptr_inplaceI12StreamSocketSaIS1_ELN9__gnu_cxx12_Lock_policyE2EEEESt15__allocated_ptrIT_ERS8_ = comdat any

$_ZNSt15__allocated_ptrISaISt23_Sp_counted_ptr_inplaceI12StreamSocketSaIS1_ELN9__gnu_cxx12_Lock_policyE2EEEE3getEv = comdat any

$_ZNSaI12StreamSocketEC2ERKS0_ = comdat any

$_ZNSt23_Sp_counted_ptr_inplaceI12StreamSocketSaIS0_ELN9__gnu_cxx12_Lock_policyE2EEC2IJKNSt7__cxx1112basic_stringIcSt11char_traitsIcESaIcEEERKiRbSt10shared_ptrI24ProtocolHandlerInterfaceERNS0_8ReadTypeEEEES1_DpOT_ = comdat any

$_ZNSt15__allocated_ptrISaISt23_Sp_counted_ptr_inplaceI12StreamSocketSaIS1_ELN9__gnu_cxx12_Lock_policyE2EEEEaSEDn = comdat any

$_ZNSt23_Sp_counted_ptr_inplaceI12StreamSocketSaIS0_ELN9__gnu_cxx12_Lock_policyE2EE6_M_ptrEv = comdat any

$_ZNSt15__allocated_ptrISaISt23_Sp_counted_ptr_inplaceI12StreamSocketSaIS1_ELN9__gnu_cxx12_Lock_policyE2EEEED2Ev = comdat any

$_ZNSaISt23_Sp_counted_ptr_inplaceI12StreamSocketSaIS0_ELN9__gnu_cxx12_Lock_policyE2EEED2Ev = comdat any

$_ZN9__gnu_cxx13new_allocatorISt23_Sp_counted_ptr_inplaceI12StreamSocketSaIS2_ELNS_12_Lock_policyE2EEEC2Ev = comdat any

$_ZNSt16allocator_traitsISaISt23_Sp_counted_ptr_inplaceI12StreamSocketSaIS1_ELN9__gnu_cxx12_Lock_policyE2EEEE8allocateERS6_m = comdat any

$_ZNSt15__allocated_ptrISaISt23_Sp_counted_ptr_inplaceI12StreamSocketSaIS1_ELN9__gnu_cxx12_Lock_policyE2EEEEC2ERS6_PS5_ = comdat any

$_ZN9__gnu_cxx13new_allocatorISt23_Sp_counted_ptr_inplaceI12StreamSocketSaIS2_ELNS_12_Lock_policyE2EEE8allocateEmPKv = comdat any

$_ZNK9__gnu_cxx13new_allocatorISt23_Sp_counted_ptr_inplaceI12StreamSocketSaIS2_ELNS_12_Lock_policyE2EEE11_M_max_sizeEv = comdat any

$_ZSt12__to_addressISt23_Sp_counted_ptr_inplaceI12StreamSocketSaIS1_ELN9__gnu_cxx12_Lock_policyE2EEEPT_S7_ = comdat any

$_ZN9__gnu_cxx13new_allocatorI12StreamSocketEC2ERKS2_ = comdat any

$_ZNSt23_Sp_counted_ptr_inplaceI12StreamSocketSaIS0_ELN9__gnu_cxx12_Lock_policyE2EE5_ImplC2ES1_ = comdat any

$_ZNSt16allocator_traitsISaI12StreamSocketEE9constructIS0_JKNSt7__cxx1112basic_stringIcSt11char_traitsIcESaIcEEERKiRbSt10shared_ptrI24ProtocolHandlerInterfaceERNS0_8ReadTypeEEEEvRS1_PT_DpOT0_ = comdat any

$_ZNSt23_Sp_counted_ptr_inplaceI12StreamSocketSaIS0_ELN9__gnu_cxx12_Lock_policyE2EE5_ImplD2Ev = comdat any

$_ZNSt23_Sp_counted_ptr_inplaceI12StreamSocketSaIS0_ELN9__gnu_cxx12_Lock_policyE2EED2Ev = comdat any

$_ZNSt23_Sp_counted_ptr_inplaceI12StreamSocketSaIS0_ELN9__gnu_cxx12_Lock_policyE2EED0Ev = comdat any

$_ZNSt23_Sp_counted_ptr_inplaceI12StreamSocketSaIS0_ELN9__gnu_cxx12_Lock_policyE2EE10_M_disposeEv = comdat any

$_ZNSt23_Sp_counted_ptr_inplaceI12StreamSocketSaIS0_ELN9__gnu_cxx12_Lock_policyE2EE10_M_destroyEv = comdat any

$_ZNSt23_Sp_counted_ptr_inplaceI12StreamSocketSaIS0_ELN9__gnu_cxx12_Lock_policyE2EE14_M_get_deleterERKSt9type_info = comdat any

$_ZNSt14_Sp_ebo_helperILi0ESaI12StreamSocketELb1EEC2ERKS1_ = comdat any

$_ZN9__gnu_cxx13new_allocatorI12StreamSocketE9constructIS1_JKNSt7__cxx1112basic_stringIcSt11char_traitsIcESaIcEEERKiRbSt10shared_ptrI24ProtocolHandlerInterfaceERNS1_8ReadTypeEEEEvPT_DpOT0_ = comdat any

$_ZN12StreamSocketC2ENSt7__cxx1112basic_stringIcSt11char_traitsIcESaIcEEEibSt10shared_ptrI24ProtocolHandlerInterfaceENS_8ReadTypeE = comdat any

$_ZNSt14_Sp_ebo_helperILi0ESaI12StreamSocketELb1EED2Ev = comdat any

$_ZN9__gnu_cxx13new_allocatorI12StreamSocketED2Ev = comdat any

$_ZNSt16allocator_traitsISaI12StreamSocketEE7destroyIS0_EEvRS1_PT_ = comdat any

$_ZNSt23_Sp_counted_ptr_inplaceI12StreamSocketSaIS0_ELN9__gnu_cxx12_Lock_policyE2EE5_Impl8_M_allocEv = comdat any

$_ZN9__gnu_cxx13new_allocatorI12StreamSocketE7destroyIS1_EEvPT_ = comdat any

$_ZNSt14_Sp_ebo_helperILi0ESaI12StreamSocketELb1EE6_S_getERS2_ = comdat any

$_ZN9__gnu_cxx16__aligned_bufferI12StreamSocketE6_M_ptrEv = comdat any

$_ZN9__gnu_cxx16__aligned_bufferI12StreamSocketE7_M_addrEv = comdat any

$_ZNSt16allocator_traitsISaISt23_Sp_counted_ptr_inplaceI12StreamSocketSaIS1_ELN9__gnu_cxx12_Lock_policyE2EEEE10deallocateERS6_PS5_m = comdat any

$_ZN9__gnu_cxx13new_allocatorISt23_Sp_counted_ptr_inplaceI12StreamSocketSaIS2_ELNS_12_Lock_policyE2EEE10deallocateEPS5_m = comdat any

$_ZN9__gnu_cxx13new_allocatorISt23_Sp_counted_ptr_inplaceI12StreamSocketSaIS2_ELNS_12_Lock_policyE2EEED2Ev = comdat any

$_ZNKSt23enable_shared_from_thisI12StreamSocketE14_M_weak_assignIS0_EEvPT_RKSt14__shared_countILN9__gnu_cxx12_Lock_policyE2EE = comdat any

$_ZN9__gnu_cxx13new_allocatorI12StreamSocketEC2Ev = comdat any

$_ZNSt12__shared_ptrI12StreamSocketLN9__gnu_cxx12_Lock_policyE2EEaSEOS3_ = comdat any

$_ZNSt12__shared_ptrI12StreamSocketLN9__gnu_cxx12_Lock_policyE2EEC2EOS3_ = comdat any

$_ZTVN4Poco3Net4Impl21IPv4SocketAddressImplE = comdat any

$_ZTSN4Poco3Net4Impl21IPv4SocketAddressImplE = comdat any

$_ZTIN4Poco3Net4Impl21IPv4SocketAddressImplE = comdat any

$_ZTVN4Poco3Net4Impl21IPv6SocketAddressImplE = comdat any

$_ZTSN4Poco3Net4Impl21IPv6SocketAddressImplE = comdat any

$_ZTIN4Poco3Net4Impl21IPv6SocketAddressImplE = comdat any

$_ZZNSt8__detail18__to_chars_10_implIjEEvPcjT_E8__digits = comdat any

$_ZTVSt23_Sp_counted_ptr_inplaceI15SslStreamSocketSaIS0_ELN9__gnu_cxx12_Lock_policyE2EE = comdat any

$_ZTSSt23_Sp_counted_ptr_inplaceI15SslStreamSocketSaIS0_ELN9__gnu_cxx12_Lock_policyE2EE = comdat any

$_ZTSSt16_Sp_counted_baseILN9__gnu_cxx12_Lock_policyE2EE = comdat any

$_ZTSSt11_Mutex_baseILN9__gnu_cxx12_Lock_policyE2EE = comdat any

$_ZTISt11_Mutex_baseILN9__gnu_cxx12_Lock_policyE2EE = comdat any

$_ZTISt16_Sp_counted_baseILN9__gnu_cxx12_Lock_policyE2EE = comdat any

$_ZTISt23_Sp_counted_ptr_inplaceI15SslStreamSocketSaIS0_ELN9__gnu_cxx12_Lock_policyE2EE = comdat any

$_ZTVSt16_Sp_counted_baseILN9__gnu_cxx12_Lock_policyE2EE = comdat any

$_ZTV15SslStreamSocket = comdat any

$_ZTS15SslStreamSocket = comdat any

$_ZTI15SslStreamSocket = comdat any

$_ZTV6Socket = comdat any

$_ZTS6Socket = comdat any

$_ZTI6Socket = comdat any

$_ZTSSt19_Sp_make_shared_tag = comdat any

$_ZTISt19_Sp_make_shared_tag = comdat any

$_ZZNSt19_Sp_make_shared_tag5_S_tiEvE5__tag = comdat any

$_ZTVSt23_Sp_counted_ptr_inplaceI12StreamSocketSaIS0_ELN9__gnu_cxx12_Lock_policyE2EE = comdat any

$_ZTSSt23_Sp_counted_ptr_inplaceI12StreamSocketSaIS0_ELN9__gnu_cxx12_Lock_policyE2EE = comdat any

$_ZTISt23_Sp_counted_ptr_inplaceI12StreamSocketSaIS0_ELN9__gnu_cxx12_Lock_policyE2EE = comdat any

@_ZStL8__ioinit = internal global %"class.std::ios_base::Init" zeroinitializer, align 1, !dbg !0
@__dso_handle = external hidden global i8
@_ZN3LogL3endE = internal global %"struct.Log::_end_marker" zeroinitializer, align 1, !dbg !7
@_ZTIN4Poco9ExceptionE = external constant ptr
@.str = private unnamed_addr constant [4 x i8] c"WRN\00", align 1, !dbg !18
@.str.2 = private unnamed_addr constant [29 x i8] c"Poco::Net::DNS::resolveOne(\22\00", align 1, !dbg !26
@.str.3 = private unnamed_addr constant [12 x i8] c"\22) failed: \00", align 1, !dbg !31
@.str.4 = private unnamed_addr constant [3 x i8] c"| \00", align 1, !dbg !36
@.str.5 = private unnamed_addr constant [16 x i8] c"net/NetUtil.cpp\00", align 1, !dbg !41
@.str.6 = private unnamed_addr constant [23 x i8] c"Poco::Net::IPAddress(\22\00", align 1, !dbg !46
@.str.7 = private unnamed_addr constant [4 x i8] c"TRC\00", align 1, !dbg !51
@.str.8 = private unnamed_addr constant [7 x i8] c"Host [\00", align 1, !dbg !53
@.str.9 = private unnamed_addr constant [39 x i8] c"] is on the same host as the client: \22\00", align 1, !dbg !58
@.str.10 = private unnamed_addr constant [3 x i8] c"\22.\00", align 1, !dbg !63
@.str.11 = private unnamed_addr constant [43 x i8] c"] is not on the same host as the client: \22\00", align 1, !dbg !65
@.str.12 = private unnamed_addr constant [4 x i8] c"ERR\00", align 1, !dbg !70
@.str.13 = private unnamed_addr constant [19 x i8] c"Invalid host/port \00", align 1, !dbg !72
@.str.14 = private unnamed_addr constant [4 x i8] c"DBG\00", align 1, !dbg !77
@.str.15 = private unnamed_addr constant [15 x i8] c"Connecting to \00", align 1, !dbg !79
@.str.16 = private unnamed_addr constant [3 x i8] c" (\00", align 1, !dbg !84
@.str.17 = private unnamed_addr constant [5 x i8] c"SSL)\00", align 1, !dbg !86
@.str.18 = private unnamed_addr constant [13 x i8] c"Unencrypted)\00", align 1, !dbg !91
@.str.19 = private unnamed_addr constant [24 x i8] c"Failed to create socket\00", align 1, !dbg !96
@.str.20 = private unnamed_addr constant [3 x i8] c": \00", align 1, !dbg !101
@.str.21 = private unnamed_addr constant [22 x i8] c"Failed to connect to \00", align 1, !dbg !103
@.str.22 = private unnamed_addr constant [48 x i8] c"Failed to allocate socket for client websocket \00", align 1, !dbg !108
@.str.23 = private unnamed_addr constant [24 x i8] c"Failed to lookup host [\00", align 1, !dbg !113
@.str.24 = private unnamed_addr constant [12 x i8] c"]. Skipping\00", align 1, !dbg !115
@.str.25 = private unnamed_addr constant [9 x i8] c"https://\00", align 1, !dbg !117
@.str.26 = private unnamed_addr constant [7 x i8] c"wss://\00", align 1, !dbg !122
@.str.27 = private unnamed_addr constant [4 x i8] c"://\00", align 1, !dbg !124
@_ZTVN4Poco3Net4Impl21IPv4SocketAddressImplE = linkonce_odr dso_local unnamed_addr constant { [11 x ptr] } { [11 x ptr] [ptr null, ptr @_ZTIN4Poco3Net4Impl21IPv4SocketAddressImplE, ptr @_ZN4Poco3Net4Impl21IPv4SocketAddressImplD2Ev, ptr @_ZN4Poco3Net4Impl21IPv4SocketAddressImplD0Ev, ptr @_ZNK4Poco3Net4Impl21IPv4SocketAddressImpl4hostEv, ptr @_ZNK4Poco3Net4Impl21IPv4SocketAddressImpl4portEv, ptr @_ZNK4Poco3Net4Impl21IPv4SocketAddressImpl6lengthEv, ptr @_ZNK4Poco3Net4Impl21IPv4SocketAddressImpl4addrEv, ptr @_ZNK4Poco3Net4Impl21IPv4SocketAddressImpl2afEv, ptr @_ZNK4Poco3Net4Impl21IPv4SocketAddressImpl6familyEv, ptr @_ZNK4Poco3Net4Impl21IPv4SocketAddressImpl8toStringB5cxx11Ev] }, comdat, align 8
@_ZTVN10__cxxabiv120__si_class_type_infoE = external global ptr
@_ZTSN4Poco3Net4Impl21IPv4SocketAddressImplE = linkonce_odr dso_local constant [40 x i8] c"N4Poco3Net4Impl21IPv4SocketAddressImplE\00", comdat, align 1
@_ZTIN4Poco3Net4Impl17SocketAddressImplE = external constant ptr
@_ZTIN4Poco3Net4Impl21IPv4SocketAddressImplE = linkonce_odr dso_local constant { ptr, ptr, ptr } { ptr getelementptr inbounds (ptr, ptr @_ZTVN10__cxxabiv120__si_class_type_infoE, i64 2), ptr @_ZTSN4Poco3Net4Impl21IPv4SocketAddressImplE, ptr @_ZTIN4Poco3Net4Impl17SocketAddressImplE }, comdat, align 8
@_ZTVN4Poco3Net4Impl21IPv6SocketAddressImplE = linkonce_odr dso_local unnamed_addr constant { [11 x ptr] } { [11 x ptr] [ptr null, ptr @_ZTIN4Poco3Net4Impl21IPv6SocketAddressImplE, ptr @_ZN4Poco3Net4Impl21IPv6SocketAddressImplD2Ev, ptr @_ZN4Poco3Net4Impl21IPv6SocketAddressImplD0Ev, ptr @_ZNK4Poco3Net4Impl21IPv6SocketAddressImpl4hostEv, ptr @_ZNK4Poco3Net4Impl21IPv6SocketAddressImpl4portEv, ptr @_ZNK4Poco3Net4Impl21IPv6SocketAddressImpl6lengthEv, ptr @_ZNK4Poco3Net4Impl21IPv6SocketAddressImpl4addrEv, ptr @_ZNK4Poco3Net4Impl21IPv6SocketAddressImpl2afEv, ptr @_ZNK4Poco3Net4Impl21IPv6SocketAddressImpl6familyEv, ptr @_ZNK4Poco3Net4Impl21IPv6SocketAddressImpl8toStringB5cxx11Ev] }, comdat, align 8
@_ZTSN4Poco3Net4Impl21IPv6SocketAddressImplE = linkonce_odr dso_local constant [40 x i8] c"N4Poco3Net4Impl21IPv6SocketAddressImplE\00", comdat, align 1
@_ZTIN4Poco3Net4Impl21IPv6SocketAddressImplE = linkonce_odr dso_local constant { ptr, ptr, ptr } { ptr getelementptr inbounds (ptr, ptr @_ZTVN10__cxxabiv120__si_class_type_infoE, i64 2), ptr @_ZTSN4Poco3Net4Impl21IPv6SocketAddressImplE, ptr @_ZTIN4Poco3Net4Impl17SocketAddressImplE }, comdat, align 8
@_ZN3Log10IsShutdownE = external global i8, align 1
@.str.28 = private unnamed_addr constant [6 x i8] c"EPERM\00", align 1, !dbg !126
@.str.29 = private unnamed_addr constant [7 x i8] c"ENOENT\00", align 1, !dbg !132
@.str.30 = private unnamed_addr constant [6 x i8] c"ESRCH\00", align 1, !dbg !134
@.str.31 = private unnamed_addr constant [6 x i8] c"EINTR\00", align 1, !dbg !136
@.str.32 = private unnamed_addr constant [4 x i8] c"EIO\00", align 1, !dbg !138
@.str.33 = private unnamed_addr constant [6 x i8] c"ENXIO\00", align 1, !dbg !140
@.str.34 = private unnamed_addr constant [6 x i8] c"E2BIG\00", align 1, !dbg !142
@.str.35 = private unnamed_addr constant [8 x i8] c"ENOEXEC\00", align 1, !dbg !144
@.str.36 = private unnamed_addr constant [6 x i8] c"EBADF\00", align 1, !dbg !149
@.str.37 = private unnamed_addr constant [7 x i8] c"ECHILD\00", align 1, !dbg !151
@.str.38 = private unnamed_addr constant [7 x i8] c"EAGAIN\00", align 1, !dbg !153
@.str.39 = private unnamed_addr constant [7 x i8] c"ENOMEM\00", align 1, !dbg !155
@.str.40 = private unnamed_addr constant [7 x i8] c"EACCES\00", align 1, !dbg !157
@.str.41 = private unnamed_addr constant [7 x i8] c"EFAULT\00", align 1, !dbg !159
@.str.42 = private unnamed_addr constant [8 x i8] c"ENOTBLK\00", align 1, !dbg !161
@.str.43 = private unnamed_addr constant [6 x i8] c"EBUSY\00", align 1, !dbg !163
@.str.44 = private unnamed_addr constant [7 x i8] c"EEXIST\00", align 1, !dbg !165
@.str.45 = private unnamed_addr constant [6 x i8] c"EXDEV\00", align 1, !dbg !167
@.str.46 = private unnamed_addr constant [7 x i8] c"ENODEV\00", align 1, !dbg !169
@.str.47 = private unnamed_addr constant [8 x i8] c"ENOTDIR\00", align 1, !dbg !171
@.str.48 = private unnamed_addr constant [7 x i8] c"EISDIR\00", align 1, !dbg !173
@.str.49 = private unnamed_addr constant [7 x i8] c"EINVAL\00", align 1, !dbg !175
@.str.50 = private unnamed_addr constant [7 x i8] c"ENFILE\00", align 1, !dbg !177
@.str.51 = private unnamed_addr constant [7 x i8] c"EMFILE\00", align 1, !dbg !179
@.str.52 = private unnamed_addr constant [7 x i8] c"ENOTTY\00", align 1, !dbg !181
@.str.53 = private unnamed_addr constant [8 x i8] c"ETXTBSY\00", align 1, !dbg !183
@.str.54 = private unnamed_addr constant [6 x i8] c"EFBIG\00", align 1, !dbg !185
@.str.55 = private unnamed_addr constant [7 x i8] c"ENOSPC\00", align 1, !dbg !187
@.str.56 = private unnamed_addr constant [7 x i8] c"ESPIPE\00", align 1, !dbg !189
@.str.57 = private unnamed_addr constant [6 x i8] c"EROFS\00", align 1, !dbg !191
@.str.58 = private unnamed_addr constant [7 x i8] c"EMLINK\00", align 1, !dbg !193
@.str.59 = private unnamed_addr constant [6 x i8] c"EPIPE\00", align 1, !dbg !195
@.str.60 = private unnamed_addr constant [5 x i8] c"EDOM\00", align 1, !dbg !197
@.str.61 = private unnamed_addr constant [7 x i8] c"ERANGE\00", align 1, !dbg !199
@.str.62 = private unnamed_addr constant [8 x i8] c"EDEADLK\00", align 1, !dbg !201
@.str.63 = private unnamed_addr constant [13 x i8] c"ENAMETOOLONG\00", align 1, !dbg !203
@.str.64 = private unnamed_addr constant [7 x i8] c"ENOLCK\00", align 1, !dbg !205
@.str.65 = private unnamed_addr constant [7 x i8] c"ENOSYS\00", align 1, !dbg !207
@.str.66 = private unnamed_addr constant [10 x i8] c"ENOTEMPTY\00", align 1, !dbg !209
@.str.67 = private unnamed_addr constant [6 x i8] c"ELOOP\00", align 1, !dbg !214
@.str.68 = private unnamed_addr constant [7 x i8] c"ENOMSG\00", align 1, !dbg !216
@.str.69 = private unnamed_addr constant [6 x i8] c"EIDRM\00", align 1, !dbg !218
@.str.70 = private unnamed_addr constant [7 x i8] c"ECHRNG\00", align 1, !dbg !220
@.str.71 = private unnamed_addr constant [9 x i8] c"EL2NSYNC\00", align 1, !dbg !222
@.str.72 = private unnamed_addr constant [7 x i8] c"EL3HLT\00", align 1, !dbg !224
@.str.73 = private unnamed_addr constant [7 x i8] c"EL3RST\00", align 1, !dbg !226
@.str.74 = private unnamed_addr constant [7 x i8] c"ELNRNG\00", align 1, !dbg !228
@.str.75 = private unnamed_addr constant [8 x i8] c"EUNATCH\00", align 1, !dbg !230
@.str.76 = private unnamed_addr constant [7 x i8] c"ENOCSI\00", align 1, !dbg !232
@.str.77 = private unnamed_addr constant [7 x i8] c"EL2HLT\00", align 1, !dbg !234
@.str.78 = private unnamed_addr constant [6 x i8] c"EBADE\00", align 1, !dbg !236
@.str.79 = private unnamed_addr constant [6 x i8] c"EBADR\00", align 1, !dbg !238
@.str.80 = private unnamed_addr constant [7 x i8] c"EXFULL\00", align 1, !dbg !240
@.str.81 = private unnamed_addr constant [7 x i8] c"ENOANO\00", align 1, !dbg !242
@.str.82 = private unnamed_addr constant [8 x i8] c"EBADRQC\00", align 1, !dbg !244
@.str.83 = private unnamed_addr constant [8 x i8] c"EBADSLT\00", align 1, !dbg !246
@.str.84 = private unnamed_addr constant [7 x i8] c"EBFONT\00", align 1, !dbg !248
@.str.85 = private unnamed_addr constant [7 x i8] c"ENOSTR\00", align 1, !dbg !250
@.str.86 = private unnamed_addr constant [8 x i8] c"ENODATA\00", align 1, !dbg !252
@.str.87 = private unnamed_addr constant [6 x i8] c"ETIME\00", align 1, !dbg !254
@.str.88 = private unnamed_addr constant [6 x i8] c"ENOSR\00", align 1, !dbg !256
@.str.89 = private unnamed_addr constant [7 x i8] c"ENONET\00", align 1, !dbg !258
@.str.90 = private unnamed_addr constant [7 x i8] c"ENOPKG\00", align 1, !dbg !260
@.str.91 = private unnamed_addr constant [8 x i8] c"EREMOTE\00", align 1, !dbg !262
@.str.92 = private unnamed_addr constant [8 x i8] c"ENOLINK\00", align 1, !dbg !264
@.str.93 = private unnamed_addr constant [5 x i8] c"EADV\00", align 1, !dbg !266
@.str.94 = private unnamed_addr constant [7 x i8] c"ESRMNT\00", align 1, !dbg !268
@.str.95 = private unnamed_addr constant [6 x i8] c"ECOMM\00", align 1, !dbg !270
@.str.96 = private unnamed_addr constant [7 x i8] c"EPROTO\00", align 1, !dbg !272
@.str.97 = private unnamed_addr constant [10 x i8] c"EMULTIHOP\00", align 1, !dbg !274
@.str.98 = private unnamed_addr constant [8 x i8] c"EDOTDOT\00", align 1, !dbg !276
@.str.99 = private unnamed_addr constant [8 x i8] c"EBADMSG\00", align 1, !dbg !278
@.str.100 = private unnamed_addr constant [10 x i8] c"EOVERFLOW\00", align 1, !dbg !280
@.str.101 = private unnamed_addr constant [9 x i8] c"ENOTUNIQ\00", align 1, !dbg !282
@.str.102 = private unnamed_addr constant [7 x i8] c"EBADFD\00", align 1, !dbg !284
@.str.103 = private unnamed_addr constant [8 x i8] c"EREMCHG\00", align 1, !dbg !286
@.str.104 = private unnamed_addr constant [8 x i8] c"ELIBACC\00", align 1, !dbg !288
@.str.105 = private unnamed_addr constant [8 x i8] c"ELIBBAD\00", align 1, !dbg !290
@.str.106 = private unnamed_addr constant [8 x i8] c"ELIBSCN\00", align 1, !dbg !292
@.str.107 = private unnamed_addr constant [8 x i8] c"ELIBMAX\00", align 1, !dbg !294
@.str.108 = private unnamed_addr constant [9 x i8] c"ELIBEXEC\00", align 1, !dbg !296
@.str.109 = private unnamed_addr constant [7 x i8] c"EILSEQ\00", align 1, !dbg !298
@.str.110 = private unnamed_addr constant [9 x i8] c"ERESTART\00", align 1, !dbg !300
@.str.111 = private unnamed_addr constant [9 x i8] c"ESTRPIPE\00", align 1, !dbg !302
@.str.112 = private unnamed_addr constant [7 x i8] c"EUSERS\00", align 1, !dbg !304
@.str.113 = private unnamed_addr constant [9 x i8] c"ENOTSOCK\00", align 1, !dbg !306
@.str.114 = private unnamed_addr constant [13 x i8] c"EDESTADDRREQ\00", align 1, !dbg !308
@.str.115 = private unnamed_addr constant [9 x i8] c"EMSGSIZE\00", align 1, !dbg !310
@.str.116 = private unnamed_addr constant [11 x i8] c"EPROTOTYPE\00", align 1, !dbg !312
@.str.117 = private unnamed_addr constant [12 x i8] c"ENOPROTOOPT\00", align 1, !dbg !317
@.str.118 = private unnamed_addr constant [16 x i8] c"EPROTONOSUPPORT\00", align 1, !dbg !319
@.str.119 = private unnamed_addr constant [16 x i8] c"ESOCKTNOSUPPORT\00", align 1, !dbg !321
@.str.120 = private unnamed_addr constant [11 x i8] c"EOPNOTSUPP\00", align 1, !dbg !323
@.str.121 = private unnamed_addr constant [13 x i8] c"EPFNOSUPPORT\00", align 1, !dbg !325
@.str.122 = private unnamed_addr constant [13 x i8] c"EAFNOSUPPORT\00", align 1, !dbg !327
@.str.123 = private unnamed_addr constant [11 x i8] c"EADDRINUSE\00", align 1, !dbg !329
@.str.124 = private unnamed_addr constant [14 x i8] c"EADDRNOTAVAIL\00", align 1, !dbg !331
@.str.125 = private unnamed_addr constant [9 x i8] c"ENETDOWN\00", align 1, !dbg !336
@.str.126 = private unnamed_addr constant [12 x i8] c"ENETUNREACH\00", align 1, !dbg !338
@.str.127 = private unnamed_addr constant [10 x i8] c"ENETRESET\00", align 1, !dbg !340
@.str.128 = private unnamed_addr constant [13 x i8] c"ECONNABORTED\00", align 1, !dbg !342
@.str.129 = private unnamed_addr constant [11 x i8] c"ECONNRESET\00", align 1, !dbg !344
@.str.130 = private unnamed_addr constant [8 x i8] c"ENOBUFS\00", align 1, !dbg !346
@.str.131 = private unnamed_addr constant [8 x i8] c"EISCONN\00", align 1, !dbg !348
@.str.132 = private unnamed_addr constant [9 x i8] c"ENOTCONN\00", align 1, !dbg !350
@.str.133 = private unnamed_addr constant [10 x i8] c"ESHUTDOWN\00", align 1, !dbg !352
@.str.134 = private unnamed_addr constant [13 x i8] c"ETOOMANYREFS\00", align 1, !dbg !354
@.str.135 = private unnamed_addr constant [10 x i8] c"ETIMEDOUT\00", align 1, !dbg !356
@.str.136 = private unnamed_addr constant [13 x i8] c"ECONNREFUSED\00", align 1, !dbg !358
@.str.137 = private unnamed_addr constant [10 x i8] c"EHOSTDOWN\00", align 1, !dbg !360
@.str.138 = private unnamed_addr constant [13 x i8] c"EHOSTUNREACH\00", align 1, !dbg !362
@.str.139 = private unnamed_addr constant [9 x i8] c"EALREADY\00", align 1, !dbg !364
@.str.140 = private unnamed_addr constant [12 x i8] c"EINPROGRESS\00", align 1, !dbg !366
@.str.141 = private unnamed_addr constant [7 x i8] c"ESTALE\00", align 1, !dbg !368
@.str.142 = private unnamed_addr constant [8 x i8] c"EUCLEAN\00", align 1, !dbg !370
@.str.143 = private unnamed_addr constant [8 x i8] c"ENOTNAM\00", align 1, !dbg !372
@.str.144 = private unnamed_addr constant [8 x i8] c"ENAVAIL\00", align 1, !dbg !374
@.str.145 = private unnamed_addr constant [7 x i8] c"EISNAM\00", align 1, !dbg !376
@.str.146 = private unnamed_addr constant [10 x i8] c"EREMOTEIO\00", align 1, !dbg !378
@.str.147 = private unnamed_addr constant [7 x i8] c"EDQUOT\00", align 1, !dbg !380
@.str.148 = private unnamed_addr constant [10 x i8] c"ENOMEDIUM\00", align 1, !dbg !382
@.str.149 = private unnamed_addr constant [12 x i8] c"EMEDIUMTYPE\00", align 1, !dbg !384
@.str.150 = private unnamed_addr constant [10 x i8] c"ECANCELED\00", align 1, !dbg !386
@.str.151 = private unnamed_addr constant [7 x i8] c"ENOKEY\00", align 1, !dbg !388
@.str.152 = private unnamed_addr constant [12 x i8] c"EKEYEXPIRED\00", align 1, !dbg !390
@.str.153 = private unnamed_addr constant [12 x i8] c"EKEYREVOKED\00", align 1, !dbg !392
@.str.154 = private unnamed_addr constant [13 x i8] c"EKEYREJECTED\00", align 1, !dbg !394
@.str.155 = private unnamed_addr constant [11 x i8] c"EOWNERDEAD\00", align 1, !dbg !396
@.str.156 = private unnamed_addr constant [16 x i8] c"ENOTRECOVERABLE\00", align 1, !dbg !398
@.str.157 = private unnamed_addr constant [8 x i8] c"ERFKILL\00", align 1, !dbg !400
@.str.158 = private unnamed_addr constant [10 x i8] c"EHWPOISON\00", align 1, !dbg !402
@_ZZNSt8__detail18__to_chars_10_implIjEEvPcjT_E8__digits = linkonce_odr dso_local constant [201 x i8] c"00010203040506070809101112131415161718192021222324252627282930313233343536373839404142434445464748495051525354555657585960616263646566676869707172737475767778798081828384858687888990919293949596979899\00", comdat, align 16, !dbg !404
@__libc_single_threaded = external global i8, align 1
@.str.159 = private unnamed_addr constant [42 x i8] c"basic_string::_M_construct null not valid\00", align 1, !dbg !4152
@_ZTVSt23_Sp_counted_ptr_inplaceI15SslStreamSocketSaIS0_ELN9__gnu_cxx12_Lock_policyE2EE = linkonce_odr dso_local unnamed_addr constant { [7 x ptr] } { [7 x ptr] [ptr null, ptr @_ZTISt23_Sp_counted_ptr_inplaceI15SslStreamSocketSaIS0_ELN9__gnu_cxx12_Lock_policyE2EE, ptr @_ZNSt23_Sp_counted_ptr_inplaceI15SslStreamSocketSaIS0_ELN9__gnu_cxx12_Lock_policyE2EED2Ev, ptr @_ZNSt23_Sp_counted_ptr_inplaceI15SslStreamSocketSaIS0_ELN9__gnu_cxx12_Lock_policyE2EED0Ev, ptr @_ZNSt23_Sp_counted_ptr_inplaceI15SslStreamSocketSaIS0_ELN9__gnu_cxx12_Lock_policyE2EE10_M_disposeEv, ptr @_ZNSt23_Sp_counted_ptr_inplaceI15SslStreamSocketSaIS0_ELN9__gnu_cxx12_Lock_policyE2EE10_M_destroyEv, ptr @_ZNSt23_Sp_counted_ptr_inplaceI15SslStreamSocketSaIS0_ELN9__gnu_cxx12_Lock_policyE2EE14_M_get_deleterERKSt9type_info] }, comdat, align 8
@_ZTSSt23_Sp_counted_ptr_inplaceI15SslStreamSocketSaIS0_ELN9__gnu_cxx12_Lock_policyE2EE = linkonce_odr dso_local constant [83 x i8] c"St23_Sp_counted_ptr_inplaceI15SslStreamSocketSaIS0_ELN9__gnu_cxx12_Lock_policyE2EE\00", comdat, align 1
@_ZTSSt16_Sp_counted_baseILN9__gnu_cxx12_Lock_policyE2EE = linkonce_odr dso_local constant [52 x i8] c"St16_Sp_counted_baseILN9__gnu_cxx12_Lock_policyE2EE\00", comdat, align 1
@_ZTVN10__cxxabiv117__class_type_infoE = external global ptr
@_ZTSSt11_Mutex_baseILN9__gnu_cxx12_Lock_policyE2EE = linkonce_odr dso_local constant [47 x i8] c"St11_Mutex_baseILN9__gnu_cxx12_Lock_policyE2EE\00", comdat, align 1
@_ZTISt11_Mutex_baseILN9__gnu_cxx12_Lock_policyE2EE = linkonce_odr dso_local constant { ptr, ptr } { ptr getelementptr inbounds (ptr, ptr @_ZTVN10__cxxabiv117__class_type_infoE, i64 2), ptr @_ZTSSt11_Mutex_baseILN9__gnu_cxx12_Lock_policyE2EE }, comdat, align 8
@_ZTISt16_Sp_counted_baseILN9__gnu_cxx12_Lock_policyE2EE = linkonce_odr dso_local constant { ptr, ptr, ptr } { ptr getelementptr inbounds (ptr, ptr @_ZTVN10__cxxabiv120__si_class_type_infoE, i64 2), ptr @_ZTSSt16_Sp_counted_baseILN9__gnu_cxx12_Lock_policyE2EE, ptr @_ZTISt11_Mutex_baseILN9__gnu_cxx12_Lock_policyE2EE }, comdat, align 8
@_ZTISt23_Sp_counted_ptr_inplaceI15SslStreamSocketSaIS0_ELN9__gnu_cxx12_Lock_policyE2EE = linkonce_odr dso_local constant { ptr, ptr, ptr } { ptr getelementptr inbounds (ptr, ptr @_ZTVN10__cxxabiv120__si_class_type_infoE, i64 2), ptr @_ZTSSt23_Sp_counted_ptr_inplaceI15SslStreamSocketSaIS0_ELN9__gnu_cxx12_Lock_policyE2EE, ptr @_ZTISt16_Sp_counted_baseILN9__gnu_cxx12_Lock_policyE2EE }, comdat, align 8
@_ZTVSt16_Sp_counted_baseILN9__gnu_cxx12_Lock_policyE2EE = linkonce_odr dso_local unnamed_addr constant { [7 x ptr] } { [7 x ptr] [ptr null, ptr @_ZTISt16_Sp_counted_baseILN9__gnu_cxx12_Lock_policyE2EE, ptr @_ZNSt16_Sp_counted_baseILN9__gnu_cxx12_Lock_policyE2EED2Ev, ptr @_ZNSt16_Sp_counted_baseILN9__gnu_cxx12_Lock_policyE2EED0Ev, ptr @__cxa_pure_virtual, ptr @_ZNSt16_Sp_counted_baseILN9__gnu_cxx12_Lock_policyE2EE10_M_destroyEv, ptr @__cxa_pure_virtual] }, comdat, align 8
@_ZTV15SslStreamSocket = linkonce_odr dso_local unnamed_addr constant { [15 x ptr] } { [15 x ptr] [ptr null, ptr @_ZTI15SslStreamSocket, ptr @_ZN15SslStreamSocketD2Ev, ptr @_ZN15SslStreamSocketD0Ev, ptr @_ZN12StreamSocket8shutdownEv, ptr @_ZN15SslStreamSocket13getPollEventsENSt6chrono10time_pointINS0_3_V212steady_clockENS0_8durationIlSt5ratioILl1ELl1000000000EEEEEERl, ptr @_ZN12StreamSocket10handlePollER17SocketDispositionNSt6chrono10time_pointINS2_3_V212steady_clockENS2_8durationIlSt5ratioILl1ELl1000000000EEEEEEi, ptr @_ZNK12StreamSocket11hasBufferedEv, ptr @_ZN12StreamSocket9dumpStateERSo, ptr @_ZN12StreamSocket11ignoreInputEv, ptr @_ZN15SslStreamSocket15closeConnectionEv, ptr @_ZN15SslStreamSocket16readIncomingDataEv, ptr @_ZN15SslStreamSocket17writeOutgoingDataEv, ptr @_ZN15SslStreamSocket8readDataEPci, ptr @_ZN15SslStreamSocket9writeDataEPKci] }, comdat, align 8
@.str.160 = private unnamed_addr constant [23 x i8] c"SslStreamSocket ctor #\00", align 1, !dbg !4157
@.str.161 = private unnamed_addr constant [20 x i8] c"./net/SslSocket.hpp\00", align 1, !dbg !4159
@.str.162 = private unnamed_addr constant [26 x i8] c"Failed to create SSL BIO.\00", align 1, !dbg !4164
@_ZTISt13runtime_error = external constant ptr
@.str.163 = private unnamed_addr constant [22 x i8] c"Failed to create SSL.\00", align 1, !dbg !4169
@.str.164 = private unnamed_addr constant [52 x i8] c"Failed to set hostname for Server Name Indication [\00", align 1, !dbg !4171
@.str.165 = private unnamed_addr constant [26 x i8] c"SslStreamSocket connect #\00", align 1, !dbg !4176
@.str.166 = private unnamed_addr constant [9 x i8] c" failed \00", align 1, !dbg !4178
@_ZTS15SslStreamSocket = linkonce_odr dso_local constant [18 x i8] c"15SslStreamSocket\00", comdat, align 1
@_ZTI12StreamSocket = external constant ptr
@_ZTI15SslStreamSocket = linkonce_odr dso_local constant { ptr, ptr, ptr } { ptr getelementptr inbounds (ptr, ptr @_ZTVN10__cxxabiv120__si_class_type_infoE, i64 2), ptr @_ZTS15SslStreamSocket, ptr @_ZTI12StreamSocket }, comdat, align 8
@_ZTV12StreamSocket = external unnamed_addr constant { [15 x ptr] }, align 8
@.str.167 = private unnamed_addr constant [20 x i8] c"StreamSocket ctor #\00", align 1, !dbg !4180
@.str.168 = private unnamed_addr constant [17 x i8] c"./net/Socket.hpp\00", align 1, !dbg !4182
@.str.169 = private unnamed_addr constant [53 x i8] c"StreamSocket expects a valid SocketHandler instance.\00", align 1, !dbg !4187
@_ZTV6Socket = linkonce_odr dso_local unnamed_addr constant { [10 x ptr] } { [10 x ptr] [ptr null, ptr @_ZTI6Socket, ptr @_ZN6SocketD2Ev, ptr @_ZN6SocketD0Ev, ptr @_ZN6Socket8shutdownEv, ptr @__cxa_pure_virtual, ptr @__cxa_pure_virtual, ptr @_ZNK6Socket11hasBufferedEv, ptr @_ZN6Socket9dumpStateERSo, ptr @_ZN6Socket11ignoreInputEv] }, comdat, align 8
@_ZTS6Socket = linkonce_odr dso_local constant [8 x i8] c"6Socket\00", comdat, align 1
@_ZTI6Socket = linkonce_odr dso_local constant { ptr, ptr } { ptr getelementptr inbounds (ptr, ptr @_ZTVN10__cxxabiv117__class_type_infoE, i64 2), ptr @_ZTS6Socket }, comdat, align 8
@.str.170 = private unnamed_addr constant [41 x i8] c" Created socket. Thread affinity set to \00", align 1, !dbg !4192
@.str.171 = private unnamed_addr constant [3 x i8] c"0x\00", align 1, !dbg !4197
@.str.172 = private unnamed_addr constant [2 x i8] c"0\00", align 1, !dbg !4199
@.str.173 = private unnamed_addr constant [37 x i8] c"thread::id of a non-executing thread\00", align 1, !dbg !4204
@.str.174 = private unnamed_addr constant [24 x i8] c": socket shutdown RDWR.\00", align 1, !dbg !4210
@.str.175 = private unnamed_addr constant [34 x i8] c": ignore further input on socket.\00", align 1, !dbg !4212
@.str.176 = private unnamed_addr constant [14 x i8] c" Socket dtor.\00", align 1, !dbg !4217
@_ZN3ssl7Manager14ClientInstanceE = external global %"class.std::unique_ptr", align 8
@_ZN3ssl7Manager14ServerInstanceE = external global %"class.std::unique_ptr", align 8
@.str.177 = private unnamed_addr constant [20 x i8] c"StreamSocket dtor #\00", align 1, !dbg !4219
@.str.178 = private unnamed_addr constant [22 x i8] c" with pending write: \00", align 1, !dbg !4221
@.str.179 = private unnamed_addr constant [9 x i8] c", read: \00", align 1, !dbg !4223
@_ZN6Socket19InhibitThreadChecksE = external global %"struct.std::atomic.19", align 1
@.str.180 = private unnamed_addr constant [41 x i8] c" Invoked from foreign thread. Expected: \00", align 1, !dbg !4225
@.str.181 = private unnamed_addr constant [18 x i8] c" but called from \00", align 1, !dbg !4227
@.str.182 = private unnamed_addr constant [2 x i8] c")\00", align 1, !dbg !4232
@.str.183 = private unnamed_addr constant [2 x i8] c":\00", align 1, !dbg !4234
@.str.184 = private unnamed_addr constant [23 x i8] c"SslStreamSocket dtor #\00", align 1, !dbg !4236
@.str.185 = private unnamed_addr constant [28 x i8] c": Async shutdown requested.\00", align 1, !dbg !4238
@.str.186 = private unnamed_addr constant [24 x i8] c": Incoming data buffer \00", align 1, !dbg !4243
@.str.187 = private unnamed_addr constant [22 x i8] c" bytes, closeSocket? \00", align 1, !dbg !4245
@.str.188 = private unnamed_addr constant [11 x i8] c", events: \00", align 1, !dbg !4247
@.str.189 = private unnamed_addr constant [39 x i8] c": Shutdown Signaled. Close Connection.\00", align 1, !dbg !4249
@.str.190 = private unnamed_addr constant [38 x i8] c": Disconnected while writing (EPIPE).\00", align 1, !dbg !4251
@.str.191 = private unnamed_addr constant [31 x i8] c": Closed. Firing onDisconnect.\00", align 1, !dbg !4256
@.str.192 = private unnamed_addr constant [37 x i8] c"SslStreamSocket::closeConnection() #\00", align 1, !dbg !4261
@.str.193 = private unnamed_addr constant [38 x i8] c"Failed to verify the certificate of [\00", align 1, !dbg !4263
@.str.194 = private unnamed_addr constant [9 x i8] c"Socket #\00", align 1, !dbg !4265
@.str.195 = private unnamed_addr constant [26 x i8] c" SSL error: ZERO_RETURN (\00", align 1, !dbg !4267
@.str.196 = private unnamed_addr constant [3 x i8] c").\00", align 1, !dbg !4269
@.str.197 = private unnamed_addr constant [24 x i8] c" SSL error: WANT_READ (\00", align 1, !dbg !4271
@.str.198 = private unnamed_addr constant [15 x i8] c") has_pending \00", align 1, !dbg !4273
@.str.199 = private unnamed_addr constant [9 x i8] c" bytes: \00", align 1, !dbg !4275
@.str.200 = private unnamed_addr constant [2 x i8] c".\00", align 1, !dbg !4277
@.str.201 = private unnamed_addr constant [25 x i8] c" SSL error: WANT_WRITE (\00", align 1, !dbg !4279
@.str.202 = private unnamed_addr constant [27 x i8] c" SSL error: WANT_CONNECT (\00", align 1, !dbg !4284
@.str.203 = private unnamed_addr constant [26 x i8] c" SSL error: WANT_ACCEPT (\00", align 1, !dbg !4289
@.str.204 = private unnamed_addr constant [31 x i8] c" SSL error: WANT_X509_LOOKUP (\00", align 1, !dbg !4291
@.str.205 = private unnamed_addr constant [22 x i8] c" SSL error: SYSCALL (\00", align 1, !dbg !4293
@.str.206 = private unnamed_addr constant [42 x i8] c" BIO asks for retry - underlying EAGAIN? \00", align 1, !dbg !4295
@.str.207 = private unnamed_addr constant [14 x i8] c" has_pending \00", align 1, !dbg !4297
@.str.208 = private unnamed_addr constant [18 x i8] c" SSL error: SSL (\00", align 1, !dbg !4299
@.str.209 = private unnamed_addr constant [22 x i8] c" SSL error: UNKNOWN (\00", align 1, !dbg !4301
@.str.210 = private unnamed_addr constant [4 x i8] c"INF\00", align 1, !dbg !4303
@.str.211 = private unnamed_addr constant [28 x i8] c" SSL BIO error: closed (0).\00", align 1, !dbg !4305
@.str.212 = private unnamed_addr constant [41 x i8] c" SSL BIO error: closed unexpectedly (-1)\00", align 1, !dbg !4307
@.str.213 = private unnamed_addr constant [32 x i8] c"SSL Socket closed unexpectedly.\00", align 1, !dbg !4309
@.str.214 = private unnamed_addr constant [26 x i8] c" SSL BIO error: unknown (\00", align 1, !dbg !4314
@.str.215 = private unnamed_addr constant [25 x i8] c"SSL BIO reported error [\00", align 1, !dbg !4316
@.str.216 = private unnamed_addr constant [17 x i8] c" SSL BIO error: \00", align 1, !dbg !4318
@.str.217 = private unnamed_addr constant [30 x i8] c"Ignoring attempted read from \00", align 1, !dbg !4320
@.str.218 = private unnamed_addr constant [22 x i8] c": Read incoming data \00", align 1, !dbg !4325
@.str.219 = private unnamed_addr constant [23 x i8] c" bytes in addition to \00", align 1, !dbg !4327
@.str.220 = private unnamed_addr constant [18 x i8] c" buffered bytes (\00", align 1, !dbg !4329
@.str.221 = private unnamed_addr constant [24 x i8] c": Socket read returned \00", align 1, !dbg !4331
@.str.222 = private unnamed_addr constant [20 x i8] c" readIncomingData: \00", align 1, !dbg !4333
@.str.223 = private unnamed_addr constant [24 x i8] c"vector::_M_range_insert\00", align 1, !dbg !4335
@.str.224 = private unnamed_addr constant [23 x i8] c": Wrote outgoing data \00", align 1, !dbg !4338
@.str.225 = private unnamed_addr constant [11 x i8] c" bytes of \00", align 1, !dbg !4340
@.str.226 = private unnamed_addr constant [25 x i8] c": Socket write returned \00", align 1, !dbg !4342
@_ZTSSt19_Sp_make_shared_tag = linkonce_odr dso_local constant [24 x i8] c"St19_Sp_make_shared_tag\00", comdat, align 1
@_ZTISt19_Sp_make_shared_tag = linkonce_odr dso_local constant { ptr, ptr } { ptr getelementptr inbounds (ptr, ptr @_ZTVN10__cxxabiv117__class_type_infoE, i64 2), ptr @_ZTSSt19_Sp_make_shared_tag }, comdat, align 8
@_ZZNSt19_Sp_make_shared_tag5_S_tiEvE5__tag = linkonce_odr dso_local constant [16 x i8] zeroinitializer, comdat, align 8, !dbg !4344
@_ZTVSt23_Sp_counted_ptr_inplaceI12StreamSocketSaIS0_ELN9__gnu_cxx12_Lock_policyE2EE = linkonce_odr dso_local unnamed_addr constant { [7 x ptr] } { [7 x ptr] [ptr null, ptr @_ZTISt23_Sp_counted_ptr_inplaceI12StreamSocketSaIS0_ELN9__gnu_cxx12_Lock_policyE2EE, ptr @_ZNSt23_Sp_counted_ptr_inplaceI12StreamSocketSaIS0_ELN9__gnu_cxx12_Lock_policyE2EED2Ev, ptr @_ZNSt23_Sp_counted_ptr_inplaceI12StreamSocketSaIS0_ELN9__gnu_cxx12_Lock_policyE2EED0Ev, ptr @_ZNSt23_Sp_counted_ptr_inplaceI12StreamSocketSaIS0_ELN9__gnu_cxx12_Lock_policyE2EE10_M_disposeEv, ptr @_ZNSt23_Sp_counted_ptr_inplaceI12StreamSocketSaIS0_ELN9__gnu_cxx12_Lock_policyE2EE10_M_destroyEv, ptr @_ZNSt23_Sp_counted_ptr_inplaceI12StreamSocketSaIS0_ELN9__gnu_cxx12_Lock_policyE2EE14_M_get_deleterERKSt9type_info] }, comdat, align 8
@_ZTSSt23_Sp_counted_ptr_inplaceI12StreamSocketSaIS0_ELN9__gnu_cxx12_Lock_policyE2EE = linkonce_odr dso_local constant [80 x i8] c"St23_Sp_counted_ptr_inplaceI12StreamSocketSaIS0_ELN9__gnu_cxx12_Lock_policyE2EE\00", comdat, align 1
@_ZTISt23_Sp_counted_ptr_inplaceI12StreamSocketSaIS0_ELN9__gnu_cxx12_Lock_policyE2EE = linkonce_odr dso_local constant { ptr, ptr, ptr } { ptr getelementptr inbounds (ptr, ptr @_ZTVN10__cxxabiv120__si_class_type_infoE, i64 2), ptr @_ZTSSt23_Sp_counted_ptr_inplaceI12StreamSocketSaIS0_ELN9__gnu_cxx12_Lock_policyE2EE, ptr @_ZTISt16_Sp_counted_baseILN9__gnu_cxx12_Lock_policyE2EE }, comdat, align 8
@llvm.global_ctors = appending global [1 x { i32, ptr, ptr }] [{ i32, ptr, ptr } { i32 65535, ptr @_GLOBAL__sub_I_NetUtil.cpp, ptr null }]

; Function Attrs: noinline uwtable
define internal void @__cxx_global_var_init() #0 section ".text.startup" !dbg !5412 {
  call void @_ZNSt8ios_base4InitC1Ev(ptr noundef nonnull align 1 dereferenceable(1) @_ZStL8__ioinit), !dbg !5413
  %1 = call i32 @__cxa_atexit(ptr @_ZNSt8ios_base4InitD1Ev, ptr @_ZStL8__ioinit, ptr @__dso_handle) #3, !dbg !5415
  ret void, !dbg !5413
}

declare void @_ZNSt8ios_base4InitC1Ev(ptr noundef nonnull align 1 dereferenceable(1)) unnamed_addr #1

; Function Attrs: nounwind
declare void @_ZNSt8ios_base4InitD1Ev(ptr noundef nonnull align 1 dereferenceable(1)) unnamed_addr #2

; Function Attrs: nounwind
declare i32 @__cxa_atexit(ptr, ptr, ptr) #3

; Function Attrs: noinline uwtable
define internal void @__cxx_global_var_init.1() #0 section ".text.startup" !dbg !5416 {
  call void @_ZN3Log11_end_markerC2Ev(ptr noundef nonnull align 1 dereferenceable(1) @_ZN3LogL3endE), !dbg !5417
  ret void, !dbg !5417
}

; Function Attrs: noinline nounwind optnone uwtable
define linkonce_odr dso_local void @_ZN3Log11_end_markerC2Ev(ptr noundef nonnull align 1 dereferenceable(1) %0) unnamed_addr #4 comdat align 2 !dbg !5419 {
  %2 = alloca ptr, align 8
  store ptr %0, ptr %2, align 8
  call void @llvm.dbg.declare(metadata ptr %2, metadata !5420, metadata !DIExpression()), !dbg !5422
  %3 = load ptr, ptr %2, align 8
  ret void, !dbg !5423
}

; Function Attrs: mustprogress noinline optnone uwtable
define linkonce_odr dso_local void @_ZNK4Poco3Net4Impl21IPv4SocketAddressImpl4hostEv(ptr noalias sret(%"class.Poco::Net::IPAddress") align 8 %0, ptr noundef nonnull align 8 dereferenceable(28) %1) unnamed_addr #5 comdat align 2 !dbg !5424 {
  %3 = alloca ptr, align 8
  %4 = alloca ptr, align 8
  store ptr %0, ptr %3, align 8
  store ptr %1, ptr %4, align 8
  call void @llvm.dbg.declare(metadata ptr %4, metadata !5487, metadata !DIExpression()), !dbg !5489
  %5 = load ptr, ptr %4, align 8
  %6 = getelementptr inbounds %"class.Poco::Net::Impl::IPv4SocketAddressImpl", ptr %5, i32 0, i32 1, !dbg !5490
  %7 = getelementptr inbounds %struct.sockaddr_in, ptr %6, i32 0, i32 2, !dbg !5491
  call void @_ZN4Poco3Net9IPAddressC1EPKvj(ptr noundef nonnull align 8 dereferenceable(8) %0, ptr noundef %7, i32 noundef 4), !dbg !5492
  ret void, !dbg !5493
}

; Function Attrs: nocallback nofree nosync nounwind speculatable willreturn memory(none)
declare void @llvm.dbg.declare(metadata, metadata, metadata) #6

declare void @_ZN4Poco3Net9IPAddressC1EPKvj(ptr noundef nonnull align 8 dereferenceable(8), ptr noundef, i32 noundef) unnamed_addr #1

; Function Attrs: mustprogress noinline optnone uwtable
define linkonce_odr dso_local void @_ZNK4Poco3Net4Impl21IPv6SocketAddressImpl4hostEv(ptr noalias sret(%"class.Poco::Net::IPAddress") align 8 %0, ptr noundef nonnull align 8 dereferenceable(40) %1) unnamed_addr #5 comdat align 2 !dbg !5494 {
  %3 = alloca ptr, align 8
  %4 = alloca ptr, align 8
  store ptr %0, ptr %3, align 8
  store ptr %1, ptr %4, align 8
  call void @llvm.dbg.declare(metadata ptr %4, metadata !5553, metadata !DIExpression()), !dbg !5555
  %5 = load ptr, ptr %4, align 8
  %6 = getelementptr inbounds %"class.Poco::Net::Impl::IPv6SocketAddressImpl", ptr %5, i32 0, i32 1, !dbg !5556
  %7 = getelementptr inbounds %struct.sockaddr_in6, ptr %6, i32 0, i32 3, !dbg !5557
  %8 = getelementptr inbounds %"class.Poco::Net::Impl::IPv6SocketAddressImpl", ptr %5, i32 0, i32 1, !dbg !5558
  %9 = getelementptr inbounds %struct.sockaddr_in6, ptr %8, i32 0, i32 4, !dbg !5559
  %10 = load i32, ptr %9, align 4, !dbg !5559
  call void @_ZN4Poco3Net9IPAddressC1EPKvjj(ptr noundef nonnull align 8 dereferenceable(8) %0, ptr noundef %7, i32 noundef 16, i32 noundef %10), !dbg !5560
  ret void, !dbg !5561
}

declare void @_ZN4Poco3Net9IPAddressC1EPKvjj(ptr noundef nonnull align 8 dereferenceable(8), ptr noundef, i32 noundef, i32 noundef) unnamed_addr #1

; Function Attrs: mustprogress noinline optnone uwtable
define dso_local void @_ZN3net18resolveHostAddressERKNSt7__cxx1112basic_stringIcSt11char_traitsIcESaIcEEE(ptr noalias sret(%"class.std::__cxx11::basic_string") align 8 %0, ptr noundef nonnull align 8 dereferenceable(32) %1) #5 personality ptr @__gxx_personality_v0 !dbg !5562 {
  %3 = alloca ptr, align 8
  %4 = alloca ptr, align 8
  %5 = alloca %"class.Poco::Net::IPAddress", align 8
  %6 = alloca ptr, align 8
  %7 = alloca i32, align 4
  %8 = alloca ptr, align 8
  %9 = alloca ptr, align 8
  %10 = alloca [1024 x i8], align 16
  %11 = alloca %"class.std::__cxx11::basic_ostringstream", align 8
  %12 = alloca %"class.std::__cxx11::basic_string", align 8
  %13 = alloca %"class.std::allocator", align 1
  %14 = alloca %"class.std::__cxx11::basic_string", align 8
  %15 = alloca %"class.Poco::Message", align 8
  %16 = alloca %"class.std::__cxx11::basic_string", align 8
  %17 = alloca %"class.Poco::Net::IPAddress", align 8
  %18 = alloca i32, align 4
  %19 = alloca ptr, align 8
  %20 = alloca ptr, align 8
  %21 = alloca [1024 x i8], align 16
  %22 = alloca %"class.std::__cxx11::basic_ostringstream", align 8
  %23 = alloca %"class.std::__cxx11::basic_string", align 8
  %24 = alloca %"class.std::allocator", align 1
  %25 = alloca %"class.std::__cxx11::basic_string", align 8
  %26 = alloca %"class.Poco::Message", align 8
  %27 = alloca %"class.std::__cxx11::basic_string", align 8
  store ptr %0, ptr %3, align 8
  store ptr %1, ptr %4, align 8
  call void @llvm.dbg.declare(metadata ptr %4, metadata !5566, metadata !DIExpression()), !dbg !5567
  %28 = load ptr, ptr %4, align 8, !dbg !5568
  invoke void @_ZN4Poco3Net3DNS10resolveOneERKNSt7__cxx1112basic_stringIcSt11char_traitsIcESaIcEEE(ptr sret(%"class.Poco::Net::IPAddress") align 8 %5, ptr noundef nonnull align 8 dereferenceable(32) %28)
          to label %29 unwind label %31, !dbg !5570

29:                                               ; preds = %2
  invoke void @_ZNK4Poco3Net9IPAddress8toStringB5cxx11Ev(ptr sret(%"class.std::__cxx11::basic_string") align 8 %0, ptr noundef nonnull align 8 dereferenceable(8) %5)
          to label %30 unwind label %35, !dbg !5571

30:                                               ; preds = %29
  call void @_ZN4Poco3Net9IPAddressD1Ev(ptr noundef nonnull align 8 dereferenceable(8) %5) #3, !dbg !5572
  br label %245, !dbg !5572

31:                                               ; preds = %2
  %32 = landingpad { ptr, i32 }
          catch ptr @_ZTIN4Poco9ExceptionE, !dbg !5573
  %33 = extractvalue { ptr, i32 } %32, 0, !dbg !5573
  store ptr %33, ptr %6, align 8, !dbg !5573
  %34 = extractvalue { ptr, i32 } %32, 1, !dbg !5573
  store i32 %34, ptr %7, align 4, !dbg !5573
  br label %39, !dbg !5573

35:                                               ; preds = %29
  %36 = landingpad { ptr, i32 }
          cleanup
          catch ptr @_ZTIN4Poco9ExceptionE, !dbg !5573
  %37 = extractvalue { ptr, i32 } %36, 0, !dbg !5573
  store ptr %37, ptr %6, align 8, !dbg !5573
  %38 = extractvalue { ptr, i32 } %36, 1, !dbg !5573
  store i32 %38, ptr %7, align 4, !dbg !5573
  call void @_ZN4Poco3Net9IPAddressD1Ev(ptr noundef nonnull align 8 dereferenceable(8) %5) #3, !dbg !5572
  br label %39, !dbg !5572

39:                                               ; preds = %35, %31
  %40 = load i32, ptr %7, align 4, !dbg !5574
  %41 = call i32 @llvm.eh.typeid.for(ptr @_ZTIN4Poco9ExceptionE) #3, !dbg !5574
  %42 = icmp eq i32 %40, %41, !dbg !5574
  br i1 %42, label %43, label %246, !dbg !5574

43:                                               ; preds = %39
  call void @llvm.dbg.declare(metadata ptr %8, metadata !5575, metadata !DIExpression()), !dbg !5580
  %44 = load ptr, ptr %6, align 8, !dbg !5574
  %45 = call ptr @__cxa_begin_catch(ptr %44) #3, !dbg !5574
  store ptr %45, ptr %8, align 8, !dbg !5574
  br label %46, !dbg !5581

46:                                               ; preds = %43
  call void @llvm.dbg.declare(metadata ptr %9, metadata !5583, metadata !DIExpression()), !dbg !5588
  %47 = invoke noundef nonnull align 8 dereferenceable(68) ptr @_ZN3Log6loggerEv()
          to label %48 unwind label %97, !dbg !5588

48:                                               ; preds = %46
  store ptr %47, ptr %9, align 8, !dbg !5588
  %49 = invoke noundef zeroext i1 @_ZN3Log16isShutdownCalledEv()
          to label %50 unwind label %97, !dbg !5589

50:                                               ; preds = %48
  br i1 %49, label %128, label %51, !dbg !5589

51:                                               ; preds = %50
  %52 = load ptr, ptr %9, align 8, !dbg !5589
  %53 = invoke noundef zeroext i1 @_ZNK4Poco6Logger7warningEv(ptr noundef nonnull align 8 dereferenceable(68) %52)
          to label %54 unwind label %97, !dbg !5589

54:                                               ; preds = %51
  br i1 %53, label %55, label %128, !dbg !5588

55:                                               ; preds = %54
  call void @llvm.dbg.declare(metadata ptr %10, metadata !5591, metadata !DIExpression()), !dbg !5596
  call void @llvm.dbg.declare(metadata ptr %11, metadata !5597, metadata !DIExpression()), !dbg !5596
  %56 = getelementptr inbounds [1024 x i8], ptr %10, i64 0, i64 0, !dbg !5596
  %57 = invoke noundef ptr @_ZN3Log6prefixILi1023EEEPcS1_PKc(ptr noundef %56, ptr noundef @.str)
          to label %58 unwind label %97, !dbg !5596

58:                                               ; preds = %55
  call void @_ZNSaIcEC1Ev(ptr noundef nonnull align 1 dereferenceable(1) %13) #3, !dbg !5596
  invoke void @_ZNSt7__cxx1112basic_stringIcSt11char_traitsIcESaIcEEC2IS3_EEPKcRKS3_(ptr noundef nonnull align 8 dereferenceable(32) %12, ptr noundef %57, ptr noundef nonnull align 1 dereferenceable(1) %13)
          to label %59 unwind label %101, !dbg !5596

59:                                               ; preds = %58
  invoke void @_ZNSt7__cxx1119basic_ostringstreamIcSt11char_traitsIcESaIcEEC1ERKNS_12basic_stringIcS2_S3_EESt13_Ios_Openmode(ptr noundef nonnull align 8 dereferenceable(112) %11, ptr noundef nonnull align 8 dereferenceable(32) %12, i32 noundef 2)
          to label %60 unwind label %105, !dbg !5596

60:                                               ; preds = %59
  call void @_ZNSt7__cxx1112basic_stringIcSt11char_traitsIcESaIcEED1Ev(ptr noundef nonnull align 8 dereferenceable(32) %12) #3, !dbg !5596
  call void @_ZNSaIcED1Ev(ptr noundef nonnull align 1 dereferenceable(1) %13) #3, !dbg !5596
  %61 = invoke noundef nonnull align 8 dereferenceable(8) ptr @_ZNSolsEPFRSt8ios_baseS0_E(ptr noundef nonnull align 8 dereferenceable(8) %11, ptr noundef @_ZSt9boolalphaRSt8ios_base)
          to label %62 unwind label %110, !dbg !5596

62:                                               ; preds = %60
  %63 = invoke noundef nonnull align 8 dereferenceable(8) ptr @_ZStlsISt11char_traitsIcEERSt13basic_ostreamIcT_ES5_PKc(ptr noundef nonnull align 8 dereferenceable(8) %61, ptr noundef @.str.2)
          to label %64 unwind label %110, !dbg !5596

64:                                               ; preds = %62
  %65 = load ptr, ptr %4, align 8, !dbg !5596
  %66 = invoke noundef nonnull align 8 dereferenceable(8) ptr @_ZStlsIcSt11char_traitsIcESaIcEERSt13basic_ostreamIT_T0_ES7_RKNSt7__cxx1112basic_stringIS4_S5_T1_EE(ptr noundef nonnull align 8 dereferenceable(8) %63, ptr noundef nonnull align 8 dereferenceable(32) %65)
          to label %67 unwind label %110, !dbg !5596

67:                                               ; preds = %64
  %68 = invoke noundef nonnull align 8 dereferenceable(8) ptr @_ZStlsISt11char_traitsIcEERSt13basic_ostreamIcT_ES5_PKc(ptr noundef nonnull align 8 dereferenceable(8) %66, ptr noundef @.str.3)
          to label %69 unwind label %110, !dbg !5596

69:                                               ; preds = %67
  %70 = load ptr, ptr %8, align 8, !dbg !5596
  invoke void @_ZNK4Poco9Exception11displayTextB5cxx11Ev(ptr sret(%"class.std::__cxx11::basic_string") align 8 %14, ptr noundef nonnull align 8 dereferenceable(52) %70)
          to label %71 unwind label %110, !dbg !5596

71:                                               ; preds = %69
  %72 = invoke noundef nonnull align 8 dereferenceable(8) ptr @_ZStlsIcSt11char_traitsIcESaIcEERSt13basic_ostreamIT_T0_ES7_RKNSt7__cxx1112basic_stringIS4_S5_T1_EE(ptr noundef nonnull align 8 dereferenceable(8) %68, ptr noundef nonnull align 8 dereferenceable(32) %14)
          to label %73 unwind label %114, !dbg !5596

73:                                               ; preds = %71
  call void @_ZNSt7__cxx1112basic_stringIcSt11char_traitsIcESaIcEED1Ev(ptr noundef nonnull align 8 dereferenceable(32) %14) #3, !dbg !5596
  br label %74, !dbg !5596

74:                                               ; preds = %73
  %75 = invoke noundef nonnull align 8 dereferenceable(8) ptr @_ZStlsISt11char_traitsIcEERSt13basic_ostreamIcT_ES5_PKc(ptr noundef nonnull align 8 dereferenceable(8) %11, ptr noundef @.str.4)
          to label %76 unwind label %110, !dbg !5601

76:                                               ; preds = %74
  %77 = invoke noundef nonnull align 8 dereferenceable(8) ptr @_ZStlsISt11char_traitsIcEERSt13basic_ostreamIcT_ES5_PKc(ptr noundef nonnull align 8 dereferenceable(8) %75, ptr noundef @.str.5)
          to label %78 unwind label %110, !dbg !5601

78:                                               ; preds = %76
  %79 = invoke noundef nonnull align 8 dereferenceable(8) ptr @_ZStlsISt11char_traitsIcEERSt13basic_ostreamIcT_ES5_c(ptr noundef nonnull align 8 dereferenceable(8) %77, i8 noundef signext 58)
          to label %80 unwind label %110, !dbg !5601

80:                                               ; preds = %78
  %81 = invoke noundef nonnull align 8 dereferenceable(8) ptr @_ZNSolsEi(ptr noundef nonnull align 8 dereferenceable(8) %79, i32 noundef 40)
          to label %82 unwind label %110, !dbg !5601

82:                                               ; preds = %80
  %83 = invoke noundef nonnull align 8 dereferenceable(8) ptr @_ZNSo5flushEv(ptr noundef nonnull align 8 dereferenceable(8) %11)
          to label %84 unwind label %110, !dbg !5604

84:                                               ; preds = %82
  br label %85, !dbg !5604

85:                                               ; preds = %84
  br label %86, !dbg !5604

86:                                               ; preds = %85
  %87 = load ptr, ptr %9, align 8, !dbg !5596
  %88 = load ptr, ptr %9, align 8, !dbg !5596
  %89 = invoke noundef nonnull align 8 dereferenceable(32) ptr @_ZNK4Poco6Logger4nameB5cxx11Ev(ptr noundef nonnull align 8 dereferenceable(68) %88)
          to label %90 unwind label %110, !dbg !5596

90:                                               ; preds = %86
  invoke void @_ZNKSt7__cxx1119basic_ostringstreamIcSt11char_traitsIcESaIcEE3strEv(ptr sret(%"class.std::__cxx11::basic_string") align 8 %16, ptr noundef nonnull align 8 dereferenceable(112) %11)
          to label %91 unwind label %110, !dbg !5596

91:                                               ; preds = %90
  invoke void @_ZN4Poco7MessageC1ERKNSt7__cxx1112basic_stringIcSt11char_traitsIcESaIcEEES8_NS0_8PriorityE(ptr noundef nonnull align 8 dereferenceable(152) %15, ptr noundef nonnull align 8 dereferenceable(32) %89, ptr noundef nonnull align 8 dereferenceable(32) %16, i32 noundef 4)
          to label %92 unwind label %118, !dbg !5596

92:                                               ; preds = %91
  %93 = load ptr, ptr %87, align 8, !dbg !5596
  %94 = getelementptr inbounds ptr, ptr %93, i64 6, !dbg !5596
  %95 = load ptr, ptr %94, align 8, !dbg !5596
  invoke void %95(ptr noundef nonnull align 8 dereferenceable(68) %87, ptr noundef nonnull align 8 dereferenceable(152) %15)
          to label %96 unwind label %122, !dbg !5596

96:                                               ; preds = %92
  call void @_ZN4Poco7MessageD1Ev(ptr noundef nonnull align 8 dereferenceable(152) %15) #3, !dbg !5596
  call void @_ZNSt7__cxx1112basic_stringIcSt11char_traitsIcESaIcEED1Ev(ptr noundef nonnull align 8 dereferenceable(32) %16) #3, !dbg !5596
  call void @_ZNSt7__cxx1119basic_ostringstreamIcSt11char_traitsIcESaIcEED1Ev(ptr noundef nonnull align 8 dereferenceable(112) %11) #3, !dbg !5589
  br label %128, !dbg !5596

97:                                               ; preds = %233, %55, %51, %48, %46
  %98 = landingpad { ptr, i32 }
          cleanup, !dbg !5605
  %99 = extractvalue { ptr, i32 } %98, 0, !dbg !5605
  store ptr %99, ptr %6, align 8, !dbg !5605
  %100 = extractvalue { ptr, i32 } %98, 1, !dbg !5605
  store i32 %100, ptr %7, align 4, !dbg !5605
  br label %243, !dbg !5605

101:                                              ; preds = %58
  %102 = landingpad { ptr, i32 }
          cleanup, !dbg !5606
  %103 = extractvalue { ptr, i32 } %102, 0, !dbg !5606
  store ptr %103, ptr %6, align 8, !dbg !5606
  %104 = extractvalue { ptr, i32 } %102, 1, !dbg !5606
  store i32 %104, ptr %7, align 4, !dbg !5606
  br label %109, !dbg !5606

105:                                              ; preds = %59
  %106 = landingpad { ptr, i32 }
          cleanup, !dbg !5606
  %107 = extractvalue { ptr, i32 } %106, 0, !dbg !5606
  store ptr %107, ptr %6, align 8, !dbg !5606
  %108 = extractvalue { ptr, i32 } %106, 1, !dbg !5606
  store i32 %108, ptr %7, align 4, !dbg !5606
  call void @_ZNSt7__cxx1112basic_stringIcSt11char_traitsIcESaIcEED1Ev(ptr noundef nonnull align 8 dereferenceable(32) %12) #3, !dbg !5596
  br label %109, !dbg !5596

109:                                              ; preds = %105, %101
  call void @_ZNSaIcED1Ev(ptr noundef nonnull align 1 dereferenceable(1) %13) #3, !dbg !5596
  br label %243, !dbg !5596

110:                                              ; preds = %90, %86, %82, %80, %78, %76, %74, %69, %67, %64, %62, %60
  %111 = landingpad { ptr, i32 }
          cleanup, !dbg !5606
  %112 = extractvalue { ptr, i32 } %111, 0, !dbg !5606
  store ptr %112, ptr %6, align 8, !dbg !5606
  %113 = extractvalue { ptr, i32 } %111, 1, !dbg !5606
  store i32 %113, ptr %7, align 4, !dbg !5606
  br label %127, !dbg !5606

114:                                              ; preds = %71
  %115 = landingpad { ptr, i32 }
          cleanup, !dbg !5606
  %116 = extractvalue { ptr, i32 } %115, 0, !dbg !5606
  store ptr %116, ptr %6, align 8, !dbg !5606
  %117 = extractvalue { ptr, i32 } %115, 1, !dbg !5606
  store i32 %117, ptr %7, align 4, !dbg !5606
  call void @_ZNSt7__cxx1112basic_stringIcSt11char_traitsIcESaIcEED1Ev(ptr noundef nonnull align 8 dereferenceable(32) %14) #3, !dbg !5596
  br label %127, !dbg !5596

118:                                              ; preds = %91
  %119 = landingpad { ptr, i32 }
          cleanup, !dbg !5606
  %120 = extractvalue { ptr, i32 } %119, 0, !dbg !5606
  store ptr %120, ptr %6, align 8, !dbg !5606
  %121 = extractvalue { ptr, i32 } %119, 1, !dbg !5606
  store i32 %121, ptr %7, align 4, !dbg !5606
  br label %126, !dbg !5606

122:                                              ; preds = %92
  %123 = landingpad { ptr, i32 }
          cleanup, !dbg !5606
  %124 = extractvalue { ptr, i32 } %123, 0, !dbg !5606
  store ptr %124, ptr %6, align 8, !dbg !5606
  %125 = extractvalue { ptr, i32 } %123, 1, !dbg !5606
  store i32 %125, ptr %7, align 4, !dbg !5606
  call void @_ZN4Poco7MessageD1Ev(ptr noundef nonnull align 8 dereferenceable(152) %15) #3, !dbg !5596
  br label %126, !dbg !5596

126:                                              ; preds = %122, %118
  call void @_ZNSt7__cxx1112basic_stringIcSt11char_traitsIcESaIcEED1Ev(ptr noundef nonnull align 8 dereferenceable(32) %16) #3, !dbg !5596
  br label %127, !dbg !5596

127:                                              ; preds = %126, %114, %110
  call void @_ZNSt7__cxx1119basic_ostringstreamIcSt11char_traitsIcESaIcEED1Ev(ptr noundef nonnull align 8 dereferenceable(112) %11) #3, !dbg !5589
  br label %243, !dbg !5589

128:                                              ; preds = %96, %54, %50
  br label %129, !dbg !5588

129:                                              ; preds = %128
  br label %130, !dbg !5588

130:                                              ; preds = %129
  %131 = load ptr, ptr %4, align 8, !dbg !5607
  invoke void @_ZN4Poco3Net9IPAddressC1ERKNSt7__cxx1112basic_stringIcSt11char_traitsIcESaIcEEE(ptr noundef nonnull align 8 dereferenceable(8) %17, ptr noundef nonnull align 8 dereferenceable(32) %131)
          to label %132 unwind label %134, !dbg !5609

132:                                              ; preds = %130
  invoke void @_ZNK4Poco3Net9IPAddress8toStringB5cxx11Ev(ptr sret(%"class.std::__cxx11::basic_string") align 8 %0, ptr noundef nonnull align 8 dereferenceable(8) %17)
          to label %133 unwind label %138, !dbg !5610

133:                                              ; preds = %132
  call void @_ZN4Poco3Net9IPAddressD1Ev(ptr noundef nonnull align 8 dereferenceable(8) %17) #3, !dbg !5611
  store i32 1, ptr %18, align 4
  br label %236, !dbg !5611

134:                                              ; preds = %130
  %135 = landingpad { ptr, i32 }
          cleanup
          catch ptr @_ZTIN4Poco9ExceptionE, !dbg !5612
  %136 = extractvalue { ptr, i32 } %135, 0, !dbg !5612
  store ptr %136, ptr %6, align 8, !dbg !5612
  %137 = extractvalue { ptr, i32 } %135, 1, !dbg !5612
  store i32 %137, ptr %7, align 4, !dbg !5612
  br label %142, !dbg !5612

138:                                              ; preds = %132
  %139 = landingpad { ptr, i32 }
          cleanup
          catch ptr @_ZTIN4Poco9ExceptionE, !dbg !5612
  %140 = extractvalue { ptr, i32 } %139, 0, !dbg !5612
  store ptr %140, ptr %6, align 8, !dbg !5612
  %141 = extractvalue { ptr, i32 } %139, 1, !dbg !5612
  store i32 %141, ptr %7, align 4, !dbg !5612
  call void @_ZN4Poco3Net9IPAddressD1Ev(ptr noundef nonnull align 8 dereferenceable(8) %17) #3, !dbg !5611
  br label %142, !dbg !5611

142:                                              ; preds = %138, %134
  %143 = load i32, ptr %7, align 4, !dbg !5613
  %144 = call i32 @llvm.eh.typeid.for(ptr @_ZTIN4Poco9ExceptionE) #3, !dbg !5613
  %145 = icmp eq i32 %143, %144, !dbg !5613
  br i1 %145, label %146, label %243, !dbg !5613

146:                                              ; preds = %142
  call void @llvm.dbg.declare(metadata ptr %19, metadata !5614, metadata !DIExpression()), !dbg !5615
  %147 = load ptr, ptr %6, align 8, !dbg !5613
  %148 = call ptr @__cxa_begin_catch(ptr %147) #3, !dbg !5613
  store ptr %148, ptr %19, align 8, !dbg !5613
  br label %149, !dbg !5616

149:                                              ; preds = %146
  call void @llvm.dbg.declare(metadata ptr %20, metadata !5618, metadata !DIExpression()), !dbg !5620
  %150 = invoke noundef nonnull align 8 dereferenceable(68) ptr @_ZN3Log6loggerEv()
          to label %151 unwind label %200, !dbg !5620

151:                                              ; preds = %149
  store ptr %150, ptr %20, align 8, !dbg !5620
  %152 = invoke noundef zeroext i1 @_ZN3Log16isShutdownCalledEv()
          to label %153 unwind label %200, !dbg !5621

153:                                              ; preds = %151
  br i1 %152, label %231, label %154, !dbg !5621

154:                                              ; preds = %153
  %155 = load ptr, ptr %20, align 8, !dbg !5621
  %156 = invoke noundef zeroext i1 @_ZNK4Poco6Logger7warningEv(ptr noundef nonnull align 8 dereferenceable(68) %155)
          to label %157 unwind label %200, !dbg !5621

157:                                              ; preds = %154
  br i1 %156, label %158, label %231, !dbg !5620

158:                                              ; preds = %157
  call void @llvm.dbg.declare(metadata ptr %21, metadata !5623, metadata !DIExpression()), !dbg !5625
  call void @llvm.dbg.declare(metadata ptr %22, metadata !5626, metadata !DIExpression()), !dbg !5625
  %159 = getelementptr inbounds [1024 x i8], ptr %21, i64 0, i64 0, !dbg !5625
  %160 = invoke noundef ptr @_ZN3Log6prefixILi1023EEEPcS1_PKc(ptr noundef %159, ptr noundef @.str)
          to label %161 unwind label %200, !dbg !5625

161:                                              ; preds = %158
  call void @_ZNSaIcEC1Ev(ptr noundef nonnull align 1 dereferenceable(1) %24) #3, !dbg !5625
  invoke void @_ZNSt7__cxx1112basic_stringIcSt11char_traitsIcESaIcEEC2IS3_EEPKcRKS3_(ptr noundef nonnull align 8 dereferenceable(32) %23, ptr noundef %160, ptr noundef nonnull align 1 dereferenceable(1) %24)
          to label %162 unwind label %204, !dbg !5625

162:                                              ; preds = %161
  invoke void @_ZNSt7__cxx1119basic_ostringstreamIcSt11char_traitsIcESaIcEEC1ERKNS_12basic_stringIcS2_S3_EESt13_Ios_Openmode(ptr noundef nonnull align 8 dereferenceable(112) %22, ptr noundef nonnull align 8 dereferenceable(32) %23, i32 noundef 2)
          to label %163 unwind label %208, !dbg !5625

163:                                              ; preds = %162
  call void @_ZNSt7__cxx1112basic_stringIcSt11char_traitsIcESaIcEED1Ev(ptr noundef nonnull align 8 dereferenceable(32) %23) #3, !dbg !5625
  call void @_ZNSaIcED1Ev(ptr noundef nonnull align 1 dereferenceable(1) %24) #3, !dbg !5625
  %164 = invoke noundef nonnull align 8 dereferenceable(8) ptr @_ZNSolsEPFRSt8ios_baseS0_E(ptr noundef nonnull align 8 dereferenceable(8) %22, ptr noundef @_ZSt9boolalphaRSt8ios_base)
          to label %165 unwind label %213, !dbg !5625

165:                                              ; preds = %163
  %166 = invoke noundef nonnull align 8 dereferenceable(8) ptr @_ZStlsISt11char_traitsIcEERSt13basic_ostreamIcT_ES5_PKc(ptr noundef nonnull align 8 dereferenceable(8) %164, ptr noundef @.str.6)
          to label %167 unwind label %213, !dbg !5625

167:                                              ; preds = %165
  %168 = load ptr, ptr %4, align 8, !dbg !5625
  %169 = invoke noundef nonnull align 8 dereferenceable(8) ptr @_ZStlsIcSt11char_traitsIcESaIcEERSt13basic_ostreamIT_T0_ES7_RKNSt7__cxx1112basic_stringIS4_S5_T1_EE(ptr noundef nonnull align 8 dereferenceable(8) %166, ptr noundef nonnull align 8 dereferenceable(32) %168)
          to label %170 unwind label %213, !dbg !5625

170:                                              ; preds = %167
  %171 = invoke noundef nonnull align 8 dereferenceable(8) ptr @_ZStlsISt11char_traitsIcEERSt13basic_ostreamIcT_ES5_PKc(ptr noundef nonnull align 8 dereferenceable(8) %169, ptr noundef @.str.3)
          to label %172 unwind label %213, !dbg !5625

172:                                              ; preds = %170
  %173 = load ptr, ptr %19, align 8, !dbg !5625
  invoke void @_ZNK4Poco9Exception11displayTextB5cxx11Ev(ptr sret(%"class.std::__cxx11::basic_string") align 8 %25, ptr noundef nonnull align 8 dereferenceable(52) %173)
          to label %174 unwind label %213, !dbg !5625

174:                                              ; preds = %172
  %175 = invoke noundef nonnull align 8 dereferenceable(8) ptr @_ZStlsIcSt11char_traitsIcESaIcEERSt13basic_ostreamIT_T0_ES7_RKNSt7__cxx1112basic_stringIS4_S5_T1_EE(ptr noundef nonnull align 8 dereferenceable(8) %171, ptr noundef nonnull align 8 dereferenceable(32) %25)
          to label %176 unwind label %217, !dbg !5625

176:                                              ; preds = %174
  call void @_ZNSt7__cxx1112basic_stringIcSt11char_traitsIcESaIcEED1Ev(ptr noundef nonnull align 8 dereferenceable(32) %25) #3, !dbg !5625
  br label %177, !dbg !5625

177:                                              ; preds = %176
  %178 = invoke noundef nonnull align 8 dereferenceable(8) ptr @_ZStlsISt11char_traitsIcEERSt13basic_ostreamIcT_ES5_PKc(ptr noundef nonnull align 8 dereferenceable(8) %22, ptr noundef @.str.4)
          to label %179 unwind label %213, !dbg !5627

179:                                              ; preds = %177
  %180 = invoke noundef nonnull align 8 dereferenceable(8) ptr @_ZStlsISt11char_traitsIcEERSt13basic_ostreamIcT_ES5_PKc(ptr noundef nonnull align 8 dereferenceable(8) %178, ptr noundef @.str.5)
          to label %181 unwind label %213, !dbg !5627

181:                                              ; preds = %179
  %182 = invoke noundef nonnull align 8 dereferenceable(8) ptr @_ZStlsISt11char_traitsIcEERSt13basic_ostreamIcT_ES5_c(ptr noundef nonnull align 8 dereferenceable(8) %180, i8 noundef signext 58)
          to label %183 unwind label %213, !dbg !5627

183:                                              ; preds = %181
  %184 = invoke noundef nonnull align 8 dereferenceable(8) ptr @_ZNSolsEi(ptr noundef nonnull align 8 dereferenceable(8) %182, i32 noundef 48)
          to label %185 unwind label %213, !dbg !5627

185:                                              ; preds = %183
  %186 = invoke noundef nonnull align 8 dereferenceable(8) ptr @_ZNSo5flushEv(ptr noundef nonnull align 8 dereferenceable(8) %22)
          to label %187 unwind label %213, !dbg !5630

187:                                              ; preds = %185
  br label %188, !dbg !5630

188:                                              ; preds = %187
  br label %189, !dbg !5630

189:                                              ; preds = %188
  %190 = load ptr, ptr %20, align 8, !dbg !5625
  %191 = load ptr, ptr %20, align 8, !dbg !5625
  %192 = invoke noundef nonnull align 8 dereferenceable(32) ptr @_ZNK4Poco6Logger4nameB5cxx11Ev(ptr noundef nonnull align 8 dereferenceable(68) %191)
          to label %193 unwind label %213, !dbg !5625

193:                                              ; preds = %189
  invoke void @_ZNKSt7__cxx1119basic_ostringstreamIcSt11char_traitsIcESaIcEE3strEv(ptr sret(%"class.std::__cxx11::basic_string") align 8 %27, ptr noundef nonnull align 8 dereferenceable(112) %22)
          to label %194 unwind label %213, !dbg !5625

194:                                              ; preds = %193
  invoke void @_ZN4Poco7MessageC1ERKNSt7__cxx1112basic_stringIcSt11char_traitsIcESaIcEEES8_NS0_8PriorityE(ptr noundef nonnull align 8 dereferenceable(152) %26, ptr noundef nonnull align 8 dereferenceable(32) %192, ptr noundef nonnull align 8 dereferenceable(32) %27, i32 noundef 4)
          to label %195 unwind label %221, !dbg !5625

195:                                              ; preds = %194
  %196 = load ptr, ptr %190, align 8, !dbg !5625
  %197 = getelementptr inbounds ptr, ptr %196, i64 6, !dbg !5625
  %198 = load ptr, ptr %197, align 8, !dbg !5625
  invoke void %198(ptr noundef nonnull align 8 dereferenceable(68) %190, ptr noundef nonnull align 8 dereferenceable(152) %26)
          to label %199 unwind label %225, !dbg !5625

199:                                              ; preds = %195
  call void @_ZN4Poco7MessageD1Ev(ptr noundef nonnull align 8 dereferenceable(152) %26) #3, !dbg !5625
  call void @_ZNSt7__cxx1112basic_stringIcSt11char_traitsIcESaIcEED1Ev(ptr noundef nonnull align 8 dereferenceable(32) %27) #3, !dbg !5625
  call void @_ZNSt7__cxx1119basic_ostringstreamIcSt11char_traitsIcESaIcEED1Ev(ptr noundef nonnull align 8 dereferenceable(112) %22) #3, !dbg !5621
  br label %231, !dbg !5625

200:                                              ; preds = %158, %154, %151, %149
  %201 = landingpad { ptr, i32 }
          cleanup, !dbg !5631
  %202 = extractvalue { ptr, i32 } %201, 0, !dbg !5631
  store ptr %202, ptr %6, align 8, !dbg !5631
  %203 = extractvalue { ptr, i32 } %201, 1, !dbg !5631
  store i32 %203, ptr %7, align 4, !dbg !5631
  br label %241, !dbg !5631

204:                                              ; preds = %161
  %205 = landingpad { ptr, i32 }
          cleanup, !dbg !5632
  %206 = extractvalue { ptr, i32 } %205, 0, !dbg !5632
  store ptr %206, ptr %6, align 8, !dbg !5632
  %207 = extractvalue { ptr, i32 } %205, 1, !dbg !5632
  store i32 %207, ptr %7, align 4, !dbg !5632
  br label %212, !dbg !5632

208:                                              ; preds = %162
  %209 = landingpad { ptr, i32 }
          cleanup, !dbg !5632
  %210 = extractvalue { ptr, i32 } %209, 0, !dbg !5632
  store ptr %210, ptr %6, align 8, !dbg !5632
  %211 = extractvalue { ptr, i32 } %209, 1, !dbg !5632
  store i32 %211, ptr %7, align 4, !dbg !5632
  call void @_ZNSt7__cxx1112basic_stringIcSt11char_traitsIcESaIcEED1Ev(ptr noundef nonnull align 8 dereferenceable(32) %23) #3, !dbg !5625
  br label %212, !dbg !5625

212:                                              ; preds = %208, %204
  call void @_ZNSaIcED1Ev(ptr noundef nonnull align 1 dereferenceable(1) %24) #3, !dbg !5625
  br label %241, !dbg !5625

213:                                              ; preds = %193, %189, %185, %183, %181, %179, %177, %172, %170, %167, %165, %163
  %214 = landingpad { ptr, i32 }
          cleanup, !dbg !5632
  %215 = extractvalue { ptr, i32 } %214, 0, !dbg !5632
  store ptr %215, ptr %6, align 8, !dbg !5632
  %216 = extractvalue { ptr, i32 } %214, 1, !dbg !5632
  store i32 %216, ptr %7, align 4, !dbg !5632
  br label %230, !dbg !5632

217:                                              ; preds = %174
  %218 = landingpad { ptr, i32 }
          cleanup, !dbg !5632
  %219 = extractvalue { ptr, i32 } %218, 0, !dbg !5632
  store ptr %219, ptr %6, align 8, !dbg !5632
  %220 = extractvalue { ptr, i32 } %218, 1, !dbg !5632
  store i32 %220, ptr %7, align 4, !dbg !5632
  call void @_ZNSt7__cxx1112basic_stringIcSt11char_traitsIcESaIcEED1Ev(ptr noundef nonnull align 8 dereferenceable(32) %25) #3, !dbg !5625
  br label %230, !dbg !5625

221:                                              ; preds = %194
  %222 = landingpad { ptr, i32 }
          cleanup, !dbg !5632
  %223 = extractvalue { ptr, i32 } %222, 0, !dbg !5632
  store ptr %223, ptr %6, align 8, !dbg !5632
  %224 = extractvalue { ptr, i32 } %222, 1, !dbg !5632
  store i32 %224, ptr %7, align 4, !dbg !5632
  br label %229, !dbg !5632

225:                                              ; preds = %195
  %226 = landingpad { ptr, i32 }
          cleanup, !dbg !5632
  %227 = extractvalue { ptr, i32 } %226, 0, !dbg !5632
  store ptr %227, ptr %6, align 8, !dbg !5632
  %228 = extractvalue { ptr, i32 } %226, 1, !dbg !5632
  store i32 %228, ptr %7, align 4, !dbg !5632
  call void @_ZN4Poco7MessageD1Ev(ptr noundef nonnull align 8 dereferenceable(152) %26) #3, !dbg !5625
  br label %229, !dbg !5625

229:                                              ; preds = %225, %221
  call void @_ZNSt7__cxx1112basic_stringIcSt11char_traitsIcESaIcEED1Ev(ptr noundef nonnull align 8 dereferenceable(32) %27) #3, !dbg !5625
  br label %230, !dbg !5625

230:                                              ; preds = %229, %217, %213
  call void @_ZNSt7__cxx1119basic_ostringstreamIcSt11char_traitsIcESaIcEED1Ev(ptr noundef nonnull align 8 dereferenceable(112) %22) #3, !dbg !5621
  br label %241, !dbg !5621

231:                                              ; preds = %199, %157, %153
  br label %232, !dbg !5620

232:                                              ; preds = %231
  br label %233, !dbg !5620

233:                                              ; preds = %232
  invoke void @__cxa_end_catch()
          to label %234 unwind label %97, !dbg !5633

234:                                              ; preds = %233
  br label %235, !dbg !5633

235:                                              ; preds = %234
  store i32 0, ptr %18, align 4, !dbg !5634
  br label %236, !dbg !5634

236:                                              ; preds = %235, %133
  call void @__cxa_end_catch(), !dbg !5634
  %237 = load i32, ptr %18, align 4
  switch i32 %237, label %254 [
    i32 0, label %238
    i32 1, label %245
  ]

238:                                              ; preds = %236
  br label %239, !dbg !5634

239:                                              ; preds = %238
  %240 = load ptr, ptr %4, align 8, !dbg !5635
  call void @_ZNSt7__cxx1112basic_stringIcSt11char_traitsIcESaIcEEC1ERKS4_(ptr noundef nonnull align 8 dereferenceable(32) %0, ptr noundef nonnull align 8 dereferenceable(32) %240), !dbg !5635
  br label %245, !dbg !5636

241:                                              ; preds = %230, %212, %200
  invoke void @__cxa_end_catch()
          to label %242 unwind label %251, !dbg !5633

242:                                              ; preds = %241
  br label %243, !dbg !5633

243:                                              ; preds = %242, %142, %127, %109, %97
  invoke void @__cxa_end_catch()
          to label %244 unwind label %251, !dbg !5634

244:                                              ; preds = %243
  br label %246, !dbg !5634

245:                                              ; preds = %239, %236, %30
  ret void, !dbg !5637

246:                                              ; preds = %244, %39
  %247 = load ptr, ptr %6, align 8, !dbg !5574
  %248 = load i32, ptr %7, align 4, !dbg !5574
  %249 = insertvalue { ptr, i32 } poison, ptr %247, 0, !dbg !5574
  %250 = insertvalue { ptr, i32 } %249, i32 %248, 1, !dbg !5574
  resume { ptr, i32 } %250, !dbg !5574

251:                                              ; preds = %243, %241
  %252 = landingpad { ptr, i32 }
          catch ptr null, !dbg !5633
  %253 = extractvalue { ptr, i32 } %252, 0, !dbg !5633
  call void @__clang_call_terminate(ptr %253) #20, !dbg !5633
  unreachable, !dbg !5633

254:                                              ; preds = %236
  unreachable
}

declare void @_ZN4Poco3Net3DNS10resolveOneERKNSt7__cxx1112basic_stringIcSt11char_traitsIcESaIcEEE(ptr sret(%"class.Poco::Net::IPAddress") align 8, ptr noundef nonnull align 8 dereferenceable(32)) #1

declare i32 @__gxx_personality_v0(...)

declare void @_ZNK4Poco3Net9IPAddress8toStringB5cxx11Ev(ptr sret(%"class.std::__cxx11::basic_string") align 8, ptr noundef nonnull align 8 dereferenceable(8)) #1

; Function Attrs: nounwind
declare void @_ZN4Poco3Net9IPAddressD1Ev(ptr noundef nonnull align 8 dereferenceable(8)) unnamed_addr #2

; Function Attrs: nounwind memory(none)
declare i32 @llvm.eh.typeid.for(ptr) #7

declare ptr @__cxa_begin_catch(ptr)

declare noundef nonnull align 8 dereferenceable(68) ptr @_ZN3Log6loggerEv() #1

; Function Attrs: mustprogress noinline nounwind optnone uwtable
define linkonce_odr dso_local noundef zeroext i1 @_ZN3Log16isShutdownCalledEv() #8 comdat !dbg !5638 {
  %1 = load i8, ptr @_ZN3Log10IsShutdownE, align 1, !dbg !5639
  %2 = trunc i8 %1 to i1, !dbg !5639
  ret i1 %2, !dbg !5640
}

; Function Attrs: mustprogress noinline nounwind optnone uwtable
define linkonce_odr dso_local noundef zeroext i1 @_ZNK4Poco6Logger7warningEv(ptr noundef nonnull align 8 dereferenceable(68) %0) #8 comdat align 2 !dbg !5641 {
  %2 = alloca ptr, align 8
  store ptr %0, ptr %2, align 8
  call void @llvm.dbg.declare(metadata ptr %2, metadata !5647, metadata !DIExpression()), !dbg !5649
  %3 = load ptr, ptr %2, align 8
  %4 = getelementptr inbounds %"class.Poco::Logger", ptr %3, i32 0, i32 4, !dbg !5650
  %5 = load i32, ptr %4, align 8, !dbg !5650
  %6 = icmp sge i32 %5, 4, !dbg !5651
  ret i1 %6, !dbg !5652
}

; Function Attrs: mustprogress noinline optnone uwtable
define linkonce_odr dso_local noundef ptr @_ZN3Log6prefixILi1023EEEPcS1_PKc(ptr noundef %0, ptr noundef %1) #5 comdat personality ptr @__gxx_personality_v0 !dbg !5653 {
  %3 = alloca ptr, align 8
  %4 = alloca ptr, align 8
  %5 = alloca %"class.Poco::LocalDateTime", align 8
  %6 = alloca ptr, align 8
  %7 = alloca i32, align 4
  store ptr %0, ptr %3, align 8
  call void @llvm.dbg.declare(metadata ptr %3, metadata !5658, metadata !DIExpression()), !dbg !5659
  store ptr %1, ptr %4, align 8
  call void @llvm.dbg.declare(metadata ptr %4, metadata !5660, metadata !DIExpression()), !dbg !5661
  call void @_ZN4Poco13LocalDateTimeC1Ev(ptr noundef nonnull align 8 dereferenceable(28) %5), !dbg !5662
  %8 = load ptr, ptr %3, align 8, !dbg !5663
  %9 = load ptr, ptr %4, align 8, !dbg !5664
  %10 = invoke noundef ptr @_ZN3Log6prefixERKN4Poco13LocalDateTimeEPcPKc(ptr noundef nonnull align 8 dereferenceable(28) %5, ptr noundef %8, ptr noundef %9)
          to label %11 unwind label %12, !dbg !5665

11:                                               ; preds = %2
  call void @_ZN4Poco13LocalDateTimeD1Ev(ptr noundef nonnull align 8 dereferenceable(28) %5) #3, !dbg !5666
  ret ptr %10, !dbg !5666

12:                                               ; preds = %2
  %13 = landingpad { ptr, i32 }
          cleanup, !dbg !5667
  %14 = extractvalue { ptr, i32 } %13, 0, !dbg !5667
  store ptr %14, ptr %6, align 8, !dbg !5667
  %15 = extractvalue { ptr, i32 } %13, 1, !dbg !5667
  store i32 %15, ptr %7, align 4, !dbg !5667
  call void @_ZN4Poco13LocalDateTimeD1Ev(ptr noundef nonnull align 8 dereferenceable(28) %5) #3, !dbg !5666
  br label %16, !dbg !5666

16:                                               ; preds = %12
  %17 = load ptr, ptr %6, align 8, !dbg !5666
  %18 = load i32, ptr %7, align 4, !dbg !5666
  %19 = insertvalue { ptr, i32 } poison, ptr %17, 0, !dbg !5666
  %20 = insertvalue { ptr, i32 } %19, i32 %18, 1, !dbg !5666
  resume { ptr, i32 } %20, !dbg !5666
}

; Function Attrs: nounwind
declare void @_ZNSaIcEC1Ev(ptr noundef nonnull align 1 dereferenceable(1)) unnamed_addr #2

; Function Attrs: noinline optnone uwtable
define linkonce_odr dso_local void @_ZNSt7__cxx1112basic_stringIcSt11char_traitsIcESaIcEEC2IS3_EEPKcRKS3_(ptr noundef nonnull align 8 dereferenceable(32) %0, ptr noundef %1, ptr noundef nonnull align 1 dereferenceable(1) %2) unnamed_addr #9 comdat align 2 personality ptr @__gxx_personality_v0 !dbg !5668 {
  %4 = alloca ptr, align 8
  %5 = alloca ptr, align 8
  %6 = alloca ptr, align 8
  %7 = alloca ptr, align 8
  %8 = alloca ptr, align 8
  %9 = alloca i32, align 4
  %10 = alloca %"struct.std::forward_iterator_tag", align 1
  %11 = alloca %"struct.std::random_access_iterator_tag", align 1
  store ptr %0, ptr %4, align 8
  call void @llvm.dbg.declare(metadata ptr %4, metadata !5674, metadata !DIExpression()), !dbg !5676
  store ptr %1, ptr %5, align 8
  call void @llvm.dbg.declare(metadata ptr %5, metadata !5677, metadata !DIExpression()), !dbg !5678
  store ptr %2, ptr %6, align 8
  call void @llvm.dbg.declare(metadata ptr %6, metadata !5679, metadata !DIExpression()), !dbg !5680
  %12 = load ptr, ptr %4, align 8
  %13 = getelementptr inbounds %"class.std::__cxx11::basic_string", ptr %12, i32 0, i32 0, !dbg !5681
  %14 = call noundef ptr @_ZNSt7__cxx1112basic_stringIcSt11char_traitsIcESaIcEE13_M_local_dataEv(ptr noundef nonnull align 8 dereferenceable(32) %12), !dbg !5682
  %15 = load ptr, ptr %6, align 8, !dbg !5683
  call void @_ZNSt7__cxx1112basic_stringIcSt11char_traitsIcESaIcEE12_Alloc_hiderC1EPcRKS3_(ptr noundef nonnull align 8 dereferenceable(8) %13, ptr noundef %14, ptr noundef nonnull align 1 dereferenceable(1) %15), !dbg !5681
  call void @llvm.dbg.declare(metadata ptr %7, metadata !5684, metadata !DIExpression()), !dbg !5686
  %16 = load ptr, ptr %5, align 8, !dbg !5687
  %17 = icmp ne ptr %16, null, !dbg !5687
  br i1 %17, label %18, label %24, !dbg !5687

18:                                               ; preds = %3
  %19 = load ptr, ptr %5, align 8, !dbg !5688
  %20 = load ptr, ptr %5, align 8, !dbg !5689
  %21 = invoke noundef i64 @_ZNSt11char_traitsIcE6lengthEPKc(ptr noundef %20)
          to label %22 unwind label %30, !dbg !5690

22:                                               ; preds = %18
  %23 = getelementptr inbounds i8, ptr %19, i64 %21, !dbg !5691
  br label %25, !dbg !5687

24:                                               ; preds = %3
  br label %25, !dbg !5687

25:                                               ; preds = %24, %22
  %26 = phi ptr [ %23, %22 ], [ inttoptr (i64 1 to ptr), %24 ], !dbg !5687
  store ptr %26, ptr %7, align 8, !dbg !5686
  %27 = load ptr, ptr %5, align 8, !dbg !5692
  %28 = load ptr, ptr %7, align 8, !dbg !5693
  invoke void @_ZNSt7__cxx1112basic_stringIcSt11char_traitsIcESaIcEE12_M_constructIPKcEEvT_S8_St20forward_iterator_tag(ptr noundef nonnull align 8 dereferenceable(32) %12, ptr noundef %27, ptr noundef %28)
          to label %29 unwind label %30, !dbg !5694

29:                                               ; preds = %25
  ret void, !dbg !5695

30:                                               ; preds = %25, %18
  %31 = landingpad { ptr, i32 }
          cleanup, !dbg !5696
  %32 = extractvalue { ptr, i32 } %31, 0, !dbg !5696
  store ptr %32, ptr %8, align 8, !dbg !5696
  %33 = extractvalue { ptr, i32 } %31, 1, !dbg !5696
  store i32 %33, ptr %9, align 4, !dbg !5696
  call void @_ZNSt7__cxx1112basic_stringIcSt11char_traitsIcESaIcEE12_Alloc_hiderD2Ev(ptr noundef nonnull align 8 dereferenceable(8) %13) #3, !dbg !5696
  br label %34, !dbg !5696

34:                                               ; preds = %30
  %35 = load ptr, ptr %8, align 8, !dbg !5696
  %36 = load i32, ptr %9, align 4, !dbg !5696
  %37 = insertvalue { ptr, i32 } poison, ptr %35, 0, !dbg !5696
  %38 = insertvalue { ptr, i32 } %37, i32 %36, 1, !dbg !5696
  resume { ptr, i32 } %38, !dbg !5696
}

declare void @_ZNSt7__cxx1119basic_ostringstreamIcSt11char_traitsIcESaIcEEC1ERKNS_12basic_stringIcS2_S3_EESt13_Ios_Openmode(ptr noundef nonnull align 8 dereferenceable(112), ptr noundef nonnull align 8 dereferenceable(32), i32 noundef) unnamed_addr #1

; Function Attrs: nounwind
declare void @_ZNSt7__cxx1112basic_stringIcSt11char_traitsIcESaIcEED1Ev(ptr noundef nonnull align 8 dereferenceable(32)) unnamed_addr #2

; Function Attrs: nounwind
declare void @_ZNSaIcED1Ev(ptr noundef nonnull align 1 dereferenceable(1)) unnamed_addr #2

declare noundef nonnull align 8 dereferenceable(8) ptr @_ZStlsIcSt11char_traitsIcESaIcEERSt13basic_ostreamIT_T0_ES7_RKNSt7__cxx1112basic_stringIS4_S5_T1_EE(ptr noundef nonnull align 8 dereferenceable(8), ptr noundef nonnull align 8 dereferenceable(32)) #1

declare noundef nonnull align 8 dereferenceable(8) ptr @_ZStlsISt11char_traitsIcEERSt13basic_ostreamIcT_ES5_PKc(ptr noundef nonnull align 8 dereferenceable(8), ptr noundef) #1

declare noundef nonnull align 8 dereferenceable(8) ptr @_ZNSolsEPFRSt8ios_baseS0_E(ptr noundef nonnull align 8 dereferenceable(8), ptr noundef) #1

; Function Attrs: mustprogress noinline optnone uwtable
define linkonce_odr dso_local noundef nonnull align 8 dereferenceable(216) ptr @_ZSt9boolalphaRSt8ios_base(ptr noundef nonnull align 8 dereferenceable(216) %0) #5 comdat !dbg !5697 {
  %2 = alloca ptr, align 8
  store ptr %0, ptr %2, align 8
  call void @llvm.dbg.declare(metadata ptr %2, metadata !5701, metadata !DIExpression()), !dbg !5702
  %3 = load ptr, ptr %2, align 8, !dbg !5703
  %4 = call noundef i32 @_ZNSt8ios_base4setfESt13_Ios_Fmtflags(ptr noundef nonnull align 8 dereferenceable(216) %3, i32 noundef 1), !dbg !5704
  %5 = load ptr, ptr %2, align 8, !dbg !5705
  ret ptr %5, !dbg !5706
}

declare void @_ZNK4Poco9Exception11displayTextB5cxx11Ev(ptr sret(%"class.std::__cxx11::basic_string") align 8, ptr noundef nonnull align 8 dereferenceable(52)) #1

declare noundef nonnull align 8 dereferenceable(8) ptr @_ZStlsISt11char_traitsIcEERSt13basic_ostreamIcT_ES5_c(ptr noundef nonnull align 8 dereferenceable(8), i8 noundef signext) #1

declare noundef nonnull align 8 dereferenceable(8) ptr @_ZNSolsEi(ptr noundef nonnull align 8 dereferenceable(8), i32 noundef) #1

declare noundef nonnull align 8 dereferenceable(8) ptr @_ZNSo5flushEv(ptr noundef nonnull align 8 dereferenceable(8)) #1

; Function Attrs: mustprogress noinline nounwind optnone uwtable
define linkonce_odr dso_local noundef nonnull align 8 dereferenceable(32) ptr @_ZNK4Poco6Logger4nameB5cxx11Ev(ptr noundef nonnull align 8 dereferenceable(68) %0) #8 comdat align 2 !dbg !5707 {
  %2 = alloca ptr, align 8
  store ptr %0, ptr %2, align 8
  call void @llvm.dbg.declare(metadata ptr %2, metadata !5711, metadata !DIExpression()), !dbg !5712
  %3 = load ptr, ptr %2, align 8
  %4 = getelementptr inbounds %"class.Poco::Logger", ptr %3, i32 0, i32 2, !dbg !5713
  ret ptr %4, !dbg !5714
}

declare void @_ZNKSt7__cxx1119basic_ostringstreamIcSt11char_traitsIcESaIcEE3strEv(ptr sret(%"class.std::__cxx11::basic_string") align 8, ptr noundef nonnull align 8 dereferenceable(112)) #1

declare void @_ZN4Poco7MessageC1ERKNSt7__cxx1112basic_stringIcSt11char_traitsIcESaIcEEES8_NS0_8PriorityE(ptr noundef nonnull align 8 dereferenceable(152), ptr noundef nonnull align 8 dereferenceable(32), ptr noundef nonnull align 8 dereferenceable(32), i32 noundef) unnamed_addr #1

; Function Attrs: nounwind
declare void @_ZN4Poco7MessageD1Ev(ptr noundef nonnull align 8 dereferenceable(152)) unnamed_addr #2

; Function Attrs: nounwind
declare void @_ZNSt7__cxx1119basic_ostringstreamIcSt11char_traitsIcESaIcEED1Ev(ptr noundef nonnull align 8 dereferenceable(112)) unnamed_addr #2

declare void @_ZN4Poco3Net9IPAddressC1ERKNSt7__cxx1112basic_stringIcSt11char_traitsIcESaIcEEE(ptr noundef nonnull align 8 dereferenceable(8), ptr noundef nonnull align 8 dereferenceable(32)) unnamed_addr #1

declare void @__cxa_end_catch()

; Function Attrs: noinline noreturn nounwind
define linkonce_odr hidden void @__clang_call_terminate(ptr noundef %0) #10 comdat {
  %2 = call ptr @__cxa_begin_catch(ptr %0) #3
  call void @_ZSt9terminatev() #20
  unreachable
}

declare void @_ZSt9terminatev()

declare void @_ZNSt7__cxx1112basic_stringIcSt11char_traitsIcESaIcEEC1ERKS4_(ptr noundef nonnull align 8 dereferenceable(32), ptr noundef nonnull align 8 dereferenceable(32)) unnamed_addr #1

; Function Attrs: mustprogress noinline optnone uwtable
define dso_local noundef zeroext i1 @_ZN3net11isLocalhostERKNSt7__cxx1112basic_stringIcSt11char_traitsIcESaIcEEE(ptr noundef nonnull align 8 dereferenceable(32) %0) #5 personality ptr @__gxx_personality_v0 !dbg !5715 {
  %2 = alloca i1, align 1
  %3 = alloca ptr, align 8
  %4 = alloca %"class.std::__cxx11::basic_string", align 8
  %5 = alloca %"class.std::vector", align 8
  %6 = alloca ptr, align 8
  %7 = alloca i32, align 4
  %8 = alloca ptr, align 8
  %9 = alloca %"class.__gnu_cxx::__normal_iterator", align 8
  %10 = alloca %"class.__gnu_cxx::__normal_iterator", align 8
  %11 = alloca ptr, align 8
  %12 = alloca %"class.std::__cxx11::basic_string", align 8
  %13 = alloca %"class.std::__cxx11::basic_string", align 8
  %14 = alloca ptr, align 8
  %15 = alloca [1024 x i8], align 16
  %16 = alloca %"class.std::__cxx11::basic_ostringstream", align 8
  %17 = alloca %"class.std::__cxx11::basic_string", align 8
  %18 = alloca %"class.std::allocator", align 1
  %19 = alloca %"class.Poco::Message", align 8
  %20 = alloca %"class.std::__cxx11::basic_string", align 8
  %21 = alloca i32, align 4
  %22 = alloca ptr, align 8
  %23 = alloca [1024 x i8], align 16
  %24 = alloca %"class.std::__cxx11::basic_ostringstream", align 8
  %25 = alloca %"class.std::__cxx11::basic_string", align 8
  %26 = alloca %"class.std::allocator", align 1
  %27 = alloca %"class.Poco::Message", align 8
  %28 = alloca %"class.std::__cxx11::basic_string", align 8
  store ptr %0, ptr %3, align 8
  call void @llvm.dbg.declare(metadata ptr %3, metadata !5718, metadata !DIExpression()), !dbg !5719
  call void @llvm.dbg.declare(metadata ptr %4, metadata !5720, metadata !DIExpression()), !dbg !5721
  %29 = load ptr, ptr %3, align 8, !dbg !5722
  call void @_ZN3net18resolveHostAddressERKNSt7__cxx1112basic_stringIcSt11char_traitsIcESaIcEEE(ptr sret(%"class.std::__cxx11::basic_string") align 8 %4, ptr noundef nonnull align 8 dereferenceable(32) %29), !dbg !5723
  call void @llvm.dbg.declare(metadata ptr %5, metadata !5724, metadata !DIExpression()), !dbg !5728
  invoke void @_ZN4Poco3Net16NetworkInterface4listEbb(ptr sret(%"class.std::vector") align 8 %5, i1 noundef zeroext true, i1 noundef zeroext true)
          to label %30 unwind label %101, !dbg !5729

30:                                               ; preds = %1
  call void @llvm.dbg.declare(metadata ptr %8, metadata !5730, metadata !DIExpression()), !dbg !5733
  store ptr %5, ptr %8, align 8, !dbg !5734
  call void @llvm.dbg.declare(metadata ptr %9, metadata !5735, metadata !DIExpression()), !dbg !5733
  %31 = load ptr, ptr %8, align 8, !dbg !5736
  %32 = call ptr @_ZNKSt6vectorIN4Poco3Net16NetworkInterfaceESaIS2_EE5beginEv(ptr noundef nonnull align 8 dereferenceable(24) %31) #3, !dbg !5736
  %33 = getelementptr inbounds %"class.__gnu_cxx::__normal_iterator", ptr %9, i32 0, i32 0, !dbg !5736
  store ptr %32, ptr %33, align 8, !dbg !5736
  call void @llvm.dbg.declare(metadata ptr %10, metadata !5737, metadata !DIExpression()), !dbg !5733
  %34 = load ptr, ptr %8, align 8, !dbg !5736
  %35 = call ptr @_ZNKSt6vectorIN4Poco3Net16NetworkInterfaceESaIS2_EE3endEv(ptr noundef nonnull align 8 dereferenceable(24) %34) #3, !dbg !5736
  %36 = getelementptr inbounds %"class.__gnu_cxx::__normal_iterator", ptr %10, i32 0, i32 0, !dbg !5736
  store ptr %35, ptr %36, align 8, !dbg !5736
  br label %37, !dbg !5736

37:                                               ; preds = %143, %30
  %38 = call noundef zeroext i1 @_ZN9__gnu_cxxneIPKN4Poco3Net16NetworkInterfaceESt6vectorIS3_SaIS3_EEEEbRKNS_17__normal_iteratorIT_T0_EESE_(ptr noundef nonnull align 8 dereferenceable(8) %9, ptr noundef nonnull align 8 dereferenceable(8) %10) #3, !dbg !5736
  br i1 %38, label %39, label %146, !dbg !5736

39:                                               ; preds = %37
  call void @llvm.dbg.declare(metadata ptr %11, metadata !5738, metadata !DIExpression()), !dbg !5740
  %40 = call noundef nonnull align 8 dereferenceable(8) ptr @_ZNK9__gnu_cxx17__normal_iteratorIPKN4Poco3Net16NetworkInterfaceESt6vectorIS3_SaIS3_EEEdeEv(ptr noundef nonnull align 8 dereferenceable(8) %9) #3, !dbg !5741
  store ptr %40, ptr %11, align 8, !dbg !5740
  call void @llvm.dbg.declare(metadata ptr %12, metadata !5742, metadata !DIExpression()), !dbg !5744
  %41 = load ptr, ptr %11, align 8, !dbg !5745
  %42 = invoke noundef nonnull align 8 dereferenceable(8) ptr @_ZNK4Poco3Net16NetworkInterface7addressEj(ptr noundef nonnull align 8 dereferenceable(8) %41, i32 noundef 0)
          to label %43 unwind label %105, !dbg !5746

43:                                               ; preds = %39
  invoke void @_ZNK4Poco3Net9IPAddress8toStringB5cxx11Ev(ptr sret(%"class.std::__cxx11::basic_string") align 8 %12, ptr noundef nonnull align 8 dereferenceable(8) %42)
          to label %44 unwind label %105, !dbg !5747

44:                                               ; preds = %43
  %45 = call noundef i64 @_ZNKSt7__cxx1112basic_stringIcSt11char_traitsIcESaIcEE4findEcm(ptr noundef nonnull align 8 dereferenceable(32) %12, i8 noundef signext 37, i64 noundef 0) #3, !dbg !5748
  invoke void @_ZNKSt7__cxx1112basic_stringIcSt11char_traitsIcESaIcEE6substrEmm(ptr sret(%"class.std::__cxx11::basic_string") align 8 %13, ptr noundef nonnull align 8 dereferenceable(32) %12, i64 noundef 0, i64 noundef %45)
          to label %46 unwind label %109, !dbg !5749

46:                                               ; preds = %44
  %47 = call noundef nonnull align 8 dereferenceable(32) ptr @_ZNSt7__cxx1112basic_stringIcSt11char_traitsIcESaIcEEaSEOS4_(ptr noundef nonnull align 8 dereferenceable(32) %12, ptr noundef nonnull align 8 dereferenceable(32) %13) #3, !dbg !5750
  call void @_ZNSt7__cxx1112basic_stringIcSt11char_traitsIcESaIcEED1Ev(ptr noundef nonnull align 8 dereferenceable(32) %13) #3, !dbg !5751
  %48 = call noundef zeroext i1 @_ZSteqIcEN9__gnu_cxx11__enable_ifIXsr9__is_charIT_EE7__valueEbE6__typeERKNSt7__cxx1112basic_stringIS2_St11char_traitsIS2_ESaIS2_EEESC_(ptr noundef nonnull align 8 dereferenceable(32) %12, ptr noundef nonnull align 8 dereferenceable(32) %4) #3, !dbg !5752
  br i1 %48, label %49, label %139, !dbg !5754

49:                                               ; preds = %46
  br label %50, !dbg !5755

50:                                               ; preds = %49
  call void @llvm.dbg.declare(metadata ptr %14, metadata !5757, metadata !DIExpression()), !dbg !5759
  %51 = invoke noundef nonnull align 8 dereferenceable(68) ptr @_ZN3Log6loggerEv()
          to label %52 unwind label %109, !dbg !5759

52:                                               ; preds = %50
  store ptr %51, ptr %14, align 8, !dbg !5759
  %53 = invoke noundef zeroext i1 @_ZN3Log16isShutdownCalledEv()
          to label %54 unwind label %109, !dbg !5760

54:                                               ; preds = %52
  br i1 %53, label %136, label %55, !dbg !5760

55:                                               ; preds = %54
  %56 = load ptr, ptr %14, align 8, !dbg !5760
  %57 = invoke noundef zeroext i1 @_ZNK4Poco6Logger5traceEv(ptr noundef nonnull align 8 dereferenceable(68) %56)
          to label %58 unwind label %109, !dbg !5760

58:                                               ; preds = %55
  br i1 %57, label %59, label %136, !dbg !5759

59:                                               ; preds = %58
  call void @llvm.dbg.declare(metadata ptr %15, metadata !5762, metadata !DIExpression()), !dbg !5764
  call void @llvm.dbg.declare(metadata ptr %16, metadata !5765, metadata !DIExpression()), !dbg !5764
  %60 = getelementptr inbounds [1024 x i8], ptr %15, i64 0, i64 0, !dbg !5764
  %61 = invoke noundef ptr @_ZN3Log6prefixILi1023EEEPcS1_PKc(ptr noundef %60, ptr noundef @.str.7)
          to label %62 unwind label %109, !dbg !5764

62:                                               ; preds = %59
  call void @_ZNSaIcEC1Ev(ptr noundef nonnull align 1 dereferenceable(1) %18) #3, !dbg !5764
  invoke void @_ZNSt7__cxx1112basic_stringIcSt11char_traitsIcESaIcEEC2IS3_EEPKcRKS3_(ptr noundef nonnull align 8 dereferenceable(32) %17, ptr noundef %61, ptr noundef nonnull align 1 dereferenceable(1) %18)
          to label %63 unwind label %113, !dbg !5764

63:                                               ; preds = %62
  invoke void @_ZNSt7__cxx1119basic_ostringstreamIcSt11char_traitsIcESaIcEEC1ERKNS_12basic_stringIcS2_S3_EESt13_Ios_Openmode(ptr noundef nonnull align 8 dereferenceable(112) %16, ptr noundef nonnull align 8 dereferenceable(32) %17, i32 noundef 2)
          to label %64 unwind label %117, !dbg !5764

64:                                               ; preds = %63
  call void @_ZNSt7__cxx1112basic_stringIcSt11char_traitsIcESaIcEED1Ev(ptr noundef nonnull align 8 dereferenceable(32) %17) #3, !dbg !5764
  call void @_ZNSaIcED1Ev(ptr noundef nonnull align 1 dereferenceable(1) %18) #3, !dbg !5764
  %65 = invoke noundef nonnull align 8 dereferenceable(8) ptr @_ZNSolsEPFRSt8ios_baseS0_E(ptr noundef nonnull align 8 dereferenceable(8) %16, ptr noundef @_ZSt9boolalphaRSt8ios_base)
          to label %66 unwind label %122, !dbg !5764

66:                                               ; preds = %64
  %67 = invoke noundef nonnull align 8 dereferenceable(8) ptr @_ZStlsISt11char_traitsIcEERSt13basic_ostreamIcT_ES5_PKc(ptr noundef nonnull align 8 dereferenceable(8) %65, ptr noundef @.str.8)
          to label %68 unwind label %122, !dbg !5764

68:                                               ; preds = %66
  %69 = load ptr, ptr %3, align 8, !dbg !5764
  %70 = invoke noundef nonnull align 8 dereferenceable(8) ptr @_ZStlsIcSt11char_traitsIcESaIcEERSt13basic_ostreamIT_T0_ES7_RKNSt7__cxx1112basic_stringIS4_S5_T1_EE(ptr noundef nonnull align 8 dereferenceable(8) %67, ptr noundef nonnull align 8 dereferenceable(32) %69)
          to label %71 unwind label %122, !dbg !5764

71:                                               ; preds = %68
  %72 = invoke noundef nonnull align 8 dereferenceable(8) ptr @_ZStlsISt11char_traitsIcEERSt13basic_ostreamIcT_ES5_PKc(ptr noundef nonnull align 8 dereferenceable(8) %70, ptr noundef @.str.9)
          to label %73 unwind label %122, !dbg !5764

73:                                               ; preds = %71
  %74 = invoke noundef nonnull align 8 dereferenceable(8) ptr @_ZStlsIcSt11char_traitsIcESaIcEERSt13basic_ostreamIT_T0_ES7_RKNSt7__cxx1112basic_stringIS4_S5_T1_EE(ptr noundef nonnull align 8 dereferenceable(8) %72, ptr noundef nonnull align 8 dereferenceable(32) %4)
          to label %75 unwind label %122, !dbg !5764

75:                                               ; preds = %73
  %76 = invoke noundef nonnull align 8 dereferenceable(8) ptr @_ZStlsISt11char_traitsIcEERSt13basic_ostreamIcT_ES5_PKc(ptr noundef nonnull align 8 dereferenceable(8) %74, ptr noundef @.str.10)
          to label %77 unwind label %122, !dbg !5764

77:                                               ; preds = %75
  br label %78, !dbg !5764

78:                                               ; preds = %77
  %79 = invoke noundef nonnull align 8 dereferenceable(8) ptr @_ZStlsISt11char_traitsIcEERSt13basic_ostreamIcT_ES5_PKc(ptr noundef nonnull align 8 dereferenceable(8) %16, ptr noundef @.str.4)
          to label %80 unwind label %122, !dbg !5766

80:                                               ; preds = %78
  %81 = invoke noundef nonnull align 8 dereferenceable(8) ptr @_ZStlsISt11char_traitsIcEERSt13basic_ostreamIcT_ES5_PKc(ptr noundef nonnull align 8 dereferenceable(8) %79, ptr noundef @.str.5)
          to label %82 unwind label %122, !dbg !5766

82:                                               ; preds = %80
  %83 = invoke noundef nonnull align 8 dereferenceable(8) ptr @_ZStlsISt11char_traitsIcEERSt13basic_ostreamIcT_ES5_c(ptr noundef nonnull align 8 dereferenceable(8) %81, i8 noundef signext 58)
          to label %84 unwind label %122, !dbg !5766

84:                                               ; preds = %82
  %85 = invoke noundef nonnull align 8 dereferenceable(8) ptr @_ZNSolsEi(ptr noundef nonnull align 8 dereferenceable(8) %83, i32 noundef 68)
          to label %86 unwind label %122, !dbg !5766

86:                                               ; preds = %84
  %87 = invoke noundef nonnull align 8 dereferenceable(8) ptr @_ZNSo5flushEv(ptr noundef nonnull align 8 dereferenceable(8) %16)
          to label %88 unwind label %122, !dbg !5769

88:                                               ; preds = %86
  br label %89, !dbg !5769

89:                                               ; preds = %88
  br label %90, !dbg !5769

90:                                               ; preds = %89
  %91 = load ptr, ptr %14, align 8, !dbg !5764
  %92 = load ptr, ptr %14, align 8, !dbg !5764
  %93 = invoke noundef nonnull align 8 dereferenceable(32) ptr @_ZNK4Poco6Logger4nameB5cxx11Ev(ptr noundef nonnull align 8 dereferenceable(68) %92)
          to label %94 unwind label %122, !dbg !5764

94:                                               ; preds = %90
  invoke void @_ZNKSt7__cxx1119basic_ostringstreamIcSt11char_traitsIcESaIcEE3strEv(ptr sret(%"class.std::__cxx11::basic_string") align 8 %20, ptr noundef nonnull align 8 dereferenceable(112) %16)
          to label %95 unwind label %122, !dbg !5764

95:                                               ; preds = %94
  invoke void @_ZN4Poco7MessageC1ERKNSt7__cxx1112basic_stringIcSt11char_traitsIcESaIcEEES8_NS0_8PriorityE(ptr noundef nonnull align 8 dereferenceable(152) %19, ptr noundef nonnull align 8 dereferenceable(32) %93, ptr noundef nonnull align 8 dereferenceable(32) %20, i32 noundef 8)
          to label %96 unwind label %126, !dbg !5764

96:                                               ; preds = %95
  %97 = load ptr, ptr %91, align 8, !dbg !5764
  %98 = getelementptr inbounds ptr, ptr %97, i64 6, !dbg !5764
  %99 = load ptr, ptr %98, align 8, !dbg !5764
  invoke void %99(ptr noundef nonnull align 8 dereferenceable(68) %91, ptr noundef nonnull align 8 dereferenceable(152) %19)
          to label %100 unwind label %130, !dbg !5764

100:                                              ; preds = %96
  call void @_ZN4Poco7MessageD1Ev(ptr noundef nonnull align 8 dereferenceable(152) %19) #3, !dbg !5764
  call void @_ZNSt7__cxx1112basic_stringIcSt11char_traitsIcESaIcEED1Ev(ptr noundef nonnull align 8 dereferenceable(32) %20) #3, !dbg !5764
  call void @_ZNSt7__cxx1119basic_ostringstreamIcSt11char_traitsIcESaIcEED1Ev(ptr noundef nonnull align 8 dereferenceable(112) %16) #3, !dbg !5760
  br label %136, !dbg !5764

101:                                              ; preds = %1
  %102 = landingpad { ptr, i32 }
          cleanup, !dbg !5770
  %103 = extractvalue { ptr, i32 } %102, 0, !dbg !5770
  store ptr %103, ptr %6, align 8, !dbg !5770
  %104 = extractvalue { ptr, i32 } %102, 1, !dbg !5770
  store i32 %104, ptr %7, align 4, !dbg !5770
  br label %227, !dbg !5770

105:                                              ; preds = %156, %152, %149, %147, %43, %39
  %106 = landingpad { ptr, i32 }
          cleanup, !dbg !5771
  %107 = extractvalue { ptr, i32 } %106, 0, !dbg !5771
  store ptr %107, ptr %6, align 8, !dbg !5771
  %108 = extractvalue { ptr, i32 } %106, 1, !dbg !5771
  store i32 %108, ptr %7, align 4, !dbg !5771
  br label %226, !dbg !5771

109:                                              ; preds = %59, %55, %52, %50, %44
  %110 = landingpad { ptr, i32 }
          cleanup, !dbg !5771
  %111 = extractvalue { ptr, i32 } %110, 0, !dbg !5771
  store ptr %111, ptr %6, align 8, !dbg !5771
  %112 = extractvalue { ptr, i32 } %110, 1, !dbg !5771
  store i32 %112, ptr %7, align 4, !dbg !5771
  br label %145, !dbg !5771

113:                                              ; preds = %62
  %114 = landingpad { ptr, i32 }
          cleanup, !dbg !5772
  %115 = extractvalue { ptr, i32 } %114, 0, !dbg !5772
  store ptr %115, ptr %6, align 8, !dbg !5772
  %116 = extractvalue { ptr, i32 } %114, 1, !dbg !5772
  store i32 %116, ptr %7, align 4, !dbg !5772
  br label %121, !dbg !5772

117:                                              ; preds = %63
  %118 = landingpad { ptr, i32 }
          cleanup, !dbg !5772
  %119 = extractvalue { ptr, i32 } %118, 0, !dbg !5772
  store ptr %119, ptr %6, align 8, !dbg !5772
  %120 = extractvalue { ptr, i32 } %118, 1, !dbg !5772
  store i32 %120, ptr %7, align 4, !dbg !5772
  call void @_ZNSt7__cxx1112basic_stringIcSt11char_traitsIcESaIcEED1Ev(ptr noundef nonnull align 8 dereferenceable(32) %17) #3, !dbg !5764
  br label %121, !dbg !5764

121:                                              ; preds = %117, %113
  call void @_ZNSaIcED1Ev(ptr noundef nonnull align 1 dereferenceable(1) %18) #3, !dbg !5764
  br label %145, !dbg !5764

122:                                              ; preds = %94, %90, %86, %84, %82, %80, %78, %75, %73, %71, %68, %66, %64
  %123 = landingpad { ptr, i32 }
          cleanup, !dbg !5772
  %124 = extractvalue { ptr, i32 } %123, 0, !dbg !5772
  store ptr %124, ptr %6, align 8, !dbg !5772
  %125 = extractvalue { ptr, i32 } %123, 1, !dbg !5772
  store i32 %125, ptr %7, align 4, !dbg !5772
  br label %135, !dbg !5772

126:                                              ; preds = %95
  %127 = landingpad { ptr, i32 }
          cleanup, !dbg !5772
  %128 = extractvalue { ptr, i32 } %127, 0, !dbg !5772
  store ptr %128, ptr %6, align 8, !dbg !5772
  %129 = extractvalue { ptr, i32 } %127, 1, !dbg !5772
  store i32 %129, ptr %7, align 4, !dbg !5772
  br label %134, !dbg !5772

130:                                              ; preds = %96
  %131 = landingpad { ptr, i32 }
          cleanup, !dbg !5772
  %132 = extractvalue { ptr, i32 } %131, 0, !dbg !5772
  store ptr %132, ptr %6, align 8, !dbg !5772
  %133 = extractvalue { ptr, i32 } %131, 1, !dbg !5772
  store i32 %133, ptr %7, align 4, !dbg !5772
  call void @_ZN4Poco7MessageD1Ev(ptr noundef nonnull align 8 dereferenceable(152) %19) #3, !dbg !5764
  br label %134, !dbg !5764

134:                                              ; preds = %130, %126
  call void @_ZNSt7__cxx1112basic_stringIcSt11char_traitsIcESaIcEED1Ev(ptr noundef nonnull align 8 dereferenceable(32) %20) #3, !dbg !5764
  br label %135, !dbg !5764

135:                                              ; preds = %134, %122
  call void @_ZNSt7__cxx1119basic_ostringstreamIcSt11char_traitsIcESaIcEED1Ev(ptr noundef nonnull align 8 dereferenceable(112) %16) #3, !dbg !5760
  br label %145, !dbg !5760

136:                                              ; preds = %100, %58, %54
  br label %137, !dbg !5759

137:                                              ; preds = %136
  br label %138, !dbg !5759

138:                                              ; preds = %137
  store i1 true, ptr %2, align 1, !dbg !5773
  store i32 1, ptr %21, align 4
  br label %140, !dbg !5773

139:                                              ; preds = %46
  store i32 0, ptr %21, align 4, !dbg !5774
  br label %140, !dbg !5774

140:                                              ; preds = %139, %138
  call void @_ZNSt7__cxx1112basic_stringIcSt11char_traitsIcESaIcEED1Ev(ptr noundef nonnull align 8 dereferenceable(32) %12) #3, !dbg !5774
  %141 = load i32, ptr %21, align 4
  switch i32 %141, label %224 [
    i32 0, label %142
  ]

142:                                              ; preds = %140
  br label %143, !dbg !5775

143:                                              ; preds = %142
  %144 = call noundef nonnull align 8 dereferenceable(8) ptr @_ZN9__gnu_cxx17__normal_iteratorIPKN4Poco3Net16NetworkInterfaceESt6vectorIS3_SaIS3_EEEppEv(ptr noundef nonnull align 8 dereferenceable(8) %9) #3, !dbg !5736
  br label %37, !dbg !5736, !llvm.loop !5776

145:                                              ; preds = %135, %121, %109
  call void @_ZNSt7__cxx1112basic_stringIcSt11char_traitsIcESaIcEED1Ev(ptr noundef nonnull align 8 dereferenceable(32) %12) #3, !dbg !5774
  br label %226, !dbg !5774

146:                                              ; preds = %37
  br label %147, !dbg !5778

147:                                              ; preds = %146
  call void @llvm.dbg.declare(metadata ptr %22, metadata !5779, metadata !DIExpression()), !dbg !5781
  %148 = invoke noundef nonnull align 8 dereferenceable(68) ptr @_ZN3Log6loggerEv()
          to label %149 unwind label %105, !dbg !5781

149:                                              ; preds = %147
  store ptr %148, ptr %22, align 8, !dbg !5781
  %150 = invoke noundef zeroext i1 @_ZN3Log16isShutdownCalledEv()
          to label %151 unwind label %105, !dbg !5782

151:                                              ; preds = %149
  br i1 %150, label %221, label %152, !dbg !5782

152:                                              ; preds = %151
  %153 = load ptr, ptr %22, align 8, !dbg !5782
  %154 = invoke noundef zeroext i1 @_ZNK4Poco6Logger5traceEv(ptr noundef nonnull align 8 dereferenceable(68) %153)
          to label %155 unwind label %105, !dbg !5782

155:                                              ; preds = %152
  br i1 %154, label %156, label %221, !dbg !5781

156:                                              ; preds = %155
  call void @llvm.dbg.declare(metadata ptr %23, metadata !5784, metadata !DIExpression()), !dbg !5786
  call void @llvm.dbg.declare(metadata ptr %24, metadata !5787, metadata !DIExpression()), !dbg !5786
  %157 = getelementptr inbounds [1024 x i8], ptr %23, i64 0, i64 0, !dbg !5786
  %158 = invoke noundef ptr @_ZN3Log6prefixILi1023EEEPcS1_PKc(ptr noundef %157, ptr noundef @.str.7)
          to label %159 unwind label %105, !dbg !5786

159:                                              ; preds = %156
  call void @_ZNSaIcEC1Ev(ptr noundef nonnull align 1 dereferenceable(1) %26) #3, !dbg !5786
  invoke void @_ZNSt7__cxx1112basic_stringIcSt11char_traitsIcESaIcEEC2IS3_EEPKcRKS3_(ptr noundef nonnull align 8 dereferenceable(32) %25, ptr noundef %158, ptr noundef nonnull align 1 dereferenceable(1) %26)
          to label %160 unwind label %198, !dbg !5786

160:                                              ; preds = %159
  invoke void @_ZNSt7__cxx1119basic_ostringstreamIcSt11char_traitsIcESaIcEEC1ERKNS_12basic_stringIcS2_S3_EESt13_Ios_Openmode(ptr noundef nonnull align 8 dereferenceable(112) %24, ptr noundef nonnull align 8 dereferenceable(32) %25, i32 noundef 2)
          to label %161 unwind label %202, !dbg !5786

161:                                              ; preds = %160
  call void @_ZNSt7__cxx1112basic_stringIcSt11char_traitsIcESaIcEED1Ev(ptr noundef nonnull align 8 dereferenceable(32) %25) #3, !dbg !5786
  call void @_ZNSaIcED1Ev(ptr noundef nonnull align 1 dereferenceable(1) %26) #3, !dbg !5786
  %162 = invoke noundef nonnull align 8 dereferenceable(8) ptr @_ZNSolsEPFRSt8ios_baseS0_E(ptr noundef nonnull align 8 dereferenceable(8) %24, ptr noundef @_ZSt9boolalphaRSt8ios_base)
          to label %163 unwind label %207, !dbg !5786

163:                                              ; preds = %161
  %164 = invoke noundef nonnull align 8 dereferenceable(8) ptr @_ZStlsISt11char_traitsIcEERSt13basic_ostreamIcT_ES5_PKc(ptr noundef nonnull align 8 dereferenceable(8) %162, ptr noundef @.str.8)
          to label %165 unwind label %207, !dbg !5786

165:                                              ; preds = %163
  %166 = load ptr, ptr %3, align 8, !dbg !5786
  %167 = invoke noundef nonnull align 8 dereferenceable(8) ptr @_ZStlsIcSt11char_traitsIcESaIcEERSt13basic_ostreamIT_T0_ES7_RKNSt7__cxx1112basic_stringIS4_S5_T1_EE(ptr noundef nonnull align 8 dereferenceable(8) %164, ptr noundef nonnull align 8 dereferenceable(32) %166)
          to label %168 unwind label %207, !dbg !5786

168:                                              ; preds = %165
  %169 = invoke noundef nonnull align 8 dereferenceable(8) ptr @_ZStlsISt11char_traitsIcEERSt13basic_ostreamIcT_ES5_PKc(ptr noundef nonnull align 8 dereferenceable(8) %167, ptr noundef @.str.11)
          to label %170 unwind label %207, !dbg !5786

170:                                              ; preds = %168
  %171 = invoke noundef nonnull align 8 dereferenceable(8) ptr @_ZStlsIcSt11char_traitsIcESaIcEERSt13basic_ostreamIT_T0_ES7_RKNSt7__cxx1112basic_stringIS4_S5_T1_EE(ptr noundef nonnull align 8 dereferenceable(8) %169, ptr noundef nonnull align 8 dereferenceable(32) %4)
          to label %172 unwind label %207, !dbg !5786

172:                                              ; preds = %170
  %173 = invoke noundef nonnull align 8 dereferenceable(8) ptr @_ZStlsISt11char_traitsIcEERSt13basic_ostreamIcT_ES5_PKc(ptr noundef nonnull align 8 dereferenceable(8) %171, ptr noundef @.str.10)
          to label %174 unwind label %207, !dbg !5786

174:                                              ; preds = %172
  br label %175, !dbg !5786

175:                                              ; preds = %174
  %176 = invoke noundef nonnull align 8 dereferenceable(8) ptr @_ZStlsISt11char_traitsIcEERSt13basic_ostreamIcT_ES5_PKc(ptr noundef nonnull align 8 dereferenceable(8) %24, ptr noundef @.str.4)
          to label %177 unwind label %207, !dbg !5788

177:                                              ; preds = %175
  %178 = invoke noundef nonnull align 8 dereferenceable(8) ptr @_ZStlsISt11char_traitsIcEERSt13basic_ostreamIcT_ES5_PKc(ptr noundef nonnull align 8 dereferenceable(8) %176, ptr noundef @.str.5)
          to label %179 unwind label %207, !dbg !5788

179:                                              ; preds = %177
  %180 = invoke noundef nonnull align 8 dereferenceable(8) ptr @_ZStlsISt11char_traitsIcEERSt13basic_ostreamIcT_ES5_c(ptr noundef nonnull align 8 dereferenceable(8) %178, i8 noundef signext 58)
          to label %181 unwind label %207, !dbg !5788

181:                                              ; preds = %179
  %182 = invoke noundef nonnull align 8 dereferenceable(8) ptr @_ZNSolsEi(ptr noundef nonnull align 8 dereferenceable(8) %180, i32 noundef 74)
          to label %183 unwind label %207, !dbg !5788

183:                                              ; preds = %181
  %184 = invoke noundef nonnull align 8 dereferenceable(8) ptr @_ZNSo5flushEv(ptr noundef nonnull align 8 dereferenceable(8) %24)
          to label %185 unwind label %207, !dbg !5791

185:                                              ; preds = %183
  br label %186, !dbg !5791

186:                                              ; preds = %185
  br label %187, !dbg !5791

187:                                              ; preds = %186
  %188 = load ptr, ptr %22, align 8, !dbg !5786
  %189 = load ptr, ptr %22, align 8, !dbg !5786
  %190 = invoke noundef nonnull align 8 dereferenceable(32) ptr @_ZNK4Poco6Logger4nameB5cxx11Ev(ptr noundef nonnull align 8 dereferenceable(68) %189)
          to label %191 unwind label %207, !dbg !5786

191:                                              ; preds = %187
  invoke void @_ZNKSt7__cxx1119basic_ostringstreamIcSt11char_traitsIcESaIcEE3strEv(ptr sret(%"class.std::__cxx11::basic_string") align 8 %28, ptr noundef nonnull align 8 dereferenceable(112) %24)
          to label %192 unwind label %207, !dbg !5786

192:                                              ; preds = %191
  invoke void @_ZN4Poco7MessageC1ERKNSt7__cxx1112basic_stringIcSt11char_traitsIcESaIcEEES8_NS0_8PriorityE(ptr noundef nonnull align 8 dereferenceable(152) %27, ptr noundef nonnull align 8 dereferenceable(32) %190, ptr noundef nonnull align 8 dereferenceable(32) %28, i32 noundef 8)
          to label %193 unwind label %211, !dbg !5786

193:                                              ; preds = %192
  %194 = load ptr, ptr %188, align 8, !dbg !5786
  %195 = getelementptr inbounds ptr, ptr %194, i64 6, !dbg !5786
  %196 = load ptr, ptr %195, align 8, !dbg !5786
  invoke void %196(ptr noundef nonnull align 8 dereferenceable(68) %188, ptr noundef nonnull align 8 dereferenceable(152) %27)
          to label %197 unwind label %215, !dbg !5786

197:                                              ; preds = %193
  call void @_ZN4Poco7MessageD1Ev(ptr noundef nonnull align 8 dereferenceable(152) %27) #3, !dbg !5786
  call void @_ZNSt7__cxx1112basic_stringIcSt11char_traitsIcESaIcEED1Ev(ptr noundef nonnull align 8 dereferenceable(32) %28) #3, !dbg !5786
  call void @_ZNSt7__cxx1119basic_ostringstreamIcSt11char_traitsIcESaIcEED1Ev(ptr noundef nonnull align 8 dereferenceable(112) %24) #3, !dbg !5782
  br label %221, !dbg !5786

198:                                              ; preds = %159
  %199 = landingpad { ptr, i32 }
          cleanup, !dbg !5792
  %200 = extractvalue { ptr, i32 } %199, 0, !dbg !5792
  store ptr %200, ptr %6, align 8, !dbg !5792
  %201 = extractvalue { ptr, i32 } %199, 1, !dbg !5792
  store i32 %201, ptr %7, align 4, !dbg !5792
  br label %206, !dbg !5792

202:                                              ; preds = %160
  %203 = landingpad { ptr, i32 }
          cleanup, !dbg !5792
  %204 = extractvalue { ptr, i32 } %203, 0, !dbg !5792
  store ptr %204, ptr %6, align 8, !dbg !5792
  %205 = extractvalue { ptr, i32 } %203, 1, !dbg !5792
  store i32 %205, ptr %7, align 4, !dbg !5792
  call void @_ZNSt7__cxx1112basic_stringIcSt11char_traitsIcESaIcEED1Ev(ptr noundef nonnull align 8 dereferenceable(32) %25) #3, !dbg !5786
  br label %206, !dbg !5786

206:                                              ; preds = %202, %198
  call void @_ZNSaIcED1Ev(ptr noundef nonnull align 1 dereferenceable(1) %26) #3, !dbg !5786
  br label %226, !dbg !5786

207:                                              ; preds = %191, %187, %183, %181, %179, %177, %175, %172, %170, %168, %165, %163, %161
  %208 = landingpad { ptr, i32 }
          cleanup, !dbg !5792
  %209 = extractvalue { ptr, i32 } %208, 0, !dbg !5792
  store ptr %209, ptr %6, align 8, !dbg !5792
  %210 = extractvalue { ptr, i32 } %208, 1, !dbg !5792
  store i32 %210, ptr %7, align 4, !dbg !5792
  br label %220, !dbg !5792

211:                                              ; preds = %192
  %212 = landingpad { ptr, i32 }
          cleanup, !dbg !5792
  %213 = extractvalue { ptr, i32 } %212, 0, !dbg !5792
  store ptr %213, ptr %6, align 8, !dbg !5792
  %214 = extractvalue { ptr, i32 } %212, 1, !dbg !5792
  store i32 %214, ptr %7, align 4, !dbg !5792
  br label %219, !dbg !5792

215:                                              ; preds = %193
  %216 = landingpad { ptr, i32 }
          cleanup, !dbg !5792
  %217 = extractvalue { ptr, i32 } %216, 0, !dbg !5792
  store ptr %217, ptr %6, align 8, !dbg !5792
  %218 = extractvalue { ptr, i32 } %216, 1, !dbg !5792
  store i32 %218, ptr %7, align 4, !dbg !5792
  call void @_ZN4Poco7MessageD1Ev(ptr noundef nonnull align 8 dereferenceable(152) %27) #3, !dbg !5786
  br label %219, !dbg !5786

219:                                              ; preds = %215, %211
  call void @_ZNSt7__cxx1112basic_stringIcSt11char_traitsIcESaIcEED1Ev(ptr noundef nonnull align 8 dereferenceable(32) %28) #3, !dbg !5786
  br label %220, !dbg !5786

220:                                              ; preds = %219, %207
  call void @_ZNSt7__cxx1119basic_ostringstreamIcSt11char_traitsIcESaIcEED1Ev(ptr noundef nonnull align 8 dereferenceable(112) %24) #3, !dbg !5782
  br label %226, !dbg !5782

221:                                              ; preds = %197, %155, %151
  br label %222, !dbg !5781

222:                                              ; preds = %221
  br label %223, !dbg !5781

223:                                              ; preds = %222
  store i1 false, ptr %2, align 1, !dbg !5793
  store i32 1, ptr %21, align 4
  br label %224, !dbg !5793

224:                                              ; preds = %223, %140
  call void @_ZNSt6vectorIN4Poco3Net16NetworkInterfaceESaIS2_EED2Ev(ptr noundef nonnull align 8 dereferenceable(24) %5) #3, !dbg !5770
  call void @_ZNSt7__cxx1112basic_stringIcSt11char_traitsIcESaIcEED1Ev(ptr noundef nonnull align 8 dereferenceable(32) %4) #3, !dbg !5770
  %225 = load i1, ptr %2, align 1, !dbg !5770
  ret i1 %225, !dbg !5770

226:                                              ; preds = %220, %206, %145, %105
  call void @_ZNSt6vectorIN4Poco3Net16NetworkInterfaceESaIS2_EED2Ev(ptr noundef nonnull align 8 dereferenceable(24) %5) #3, !dbg !5770
  br label %227, !dbg !5770

227:                                              ; preds = %226, %101
  call void @_ZNSt7__cxx1112basic_stringIcSt11char_traitsIcESaIcEED1Ev(ptr noundef nonnull align 8 dereferenceable(32) %4) #3, !dbg !5770
  br label %228, !dbg !5770

228:                                              ; preds = %227
  %229 = load ptr, ptr %6, align 8, !dbg !5770
  %230 = load i32, ptr %7, align 4, !dbg !5770
  %231 = insertvalue { ptr, i32 } poison, ptr %229, 0, !dbg !5770
  %232 = insertvalue { ptr, i32 } %231, i32 %230, 1, !dbg !5770
  resume { ptr, i32 } %232, !dbg !5770
}

declare void @_ZN4Poco3Net16NetworkInterface4listEbb(ptr sret(%"class.std::vector") align 8, i1 noundef zeroext, i1 noundef zeroext) #1

; Function Attrs: mustprogress noinline nounwind optnone uwtable
define linkonce_odr dso_local ptr @_ZNKSt6vectorIN4Poco3Net16NetworkInterfaceESaIS2_EE5beginEv(ptr noundef nonnull align 8 dereferenceable(24) %0) #8 comdat align 2 !dbg !5794 {
  %2 = alloca %"class.__gnu_cxx::__normal_iterator", align 8
  %3 = alloca ptr, align 8
  store ptr %0, ptr %3, align 8
  call void @llvm.dbg.declare(metadata ptr %3, metadata !5800, metadata !DIExpression()), !dbg !5802
  %4 = load ptr, ptr %3, align 8
  %5 = getelementptr inbounds %"struct.std::_Vector_base", ptr %4, i32 0, i32 0, !dbg !5803
  %6 = getelementptr inbounds %"struct.std::_Vector_base<Poco::Net::NetworkInterface, std::allocator<Poco::Net::NetworkInterface>>::_Vector_impl_data", ptr %5, i32 0, i32 0, !dbg !5804
  call void @_ZN9__gnu_cxx17__normal_iteratorIPKN4Poco3Net16NetworkInterfaceESt6vectorIS3_SaIS3_EEEC2ERKS5_(ptr noundef nonnull align 8 dereferenceable(8) %2, ptr noundef nonnull align 8 dereferenceable(8) %6) #3, !dbg !5805
  %7 = getelementptr inbounds %"class.__gnu_cxx::__normal_iterator", ptr %2, i32 0, i32 0, !dbg !5806
  %8 = load ptr, ptr %7, align 8, !dbg !5806
  ret ptr %8, !dbg !5806
}

; Function Attrs: mustprogress noinline nounwind optnone uwtable
define linkonce_odr dso_local ptr @_ZNKSt6vectorIN4Poco3Net16NetworkInterfaceESaIS2_EE3endEv(ptr noundef nonnull align 8 dereferenceable(24) %0) #8 comdat align 2 !dbg !5807 {
  %2 = alloca %"class.__gnu_cxx::__normal_iterator", align 8
  %3 = alloca ptr, align 8
  store ptr %0, ptr %3, align 8
  call void @llvm.dbg.declare(metadata ptr %3, metadata !5809, metadata !DIExpression()), !dbg !5810
  %4 = load ptr, ptr %3, align 8
  %5 = getelementptr inbounds %"struct.std::_Vector_base", ptr %4, i32 0, i32 0, !dbg !5811
  %6 = getelementptr inbounds %"struct.std::_Vector_base<Poco::Net::NetworkInterface, std::allocator<Poco::Net::NetworkInterface>>::_Vector_impl_data", ptr %5, i32 0, i32 1, !dbg !5812
  call void @_ZN9__gnu_cxx17__normal_iteratorIPKN4Poco3Net16NetworkInterfaceESt6vectorIS3_SaIS3_EEEC2ERKS5_(ptr noundef nonnull align 8 dereferenceable(8) %2, ptr noundef nonnull align 8 dereferenceable(8) %6) #3, !dbg !5813
  %7 = getelementptr inbounds %"class.__gnu_cxx::__normal_iterator", ptr %2, i32 0, i32 0, !dbg !5814
  %8 = load ptr, ptr %7, align 8, !dbg !5814
  ret ptr %8, !dbg !5814
}

; Function Attrs: mustprogress noinline nounwind optnone uwtable
define linkonce_odr dso_local noundef zeroext i1 @_ZN9__gnu_cxxneIPKN4Poco3Net16NetworkInterfaceESt6vectorIS3_SaIS3_EEEEbRKNS_17__normal_iteratorIT_T0_EESE_(ptr noundef nonnull align 8 dereferenceable(8) %0, ptr noundef nonnull align 8 dereferenceable(8) %1) #8 comdat !dbg !5815 {
  %3 = alloca ptr, align 8
  %4 = alloca ptr, align 8
  store ptr %0, ptr %3, align 8
  call void @llvm.dbg.declare(metadata ptr %3, metadata !5819, metadata !DIExpression()), !dbg !5820
  store ptr %1, ptr %4, align 8
  call void @llvm.dbg.declare(metadata ptr %4, metadata !5821, metadata !DIExpression()), !dbg !5822
  %5 = load ptr, ptr %3, align 8, !dbg !5823
  %6 = call noundef nonnull align 8 dereferenceable(8) ptr @_ZNK9__gnu_cxx17__normal_iteratorIPKN4Poco3Net16NetworkInterfaceESt6vectorIS3_SaIS3_EEE4baseEv(ptr noundef nonnull align 8 dereferenceable(8) %5) #3, !dbg !5824
  %7 = load ptr, ptr %6, align 8, !dbg !5824
  %8 = load ptr, ptr %4, align 8, !dbg !5825
  %9 = call noundef nonnull align 8 dereferenceable(8) ptr @_ZNK9__gnu_cxx17__normal_iteratorIPKN4Poco3Net16NetworkInterfaceESt6vectorIS3_SaIS3_EEE4baseEv(ptr noundef nonnull align 8 dereferenceable(8) %8) #3, !dbg !5826
  %10 = load ptr, ptr %9, align 8, !dbg !5826
  %11 = icmp ne ptr %7, %10, !dbg !5827
  ret i1 %11, !dbg !5828
}

; Function Attrs: mustprogress noinline nounwind optnone uwtable
define linkonce_odr dso_local noundef nonnull align 8 dereferenceable(8) ptr @_ZNK9__gnu_cxx17__normal_iteratorIPKN4Poco3Net16NetworkInterfaceESt6vectorIS3_SaIS3_EEEdeEv(ptr noundef nonnull align 8 dereferenceable(8) %0) #8 comdat align 2 !dbg !5829 {
  %2 = alloca ptr, align 8
  store ptr %0, ptr %2, align 8
  call void @llvm.dbg.declare(metadata ptr %2, metadata !5830, metadata !DIExpression()), !dbg !5832
  %3 = load ptr, ptr %2, align 8
  %4 = getelementptr inbounds %"class.__gnu_cxx::__normal_iterator", ptr %3, i32 0, i32 0, !dbg !5833
  %5 = load ptr, ptr %4, align 8, !dbg !5833
  ret ptr %5, !dbg !5834
}

declare noundef nonnull align 8 dereferenceable(8) ptr @_ZNK4Poco3Net16NetworkInterface7addressEj(ptr noundef nonnull align 8 dereferenceable(8), i32 noundef) #1

declare void @_ZNKSt7__cxx1112basic_stringIcSt11char_traitsIcESaIcEE6substrEmm(ptr sret(%"class.std::__cxx11::basic_string") align 8, ptr noundef nonnull align 8 dereferenceable(32), i64 noundef, i64 noundef) #1

; Function Attrs: nounwind
declare noundef i64 @_ZNKSt7__cxx1112basic_stringIcSt11char_traitsIcESaIcEE4findEcm(ptr noundef nonnull align 8 dereferenceable(32), i8 noundef signext, i64 noundef) #2

; Function Attrs: nounwind
declare noundef nonnull align 8 dereferenceable(32) ptr @_ZNSt7__cxx1112basic_stringIcSt11char_traitsIcESaIcEEaSEOS4_(ptr noundef nonnull align 8 dereferenceable(32), ptr noundef nonnull align 8 dereferenceable(32)) #2

; Function Attrs: mustprogress noinline nounwind optnone uwtable
define linkonce_odr dso_local noundef zeroext i1 @_ZSteqIcEN9__gnu_cxx11__enable_ifIXsr9__is_charIT_EE7__valueEbE6__typeERKNSt7__cxx1112basic_stringIS2_St11char_traitsIS2_ESaIS2_EEESC_(ptr noundef nonnull align 8 dereferenceable(32) %0, ptr noundef nonnull align 8 dereferenceable(32) %1) #8 comdat personality ptr @__gxx_personality_v0 !dbg !5835 {
  %3 = alloca ptr, align 8
  %4 = alloca ptr, align 8
  store ptr %0, ptr %3, align 8
  call void @llvm.dbg.declare(metadata ptr %3, metadata !5843, metadata !DIExpression()), !dbg !5844
  store ptr %1, ptr %4, align 8
  call void @llvm.dbg.declare(metadata ptr %4, metadata !5845, metadata !DIExpression()), !dbg !5846
  %5 = load ptr, ptr %3, align 8, !dbg !5847
  %6 = call noundef i64 @_ZNKSt7__cxx1112basic_stringIcSt11char_traitsIcESaIcEE4sizeEv(ptr noundef nonnull align 8 dereferenceable(32) %5) #3, !dbg !5848
  %7 = load ptr, ptr %4, align 8, !dbg !5849
  %8 = call noundef i64 @_ZNKSt7__cxx1112basic_stringIcSt11char_traitsIcESaIcEE4sizeEv(ptr noundef nonnull align 8 dereferenceable(32) %7) #3, !dbg !5850
  %9 = icmp eq i64 %6, %8, !dbg !5851
  br i1 %9, label %10, label %21, !dbg !5852

10:                                               ; preds = %2
  %11 = load ptr, ptr %3, align 8, !dbg !5853
  %12 = call noundef ptr @_ZNKSt7__cxx1112basic_stringIcSt11char_traitsIcESaIcEE4dataEv(ptr noundef nonnull align 8 dereferenceable(32) %11) #3, !dbg !5854
  %13 = load ptr, ptr %4, align 8, !dbg !5855
  %14 = call noundef ptr @_ZNKSt7__cxx1112basic_stringIcSt11char_traitsIcESaIcEE4dataEv(ptr noundef nonnull align 8 dereferenceable(32) %13) #3, !dbg !5856
  %15 = load ptr, ptr %3, align 8, !dbg !5857
  %16 = call noundef i64 @_ZNKSt7__cxx1112basic_stringIcSt11char_traitsIcESaIcEE4sizeEv(ptr noundef nonnull align 8 dereferenceable(32) %15) #3, !dbg !5858
  %17 = invoke noundef i32 @_ZNSt11char_traitsIcE7compareEPKcS2_m(ptr noundef %12, ptr noundef %14, i64 noundef %16)
          to label %18 unwind label %23, !dbg !5859

18:                                               ; preds = %10
  %19 = icmp ne i32 %17, 0, !dbg !5859
  %20 = xor i1 %19, true, !dbg !5860
  br label %21

21:                                               ; preds = %18, %2
  %22 = phi i1 [ false, %2 ], [ %20, %18 ], !dbg !5861
  ret i1 %22, !dbg !5862

23:                                               ; preds = %10
  %24 = landingpad { ptr, i32 }
          catch ptr null, !dbg !5859
  %25 = extractvalue { ptr, i32 } %24, 0, !dbg !5859
  call void @__clang_call_terminate(ptr %25) #20, !dbg !5859
  unreachable, !dbg !5859
}

; Function Attrs: mustprogress noinline nounwind optnone uwtable
define linkonce_odr dso_local noundef zeroext i1 @_ZNK4Poco6Logger5traceEv(ptr noundef nonnull align 8 dereferenceable(68) %0) #8 comdat align 2 !dbg !5863 {
  %2 = alloca ptr, align 8
  store ptr %0, ptr %2, align 8
  call void @llvm.dbg.declare(metadata ptr %2, metadata !5865, metadata !DIExpression()), !dbg !5866
  %3 = load ptr, ptr %2, align 8
  %4 = getelementptr inbounds %"class.Poco::Logger", ptr %3, i32 0, i32 4, !dbg !5867
  %5 = load i32, ptr %4, align 8, !dbg !5867
  %6 = icmp sge i32 %5, 8, !dbg !5868
  ret i1 %6, !dbg !5869
}

; Function Attrs: mustprogress noinline nounwind optnone uwtable
define linkonce_odr dso_local noundef nonnull align 8 dereferenceable(8) ptr @_ZN9__gnu_cxx17__normal_iteratorIPKN4Poco3Net16NetworkInterfaceESt6vectorIS3_SaIS3_EEEppEv(ptr noundef nonnull align 8 dereferenceable(8) %0) #8 comdat align 2 !dbg !5870 {
  %2 = alloca ptr, align 8
  store ptr %0, ptr %2, align 8
  call void @llvm.dbg.declare(metadata ptr %2, metadata !5871, metadata !DIExpression()), !dbg !5873
  %3 = load ptr, ptr %2, align 8
  %4 = getelementptr inbounds %"class.__gnu_cxx::__normal_iterator", ptr %3, i32 0, i32 0, !dbg !5874
  %5 = load ptr, ptr %4, align 8, !dbg !5875
  %6 = getelementptr inbounds %"class.Poco::Net::NetworkInterface", ptr %5, i32 1, !dbg !5875
  store ptr %6, ptr %4, align 8, !dbg !5875
  ret ptr %3, !dbg !5876
}

; Function Attrs: noinline nounwind optnone uwtable
define linkonce_odr dso_local void @_ZNSt6vectorIN4Poco3Net16NetworkInterfaceESaIS2_EED2Ev(ptr noundef nonnull align 8 dereferenceable(24) %0) unnamed_addr #4 comdat align 2 personality ptr @__gxx_personality_v0 !dbg !5877 {
  %2 = alloca ptr, align 8
  store ptr %0, ptr %2, align 8
  call void @llvm.dbg.declare(metadata ptr %2, metadata !5882, metadata !DIExpression()), !dbg !5884
  %3 = load ptr, ptr %2, align 8
  %4 = getelementptr inbounds %"struct.std::_Vector_base", ptr %3, i32 0, i32 0, !dbg !5885
  %5 = getelementptr inbounds %"struct.std::_Vector_base<Poco::Net::NetworkInterface, std::allocator<Poco::Net::NetworkInterface>>::_Vector_impl_data", ptr %4, i32 0, i32 0, !dbg !5887
  %6 = load ptr, ptr %5, align 8, !dbg !5887
  %7 = getelementptr inbounds %"struct.std::_Vector_base", ptr %3, i32 0, i32 0, !dbg !5888
  %8 = getelementptr inbounds %"struct.std::_Vector_base<Poco::Net::NetworkInterface, std::allocator<Poco::Net::NetworkInterface>>::_Vector_impl_data", ptr %7, i32 0, i32 1, !dbg !5889
  %9 = load ptr, ptr %8, align 8, !dbg !5889
  %10 = call noundef nonnull align 1 dereferenceable(1) ptr @_ZNSt12_Vector_baseIN4Poco3Net16NetworkInterfaceESaIS2_EE19_M_get_Tp_allocatorEv(ptr noundef nonnull align 8 dereferenceable(24) %3) #3, !dbg !5890
  invoke void @_ZSt8_DestroyIPN4Poco3Net16NetworkInterfaceES2_EvT_S4_RSaIT0_E(ptr noundef %6, ptr noundef %9, ptr noundef nonnull align 1 dereferenceable(1) %10)
          to label %11 unwind label %12, !dbg !5891

11:                                               ; preds = %1
  call void @_ZNSt12_Vector_baseIN4Poco3Net16NetworkInterfaceESaIS2_EED2Ev(ptr noundef nonnull align 8 dereferenceable(24) %3) #3, !dbg !5892
  ret void, !dbg !5893

12:                                               ; preds = %1
  %13 = landingpad { ptr, i32 }
          catch ptr null, !dbg !5891
  %14 = extractvalue { ptr, i32 } %13, 0, !dbg !5891
  call void @__clang_call_terminate(ptr %14) #20, !dbg !5891
  unreachable, !dbg !5891
}

; Function Attrs: mustprogress noinline optnone uwtable
define dso_local void @_ZN3net7connectERKNSt7__cxx1112basic_stringIcSt11char_traitsIcESaIcEEES7_bRKSt10shared_ptrI24ProtocolHandlerInterfaceE(ptr noalias sret(%"class.std::shared_ptr.11") align 8 %0, ptr noundef nonnull align 8 dereferenceable(32) %1, ptr noundef nonnull align 8 dereferenceable(32) %2, i1 noundef zeroext %3, ptr noundef nonnull align 8 dereferenceable(16) %4) #5 personality ptr @__gxx_personality_v0 !dbg !5894 {
  %6 = alloca ptr, align 8
  %7 = alloca ptr, align 8
  %8 = alloca ptr, align 8
  %9 = alloca i8, align 1
  %10 = alloca ptr, align 8
  %11 = alloca i1, align 1
  %12 = alloca ptr, align 8
  %13 = alloca ptr, align 8
  %14 = alloca i32, align 4
  %15 = alloca [1024 x i8], align 16
  %16 = alloca %"class.std::__cxx11::basic_ostringstream", align 8
  %17 = alloca %"class.std::__cxx11::basic_string", align 8
  %18 = alloca %"class.std::allocator", align 1
  %19 = alloca %"class.Poco::Message", align 8
  %20 = alloca %"class.std::__cxx11::basic_string", align 8
  %21 = alloca i32, align 4
  %22 = alloca ptr, align 8
  %23 = alloca [1024 x i8], align 16
  %24 = alloca %"class.std::__cxx11::basic_ostringstream", align 8
  %25 = alloca %"class.std::__cxx11::basic_string", align 8
  %26 = alloca %"class.std::allocator", align 1
  %27 = alloca %"class.Poco::Message", align 8
  %28 = alloca %"class.std::__cxx11::basic_string", align 8
  %29 = alloca ptr, align 8
  %30 = alloca %struct.addrinfo, align 8
  %31 = alloca i32, align 4
  %32 = alloca ptr, align 8
  %33 = alloca %"class.std::__cxx11::basic_string", align 8
  %34 = alloca i32, align 4
  %35 = alloca i32, align 4
  %36 = alloca ptr, align 8
  %37 = alloca [1024 x i8], align 16
  %38 = alloca %"class.std::__cxx11::basic_ostringstream", align 8
  %39 = alloca %"class.std::__cxx11::basic_string", align 8
  %40 = alloca %"class.std::allocator", align 1
  %41 = alloca %"class.std::__cxx11::basic_string", align 8
  %42 = alloca %"class.Poco::Message", align 8
  %43 = alloca %"class.std::__cxx11::basic_string", align 8
  %44 = alloca i32, align 4
  %45 = alloca i32, align 4
  %46 = alloca ptr, align 8
  %47 = alloca [1024 x i8], align 16
  %48 = alloca %"class.std::__cxx11::basic_ostringstream", align 8
  %49 = alloca %"class.std::__cxx11::basic_string", align 8
  %50 = alloca %"class.std::allocator", align 1
  %51 = alloca %"class.std::__cxx11::basic_string", align 8
  %52 = alloca %"class.Poco::Message", align 8
  %53 = alloca %"class.std::__cxx11::basic_string", align 8
  %54 = alloca %"class.std::shared_ptr.21", align 8
  %55 = alloca %"class.std::__cxx11::basic_string", align 8
  %56 = alloca %"class.std::shared_ptr", align 8
  %57 = alloca %"class.std::shared_ptr.11", align 8
  %58 = alloca %"class.std::__cxx11::basic_string", align 8
  %59 = alloca %"class.std::shared_ptr", align 8
  %60 = alloca ptr, align 8
  %61 = alloca [1024 x i8], align 16
  %62 = alloca %"class.std::__cxx11::basic_ostringstream", align 8
  %63 = alloca %"class.std::__cxx11::basic_string", align 8
  %64 = alloca %"class.std::allocator", align 1
  %65 = alloca %"class.Poco::Message", align 8
  %66 = alloca %"class.std::__cxx11::basic_string", align 8
  %67 = alloca i32, align 4
  %68 = alloca ptr, align 8
  %69 = alloca [1024 x i8], align 16
  %70 = alloca %"class.std::__cxx11::basic_ostringstream", align 8
  %71 = alloca %"class.std::__cxx11::basic_string", align 8
  %72 = alloca %"class.std::allocator", align 1
  %73 = alloca %"class.std::__cxx11::basic_string", align 8
  %74 = alloca %"class.Poco::Message", align 8
  %75 = alloca %"class.std::__cxx11::basic_string", align 8
  store ptr %0, ptr %6, align 8
  store ptr %1, ptr %7, align 8
  call void @llvm.dbg.declare(metadata ptr %7, metadata !5897, metadata !DIExpression()), !dbg !5898
  store ptr %2, ptr %8, align 8
  call void @llvm.dbg.declare(metadata ptr %8, metadata !5899, metadata !DIExpression()), !dbg !5900
  %76 = zext i1 %3 to i8
  store i8 %76, ptr %9, align 1
  call void @llvm.dbg.declare(metadata ptr %9, metadata !5901, metadata !DIExpression()), !dbg !5902
  store ptr %4, ptr %10, align 8
  call void @llvm.dbg.declare(metadata ptr %10, metadata !5903, metadata !DIExpression()), !dbg !5904
  store i1 false, ptr %11, align 1, !dbg !5905
  call void @llvm.dbg.declare(metadata ptr %6, metadata !5906, metadata !DIExpression(DW_OP_deref)), !dbg !5907
  call void @_ZNSt10shared_ptrI12StreamSocketEC2Ev(ptr noundef nonnull align 8 dereferenceable(16) %0) #3, !dbg !5907
  %77 = load ptr, ptr %7, align 8, !dbg !5908
  %78 = call noundef zeroext i1 @_ZNKSt7__cxx1112basic_stringIcSt11char_traitsIcESaIcEE5emptyEv(ptr noundef nonnull align 8 dereferenceable(32) %77) #3, !dbg !5910
  br i1 %78, label %82, label %79, !dbg !5911

79:                                               ; preds = %5
  %80 = load ptr, ptr %8, align 8, !dbg !5912
  %81 = call noundef zeroext i1 @_ZNKSt7__cxx1112basic_stringIcSt11char_traitsIcESaIcEE5emptyEv(ptr noundef nonnull align 8 dereferenceable(32) %80) #3, !dbg !5913
  br i1 %81, label %82, label %163, !dbg !5914

82:                                               ; preds = %79, %5
  br label %83, !dbg !5915

83:                                               ; preds = %82
  call void @llvm.dbg.declare(metadata ptr %12, metadata !5917, metadata !DIExpression()), !dbg !5919
  %84 = invoke noundef nonnull align 8 dereferenceable(68) ptr @_ZN3Log6loggerEv()
          to label %85 unwind label %133, !dbg !5919

85:                                               ; preds = %83
  store ptr %84, ptr %12, align 8, !dbg !5919
  %86 = invoke noundef zeroext i1 @_ZN3Log16isShutdownCalledEv()
          to label %87 unwind label %133, !dbg !5920

87:                                               ; preds = %85
  br i1 %86, label %160, label %88, !dbg !5920

88:                                               ; preds = %87
  %89 = load ptr, ptr %12, align 8, !dbg !5920
  %90 = invoke noundef zeroext i1 @_ZNK4Poco6Logger5errorEv(ptr noundef nonnull align 8 dereferenceable(68) %89)
          to label %91 unwind label %133, !dbg !5920

91:                                               ; preds = %88
  br i1 %90, label %92, label %160, !dbg !5919

92:                                               ; preds = %91
  call void @llvm.dbg.declare(metadata ptr %15, metadata !5922, metadata !DIExpression()), !dbg !5924
  call void @llvm.dbg.declare(metadata ptr %16, metadata !5925, metadata !DIExpression()), !dbg !5924
  %93 = getelementptr inbounds [1024 x i8], ptr %15, i64 0, i64 0, !dbg !5924
  %94 = invoke noundef ptr @_ZN3Log6prefixILi1023EEEPcS1_PKc(ptr noundef %93, ptr noundef @.str.12)
          to label %95 unwind label %133, !dbg !5924

95:                                               ; preds = %92
  call void @_ZNSaIcEC1Ev(ptr noundef nonnull align 1 dereferenceable(1) %18) #3, !dbg !5924
  invoke void @_ZNSt7__cxx1112basic_stringIcSt11char_traitsIcESaIcEEC2IS3_EEPKcRKS3_(ptr noundef nonnull align 8 dereferenceable(32) %17, ptr noundef %94, ptr noundef nonnull align 1 dereferenceable(1) %18)
          to label %96 unwind label %137, !dbg !5924

96:                                               ; preds = %95
  invoke void @_ZNSt7__cxx1119basic_ostringstreamIcSt11char_traitsIcESaIcEEC1ERKNS_12basic_stringIcS2_S3_EESt13_Ios_Openmode(ptr noundef nonnull align 8 dereferenceable(112) %16, ptr noundef nonnull align 8 dereferenceable(32) %17, i32 noundef 2)
          to label %97 unwind label %141, !dbg !5924

97:                                               ; preds = %96
  call void @_ZNSt7__cxx1112basic_stringIcSt11char_traitsIcESaIcEED1Ev(ptr noundef nonnull align 8 dereferenceable(32) %17) #3, !dbg !5924
  call void @_ZNSaIcED1Ev(ptr noundef nonnull align 1 dereferenceable(1) %18) #3, !dbg !5924
  %98 = invoke noundef nonnull align 8 dereferenceable(8) ptr @_ZNSolsEPFRSt8ios_baseS0_E(ptr noundef nonnull align 8 dereferenceable(8) %16, ptr noundef @_ZSt9boolalphaRSt8ios_base)
          to label %99 unwind label %146, !dbg !5924

99:                                               ; preds = %97
  %100 = invoke noundef nonnull align 8 dereferenceable(8) ptr @_ZStlsISt11char_traitsIcEERSt13basic_ostreamIcT_ES5_PKc(ptr noundef nonnull align 8 dereferenceable(8) %98, ptr noundef @.str.13)
          to label %101 unwind label %146, !dbg !5924

101:                                              ; preds = %99
  %102 = load ptr, ptr %7, align 8, !dbg !5924
  %103 = invoke noundef nonnull align 8 dereferenceable(8) ptr @_ZStlsIcSt11char_traitsIcESaIcEERSt13basic_ostreamIT_T0_ES7_RKNSt7__cxx1112basic_stringIS4_S5_T1_EE(ptr noundef nonnull align 8 dereferenceable(8) %100, ptr noundef nonnull align 8 dereferenceable(32) %102)
          to label %104 unwind label %146, !dbg !5924

104:                                              ; preds = %101
  %105 = invoke noundef nonnull align 8 dereferenceable(8) ptr @_ZStlsISt11char_traitsIcEERSt13basic_ostreamIcT_ES5_c(ptr noundef nonnull align 8 dereferenceable(8) %103, i8 noundef signext 58)
          to label %106 unwind label %146, !dbg !5924

106:                                              ; preds = %104
  %107 = load ptr, ptr %8, align 8, !dbg !5924
  %108 = invoke noundef nonnull align 8 dereferenceable(8) ptr @_ZStlsIcSt11char_traitsIcESaIcEERSt13basic_ostreamIT_T0_ES7_RKNSt7__cxx1112basic_stringIS4_S5_T1_EE(ptr noundef nonnull align 8 dereferenceable(8) %105, ptr noundef nonnull align 8 dereferenceable(32) %107)
          to label %109 unwind label %146, !dbg !5924

109:                                              ; preds = %106
  br label %110, !dbg !5924

110:                                              ; preds = %109
  %111 = invoke noundef nonnull align 8 dereferenceable(8) ptr @_ZStlsISt11char_traitsIcEERSt13basic_ostreamIcT_ES5_PKc(ptr noundef nonnull align 8 dereferenceable(8) %16, ptr noundef @.str.4)
          to label %112 unwind label %146, !dbg !5926

112:                                              ; preds = %110
  %113 = invoke noundef nonnull align 8 dereferenceable(8) ptr @_ZStlsISt11char_traitsIcEERSt13basic_ostreamIcT_ES5_PKc(ptr noundef nonnull align 8 dereferenceable(8) %111, ptr noundef @.str.5)
          to label %114 unwind label %146, !dbg !5926

114:                                              ; preds = %112
  %115 = invoke noundef nonnull align 8 dereferenceable(8) ptr @_ZStlsISt11char_traitsIcEERSt13basic_ostreamIcT_ES5_c(ptr noundef nonnull align 8 dereferenceable(8) %113, i8 noundef signext 58)
          to label %116 unwind label %146, !dbg !5926

116:                                              ; preds = %114
  %117 = invoke noundef nonnull align 8 dereferenceable(8) ptr @_ZNSolsEi(ptr noundef nonnull align 8 dereferenceable(8) %115, i32 noundef 88)
          to label %118 unwind label %146, !dbg !5926

118:                                              ; preds = %116
  %119 = invoke noundef nonnull align 8 dereferenceable(8) ptr @_ZNSo5flushEv(ptr noundef nonnull align 8 dereferenceable(8) %16)
          to label %120 unwind label %146, !dbg !5929

120:                                              ; preds = %118
  br label %121, !dbg !5929

121:                                              ; preds = %120
  br label %122, !dbg !5929

122:                                              ; preds = %121
  %123 = load ptr, ptr %12, align 8, !dbg !5924
  %124 = load ptr, ptr %12, align 8, !dbg !5924
  %125 = invoke noundef nonnull align 8 dereferenceable(32) ptr @_ZNK4Poco6Logger4nameB5cxx11Ev(ptr noundef nonnull align 8 dereferenceable(68) %124)
          to label %126 unwind label %146, !dbg !5924

126:                                              ; preds = %122
  invoke void @_ZNKSt7__cxx1119basic_ostringstreamIcSt11char_traitsIcESaIcEE3strEv(ptr sret(%"class.std::__cxx11::basic_string") align 8 %20, ptr noundef nonnull align 8 dereferenceable(112) %16)
          to label %127 unwind label %146, !dbg !5924

127:                                              ; preds = %126
  invoke void @_ZN4Poco7MessageC1ERKNSt7__cxx1112basic_stringIcSt11char_traitsIcESaIcEEES8_NS0_8PriorityE(ptr noundef nonnull align 8 dereferenceable(152) %19, ptr noundef nonnull align 8 dereferenceable(32) %125, ptr noundef nonnull align 8 dereferenceable(32) %20, i32 noundef 3)
          to label %128 unwind label %150, !dbg !5924

128:                                              ; preds = %127
  %129 = load ptr, ptr %123, align 8, !dbg !5924
  %130 = getelementptr inbounds ptr, ptr %129, i64 6, !dbg !5924
  %131 = load ptr, ptr %130, align 8, !dbg !5924
  invoke void %131(ptr noundef nonnull align 8 dereferenceable(68) %123, ptr noundef nonnull align 8 dereferenceable(152) %19)
          to label %132 unwind label %154, !dbg !5924

132:                                              ; preds = %128
  call void @_ZN4Poco7MessageD1Ev(ptr noundef nonnull align 8 dereferenceable(152) %19) #3, !dbg !5924
  call void @_ZNSt7__cxx1112basic_stringIcSt11char_traitsIcESaIcEED1Ev(ptr noundef nonnull align 8 dereferenceable(32) %20) #3, !dbg !5924
  call void @_ZNSt7__cxx1119basic_ostringstreamIcSt11char_traitsIcESaIcEED1Ev(ptr noundef nonnull align 8 dereferenceable(112) %16) #3, !dbg !5920
  br label %160, !dbg !5924

133:                                              ; preds = %641, %637, %634, %632, %247, %173, %169, %166, %164, %92, %88, %85, %83
  %134 = landingpad { ptr, i32 }
          cleanup, !dbg !5930
  %135 = extractvalue { ptr, i32 } %134, 0, !dbg !5930
  store ptr %135, ptr %13, align 8, !dbg !5930
  %136 = extractvalue { ptr, i32 } %134, 1, !dbg !5930
  store i32 %136, ptr %14, align 4, !dbg !5930
  br label %730, !dbg !5930

137:                                              ; preds = %95
  %138 = landingpad { ptr, i32 }
          cleanup, !dbg !5931
  %139 = extractvalue { ptr, i32 } %138, 0, !dbg !5931
  store ptr %139, ptr %13, align 8, !dbg !5931
  %140 = extractvalue { ptr, i32 } %138, 1, !dbg !5931
  store i32 %140, ptr %14, align 4, !dbg !5931
  br label %145, !dbg !5931

141:                                              ; preds = %96
  %142 = landingpad { ptr, i32 }
          cleanup, !dbg !5931
  %143 = extractvalue { ptr, i32 } %142, 0, !dbg !5931
  store ptr %143, ptr %13, align 8, !dbg !5931
  %144 = extractvalue { ptr, i32 } %142, 1, !dbg !5931
  store i32 %144, ptr %14, align 4, !dbg !5931
  call void @_ZNSt7__cxx1112basic_stringIcSt11char_traitsIcESaIcEED1Ev(ptr noundef nonnull align 8 dereferenceable(32) %17) #3, !dbg !5924
  br label %145, !dbg !5924

145:                                              ; preds = %141, %137
  call void @_ZNSaIcED1Ev(ptr noundef nonnull align 1 dereferenceable(1) %18) #3, !dbg !5924
  br label %730, !dbg !5924

146:                                              ; preds = %126, %122, %118, %116, %114, %112, %110, %106, %104, %101, %99, %97
  %147 = landingpad { ptr, i32 }
          cleanup, !dbg !5931
  %148 = extractvalue { ptr, i32 } %147, 0, !dbg !5931
  store ptr %148, ptr %13, align 8, !dbg !5931
  %149 = extractvalue { ptr, i32 } %147, 1, !dbg !5931
  store i32 %149, ptr %14, align 4, !dbg !5931
  br label %159, !dbg !5931

150:                                              ; preds = %127
  %151 = landingpad { ptr, i32 }
          cleanup, !dbg !5931
  %152 = extractvalue { ptr, i32 } %151, 0, !dbg !5931
  store ptr %152, ptr %13, align 8, !dbg !5931
  %153 = extractvalue { ptr, i32 } %151, 1, !dbg !5931
  store i32 %153, ptr %14, align 4, !dbg !5931
  br label %158, !dbg !5931

154:                                              ; preds = %128
  %155 = landingpad { ptr, i32 }
          cleanup, !dbg !5931
  %156 = extractvalue { ptr, i32 } %155, 0, !dbg !5931
  store ptr %156, ptr %13, align 8, !dbg !5931
  %157 = extractvalue { ptr, i32 } %155, 1, !dbg !5931
  store i32 %157, ptr %14, align 4, !dbg !5931
  call void @_ZN4Poco7MessageD1Ev(ptr noundef nonnull align 8 dereferenceable(152) %19) #3, !dbg !5924
  br label %158, !dbg !5924

158:                                              ; preds = %154, %150
  call void @_ZNSt7__cxx1112basic_stringIcSt11char_traitsIcESaIcEED1Ev(ptr noundef nonnull align 8 dereferenceable(32) %20) #3, !dbg !5924
  br label %159, !dbg !5924

159:                                              ; preds = %158, %146
  call void @_ZNSt7__cxx1119basic_ostringstreamIcSt11char_traitsIcESaIcEED1Ev(ptr noundef nonnull align 8 dereferenceable(112) %16) #3, !dbg !5920
  br label %730, !dbg !5920

160:                                              ; preds = %132, %91, %87
  br label %161, !dbg !5919

161:                                              ; preds = %160
  br label %162, !dbg !5919

162:                                              ; preds = %161
  store i1 true, ptr %11, align 1, !dbg !5932
  store i32 1, ptr %21, align 4
  br label %726, !dbg !5932

163:                                              ; preds = %79
  br label %164, !dbg !5933

164:                                              ; preds = %163
  call void @llvm.dbg.declare(metadata ptr %22, metadata !5934, metadata !DIExpression()), !dbg !5936
  %165 = invoke noundef nonnull align 8 dereferenceable(68) ptr @_ZN3Log6loggerEv()
          to label %166 unwind label %133, !dbg !5936

166:                                              ; preds = %164
  store ptr %165, ptr %22, align 8, !dbg !5936
  %167 = invoke noundef zeroext i1 @_ZN3Log16isShutdownCalledEv()
          to label %168 unwind label %133, !dbg !5937

168:                                              ; preds = %166
  br i1 %167, label %245, label %169, !dbg !5937

169:                                              ; preds = %168
  %170 = load ptr, ptr %22, align 8, !dbg !5937
  %171 = invoke noundef zeroext i1 @_ZNK4Poco6Logger5debugEv(ptr noundef nonnull align 8 dereferenceable(68) %170)
          to label %172 unwind label %133, !dbg !5937

172:                                              ; preds = %169
  br i1 %171, label %173, label %245, !dbg !5936

173:                                              ; preds = %172
  call void @llvm.dbg.declare(metadata ptr %23, metadata !5939, metadata !DIExpression()), !dbg !5941
  call void @llvm.dbg.declare(metadata ptr %24, metadata !5942, metadata !DIExpression()), !dbg !5941
  %174 = getelementptr inbounds [1024 x i8], ptr %23, i64 0, i64 0, !dbg !5941
  %175 = invoke noundef ptr @_ZN3Log6prefixILi1023EEEPcS1_PKc(ptr noundef %174, ptr noundef @.str.14)
          to label %176 unwind label %133, !dbg !5941

176:                                              ; preds = %173
  call void @_ZNSaIcEC1Ev(ptr noundef nonnull align 1 dereferenceable(1) %26) #3, !dbg !5941
  invoke void @_ZNSt7__cxx1112basic_stringIcSt11char_traitsIcESaIcEEC2IS3_EEPKcRKS3_(ptr noundef nonnull align 8 dereferenceable(32) %25, ptr noundef %175, ptr noundef nonnull align 1 dereferenceable(1) %26)
          to label %177 unwind label %222, !dbg !5941

177:                                              ; preds = %176
  invoke void @_ZNSt7__cxx1119basic_ostringstreamIcSt11char_traitsIcESaIcEEC1ERKNS_12basic_stringIcS2_S3_EESt13_Ios_Openmode(ptr noundef nonnull align 8 dereferenceable(112) %24, ptr noundef nonnull align 8 dereferenceable(32) %25, i32 noundef 2)
          to label %178 unwind label %226, !dbg !5941

178:                                              ; preds = %177
  call void @_ZNSt7__cxx1112basic_stringIcSt11char_traitsIcESaIcEED1Ev(ptr noundef nonnull align 8 dereferenceable(32) %25) #3, !dbg !5941
  call void @_ZNSaIcED1Ev(ptr noundef nonnull align 1 dereferenceable(1) %26) #3, !dbg !5941
  %179 = invoke noundef nonnull align 8 dereferenceable(8) ptr @_ZNSolsEPFRSt8ios_baseS0_E(ptr noundef nonnull align 8 dereferenceable(8) %24, ptr noundef @_ZSt9boolalphaRSt8ios_base)
          to label %180 unwind label %231, !dbg !5941

180:                                              ; preds = %178
  %181 = invoke noundef nonnull align 8 dereferenceable(8) ptr @_ZStlsISt11char_traitsIcEERSt13basic_ostreamIcT_ES5_PKc(ptr noundef nonnull align 8 dereferenceable(8) %179, ptr noundef @.str.15)
          to label %182 unwind label %231, !dbg !5941

182:                                              ; preds = %180
  %183 = load ptr, ptr %7, align 8, !dbg !5941
  %184 = invoke noundef nonnull align 8 dereferenceable(8) ptr @_ZStlsIcSt11char_traitsIcESaIcEERSt13basic_ostreamIT_T0_ES7_RKNSt7__cxx1112basic_stringIS4_S5_T1_EE(ptr noundef nonnull align 8 dereferenceable(8) %181, ptr noundef nonnull align 8 dereferenceable(32) %183)
          to label %185 unwind label %231, !dbg !5941

185:                                              ; preds = %182
  %186 = invoke noundef nonnull align 8 dereferenceable(8) ptr @_ZStlsISt11char_traitsIcEERSt13basic_ostreamIcT_ES5_c(ptr noundef nonnull align 8 dereferenceable(8) %184, i8 noundef signext 58)
          to label %187 unwind label %231, !dbg !5941

187:                                              ; preds = %185
  %188 = load ptr, ptr %8, align 8, !dbg !5941
  %189 = invoke noundef nonnull align 8 dereferenceable(8) ptr @_ZStlsIcSt11char_traitsIcESaIcEERSt13basic_ostreamIT_T0_ES7_RKNSt7__cxx1112basic_stringIS4_S5_T1_EE(ptr noundef nonnull align 8 dereferenceable(8) %186, ptr noundef nonnull align 8 dereferenceable(32) %188)
          to label %190 unwind label %231, !dbg !5941

190:                                              ; preds = %187
  %191 = invoke noundef nonnull align 8 dereferenceable(8) ptr @_ZStlsISt11char_traitsIcEERSt13basic_ostreamIcT_ES5_PKc(ptr noundef nonnull align 8 dereferenceable(8) %189, ptr noundef @.str.16)
          to label %192 unwind label %231, !dbg !5941

192:                                              ; preds = %190
  %193 = load i8, ptr %9, align 1, !dbg !5941
  %194 = trunc i8 %193 to i1, !dbg !5941
  %195 = zext i1 %194 to i64, !dbg !5941
  %196 = select i1 %194, ptr @.str.17, ptr @.str.18, !dbg !5941
  %197 = invoke noundef nonnull align 8 dereferenceable(8) ptr @_ZStlsISt11char_traitsIcEERSt13basic_ostreamIcT_ES5_PKc(ptr noundef nonnull align 8 dereferenceable(8) %191, ptr noundef %196)
          to label %198 unwind label %231, !dbg !5941

198:                                              ; preds = %192
  br label %199, !dbg !5941

199:                                              ; preds = %198
  %200 = invoke noundef nonnull align 8 dereferenceable(8) ptr @_ZStlsISt11char_traitsIcEERSt13basic_ostreamIcT_ES5_PKc(ptr noundef nonnull align 8 dereferenceable(8) %24, ptr noundef @.str.4)
          to label %201 unwind label %231, !dbg !5943

201:                                              ; preds = %199
  %202 = invoke noundef nonnull align 8 dereferenceable(8) ptr @_ZStlsISt11char_traitsIcEERSt13basic_ostreamIcT_ES5_PKc(ptr noundef nonnull align 8 dereferenceable(8) %200, ptr noundef @.str.5)
          to label %203 unwind label %231, !dbg !5943

203:                                              ; preds = %201
  %204 = invoke noundef nonnull align 8 dereferenceable(8) ptr @_ZStlsISt11char_traitsIcEERSt13basic_ostreamIcT_ES5_c(ptr noundef nonnull align 8 dereferenceable(8) %202, i8 noundef signext 58)
          to label %205 unwind label %231, !dbg !5943

205:                                              ; preds = %203
  %206 = invoke noundef nonnull align 8 dereferenceable(8) ptr @_ZNSolsEi(ptr noundef nonnull align 8 dereferenceable(8) %204, i32 noundef 92)
          to label %207 unwind label %231, !dbg !5943

207:                                              ; preds = %205
  %208 = invoke noundef nonnull align 8 dereferenceable(8) ptr @_ZNSo5flushEv(ptr noundef nonnull align 8 dereferenceable(8) %24)
          to label %209 unwind label %231, !dbg !5946

209:                                              ; preds = %207
  br label %210, !dbg !5946

210:                                              ; preds = %209
  br label %211, !dbg !5946

211:                                              ; preds = %210
  %212 = load ptr, ptr %22, align 8, !dbg !5941
  %213 = load ptr, ptr %22, align 8, !dbg !5941
  %214 = invoke noundef nonnull align 8 dereferenceable(32) ptr @_ZNK4Poco6Logger4nameB5cxx11Ev(ptr noundef nonnull align 8 dereferenceable(68) %213)
          to label %215 unwind label %231, !dbg !5941

215:                                              ; preds = %211
  invoke void @_ZNKSt7__cxx1119basic_ostringstreamIcSt11char_traitsIcESaIcEE3strEv(ptr sret(%"class.std::__cxx11::basic_string") align 8 %28, ptr noundef nonnull align 8 dereferenceable(112) %24)
          to label %216 unwind label %231, !dbg !5941

216:                                              ; preds = %215
  invoke void @_ZN4Poco7MessageC1ERKNSt7__cxx1112basic_stringIcSt11char_traitsIcESaIcEEES8_NS0_8PriorityE(ptr noundef nonnull align 8 dereferenceable(152) %27, ptr noundef nonnull align 8 dereferenceable(32) %214, ptr noundef nonnull align 8 dereferenceable(32) %28, i32 noundef 7)
          to label %217 unwind label %235, !dbg !5941

217:                                              ; preds = %216
  %218 = load ptr, ptr %212, align 8, !dbg !5941
  %219 = getelementptr inbounds ptr, ptr %218, i64 6, !dbg !5941
  %220 = load ptr, ptr %219, align 8, !dbg !5941
  invoke void %220(ptr noundef nonnull align 8 dereferenceable(68) %212, ptr noundef nonnull align 8 dereferenceable(152) %27)
          to label %221 unwind label %239, !dbg !5941

221:                                              ; preds = %217
  call void @_ZN4Poco7MessageD1Ev(ptr noundef nonnull align 8 dereferenceable(152) %27) #3, !dbg !5941
  call void @_ZNSt7__cxx1112basic_stringIcSt11char_traitsIcESaIcEED1Ev(ptr noundef nonnull align 8 dereferenceable(32) %28) #3, !dbg !5941
  call void @_ZNSt7__cxx1119basic_ostringstreamIcSt11char_traitsIcESaIcEED1Ev(ptr noundef nonnull align 8 dereferenceable(112) %24) #3, !dbg !5937
  br label %245, !dbg !5941

222:                                              ; preds = %176
  %223 = landingpad { ptr, i32 }
          cleanup, !dbg !5947
  %224 = extractvalue { ptr, i32 } %223, 0, !dbg !5947
  store ptr %224, ptr %13, align 8, !dbg !5947
  %225 = extractvalue { ptr, i32 } %223, 1, !dbg !5947
  store i32 %225, ptr %14, align 4, !dbg !5947
  br label %230, !dbg !5947

226:                                              ; preds = %177
  %227 = landingpad { ptr, i32 }
          cleanup, !dbg !5947
  %228 = extractvalue { ptr, i32 } %227, 0, !dbg !5947
  store ptr %228, ptr %13, align 8, !dbg !5947
  %229 = extractvalue { ptr, i32 } %227, 1, !dbg !5947
  store i32 %229, ptr %14, align 4, !dbg !5947
  call void @_ZNSt7__cxx1112basic_stringIcSt11char_traitsIcESaIcEED1Ev(ptr noundef nonnull align 8 dereferenceable(32) %25) #3, !dbg !5941
  br label %230, !dbg !5941

230:                                              ; preds = %226, %222
  call void @_ZNSaIcED1Ev(ptr noundef nonnull align 1 dereferenceable(1) %26) #3, !dbg !5941
  br label %730, !dbg !5941

231:                                              ; preds = %215, %211, %207, %205, %203, %201, %199, %192, %190, %187, %185, %182, %180, %178
  %232 = landingpad { ptr, i32 }
          cleanup, !dbg !5947
  %233 = extractvalue { ptr, i32 } %232, 0, !dbg !5947
  store ptr %233, ptr %13, align 8, !dbg !5947
  %234 = extractvalue { ptr, i32 } %232, 1, !dbg !5947
  store i32 %234, ptr %14, align 4, !dbg !5947
  br label %244, !dbg !5947

235:                                              ; preds = %216
  %236 = landingpad { ptr, i32 }
          cleanup, !dbg !5947
  %237 = extractvalue { ptr, i32 } %236, 0, !dbg !5947
  store ptr %237, ptr %13, align 8, !dbg !5947
  %238 = extractvalue { ptr, i32 } %236, 1, !dbg !5947
  store i32 %238, ptr %14, align 4, !dbg !5947
  br label %243, !dbg !5947

239:                                              ; preds = %217
  %240 = landingpad { ptr, i32 }
          cleanup, !dbg !5947
  %241 = extractvalue { ptr, i32 } %240, 0, !dbg !5947
  store ptr %241, ptr %13, align 8, !dbg !5947
  %242 = extractvalue { ptr, i32 } %240, 1, !dbg !5947
  store i32 %242, ptr %14, align 4, !dbg !5947
  call void @_ZN4Poco7MessageD1Ev(ptr noundef nonnull align 8 dereferenceable(152) %27) #3, !dbg !5941
  br label %243, !dbg !5941

243:                                              ; preds = %239, %235
  call void @_ZNSt7__cxx1112basic_stringIcSt11char_traitsIcESaIcEED1Ev(ptr noundef nonnull align 8 dereferenceable(32) %28) #3, !dbg !5941
  br label %244, !dbg !5941

244:                                              ; preds = %243, %231
  call void @_ZNSt7__cxx1119basic_ostringstreamIcSt11char_traitsIcESaIcEED1Ev(ptr noundef nonnull align 8 dereferenceable(112) %24) #3, !dbg !5937
  br label %730, !dbg !5937

245:                                              ; preds = %221, %172, %168
  br label %246, !dbg !5936

246:                                              ; preds = %245
  br label %247, !dbg !5936

247:                                              ; preds = %246
  call void @llvm.dbg.declare(metadata ptr %29, metadata !5948, metadata !DIExpression()), !dbg !5962
  store ptr null, ptr %29, align 8, !dbg !5962
  call void @llvm.dbg.declare(metadata ptr %30, metadata !5963, metadata !DIExpression()), !dbg !5964
  call void @llvm.memset.p0.i64(ptr align 8 %30, i8 0, i64 48, i1 false), !dbg !5965
  call void @llvm.dbg.declare(metadata ptr %31, metadata !5966, metadata !DIExpression()), !dbg !5967
  %248 = load ptr, ptr %7, align 8, !dbg !5968
  %249 = call noundef ptr @_ZNKSt7__cxx1112basic_stringIcSt11char_traitsIcESaIcEE5c_strEv(ptr noundef nonnull align 8 dereferenceable(32) %248) #3, !dbg !5969
  %250 = load ptr, ptr %8, align 8, !dbg !5970
  %251 = call noundef ptr @_ZNKSt7__cxx1112basic_stringIcSt11char_traitsIcESaIcEE5c_strEv(ptr noundef nonnull align 8 dereferenceable(32) %250) #3, !dbg !5971
  %252 = invoke i32 @getaddrinfo(ptr noundef %249, ptr noundef %251, ptr noundef %30, ptr noundef %29)
          to label %253 unwind label %133, !dbg !5972

253:                                              ; preds = %247
  store i32 %252, ptr %31, align 4, !dbg !5967
  %254 = load i32, ptr %31, align 4, !dbg !5973
  %255 = icmp ne i32 %254, 0, !dbg !5973
  br i1 %255, label %628, label %256, !dbg !5975

256:                                              ; preds = %253
  %257 = load ptr, ptr %29, align 8, !dbg !5976
  %258 = icmp ne ptr %257, null, !dbg !5976
  br i1 %258, label %259, label %628, !dbg !5977

259:                                              ; preds = %256
  call void @llvm.dbg.declare(metadata ptr %32, metadata !5978, metadata !DIExpression()), !dbg !5981
  %260 = load ptr, ptr %29, align 8, !dbg !5982
  store ptr %260, ptr %32, align 8, !dbg !5981
  br label %261, !dbg !5983

261:                                              ; preds = %621, %259
  %262 = load ptr, ptr %32, align 8, !dbg !5984
  %263 = icmp ne ptr %262, null, !dbg !5984
  br i1 %263, label %264, label %626, !dbg !5986

264:                                              ; preds = %261
  call void @llvm.dbg.declare(metadata ptr %33, metadata !5987, metadata !DIExpression()), !dbg !5989
  call void @_ZNSt7__cxx1112basic_stringIcSt11char_traitsIcESaIcEEC1Ev(ptr noundef nonnull align 8 dereferenceable(32) %33) #3, !dbg !5989
  %265 = load ptr, ptr %32, align 8, !dbg !5990
  %266 = getelementptr inbounds %struct.addrinfo, ptr %265, i32 0, i32 6, !dbg !5992
  %267 = load ptr, ptr %266, align 8, !dbg !5992
  %268 = icmp ne ptr %267, null, !dbg !5990
  br i1 %268, label %269, label %279, !dbg !5993

269:                                              ; preds = %264
  %270 = load ptr, ptr %32, align 8, !dbg !5994
  %271 = getelementptr inbounds %struct.addrinfo, ptr %270, i32 0, i32 6, !dbg !5995
  %272 = load ptr, ptr %271, align 8, !dbg !5995
  %273 = invoke noundef nonnull align 8 dereferenceable(32) ptr @_ZNSt7__cxx1112basic_stringIcSt11char_traitsIcESaIcEEaSEPKc(ptr noundef nonnull align 8 dereferenceable(32) %33, ptr noundef %272)
          to label %274 unwind label %275, !dbg !5996

274:                                              ; preds = %269
  br label %279, !dbg !5997

275:                                              ; preds = %612, %551, %547, %544, %542, %527, %511, %504, %423, %419, %416, %414, %391, %312, %308, %305, %303, %269
  %276 = landingpad { ptr, i32 }
          cleanup, !dbg !5998
  %277 = extractvalue { ptr, i32 } %276, 0, !dbg !5998
  store ptr %277, ptr %13, align 8, !dbg !5998
  %278 = extractvalue { ptr, i32 } %276, 1, !dbg !5998
  store i32 %278, ptr %14, align 4, !dbg !5998
  br label %625, !dbg !5998

279:                                              ; preds = %274, %264
  %280 = load ptr, ptr %32, align 8, !dbg !5999
  %281 = getelementptr inbounds %struct.addrinfo, ptr %280, i32 0, i32 4, !dbg !6001
  %282 = load i32, ptr %281, align 8, !dbg !6001
  %283 = icmp ne i32 %282, 0, !dbg !5999
  br i1 %283, label %284, label %617, !dbg !6002

284:                                              ; preds = %279
  %285 = load ptr, ptr %32, align 8, !dbg !6003
  %286 = getelementptr inbounds %struct.addrinfo, ptr %285, i32 0, i32 5, !dbg !6004
  %287 = load ptr, ptr %286, align 8, !dbg !6004
  %288 = icmp ne ptr %287, null, !dbg !6003
  br i1 %288, label %289, label %617, !dbg !6005

289:                                              ; preds = %284
  call void @llvm.dbg.declare(metadata ptr %34, metadata !6006, metadata !DIExpression()), !dbg !6008
  %290 = load ptr, ptr %32, align 8, !dbg !6009
  %291 = getelementptr inbounds %struct.addrinfo, ptr %290, i32 0, i32 5, !dbg !6010
  %292 = load ptr, ptr %291, align 8, !dbg !6010
  %293 = getelementptr inbounds %struct.sockaddr, ptr %292, i32 0, i32 0, !dbg !6011
  %294 = load i16, ptr %293, align 2, !dbg !6011
  %295 = zext i16 %294 to i32, !dbg !6009
  %296 = call i32 @socket(i32 noundef %295, i32 noundef 2049, i32 noundef 0) #3, !dbg !6012
  store i32 %296, ptr %34, align 4, !dbg !6008
  %297 = load i32, ptr %34, align 4, !dbg !6013
  %298 = icmp slt i32 %297, 0, !dbg !6015
  br i1 %298, label %299, label %391, !dbg !6016

299:                                              ; preds = %289
  br label %300, !dbg !6017

300:                                              ; preds = %299
  call void @llvm.dbg.declare(metadata ptr %35, metadata !6019, metadata !DIExpression()), !dbg !6021
  %301 = call ptr @__errno_location() #21, !dbg !6021
  %302 = load i32, ptr %301, align 4, !dbg !6021
  store i32 %302, ptr %35, align 4, !dbg !6021
  br label %303, !dbg !6021

303:                                              ; preds = %300
  call void @llvm.dbg.declare(metadata ptr %36, metadata !6022, metadata !DIExpression()), !dbg !6024
  %304 = invoke noundef nonnull align 8 dereferenceable(68) ptr @_ZN3Log6loggerEv()
          to label %305 unwind label %275, !dbg !6024

305:                                              ; preds = %303
  store ptr %304, ptr %36, align 8, !dbg !6024
  %306 = invoke noundef zeroext i1 @_ZN3Log16isShutdownCalledEv()
          to label %307 unwind label %275, !dbg !6025

307:                                              ; preds = %305
  br i1 %306, label %386, label %308, !dbg !6025

308:                                              ; preds = %307
  %309 = load ptr, ptr %36, align 8, !dbg !6025
  %310 = invoke noundef zeroext i1 @_ZNK4Poco6Logger5errorEv(ptr noundef nonnull align 8 dereferenceable(68) %309)
          to label %311 unwind label %275, !dbg !6025

311:                                              ; preds = %308
  br i1 %310, label %312, label %386, !dbg !6024

312:                                              ; preds = %311
  call void @llvm.dbg.declare(metadata ptr %37, metadata !6027, metadata !DIExpression()), !dbg !6029
  call void @llvm.dbg.declare(metadata ptr %38, metadata !6030, metadata !DIExpression()), !dbg !6029
  %313 = getelementptr inbounds [1024 x i8], ptr %37, i64 0, i64 0, !dbg !6029
  %314 = invoke noundef ptr @_ZN3Log6prefixILi1023EEEPcS1_PKc(ptr noundef %313, ptr noundef @.str.12)
          to label %315 unwind label %275, !dbg !6029

315:                                              ; preds = %312
  call void @_ZNSaIcEC1Ev(ptr noundef nonnull align 1 dereferenceable(1) %40) #3, !dbg !6029
  invoke void @_ZNSt7__cxx1112basic_stringIcSt11char_traitsIcESaIcEEC2IS3_EEPKcRKS3_(ptr noundef nonnull align 8 dereferenceable(32) %39, ptr noundef %314, ptr noundef nonnull align 1 dereferenceable(1) %40)
          to label %316 unwind label %359, !dbg !6029

316:                                              ; preds = %315
  invoke void @_ZNSt7__cxx1119basic_ostringstreamIcSt11char_traitsIcESaIcEEC1ERKNS_12basic_stringIcS2_S3_EESt13_Ios_Openmode(ptr noundef nonnull align 8 dereferenceable(112) %38, ptr noundef nonnull align 8 dereferenceable(32) %39, i32 noundef 2)
          to label %317 unwind label %363, !dbg !6029

317:                                              ; preds = %316
  call void @_ZNSt7__cxx1112basic_stringIcSt11char_traitsIcESaIcEED1Ev(ptr noundef nonnull align 8 dereferenceable(32) %39) #3, !dbg !6029
  call void @_ZNSaIcED1Ev(ptr noundef nonnull align 1 dereferenceable(1) %40) #3, !dbg !6029
  %318 = invoke noundef nonnull align 8 dereferenceable(8) ptr @_ZNSolsEPFRSt8ios_baseS0_E(ptr noundef nonnull align 8 dereferenceable(8) %38, ptr noundef @_ZSt9boolalphaRSt8ios_base)
          to label %319 unwind label %368, !dbg !6029

319:                                              ; preds = %317
  %320 = invoke noundef nonnull align 8 dereferenceable(8) ptr @_ZStlsISt11char_traitsIcEERSt13basic_ostreamIcT_ES5_PKc(ptr noundef nonnull align 8 dereferenceable(8) %318, ptr noundef @.str.19)
          to label %321 unwind label %368, !dbg !6029

321:                                              ; preds = %319
  %322 = invoke noundef nonnull align 8 dereferenceable(8) ptr @_ZStlsISt11char_traitsIcEERSt13basic_ostreamIcT_ES5_PKc(ptr noundef nonnull align 8 dereferenceable(8) %320, ptr noundef @.str.16)
          to label %323 unwind label %368, !dbg !6029

323:                                              ; preds = %321
  %324 = load i32, ptr %35, align 4, !dbg !6029
  invoke void @_ZN4Util13symbolicErrnoB5cxx11Ei(ptr sret(%"class.std::__cxx11::basic_string") align 8 %41, i32 noundef %324)
          to label %325 unwind label %368, !dbg !6029

325:                                              ; preds = %323
  %326 = invoke noundef nonnull align 8 dereferenceable(8) ptr @_ZStlsIcSt11char_traitsIcESaIcEERSt13basic_ostreamIT_T0_ES7_RKNSt7__cxx1112basic_stringIS4_S5_T1_EE(ptr noundef nonnull align 8 dereferenceable(8) %322, ptr noundef nonnull align 8 dereferenceable(32) %41)
          to label %327 unwind label %372, !dbg !6029

327:                                              ; preds = %325
  %328 = invoke noundef nonnull align 8 dereferenceable(8) ptr @_ZStlsISt11char_traitsIcEERSt13basic_ostreamIcT_ES5_PKc(ptr noundef nonnull align 8 dereferenceable(8) %326, ptr noundef @.str.20)
          to label %329 unwind label %372, !dbg !6029

329:                                              ; preds = %327
  %330 = load i32, ptr %35, align 4, !dbg !6029
  %331 = call ptr @strerror(i32 noundef %330) #3, !dbg !6029
  %332 = invoke noundef nonnull align 8 dereferenceable(8) ptr @_ZStlsISt11char_traitsIcEERSt13basic_ostreamIcT_ES5_PKc(ptr noundef nonnull align 8 dereferenceable(8) %328, ptr noundef %331)
          to label %333 unwind label %372, !dbg !6029

333:                                              ; preds = %329
  %334 = invoke noundef nonnull align 8 dereferenceable(8) ptr @_ZStlsISt11char_traitsIcEERSt13basic_ostreamIcT_ES5_c(ptr noundef nonnull align 8 dereferenceable(8) %332, i8 noundef signext 41)
          to label %335 unwind label %372, !dbg !6029

335:                                              ; preds = %333
  call void @_ZNSt7__cxx1112basic_stringIcSt11char_traitsIcESaIcEED1Ev(ptr noundef nonnull align 8 dereferenceable(32) %41) #3, !dbg !6029
  br label %336, !dbg !6029

336:                                              ; preds = %335
  %337 = invoke noundef nonnull align 8 dereferenceable(8) ptr @_ZStlsISt11char_traitsIcEERSt13basic_ostreamIcT_ES5_PKc(ptr noundef nonnull align 8 dereferenceable(8) %38, ptr noundef @.str.4)
          to label %338 unwind label %368, !dbg !6031

338:                                              ; preds = %336
  %339 = invoke noundef nonnull align 8 dereferenceable(8) ptr @_ZStlsISt11char_traitsIcEERSt13basic_ostreamIcT_ES5_PKc(ptr noundef nonnull align 8 dereferenceable(8) %337, ptr noundef @.str.5)
          to label %340 unwind label %368, !dbg !6031

340:                                              ; preds = %338
  %341 = invoke noundef nonnull align 8 dereferenceable(8) ptr @_ZStlsISt11char_traitsIcEERSt13basic_ostreamIcT_ES5_c(ptr noundef nonnull align 8 dereferenceable(8) %339, i8 noundef signext 58)
          to label %342 unwind label %368, !dbg !6031

342:                                              ; preds = %340
  %343 = invoke noundef nonnull align 8 dereferenceable(8) ptr @_ZNSolsEi(ptr noundef nonnull align 8 dereferenceable(8) %341, i32 noundef 121)
          to label %344 unwind label %368, !dbg !6031

344:                                              ; preds = %342
  %345 = invoke noundef nonnull align 8 dereferenceable(8) ptr @_ZNSo5flushEv(ptr noundef nonnull align 8 dereferenceable(8) %38)
          to label %346 unwind label %368, !dbg !6034

346:                                              ; preds = %344
  br label %347, !dbg !6034

347:                                              ; preds = %346
  br label %348, !dbg !6034

348:                                              ; preds = %347
  %349 = load ptr, ptr %36, align 8, !dbg !6029
  %350 = load ptr, ptr %36, align 8, !dbg !6029
  %351 = invoke noundef nonnull align 8 dereferenceable(32) ptr @_ZNK4Poco6Logger4nameB5cxx11Ev(ptr noundef nonnull align 8 dereferenceable(68) %350)
          to label %352 unwind label %368, !dbg !6029

352:                                              ; preds = %348
  invoke void @_ZNKSt7__cxx1119basic_ostringstreamIcSt11char_traitsIcESaIcEE3strEv(ptr sret(%"class.std::__cxx11::basic_string") align 8 %43, ptr noundef nonnull align 8 dereferenceable(112) %38)
          to label %353 unwind label %368, !dbg !6029

353:                                              ; preds = %352
  invoke void @_ZN4Poco7MessageC1ERKNSt7__cxx1112basic_stringIcSt11char_traitsIcESaIcEEES8_NS0_8PriorityE(ptr noundef nonnull align 8 dereferenceable(152) %42, ptr noundef nonnull align 8 dereferenceable(32) %351, ptr noundef nonnull align 8 dereferenceable(32) %43, i32 noundef 3)
          to label %354 unwind label %376, !dbg !6029

354:                                              ; preds = %353
  %355 = load ptr, ptr %349, align 8, !dbg !6029
  %356 = getelementptr inbounds ptr, ptr %355, i64 6, !dbg !6029
  %357 = load ptr, ptr %356, align 8, !dbg !6029
  invoke void %357(ptr noundef nonnull align 8 dereferenceable(68) %349, ptr noundef nonnull align 8 dereferenceable(152) %42)
          to label %358 unwind label %380, !dbg !6029

358:                                              ; preds = %354
  call void @_ZN4Poco7MessageD1Ev(ptr noundef nonnull align 8 dereferenceable(152) %42) #3, !dbg !6029
  call void @_ZNSt7__cxx1112basic_stringIcSt11char_traitsIcESaIcEED1Ev(ptr noundef nonnull align 8 dereferenceable(32) %43) #3, !dbg !6029
  call void @_ZNSt7__cxx1119basic_ostringstreamIcSt11char_traitsIcESaIcEED1Ev(ptr noundef nonnull align 8 dereferenceable(112) %38) #3, !dbg !6025
  br label %386, !dbg !6029

359:                                              ; preds = %315
  %360 = landingpad { ptr, i32 }
          cleanup, !dbg !6035
  %361 = extractvalue { ptr, i32 } %360, 0, !dbg !6035
  store ptr %361, ptr %13, align 8, !dbg !6035
  %362 = extractvalue { ptr, i32 } %360, 1, !dbg !6035
  store i32 %362, ptr %14, align 4, !dbg !6035
  br label %367, !dbg !6035

363:                                              ; preds = %316
  %364 = landingpad { ptr, i32 }
          cleanup, !dbg !6035
  %365 = extractvalue { ptr, i32 } %364, 0, !dbg !6035
  store ptr %365, ptr %13, align 8, !dbg !6035
  %366 = extractvalue { ptr, i32 } %364, 1, !dbg !6035
  store i32 %366, ptr %14, align 4, !dbg !6035
  call void @_ZNSt7__cxx1112basic_stringIcSt11char_traitsIcESaIcEED1Ev(ptr noundef nonnull align 8 dereferenceable(32) %39) #3, !dbg !6029
  br label %367, !dbg !6029

367:                                              ; preds = %363, %359
  call void @_ZNSaIcED1Ev(ptr noundef nonnull align 1 dereferenceable(1) %40) #3, !dbg !6029
  br label %625, !dbg !6029

368:                                              ; preds = %352, %348, %344, %342, %340, %338, %336, %323, %321, %319, %317
  %369 = landingpad { ptr, i32 }
          cleanup, !dbg !6035
  %370 = extractvalue { ptr, i32 } %369, 0, !dbg !6035
  store ptr %370, ptr %13, align 8, !dbg !6035
  %371 = extractvalue { ptr, i32 } %369, 1, !dbg !6035
  store i32 %371, ptr %14, align 4, !dbg !6035
  br label %385, !dbg !6035

372:                                              ; preds = %333, %329, %327, %325
  %373 = landingpad { ptr, i32 }
          cleanup, !dbg !6035
  %374 = extractvalue { ptr, i32 } %373, 0, !dbg !6035
  store ptr %374, ptr %13, align 8, !dbg !6035
  %375 = extractvalue { ptr, i32 } %373, 1, !dbg !6035
  store i32 %375, ptr %14, align 4, !dbg !6035
  call void @_ZNSt7__cxx1112basic_stringIcSt11char_traitsIcESaIcEED1Ev(ptr noundef nonnull align 8 dereferenceable(32) %41) #3, !dbg !6029
  br label %385, !dbg !6029

376:                                              ; preds = %353
  %377 = landingpad { ptr, i32 }
          cleanup, !dbg !6035
  %378 = extractvalue { ptr, i32 } %377, 0, !dbg !6035
  store ptr %378, ptr %13, align 8, !dbg !6035
  %379 = extractvalue { ptr, i32 } %377, 1, !dbg !6035
  store i32 %379, ptr %14, align 4, !dbg !6035
  br label %384, !dbg !6035

380:                                              ; preds = %354
  %381 = landingpad { ptr, i32 }
          cleanup, !dbg !6035
  %382 = extractvalue { ptr, i32 } %381, 0, !dbg !6035
  store ptr %382, ptr %13, align 8, !dbg !6035
  %383 = extractvalue { ptr, i32 } %381, 1, !dbg !6035
  store i32 %383, ptr %14, align 4, !dbg !6035
  call void @_ZN4Poco7MessageD1Ev(ptr noundef nonnull align 8 dereferenceable(152) %42) #3, !dbg !6029
  br label %384, !dbg !6029

384:                                              ; preds = %380, %376
  call void @_ZNSt7__cxx1112basic_stringIcSt11char_traitsIcESaIcEED1Ev(ptr noundef nonnull align 8 dereferenceable(32) %43) #3, !dbg !6029
  br label %385, !dbg !6029

385:                                              ; preds = %384, %372, %368
  call void @_ZNSt7__cxx1119basic_ostringstreamIcSt11char_traitsIcESaIcEED1Ev(ptr noundef nonnull align 8 dereferenceable(112) %38) #3, !dbg !6025
  br label %625, !dbg !6025

386:                                              ; preds = %358, %311, %307
  br label %387, !dbg !6024

387:                                              ; preds = %386
  br label %388, !dbg !6024

388:                                              ; preds = %387
  br label %389, !dbg !6021

389:                                              ; preds = %388
  br label %390, !dbg !6021

390:                                              ; preds = %389
  store i32 12, ptr %21, align 4
  br label %618, !dbg !6036

391:                                              ; preds = %289
  call void @llvm.dbg.declare(metadata ptr %44, metadata !6037, metadata !DIExpression()), !dbg !6038
  %392 = load i32, ptr %34, align 4, !dbg !6039
  %393 = load ptr, ptr %32, align 8, !dbg !6040
  %394 = getelementptr inbounds %struct.addrinfo, ptr %393, i32 0, i32 5, !dbg !6041
  %395 = load ptr, ptr %394, align 8, !dbg !6041
  %396 = load ptr, ptr %32, align 8, !dbg !6042
  %397 = getelementptr inbounds %struct.addrinfo, ptr %396, i32 0, i32 4, !dbg !6043
  %398 = load i32, ptr %397, align 8, !dbg !6043
  %399 = invoke i32 @connect(i32 noundef %392, ptr noundef %395, i32 noundef %398)
          to label %400 unwind label %275, !dbg !6044

400:                                              ; preds = %391
  store i32 %399, ptr %44, align 4, !dbg !6038
  %401 = load i32, ptr %34, align 4, !dbg !6045
  %402 = icmp slt i32 %401, 0, !dbg !6047
  br i1 %402, label %410, label %403, !dbg !6048

403:                                              ; preds = %400
  %404 = load i32, ptr %44, align 4, !dbg !6049
  %405 = icmp slt i32 %404, 0, !dbg !6050
  br i1 %405, label %406, label %508, !dbg !6051

406:                                              ; preds = %403
  %407 = call ptr @__errno_location() #21, !dbg !6052
  %408 = load i32, ptr %407, align 4, !dbg !6052
  %409 = icmp ne i32 %408, 115, !dbg !6053
  br i1 %409, label %410, label %508, !dbg !6054

410:                                              ; preds = %406, %400
  br label %411, !dbg !6055

411:                                              ; preds = %410
  call void @llvm.dbg.declare(metadata ptr %45, metadata !6057, metadata !DIExpression()), !dbg !6059
  %412 = call ptr @__errno_location() #21, !dbg !6059
  %413 = load i32, ptr %412, align 4, !dbg !6059
  store i32 %413, ptr %45, align 4, !dbg !6059
  br label %414, !dbg !6059

414:                                              ; preds = %411
  call void @llvm.dbg.declare(metadata ptr %46, metadata !6060, metadata !DIExpression()), !dbg !6062
  %415 = invoke noundef nonnull align 8 dereferenceable(68) ptr @_ZN3Log6loggerEv()
          to label %416 unwind label %275, !dbg !6062

416:                                              ; preds = %414
  store ptr %415, ptr %46, align 8, !dbg !6062
  %417 = invoke noundef zeroext i1 @_ZN3Log16isShutdownCalledEv()
          to label %418 unwind label %275, !dbg !6063

418:                                              ; preds = %416
  br i1 %417, label %500, label %419, !dbg !6063

419:                                              ; preds = %418
  %420 = load ptr, ptr %46, align 8, !dbg !6063
  %421 = invoke noundef zeroext i1 @_ZNK4Poco6Logger5errorEv(ptr noundef nonnull align 8 dereferenceable(68) %420)
          to label %422 unwind label %275, !dbg !6063

422:                                              ; preds = %419
  br i1 %421, label %423, label %500, !dbg !6062

423:                                              ; preds = %422
  call void @llvm.dbg.declare(metadata ptr %47, metadata !6065, metadata !DIExpression()), !dbg !6067
  call void @llvm.dbg.declare(metadata ptr %48, metadata !6068, metadata !DIExpression()), !dbg !6067
  %424 = getelementptr inbounds [1024 x i8], ptr %47, i64 0, i64 0, !dbg !6067
  %425 = invoke noundef ptr @_ZN3Log6prefixILi1023EEEPcS1_PKc(ptr noundef %424, ptr noundef @.str.12)
          to label %426 unwind label %275, !dbg !6067

426:                                              ; preds = %423
  call void @_ZNSaIcEC1Ev(ptr noundef nonnull align 1 dereferenceable(1) %50) #3, !dbg !6067
  invoke void @_ZNSt7__cxx1112basic_stringIcSt11char_traitsIcESaIcEEC2IS3_EEPKcRKS3_(ptr noundef nonnull align 8 dereferenceable(32) %49, ptr noundef %425, ptr noundef nonnull align 1 dereferenceable(1) %50)
          to label %427 unwind label %473, !dbg !6067

427:                                              ; preds = %426
  invoke void @_ZNSt7__cxx1119basic_ostringstreamIcSt11char_traitsIcESaIcEEC1ERKNS_12basic_stringIcS2_S3_EESt13_Ios_Openmode(ptr noundef nonnull align 8 dereferenceable(112) %48, ptr noundef nonnull align 8 dereferenceable(32) %49, i32 noundef 2)
          to label %428 unwind label %477, !dbg !6067

428:                                              ; preds = %427
  call void @_ZNSt7__cxx1112basic_stringIcSt11char_traitsIcESaIcEED1Ev(ptr noundef nonnull align 8 dereferenceable(32) %49) #3, !dbg !6067
  call void @_ZNSaIcED1Ev(ptr noundef nonnull align 1 dereferenceable(1) %50) #3, !dbg !6067
  %429 = invoke noundef nonnull align 8 dereferenceable(8) ptr @_ZNSolsEPFRSt8ios_baseS0_E(ptr noundef nonnull align 8 dereferenceable(8) %48, ptr noundef @_ZSt9boolalphaRSt8ios_base)
          to label %430 unwind label %482, !dbg !6067

430:                                              ; preds = %428
  %431 = invoke noundef nonnull align 8 dereferenceable(8) ptr @_ZStlsISt11char_traitsIcEERSt13basic_ostreamIcT_ES5_PKc(ptr noundef nonnull align 8 dereferenceable(8) %429, ptr noundef @.str.21)
          to label %432 unwind label %482, !dbg !6067

432:                                              ; preds = %430
  %433 = load ptr, ptr %7, align 8, !dbg !6067
  %434 = invoke noundef nonnull align 8 dereferenceable(8) ptr @_ZStlsIcSt11char_traitsIcESaIcEERSt13basic_ostreamIT_T0_ES7_RKNSt7__cxx1112basic_stringIS4_S5_T1_EE(ptr noundef nonnull align 8 dereferenceable(8) %431, ptr noundef nonnull align 8 dereferenceable(32) %433)
          to label %435 unwind label %482, !dbg !6067

435:                                              ; preds = %432
  %436 = invoke noundef nonnull align 8 dereferenceable(8) ptr @_ZStlsISt11char_traitsIcEERSt13basic_ostreamIcT_ES5_PKc(ptr noundef nonnull align 8 dereferenceable(8) %434, ptr noundef @.str.16)
          to label %437 unwind label %482, !dbg !6067

437:                                              ; preds = %435
  %438 = load i32, ptr %45, align 4, !dbg !6067
  invoke void @_ZN4Util13symbolicErrnoB5cxx11Ei(ptr sret(%"class.std::__cxx11::basic_string") align 8 %51, i32 noundef %438)
          to label %439 unwind label %482, !dbg !6067

439:                                              ; preds = %437
  %440 = invoke noundef nonnull align 8 dereferenceable(8) ptr @_ZStlsIcSt11char_traitsIcESaIcEERSt13basic_ostreamIT_T0_ES7_RKNSt7__cxx1112basic_stringIS4_S5_T1_EE(ptr noundef nonnull align 8 dereferenceable(8) %436, ptr noundef nonnull align 8 dereferenceable(32) %51)
          to label %441 unwind label %486, !dbg !6067

441:                                              ; preds = %439
  %442 = invoke noundef nonnull align 8 dereferenceable(8) ptr @_ZStlsISt11char_traitsIcEERSt13basic_ostreamIcT_ES5_PKc(ptr noundef nonnull align 8 dereferenceable(8) %440, ptr noundef @.str.20)
          to label %443 unwind label %486, !dbg !6067

443:                                              ; preds = %441
  %444 = load i32, ptr %45, align 4, !dbg !6067
  %445 = call ptr @strerror(i32 noundef %444) #3, !dbg !6067
  %446 = invoke noundef nonnull align 8 dereferenceable(8) ptr @_ZStlsISt11char_traitsIcEERSt13basic_ostreamIcT_ES5_PKc(ptr noundef nonnull align 8 dereferenceable(8) %442, ptr noundef %445)
          to label %447 unwind label %486, !dbg !6067

447:                                              ; preds = %443
  %448 = invoke noundef nonnull align 8 dereferenceable(8) ptr @_ZStlsISt11char_traitsIcEERSt13basic_ostreamIcT_ES5_c(ptr noundef nonnull align 8 dereferenceable(8) %446, i8 noundef signext 41)
          to label %449 unwind label %486, !dbg !6067

449:                                              ; preds = %447
  call void @_ZNSt7__cxx1112basic_stringIcSt11char_traitsIcESaIcEED1Ev(ptr noundef nonnull align 8 dereferenceable(32) %51) #3, !dbg !6067
  br label %450, !dbg !6067

450:                                              ; preds = %449
  %451 = invoke noundef nonnull align 8 dereferenceable(8) ptr @_ZStlsISt11char_traitsIcEERSt13basic_ostreamIcT_ES5_PKc(ptr noundef nonnull align 8 dereferenceable(8) %48, ptr noundef @.str.4)
          to label %452 unwind label %482, !dbg !6069

452:                                              ; preds = %450
  %453 = invoke noundef nonnull align 8 dereferenceable(8) ptr @_ZStlsISt11char_traitsIcEERSt13basic_ostreamIcT_ES5_PKc(ptr noundef nonnull align 8 dereferenceable(8) %451, ptr noundef @.str.5)
          to label %454 unwind label %482, !dbg !6069

454:                                              ; preds = %452
  %455 = invoke noundef nonnull align 8 dereferenceable(8) ptr @_ZStlsISt11char_traitsIcEERSt13basic_ostreamIcT_ES5_c(ptr noundef nonnull align 8 dereferenceable(8) %453, i8 noundef signext 58)
          to label %456 unwind label %482, !dbg !6069

456:                                              ; preds = %454
  %457 = invoke noundef nonnull align 8 dereferenceable(8) ptr @_ZNSolsEi(ptr noundef nonnull align 8 dereferenceable(8) %455, i32 noundef 128)
          to label %458 unwind label %482, !dbg !6069

458:                                              ; preds = %456
  %459 = invoke noundef nonnull align 8 dereferenceable(8) ptr @_ZNSo5flushEv(ptr noundef nonnull align 8 dereferenceable(8) %48)
          to label %460 unwind label %482, !dbg !6072

460:                                              ; preds = %458
  br label %461, !dbg !6072

461:                                              ; preds = %460
  br label %462, !dbg !6072

462:                                              ; preds = %461
  %463 = load ptr, ptr %46, align 8, !dbg !6067
  %464 = load ptr, ptr %46, align 8, !dbg !6067
  %465 = invoke noundef nonnull align 8 dereferenceable(32) ptr @_ZNK4Poco6Logger4nameB5cxx11Ev(ptr noundef nonnull align 8 dereferenceable(68) %464)
          to label %466 unwind label %482, !dbg !6067

466:                                              ; preds = %462
  invoke void @_ZNKSt7__cxx1119basic_ostringstreamIcSt11char_traitsIcESaIcEE3strEv(ptr sret(%"class.std::__cxx11::basic_string") align 8 %53, ptr noundef nonnull align 8 dereferenceable(112) %48)
          to label %467 unwind label %482, !dbg !6067

467:                                              ; preds = %466
  invoke void @_ZN4Poco7MessageC1ERKNSt7__cxx1112basic_stringIcSt11char_traitsIcESaIcEEES8_NS0_8PriorityE(ptr noundef nonnull align 8 dereferenceable(152) %52, ptr noundef nonnull align 8 dereferenceable(32) %465, ptr noundef nonnull align 8 dereferenceable(32) %53, i32 noundef 3)
          to label %468 unwind label %490, !dbg !6067

468:                                              ; preds = %467
  %469 = load ptr, ptr %463, align 8, !dbg !6067
  %470 = getelementptr inbounds ptr, ptr %469, i64 6, !dbg !6067
  %471 = load ptr, ptr %470, align 8, !dbg !6067
  invoke void %471(ptr noundef nonnull align 8 dereferenceable(68) %463, ptr noundef nonnull align 8 dereferenceable(152) %52)
          to label %472 unwind label %494, !dbg !6067

472:                                              ; preds = %468
  call void @_ZN4Poco7MessageD1Ev(ptr noundef nonnull align 8 dereferenceable(152) %52) #3, !dbg !6067
  call void @_ZNSt7__cxx1112basic_stringIcSt11char_traitsIcESaIcEED1Ev(ptr noundef nonnull align 8 dereferenceable(32) %53) #3, !dbg !6067
  call void @_ZNSt7__cxx1119basic_ostringstreamIcSt11char_traitsIcESaIcEED1Ev(ptr noundef nonnull align 8 dereferenceable(112) %48) #3, !dbg !6063
  br label %500, !dbg !6067

473:                                              ; preds = %426
  %474 = landingpad { ptr, i32 }
          cleanup, !dbg !6073
  %475 = extractvalue { ptr, i32 } %474, 0, !dbg !6073
  store ptr %475, ptr %13, align 8, !dbg !6073
  %476 = extractvalue { ptr, i32 } %474, 1, !dbg !6073
  store i32 %476, ptr %14, align 4, !dbg !6073
  br label %481, !dbg !6073

477:                                              ; preds = %427
  %478 = landingpad { ptr, i32 }
          cleanup, !dbg !6073
  %479 = extractvalue { ptr, i32 } %478, 0, !dbg !6073
  store ptr %479, ptr %13, align 8, !dbg !6073
  %480 = extractvalue { ptr, i32 } %478, 1, !dbg !6073
  store i32 %480, ptr %14, align 4, !dbg !6073
  call void @_ZNSt7__cxx1112basic_stringIcSt11char_traitsIcESaIcEED1Ev(ptr noundef nonnull align 8 dereferenceable(32) %49) #3, !dbg !6067
  br label %481, !dbg !6067

481:                                              ; preds = %477, %473
  call void @_ZNSaIcED1Ev(ptr noundef nonnull align 1 dereferenceable(1) %50) #3, !dbg !6067
  br label %625, !dbg !6067

482:                                              ; preds = %466, %462, %458, %456, %454, %452, %450, %437, %435, %432, %430, %428
  %483 = landingpad { ptr, i32 }
          cleanup, !dbg !6073
  %484 = extractvalue { ptr, i32 } %483, 0, !dbg !6073
  store ptr %484, ptr %13, align 8, !dbg !6073
  %485 = extractvalue { ptr, i32 } %483, 1, !dbg !6073
  store i32 %485, ptr %14, align 4, !dbg !6073
  br label %499, !dbg !6073

486:                                              ; preds = %447, %443, %441, %439
  %487 = landingpad { ptr, i32 }
          cleanup, !dbg !6073
  %488 = extractvalue { ptr, i32 } %487, 0, !dbg !6073
  store ptr %488, ptr %13, align 8, !dbg !6073
  %489 = extractvalue { ptr, i32 } %487, 1, !dbg !6073
  store i32 %489, ptr %14, align 4, !dbg !6073
  call void @_ZNSt7__cxx1112basic_stringIcSt11char_traitsIcESaIcEED1Ev(ptr noundef nonnull align 8 dereferenceable(32) %51) #3, !dbg !6067
  br label %499, !dbg !6067

490:                                              ; preds = %467
  %491 = landingpad { ptr, i32 }
          cleanup, !dbg !6073
  %492 = extractvalue { ptr, i32 } %491, 0, !dbg !6073
  store ptr %492, ptr %13, align 8, !dbg !6073
  %493 = extractvalue { ptr, i32 } %491, 1, !dbg !6073
  store i32 %493, ptr %14, align 4, !dbg !6073
  br label %498, !dbg !6073

494:                                              ; preds = %468
  %495 = landingpad { ptr, i32 }
          cleanup, !dbg !6073
  %496 = extractvalue { ptr, i32 } %495, 0, !dbg !6073
  store ptr %496, ptr %13, align 8, !dbg !6073
  %497 = extractvalue { ptr, i32 } %495, 1, !dbg !6073
  store i32 %497, ptr %14, align 4, !dbg !6073
  call void @_ZN4Poco7MessageD1Ev(ptr noundef nonnull align 8 dereferenceable(152) %52) #3, !dbg !6067
  br label %498, !dbg !6067

498:                                              ; preds = %494, %490
  call void @_ZNSt7__cxx1112basic_stringIcSt11char_traitsIcESaIcEED1Ev(ptr noundef nonnull align 8 dereferenceable(32) %53) #3, !dbg !6067
  br label %499, !dbg !6067

499:                                              ; preds = %498, %486, %482
  call void @_ZNSt7__cxx1119basic_ostringstreamIcSt11char_traitsIcESaIcEED1Ev(ptr noundef nonnull align 8 dereferenceable(112) %48) #3, !dbg !6063
  br label %625, !dbg !6063

500:                                              ; preds = %472, %422, %418
  br label %501, !dbg !6062

501:                                              ; preds = %500
  br label %502, !dbg !6062

502:                                              ; preds = %501
  br label %503, !dbg !6059

503:                                              ; preds = %502
  br label %504, !dbg !6059

504:                                              ; preds = %503
  %505 = load i32, ptr %34, align 4, !dbg !6074
  %506 = invoke i32 @close(i32 noundef %505)
          to label %507 unwind label %275, !dbg !6075

507:                                              ; preds = %504
  br label %616, !dbg !6076

508:                                              ; preds = %406, %403
  %509 = load i8, ptr %9, align 1, !dbg !6077
  %510 = trunc i8 %509 to i1, !dbg !6077
  br i1 %510, label %511, label %522, !dbg !6080

511:                                              ; preds = %508
  %512 = load ptr, ptr %7, align 8, !dbg !6081
  invoke void @_ZNSt7__cxx1112basic_stringIcSt11char_traitsIcESaIcEEC1ERKS4_(ptr noundef nonnull align 8 dereferenceable(32) %55, ptr noundef nonnull align 8 dereferenceable(32) %512)
          to label %513 unwind label %275, !dbg !6081

513:                                              ; preds = %511
  %514 = load i32, ptr %34, align 4, !dbg !6082
  %515 = load ptr, ptr %10, align 8, !dbg !6083
  call void @_ZNSt10shared_ptrI24ProtocolHandlerInterfaceEC2ERKS1_(ptr noundef nonnull align 8 dereferenceable(16) %56, ptr noundef nonnull align 8 dereferenceable(16) %515) #3, !dbg !6083
  invoke void @_ZN12StreamSocket6createI15SslStreamSocketEESt10shared_ptrIT_ENSt7__cxx1112basic_stringIcSt11char_traitsIcESaIcEEEibS2_I24ProtocolHandlerInterfaceENS_8ReadTypeE(ptr sret(%"class.std::shared_ptr.21") align 8 %54, ptr noundef %55, i32 noundef %514, i1 noundef zeroext true, ptr noundef %56, i32 noundef 0)
          to label %516 unwind label %518, !dbg !6084

516:                                              ; preds = %513
  %517 = call noundef nonnull align 8 dereferenceable(16) ptr @_ZNSt10shared_ptrI12StreamSocketEaSI15SslStreamSocketEENSt9enable_ifIXsr13is_assignableIRSt12__shared_ptrIS0_LN9__gnu_cxx12_Lock_policyE2EES_IT_EEE5valueERS1_E4typeEOSB_(ptr noundef nonnull align 8 dereferenceable(16) %0, ptr noundef nonnull align 8 dereferenceable(16) %54) #3, !dbg !6085
  call void @_ZNSt10shared_ptrI15SslStreamSocketED2Ev(ptr noundef nonnull align 8 dereferenceable(16) %54) #3, !dbg !6086
  call void @_ZNSt10shared_ptrI24ProtocolHandlerInterfaceED2Ev(ptr noundef nonnull align 8 dereferenceable(16) %56) #3, !dbg !6086
  call void @_ZNSt7__cxx1112basic_stringIcSt11char_traitsIcESaIcEED1Ev(ptr noundef nonnull align 8 dereferenceable(32) %55) #3, !dbg !6086
  br label %522, !dbg !6086

518:                                              ; preds = %513
  %519 = landingpad { ptr, i32 }
          cleanup, !dbg !6087
  %520 = extractvalue { ptr, i32 } %519, 0, !dbg !6087
  store ptr %520, ptr %13, align 8, !dbg !6087
  %521 = extractvalue { ptr, i32 } %519, 1, !dbg !6087
  store i32 %521, ptr %14, align 4, !dbg !6087
  call void @_ZNSt10shared_ptrI24ProtocolHandlerInterfaceED2Ev(ptr noundef nonnull align 8 dereferenceable(16) %56) #3, !dbg !6086
  call void @_ZNSt7__cxx1112basic_stringIcSt11char_traitsIcESaIcEED1Ev(ptr noundef nonnull align 8 dereferenceable(32) %55) #3, !dbg !6086
  br label %625, !dbg !6086

522:                                              ; preds = %516, %508
  %523 = call noundef zeroext i1 @_ZNKSt12__shared_ptrI12StreamSocketLN9__gnu_cxx12_Lock_policyE2EEcvbEv(ptr noundef nonnull align 8 dereferenceable(16) %0) #3, !dbg !6088
  br i1 %523, label %538, label %524, !dbg !6090

524:                                              ; preds = %522
  %525 = load i8, ptr %9, align 1, !dbg !6091
  %526 = trunc i8 %525 to i1, !dbg !6091
  br i1 %526, label %538, label %527, !dbg !6092

527:                                              ; preds = %524
  %528 = load ptr, ptr %7, align 8, !dbg !6093
  invoke void @_ZNSt7__cxx1112basic_stringIcSt11char_traitsIcESaIcEEC1ERKS4_(ptr noundef nonnull align 8 dereferenceable(32) %58, ptr noundef nonnull align 8 dereferenceable(32) %528)
          to label %529 unwind label %275, !dbg !6093

529:                                              ; preds = %527
  %530 = load i32, ptr %34, align 4, !dbg !6094
  %531 = load ptr, ptr %10, align 8, !dbg !6095
  call void @_ZNSt10shared_ptrI24ProtocolHandlerInterfaceEC2ERKS1_(ptr noundef nonnull align 8 dereferenceable(16) %59, ptr noundef nonnull align 8 dereferenceable(16) %531) #3, !dbg !6095
  invoke void @_ZN12StreamSocket6createIS_EESt10shared_ptrIT_ENSt7__cxx1112basic_stringIcSt11char_traitsIcESaIcEEEibS1_I24ProtocolHandlerInterfaceENS_8ReadTypeE(ptr sret(%"class.std::shared_ptr.11") align 8 %57, ptr noundef %58, i32 noundef %530, i1 noundef zeroext true, ptr noundef %59, i32 noundef 0)
          to label %532 unwind label %534, !dbg !6096

532:                                              ; preds = %529
  %533 = call noundef nonnull align 8 dereferenceable(16) ptr @_ZNSt10shared_ptrI12StreamSocketEaSEOS1_(ptr noundef nonnull align 8 dereferenceable(16) %0, ptr noundef nonnull align 8 dereferenceable(16) %57) #3, !dbg !6097
  call void @_ZNSt10shared_ptrI12StreamSocketED2Ev(ptr noundef nonnull align 8 dereferenceable(16) %57) #3, !dbg !6098
  call void @_ZNSt10shared_ptrI24ProtocolHandlerInterfaceED2Ev(ptr noundef nonnull align 8 dereferenceable(16) %59) #3, !dbg !6098
  call void @_ZNSt7__cxx1112basic_stringIcSt11char_traitsIcESaIcEED1Ev(ptr noundef nonnull align 8 dereferenceable(32) %58) #3, !dbg !6098
  br label %538, !dbg !6098

534:                                              ; preds = %529
  %535 = landingpad { ptr, i32 }
          cleanup, !dbg !6099
  %536 = extractvalue { ptr, i32 } %535, 0, !dbg !6099
  store ptr %536, ptr %13, align 8, !dbg !6099
  %537 = extractvalue { ptr, i32 } %535, 1, !dbg !6099
  store i32 %537, ptr %14, align 4, !dbg !6099
  call void @_ZNSt10shared_ptrI24ProtocolHandlerInterfaceED2Ev(ptr noundef nonnull align 8 dereferenceable(16) %59) #3, !dbg !6098
  call void @_ZNSt7__cxx1112basic_stringIcSt11char_traitsIcESaIcEED1Ev(ptr noundef nonnull align 8 dereferenceable(32) %58) #3, !dbg !6098
  br label %625, !dbg !6098

538:                                              ; preds = %532, %524, %522
  %539 = call noundef zeroext i1 @_ZNKSt12__shared_ptrI12StreamSocketLN9__gnu_cxx12_Lock_policyE2EEcvbEv(ptr noundef nonnull align 8 dereferenceable(16) %0) #3, !dbg !6100
  br i1 %539, label %540, label %541, !dbg !6102

540:                                              ; preds = %538
  store i32 10, ptr %21, align 4
  br label %618, !dbg !6103

541:                                              ; preds = %538
  br label %542, !dbg !6104

542:                                              ; preds = %541
  call void @llvm.dbg.declare(metadata ptr %60, metadata !6105, metadata !DIExpression()), !dbg !6107
  %543 = invoke noundef nonnull align 8 dereferenceable(68) ptr @_ZN3Log6loggerEv()
          to label %544 unwind label %275, !dbg !6107

544:                                              ; preds = %542
  store ptr %543, ptr %60, align 8, !dbg !6107
  %545 = invoke noundef zeroext i1 @_ZN3Log16isShutdownCalledEv()
          to label %546 unwind label %275, !dbg !6108

546:                                              ; preds = %544
  br i1 %545, label %610, label %547, !dbg !6108

547:                                              ; preds = %546
  %548 = load ptr, ptr %60, align 8, !dbg !6108
  %549 = invoke noundef zeroext i1 @_ZNK4Poco6Logger5errorEv(ptr noundef nonnull align 8 dereferenceable(68) %548)
          to label %550 unwind label %275, !dbg !6108

550:                                              ; preds = %547
  br i1 %549, label %551, label %610, !dbg !6107

551:                                              ; preds = %550
  call void @llvm.dbg.declare(metadata ptr %61, metadata !6110, metadata !DIExpression()), !dbg !6112
  call void @llvm.dbg.declare(metadata ptr %62, metadata !6113, metadata !DIExpression()), !dbg !6112
  %552 = getelementptr inbounds [1024 x i8], ptr %61, i64 0, i64 0, !dbg !6112
  %553 = invoke noundef ptr @_ZN3Log6prefixILi1023EEEPcS1_PKc(ptr noundef %552, ptr noundef @.str.12)
          to label %554 unwind label %275, !dbg !6112

554:                                              ; preds = %551
  call void @_ZNSaIcEC1Ev(ptr noundef nonnull align 1 dereferenceable(1) %64) #3, !dbg !6112
  invoke void @_ZNSt7__cxx1112basic_stringIcSt11char_traitsIcESaIcEEC2IS3_EEPKcRKS3_(ptr noundef nonnull align 8 dereferenceable(32) %63, ptr noundef %553, ptr noundef nonnull align 1 dereferenceable(1) %64)
          to label %555 unwind label %587, !dbg !6112

555:                                              ; preds = %554
  invoke void @_ZNSt7__cxx1119basic_ostringstreamIcSt11char_traitsIcESaIcEEC1ERKNS_12basic_stringIcS2_S3_EESt13_Ios_Openmode(ptr noundef nonnull align 8 dereferenceable(112) %62, ptr noundef nonnull align 8 dereferenceable(32) %63, i32 noundef 2)
          to label %556 unwind label %591, !dbg !6112

556:                                              ; preds = %555
  call void @_ZNSt7__cxx1112basic_stringIcSt11char_traitsIcESaIcEED1Ev(ptr noundef nonnull align 8 dereferenceable(32) %63) #3, !dbg !6112
  call void @_ZNSaIcED1Ev(ptr noundef nonnull align 1 dereferenceable(1) %64) #3, !dbg !6112
  %557 = invoke noundef nonnull align 8 dereferenceable(8) ptr @_ZNSolsEPFRSt8ios_baseS0_E(ptr noundef nonnull align 8 dereferenceable(8) %62, ptr noundef @_ZSt9boolalphaRSt8ios_base)
          to label %558 unwind label %596, !dbg !6112

558:                                              ; preds = %556
  %559 = invoke noundef nonnull align 8 dereferenceable(8) ptr @_ZStlsISt11char_traitsIcEERSt13basic_ostreamIcT_ES5_PKc(ptr noundef nonnull align 8 dereferenceable(8) %557, ptr noundef @.str.22)
          to label %560 unwind label %596, !dbg !6112

560:                                              ; preds = %558
  %561 = load ptr, ptr %7, align 8, !dbg !6112
  %562 = invoke noundef nonnull align 8 dereferenceable(8) ptr @_ZStlsIcSt11char_traitsIcESaIcEERSt13basic_ostreamIT_T0_ES7_RKNSt7__cxx1112basic_stringIS4_S5_T1_EE(ptr noundef nonnull align 8 dereferenceable(8) %559, ptr noundef nonnull align 8 dereferenceable(32) %561)
          to label %563 unwind label %596, !dbg !6112

563:                                              ; preds = %560
  br label %564, !dbg !6112

564:                                              ; preds = %563
  %565 = invoke noundef nonnull align 8 dereferenceable(8) ptr @_ZStlsISt11char_traitsIcEERSt13basic_ostreamIcT_ES5_PKc(ptr noundef nonnull align 8 dereferenceable(8) %62, ptr noundef @.str.4)
          to label %566 unwind label %596, !dbg !6114

566:                                              ; preds = %564
  %567 = invoke noundef nonnull align 8 dereferenceable(8) ptr @_ZStlsISt11char_traitsIcEERSt13basic_ostreamIcT_ES5_PKc(ptr noundef nonnull align 8 dereferenceable(8) %565, ptr noundef @.str.5)
          to label %568 unwind label %596, !dbg !6114

568:                                              ; preds = %566
  %569 = invoke noundef nonnull align 8 dereferenceable(8) ptr @_ZStlsISt11char_traitsIcEERSt13basic_ostreamIcT_ES5_c(ptr noundef nonnull align 8 dereferenceable(8) %567, i8 noundef signext 58)
          to label %570 unwind label %596, !dbg !6114

570:                                              ; preds = %568
  %571 = invoke noundef nonnull align 8 dereferenceable(8) ptr @_ZNSolsEi(ptr noundef nonnull align 8 dereferenceable(8) %569, i32 noundef 143)
          to label %572 unwind label %596, !dbg !6114

572:                                              ; preds = %570
  %573 = invoke noundef nonnull align 8 dereferenceable(8) ptr @_ZNSo5flushEv(ptr noundef nonnull align 8 dereferenceable(8) %62)
          to label %574 unwind label %596, !dbg !6117

574:                                              ; preds = %572
  br label %575, !dbg !6117

575:                                              ; preds = %574
  br label %576, !dbg !6117

576:                                              ; preds = %575
  %577 = load ptr, ptr %60, align 8, !dbg !6112
  %578 = load ptr, ptr %60, align 8, !dbg !6112
  %579 = invoke noundef nonnull align 8 dereferenceable(32) ptr @_ZNK4Poco6Logger4nameB5cxx11Ev(ptr noundef nonnull align 8 dereferenceable(68) %578)
          to label %580 unwind label %596, !dbg !6112

580:                                              ; preds = %576
  invoke void @_ZNKSt7__cxx1119basic_ostringstreamIcSt11char_traitsIcESaIcEE3strEv(ptr sret(%"class.std::__cxx11::basic_string") align 8 %66, ptr noundef nonnull align 8 dereferenceable(112) %62)
          to label %581 unwind label %596, !dbg !6112

581:                                              ; preds = %580
  invoke void @_ZN4Poco7MessageC1ERKNSt7__cxx1112basic_stringIcSt11char_traitsIcESaIcEEES8_NS0_8PriorityE(ptr noundef nonnull align 8 dereferenceable(152) %65, ptr noundef nonnull align 8 dereferenceable(32) %579, ptr noundef nonnull align 8 dereferenceable(32) %66, i32 noundef 3)
          to label %582 unwind label %600, !dbg !6112

582:                                              ; preds = %581
  %583 = load ptr, ptr %577, align 8, !dbg !6112
  %584 = getelementptr inbounds ptr, ptr %583, i64 6, !dbg !6112
  %585 = load ptr, ptr %584, align 8, !dbg !6112
  invoke void %585(ptr noundef nonnull align 8 dereferenceable(68) %577, ptr noundef nonnull align 8 dereferenceable(152) %65)
          to label %586 unwind label %604, !dbg !6112

586:                                              ; preds = %582
  call void @_ZN4Poco7MessageD1Ev(ptr noundef nonnull align 8 dereferenceable(152) %65) #3, !dbg !6112
  call void @_ZNSt7__cxx1112basic_stringIcSt11char_traitsIcESaIcEED1Ev(ptr noundef nonnull align 8 dereferenceable(32) %66) #3, !dbg !6112
  call void @_ZNSt7__cxx1119basic_ostringstreamIcSt11char_traitsIcESaIcEED1Ev(ptr noundef nonnull align 8 dereferenceable(112) %62) #3, !dbg !6108
  br label %610, !dbg !6112

587:                                              ; preds = %554
  %588 = landingpad { ptr, i32 }
          cleanup, !dbg !6118
  %589 = extractvalue { ptr, i32 } %588, 0, !dbg !6118
  store ptr %589, ptr %13, align 8, !dbg !6118
  %590 = extractvalue { ptr, i32 } %588, 1, !dbg !6118
  store i32 %590, ptr %14, align 4, !dbg !6118
  br label %595, !dbg !6118

591:                                              ; preds = %555
  %592 = landingpad { ptr, i32 }
          cleanup, !dbg !6118
  %593 = extractvalue { ptr, i32 } %592, 0, !dbg !6118
  store ptr %593, ptr %13, align 8, !dbg !6118
  %594 = extractvalue { ptr, i32 } %592, 1, !dbg !6118
  store i32 %594, ptr %14, align 4, !dbg !6118
  call void @_ZNSt7__cxx1112basic_stringIcSt11char_traitsIcESaIcEED1Ev(ptr noundef nonnull align 8 dereferenceable(32) %63) #3, !dbg !6112
  br label %595, !dbg !6112

595:                                              ; preds = %591, %587
  call void @_ZNSaIcED1Ev(ptr noundef nonnull align 1 dereferenceable(1) %64) #3, !dbg !6112
  br label %625, !dbg !6112

596:                                              ; preds = %580, %576, %572, %570, %568, %566, %564, %560, %558, %556
  %597 = landingpad { ptr, i32 }
          cleanup, !dbg !6118
  %598 = extractvalue { ptr, i32 } %597, 0, !dbg !6118
  store ptr %598, ptr %13, align 8, !dbg !6118
  %599 = extractvalue { ptr, i32 } %597, 1, !dbg !6118
  store i32 %599, ptr %14, align 4, !dbg !6118
  br label %609, !dbg !6118

600:                                              ; preds = %581
  %601 = landingpad { ptr, i32 }
          cleanup, !dbg !6118
  %602 = extractvalue { ptr, i32 } %601, 0, !dbg !6118
  store ptr %602, ptr %13, align 8, !dbg !6118
  %603 = extractvalue { ptr, i32 } %601, 1, !dbg !6118
  store i32 %603, ptr %14, align 4, !dbg !6118
  br label %608, !dbg !6118

604:                                              ; preds = %582
  %605 = landingpad { ptr, i32 }
          cleanup, !dbg !6118
  %606 = extractvalue { ptr, i32 } %605, 0, !dbg !6118
  store ptr %606, ptr %13, align 8, !dbg !6118
  %607 = extractvalue { ptr, i32 } %605, 1, !dbg !6118
  store i32 %607, ptr %14, align 4, !dbg !6118
  call void @_ZN4Poco7MessageD1Ev(ptr noundef nonnull align 8 dereferenceable(152) %65) #3, !dbg !6112
  br label %608, !dbg !6112

608:                                              ; preds = %604, %600
  call void @_ZNSt7__cxx1112basic_stringIcSt11char_traitsIcESaIcEED1Ev(ptr noundef nonnull align 8 dereferenceable(32) %66) #3, !dbg !6112
  br label %609, !dbg !6112

609:                                              ; preds = %608, %596
  call void @_ZNSt7__cxx1119basic_ostringstreamIcSt11char_traitsIcESaIcEED1Ev(ptr noundef nonnull align 8 dereferenceable(112) %62) #3, !dbg !6108
  br label %625, !dbg !6108

610:                                              ; preds = %586, %550, %546
  br label %611, !dbg !6107

611:                                              ; preds = %610
  br label %612, !dbg !6107

612:                                              ; preds = %611
  %613 = load i32, ptr %34, align 4, !dbg !6119
  %614 = invoke i32 @close(i32 noundef %613)
          to label %615 unwind label %275, !dbg !6120

615:                                              ; preds = %612
  store i32 10, ptr %21, align 4
  br label %618, !dbg !6121

616:                                              ; preds = %507
  br label %617, !dbg !6122

617:                                              ; preds = %616, %284, %279
  store i32 0, ptr %21, align 4, !dbg !6123
  br label %618, !dbg !6123

618:                                              ; preds = %617, %615, %540, %390
  call void @_ZNSt7__cxx1112basic_stringIcSt11char_traitsIcESaIcEED1Ev(ptr noundef nonnull align 8 dereferenceable(32) %33) #3, !dbg !6123
  %619 = load i32, ptr %21, align 4
  switch i32 %619, label %736 [
    i32 0, label %620
    i32 12, label %621
    i32 10, label %626
  ]

620:                                              ; preds = %618
  br label %621, !dbg !6124

621:                                              ; preds = %620, %618
  %622 = load ptr, ptr %32, align 8, !dbg !6125
  %623 = getelementptr inbounds %struct.addrinfo, ptr %622, i32 0, i32 7, !dbg !6126
  %624 = load ptr, ptr %623, align 8, !dbg !6126
  store ptr %624, ptr %32, align 8, !dbg !6127
  br label %261, !dbg !6128, !llvm.loop !6129

625:                                              ; preds = %609, %595, %534, %518, %499, %481, %385, %367, %275
  call void @_ZNSt7__cxx1112basic_stringIcSt11char_traitsIcESaIcEED1Ev(ptr noundef nonnull align 8 dereferenceable(32) %33) #3, !dbg !6123
  br label %730, !dbg !6123

