; ModuleID = 'wsd/ProofKey.cpp'
source_filename = "wsd/ProofKey.cpp"
target datalayout = "e-m:e-p270:32:32-p271:32:32-p272:64:64-i64:64-f80:128-n8:16:32:64-S128"
target triple = "x86_64-unknown-linux-gnu"

%"class.std::ios_base::Init" = type { i8 }
%"struct.Log::_end_marker" = type { i8 }
%"class.std::__cxx11::basic_string" = type { %"struct.std::__cxx11::basic_string<char>::_Alloc_hider", i64, %union.anon.3 }
%"struct.std::__cxx11::basic_string<char>::_Alloc_hider" = type { ptr }
%union.anon.3 = type { i64, [8 x i8] }
%"class.Poco::Crypto::RSADigestEngine" = type { %"class.Poco::DigestEngine", %"class.Poco::Crypto::RSAKey", %"class.Poco::Crypto::DigestEngine", %"class.std::vector", %"class.std::vector" }
%"class.Poco::DigestEngine" = type { ptr }
%"class.Poco::Crypto::RSAKey" = type { %"class.Poco::Crypto::KeyPair" }
%"class.Poco::Crypto::KeyPair" = type { ptr, %"class.Poco::AutoPtr.7" }
%"class.Poco::AutoPtr.7" = type { ptr }
%"class.Poco::Crypto::DigestEngine" = type <{ %"class.Poco::DigestEngine", %"class.std::__cxx11::basic_string", ptr, %"class.std::vector", %"class.Poco::Crypto::OpenSSLInitializer", [7 x i8] }>
%"class.Poco::Crypto::OpenSSLInitializer" = type { i8 }
%"class.std::vector" = type { %"struct.std::_Vector_base" }
%"struct.std::_Vector_base" = type { %"struct.std::_Vector_base<unsigned char, std::allocator<unsigned char>>::_Vector_impl" }
%"struct.std::_Vector_base<unsigned char, std::allocator<unsigned char>>::_Vector_impl" = type { %"struct.std::_Vector_base<unsigned char, std::allocator<unsigned char>>::_Vector_impl_data" }
%"struct.std::_Vector_base<unsigned char, std::allocator<unsigned char>>::_Vector_impl_data" = type { ptr, ptr, ptr }
%class.Proof = type { %"class.std::unique_ptr", %"class.std::vector.8" }
%"class.std::unique_ptr" = type { %"struct.std::__uniq_ptr_data" }
%"struct.std::__uniq_ptr_data" = type { %"class.std::__uniq_ptr_impl" }
%"class.std::__uniq_ptr_impl" = type { %"class.std::tuple" }
%"class.std::tuple" = type { %"struct.std::_Tuple_impl" }
%"struct.std::_Tuple_impl" = type { %"struct.std::_Head_base.6" }
%"struct.std::_Head_base.6" = type { ptr }
%"class.std::vector.8" = type { %"struct.std::_Vector_base.9" }
%"struct.std::_Vector_base.9" = type { %"struct.std::_Vector_base<std::pair<std::__cxx11::basic_string<char>, std::__cxx11::basic_string<char>>, std::allocator<std::pair<std::__cxx11::basic_string<char>, std::__cxx11::basic_string<char>>>>::_Vector_impl" }
%"struct.std::_Vector_base<std::pair<std::__cxx11::basic_string<char>, std::__cxx11::basic_string<char>>, std::allocator<std::pair<std::__cxx11::basic_string<char>, std::__cxx11::basic_string<char>>>>::_Vector_impl" = type { %"struct.std::_Vector_base<std::pair<std::__cxx11::basic_string<char>, std::__cxx11::basic_string<char>>, std::allocator<std::pair<std::__cxx11::basic_string<char>, std::__cxx11::basic_string<char>>>>::_Vector_impl_data" }
%"struct.std::_Vector_base<std::pair<std::__cxx11::basic_string<char>, std::__cxx11::basic_string<char>>, std::allocator<std::pair<std::__cxx11::basic_string<char>, std::__cxx11::basic_string<char>>>>::_Vector_impl_data" = type { ptr, ptr, ptr }
%"class.Poco::Net::IPAddress" = type { %"class.Poco::AutoPtr" }
%"class.Poco::AutoPtr" = type { ptr }
%"class.Poco::Net::Impl::IPv4SocketAddressImpl" = type { %"class.Poco::Net::Impl::SocketAddressImpl.base", %struct.sockaddr_in, [4 x i8] }
%"class.Poco::Net::Impl::SocketAddressImpl.base" = type { %"class.Poco::RefCountedObject.base" }
%"class.Poco::RefCountedObject.base" = type <{ ptr, %"class.Poco::AtomicCounter" }>
%"class.Poco::AtomicCounter" = type { %"struct.std::atomic" }
%"struct.std::atomic" = type { %"struct.std::__atomic_base" }
%"struct.std::__atomic_base" = type { i32 }
%struct.sockaddr_in = type { i16, i16, %struct.in_addr, [8 x i8] }
%struct.in_addr = type { i32 }
%"class.Poco::Net::Impl::IPv6SocketAddressImpl" = type { %"class.Poco::Net::Impl::SocketAddressImpl.base", %struct.sockaddr_in6 }
%struct.sockaddr_in6 = type { i16, i16, i32, %struct.in6_addr, i32 }
%struct.in6_addr = type { %union.anon }
%union.anon = type { [4 x i32] }
%"class.std::__cxx11::basic_ostringstream" = type { %"class.std::basic_ostream.base", %"class.std::__cxx11::basic_stringbuf", %"class.std::basic_ios" }
%"class.std::basic_ostream.base" = type { ptr }
%"class.std::__cxx11::basic_stringbuf" = type { %"class.std::basic_streambuf", i32, %"class.std::__cxx11::basic_string" }
%"class.std::basic_streambuf" = type { ptr, ptr, ptr, ptr, ptr, ptr, ptr, %"class.std::locale" }
%"class.std::locale" = type { ptr }
%"class.std::basic_ios" = type { %"class.std::ios_base", ptr, i8, i8, ptr, ptr, ptr, ptr }
%"class.std::ios_base" = type { ptr, i64, i64, i32, i32, i32, ptr, %"struct.std::ios_base::_Words", [8 x %"struct.std::ios_base::_Words"], i32, ptr, %"class.std::locale" }
%"struct.std::ios_base::_Words" = type { ptr, i64 }
%"class.Poco::OutputLineEndingConverter" = type { %"class.Poco::LineEndingConverterIOS.base", %"class.std::basic_ostream.base", %"class.std::basic_ios" }
%"class.Poco::LineEndingConverterIOS.base" = type { ptr, %"class.Poco::LineEndingConverterStreamBuf" }
%"class.Poco::LineEndingConverterStreamBuf" = type <{ %"class.Poco::BasicUnbufferedStreamBuf.base", [3 x i8], ptr, ptr, %"class.std::__cxx11::basic_string", %"class.__gnu_cxx::__normal_iterator", i8, [7 x i8] }>
%"class.Poco::BasicUnbufferedStreamBuf.base" = type <{ %"class.std::basic_streambuf", i32, i8 }>
%"class.__gnu_cxx::__normal_iterator" = type { ptr }
%"class.std::allocator.0" = type { i8 }
%"class.Poco::Base64Encoder" = type { %"class.Poco::Base64EncoderIOS.base", %"class.std::basic_ostream.base", %"class.std::basic_ios" }
%"class.Poco::Base64EncoderIOS.base" = type { ptr, %"class.Poco::Base64EncoderBuf" }
%"class.Poco::Base64EncoderBuf" = type { %"class.Poco::BasicUnbufferedStreamBuf.base", i32, [3 x i8], i32, i32, i32, ptr, ptr }
%"class.__gnu_cxx::__normal_iterator.4" = type { ptr }
%"struct.std::forward_iterator_tag" = type { i8 }
%"struct.std::random_access_iterator_tag" = type { i8 }
%"class.std::__cxx11::basic_istringstream" = type { %"class.std::basic_istream.base", %"class.std::__cxx11::basic_stringbuf", %"class.std::basic_ios" }
%"class.std::basic_istream.base" = type { ptr, i64 }
%"class.Poco::Base64Decoder" = type { %"class.Poco::Base64DecoderIOS.base", %"class.std::basic_istream.base", %"class.std::basic_ios" }
%"class.Poco::Base64DecoderIOS.base" = type { ptr, %"class.Poco::Base64DecoderBuf" }
%"class.Poco::Base64DecoderBuf" = type { %"class.Poco::BasicUnbufferedStreamBuf.base", i32, [3 x i8], i32, i32, ptr, ptr }
%"class.std::allocator" = type { i8 }
%"class.std::reverse_iterator" = type { %"class.__gnu_cxx::__normal_iterator.4" }
%"class.__gnu_cxx::__normal_iterator.14" = type { ptr }
%"class.std::initializer_list" = type { ptr, i64 }
%"class.std::back_insert_iterator" = type { ptr }
%"class.__gnu_cxx::__normal_iterator.23" = type { ptr }
%"struct.std::pair" = type { %"class.std::__cxx11::basic_string", %"class.std::__cxx11::basic_string" }
%class.anon = type { i8 }
%"class.Poco::Message" = type { %"class.std::__cxx11::basic_string", %"class.std::__cxx11::basic_string", i32, %"class.Poco::Timestamp", i64, %"class.std::__cxx11::basic_string", i64, ptr, i32, ptr }
%"class.Poco::Timestamp" = type { i64 }
%"struct.std::chrono::time_point" = type { %"struct.std::chrono::duration" }
%"struct.std::chrono::duration" = type { i64 }
%"struct.std::chrono::time_point.21" = type { %"struct.std::chrono::duration.22" }
%"struct.std::chrono::duration.22" = type { i64 }
%"class.__gnu_cxx::__normal_iterator.16" = type { ptr }
%"class.Poco::Logger" = type <{ %"class.Poco::Channel.base", [4 x i8], %"class.std::__cxx11::basic_string", %"class.Poco::AutoPtr.17", i32, [4 x i8] }>
%"class.Poco::Channel.base" = type <{ %"class.Poco::Configurable", %"class.Poco::RefCountedObject.base" }>
%"class.Poco::Configurable" = type { ptr }
%"class.Poco::AutoPtr.17" = type { ptr }
%"class.Poco::LocalDateTime" = type <{ %"class.Poco::DateTime", i32, [4 x i8] }>
%"class.Poco::DateTime" = type { i64, i16, i16, i16, i16, i16, i16, i16, i16 }
%"struct.std::__false_type" = type { i8 }
%"struct.std::integral_constant" = type { i8 }
%"class.std::reverse_iterator.24" = type { ptr }
%"class.std::reverse_iterator.25" = type { %"class.__gnu_cxx::__normal_iterator.14" }
%"class.std::reverse_iterator.27" = type { ptr }

$_ZN3Log11_end_markerC2Ev = comdat any

$_ZNK4Poco3Net4Impl21IPv4SocketAddressImpl4hostEv = comdat any

$_ZNK4Poco3Net4Impl21IPv6SocketAddressImpl4hostEv = comdat any

$_ZNSt7__cxx1112basic_stringIcSt11char_traitsIcESaIcEEC2IS3_EEPKcRKS3_ = comdat any

$_ZNKSt6vectorIhSaIhEE5beginEv = comdat any

$_ZNKSt6vectorIhSaIhEE3endEv = comdat any

$_ZNSt7__cxx1112basic_stringIcSt11char_traitsIcESaIcEEC2IN9__gnu_cxx17__normal_iteratorIPKhSt6vectorIhSaIhEEEEvEET_SE_RKS3_ = comdat any

$_ZNSt6vectorIhSaIhEEC2Ev = comdat any

$_ZNSt6vectorIhSaIhEE9push_backEOh = comdat any

$_ZNSt6vectorIhSaIhEED2Ev = comdat any

$_ZNKSt10unique_ptrIKN4Poco6Crypto6RSAKeyESt14default_deleteIS3_EEcvbEv = comdat any

$_ZNKSt10unique_ptrIKN4Poco6Crypto6RSAKeyESt14default_deleteIS3_EEptEv = comdat any

$_ZNSt6vectorISt4pairINSt7__cxx1112basic_stringIcSt11char_traitsIcESaIcEEES6_ESaIS7_EE12emplace_backIJRA6_KcRKS6_EEERS7_DpOT_ = comdat any

$_ZNSt6vectorISt4pairINSt7__cxx1112basic_stringIcSt11char_traitsIcESaIcEEES6_ESaIS7_EE12emplace_backIJRA8_KcRKS6_EEERS7_DpOT_ = comdat any

$_ZNSt6vectorISt4pairINSt7__cxx1112basic_stringIcSt11char_traitsIcESaIcEEES6_ESaIS7_EE12emplace_backIJRA9_KcRKS6_EEERS7_DpOT_ = comdat any

$_ZNSt6vectorISt4pairINSt7__cxx1112basic_stringIcSt11char_traitsIcESaIcEEES6_ESaIS7_EE12emplace_backIJRA11_KcRKS6_EEERS7_DpOT_ = comdat any

$_ZNSt6vectorISt4pairINSt7__cxx1112basic_stringIcSt11char_traitsIcESaIcEEES6_ESaIS7_EE12emplace_backIJRA12_KcRKS6_EEERS7_DpOT_ = comdat any

$_ZNSt10unique_ptrIKN4Poco6Crypto6RSAKeyESt14default_deleteIS3_EEC2IS5_vEEPS3_ = comdat any

$_ZNSt6vectorISt4pairINSt7__cxx1112basic_stringIcSt11char_traitsIcESaIcEEES6_ESaIS7_EEC2Ev = comdat any

$_ZNSt6vectorISt4pairINSt7__cxx1112basic_stringIcSt11char_traitsIcESaIcEEES6_ESaIS7_EED2Ev = comdat any

$_ZNSt10unique_ptrIKN4Poco6Crypto6RSAKeyESt14default_deleteIS3_EED2Ev = comdat any

$_ZNKSt6vectorIhSaIhEE4sizeEv = comdat any

$_ZN10ParseErrorCI2St13runtime_errorEPKc = comdat any

$_ZN10ParseErrorD2Ev = comdat any

$_ZNSaIhEC2Ev = comdat any

$_ZNSt6vectorIhSaIhEEC2EmRKS0_ = comdat any

$_ZNSaIhED2Ev = comdat any

$_ZSt4copyISt16reverse_iteratorIN9__gnu_cxx17__normal_iteratorIPKhSt6vectorIhSaIhEEEEENS2_IPhS7_EEET0_T_SD_SC_ = comdat any

$_ZNKSt6vectorIhSaIhEE6rbeginEv = comdat any

$_ZNKSt6vectorIhSaIhEE4rendEv = comdat any

$_ZNSt6vectorIhSaIhEE5beginEv = comdat any

$_ZNSt6vectorIhSaIhEEC2ESt16initializer_listIhERKS0_ = comdat any

$_ZNSt6vectorIhSaIhEE7reserveEm = comdat any

$_ZSt4copyIN9__gnu_cxx17__normal_iteratorIPKhSt6vectorIhSaIhEEEESt20back_insert_iteratorIS6_EET0_T_SB_SA_ = comdat any

$_ZSt13back_inserterISt6vectorIhSaIhEEESt20back_insert_iteratorIT_ERS4_ = comdat any

$_ZSt4copyIN9__gnu_cxx17__normal_iteratorIPhSt6vectorIhSaIhEEEESt20back_insert_iteratorIS5_EET0_T_SA_S9_ = comdat any

$_ZNSt6vectorIhSaIhEE3endEv = comdat any

$_ZSt4copyISt16reverse_iteratorIN9__gnu_cxx17__normal_iteratorIPKhSt6vectorIhSaIhEEEEESt20back_insert_iteratorIS7_EET0_T_SD_SC_ = comdat any

$_ZNSt6chrono3_V212system_clock11from_time_tEl = comdat any

$_ZNSt6chrono13duration_castINS_8durationIlSt5ratioILl1ELl1000000000EEEElS3_EENSt9enable_ifIXsr13__is_durationIT_EE5valueES6_E4typeERKNS1_IT0_T1_EE = comdat any

$_ZNSt6chronomiINS_3_V212system_clockENS_8durationIlSt5ratioILl1ELl1000000000EEEES6_EENSt11common_typeIJT0_T1_EE4typeERKNS_10time_pointIT_S8_EERKNSC_ISD_S9_EE = comdat any

$_ZNKSt6chrono8durationIlSt5ratioILl1ELl1000000000EEE5countEv = comdat any

$_ZN9__gnu_cxxneIPcNSt7__cxx1112basic_stringIcSt11char_traitsIcESaIcEEEEEbRKNS_17__normal_iteratorIT_T0_EESD_ = comdat any

$_ZNK9__gnu_cxx17__normal_iteratorIPcNSt7__cxx1112basic_stringIcSt11char_traitsIcESaIcEEEEdeEv = comdat any

$_ZN9__gnu_cxx17__normal_iteratorIPcNSt7__cxx1112basic_stringIcSt11char_traitsIcESaIcEEEEppEv = comdat any

$_ZSt4copyIN9__gnu_cxx17__normal_iteratorIPKhSt6vectorIhSaIhEEEENS1_IPhS6_EEET0_T_SB_SA_ = comdat any

$_ZSt4copyIN9__gnu_cxx17__normal_iteratorIPKcNSt7__cxx1112basic_stringIcSt11char_traitsIcESaIcEEEEENS1_IPhSt6vectorIhSaIhEEEEET0_T_SH_SG_ = comdat any

$_ZSt4copyIN9__gnu_cxx17__normal_iteratorIPcNSt7__cxx1112basic_stringIcSt11char_traitsIcESaIcEEEEENS1_IPhSt6vectorIhSaIhEEEEET0_T_SG_SF_ = comdat any

$_ZNKSt10unique_ptrIKN4Poco6Crypto6RSAKeyESt14default_deleteIS3_EEdeEv = comdat any

$_ZN4Poco12DigestEngine6updateEPKvm = comdat any

$_ZNKSt6vectorIhSaIhEE4dataEv = comdat any

$_ZNSt6vectorISt4pairINSt7__cxx1112basic_stringIcSt11char_traitsIcESaIcEEES6_ESaIS7_EE12emplace_backIJRA17_KcS6_EEERS7_DpOT_ = comdat any

$_ZNSt7__cxx119to_stringEl = comdat any

$_ZNSt6vectorISt4pairINSt7__cxx1112basic_stringIcSt11char_traitsIcESaIcEEES6_ESaIS7_EE12emplace_backIJRA13_KcRKS6_EEERS7_DpOT_ = comdat any

$_ZNSt6vectorISt4pairINSt7__cxx1112basic_stringIcSt11char_traitsIcESaIcEEES6_ESaIS7_EE12emplace_backIJRA16_KcRKS6_EEERS7_DpOT_ = comdat any

$_ZN5ProofD2Ev = comdat any

$_ZNK5Proof21GetProofKeyAttributesB5cxx11Ev = comdat any

$_ZN4Poco3Net4Impl21IPv4SocketAddressImplD2Ev = comdat any

$_ZN4Poco3Net4Impl21IPv4SocketAddressImplD0Ev = comdat any

$_ZNK4Poco3Net4Impl21IPv4SocketAddressImpl4portEv = comdat any

$_ZNK4Poco3Net4Impl21IPv4SocketAddressImpl6lengthEv = comdat any

$_ZNK4Poco3Net4Impl21IPv4SocketAddressImpl4addrEv = comdat any

$_ZNK4Poco3Net4Impl21IPv4SocketAddressImpl2afEv = comdat any

$_ZNK4Poco3Net4Impl21IPv4SocketAddressImpl6familyEv = comdat any

$_ZN4Poco3Net4Impl21IPv6SocketAddressImplD2Ev = comdat any

$_ZN4Poco3Net4Impl21IPv6SocketAddressImplD0Ev = comdat any

$_ZNK4Poco3Net4Impl21IPv6SocketAddressImpl4portEv = comdat any

$_ZNK4Poco3Net4Impl21IPv6SocketAddressImpl6lengthEv = comdat any

$_ZNK4Poco3Net4Impl21IPv6SocketAddressImpl4addrEv = comdat any

$_ZNK4Poco3Net4Impl21IPv6SocketAddressImpl2afEv = comdat any

$_ZNK4Poco3Net4Impl21IPv6SocketAddressImpl6familyEv = comdat any

$_ZNSt12_Vector_baseIhSaIhEEC2Ev = comdat any

$_ZNSt12_Vector_baseIhSaIhEE12_Vector_implC2Ev = comdat any

$_ZNSt12_Vector_baseIhSaIhEE17_Vector_impl_dataC2Ev = comdat any

$_ZN9__gnu_cxx13new_allocatorIhEC2Ev = comdat any

$_ZNSt12_Vector_baseISt4pairINSt7__cxx1112basic_stringIcSt11char_traitsIcESaIcEEES6_ESaIS7_EEC2Ev = comdat any

$_ZNSt12_Vector_baseISt4pairINSt7__cxx1112basic_stringIcSt11char_traitsIcESaIcEEES6_ESaIS7_EE12_Vector_implC2Ev = comdat any

$_ZNSaISt4pairINSt7__cxx1112basic_stringIcSt11char_traitsIcESaIcEEES5_EEC2Ev = comdat any

$_ZNSt12_Vector_baseISt4pairINSt7__cxx1112basic_stringIcSt11char_traitsIcESaIcEEES6_ESaIS7_EE17_Vector_impl_dataC2Ev = comdat any

$_ZN9__gnu_cxx13new_allocatorISt4pairINSt7__cxx1112basic_stringIcSt11char_traitsIcESaIcEEES7_EEC2Ev = comdat any

$_ZN3Log16isShutdownCalledEv = comdat any

$_ZNK4Poco6Logger5errorEv = comdat any

$_ZN3Log6prefixILi1023EEEPcS1_PKc = comdat any

$_ZSt9boolalphaRSt8ios_base = comdat any

$_ZNK4Poco6Logger4nameB5cxx11Ev = comdat any

$__clang_call_terminate = comdat any

$_ZStplIcSt11char_traitsIcESaIcEENSt7__cxx1112basic_stringIT_T0_T1_EEOS8_PKS5_ = comdat any

$_ZStplIcSt11char_traitsIcESaIcEENSt7__cxx1112basic_stringIT_T0_T1_EEOS8_RKS8_ = comdat any

$_ZNK4Poco6Logger7warningEv = comdat any

$_ZNSt8ios_base4setfESt13_Ios_Fmtflags = comdat any

$_ZStoRRSt13_Ios_FmtflagsS_ = comdat any

$_ZStorSt13_Ios_FmtflagsS_ = comdat any

$_ZN13CoolExceptionCI2St13runtime_errorEPKc = comdat any

$_ZN10ParseErrorD0Ev = comdat any

$_ZN13CoolExceptionD2Ev = comdat any

$_ZN13CoolExceptionD0Ev = comdat any

$_ZNSt6chrono15time_point_castINS_8durationIlSt5ratioILl1ELl1000000000EEEENS_3_V212system_clockENS1_IlS2_ILl1ELl1EEEEEENSt9enable_ifIXsr13__is_durationIT_EE5valueENS_10time_pointIT0_SA_EEE4typeERKNSB_ISC_T1_EE = comdat any

$_ZNSt6chrono8durationIlSt5ratioILl1ELl1EEEC2IlvEERKT_ = comdat any

$_ZNSt6chrono10time_pointINS_3_V212system_clockENS_8durationIlSt5ratioILl1ELl1EEEEEC2ERKS6_ = comdat any

$_ZNSt6chrono13duration_castINS_8durationIlSt5ratioILl1ELl1000000000EEEElS2_ILl1ELl1EEEENSt9enable_ifIXsr13__is_durationIT_EE5valueES7_E4typeERKNS1_IT0_T1_EE = comdat any

$_ZNKSt6chrono10time_pointINS_3_V212system_clockENS_8durationIlSt5ratioILl1ELl1EEEEE16time_since_epochEv = comdat any

$_ZNSt6chrono10time_pointINS_3_V212system_clockENS_8durationIlSt5ratioILl1ELl1000000000EEEEEC2ERKS6_ = comdat any

$_ZNSt6chrono20__duration_cast_implINS_8durationIlSt5ratioILl1ELl1000000000EEEES2_ILl1000000000ELl1EElLb0ELb1EE6__castIlS2_ILl1ELl1EEEES4_RKNS1_IT_T0_EE = comdat any

$_ZNKSt6chrono8durationIlSt5ratioILl1ELl1EEE5countEv = comdat any

$_ZNSt6chrono8durationIlSt5ratioILl1ELl1000000000EEEC2IlvEERKT_ = comdat any

$_ZNSt6chrono20__duration_cast_implINS_8durationIlSt5ratioILl1ELl1000000000EEEES2_ILl1ELl1EElLb1ELb1EE6__castIlS3_EES4_RKNS1_IT_T0_EE = comdat any

$_ZNSt6chronomiIlSt5ratioILl1ELl1000000000EElS2_EENSt11common_typeIJNS_8durationIT_T0_EENS4_IT1_T2_EEEE4typeERKS7_RKSA_ = comdat any

$_ZNKSt6chrono10time_pointINS_3_V212system_clockENS_8durationIlSt5ratioILl1ELl1000000000EEEEE16time_since_epochEv = comdat any

$_ZNSt8__detail14__to_chars_lenImEEjT_i = comdat any

$_ZNSt7__cxx1112basic_stringIcSt11char_traitsIcESaIcEEC2IS3_EEmcRKS3_ = comdat any

$_ZNSt8__detail18__to_chars_10_implImEEvPcjT_ = comdat any

$_ZNSt7__cxx1112basic_stringIcSt11char_traitsIcESaIcEE12_Alloc_hiderD2Ev = comdat any

$_ZNSt11char_traitsIcE6lengthEPKc = comdat any

$_ZNSt7__cxx1112basic_stringIcSt11char_traitsIcESaIcEE12_M_constructIPKcEEvT_S8_St20forward_iterator_tag = comdat any

$_ZN9__gnu_cxx11char_traitsIcE6lengthEPKc = comdat any

$_ZN9__gnu_cxx11char_traitsIcE2eqERKcS3_ = comdat any

$_ZN9__gnu_cxx17__is_null_pointerIKcEEbPT_ = comdat any

$_ZSt8distanceIPKcENSt15iterator_traitsIT_E15difference_typeES3_S3_ = comdat any

$_ZSt10__distanceIPKcENSt15iterator_traitsIT_E15difference_typeES3_S3_St26random_access_iterator_tag = comdat any

$_ZSt19__iterator_categoryIPKcENSt15iterator_traitsIT_E17iterator_categoryERKS3_ = comdat any

$_ZSt8_DestroyIPSt4pairINSt7__cxx1112basic_stringIcSt11char_traitsIcESaIcEEES6_ES7_EvT_S9_RSaIT0_E = comdat any

$_ZNSt12_Vector_baseISt4pairINSt7__cxx1112basic_stringIcSt11char_traitsIcESaIcEEES6_ESaIS7_EE19_M_get_Tp_allocatorEv = comdat any

$_ZNSt12_Vector_baseISt4pairINSt7__cxx1112basic_stringIcSt11char_traitsIcESaIcEEES6_ESaIS7_EED2Ev = comdat any

$_ZSt8_DestroyIPSt4pairINSt7__cxx1112basic_stringIcSt11char_traitsIcESaIcEEES6_EEvT_S9_ = comdat any

$_ZNSt12_Destroy_auxILb0EE9__destroyIPSt4pairINSt7__cxx1112basic_stringIcSt11char_traitsIcESaIcEEES8_EEEvT_SB_ = comdat any

$_ZSt8_DestroyISt4pairINSt7__cxx1112basic_stringIcSt11char_traitsIcESaIcEEES6_EEvPT_ = comdat any

$_ZNSt4pairINSt7__cxx1112basic_stringIcSt11char_traitsIcESaIcEEES5_ED2Ev = comdat any

$_ZNSt12_Vector_baseISt4pairINSt7__cxx1112basic_stringIcSt11char_traitsIcESaIcEEES6_ESaIS7_EE13_M_deallocateEPS7_m = comdat any

$_ZNSt12_Vector_baseISt4pairINSt7__cxx1112basic_stringIcSt11char_traitsIcESaIcEEES6_ESaIS7_EE12_Vector_implD2Ev = comdat any

$_ZNSt16allocator_traitsISaISt4pairINSt7__cxx1112basic_stringIcSt11char_traitsIcESaIcEEES6_EEE10deallocateERS8_PS7_m = comdat any

$_ZN9__gnu_cxx13new_allocatorISt4pairINSt7__cxx1112basic_stringIcSt11char_traitsIcESaIcEEES7_EE10deallocateEPS8_m = comdat any

$_ZNSaISt4pairINSt7__cxx1112basic_stringIcSt11char_traitsIcESaIcEEES5_EED2Ev = comdat any

$_ZN9__gnu_cxx13new_allocatorISt4pairINSt7__cxx1112basic_stringIcSt11char_traitsIcESaIcEEES7_EED2Ev = comdat any

$_ZN9__gnu_cxx13new_allocatorIhED2Ev = comdat any

$_ZSt8_DestroyIPhhEvT_S1_RSaIT0_E = comdat any

$_ZNSt12_Vector_baseIhSaIhEE19_M_get_Tp_allocatorEv = comdat any

$_ZNSt12_Vector_baseIhSaIhEED2Ev = comdat any

$_ZSt8_DestroyIPhEvT_S1_ = comdat any

$_ZNSt12_Destroy_auxILb1EE9__destroyIPhEEvT_S3_ = comdat any

$_ZNSt12_Vector_baseIhSaIhEE13_M_deallocateEPhm = comdat any

$_ZNSt12_Vector_baseIhSaIhEE12_Vector_implD2Ev = comdat any

$_ZNSt16allocator_traitsISaIhEE10deallocateERS0_Phm = comdat any

$_ZN9__gnu_cxx13new_allocatorIhE10deallocateEPhm = comdat any

$_ZNSt6vectorIhSaIhEE17_S_check_init_lenEmRKS0_ = comdat any

$_ZNSt12_Vector_baseIhSaIhEEC2EmRKS0_ = comdat any

$_ZNSt6vectorIhSaIhEE21_M_default_initializeEm = comdat any

$_ZNSt6vectorIhSaIhEE11_S_max_sizeERKS0_ = comdat any

$_ZNSaIhEC2ERKS_ = comdat any

$_ZNSt16allocator_traitsISaIhEE8max_sizeERKS0_ = comdat any

$_ZSt3minImERKT_S2_S2_ = comdat any

$_ZNK9__gnu_cxx13new_allocatorIhE8max_sizeEv = comdat any

$_ZNK9__gnu_cxx13new_allocatorIhE11_M_max_sizeEv = comdat any

$_ZN9__gnu_cxx13new_allocatorIhEC2ERKS1_ = comdat any

$_ZNSt12_Vector_baseIhSaIhEE12_Vector_implC2ERKS0_ = comdat any

$_ZNSt12_Vector_baseIhSaIhEE17_M_create_storageEm = comdat any

$_ZNSt12_Vector_baseIhSaIhEE11_M_allocateEm = comdat any

$_ZNSt16allocator_traitsISaIhEE8allocateERS0_m = comdat any

$_ZN9__gnu_cxx13new_allocatorIhE8allocateEmPKv = comdat any

$_ZSt27__uninitialized_default_n_aIPhmhET_S1_T0_RSaIT1_E = comdat any

$_ZSt25__uninitialized_default_nIPhmET_S1_T0_ = comdat any

$_ZNSt27__uninitialized_default_n_1ILb1EE18__uninit_default_nIPhmEET_S3_T0_ = comdat any

$_ZSt10_ConstructIhJEEvPT_DpOT0_ = comdat any

$_ZSt6fill_nIPhmhET_S1_T0_RKT1_ = comdat any

$_ZSt10__fill_n_aIPhmhET_S1_T0_RKT1_St26random_access_iterator_tag = comdat any

$_ZSt17__size_to_integerm = comdat any

$_ZSt19__iterator_categoryIPhENSt15iterator_traitsIT_E17iterator_categoryERKS2_ = comdat any

$_ZSt8__fill_aIPhhEvT_S1_RKT0_ = comdat any

$_ZSt9__fill_a1IhEN9__gnu_cxx11__enable_ifIXsr9__is_byteIT_EE7__valueEvE6__typeEPS2_S5_RKS2_ = comdat any

$_ZN9__gnu_cxx17__normal_iteratorIPhSt6vectorIhSaIhEEEC2ERKS1_ = comdat any

$_ZN9__gnu_cxx17__normal_iteratorIPKhSt6vectorIhSaIhEEEC2ERKS2_ = comdat any

$_ZNSt7__cxx1112basic_stringIcSt11char_traitsIcESaIcEE12_M_constructIN9__gnu_cxx17__normal_iteratorIPKhSt6vectorIhSaIhEEEEEEvT_SE_ = comdat any

$_ZNSt7__cxx1112basic_stringIcSt11char_traitsIcESaIcEE16_M_construct_auxIN9__gnu_cxx17__normal_iteratorIPKhSt6vectorIhSaIhEEEEEEvT_SE_St12__false_type = comdat any

$_ZNSt7__cxx1112basic_stringIcSt11char_traitsIcESaIcEE12_M_constructIN9__gnu_cxx17__normal_iteratorIPKhSt6vectorIhSaIhEEEEEEvT_SE_St20forward_iterator_tag = comdat any

$_ZN9__gnu_cxx17__is_null_pointerINS_17__normal_iteratorIPKhSt6vectorIhSaIhEEEEEEbT_ = comdat any

$_ZN9__gnu_cxxneIPKhSt6vectorIhSaIhEEEEbRKNS_17__normal_iteratorIT_T0_EESB_ = comdat any

$_ZSt8distanceIN9__gnu_cxx17__normal_iteratorIPKhSt6vectorIhSaIhEEEEENSt15iterator_traitsIT_E15difference_typeES9_S9_ = comdat any

$_ZNSt7__cxx1112basic_stringIcSt11char_traitsIcESaIcEE13_S_copy_charsIN9__gnu_cxx17__normal_iteratorIPKhSt6vectorIhSaIhEEEEEEvPcT_SF_ = comdat any

$_ZNK9__gnu_cxx17__normal_iteratorIPKhSt6vectorIhSaIhEEE4baseEv = comdat any

$_ZSt10__distanceIN9__gnu_cxx17__normal_iteratorIPKhSt6vectorIhSaIhEEEEENSt15iterator_traitsIT_E15difference_typeES9_S9_St26random_access_iterator_tag = comdat any

$_ZSt19__iterator_categoryIN9__gnu_cxx17__normal_iteratorIPKhSt6vectorIhSaIhEEEEENSt15iterator_traitsIT_E17iterator_categoryERKS9_ = comdat any

$_ZN9__gnu_cxxmiIPKhSt6vectorIhSaIhEEEENS_17__normal_iteratorIT_T0_E15difference_typeERKS9_SC_ = comdat any

$_ZNSt11char_traitsIcE6assignERcRKc = comdat any

$_ZNK9__gnu_cxx17__normal_iteratorIPKhSt6vectorIhSaIhEEEdeEv = comdat any

$_ZN9__gnu_cxx17__normal_iteratorIPKhSt6vectorIhSaIhEEEppEv = comdat any

$_ZNSt6vectorIhSaIhEE12emplace_backIJhEEERhDpOT_ = comdat any

$_ZNSt16allocator_traitsISaIhEE9constructIhJhEEEvRS0_PT_DpOT0_ = comdat any

$_ZNSt6vectorIhSaIhEE17_M_realloc_insertIJhEEEvN9__gnu_cxx17__normal_iteratorIPhS1_EEDpOT_ = comdat any

$_ZNSt6vectorIhSaIhEE4backEv = comdat any

$_ZN9__gnu_cxx13new_allocatorIhE9constructIhJhEEEvPT_DpOT0_ = comdat any

$_ZNKSt6vectorIhSaIhEE12_M_check_lenEmPKc = comdat any

$_ZN9__gnu_cxxmiIPhSt6vectorIhSaIhEEEENS_17__normal_iteratorIT_T0_E15difference_typeERKS8_SB_ = comdat any

$_ZNSt6vectorIhSaIhEE11_S_relocateEPhS2_S2_RS0_ = comdat any

$_ZNK9__gnu_cxx17__normal_iteratorIPhSt6vectorIhSaIhEEE4baseEv = comdat any

$_ZNKSt6vectorIhSaIhEE8max_sizeEv = comdat any

$_ZSt3maxImERKT_S2_S2_ = comdat any

$_ZNKSt12_Vector_baseIhSaIhEE19_M_get_Tp_allocatorEv = comdat any

$_ZNSt6vectorIhSaIhEE14_S_do_relocateEPhS2_S2_RS0_St17integral_constantIbLb1EE = comdat any

$_ZSt12__relocate_aIPhS0_SaIhEET0_T_S3_S2_RT1_ = comdat any

$_ZSt14__relocate_a_1IhhENSt9enable_ifIXsr3std24__is_bitwise_relocatableIT_EE5valueEPS1_E4typeES2_S2_S2_RSaIT0_E = comdat any

$_ZSt12__niter_baseIPhET_S1_ = comdat any

$_ZNK9__gnu_cxx17__normal_iteratorIPhSt6vectorIhSaIhEEEmiEl = comdat any

$_ZNK9__gnu_cxx17__normal_iteratorIPhSt6vectorIhSaIhEEEdeEv = comdat any

$_ZNKSt10unique_ptrIKN4Poco6Crypto6RSAKeyESt14default_deleteIS3_EE3getEv = comdat any

$_ZNKSt15__uniq_ptr_implIKN4Poco6Crypto6RSAKeyESt14default_deleteIS3_EE6_M_ptrEv = comdat any

$_ZSt3getILm0EJPKN4Poco6Crypto6RSAKeyESt14default_deleteIS3_EEERKNSt13tuple_elementIXT_ESt5tupleIJDpT0_EEE4typeERKSB_ = comdat any

$_ZSt12__get_helperILm0EPKN4Poco6Crypto6RSAKeyEJSt14default_deleteIS3_EEERKT0_RKSt11_Tuple_implIXT_EJS7_DpT1_EE = comdat any

$_ZNSt11_Tuple_implILm0EJPKN4Poco6Crypto6RSAKeyESt14default_deleteIS3_EEE7_M_headERKS7_ = comdat any

$_ZNSt10_Head_baseILm0EPKN4Poco6Crypto6RSAKeyELb0EE7_M_headERKS5_ = comdat any

$_ZNSt16allocator_traitsISaISt4pairINSt7__cxx1112basic_stringIcSt11char_traitsIcESaIcEEES6_EEE9constructIS7_JRA6_KcRKS6_EEEvRS8_PT_DpOT0_ = comdat any

$_ZNSt6vectorISt4pairINSt7__cxx1112basic_stringIcSt11char_traitsIcESaIcEEES6_ESaIS7_EE17_M_realloc_insertIJRA6_KcRKS6_EEEvN9__gnu_cxx17__normal_iteratorIPS7_S9_EEDpOT_ = comdat any

$_ZNSt6vectorISt4pairINSt7__cxx1112basic_stringIcSt11char_traitsIcESaIcEEES6_ESaIS7_EE3endEv = comdat any

$_ZNSt6vectorISt4pairINSt7__cxx1112basic_stringIcSt11char_traitsIcESaIcEEES6_ESaIS7_EE4backEv = comdat any

$_ZN9__gnu_cxx13new_allocatorISt4pairINSt7__cxx1112basic_stringIcSt11char_traitsIcESaIcEEES7_EE9constructIS8_JRA6_KcRKS7_EEEvPT_DpOT0_ = comdat any

$_ZNSt4pairINSt7__cxx1112basic_stringIcSt11char_traitsIcESaIcEEES5_EC2IRA6_KcLb1EEEOT_RKS5_ = comdat any

$_ZNKSt6vectorISt4pairINSt7__cxx1112basic_stringIcSt11char_traitsIcESaIcEEES6_ESaIS7_EE12_M_check_lenEmPKc = comdat any

$_ZN9__gnu_cxxmiIPSt4pairINSt7__cxx1112basic_stringIcSt11char_traitsIcESaIcEEES7_ESt6vectorIS8_SaIS8_EEEENS_17__normal_iteratorIT_T0_E15difference_typeERKSG_SJ_ = comdat any

$_ZNSt6vectorISt4pairINSt7__cxx1112basic_stringIcSt11char_traitsIcESaIcEEES6_ESaIS7_EE5beginEv = comdat any

$_ZNSt12_Vector_baseISt4pairINSt7__cxx1112basic_stringIcSt11char_traitsIcESaIcEEES6_ESaIS7_EE11_M_allocateEm = comdat any

$_ZNSt6vectorISt4pairINSt7__cxx1112basic_stringIcSt11char_traitsIcESaIcEEES6_ESaIS7_EE11_S_relocateEPS7_SA_SA_RS8_ = comdat any

$_ZNK9__gnu_cxx17__normal_iteratorIPSt4pairINSt7__cxx1112basic_stringIcSt11char_traitsIcESaIcEEES7_ESt6vectorIS8_SaIS8_EEE4baseEv = comdat any

$_ZNSt16allocator_traitsISaISt4pairINSt7__cxx1112basic_stringIcSt11char_traitsIcESaIcEEES6_EEE7destroyIS7_EEvRS8_PT_ = comdat any

$_ZNKSt6vectorISt4pairINSt7__cxx1112basic_stringIcSt11char_traitsIcESaIcEEES6_ESaIS7_EE8max_sizeEv = comdat any

$_ZNKSt6vectorISt4pairINSt7__cxx1112basic_stringIcSt11char_traitsIcESaIcEEES6_ESaIS7_EE4sizeEv = comdat any

$_ZNSt6vectorISt4pairINSt7__cxx1112basic_stringIcSt11char_traitsIcESaIcEEES6_ESaIS7_EE11_S_max_sizeERKS8_ = comdat any

$_ZNKSt12_Vector_baseISt4pairINSt7__cxx1112basic_stringIcSt11char_traitsIcESaIcEEES6_ESaIS7_EE19_M_get_Tp_allocatorEv = comdat any

$_ZNSt16allocator_traitsISaISt4pairINSt7__cxx1112basic_stringIcSt11char_traitsIcESaIcEEES6_EEE8max_sizeERKS8_ = comdat any

$_ZNK9__gnu_cxx13new_allocatorISt4pairINSt7__cxx1112basic_stringIcSt11char_traitsIcESaIcEEES7_EE8max_sizeEv = comdat any

$_ZNK9__gnu_cxx13new_allocatorISt4pairINSt7__cxx1112basic_stringIcSt11char_traitsIcESaIcEEES7_EE11_M_max_sizeEv = comdat any

$_ZN9__gnu_cxx17__normal_iteratorIPSt4pairINSt7__cxx1112basic_stringIcSt11char_traitsIcESaIcEEES7_ESt6vectorIS8_SaIS8_EEEC2ERKS9_ = comdat any

$_ZNSt16allocator_traitsISaISt4pairINSt7__cxx1112basic_stringIcSt11char_traitsIcESaIcEEES6_EEE8allocateERS8_m = comdat any

$_ZN9__gnu_cxx13new_allocatorISt4pairINSt7__cxx1112basic_stringIcSt11char_traitsIcESaIcEEES7_EE8allocateEmPKv = comdat any

$_ZNSt6vectorISt4pairINSt7__cxx1112basic_stringIcSt11char_traitsIcESaIcEEES6_ESaIS7_EE14_S_do_relocateEPS7_SA_SA_RS8_St17integral_constantIbLb1EE = comdat any

$_ZSt12__relocate_aIPSt4pairINSt7__cxx1112basic_stringIcSt11char_traitsIcESaIcEEES6_ES8_SaIS7_EET0_T_SB_SA_RT1_ = comdat any

$_ZSt14__relocate_a_1IPSt4pairINSt7__cxx1112basic_stringIcSt11char_traitsIcESaIcEEES6_ES8_SaIS7_EET0_T_SB_SA_RT1_ = comdat any

$_ZSt12__niter_baseIPSt4pairINSt7__cxx1112basic_stringIcSt11char_traitsIcESaIcEEES6_EET_S9_ = comdat any

$_ZSt19__relocate_object_aISt4pairINSt7__cxx1112basic_stringIcSt11char_traitsIcESaIcEEES6_ES7_SaIS7_EEvPT_PT0_RT1_ = comdat any

$_ZNSt16allocator_traitsISaISt4pairINSt7__cxx1112basic_stringIcSt11char_traitsIcESaIcEEES6_EEE9constructIS7_JS7_EEEvRS8_PT_DpOT0_ = comdat any

$_ZN9__gnu_cxx13new_allocatorISt4pairINSt7__cxx1112basic_stringIcSt11char_traitsIcESaIcEEES7_EE9constructIS8_JS8_EEEvPT_DpOT0_ = comdat any

$_ZNSt4pairINSt7__cxx1112basic_stringIcSt11char_traitsIcESaIcEEES5_EC2EOS6_ = comdat any

$_ZN9__gnu_cxx13new_allocatorISt4pairINSt7__cxx1112basic_stringIcSt11char_traitsIcESaIcEEES7_EE7destroyIS8_EEvPT_ = comdat any

$_ZNK9__gnu_cxx17__normal_iteratorIPSt4pairINSt7__cxx1112basic_stringIcSt11char_traitsIcESaIcEEES7_ESt6vectorIS8_SaIS8_EEEmiEl = comdat any

$_ZNK9__gnu_cxx17__normal_iteratorIPSt4pairINSt7__cxx1112basic_stringIcSt11char_traitsIcESaIcEEES7_ESt6vectorIS8_SaIS8_EEEdeEv = comdat any

$_ZNSt16allocator_traitsISaISt4pairINSt7__cxx1112basic_stringIcSt11char_traitsIcESaIcEEES6_EEE9constructIS7_JRA8_KcRKS6_EEEvRS8_PT_DpOT0_ = comdat any

$_ZNSt6vectorISt4pairINSt7__cxx1112basic_stringIcSt11char_traitsIcESaIcEEES6_ESaIS7_EE17_M_realloc_insertIJRA8_KcRKS6_EEEvN9__gnu_cxx17__normal_iteratorIPS7_S9_EEDpOT_ = comdat any

$_ZN9__gnu_cxx13new_allocatorISt4pairINSt7__cxx1112basic_stringIcSt11char_traitsIcESaIcEEES7_EE9constructIS8_JRA8_KcRKS7_EEEvPT_DpOT0_ = comdat any

$_ZNSt4pairINSt7__cxx1112basic_stringIcSt11char_traitsIcESaIcEEES5_EC2IRA8_KcLb1EEEOT_RKS5_ = comdat any

$_ZNSt16allocator_traitsISaISt4pairINSt7__cxx1112basic_stringIcSt11char_traitsIcESaIcEEES6_EEE9constructIS7_JRA9_KcRKS6_EEEvRS8_PT_DpOT0_ = comdat any

$_ZNSt6vectorISt4pairINSt7__cxx1112basic_stringIcSt11char_traitsIcESaIcEEES6_ESaIS7_EE17_M_realloc_insertIJRA9_KcRKS6_EEEvN9__gnu_cxx17__normal_iteratorIPS7_S9_EEDpOT_ = comdat any

$_ZN9__gnu_cxx13new_allocatorISt4pairINSt7__cxx1112basic_stringIcSt11char_traitsIcESaIcEEES7_EE9constructIS8_JRA9_KcRKS7_EEEvPT_DpOT0_ = comdat any

$_ZNSt4pairINSt7__cxx1112basic_stringIcSt11char_traitsIcESaIcEEES5_EC2IRA9_KcLb1EEEOT_RKS5_ = comdat any

$_ZNSt16allocator_traitsISaISt4pairINSt7__cxx1112basic_stringIcSt11char_traitsIcESaIcEEES6_EEE9constructIS7_JRA11_KcRKS6_EEEvRS8_PT_DpOT0_ = comdat any

$_ZNSt6vectorISt4pairINSt7__cxx1112basic_stringIcSt11char_traitsIcESaIcEEES6_ESaIS7_EE17_M_realloc_insertIJRA11_KcRKS6_EEEvN9__gnu_cxx17__normal_iteratorIPS7_S9_EEDpOT_ = comdat any

$_ZN9__gnu_cxx13new_allocatorISt4pairINSt7__cxx1112basic_stringIcSt11char_traitsIcESaIcEEES7_EE9constructIS8_JRA11_KcRKS7_EEEvPT_DpOT0_ = comdat any

$_ZNSt4pairINSt7__cxx1112basic_stringIcSt11char_traitsIcESaIcEEES5_EC2IRA11_KcLb1EEEOT_RKS5_ = comdat any

$_ZNSt16allocator_traitsISaISt4pairINSt7__cxx1112basic_stringIcSt11char_traitsIcESaIcEEES6_EEE9constructIS7_JRA12_KcRKS6_EEEvRS8_PT_DpOT0_ = comdat any

$_ZNSt6vectorISt4pairINSt7__cxx1112basic_stringIcSt11char_traitsIcESaIcEEES6_ESaIS7_EE17_M_realloc_insertIJRA12_KcRKS6_EEEvN9__gnu_cxx17__normal_iteratorIPS7_S9_EEDpOT_ = comdat any

$_ZN9__gnu_cxx13new_allocatorISt4pairINSt7__cxx1112basic_stringIcSt11char_traitsIcESaIcEEES7_EE9constructIS8_JRA12_KcRKS7_EEEvPT_DpOT0_ = comdat any

$_ZNSt4pairINSt7__cxx1112basic_stringIcSt11char_traitsIcESaIcEEES5_EC2IRA12_KcLb1EEEOT_RKS5_ = comdat any

$_ZNSt15__uniq_ptr_dataIKN4Poco6Crypto6RSAKeyESt14default_deleteIS3_ELb1ELb1EECI2St15__uniq_ptr_implIS3_S5_EEPS3_ = comdat any

$_ZNSt15__uniq_ptr_implIKN4Poco6Crypto6RSAKeyESt14default_deleteIS3_EEC2EPS3_ = comdat any

$_ZNSt5tupleIJPKN4Poco6Crypto6RSAKeyESt14default_deleteIS3_EEEC2ILb1ELb1EEEv = comdat any

$_ZNSt15__uniq_ptr_implIKN4Poco6Crypto6RSAKeyESt14default_deleteIS3_EE6_M_ptrEv = comdat any

$_ZNSt11_Tuple_implILm0EJPKN4Poco6Crypto6RSAKeyESt14default_deleteIS3_EEEC2Ev = comdat any

$_ZNSt11_Tuple_implILm1EJSt14default_deleteIKN4Poco6Crypto6RSAKeyEEEEC2Ev = comdat any

$_ZNSt10_Head_baseILm0EPKN4Poco6Crypto6RSAKeyELb0EEC2Ev = comdat any

$_ZNSt10_Head_baseILm1ESt14default_deleteIKN4Poco6Crypto6RSAKeyEELb1EEC2Ev = comdat any

$_ZSt3getILm0EJPKN4Poco6Crypto6RSAKeyESt14default_deleteIS3_EEERNSt13tuple_elementIXT_ESt5tupleIJDpT0_EEE4typeERSB_ = comdat any

$_ZSt12__get_helperILm0EPKN4Poco6Crypto6RSAKeyEJSt14default_deleteIS3_EEERT0_RSt11_Tuple_implIXT_EJS7_DpT1_EE = comdat any

$_ZNSt11_Tuple_implILm0EJPKN4Poco6Crypto6RSAKeyESt14default_deleteIS3_EEE7_M_headERS7_ = comdat any

$_ZNSt10_Head_baseILm0EPKN4Poco6Crypto6RSAKeyELb0EE7_M_headERS5_ = comdat any

$_ZNSt10unique_ptrIKN4Poco6Crypto6RSAKeyESt14default_deleteIS3_EE11get_deleterEv = comdat any

$_ZNKSt14default_deleteIKN4Poco6Crypto6RSAKeyEEclEPS3_ = comdat any

$_ZNSt15__uniq_ptr_implIKN4Poco6Crypto6RSAKeyESt14default_deleteIS3_EE10_M_deleterEv = comdat any

$_ZSt3getILm1EJPKN4Poco6Crypto6RSAKeyESt14default_deleteIS3_EEERNSt13tuple_elementIXT_ESt5tupleIJDpT0_EEE4typeERSB_ = comdat any

$_ZSt12__get_helperILm1ESt14default_deleteIKN4Poco6Crypto6RSAKeyEEJEERT0_RSt11_Tuple_implIXT_EJS6_DpT1_EE = comdat any

$_ZNSt11_Tuple_implILm1EJSt14default_deleteIKN4Poco6Crypto6RSAKeyEEEE7_M_headERS6_ = comdat any

$_ZNSt10_Head_baseILm1ESt14default_deleteIKN4Poco6Crypto6RSAKeyEELb1EE7_M_headERS6_ = comdat any

$_ZNSt16reverse_iteratorIN9__gnu_cxx17__normal_iteratorIPKhSt6vectorIhSaIhEEEEEC2ES7_ = comdat any

$_ZSt13__copy_move_aILb0ESt16reverse_iteratorIN9__gnu_cxx17__normal_iteratorIPKhSt6vectorIhSaIhEEEEENS2_IPhS7_EEET1_T0_SD_SC_ = comdat any

$_ZSt12__miter_baseIN9__gnu_cxx17__normal_iteratorIPKhSt6vectorIhSaIhEEEEEDTcl23__make_reverse_iteratorcl12__miter_basecldtfp_4baseEEEESt16reverse_iteratorIT_E = comdat any

$_ZNSt16reverse_iteratorIN9__gnu_cxx17__normal_iteratorIPKhSt6vectorIhSaIhEEEEEC2ERKS8_ = comdat any

$_ZSt12__niter_wrapIN9__gnu_cxx17__normal_iteratorIPhSt6vectorIhSaIhEEEES2_ET_S7_T0_ = comdat any

$_ZSt14__copy_move_a1ILb0ESt16reverse_iteratorIPKhEPhET1_T0_S6_S5_ = comdat any

$_ZSt12__niter_baseIN9__gnu_cxx17__normal_iteratorIPKhSt6vectorIhSaIhEEEEEDTcl23__make_reverse_iteratorcl12__niter_basecldtfp_4baseEEEESt16reverse_iteratorIT_E = comdat any

$_ZSt12__niter_baseIPhSt6vectorIhSaIhEEET_N9__gnu_cxx17__normal_iteratorIS4_T0_EE = comdat any

$_ZNK9__gnu_cxx17__normal_iteratorIPhSt6vectorIhSaIhEEEplEl = comdat any

$_ZSt14__copy_move_a2ILb0ESt16reverse_iteratorIPKhEPhET1_T0_S6_S5_ = comdat any

$_ZNSt16reverse_iteratorIPKhEC2ERKS2_ = comdat any

$_ZNSt11__copy_moveILb0ELb0ESt26random_access_iterator_tagE8__copy_mISt16reverse_iteratorIPKhEPhEET0_T_S9_S8_ = comdat any

$_ZStmiIPKhS1_EDTmicldtfp0_4baseEcldtfp_4baseEERKSt16reverse_iteratorIT_ERKS3_IT0_E = comdat any

$_ZNKSt16reverse_iteratorIPKhEdeEv = comdat any

$_ZNSt16reverse_iteratorIPKhEppEv = comdat any

$_ZNKSt16reverse_iteratorIPKhE4baseEv = comdat any

$_ZSt23__make_reverse_iteratorIPKhESt16reverse_iteratorIT_ES3_ = comdat any

$_ZSt12__niter_baseIPKhSt6vectorIhSaIhEEET_N9__gnu_cxx17__normal_iteratorIS5_T0_EE = comdat any

$_ZNKSt16reverse_iteratorIN9__gnu_cxx17__normal_iteratorIPKhSt6vectorIhSaIhEEEEE4baseEv = comdat any

$_ZNSt16reverse_iteratorIPKhEC2ES1_ = comdat any

$_ZSt23__make_reverse_iteratorIN9__gnu_cxx17__normal_iteratorIPKhSt6vectorIhSaIhEEEEESt16reverse_iteratorIT_ES9_ = comdat any

$_ZSt12__miter_baseIN9__gnu_cxx17__normal_iteratorIPKhSt6vectorIhSaIhEEEEET_S8_ = comdat any

$_ZNSt12_Vector_baseIhSaIhEEC2ERKS0_ = comdat any

$_ZNSt6vectorIhSaIhEE19_M_range_initializeIPKhEEvT_S5_St20forward_iterator_tag = comdat any

$_ZNKSt16initializer_listIhE5beginEv = comdat any

$_ZNKSt16initializer_listIhE3endEv = comdat any

$_ZSt8distanceIPKhENSt15iterator_traitsIT_E15difference_typeES3_S3_ = comdat any

$_ZSt22__uninitialized_copy_aIPKhPhhET0_T_S4_S3_RSaIT1_E = comdat any

$_ZSt10__distanceIPKhENSt15iterator_traitsIT_E15difference_typeES3_S3_St26random_access_iterator_tag = comdat any

$_ZSt19__iterator_categoryIPKhENSt15iterator_traitsIT_E17iterator_categoryERKS3_ = comdat any

$_ZSt18uninitialized_copyIPKhPhET0_T_S4_S3_ = comdat any

$_ZNSt20__uninitialized_copyILb1EE13__uninit_copyIPKhPhEET0_T_S6_S5_ = comdat any

$_ZSt4copyIPKhPhET0_T_S4_S3_ = comdat any

$_ZSt13__copy_move_aILb0EPKhPhET1_T0_S4_S3_ = comdat any

$_ZSt12__miter_baseIPKhET_S2_ = comdat any

$_ZSt12__niter_wrapIPhET_RKS1_S1_ = comdat any

$_ZSt14__copy_move_a1ILb0EPKhPhET1_T0_S4_S3_ = comdat any

$_ZSt12__niter_baseIPKhET_S2_ = comdat any

$_ZSt14__copy_move_a2ILb0EPKhPhET1_T0_S4_S3_ = comdat any

$_ZNSt11__copy_moveILb0ELb1ESt26random_access_iterator_tagE8__copy_mIhEEPT_PKS3_S6_S4_ = comdat any

$_ZNKSt16initializer_listIhE4sizeEv = comdat any

$_ZSt6copy_nIPKhmN9__gnu_cxx17__normal_iteratorIPhSt6vectorIhSaIhEEEEET1_T_T0_S9_ = comdat any

$_ZSt8__copy_nIPKhmN9__gnu_cxx17__normal_iteratorIPhSt6vectorIhSaIhEEEEET1_T_T0_S9_St26random_access_iterator_tag = comdat any

$_ZSt4copyIPKhN9__gnu_cxx17__normal_iteratorIPhSt6vectorIhSaIhEEEEET0_T_SA_S9_ = comdat any

$_ZSt13__copy_move_aILb0EPKhN9__gnu_cxx17__normal_iteratorIPhSt6vectorIhSaIhEEEEET1_T0_SA_S9_ = comdat any

$_ZNKSt6vectorIhSaIhEE8capacityEv = comdat any

$_ZNSt20back_insert_iteratorISt6vectorIhSaIhEEEC2ERS2_ = comdat any

$_ZSt13__copy_move_aILb0EN9__gnu_cxx17__normal_iteratorIPKhSt6vectorIhSaIhEEEESt20back_insert_iteratorIS6_EET1_T0_SB_SA_ = comdat any

$_ZSt12__niter_wrapISt20back_insert_iteratorISt6vectorIhSaIhEEEET_RKS5_S5_ = comdat any

$_ZSt14__copy_move_a1ILb0EPKhSt20back_insert_iteratorISt6vectorIhSaIhEEEET1_T0_S8_S7_ = comdat any

$_ZSt12__niter_baseISt20back_insert_iteratorISt6vectorIhSaIhEEEET_S5_ = comdat any

$_ZSt14__copy_move_a2ILb0EPKhSt20back_insert_iteratorISt6vectorIhSaIhEEEET1_T0_S8_S7_ = comdat any

$_ZNSt11__copy_moveILb0ELb0ESt26random_access_iterator_tagE8__copy_mIPKhSt20back_insert_iteratorISt6vectorIhSaIhEEEEET0_T_SB_SA_ = comdat any

$_ZNSt20back_insert_iteratorISt6vectorIhSaIhEEEdeEv = comdat any

$_ZNSt20back_insert_iteratorISt6vectorIhSaIhEEEaSERKh = comdat any

$_ZNSt20back_insert_iteratorISt6vectorIhSaIhEEEppEv = comdat any

$_ZNSt6vectorIhSaIhEE9push_backERKh = comdat any

$_ZNSt16allocator_traitsISaIhEE9constructIhJRKhEEEvRS0_PT_DpOT0_ = comdat any

$_ZNSt6vectorIhSaIhEE17_M_realloc_insertIJRKhEEEvN9__gnu_cxx17__normal_iteratorIPhS1_EEDpOT_ = comdat any

$_ZN9__gnu_cxx13new_allocatorIhE9constructIhJRKhEEEvPT_DpOT0_ = comdat any

$_ZSt13__copy_move_aILb0EN9__gnu_cxx17__normal_iteratorIPhSt6vectorIhSaIhEEEESt20back_insert_iteratorIS5_EET1_T0_SA_S9_ = comdat any

$_ZSt12__miter_baseIN9__gnu_cxx17__normal_iteratorIPhSt6vectorIhSaIhEEEEET_S7_ = comdat any

$_ZSt14__copy_move_a1ILb0EPhSt20back_insert_iteratorISt6vectorIhSaIhEEEET1_T0_S7_S6_ = comdat any

$_ZSt14__copy_move_a2ILb0EPhSt20back_insert_iteratorISt6vectorIhSaIhEEEET1_T0_S7_S6_ = comdat any

$_ZNSt11__copy_moveILb0ELb0ESt26random_access_iterator_tagE8__copy_mIPhSt20back_insert_iteratorISt6vectorIhSaIhEEEEET0_T_SA_S9_ = comdat any

$_ZSt13__copy_move_aILb0ESt16reverse_iteratorIN9__gnu_cxx17__normal_iteratorIPKhSt6vectorIhSaIhEEEEESt20back_insert_iteratorIS7_EET1_T0_SD_SC_ = comdat any

$_ZSt14__copy_move_a1ILb0ESt16reverse_iteratorIPKhESt20back_insert_iteratorISt6vectorIhSaIhEEEET1_T0_SA_S9_ = comdat any

$_ZSt14__copy_move_a2ILb0ESt16reverse_iteratorIPKhESt20back_insert_iteratorISt6vectorIhSaIhEEEET1_T0_SA_S9_ = comdat any

$_ZNSt11__copy_moveILb0ELb0ESt26random_access_iterator_tagE8__copy_mISt16reverse_iteratorIPKhESt20back_insert_iteratorISt6vectorIhSaIhEEEEET0_T_SD_SC_ = comdat any

$_ZNK9__gnu_cxx17__normal_iteratorIPcNSt7__cxx1112basic_stringIcSt11char_traitsIcESaIcEEEE4baseEv = comdat any

$_ZSt6copy_nIPKhmSt16reverse_iteratorIN9__gnu_cxx17__normal_iteratorIPhSt6vectorIhSaIhEEEEEET1_T_T0_SB_ = comdat any

$_ZNSt6vectorIhSaIhEE6rbeginEv = comdat any

$_ZNSt16reverse_iteratorIN9__gnu_cxx17__normal_iteratorIPhSt6vectorIhSaIhEEEEEC2ERKS7_ = comdat any

$_ZSt8__copy_nIPKhmSt16reverse_iteratorIN9__gnu_cxx17__normal_iteratorIPhSt6vectorIhSaIhEEEEEET1_T_T0_SB_St26random_access_iterator_tag = comdat any

$_ZSt4copyIPKhSt16reverse_iteratorIN9__gnu_cxx17__normal_iteratorIPhSt6vectorIhSaIhEEEEEET0_T_SC_SB_ = comdat any

$_ZSt13__copy_move_aILb0EPKhSt16reverse_iteratorIN9__gnu_cxx17__normal_iteratorIPhSt6vectorIhSaIhEEEEEET1_T0_SC_SB_ = comdat any

$_ZSt12__niter_wrapISt16reverse_iteratorIN9__gnu_cxx17__normal_iteratorIPhSt6vectorIhSaIhEEEEES0_IS3_EET_SA_T0_ = comdat any

$_ZSt14__copy_move_a1ILb0EPKhSt16reverse_iteratorIPhEET1_T0_S6_S5_ = comdat any

$_ZSt12__niter_baseIN9__gnu_cxx17__normal_iteratorIPhSt6vectorIhSaIhEEEEEDTcl23__make_reverse_iteratorcl12__niter_basecldtfp_4baseEEEESt16reverse_iteratorIT_E = comdat any

$_ZNKSt16reverse_iteratorIN9__gnu_cxx17__normal_iteratorIPhSt6vectorIhSaIhEEEEEplEl = comdat any

$_ZStmiIPhS0_EDTmicldtfp0_4baseEcldtfp_4baseEERKSt16reverse_iteratorIT_ERKS2_IT0_E = comdat any

$_ZNSt16reverse_iteratorIN9__gnu_cxx17__normal_iteratorIPhSt6vectorIhSaIhEEEEEC2ES6_ = comdat any

$_ZNKSt16reverse_iteratorIPhE4baseEv = comdat any

$_ZSt14__copy_move_a2ILb0EPKhSt16reverse_iteratorIPhEET1_T0_S6_S5_ = comdat any

$_ZNSt16reverse_iteratorIPhEC2ERKS1_ = comdat any

$_ZNSt11__copy_moveILb0ELb0ESt26random_access_iterator_tagE8__copy_mIPKhSt16reverse_iteratorIPhEEET0_T_S9_S8_ = comdat any

$_ZNKSt16reverse_iteratorIPhEdeEv = comdat any

$_ZNSt16reverse_iteratorIPhEppEv = comdat any

$_ZSt23__make_reverse_iteratorIPhESt16reverse_iteratorIT_ES2_ = comdat any

$_ZNKSt16reverse_iteratorIN9__gnu_cxx17__normal_iteratorIPhSt6vectorIhSaIhEEEEE4baseEv = comdat any

$_ZNSt16reverse_iteratorIPhEC2ES0_ = comdat any

$_ZSt13__copy_move_aILb0EN9__gnu_cxx17__normal_iteratorIPKhSt6vectorIhSaIhEEEENS1_IPhS6_EEET1_T0_SB_SA_ = comdat any

$_ZSt13__copy_move_aILb0EN9__gnu_cxx17__normal_iteratorIPKcNSt7__cxx1112basic_stringIcSt11char_traitsIcESaIcEEEEENS1_IPhSt6vectorIhSaIhEEEEET1_T0_SH_SG_ = comdat any

$_ZSt12__miter_baseIN9__gnu_cxx17__normal_iteratorIPKcNSt7__cxx1112basic_stringIcSt11char_traitsIcESaIcEEEEEET_SB_ = comdat any

$_ZSt14__copy_move_a1ILb0EPKcPhET1_T0_S4_S3_ = comdat any

$_ZSt12__niter_baseIPKcNSt7__cxx1112basic_stringIcSt11char_traitsIcESaIcEEEET_N9__gnu_cxx17__normal_iteratorIS8_T0_EE = comdat any

$_ZSt14__copy_move_a2ILb0EPKcPhET1_T0_S4_S3_ = comdat any

$_ZNSt11__copy_moveILb0ELb0ESt26random_access_iterator_tagE8__copy_mIPKcPhEET0_T_S7_S6_ = comdat any

$_ZNK9__gnu_cxx17__normal_iteratorIPKcNSt7__cxx1112basic_stringIcSt11char_traitsIcESaIcEEEE4baseEv = comdat any

$_ZSt13__copy_move_aILb0EN9__gnu_cxx17__normal_iteratorIPcNSt7__cxx1112basic_stringIcSt11char_traitsIcESaIcEEEEENS1_IPhSt6vectorIhSaIhEEEEET1_T0_SG_SF_ = comdat any

$_ZSt12__miter_baseIN9__gnu_cxx17__normal_iteratorIPcNSt7__cxx1112basic_stringIcSt11char_traitsIcESaIcEEEEEET_SA_ = comdat any

$_ZSt14__copy_move_a1ILb0EPcPhET1_T0_S3_S2_ = comdat any

$_ZSt12__niter_baseIPcNSt7__cxx1112basic_stringIcSt11char_traitsIcESaIcEEEET_N9__gnu_cxx17__normal_iteratorIS7_T0_EE = comdat any

$_ZSt14__copy_move_a2ILb0EPcPhET1_T0_S3_S2_ = comdat any

$_ZNSt11__copy_moveILb0ELb0ESt26random_access_iterator_tagE8__copy_mIPcPhEET0_T_S6_S5_ = comdat any

$_ZNKSt6vectorIhSaIhEE11_M_data_ptrIhEEPT_S4_ = comdat any

$_ZNSt16allocator_traitsISaISt4pairINSt7__cxx1112basic_stringIcSt11char_traitsIcESaIcEEES6_EEE9constructIS7_JRA17_KcS6_EEEvRS8_PT_DpOT0_ = comdat any

$_ZNSt6vectorISt4pairINSt7__cxx1112basic_stringIcSt11char_traitsIcESaIcEEES6_ESaIS7_EE17_M_realloc_insertIJRA17_KcS6_EEEvN9__gnu_cxx17__normal_iteratorIPS7_S9_EEDpOT_ = comdat any

$_ZN9__gnu_cxx13new_allocatorISt4pairINSt7__cxx1112basic_stringIcSt11char_traitsIcESaIcEEES7_EE9constructIS8_JRA17_KcS7_EEEvPT_DpOT0_ = comdat any

$_ZNSt4pairINSt7__cxx1112basic_stringIcSt11char_traitsIcESaIcEEES5_EC2IRA17_KcS5_Lb1EEEOT_OT0_ = comdat any

$_ZNSt16allocator_traitsISaISt4pairINSt7__cxx1112basic_stringIcSt11char_traitsIcESaIcEEES6_EEE9constructIS7_JRA13_KcRKS6_EEEvRS8_PT_DpOT0_ = comdat any

$_ZNSt6vectorISt4pairINSt7__cxx1112basic_stringIcSt11char_traitsIcESaIcEEES6_ESaIS7_EE17_M_realloc_insertIJRA13_KcRKS6_EEEvN9__gnu_cxx17__normal_iteratorIPS7_S9_EEDpOT_ = comdat any

$_ZN9__gnu_cxx13new_allocatorISt4pairINSt7__cxx1112basic_stringIcSt11char_traitsIcESaIcEEES7_EE9constructIS8_JRA13_KcRKS7_EEEvPT_DpOT0_ = comdat any

$_ZNSt4pairINSt7__cxx1112basic_stringIcSt11char_traitsIcESaIcEEES5_EC2IRA13_KcLb1EEEOT_RKS5_ = comdat any

$_ZNSt16allocator_traitsISaISt4pairINSt7__cxx1112basic_stringIcSt11char_traitsIcESaIcEEES6_EEE9constructIS7_JRA16_KcRKS6_EEEvRS8_PT_DpOT0_ = comdat any

$_ZNSt6vectorISt4pairINSt7__cxx1112basic_stringIcSt11char_traitsIcESaIcEEES6_ESaIS7_EE17_M_realloc_insertIJRA16_KcRKS6_EEEvN9__gnu_cxx17__normal_iteratorIPS7_S9_EEDpOT_ = comdat any

$_ZN9__gnu_cxx13new_allocatorISt4pairINSt7__cxx1112basic_stringIcSt11char_traitsIcESaIcEEES7_EE9constructIS8_JRA16_KcRKS7_EEEvPT_DpOT0_ = comdat any

$_ZNSt4pairINSt7__cxx1112basic_stringIcSt11char_traitsIcESaIcEEES5_EC2IRA16_KcLb1EEEOT_RKS5_ = comdat any

$_ZTS10ParseError = comdat any

$_ZTS13CoolException = comdat any

$_ZTI13CoolException = comdat any

$_ZTI10ParseError = comdat any

$_ZTVN4Poco3Net4Impl21IPv4SocketAddressImplE = comdat any

$_ZTSN4Poco3Net4Impl21IPv4SocketAddressImplE = comdat any

$_ZTIN4Poco3Net4Impl21IPv4SocketAddressImplE = comdat any

$_ZTVN4Poco3Net4Impl21IPv6SocketAddressImplE = comdat any

$_ZTSN4Poco3Net4Impl21IPv6SocketAddressImplE = comdat any

$_ZTIN4Poco3Net4Impl21IPv6SocketAddressImplE = comdat any

$_ZTV10ParseError = comdat any

$_ZTV13CoolException = comdat any

$_ZZNSt8__detail18__to_chars_10_implImEEvPcjT_E8__digits = comdat any

@_ZStL8__ioinit = internal global %"class.std::ios_base::Init" zeroinitializer, align 1, !dbg !0
@__dso_handle = external hidden global i8
@_ZN3LogL3endE = internal global %"struct.Log::_end_marker" zeroinitializer, align 1, !dbg !7
@.str = private unnamed_addr constant [1 x i8] zeroinitializer, align 1, !dbg !18
@.str.2 = private unnamed_addr constant [6 x i8] c"value\00", align 1, !dbg !26
@.str.3 = private unnamed_addr constant [8 x i8] c"modulus\00", align 1, !dbg !31
@.str.4 = private unnamed_addr constant [9 x i8] c"exponent\00", align 1, !dbg !36
@.str.5 = private unnamed_addr constant [9 x i8] c"oldvalue\00", align 1, !dbg !41
@.str.6 = private unnamed_addr constant [11 x i8] c"oldmodulus\00", align 1, !dbg !43
@.str.7 = private unnamed_addr constant [12 x i8] c"oldexponent\00", align 1, !dbg !48
@_ZZN5Proof12ProofKeyPathB5cxx11EvE7keyPathB5cxx11 = internal global %"class.std::__cxx11::basic_string" zeroinitializer, align 8, !dbg !53
@_ZGVZN5Proof12ProofKeyPathB5cxx11EvE7keyPathB5cxx11 = internal global i64 0, align 8
@.str.8 = private unnamed_addr constant [33 x i8] c"/usr/local/etc/coolwsd/proof_key\00", align 1, !dbg !3251
@.str.9 = private unnamed_addr constant [50 x i8] c"Proof key public exponent is longer than 4 bytes.\00", align 1, !dbg !3256
@_ZTVN10__cxxabiv120__si_class_type_infoE = external global ptr
@_ZTS10ParseError = linkonce_odr dso_local constant [13 x i8] c"10ParseError\00", comdat, align 1
@_ZTS13CoolException = linkonce_odr dso_local constant [16 x i8] c"13CoolException\00", comdat, align 1
@_ZTISt13runtime_error = external constant ptr
@_ZTI13CoolException = linkonce_odr dso_local constant { ptr, ptr, ptr } { ptr getelementptr inbounds (ptr, ptr @_ZTVN10__cxxabiv120__si_class_type_infoE, i64 2), ptr @_ZTS13CoolException, ptr @_ZTISt13runtime_error }, comdat, align 8
@_ZTI10ParseError = linkonce_odr dso_local constant { ptr, ptr, ptr } { ptr getelementptr inbounds (ptr, ptr @_ZTVN10__cxxabiv120__si_class_type_infoE, i64 2), ptr @_ZTS10ParseError, ptr @_ZTI13CoolException }, comdat, align 8
@_ZZNK5Proof9SignProofB5cxx11ERKSt6vectorIhSaIhEEE12digestEngine = internal thread_local global %"class.Poco::Crypto::RSADigestEngine" zeroinitializer, align 8, !dbg !3266
@_ZGVZNK5Proof9SignProofB5cxx11ERKSt6vectorIhSaIhEEE12digestEngine = internal thread_local global i8 0, align 1
@.str.10 = private unnamed_addr constant [7 x i8] c"SHA256\00", align 1, !dbg !3261
@.str.11 = private unnamed_addr constant [17 x i8] c"X-WOPI-TimeStamp\00", align 1, !dbg !3271
@.str.12 = private unnamed_addr constant [13 x i8] c"X-WOPI-Proof\00", align 1, !dbg !3276
@.str.13 = private unnamed_addr constant [16 x i8] c"X-WOPI-ProofOld\00", align 1, !dbg !3281
@_ZZ8GetProofvE5proof = internal global %class.Proof zeroinitializer, align 8, !dbg !3284
@_ZGVZ8GetProofvE5proof = internal global i64 0, align 8
@_ZTVN4Poco3Net4Impl21IPv4SocketAddressImplE = linkonce_odr dso_local unnamed_addr constant { [11 x ptr] } { [11 x ptr] [ptr null, ptr @_ZTIN4Poco3Net4Impl21IPv4SocketAddressImplE, ptr @_ZN4Poco3Net4Impl21IPv4SocketAddressImplD2Ev, ptr @_ZN4Poco3Net4Impl21IPv4SocketAddressImplD0Ev, ptr @_ZNK4Poco3Net4Impl21IPv4SocketAddressImpl4hostEv, ptr @_ZNK4Poco3Net4Impl21IPv4SocketAddressImpl4portEv, ptr @_ZNK4Poco3Net4Impl21IPv4SocketAddressImpl6lengthEv, ptr @_ZNK4Poco3Net4Impl21IPv4SocketAddressImpl4addrEv, ptr @_ZNK4Poco3Net4Impl21IPv4SocketAddressImpl2afEv, ptr @_ZNK4Poco3Net4Impl21IPv4SocketAddressImpl6familyEv, ptr @_ZNK4Poco3Net4Impl21IPv4SocketAddressImpl8toStringB5cxx11Ev] }, comdat, align 8
@_ZTSN4Poco3Net4Impl21IPv4SocketAddressImplE = linkonce_odr dso_local constant [40 x i8] c"N4Poco3Net4Impl21IPv4SocketAddressImplE\00", comdat, align 1
@_ZTIN4Poco3Net4Impl17SocketAddressImplE = external constant ptr
@_ZTIN4Poco3Net4Impl21IPv4SocketAddressImplE = linkonce_odr dso_local constant { ptr, ptr, ptr } { ptr getelementptr inbounds (ptr, ptr @_ZTVN10__cxxabiv120__si_class_type_infoE, i64 2), ptr @_ZTSN4Poco3Net4Impl21IPv4SocketAddressImplE, ptr @_ZTIN4Poco3Net4Impl17SocketAddressImplE }, comdat, align 8
@_ZTVN4Poco3Net4Impl21IPv6SocketAddressImplE = linkonce_odr dso_local unnamed_addr constant { [11 x ptr] } { [11 x ptr] [ptr null, ptr @_ZTIN4Poco3Net4Impl21IPv6SocketAddressImplE, ptr @_ZN4Poco3Net4Impl21IPv6SocketAddressImplD2Ev, ptr @_ZN4Poco3Net4Impl21IPv6SocketAddressImplD0Ev, ptr @_ZNK4Poco3Net4Impl21IPv6SocketAddressImpl4hostEv, ptr @_ZNK4Poco3Net4Impl21IPv6SocketAddressImpl4portEv, ptr @_ZNK4Poco3Net4Impl21IPv6SocketAddressImpl6lengthEv, ptr @_ZNK4Poco3Net4Impl21IPv6SocketAddressImpl4addrEv, ptr @_ZNK4Poco3Net4Impl21IPv6SocketAddressImpl2afEv, ptr @_ZNK4Poco3Net4Impl21IPv6SocketAddressImpl6familyEv, ptr @_ZNK4Poco3Net4Impl21IPv6SocketAddressImpl8toStringB5cxx11Ev] }, comdat, align 8
@_ZTSN4Poco3Net4Impl21IPv6SocketAddressImplE = linkonce_odr dso_local constant [40 x i8] c"N4Poco3Net4Impl21IPv6SocketAddressImplE\00", comdat, align 1
@_ZTIN4Poco3Net4Impl21IPv6SocketAddressImplE = linkonce_odr dso_local constant { ptr, ptr, ptr } { ptr getelementptr inbounds (ptr, ptr @_ZTVN10__cxxabiv120__si_class_type_infoE, i64 2), ptr @_ZTSN4Poco3Net4Impl21IPv6SocketAddressImplE, ptr @_ZTIN4Poco3Net4Impl17SocketAddressImplE }, comdat, align 8
@_ZTIN4Poco21FileNotFoundExceptionE = external constant ptr
@_ZTIN4Poco9ExceptionE = external constant ptr
@_ZTISt9exception = external constant ptr
@.str.14 = private unnamed_addr constant [4 x i8] c"ERR\00", align 1, !dbg !3290
@.str.15 = private unnamed_addr constant [48 x i8] c"Could not open proof RSA key: unknown exception\00", align 1, !dbg !3295
@.str.16 = private unnamed_addr constant [3 x i8] c"| \00", align 1, !dbg !3300
@.str.17 = private unnamed_addr constant [17 x i8] c"wsd/ProofKey.cpp\00", align 1, !dbg !3305
@.str.18 = private unnamed_addr constant [51 x i8] c"Could not open proof RSA key, standard exception: \00", align 1, !dbg !3307
@.str.19 = private unnamed_addr constant [47 x i8] c"Could not open proof RSA key, Poco exception: \00", align 1, !dbg !3312
@.str.20 = private unnamed_addr constant [257 x i8] c"\0ANo proof-key will be present in discovery.\0AIf you need to use WOPI security, generate an RSA key using this command:\0A    coolwsd-generate-proof-key\0Aor if your config dir is not /etc, you can run ssh-keygen manually:\0A    ssh-keygen -t rsa -N \22\22 -m PEM -f \22\00", align 1, !dbg !3317
@.str.21 = private unnamed_addr constant [68 x i8] c"\22\0ANote: the proof_key file must be readable by the coolwsd process.\00", align 1, !dbg !3322
@.str.22 = private unnamed_addr constant [4 x i8] c"WRN\00", align 1, !dbg !3327
@_ZN3Log10IsShutdownE = external global i8, align 1
@_ZTV10ParseError = linkonce_odr dso_local unnamed_addr constant { [5 x ptr] } { [5 x ptr] [ptr null, ptr @_ZTI10ParseError, ptr @_ZN10ParseErrorD2Ev, ptr @_ZN10ParseErrorD0Ev, ptr @_ZNKSt13runtime_error4whatEv] }, comdat, align 8
@_ZTV13CoolException = linkonce_odr dso_local unnamed_addr constant { [5 x ptr] } { [5 x ptr] [ptr null, ptr @_ZTI13CoolException, ptr @_ZN13CoolExceptionD2Ev, ptr @_ZN13CoolExceptionD0Ev, ptr @_ZNKSt13runtime_error4whatEv] }, comdat, align 8
@_ZZNSt8__detail18__to_chars_10_implImEEvPcjT_E8__digits = linkonce_odr dso_local constant [201 x i8] c"00010203040506070809101112131415161718192021222324252627282930313233343536373839404142434445464748495051525354555657585960616263646566676869707172737475767778798081828384858687888990919293949596979899\00", comdat, align 16, !dbg !3329
@.str.23 = private unnamed_addr constant [42 x i8] c"basic_string::_M_construct null not valid\00", align 1, !dbg !3342
@.str.24 = private unnamed_addr constant [49 x i8] c"cannot create std::vector larger than max_size()\00", align 1, !dbg !3347
@.str.25 = private unnamed_addr constant [26 x i8] c"vector::_M_realloc_insert\00", align 1, !dbg !3352
@.str.26 = private unnamed_addr constant [16 x i8] c"vector::reserve\00", align 1, !dbg !3358
@llvm.global_ctors = appending global [1 x { i32, ptr, ptr }] [{ i32, ptr, ptr } { i32 65535, ptr @_GLOBAL__sub_I_ProofKey.cpp, ptr null }]

@_ZN5ProofC1ENS_4TypeE = dso_local unnamed_addr alias void (ptr, i32), ptr @_ZN5ProofC2ENS_4TypeE
@_ZN5ProofC1Ev = dso_local unnamed_addr alias void (ptr), ptr @_ZN5ProofC2Ev

; Function Attrs: noinline uwtable
define internal void @__cxx_global_var_init() #0 section ".text.startup" !dbg !4410 {
  call void @_ZNSt8ios_base4InitC1Ev(ptr noundef nonnull align 1 dereferenceable(1) @_ZStL8__ioinit), !dbg !4411
  %1 = call i32 @__cxa_atexit(ptr @_ZNSt8ios_base4InitD1Ev, ptr @_ZStL8__ioinit, ptr @__dso_handle) #3, !dbg !4413
  ret void, !dbg !4411
}

declare void @_ZNSt8ios_base4InitC1Ev(ptr noundef nonnull align 1 dereferenceable(1)) unnamed_addr #1

; Function Attrs: nounwind
declare void @_ZNSt8ios_base4InitD1Ev(ptr noundef nonnull align 1 dereferenceable(1)) unnamed_addr #2

; Function Attrs: nounwind
declare i32 @__cxa_atexit(ptr, ptr, ptr) #3

; Function Attrs: noinline uwtable
define internal void @__cxx_global_var_init.1() #0 section ".text.startup" !dbg !4414 {
  call void @_ZN3Log11_end_markerC2Ev(ptr noundef nonnull align 1 dereferenceable(1) @_ZN3LogL3endE), !dbg !4415
  ret void, !dbg !4415
}

; Function Attrs: noinline nounwind uwtable
define linkonce_odr dso_local void @_ZN3Log11_end_markerC2Ev(ptr noundef nonnull align 1 dereferenceable(1) %0) unnamed_addr #4 comdat align 2 !dbg !4417 {
  %2 = alloca ptr, align 8
  store ptr %0, ptr %2, align 8
  call void @llvm.dbg.declare(metadata ptr %2, metadata !4418, metadata !DIExpression()), !dbg !4420
  %3 = load ptr, ptr %2, align 8
  ret void, !dbg !4421
}

; Function Attrs: mustprogress noinline uwtable
define linkonce_odr dso_local void @_ZNK4Poco3Net4Impl21IPv4SocketAddressImpl4hostEv(ptr noalias sret(%"class.Poco::Net::IPAddress") align 8 %0, ptr noundef nonnull align 8 dereferenceable(28) %1) unnamed_addr #5 comdat align 2 !dbg !4422 {
  %3 = alloca ptr, align 8
  %4 = alloca ptr, align 8
  store ptr %0, ptr %3, align 8
  store ptr %1, ptr %4, align 8
  call void @llvm.dbg.declare(metadata ptr %4, metadata !4488, metadata !DIExpression()), !dbg !4490
  %5 = load ptr, ptr %4, align 8
  %6 = getelementptr inbounds %"class.Poco::Net::Impl::IPv4SocketAddressImpl", ptr %5, i32 0, i32 1, !dbg !4491
  %7 = getelementptr inbounds %struct.sockaddr_in, ptr %6, i32 0, i32 2, !dbg !4492
  call void @_ZN4Poco3Net9IPAddressC1EPKvj(ptr noundef nonnull align 8 dereferenceable(8) %0, ptr noundef %7, i32 noundef 4), !dbg !4493
  ret void, !dbg !4494
}

; Function Attrs: nocallback nofree nosync nounwind speculatable willreturn memory(none)
declare void @llvm.dbg.declare(metadata, metadata, metadata) #6

declare void @_ZN4Poco3Net9IPAddressC1EPKvj(ptr noundef nonnull align 8 dereferenceable(8), ptr noundef, i32 noundef) unnamed_addr #1

; Function Attrs: mustprogress noinline uwtable
define linkonce_odr dso_local void @_ZNK4Poco3Net4Impl21IPv6SocketAddressImpl4hostEv(ptr noalias sret(%"class.Poco::Net::IPAddress") align 8 %0, ptr noundef nonnull align 8 dereferenceable(40) %1) unnamed_addr #5 comdat align 2 !dbg !4495 {
  %3 = alloca ptr, align 8
  %4 = alloca ptr, align 8
  store ptr %0, ptr %3, align 8
  store ptr %1, ptr %4, align 8
  call void @llvm.dbg.declare(metadata ptr %4, metadata !4554, metadata !DIExpression()), !dbg !4556
  %5 = load ptr, ptr %4, align 8
  %6 = getelementptr inbounds %"class.Poco::Net::Impl::IPv6SocketAddressImpl", ptr %5, i32 0, i32 1, !dbg !4557
  %7 = getelementptr inbounds %struct.sockaddr_in6, ptr %6, i32 0, i32 3, !dbg !4558
  %8 = getelementptr inbounds %"class.Poco::Net::Impl::IPv6SocketAddressImpl", ptr %5, i32 0, i32 1, !dbg !4559
  %9 = getelementptr inbounds %struct.sockaddr_in6, ptr %8, i32 0, i32 4, !dbg !4560
  %10 = load i32, ptr %9, align 4, !dbg !4560
  call void @_ZN4Poco3Net9IPAddressC1EPKvjj(ptr noundef nonnull align 8 dereferenceable(8) %0, ptr noundef %7, i32 noundef 16, i32 noundef %10), !dbg !4561
  ret void, !dbg !4562
}

declare void @_ZN4Poco3Net9IPAddressC1EPKvjj(ptr noundef nonnull align 8 dereferenceable(8), ptr noundef, i32 noundef, i32 noundef) unnamed_addr #1

; Function Attrs: mustprogress noinline uwtable
define dso_local void @_ZN5Proof13BytesToBase64B5cxx11ERKSt6vectorIhSaIhEE(ptr noalias sret(%"class.std::__cxx11::basic_string") align 8 %0, ptr noundef nonnull align 8 dereferenceable(24) %1) #5 align 2 personality ptr @__gxx_personality_v0 !dbg !4563 {
  %3 = alloca ptr, align 8
  %4 = alloca ptr, align 8
  %5 = alloca %"class.std::__cxx11::basic_ostringstream", align 8
  %6 = alloca %"class.Poco::OutputLineEndingConverter", align 8
  %7 = alloca %"class.std::__cxx11::basic_string", align 8
  %8 = alloca %"class.std::allocator.0", align 1
  %9 = alloca ptr, align 8
  %10 = alloca i32, align 4
  %11 = alloca %"class.Poco::Base64Encoder", align 8
  %12 = alloca %"class.std::__cxx11::basic_string", align 8
  %13 = alloca %"class.__gnu_cxx::__normal_iterator.4", align 8
  %14 = alloca %"class.__gnu_cxx::__normal_iterator.4", align 8
  %15 = alloca %"class.std::allocator.0", align 1
  store ptr %0, ptr %3, align 8
  store ptr %1, ptr %4, align 8
  call void @llvm.dbg.declare(metadata ptr %4, metadata !4564, metadata !DIExpression()), !dbg !4565
  call void @llvm.dbg.declare(metadata ptr %5, metadata !4566, metadata !DIExpression()), !dbg !4571
  call void @_ZNSt7__cxx1119basic_ostringstreamIcSt11char_traitsIcESaIcEEC1Ev(ptr noundef nonnull align 8 dereferenceable(112) %5), !dbg !4571
  call void @llvm.dbg.declare(metadata ptr %6, metadata !4572, metadata !DIExpression()), !dbg !4575
  call void @_ZNSaIcEC1Ev(ptr noundef nonnull align 1 dereferenceable(1) %8) #3, !dbg !4576
  invoke void @_ZNSt7__cxx1112basic_stringIcSt11char_traitsIcESaIcEEC2IS3_EEPKcRKS3_(ptr noundef nonnull align 8 dereferenceable(32) %7, ptr noundef @.str, ptr noundef nonnull align 1 dereferenceable(1) %8)
          to label %16 unwind label %37, !dbg !4576

16:                                               ; preds = %2
  invoke void @_ZN4Poco25OutputLineEndingConverterC1ERSoRKNSt7__cxx1112basic_stringIcSt11char_traitsIcESaIcEEE(ptr noundef nonnull align 8 dereferenceable(152) %6, ptr noundef nonnull align 8 dereferenceable(8) %5, ptr noundef nonnull align 8 dereferenceable(32) %7)
          to label %17 unwind label %41, !dbg !4575

17:                                               ; preds = %16
  call void @_ZNSt7__cxx1112basic_stringIcSt11char_traitsIcESaIcEED1Ev(ptr noundef nonnull align 8 dereferenceable(32) %7) #3, !dbg !4575
  call void @_ZNSaIcED1Ev(ptr noundef nonnull align 1 dereferenceable(1) %8) #3, !dbg !4575
  call void @llvm.dbg.declare(metadata ptr %11, metadata !4577, metadata !DIExpression()), !dbg !4580
  %18 = getelementptr inbounds i8, ptr %6, i64 144, !dbg !4581
  invoke void @_ZN4Poco13Base64EncoderC1ERSoi(ptr noundef nonnull align 8 dereferenceable(128) %11, ptr noundef nonnull align 8 dereferenceable(8) %18, i32 noundef 0)
          to label %19 unwind label %46, !dbg !4580

19:                                               ; preds = %17
  %20 = getelementptr inbounds i8, ptr %11, i64 120, !dbg !4582
  %21 = load ptr, ptr %4, align 8, !dbg !4583
  %22 = call ptr @_ZNKSt6vectorIhSaIhEE5beginEv(ptr noundef nonnull align 8 dereferenceable(24) %21) #3, !dbg !4584
  %23 = getelementptr inbounds %"class.__gnu_cxx::__normal_iterator.4", ptr %13, i32 0, i32 0, !dbg !4584
  store ptr %22, ptr %23, align 8, !dbg !4584
  %24 = load ptr, ptr %4, align 8, !dbg !4585
  %25 = call ptr @_ZNKSt6vectorIhSaIhEE3endEv(ptr noundef nonnull align 8 dereferenceable(24) %24) #3, !dbg !4586
  %26 = getelementptr inbounds %"class.__gnu_cxx::__normal_iterator.4", ptr %14, i32 0, i32 0, !dbg !4586
  store ptr %25, ptr %26, align 8, !dbg !4586
  call void @_ZNSaIcEC1Ev(ptr noundef nonnull align 1 dereferenceable(1) %15) #3, !dbg !4587
  %27 = getelementptr inbounds %"class.__gnu_cxx::__normal_iterator.4", ptr %13, i32 0, i32 0, !dbg !4587
  %28 = load ptr, ptr %27, align 8, !dbg !4587
  %29 = getelementptr inbounds %"class.__gnu_cxx::__normal_iterator.4", ptr %14, i32 0, i32 0, !dbg !4587
  %30 = load ptr, ptr %29, align 8, !dbg !4587
  invoke void @_ZNSt7__cxx1112basic_stringIcSt11char_traitsIcESaIcEEC2IN9__gnu_cxx17__normal_iteratorIPKhSt6vectorIhSaIhEEEEvEET_SE_RKS3_(ptr noundef nonnull align 8 dereferenceable(32) %12, ptr %28, ptr %30, ptr noundef nonnull align 1 dereferenceable(1) %15)
          to label %31 unwind label %50, !dbg !4587

31:                                               ; preds = %19
  %32 = invoke noundef nonnull align 8 dereferenceable(8) ptr @_ZStlsIcSt11char_traitsIcESaIcEERSt13basic_ostreamIT_T0_ES7_RKNSt7__cxx1112basic_stringIS4_S5_T1_EE(ptr noundef nonnull align 8 dereferenceable(8) %20, ptr noundef nonnull align 8 dereferenceable(32) %12)
          to label %33 unwind label %54, !dbg !4588

33:                                               ; preds = %31
  call void @_ZNSt7__cxx1112basic_stringIcSt11char_traitsIcESaIcEED1Ev(ptr noundef nonnull align 8 dereferenceable(32) %12) #3, !dbg !4582
  call void @_ZNSaIcED1Ev(ptr noundef nonnull align 1 dereferenceable(1) %15) #3, !dbg !4582
  %34 = invoke noundef i32 @_ZN4Poco16Base64EncoderIOS5closeEv(ptr noundef nonnull align 8 dereferenceable(120) %11)
          to label %35 unwind label %59, !dbg !4589

35:                                               ; preds = %33
  invoke void @_ZNKSt7__cxx1119basic_ostringstreamIcSt11char_traitsIcESaIcEE3strEv(ptr sret(%"class.std::__cxx11::basic_string") align 8 %0, ptr noundef nonnull align 8 dereferenceable(112) %5)
          to label %36 unwind label %59, !dbg !4590

36:                                               ; preds = %35
  call void @_ZN4Poco13Base64EncoderD1Ev(ptr noundef nonnull align 8 dereferenceable(128) %11) #3, !dbg !4591
  call void @_ZN4Poco25OutputLineEndingConverterD1Ev(ptr noundef nonnull align 8 dereferenceable(152) %6) #3, !dbg !4591
  call void @_ZNSt7__cxx1119basic_ostringstreamIcSt11char_traitsIcESaIcEED1Ev(ptr noundef nonnull align 8 dereferenceable(112) %5) #3, !dbg !4591
  ret void, !dbg !4591

37:                                               ; preds = %2
  %38 = landingpad { ptr, i32 }
          cleanup, !dbg !4591
  %39 = extractvalue { ptr, i32 } %38, 0, !dbg !4591
  store ptr %39, ptr %9, align 8, !dbg !4591
  %40 = extractvalue { ptr, i32 } %38, 1, !dbg !4591
  store i32 %40, ptr %10, align 4, !dbg !4591
  br label %45, !dbg !4591

41:                                               ; preds = %16
  %42 = landingpad { ptr, i32 }
          cleanup, !dbg !4591
  %43 = extractvalue { ptr, i32 } %42, 0, !dbg !4591
  store ptr %43, ptr %9, align 8, !dbg !4591
  %44 = extractvalue { ptr, i32 } %42, 1, !dbg !4591
  store i32 %44, ptr %10, align 4, !dbg !4591
  call void @_ZNSt7__cxx1112basic_stringIcSt11char_traitsIcESaIcEED1Ev(ptr noundef nonnull align 8 dereferenceable(32) %7) #3, !dbg !4575
  br label %45, !dbg !4575

45:                                               ; preds = %41, %37
  call void @_ZNSaIcED1Ev(ptr noundef nonnull align 1 dereferenceable(1) %8) #3, !dbg !4575
  br label %65, !dbg !4575

46:                                               ; preds = %17
  %47 = landingpad { ptr, i32 }
          cleanup, !dbg !4591
  %48 = extractvalue { ptr, i32 } %47, 0, !dbg !4591
  store ptr %48, ptr %9, align 8, !dbg !4591
  %49 = extractvalue { ptr, i32 } %47, 1, !dbg !4591
  store i32 %49, ptr %10, align 4, !dbg !4591
  br label %64, !dbg !4591

50:                                               ; preds = %19
  %51 = landingpad { ptr, i32 }
          cleanup, !dbg !4591
  %52 = extractvalue { ptr, i32 } %51, 0, !dbg !4591
  store ptr %52, ptr %9, align 8, !dbg !4591
  %53 = extractvalue { ptr, i32 } %51, 1, !dbg !4591
  store i32 %53, ptr %10, align 4, !dbg !4591
  br label %58, !dbg !4591

54:                                               ; preds = %31
  %55 = landingpad { ptr, i32 }
          cleanup, !dbg !4591
  %56 = extractvalue { ptr, i32 } %55, 0, !dbg !4591
  store ptr %56, ptr %9, align 8, !dbg !4591
  %57 = extractvalue { ptr, i32 } %55, 1, !dbg !4591
  store i32 %57, ptr %10, align 4, !dbg !4591
  call void @_ZNSt7__cxx1112basic_stringIcSt11char_traitsIcESaIcEED1Ev(ptr noundef nonnull align 8 dereferenceable(32) %12) #3, !dbg !4582
  br label %58, !dbg !4582

58:                                               ; preds = %54, %50
  call void @_ZNSaIcED1Ev(ptr noundef nonnull align 1 dereferenceable(1) %15) #3, !dbg !4582
  br label %63, !dbg !4582

59:                                               ; preds = %35, %33
  %60 = landingpad { ptr, i32 }
          cleanup, !dbg !4591
  %61 = extractvalue { ptr, i32 } %60, 0, !dbg !4591
  store ptr %61, ptr %9, align 8, !dbg !4591
  %62 = extractvalue { ptr, i32 } %60, 1, !dbg !4591
  store i32 %62, ptr %10, align 4, !dbg !4591
  br label %63, !dbg !4591

63:                                               ; preds = %59, %58
  call void @_ZN4Poco13Base64EncoderD1Ev(ptr noundef nonnull align 8 dereferenceable(128) %11) #3, !dbg !4591
  br label %64, !dbg !4591

64:                                               ; preds = %63, %46
  call void @_ZN4Poco25OutputLineEndingConverterD1Ev(ptr noundef nonnull align 8 dereferenceable(152) %6) #3, !dbg !4591
  br label %65, !dbg !4591

65:                                               ; preds = %64, %45
  call void @_ZNSt7__cxx1119basic_ostringstreamIcSt11char_traitsIcESaIcEED1Ev(ptr noundef nonnull align 8 dereferenceable(112) %5) #3, !dbg !4591
  br label %66, !dbg !4591

66:                                               ; preds = %65
  %67 = load ptr, ptr %9, align 8, !dbg !4591
  %68 = load i32, ptr %10, align 4, !dbg !4591
  %69 = insertvalue { ptr, i32 } poison, ptr %67, 0, !dbg !4591
  %70 = insertvalue { ptr, i32 } %69, i32 %68, 1, !dbg !4591
  resume { ptr, i32 } %70, !dbg !4591
}

declare void @_ZNSt7__cxx1119basic_ostringstreamIcSt11char_traitsIcESaIcEEC1Ev(ptr noundef nonnull align 8 dereferenceable(112)) unnamed_addr #1

; Function Attrs: nounwind
declare void @_ZNSaIcEC1Ev(ptr noundef nonnull align 1 dereferenceable(1)) unnamed_addr #2

; Function Attrs: noinline uwtable
define linkonce_odr dso_local void @_ZNSt7__cxx1112basic_stringIcSt11char_traitsIcESaIcEEC2IS3_EEPKcRKS3_(ptr noundef nonnull align 8 dereferenceable(32) %0, ptr noundef %1, ptr noundef nonnull align 1 dereferenceable(1) %2) unnamed_addr #0 comdat align 2 personality ptr @__gxx_personality_v0 !dbg !4592 {
  %4 = alloca ptr, align 8
  %5 = alloca ptr, align 8
  %6 = alloca ptr, align 8
  %7 = alloca ptr, align 8
  %8 = alloca ptr, align 8
  %9 = alloca i32, align 4
  %10 = alloca %"struct.std::forward_iterator_tag", align 1
  %11 = alloca %"struct.std::random_access_iterator_tag", align 1
  store ptr %0, ptr %4, align 8
  call void @llvm.dbg.declare(metadata ptr %4, metadata !4598, metadata !DIExpression()), !dbg !4600
  store ptr %1, ptr %5, align 8
  call void @llvm.dbg.declare(metadata ptr %5, metadata !4601, metadata !DIExpression()), !dbg !4602
  store ptr %2, ptr %6, align 8
  call void @llvm.dbg.declare(metadata ptr %6, metadata !4603, metadata !DIExpression()), !dbg !4604
  %12 = load ptr, ptr %4, align 8
  %13 = getelementptr inbounds %"class.std::__cxx11::basic_string", ptr %12, i32 0, i32 0, !dbg !4605
  %14 = call noundef ptr @_ZNSt7__cxx1112basic_stringIcSt11char_traitsIcESaIcEE13_M_local_dataEv(ptr noundef nonnull align 8 dereferenceable(32) %12), !dbg !4606
  %15 = load ptr, ptr %6, align 8, !dbg !4607
  call void @_ZNSt7__cxx1112basic_stringIcSt11char_traitsIcESaIcEE12_Alloc_hiderC1EPcRKS3_(ptr noundef nonnull align 8 dereferenceable(8) %13, ptr noundef %14, ptr noundef nonnull align 1 dereferenceable(1) %15), !dbg !4605
  call void @llvm.dbg.declare(metadata ptr %7, metadata !4608, metadata !DIExpression()), !dbg !4610
  %16 = load ptr, ptr %5, align 8, !dbg !4611
  %17 = icmp ne ptr %16, null, !dbg !4611
  br i1 %17, label %18, label %24, !dbg !4611

18:                                               ; preds = %3
  %19 = load ptr, ptr %5, align 8, !dbg !4612
  %20 = load ptr, ptr %5, align 8, !dbg !4613
  %21 = invoke noundef i64 @_ZNSt11char_traitsIcE6lengthEPKc(ptr noundef %20)
          to label %22 unwind label %30, !dbg !4614

22:                                               ; preds = %18
  %23 = getelementptr inbounds i8, ptr %19, i64 %21, !dbg !4615
  br label %25, !dbg !4611

24:                                               ; preds = %3
  br label %25, !dbg !4611

25:                                               ; preds = %24, %22
  %26 = phi ptr [ %23, %22 ], [ inttoptr (i64 1 to ptr), %24 ], !dbg !4611
  store ptr %26, ptr %7, align 8, !dbg !4610
  %27 = load ptr, ptr %5, align 8, !dbg !4616
  %28 = load ptr, ptr %7, align 8, !dbg !4617
  invoke void @_ZNSt7__cxx1112basic_stringIcSt11char_traitsIcESaIcEE12_M_constructIPKcEEvT_S8_St20forward_iterator_tag(ptr noundef nonnull align 8 dereferenceable(32) %12, ptr noundef %27, ptr noundef %28)
          to label %29 unwind label %30, !dbg !4618

29:                                               ; preds = %25
  ret void, !dbg !4619

30:                                               ; preds = %25, %18
  %31 = landingpad { ptr, i32 }
          cleanup, !dbg !4620
  %32 = extractvalue { ptr, i32 } %31, 0, !dbg !4620
  store ptr %32, ptr %8, align 8, !dbg !4620
  %33 = extractvalue { ptr, i32 } %31, 1, !dbg !4620
  store i32 %33, ptr %9, align 4, !dbg !4620
  call void @_ZNSt7__cxx1112basic_stringIcSt11char_traitsIcESaIcEE12_Alloc_hiderD2Ev(ptr noundef nonnull align 8 dereferenceable(8) %13) #3, !dbg !4620
  br label %34, !dbg !4620

34:                                               ; preds = %30
  %35 = load ptr, ptr %8, align 8, !dbg !4620
  %36 = load i32, ptr %9, align 4, !dbg !4620
  %37 = insertvalue { ptr, i32 } poison, ptr %35, 0, !dbg !4620
  %38 = insertvalue { ptr, i32 } %37, i32 %36, 1, !dbg !4620
  resume { ptr, i32 } %38, !dbg !4620
}

declare i32 @__gxx_personality_v0(...)

declare void @_ZN4Poco25OutputLineEndingConverterC1ERSoRKNSt7__cxx1112basic_stringIcSt11char_traitsIcESaIcEEE(ptr noundef nonnull align 8 dereferenceable(152), ptr noundef nonnull align 8 dereferenceable(8), ptr noundef nonnull align 8 dereferenceable(32)) unnamed_addr #1

; Function Attrs: nounwind
declare void @_ZNSt7__cxx1112basic_stringIcSt11char_traitsIcESaIcEED1Ev(ptr noundef nonnull align 8 dereferenceable(32)) unnamed_addr #2

; Function Attrs: nounwind
declare void @_ZNSaIcED1Ev(ptr noundef nonnull align 1 dereferenceable(1)) unnamed_addr #2

declare void @_ZN4Poco13Base64EncoderC1ERSoi(ptr noundef nonnull align 8 dereferenceable(128), ptr noundef nonnull align 8 dereferenceable(8), i32 noundef) unnamed_addr #1

declare noundef nonnull align 8 dereferenceable(8) ptr @_ZStlsIcSt11char_traitsIcESaIcEERSt13basic_ostreamIT_T0_ES7_RKNSt7__cxx1112basic_stringIS4_S5_T1_EE(ptr noundef nonnull align 8 dereferenceable(8), ptr noundef nonnull align 8 dereferenceable(32)) #1

; Function Attrs: mustprogress noinline nounwind uwtable
define linkonce_odr dso_local ptr @_ZNKSt6vectorIhSaIhEE5beginEv(ptr noundef nonnull align 8 dereferenceable(24) %0) #7 comdat align 2 !dbg !4621 {
  %2 = alloca %"class.__gnu_cxx::__normal_iterator.4", align 8
  %3 = alloca ptr, align 8
  store ptr %0, ptr %3, align 8
  call void @llvm.dbg.declare(metadata ptr %3, metadata !4622, metadata !DIExpression()), !dbg !4624
  %4 = load ptr, ptr %3, align 8
  %5 = getelementptr inbounds %"struct.std::_Vector_base", ptr %4, i32 0, i32 0, !dbg !4625
  %6 = getelementptr inbounds %"struct.std::_Vector_base<unsigned char, std::allocator<unsigned char>>::_Vector_impl_data", ptr %5, i32 0, i32 0, !dbg !4626
  call void @_ZN9__gnu_cxx17__normal_iteratorIPKhSt6vectorIhSaIhEEEC2ERKS2_(ptr noundef nonnull align 8 dereferenceable(8) %2, ptr noundef nonnull align 8 dereferenceable(8) %6) #3, !dbg !4627
  %7 = getelementptr inbounds %"class.__gnu_cxx::__normal_iterator.4", ptr %2, i32 0, i32 0, !dbg !4628
  %8 = load ptr, ptr %7, align 8, !dbg !4628
  ret ptr %8, !dbg !4628
}

; Function Attrs: mustprogress noinline nounwind uwtable
define linkonce_odr dso_local ptr @_ZNKSt6vectorIhSaIhEE3endEv(ptr noundef nonnull align 8 dereferenceable(24) %0) #7 comdat align 2 !dbg !4629 {
  %2 = alloca %"class.__gnu_cxx::__normal_iterator.4", align 8
  %3 = alloca ptr, align 8
  store ptr %0, ptr %3, align 8
  call void @llvm.dbg.declare(metadata ptr %3, metadata !4630, metadata !DIExpression()), !dbg !4631
  %4 = load ptr, ptr %3, align 8
  %5 = getelementptr inbounds %"struct.std::_Vector_base", ptr %4, i32 0, i32 0, !dbg !4632
  %6 = getelementptr inbounds %"struct.std::_Vector_base<unsigned char, std::allocator<unsigned char>>::_Vector_impl_data", ptr %5, i32 0, i32 1, !dbg !4633
  call void @_ZN9__gnu_cxx17__normal_iteratorIPKhSt6vectorIhSaIhEEEC2ERKS2_(ptr noundef nonnull align 8 dereferenceable(8) %2, ptr noundef nonnull align 8 dereferenceable(8) %6) #3, !dbg !4634
  %7 = getelementptr inbounds %"class.__gnu_cxx::__normal_iterator.4", ptr %2, i32 0, i32 0, !dbg !4635
  %8 = load ptr, ptr %7, align 8, !dbg !4635
  ret ptr %8, !dbg !4635
}

; Function Attrs: noinline uwtable
define linkonce_odr dso_local void @_ZNSt7__cxx1112basic_stringIcSt11char_traitsIcESaIcEEC2IN9__gnu_cxx17__normal_iteratorIPKhSt6vectorIhSaIhEEEEvEET_SE_RKS3_(ptr noundef nonnull align 8 dereferenceable(32) %0, ptr %1, ptr %2, ptr noundef nonnull align 1 dereferenceable(1) %3) unnamed_addr #0 comdat align 2 personality ptr @__gxx_personality_v0 !dbg !4636 {
  %5 = alloca %"class.__gnu_cxx::__normal_iterator.4", align 8
  %6 = alloca %"class.__gnu_cxx::__normal_iterator.4", align 8
  %7 = alloca ptr, align 8
  %8 = alloca ptr, align 8
  %9 = alloca %"class.__gnu_cxx::__normal_iterator.4", align 8
  %10 = alloca %"class.__gnu_cxx::__normal_iterator.4", align 8
  %11 = alloca ptr, align 8
  %12 = alloca i32, align 4
  %13 = getelementptr inbounds %"class.__gnu_cxx::__normal_iterator.4", ptr %5, i32 0, i32 0
  store ptr %1, ptr %13, align 8
  %14 = getelementptr inbounds %"class.__gnu_cxx::__normal_iterator.4", ptr %6, i32 0, i32 0
  store ptr %2, ptr %14, align 8
  store ptr %0, ptr %7, align 8
  call void @llvm.dbg.declare(metadata ptr %7, metadata !4643, metadata !DIExpression()), !dbg !4644
  call void @llvm.dbg.declare(metadata ptr %5, metadata !4645, metadata !DIExpression()), !dbg !4646
  call void @llvm.dbg.declare(metadata ptr %6, metadata !4647, metadata !DIExpression()), !dbg !4648
  store ptr %3, ptr %8, align 8
  call void @llvm.dbg.declare(metadata ptr %8, metadata !4649, metadata !DIExpression()), !dbg !4650
  %15 = load ptr, ptr %7, align 8
  %16 = getelementptr inbounds %"class.std::__cxx11::basic_string", ptr %15, i32 0, i32 0, !dbg !4651
  %17 = call noundef ptr @_ZNSt7__cxx1112basic_stringIcSt11char_traitsIcESaIcEE13_M_local_dataEv(ptr noundef nonnull align 8 dereferenceable(32) %15), !dbg !4652
  %18 = load ptr, ptr %8, align 8, !dbg !4653
  call void @_ZNSt7__cxx1112basic_stringIcSt11char_traitsIcESaIcEE12_Alloc_hiderC1EPcRKS3_(ptr noundef nonnull align 8 dereferenceable(8) %16, ptr noundef %17, ptr noundef nonnull align 1 dereferenceable(1) %18), !dbg !4651
  call void @llvm.memcpy.p0.p0.i64(ptr align 8 %9, ptr align 8 %5, i64 8, i1 false), !dbg !4654
  call void @llvm.memcpy.p0.p0.i64(ptr align 8 %10, ptr align 8 %6, i64 8, i1 false), !dbg !4656
  %19 = getelementptr inbounds %"class.__gnu_cxx::__normal_iterator.4", ptr %9, i32 0, i32 0, !dbg !4657
  %20 = load ptr, ptr %19, align 8, !dbg !4657
  %21 = getelementptr inbounds %"class.__gnu_cxx::__normal_iterator.4", ptr %10, i32 0, i32 0, !dbg !4657
  %22 = load ptr, ptr %21, align 8, !dbg !4657
  invoke void @_ZNSt7__cxx1112basic_stringIcSt11char_traitsIcESaIcEE12_M_constructIN9__gnu_cxx17__normal_iteratorIPKhSt6vectorIhSaIhEEEEEEvT_SE_(ptr noundef nonnull align 8 dereferenceable(32) %15, ptr %20, ptr %22)
          to label %23 unwind label %24, !dbg !4657

23:                                               ; preds = %4
  ret void, !dbg !4658

24:                                               ; preds = %4
  %25 = landingpad { ptr, i32 }
          cleanup, !dbg !4659
  %26 = extractvalue { ptr, i32 } %25, 0, !dbg !4659
  store ptr %26, ptr %11, align 8, !dbg !4659
  %27 = extractvalue { ptr, i32 } %25, 1, !dbg !4659
  store i32 %27, ptr %12, align 4, !dbg !4659
  call void @_ZNSt7__cxx1112basic_stringIcSt11char_traitsIcESaIcEE12_Alloc_hiderD2Ev(ptr noundef nonnull align 8 dereferenceable(8) %16) #3, !dbg !4659
  br label %28, !dbg !4659

28:                                               ; preds = %24
  %29 = load ptr, ptr %11, align 8, !dbg !4659
  %30 = load i32, ptr %12, align 4, !dbg !4659
  %31 = insertvalue { ptr, i32 } poison, ptr %29, 0, !dbg !4659
  %32 = insertvalue { ptr, i32 } %31, i32 %30, 1, !dbg !4659
  resume { ptr, i32 } %32, !dbg !4659
}

declare noundef i32 @_ZN4Poco16Base64EncoderIOS5closeEv(ptr noundef nonnull align 8 dereferenceable(120)) #1

declare void @_ZNKSt7__cxx1119basic_ostringstreamIcSt11char_traitsIcESaIcEE3strEv(ptr sret(%"class.std::__cxx11::basic_string") align 8, ptr noundef nonnull align 8 dereferenceable(112)) #1

; Function Attrs: nounwind
declare void @_ZN4Poco13Base64EncoderD1Ev(ptr noundef nonnull align 8 dereferenceable(128)) unnamed_addr #2

; Function Attrs: nounwind
declare void @_ZN4Poco25OutputLineEndingConverterD1Ev(ptr noundef nonnull align 8 dereferenceable(152)) unnamed_addr #2

; Function Attrs: nounwind
declare void @_ZNSt7__cxx1119basic_ostringstreamIcSt11char_traitsIcESaIcEED1Ev(ptr noundef nonnull align 8 dereferenceable(112)) unnamed_addr #2

; Function Attrs: mustprogress noinline uwtable
define dso_local void @_ZN5Proof13Base64ToBytesERKNSt7__cxx1112basic_stringIcSt11char_traitsIcESaIcEEE(ptr noalias sret(%"class.std::vector") align 8 %0, ptr noundef nonnull align 8 dereferenceable(32) %1) #5 align 2 personality ptr @__gxx_personality_v0 !dbg !4660 {
  %3 = alloca ptr, align 8
  %4 = alloca ptr, align 8
  %5 = alloca %"class.std::__cxx11::basic_istringstream", align 8
  %6 = alloca %"class.Poco::Base64Decoder", align 8
  %7 = alloca ptr, align 8
  %8 = alloca i32, align 4
  %9 = alloca i8, align 1
  %10 = alloca i1, align 1
  %11 = alloca i8, align 1
  store ptr %0, ptr %3, align 8
  store ptr %1, ptr %4, align 8
  call void @llvm.dbg.declare(metadata ptr %4, metadata !4661, metadata !DIExpression()), !dbg !4662
  call void @llvm.dbg.declare(metadata ptr %5, metadata !4663, metadata !DIExpression()), !dbg !4666
  %12 = load ptr, ptr %4, align 8, !dbg !4667
  call void @_ZNSt7__cxx1119basic_istringstreamIcSt11char_traitsIcESaIcEEC1ERKNS_12basic_stringIcS2_S3_EESt13_Ios_Openmode(ptr noundef nonnull align 8 dereferenceable(120) %5, ptr noundef nonnull align 8 dereferenceable(32) %12, i32 noundef 8), !dbg !4666
  call void @llvm.dbg.declare(metadata ptr %6, metadata !4668, metadata !DIExpression()), !dbg !4671
  invoke void @_ZN4Poco13Base64DecoderC1ERSii(ptr noundef nonnull align 8 dereferenceable(128) %6, ptr noundef nonnull align 8 dereferenceable(16) %5, i32 noundef 0)
          to label %13 unwind label %27, !dbg !4671

13:                                               ; preds = %2
  call void @llvm.dbg.declare(metadata ptr %9, metadata !4672, metadata !DIExpression()), !dbg !4673
  store i8 0, ptr %9, align 1, !dbg !4673
  store i1 false, ptr %10, align 1, !dbg !4674
  call void @llvm.dbg.declare(metadata ptr %3, metadata !4675, metadata !DIExpression(DW_OP_deref)), !dbg !4676
  call void @_ZNSt6vectorIhSaIhEEC2Ev(ptr noundef nonnull align 8 dereferenceable(24) %0) #3, !dbg !4676
  br label %14, !dbg !4677

14:                                               ; preds = %26, %13
  %15 = getelementptr inbounds i8, ptr %6, i64 112, !dbg !4678
  %16 = invoke noundef nonnull align 8 dereferenceable(16) ptr @_ZNSi3getERc(ptr noundef nonnull align 8 dereferenceable(16) %15, ptr noundef nonnull align 1 dereferenceable(1) %9)
          to label %17 unwind label %31, !dbg !4679

17:                                               ; preds = %14
  %18 = load ptr, ptr %16, align 8, !dbg !4678
  %19 = getelementptr i8, ptr %18, i64 -24, !dbg !4678
  %20 = load i64, ptr %19, align 8, !dbg !4678
  %21 = getelementptr inbounds i8, ptr %16, i64 %20, !dbg !4678
  %22 = invoke noundef zeroext i1 @_ZNKSt9basic_iosIcSt11char_traitsIcEEcvbEv(ptr noundef nonnull align 8 dereferenceable(264) %21)
          to label %23 unwind label %31, !dbg !4678

23:                                               ; preds = %17
  br i1 %22, label %24, label %35, !dbg !4677

24:                                               ; preds = %23
  %25 = load i8, ptr %9, align 1, !dbg !4680
  store i8 %25, ptr %11, align 1, !dbg !4680
  invoke void @_ZNSt6vectorIhSaIhEE9push_backEOh(ptr noundef nonnull align 8 dereferenceable(24) %0, ptr noundef nonnull align 1 dereferenceable(1) %11)
          to label %26 unwind label %31, !dbg !4681

26:                                               ; preds = %24
  br label %14, !dbg !4677, !llvm.loop !4682

27:                                               ; preds = %2
  %28 = landingpad { ptr, i32 }
          cleanup, !dbg !4685
  %29 = extractvalue { ptr, i32 } %28, 0, !dbg !4685
  store ptr %29, ptr %7, align 8, !dbg !4685
  %30 = extractvalue { ptr, i32 } %28, 1, !dbg !4685
  store i32 %30, ptr %8, align 4, !dbg !4685
  br label %39, !dbg !4685

31:                                               ; preds = %24, %17, %14
  %32 = landingpad { ptr, i32 }
          cleanup, !dbg !4685
  %33 = extractvalue { ptr, i32 } %32, 0, !dbg !4685
  store ptr %33, ptr %7, align 8, !dbg !4685
  %34 = extractvalue { ptr, i32 } %32, 1, !dbg !4685
  store i32 %34, ptr %8, align 4, !dbg !4685
  call void @_ZNSt6vectorIhSaIhEED2Ev(ptr noundef nonnull align 8 dereferenceable(24) %0) #3, !dbg !4685
  call void @_ZN4Poco13Base64DecoderD1Ev(ptr noundef nonnull align 8 dereferenceable(128) %6) #3, !dbg !4685
  br label %39, !dbg !4685

35:                                               ; preds = %23
  store i1 true, ptr %10, align 1, !dbg !4686
  %36 = load i1, ptr %10, align 1, !dbg !4685
  br i1 %36, label %38, label %37, !dbg !4685

37:                                               ; preds = %35
  call void @_ZNSt6vectorIhSaIhEED2Ev(ptr noundef nonnull align 8 dereferenceable(24) %0) #3, !dbg !4685
  br label %38, !dbg !4685

38:                                               ; preds = %37, %35
  call void @_ZN4Poco13Base64DecoderD1Ev(ptr noundef nonnull align 8 dereferenceable(128) %6) #3, !dbg !4685
  call void @_ZNSt7__cxx1119basic_istringstreamIcSt11char_traitsIcESaIcEED1Ev(ptr noundef nonnull align 8 dereferenceable(120) %5) #3, !dbg !4685
  ret void, !dbg !4685

39:                                               ; preds = %31, %27
  call void @_ZNSt7__cxx1119basic_istringstreamIcSt11char_traitsIcESaIcEED1Ev(ptr noundef nonnull align 8 dereferenceable(120) %5) #3, !dbg !4685
  br label %40, !dbg !4685

40:                                               ; preds = %39
  %41 = load ptr, ptr %7, align 8, !dbg !4685
  %42 = load i32, ptr %8, align 4, !dbg !4685
  %43 = insertvalue { ptr, i32 } poison, ptr %41, 0, !dbg !4685
  %44 = insertvalue { ptr, i32 } %43, i32 %42, 1, !dbg !4685
  resume { ptr, i32 } %44, !dbg !4685
}

declare void @_ZNSt7__cxx1119basic_istringstreamIcSt11char_traitsIcESaIcEEC1ERKNS_12basic_stringIcS2_S3_EESt13_Ios_Openmode(ptr noundef nonnull align 8 dereferenceable(120), ptr noundef nonnull align 8 dereferenceable(32), i32 noundef) unnamed_addr #1

declare void @_ZN4Poco13Base64DecoderC1ERSii(ptr noundef nonnull align 8 dereferenceable(128), ptr noundef nonnull align 8 dereferenceable(16), i32 noundef) unnamed_addr #1

; Function Attrs: noinline nounwind uwtable
define linkonce_odr dso_local void @_ZNSt6vectorIhSaIhEEC2Ev(ptr noundef nonnull align 8 dereferenceable(24) %0) unnamed_addr #4 comdat align 2 !dbg !4687 {
  %2 = alloca ptr, align 8
  store ptr %0, ptr %2, align 8
  call void @llvm.dbg.declare(metadata ptr %2, metadata !4688, metadata !DIExpression()), !dbg !4689
  %3 = load ptr, ptr %2, align 8
  call void @_ZNSt12_Vector_baseIhSaIhEEC2Ev(ptr noundef nonnull align 8 dereferenceable(24) %3) #3, !dbg !4690
  ret void, !dbg !4691
}

declare noundef nonnull align 8 dereferenceable(16) ptr @_ZNSi3getERc(ptr noundef nonnull align 8 dereferenceable(16), ptr noundef nonnull align 1 dereferenceable(1)) #1

declare noundef zeroext i1 @_ZNKSt9basic_iosIcSt11char_traitsIcEEcvbEv(ptr noundef nonnull align 8 dereferenceable(264)) #1

; Function Attrs: mustprogress noinline uwtable
define linkonce_odr dso_local void @_ZNSt6vectorIhSaIhEE9push_backEOh(ptr noundef nonnull align 8 dereferenceable(24) %0, ptr noundef nonnull align 1 dereferenceable(1) %1) #5 comdat align 2 !dbg !4692 {
  %3 = alloca ptr, align 8
  %4 = alloca ptr, align 8
  store ptr %0, ptr %3, align 8
  call void @llvm.dbg.declare(metadata ptr %3, metadata !4693, metadata !DIExpression()), !dbg !4694
  store ptr %1, ptr %4, align 8
  call void @llvm.dbg.declare(metadata ptr %4, metadata !4695, metadata !DIExpression()), !dbg !4696
  %5 = load ptr, ptr %3, align 8
  %6 = load ptr, ptr %4, align 8, !dbg !4697
  %7 = call noundef nonnull align 1 dereferenceable(1) ptr @_ZNSt6vectorIhSaIhEE12emplace_backIJhEEERhDpOT_(ptr noundef nonnull align 8 dereferenceable(24) %5, ptr noundef nonnull align 1 dereferenceable(1) %6), !dbg !4698
  ret void, !dbg !4699
}

; Function Attrs: noinline nounwind uwtable
define linkonce_odr dso_local void @_ZNSt6vectorIhSaIhEED2Ev(ptr noundef nonnull align 8 dereferenceable(24) %0) unnamed_addr #4 comdat align 2 personality ptr @__gxx_personality_v0 !dbg !4700 {
  %2 = alloca ptr, align 8
  store ptr %0, ptr %2, align 8
  call void @llvm.dbg.declare(metadata ptr %2, metadata !4701, metadata !DIExpression()), !dbg !4702
  %3 = load ptr, ptr %2, align 8
  %4 = getelementptr inbounds %"struct.std::_Vector_base", ptr %3, i32 0, i32 0, !dbg !4703
  %5 = getelementptr inbounds %"struct.std::_Vector_base<unsigned char, std::allocator<unsigned char>>::_Vector_impl_data", ptr %4, i32 0, i32 0, !dbg !4705
  %6 = load ptr, ptr %5, align 8, !dbg !4705
  %7 = getelementptr inbounds %"struct.std::_Vector_base", ptr %3, i32 0, i32 0, !dbg !4706
  %8 = getelementptr inbounds %"struct.std::_Vector_base<unsigned char, std::allocator<unsigned char>>::_Vector_impl_data", ptr %7, i32 0, i32 1, !dbg !4707
  %9 = load ptr, ptr %8, align 8, !dbg !4707
  %10 = call noundef nonnull align 1 dereferenceable(1) ptr @_ZNSt12_Vector_baseIhSaIhEE19_M_get_Tp_allocatorEv(ptr noundef nonnull align 8 dereferenceable(24) %3) #3, !dbg !4708
  invoke void @_ZSt8_DestroyIPhhEvT_S1_RSaIT0_E(ptr noundef %6, ptr noundef %9, ptr noundef nonnull align 1 dereferenceable(1) %10)
          to label %11 unwind label %12, !dbg !4709

11:                                               ; preds = %1
  call void @_ZNSt12_Vector_baseIhSaIhEED2Ev(ptr noundef nonnull align 8 dereferenceable(24) %3) #3, !dbg !4710
  ret void, !dbg !4711

12:                                               ; preds = %1
  %13 = landingpad { ptr, i32 }
          catch ptr null, !dbg !4709
  %14 = extractvalue { ptr, i32 } %13, 0, !dbg !4709
  call void @__clang_call_terminate(ptr %14) #15, !dbg !4709
  unreachable, !dbg !4709
}

; Function Attrs: nounwind
declare void @_ZN4Poco13Base64DecoderD1Ev(ptr noundef nonnull align 8 dereferenceable(128)) unnamed_addr #2

; Function Attrs: nounwind
declare void @_ZNSt7__cxx1119basic_istringstreamIcSt11char_traitsIcESaIcEED1Ev(ptr noundef nonnull align 8 dereferenceable(120)) unnamed_addr #2

; Function Attrs: mustprogress noinline uwtable
define dso_local void @_ZN5Proof10initializeEv(ptr noundef nonnull align 8 dereferenceable(32) %0) #5 align 2 personality ptr @__gxx_personality_v0 !dbg !4712 {
  %2 = alloca ptr, align 8
  %3 = alloca %"class.std::vector", align 8
  %4 = alloca %"class.std::vector", align 8
  %5 = alloca ptr, align 8
  %6 = alloca i32, align 4
  %7 = alloca %"class.std::vector", align 8
  %8 = alloca %"class.std::__cxx11::basic_string", align 8
  %9 = alloca %"class.std::__cxx11::basic_string", align 8
  %10 = alloca %"class.std::__cxx11::basic_string", align 8
  store ptr %0, ptr %2, align 8
  call void @llvm.dbg.declare(metadata ptr %2, metadata !4713, metadata !DIExpression()), !dbg !4715
  %11 = load ptr, ptr %2, align 8
  %12 = getelementptr inbounds %class.Proof, ptr %11, i32 0, i32 0, !dbg !4716
  %13 = call noundef zeroext i1 @_ZNKSt10unique_ptrIKN4Poco6Crypto6RSAKeyESt14default_deleteIS3_EEcvbEv(ptr noundef nonnull align 8 dereferenceable(8) %12) #3, !dbg !4716
  br i1 %13, label %14, label %71, !dbg !4718

14:                                               ; preds = %1
  call void @llvm.dbg.declare(metadata ptr %3, metadata !4719, metadata !DIExpression()), !dbg !4725
  %15 = getelementptr inbounds %class.Proof, ptr %11, i32 0, i32 0, !dbg !4726
  %16 = call noundef ptr @_ZNKSt10unique_ptrIKN4Poco6Crypto6RSAKeyESt14default_deleteIS3_EEptEv(ptr noundef nonnull align 8 dereferenceable(8) %15) #3, !dbg !4726
  call void @_ZNK4Poco6Crypto6RSAKey7modulusEv(ptr sret(%"class.std::vector") align 8 %3, ptr noundef nonnull align 8 dereferenceable(16) %16), !dbg !4727
  call void @llvm.dbg.declare(metadata ptr %4, metadata !4728, metadata !DIExpression()), !dbg !4729
  %17 = getelementptr inbounds %class.Proof, ptr %11, i32 0, i32 0, !dbg !4730
  %18 = call noundef ptr @_ZNKSt10unique_ptrIKN4Poco6Crypto6RSAKeyESt14default_deleteIS3_EEptEv(ptr noundef nonnull align 8 dereferenceable(8) %17) #3, !dbg !4730
  invoke void @_ZNK4Poco6Crypto6RSAKey18encryptionExponentEv(ptr sret(%"class.std::vector") align 8 %4, ptr noundef nonnull align 8 dereferenceable(16) %18)
          to label %19 unwind label %42, !dbg !4731

19:                                               ; preds = %14
  call void @llvm.dbg.declare(metadata ptr %7, metadata !4732, metadata !DIExpression()), !dbg !4733
  invoke void @_ZN5Proof12RSA2CapiBlobERKSt6vectorIhSaIhEES4_(ptr sret(%"class.std::vector") align 8 %7, ptr noundef nonnull align 8 dereferenceable(24) %3, ptr noundef nonnull align 8 dereferenceable(24) %4)
          to label %20 unwind label %46, !dbg !4734

20:                                               ; preds = %19
  call void @llvm.dbg.declare(metadata ptr %8, metadata !4735, metadata !DIExpression()), !dbg !4736
  invoke void @_ZN5Proof13BytesToBase64B5cxx11ERKSt6vectorIhSaIhEE(ptr sret(%"class.std::__cxx11::basic_string") align 8 %8, ptr noundef nonnull align 8 dereferenceable(24) %7)
          to label %21 unwind label %50, !dbg !4737

21:                                               ; preds = %20
  call void @llvm.dbg.declare(metadata ptr %9, metadata !4738, metadata !DIExpression()), !dbg !4739
  invoke void @_ZN5Proof13BytesToBase64B5cxx11ERKSt6vectorIhSaIhEE(ptr sret(%"class.std::__cxx11::basic_string") align 8 %9, ptr noundef nonnull align 8 dereferenceable(24) %3)
          to label %22 unwind label %54, !dbg !4740

22:                                               ; preds = %21
  call void @llvm.dbg.declare(metadata ptr %10, metadata !4741, metadata !DIExpression()), !dbg !4742
  invoke void @_ZN5Proof13BytesToBase64B5cxx11ERKSt6vectorIhSaIhEE(ptr sret(%"class.std::__cxx11::basic_string") align 8 %10, ptr noundef nonnull align 8 dereferenceable(24) %4)
          to label %23 unwind label %58, !dbg !4743

23:                                               ; preds = %22
  %24 = getelementptr inbounds %class.Proof, ptr %11, i32 0, i32 1, !dbg !4744
  %25 = invoke noundef nonnull align 8 dereferenceable(64) ptr @_ZNSt6vectorISt4pairINSt7__cxx1112basic_stringIcSt11char_traitsIcESaIcEEES6_ESaIS7_EE12emplace_backIJRA6_KcRKS6_EEERS7_DpOT_(ptr noundef nonnull align 8 dereferenceable(24) %24, ptr noundef nonnull align 1 dereferenceable(6) @.str.2, ptr noundef nonnull align 8 dereferenceable(32) %8)
          to label %26 unwind label %62, !dbg !4745

26:                                               ; preds = %23
  %27 = getelementptr inbounds %class.Proof, ptr %11, i32 0, i32 1, !dbg !4746
  %28 = invoke noundef nonnull align 8 dereferenceable(64) ptr @_ZNSt6vectorISt4pairINSt7__cxx1112basic_stringIcSt11char_traitsIcESaIcEEES6_ESaIS7_EE12emplace_backIJRA8_KcRKS6_EEERS7_DpOT_(ptr noundef nonnull align 8 dereferenceable(24) %27, ptr noundef nonnull align 1 dereferenceable(8) @.str.3, ptr noundef nonnull align 8 dereferenceable(32) %9)
          to label %29 unwind label %62, !dbg !4747

29:                                               ; preds = %26
  %30 = getelementptr inbounds %class.Proof, ptr %11, i32 0, i32 1, !dbg !4748
  %31 = invoke noundef nonnull align 8 dereferenceable(64) ptr @_ZNSt6vectorISt4pairINSt7__cxx1112basic_stringIcSt11char_traitsIcESaIcEEES6_ESaIS7_EE12emplace_backIJRA9_KcRKS6_EEERS7_DpOT_(ptr noundef nonnull align 8 dereferenceable(24) %30, ptr noundef nonnull align 1 dereferenceable(9) @.str.4, ptr noundef nonnull align 8 dereferenceable(32) %10)
          to label %32 unwind label %62, !dbg !4749

32:                                               ; preds = %29
  %33 = getelementptr inbounds %class.Proof, ptr %11, i32 0, i32 1, !dbg !4750
  %34 = invoke noundef nonnull align 8 dereferenceable(64) ptr @_ZNSt6vectorISt4pairINSt7__cxx1112basic_stringIcSt11char_traitsIcESaIcEEES6_ESaIS7_EE12emplace_backIJRA9_KcRKS6_EEERS7_DpOT_(ptr noundef nonnull align 8 dereferenceable(24) %33, ptr noundef nonnull align 1 dereferenceable(9) @.str.5, ptr noundef nonnull align 8 dereferenceable(32) %8)
          to label %35 unwind label %62, !dbg !4751

35:                                               ; preds = %32
  %36 = getelementptr inbounds %class.Proof, ptr %11, i32 0, i32 1, !dbg !4752
  %37 = invoke noundef nonnull align 8 dereferenceable(64) ptr @_ZNSt6vectorISt4pairINSt7__cxx1112basic_stringIcSt11char_traitsIcESaIcEEES6_ESaIS7_EE12emplace_backIJRA11_KcRKS6_EEERS7_DpOT_(ptr noundef nonnull align 8 dereferenceable(24) %36, ptr noundef nonnull align 1 dereferenceable(11) @.str.6, ptr noundef nonnull align 8 dereferenceable(32) %9)
          to label %38 unwind label %62, !dbg !4753

38:                                               ; preds = %35
  %39 = getelementptr inbounds %class.Proof, ptr %11, i32 0, i32 1, !dbg !4754
  %40 = invoke noundef nonnull align 8 dereferenceable(64) ptr @_ZNSt6vectorISt4pairINSt7__cxx1112basic_stringIcSt11char_traitsIcESaIcEEES6_ESaIS7_EE12emplace_backIJRA12_KcRKS6_EEERS7_DpOT_(ptr noundef nonnull align 8 dereferenceable(24) %39, ptr noundef nonnull align 1 dereferenceable(12) @.str.7, ptr noundef nonnull align 8 dereferenceable(32) %10)
          to label %41 unwind label %62, !dbg !4755

41:                                               ; preds = %38
  call void @_ZNSt7__cxx1112basic_stringIcSt11char_traitsIcESaIcEED1Ev(ptr noundef nonnull align 8 dereferenceable(32) %10) #3, !dbg !4756
  call void @_ZNSt7__cxx1112basic_stringIcSt11char_traitsIcESaIcEED1Ev(ptr noundef nonnull align 8 dereferenceable(32) %9) #3, !dbg !4756
  call void @_ZNSt7__cxx1112basic_stringIcSt11char_traitsIcESaIcEED1Ev(ptr noundef nonnull align 8 dereferenceable(32) %8) #3, !dbg !4756
  call void @_ZNSt6vectorIhSaIhEED2Ev(ptr noundef nonnull align 8 dereferenceable(24) %7) #3, !dbg !4756
  call void @_ZNSt6vectorIhSaIhEED2Ev(ptr noundef nonnull align 8 dereferenceable(24) %4) #3, !dbg !4756
  call void @_ZNSt6vectorIhSaIhEED2Ev(ptr noundef nonnull align 8 dereferenceable(24) %3) #3, !dbg !4756
  br label %71, !dbg !4757

42:                                               ; preds = %14
  %43 = landingpad { ptr, i32 }
          cleanup, !dbg !4758
  %44 = extractvalue { ptr, i32 } %43, 0, !dbg !4758
  store ptr %44, ptr %5, align 8, !dbg !4758
  %45 = extractvalue { ptr, i32 } %43, 1, !dbg !4758
  store i32 %45, ptr %6, align 4, !dbg !4758
  br label %70, !dbg !4758

46:                                               ; preds = %19
  %47 = landingpad { ptr, i32 }
          cleanup, !dbg !4758
  %48 = extractvalue { ptr, i32 } %47, 0, !dbg !4758
  store ptr %48, ptr %5, align 8, !dbg !4758
  %49 = extractvalue { ptr, i32 } %47, 1, !dbg !4758
  store i32 %49, ptr %6, align 4, !dbg !4758
  br label %69, !dbg !4758

50:                                               ; preds = %20
  %51 = landingpad { ptr, i32 }
          cleanup, !dbg !4758
  %52 = extractvalue { ptr, i32 } %51, 0, !dbg !4758
  store ptr %52, ptr %5, align 8, !dbg !4758
  %53 = extractvalue { ptr, i32 } %51, 1, !dbg !4758
  store i32 %53, ptr %6, align 4, !dbg !4758
  br label %68, !dbg !4758

54:                                               ; preds = %21
  %55 = landingpad { ptr, i32 }
          cleanup, !dbg !4758
  %56 = extractvalue { ptr, i32 } %55, 0, !dbg !4758
  store ptr %56, ptr %5, align 8, !dbg !4758
  %57 = extractvalue { ptr, i32 } %55, 1, !dbg !4758
  store i32 %57, ptr %6, align 4, !dbg !4758
  br label %67, !dbg !4758

58:                                               ; preds = %22
  %59 = landingpad { ptr, i32 }
          cleanup, !dbg !4758
  %60 = extractvalue { ptr, i32 } %59, 0, !dbg !4758
  store ptr %60, ptr %5, align 8, !dbg !4758
  %61 = extractvalue { ptr, i32 } %59, 1, !dbg !4758
  store i32 %61, ptr %6, align 4, !dbg !4758
  br label %66, !dbg !4758

62:                                               ; preds = %38, %35, %32, %29, %26, %23
  %63 = landingpad { ptr, i32 }
          cleanup, !dbg !4758
  %64 = extractvalue { ptr, i32 } %63, 0, !dbg !4758
  store ptr %64, ptr %5, align 8, !dbg !4758
  %65 = extractvalue { ptr, i32 } %63, 1, !dbg !4758
  store i32 %65, ptr %6, align 4, !dbg !4758
  call void @_ZNSt7__cxx1112basic_stringIcSt11char_traitsIcESaIcEED1Ev(ptr noundef nonnull align 8 dereferenceable(32) %10) #3, !dbg !4756
  br label %66, !dbg !4756

66:                                               ; preds = %62, %58
  call void @_ZNSt7__cxx1112basic_stringIcSt11char_traitsIcESaIcEED1Ev(ptr noundef nonnull align 8 dereferenceable(32) %9) #3, !dbg !4756
  br label %67, !dbg !4756

67:                                               ; preds = %66, %54
  call void @_ZNSt7__cxx1112basic_stringIcSt11char_traitsIcESaIcEED1Ev(ptr noundef nonnull align 8 dereferenceable(32) %8) #3, !dbg !4756
  br label %68, !dbg !4756

68:                                               ; preds = %67, %50
  call void @_ZNSt6vectorIhSaIhEED2Ev(ptr noundef nonnull align 8 dereferenceable(24) %7) #3, !dbg !4756
  br label %69, !dbg !4756

69:                                               ; preds = %68, %46
  call void @_ZNSt6vectorIhSaIhEED2Ev(ptr noundef nonnull align 8 dereferenceable(24) %4) #3, !dbg !4756
  br label %70, !dbg !4756

70:                                               ; preds = %69, %42
  call void @_ZNSt6vectorIhSaIhEED2Ev(ptr noundef nonnull align 8 dereferenceable(24) %3) #3, !dbg !4756
  br label %72, !dbg !4756

71:                                               ; preds = %41, %1
  ret void, !dbg !4759

72:                                               ; preds = %70
  %73 = load ptr, ptr %5, align 8, !dbg !4756
  %74 = load i32, ptr %6, align 4, !dbg !4756
  %75 = insertvalue { ptr, i32 } poison, ptr %73, 0, !dbg !4756
  %76 = insertvalue { ptr, i32 } %75, i32 %74, 1, !dbg !4756
  resume { ptr, i32 } %76, !dbg !4756
}

; Function Attrs: mustprogress noinline nounwind uwtable
define linkonce_odr dso_local noundef zeroext i1 @_ZNKSt10unique_ptrIKN4Poco6Crypto6RSAKeyESt14default_deleteIS3_EEcvbEv(ptr noundef nonnull align 8 dereferenceable(8) %0) #7 comdat align 2 !dbg !4760 {
  %2 = alloca ptr, align 8
  store ptr %0, ptr %2, align 8
  call void @llvm.dbg.declare(metadata ptr %2, metadata !4761, metadata !DIExpression()), !dbg !4763
  %3 = load ptr, ptr %2, align 8
  %4 = call noundef ptr @_ZNKSt10unique_ptrIKN4Poco6Crypto6RSAKeyESt14default_deleteIS3_EE3getEv(ptr noundef nonnull align 8 dereferenceable(8) %3) #3, !dbg !4764
  %5 = icmp eq ptr %4, null, !dbg !4765
  %6 = zext i1 %5 to i64, !dbg !4764
  %7 = select i1 %5, i1 false, i1 true, !dbg !4764
  ret i1 %7, !dbg !4766
}

; Function Attrs: mustprogress noinline nounwind uwtable
define linkonce_odr dso_local noundef ptr @_ZNKSt10unique_ptrIKN4Poco6Crypto6RSAKeyESt14default_deleteIS3_EEptEv(ptr noundef nonnull align 8 dereferenceable(8) %0) #7 comdat align 2 !dbg !4767 {
  %2 = alloca ptr, align 8
  store ptr %0, ptr %2, align 8
  call void @llvm.dbg.declare(metadata ptr %2, metadata !4768, metadata !DIExpression()), !dbg !4769
  %3 = load ptr, ptr %2, align 8
  %4 = call noundef ptr @_ZNKSt10unique_ptrIKN4Poco6Crypto6RSAKeyESt14default_deleteIS3_EE3getEv(ptr noundef nonnull align 8 dereferenceable(8) %3) #3, !dbg !4770
  ret ptr %4, !dbg !4771
}

declare void @_ZNK4Poco6Crypto6RSAKey7modulusEv(ptr sret(%"class.std::vector") align 8, ptr noundef nonnull align 8 dereferenceable(16)) #1

declare void @_ZNK4Poco6Crypto6RSAKey18encryptionExponentEv(ptr sret(%"class.std::vector") align 8, ptr noundef nonnull align 8 dereferenceable(16)) #1

; Function Attrs: mustprogress noinline uwtable
define dso_local void @_ZN5Proof12RSA2CapiBlobERKSt6vectorIhSaIhEES4_(ptr noalias sret(%"class.std::vector") align 8 %0, ptr noundef nonnull align 8 dereferenceable(24) %1, ptr noundef nonnull align 8 dereferenceable(24) %2) #5 align 2 personality ptr @__gxx_personality_v0 !dbg !4772 {
  %4 = alloca ptr, align 8
  %5 = alloca ptr, align 8
  %6 = alloca ptr, align 8
  %7 = alloca ptr, align 8
  %8 = alloca i32, align 4
  %9 = alloca %"class.std::vector", align 8
  %10 = alloca %"class.std::allocator", align 1
  %11 = alloca %"class.std::reverse_iterator", align 8
  %12 = alloca %"class.std::reverse_iterator", align 8
  %13 = alloca %"class.__gnu_cxx::__normal_iterator.14", align 8
  %14 = alloca %"class.__gnu_cxx::__normal_iterator.14", align 8
  %15 = alloca i1, align 1
  %16 = alloca %"class.std::initializer_list", align 8
  %17 = alloca [12 x i8], align 1
  %18 = alloca %"class.std::allocator", align 1
  %19 = alloca %"class.std::vector", align 8
  %20 = alloca i32, align 4
  %21 = alloca %"class.__gnu_cxx::__normal_iterator.4", align 8
  %22 = alloca %"class.__gnu_cxx::__normal_iterator.4", align 8
  %23 = alloca %"class.std::back_insert_iterator", align 8
  %24 = alloca %"class.std::back_insert_iterator", align 8
  %25 = alloca %"class.__gnu_cxx::__normal_iterator.14", align 8
  %26 = alloca %"class.__gnu_cxx::__normal_iterator.14", align 8
  %27 = alloca %"class.std::back_insert_iterator", align 8
  %28 = alloca %"class.std::back_insert_iterator", align 8
  %29 = alloca %"class.std::reverse_iterator", align 8
  %30 = alloca %"class.std::reverse_iterator", align 8
  %31 = alloca %"class.std::back_insert_iterator", align 8
  %32 = alloca %"class.std::back_insert_iterator", align 8
  store ptr %0, ptr %4, align 8
  store ptr %1, ptr %5, align 8
  call void @llvm.dbg.declare(metadata ptr %5, metadata !4773, metadata !DIExpression()), !dbg !4774
  store ptr %2, ptr %6, align 8
  call void @llvm.dbg.declare(metadata ptr %6, metadata !4775, metadata !DIExpression()), !dbg !4776
  %33 = load ptr, ptr %6, align 8, !dbg !4777
  %34 = call noundef i64 @_ZNKSt6vectorIhSaIhEE4sizeEv(ptr noundef nonnull align 8 dereferenceable(24) %33) #3, !dbg !4779
  %35 = icmp ugt i64 %34, 4, !dbg !4780
  br i1 %35, label %36, label %43, !dbg !4781

36:                                               ; preds = %3
  %37 = call ptr @__cxa_allocate_exception(i64 16) #3, !dbg !4782
  invoke void @_ZN10ParseErrorCI2St13runtime_errorEPKc(ptr noundef nonnull align 8 dereferenceable(16) %37, ptr noundef @.str.9)
          to label %38 unwind label %39, !dbg !4783

38:                                               ; preds = %36
  call void @__cxa_throw(ptr %37, ptr @_ZTI10ParseError, ptr @_ZN10ParseErrorD2Ev) #16, !dbg !4782
  unreachable, !dbg !4782

39:                                               ; preds = %36
  %40 = landingpad { ptr, i32 }
          cleanup, !dbg !4784
  %41 = extractvalue { ptr, i32 } %40, 0, !dbg !4784
  store ptr %41, ptr %7, align 8, !dbg !4784
  %42 = extractvalue { ptr, i32 } %40, 1, !dbg !4784
  store i32 %42, ptr %8, align 4, !dbg !4784
  call void @__cxa_free_exception(ptr %37) #3, !dbg !4782
  br label %155, !dbg !4782

43:                                               ; preds = %3
  call void @llvm.dbg.declare(metadata ptr %9, metadata !4785, metadata !DIExpression()), !dbg !4786
  call void @_ZNSaIhEC2Ev(ptr noundef nonnull align 1 dereferenceable(1) %10) #3, !dbg !4786
  invoke void @_ZNSt6vectorIhSaIhEEC2EmRKS0_(ptr noundef nonnull align 8 dereferenceable(24) %9, i64 noundef 4, ptr noundef nonnull align 1 dereferenceable(1) %10)
          to label %44 unwind label %131, !dbg !4786

44:                                               ; preds = %43
  call void @_ZNSaIhED2Ev(ptr noundef nonnull align 1 dereferenceable(1) %10) #3, !dbg !4786
  %45 = load ptr, ptr %6, align 8, !dbg !4787
  call void @_ZNKSt6vectorIhSaIhEE6rbeginEv(ptr sret(%"class.std::reverse_iterator") align 8 %11, ptr noundef nonnull align 8 dereferenceable(24) %45) #3, !dbg !4788
  %46 = load ptr, ptr %6, align 8, !dbg !4789
  call void @_ZNKSt6vectorIhSaIhEE4rendEv(ptr sret(%"class.std::reverse_iterator") align 8 %12, ptr noundef nonnull align 8 dereferenceable(24) %46) #3, !dbg !4790
  %47 = call ptr @_ZNSt6vectorIhSaIhEE5beginEv(ptr noundef nonnull align 8 dereferenceable(24) %9) #3, !dbg !4791
  %48 = getelementptr inbounds %"class.__gnu_cxx::__normal_iterator.14", ptr %13, i32 0, i32 0, !dbg !4791
  store ptr %47, ptr %48, align 8, !dbg !4791
  %49 = getelementptr inbounds %"class.__gnu_cxx::__normal_iterator.14", ptr %13, i32 0, i32 0, !dbg !4792
  %50 = load ptr, ptr %49, align 8, !dbg !4792
  %51 = invoke ptr @_ZSt4copyISt16reverse_iteratorIN9__gnu_cxx17__normal_iteratorIPKhSt6vectorIhSaIhEEEEENS2_IPhS7_EEET0_T_SD_SC_(ptr noundef %11, ptr noundef %12, ptr %50)
          to label %52 unwind label %135, !dbg !4792

52:                                               ; preds = %44
  %53 = getelementptr inbounds %"class.__gnu_cxx::__normal_iterator.14", ptr %14, i32 0, i32 0, !dbg !4792
  store ptr %51, ptr %53, align 8, !dbg !4792
  store i1 false, ptr %15, align 1, !dbg !4793
  call void @llvm.dbg.declare(metadata ptr %4, metadata !4794, metadata !DIExpression(DW_OP_deref)), !dbg !4795
  %54 = getelementptr inbounds [12 x i8], ptr %17, i64 0, i64 0, !dbg !4796
  store i8 6, ptr %54, align 1, !dbg !4796
  %55 = getelementptr inbounds i8, ptr %54, i64 1, !dbg !4796
  store i8 2, ptr %55, align 1, !dbg !4796
  %56 = getelementptr inbounds i8, ptr %55, i64 1, !dbg !4796
  store i8 0, ptr %56, align 1, !dbg !4796
  %57 = getelementptr inbounds i8, ptr %56, i64 1, !dbg !4796
  store i8 0, ptr %57, align 1, !dbg !4796
  %58 = getelementptr inbounds i8, ptr %57, i64 1, !dbg !4796
  store i8 0, ptr %58, align 1, !dbg !4796
  %59 = getelementptr inbounds i8, ptr %58, i64 1, !dbg !4796
  store i8 -92, ptr %59, align 1, !dbg !4796
  %60 = getelementptr inbounds i8, ptr %59, i64 1, !dbg !4796
  store i8 0, ptr %60, align 1, !dbg !4796
  %61 = getelementptr inbounds i8, ptr %60, i64 1, !dbg !4796
  store i8 0, ptr %61, align 1, !dbg !4796
  %62 = getelementptr inbounds i8, ptr %61, i64 1, !dbg !4796
  store i8 82, ptr %62, align 1, !dbg !4796
  %63 = getelementptr inbounds i8, ptr %62, i64 1, !dbg !4796
  store i8 83, ptr %63, align 1, !dbg !4796
  %64 = getelementptr inbounds i8, ptr %63, i64 1, !dbg !4796
  store i8 65, ptr %64, align 1, !dbg !4796
  %65 = getelementptr inbounds i8, ptr %64, i64 1, !dbg !4796
  store i8 49, ptr %65, align 1, !dbg !4796
  %66 = getelementptr inbounds %"class.std::initializer_list", ptr %16, i32 0, i32 0, !dbg !4796
  %67 = getelementptr inbounds [12 x i8], ptr %17, i64 0, i64 0, !dbg !4796
  store ptr %67, ptr %66, align 8, !dbg !4796
  %68 = getelementptr inbounds %"class.std::initializer_list", ptr %16, i32 0, i32 1, !dbg !4796
  store i64 12, ptr %68, align 8, !dbg !4796
  call void @_ZNSaIhEC2Ev(ptr noundef nonnull align 1 dereferenceable(1) %18) #3, !dbg !4796
  %69 = getelementptr inbounds { ptr, i64 }, ptr %16, i32 0, i32 0, !dbg !4796
  %70 = load ptr, ptr %69, align 8, !dbg !4796
  %71 = getelementptr inbounds { ptr, i64 }, ptr %16, i32 0, i32 1, !dbg !4796
  %72 = load i64, ptr %71, align 8, !dbg !4796
  invoke void @_ZNSt6vectorIhSaIhEEC2ESt16initializer_listIhERKS0_(ptr noundef nonnull align 8 dereferenceable(24) %0, ptr %70, i64 %72, ptr noundef nonnull align 1 dereferenceable(1) %18)
          to label %73 unwind label %139, !dbg !4796

73:                                               ; preds = %52
  call void @_ZNSaIhED2Ev(ptr noundef nonnull align 1 dereferenceable(1) %18) #3, !dbg !4796
  call void @llvm.dbg.declare(metadata ptr %19, metadata !4797, metadata !DIExpression()), !dbg !4798
  %74 = load ptr, ptr %5, align 8, !dbg !4799
  %75 = call noundef i64 @_ZNKSt6vectorIhSaIhEE4sizeEv(ptr noundef nonnull align 8 dereferenceable(24) %74) #3, !dbg !4800
  %76 = mul i64 %75, 8, !dbg !4801
  %77 = trunc i64 %76 to i32, !dbg !4799
  store i32 %77, ptr %20, align 4, !dbg !4799
  invoke void @_ZN12_GLOBAL__N_19ToLEBytesIjEESt6vectorIhSaIhEERKT_(ptr sret(%"class.std::vector") align 8 %19, ptr noundef nonnull align 4 dereferenceable(4) %20)
          to label %78 unwind label %143, !dbg !4802

78:                                               ; preds = %73
  %79 = call noundef i64 @_ZNKSt6vectorIhSaIhEE4sizeEv(ptr noundef nonnull align 8 dereferenceable(24) %0) #3, !dbg !4803
  %80 = call noundef i64 @_ZNKSt6vectorIhSaIhEE4sizeEv(ptr noundef nonnull align 8 dereferenceable(24) %19) #3, !dbg !4804
  %81 = add i64 %79, %80, !dbg !4805
  %82 = call noundef i64 @_ZNKSt6vectorIhSaIhEE4sizeEv(ptr noundef nonnull align 8 dereferenceable(24) %9) #3, !dbg !4806
  %83 = add i64 %81, %82, !dbg !4807
  %84 = load ptr, ptr %5, align 8, !dbg !4808
  %85 = call noundef i64 @_ZNKSt6vectorIhSaIhEE4sizeEv(ptr noundef nonnull align 8 dereferenceable(24) %84) #3, !dbg !4809
  %86 = add i64 %83, %85, !dbg !4810
  invoke void @_ZNSt6vectorIhSaIhEE7reserveEm(ptr noundef nonnull align 8 dereferenceable(24) %0, i64 noundef %86)
          to label %87 unwind label %147, !dbg !4811

87:                                               ; preds = %78
  %88 = call ptr @_ZNKSt6vectorIhSaIhEE5beginEv(ptr noundef nonnull align 8 dereferenceable(24) %19) #3, !dbg !4812
  %89 = getelementptr inbounds %"class.__gnu_cxx::__normal_iterator.4", ptr %21, i32 0, i32 0, !dbg !4812
  store ptr %88, ptr %89, align 8, !dbg !4812
  %90 = call ptr @_ZNKSt6vectorIhSaIhEE3endEv(ptr noundef nonnull align 8 dereferenceable(24) %19) #3, !dbg !4813
  %91 = getelementptr inbounds %"class.__gnu_cxx::__normal_iterator.4", ptr %22, i32 0, i32 0, !dbg !4813
  store ptr %90, ptr %91, align 8, !dbg !4813
  %92 = invoke ptr @_ZSt13back_inserterISt6vectorIhSaIhEEESt20back_insert_iteratorIT_ERS4_(ptr noundef nonnull align 8 dereferenceable(24) %0)
          to label %93 unwind label %147, !dbg !4814

93:                                               ; preds = %87
  %94 = getelementptr inbounds %"class.std::back_insert_iterator", ptr %23, i32 0, i32 0, !dbg !4814
  store ptr %92, ptr %94, align 8, !dbg !4814
  %95 = getelementptr inbounds %"class.__gnu_cxx::__normal_iterator.4", ptr %21, i32 0, i32 0, !dbg !4815
  %96 = load ptr, ptr %95, align 8, !dbg !4815
  %97 = getelementptr inbounds %"class.__gnu_cxx::__normal_iterator.4", ptr %22, i32 0, i32 0, !dbg !4815
  %98 = load ptr, ptr %97, align 8, !dbg !4815
  %99 = getelementptr inbounds %"class.std::back_insert_iterator", ptr %23, i32 0, i32 0, !dbg !4815
  %100 = load ptr, ptr %99, align 8, !dbg !4815
  %101 = invoke ptr @_ZSt4copyIN9__gnu_cxx17__normal_iteratorIPKhSt6vectorIhSaIhEEEESt20back_insert_iteratorIS6_EET0_T_SB_SA_(ptr %96, ptr %98, ptr %100)
          to label %102 unwind label %147, !dbg !4815

102:                                              ; preds = %93
  %103 = getelementptr inbounds %"class.std::back_insert_iterator", ptr %24, i32 0, i32 0, !dbg !4815
  store ptr %101, ptr %103, align 8, !dbg !4815
  %104 = call ptr @_ZNSt6vectorIhSaIhEE5beginEv(ptr noundef nonnull align 8 dereferenceable(24) %9) #3, !dbg !4816
  %105 = getelementptr inbounds %"class.__gnu_cxx::__normal_iterator.14", ptr %25, i32 0, i32 0, !dbg !4816
  store ptr %104, ptr %105, align 8, !dbg !4816
  %106 = call ptr @_ZNSt6vectorIhSaIhEE3endEv(ptr noundef nonnull align 8 dereferenceable(24) %9) #3, !dbg !4817
  %107 = getelementptr inbounds %"class.__gnu_cxx::__normal_iterator.14", ptr %26, i32 0, i32 0, !dbg !4817
  store ptr %106, ptr %107, align 8, !dbg !4817
  %108 = invoke ptr @_ZSt13back_inserterISt6vectorIhSaIhEEESt20back_insert_iteratorIT_ERS4_(ptr noundef nonnull align 8 dereferenceable(24) %0)
          to label %109 unwind label %147, !dbg !4818

109:                                              ; preds = %102
  %110 = getelementptr inbounds %"class.std::back_insert_iterator", ptr %27, i32 0, i32 0, !dbg !4818
  store ptr %108, ptr %110, align 8, !dbg !4818
  %111 = getelementptr inbounds %"class.__gnu_cxx::__normal_iterator.14", ptr %25, i32 0, i32 0, !dbg !4819
  %112 = load ptr, ptr %111, align 8, !dbg !4819
  %113 = getelementptr inbounds %"class.__gnu_cxx::__normal_iterator.14", ptr %26, i32 0, i32 0, !dbg !4819
  %114 = load ptr, ptr %113, align 8, !dbg !4819
  %115 = getelementptr inbounds %"class.std::back_insert_iterator", ptr %27, i32 0, i32 0, !dbg !4819
  %116 = load ptr, ptr %115, align 8, !dbg !4819
  %117 = invoke ptr @_ZSt4copyIN9__gnu_cxx17__normal_iteratorIPhSt6vectorIhSaIhEEEESt20back_insert_iteratorIS5_EET0_T_SA_S9_(ptr %112, ptr %114, ptr %116)
          to label %118 unwind label %147, !dbg !4819

118:                                              ; preds = %109
  %119 = getelementptr inbounds %"class.std::back_insert_iterator", ptr %28, i32 0, i32 0, !dbg !4819
  store ptr %117, ptr %119, align 8, !dbg !4819
  %120 = load ptr, ptr %5, align 8, !dbg !4820
  call void @_ZNKSt6vectorIhSaIhEE6rbeginEv(ptr sret(%"class.std::reverse_iterator") align 8 %29, ptr noundef nonnull align 8 dereferenceable(24) %120) #3, !dbg !4821
  %121 = load ptr, ptr %5, align 8, !dbg !4822
  call void @_ZNKSt6vectorIhSaIhEE4rendEv(ptr sret(%"class.std::reverse_iterator") align 8 %30, ptr noundef nonnull align 8 dereferenceable(24) %121) #3, !dbg !4823
  %122 = invoke ptr @_ZSt13back_inserterISt6vectorIhSaIhEEESt20back_insert_iteratorIT_ERS4_(ptr noundef nonnull align 8 dereferenceable(24) %0)
          to label %123 unwind label %147, !dbg !4824

123:                                              ; preds = %118
  %124 = getelementptr inbounds %"class.std::back_insert_iterator", ptr %31, i32 0, i32 0, !dbg !4824
  store ptr %122, ptr %124, align 8, !dbg !4824
  %125 = getelementptr inbounds %"class.std::back_insert_iterator", ptr %31, i32 0, i32 0, !dbg !4825
  %126 = load ptr, ptr %125, align 8, !dbg !4825
  %127 = invoke ptr @_ZSt4copyISt16reverse_iteratorIN9__gnu_cxx17__normal_iteratorIPKhSt6vectorIhSaIhEEEEESt20back_insert_iteratorIS7_EET0_T_SD_SC_(ptr noundef %29, ptr noundef %30, ptr %126)
          to label %128 unwind label %147, !dbg !4825

128:                                              ; preds = %123
  %129 = getelementptr inbounds %"class.std::back_insert_iterator", ptr %32, i32 0, i32 0, !dbg !4825
  store ptr %127, ptr %129, align 8, !dbg !4825
  store i1 true, ptr %15, align 1, !dbg !4826
  call void @_ZNSt6vectorIhSaIhEED2Ev(ptr noundef nonnull align 8 dereferenceable(24) %19) #3, !dbg !4827
  %130 = load i1, ptr %15, align 1, !dbg !4827
  br i1 %130, label %152, label %151, !dbg !4827

131:                                              ; preds = %43
  %132 = landingpad { ptr, i32 }
          cleanup, !dbg !4827
  %133 = extractvalue { ptr, i32 } %132, 0, !dbg !4827
  store ptr %133, ptr %7, align 8, !dbg !4827
  %134 = extractvalue { ptr, i32 } %132, 1, !dbg !4827
  store i32 %134, ptr %8, align 4, !dbg !4827
  call void @_ZNSaIhED2Ev(ptr noundef nonnull align 1 dereferenceable(1) %10) #3, !dbg !4786
  br label %155, !dbg !4786

135:                                              ; preds = %44
  %136 = landingpad { ptr, i32 }
          cleanup, !dbg !4827
  %137 = extractvalue { ptr, i32 } %136, 0, !dbg !4827
  store ptr %137, ptr %7, align 8, !dbg !4827
  %138 = extractvalue { ptr, i32 } %136, 1, !dbg !4827
  store i32 %138, ptr %8, align 4, !dbg !4827
  br label %154, !dbg !4827

139:                                              ; preds = %52
  %140 = landingpad { ptr, i32 }
          cleanup, !dbg !4827
  %141 = extractvalue { ptr, i32 } %140, 0, !dbg !4827
  store ptr %141, ptr %7, align 8, !dbg !4827
  %142 = extractvalue { ptr, i32 } %140, 1, !dbg !4827
  store i32 %142, ptr %8, align 4, !dbg !4827
  call void @_ZNSaIhED2Ev(ptr noundef nonnull align 1 dereferenceable(1) %18) #3, !dbg !4796
  br label %154, !dbg !4796

143:                                              ; preds = %73
  %144 = landingpad { ptr, i32 }
          cleanup, !dbg !4827
  %145 = extractvalue { ptr, i32 } %144, 0, !dbg !4827
  store ptr %145, ptr %7, align 8, !dbg !4827
  %146 = extractvalue { ptr, i32 } %144, 1, !dbg !4827
  store i32 %146, ptr %8, align 4, !dbg !4827
  br label %153, !dbg !4827

147:                                              ; preds = %123, %118, %109, %102, %93, %87, %78
  %148 = landingpad { ptr, i32 }
          cleanup, !dbg !4827
  %149 = extractvalue { ptr, i32 } %148, 0, !dbg !4827
  store ptr %149, ptr %7, align 8, !dbg !4827
  %150 = extractvalue { ptr, i32 } %148, 1, !dbg !4827
  store i32 %150, ptr %8, align 4, !dbg !4827
  call void @_ZNSt6vectorIhSaIhEED2Ev(ptr noundef nonnull align 8 dereferenceable(24) %19) #3, !dbg !4827
  br label %153, !dbg !4827

151:                                              ; preds = %128
  call void @_ZNSt6vectorIhSaIhEED2Ev(ptr noundef nonnull align 8 dereferenceable(24) %0) #3, !dbg !4827
  br label %152, !dbg !4827

152:                                              ; preds = %151, %128
  call void @_ZNSt6vectorIhSaIhEED2Ev(ptr noundef nonnull align 8 dereferenceable(24) %9) #3, !dbg !4827
  ret void, !dbg !4827

153:                                              ; preds = %147, %143
  call void @_ZNSt6vectorIhSaIhEED2Ev(ptr noundef nonnull align 8 dereferenceable(24) %0) #3, !dbg !4827
  br label %154, !dbg !4827

154:                                              ; preds = %153, %139, %135
  call void @_ZNSt6vectorIhSaIhEED2Ev(ptr noundef nonnull align 8 dereferenceable(24) %9) #3, !dbg !4827
  br label %155, !dbg !4827

155:                                              ; preds = %154, %131, %39
  %156 = load ptr, ptr %7, align 8, !dbg !4782
  %157 = load i32, ptr %8, align 4, !dbg !4782
  %158 = insertvalue { ptr, i32 } poison, ptr %156, 0, !dbg !4782
  %159 = insertvalue { ptr, i32 } %158, i32 %157, 1, !dbg !4782
  resume { ptr, i32 } %159, !dbg !4782
}

; Function Attrs: mustprogress noinline uwtable
define linkonce_odr dso_local noundef nonnull align 8 dereferenceable(64) ptr @_ZNSt6vectorISt4pairINSt7__cxx1112basic_stringIcSt11char_traitsIcESaIcEEES6_ESaIS7_EE12emplace_backIJRA6_KcRKS6_EEERS7_DpOT_(ptr noundef nonnull align 8 dereferenceable(24) %0, ptr noundef nonnull align 1 dereferenceable(6) %1, ptr noundef nonnull align 8 dereferenceable(32) %2) #5 comdat align 2 !dbg !4828 {
  %4 = alloca ptr, align 8
  %5 = alloca ptr, align 8
  %6 = alloca ptr, align 8
  %7 = alloca %"class.__gnu_cxx::__normal_iterator.23", align 8
  store ptr %0, ptr %4, align 8
  call void @llvm.dbg.declare(metadata ptr %4, metadata !4840, metadata !DIExpression()), !dbg !4842
  store ptr %1, ptr %5, align 8
  call void @llvm.dbg.declare(metadata ptr %5, metadata !4843, metadata !DIExpression()), !dbg !4844
  store ptr %2, ptr %6, align 8
  call void @llvm.dbg.declare(metadata ptr %6, metadata !4845, metadata !DIExpression()), !dbg !4844
  %8 = load ptr, ptr %4, align 8
  %9 = getelementptr inbounds %"struct.std::_Vector_base.9", ptr %8, i32 0, i32 0, !dbg !4846
  %10 = getelementptr inbounds %"struct.std::_Vector_base<std::pair<std::__cxx11::basic_string<char>, std::__cxx11::basic_string<char>>, std::allocator<std::pair<std::__cxx11::basic_string<char>, std::__cxx11::basic_string<char>>>>::_Vector_impl_data", ptr %9, i32 0, i32 1, !dbg !4848
  %11 = load ptr, ptr %10, align 8, !dbg !4848
  %12 = getelementptr inbounds %"struct.std::_Vector_base.9", ptr %8, i32 0, i32 0, !dbg !4849
  %13 = getelementptr inbounds %"struct.std::_Vector_base<std::pair<std::__cxx11::basic_string<char>, std::__cxx11::basic_string<char>>, std::allocator<std::pair<std::__cxx11::basic_string<char>, std::__cxx11::basic_string<char>>>>::_Vector_impl_data", ptr %12, i32 0, i32 2, !dbg !4850
  %14 = load ptr, ptr %13, align 8, !dbg !4850
  %15 = icmp ne ptr %11, %14, !dbg !4851
  br i1 %15, label %16, label %27, !dbg !4852

16:                                               ; preds = %3
  %17 = getelementptr inbounds %"struct.std::_Vector_base.9", ptr %8, i32 0, i32 0, !dbg !4853
  %18 = getelementptr inbounds %"struct.std::_Vector_base.9", ptr %8, i32 0, i32 0, !dbg !4855
  %19 = getelementptr inbounds %"struct.std::_Vector_base<std::pair<std::__cxx11::basic_string<char>, std::__cxx11::basic_string<char>>, std::allocator<std::pair<std::__cxx11::basic_string<char>, std::__cxx11::basic_string<char>>>>::_Vector_impl_data", ptr %18, i32 0, i32 1, !dbg !4856
  %20 = load ptr, ptr %19, align 8, !dbg !4856
  %21 = load ptr, ptr %5, align 8, !dbg !4857
  %22 = load ptr, ptr %6, align 8, !dbg !4857
  call void @_ZNSt16allocator_traitsISaISt4pairINSt7__cxx1112basic_stringIcSt11char_traitsIcESaIcEEES6_EEE9constructIS7_JRA6_KcRKS6_EEEvRS8_PT_DpOT0_(ptr noundef nonnull align 1 dereferenceable(1) %17, ptr noundef %20, ptr noundef nonnull align 1 dereferenceable(6) %21, ptr noundef nonnull align 8 dereferenceable(32) %22), !dbg !4858
  %23 = getelementptr inbounds %"struct.std::_Vector_base.9", ptr %8, i32 0, i32 0, !dbg !4859
  %24 = getelementptr inbounds %"struct.std::_Vector_base<std::pair<std::__cxx11::basic_string<char>, std::__cxx11::basic_string<char>>, std::allocator<std::pair<std::__cxx11::basic_string<char>, std::__cxx11::basic_string<char>>>>::_Vector_impl_data", ptr %23, i32 0, i32 1, !dbg !4860
  %25 = load ptr, ptr %24, align 8, !dbg !4861
  %26 = getelementptr inbounds %"struct.std::pair", ptr %25, i32 1, !dbg !4861
  store ptr %26, ptr %24, align 8, !dbg !4861
  br label %34, !dbg !4862

27:                                               ; preds = %3
  %28 = call ptr @_ZNSt6vectorISt4pairINSt7__cxx1112basic_stringIcSt11char_traitsIcESaIcEEES6_ESaIS7_EE3endEv(ptr noundef nonnull align 8 dereferenceable(24) %8) #3, !dbg !4863
  %29 = getelementptr inbounds %"class.__gnu_cxx::__normal_iterator.23", ptr %7, i32 0, i32 0, !dbg !4863
  store ptr %28, ptr %29, align 8, !dbg !4863
  %30 = load ptr, ptr %5, align 8, !dbg !4864
  %31 = load ptr, ptr %6, align 8, !dbg !4864
  %32 = getelementptr inbounds %"class.__gnu_cxx::__normal_iterator.23", ptr %7, i32 0, i32 0, !dbg !4865
  %33 = load ptr, ptr %32, align 8, !dbg !4865
  call void @_ZNSt6vectorISt4pairINSt7__cxx1112basic_stringIcSt11char_traitsIcESaIcEEES6_ESaIS7_EE17_M_realloc_insertIJRA6_KcRKS6_EEEvN9__gnu_cxx17__normal_iteratorIPS7_S9_EEDpOT_(ptr noundef nonnull align 8 dereferenceable(24) %8, ptr %33, ptr noundef nonnull align 1 dereferenceable(6) %30, ptr noundef nonnull align 8 dereferenceable(32) %31), !dbg !4865
  br label %34

34:                                               ; preds = %27, %16
  %35 = call noundef nonnull align 8 dereferenceable(64) ptr @_ZNSt6vectorISt4pairINSt7__cxx1112basic_stringIcSt11char_traitsIcESaIcEEES6_ESaIS7_EE4backEv(ptr noundef nonnull align 8 dereferenceable(24) %8) #3, !dbg !4866
  ret ptr %35, !dbg !4867
}

; Function Attrs: mustprogress noinline uwtable
define linkonce_odr dso_local noundef nonnull align 8 dereferenceable(64) ptr @_ZNSt6vectorISt4pairINSt7__cxx1112basic_stringIcSt11char_traitsIcESaIcEEES6_ESaIS7_EE12emplace_backIJRA8_KcRKS6_EEERS7_DpOT_(ptr noundef nonnull align 8 dereferenceable(24) %0, ptr noundef nonnull align 1 dereferenceable(8) %1, ptr noundef nonnull align 8 dereferenceable(32) %2) #5 comdat align 2 !dbg !4868 {
  %4 = alloca ptr, align 8
  %5 = alloca ptr, align 8
  %6 = alloca ptr, align 8
  %7 = alloca %"class.__gnu_cxx::__normal_iterator.23", align 8
  store ptr %0, ptr %4, align 8
  call void @llvm.dbg.declare(metadata ptr %4, metadata !4879, metadata !DIExpression()), !dbg !4880
  store ptr %1, ptr %5, align 8
  call void @llvm.dbg.declare(metadata ptr %5, metadata !4881, metadata !DIExpression()), !dbg !4882
  store ptr %2, ptr %6, align 8
  call void @llvm.dbg.declare(metadata ptr %6, metadata !4883, metadata !DIExpression()), !dbg !4882
  %8 = load ptr, ptr %4, align 8
  %9 = getelementptr inbounds %"struct.std::_Vector_base.9", ptr %8, i32 0, i32 0, !dbg !4884
  %10 = getelementptr inbounds %"struct.std::_Vector_base<std::pair<std::__cxx11::basic_string<char>, std::__cxx11::basic_string<char>>, std::allocator<std::pair<std::__cxx11::basic_string<char>, std::__cxx11::basic_string<char>>>>::_Vector_impl_data", ptr %9, i32 0, i32 1, !dbg !4886
  %11 = load ptr, ptr %10, align 8, !dbg !4886
  %12 = getelementptr inbounds %"struct.std::_Vector_base.9", ptr %8, i32 0, i32 0, !dbg !4887
  %13 = getelementptr inbounds %"struct.std::_Vector_base<std::pair<std::__cxx11::basic_string<char>, std::__cxx11::basic_string<char>>, std::allocator<std::pair<std::__cxx11::basic_string<char>, std::__cxx11::basic_string<char>>>>::_Vector_impl_data", ptr %12, i32 0, i32 2, !dbg !4888
  %14 = load ptr, ptr %13, align 8, !dbg !4888
  %15 = icmp ne ptr %11, %14, !dbg !4889
  br i1 %15, label %16, label %27, !dbg !4890

16:                                               ; preds = %3
  %17 = getelementptr inbounds %"struct.std::_Vector_base.9", ptr %8, i32 0, i32 0, !dbg !4891
  %18 = getelementptr inbounds %"struct.std::_Vector_base.9", ptr %8, i32 0, i32 0, !dbg !4893
  %19 = getelementptr inbounds %"struct.std::_Vector_base<std::pair<std::__cxx11::basic_string<char>, std::__cxx11::basic_string<char>>, std::allocator<std::pair<std::__cxx11::basic_string<char>, std::__cxx11::basic_string<char>>>>::_Vector_impl_data", ptr %18, i32 0, i32 1, !dbg !4894
  %20 = load ptr, ptr %19, align 8, !dbg !4894
  %21 = load ptr, ptr %5, align 8, !dbg !4895
  %22 = load ptr, ptr %6, align 8, !dbg !4895
  call void @_ZNSt16allocator_traitsISaISt4pairINSt7__cxx1112basic_stringIcSt11char_traitsIcESaIcEEES6_EEE9constructIS7_JRA8_KcRKS6_EEEvRS8_PT_DpOT0_(ptr noundef nonnull align 1 dereferenceable(1) %17, ptr noundef %20, ptr noundef nonnull align 1 dereferenceable(8) %21, ptr noundef nonnull align 8 dereferenceable(32) %22), !dbg !4896
  %23 = getelementptr inbounds %"struct.std::_Vector_base.9", ptr %8, i32 0, i32 0, !dbg !4897
  %24 = getelementptr inbounds %"struct.std::_Vector_base<std::pair<std::__cxx11::basic_string<char>, std::__cxx11::basic_string<char>>, std::allocator<std::pair<std::__cxx11::basic_string<char>, std::__cxx11::basic_string<char>>>>::_Vector_impl_data", ptr %23, i32 0, i32 1, !dbg !4898
  %25 = load ptr, ptr %24, align 8, !dbg !4899
  %26 = getelementptr inbounds %"struct.std::pair", ptr %25, i32 1, !dbg !4899
  store ptr %26, ptr %24, align 8, !dbg !4899
  br label %34, !dbg !4900

27:                                               ; preds = %3
  %28 = call ptr @_ZNSt6vectorISt4pairINSt7__cxx1112basic_stringIcSt11char_traitsIcESaIcEEES6_ESaIS7_EE3endEv(ptr noundef nonnull align 8 dereferenceable(24) %8) #3, !dbg !4901
  %29 = getelementptr inbounds %"class.__gnu_cxx::__normal_iterator.23", ptr %7, i32 0, i32 0, !dbg !4901
  store ptr %28, ptr %29, align 8, !dbg !4901
  %30 = load ptr, ptr %5, align 8, !dbg !4902
  %31 = load ptr, ptr %6, align 8, !dbg !4902
  %32 = getelementptr inbounds %"class.__gnu_cxx::__normal_iterator.23", ptr %7, i32 0, i32 0, !dbg !4903
  %33 = load ptr, ptr %32, align 8, !dbg !4903
  call void @_ZNSt6vectorISt4pairINSt7__cxx1112basic_stringIcSt11char_traitsIcESaIcEEES6_ESaIS7_EE17_M_realloc_insertIJRA8_KcRKS6_EEEvN9__gnu_cxx17__normal_iteratorIPS7_S9_EEDpOT_(ptr noundef nonnull align 8 dereferenceable(24) %8, ptr %33, ptr noundef nonnull align 1 dereferenceable(8) %30, ptr noundef nonnull align 8 dereferenceable(32) %31), !dbg !4903
  br label %34

34:                                               ; preds = %27, %16
  %35 = call noundef nonnull align 8 dereferenceable(64) ptr @_ZNSt6vectorISt4pairINSt7__cxx1112basic_stringIcSt11char_traitsIcESaIcEEES6_ESaIS7_EE4backEv(ptr noundef nonnull align 8 dereferenceable(24) %8) #3, !dbg !4904
  ret ptr %35, !dbg !4905
}

; Function Attrs: mustprogress noinline uwtable
define linkonce_odr dso_local noundef nonnull align 8 dereferenceable(64) ptr @_ZNSt6vectorISt4pairINSt7__cxx1112basic_stringIcSt11char_traitsIcESaIcEEES6_ESaIS7_EE12emplace_backIJRA9_KcRKS6_EEERS7_DpOT_(ptr noundef nonnull align 8 dereferenceable(24) %0, ptr noundef nonnull align 1 dereferenceable(9) %1, ptr noundef nonnull align 8 dereferenceable(32) %2) #5 comdat align 2 !dbg !4906 {
  %4 = alloca ptr, align 8
  %5 = alloca ptr, align 8
  %6 = alloca ptr, align 8
  %7 = alloca %"class.__gnu_cxx::__normal_iterator.23", align 8
  store ptr %0, ptr %4, align 8
  call void @llvm.dbg.declare(metadata ptr %4, metadata !4917, metadata !DIExpression()), !dbg !4918
  store ptr %1, ptr %5, align 8
  call void @llvm.dbg.declare(metadata ptr %5, metadata !4919, metadata !DIExpression()), !dbg !4920
  store ptr %2, ptr %6, align 8
  call void @llvm.dbg.declare(metadata ptr %6, metadata !4921, metadata !DIExpression()), !dbg !4920
  %8 = load ptr, ptr %4, align 8
  %9 = getelementptr inbounds %"struct.std::_Vector_base.9", ptr %8, i32 0, i32 0, !dbg !4922
  %10 = getelementptr inbounds %"struct.std::_Vector_base<std::pair<std::__cxx11::basic_string<char>, std::__cxx11::basic_string<char>>, std::allocator<std::pair<std::__cxx11::basic_string<char>, std::__cxx11::basic_string<char>>>>::_Vector_impl_data", ptr %9, i32 0, i32 1, !dbg !4924
  %11 = load ptr, ptr %10, align 8, !dbg !4924
  %12 = getelementptr inbounds %"struct.std::_Vector_base.9", ptr %8, i32 0, i32 0, !dbg !4925
  %13 = getelementptr inbounds %"struct.std::_Vector_base<std::pair<std::__cxx11::basic_string<char>, std::__cxx11::basic_string<char>>, std::allocator<std::pair<std::__cxx11::basic_string<char>, std::__cxx11::basic_string<char>>>>::_Vector_impl_data", ptr %12, i32 0, i32 2, !dbg !4926
  %14 = load ptr, ptr %13, align 8, !dbg !4926
  %15 = icmp ne ptr %11, %14, !dbg !4927
  br i1 %15, label %16, label %27, !dbg !4928

16:                                               ; preds = %3
  %17 = getelementptr inbounds %"struct.std::_Vector_base.9", ptr %8, i32 0, i32 0, !dbg !4929
  %18 = getelementptr inbounds %"struct.std::_Vector_base.9", ptr %8, i32 0, i32 0, !dbg !4931
  %19 = getelementptr inbounds %"struct.std::_Vector_base<std::pair<std::__cxx11::basic_string<char>, std::__cxx11::basic_string<char>>, std::allocator<std::pair<std::__cxx11::basic_string<char>, std::__cxx11::basic_string<char>>>>::_Vector_impl_data", ptr %18, i32 0, i32 1, !dbg !4932
  %20 = load ptr, ptr %19, align 8, !dbg !4932
  %21 = load ptr, ptr %5, align 8, !dbg !4933
  %22 = load ptr, ptr %6, align 8, !dbg !4933
  call void @_ZNSt16allocator_traitsISaISt4pairINSt7__cxx1112basic_stringIcSt11char_traitsIcESaIcEEES6_EEE9constructIS7_JRA9_KcRKS6_EEEvRS8_PT_DpOT0_(ptr noundef nonnull align 1 dereferenceable(1) %17, ptr noundef %20, ptr noundef nonnull align 1 dereferenceable(9) %21, ptr noundef nonnull align 8 dereferenceable(32) %22), !dbg !4934
  %23 = getelementptr inbounds %"struct.std::_Vector_base.9", ptr %8, i32 0, i32 0, !dbg !4935
  %24 = getelementptr inbounds %"struct.std::_Vector_base<std::pair<std::__cxx11::basic_string<char>, std::__cxx11::basic_string<char>>, std::allocator<std::pair<std::__cxx11::basic_string<char>, std::__cxx11::basic_string<char>>>>::_Vector_impl_data", ptr %23, i32 0, i32 1, !dbg !4936
  %25 = load ptr, ptr %24, align 8, !dbg !4937
  %26 = getelementptr inbounds %"struct.std::pair", ptr %25, i32 1, !dbg !4937
  store ptr %26, ptr %24, align 8, !dbg !4937
  br label %34, !dbg !4938

27:                                               ; preds = %3
  %28 = call ptr @_ZNSt6vectorISt4pairINSt7__cxx1112basic_stringIcSt11char_traitsIcESaIcEEES6_ESaIS7_EE3endEv(ptr noundef nonnull align 8 dereferenceable(24) %8) #3, !dbg !4939
  %29 = getelementptr inbounds %"class.__gnu_cxx::__normal_iterator.23", ptr %7, i32 0, i32 0, !dbg !4939
  store ptr %28, ptr %29, align 8, !dbg !4939
  %30 = load ptr, ptr %5, align 8, !dbg !4940
  %31 = load ptr, ptr %6, align 8, !dbg !4940
  %32 = getelementptr inbounds %"class.__gnu_cxx::__normal_iterator.23", ptr %7, i32 0, i32 0, !dbg !4941
  %33 = load ptr, ptr %32, align 8, !dbg !4941
  call void @_ZNSt6vectorISt4pairINSt7__cxx1112basic_stringIcSt11char_traitsIcESaIcEEES6_ESaIS7_EE17_M_realloc_insertIJRA9_KcRKS6_EEEvN9__gnu_cxx17__normal_iteratorIPS7_S9_EEDpOT_(ptr noundef nonnull align 8 dereferenceable(24) %8, ptr %33, ptr noundef nonnull align 1 dereferenceable(9) %30, ptr noundef nonnull align 8 dereferenceable(32) %31), !dbg !4941
  br label %34

34:                                               ; preds = %27, %16
  %35 = call noundef nonnull align 8 dereferenceable(64) ptr @_ZNSt6vectorISt4pairINSt7__cxx1112basic_stringIcSt11char_traitsIcESaIcEEES6_ESaIS7_EE4backEv(ptr noundef nonnull align 8 dereferenceable(24) %8) #3, !dbg !4942
  ret ptr %35, !dbg !4943
}

; Function Attrs: mustprogress noinline uwtable
define linkonce_odr dso_local noundef nonnull align 8 dereferenceable(64) ptr @_ZNSt6vectorISt4pairINSt7__cxx1112basic_stringIcSt11char_traitsIcESaIcEEES6_ESaIS7_EE12emplace_backIJRA11_KcRKS6_EEERS7_DpOT_(ptr noundef nonnull align 8 dereferenceable(24) %0, ptr noundef nonnull align 1 dereferenceable(11) %1, ptr noundef nonnull align 8 dereferenceable(32) %2) #5 comdat align 2 !dbg !4944 {
  %4 = alloca ptr, align 8
  %5 = alloca ptr, align 8
  %6 = alloca ptr, align 8
  %7 = alloca %"class.__gnu_cxx::__normal_iterator.23", align 8
  store ptr %0, ptr %4, align 8
  call void @llvm.dbg.declare(metadata ptr %4, metadata !4955, metadata !DIExpression()), !dbg !4956
  store ptr %1, ptr %5, align 8
  call void @llvm.dbg.declare(metadata ptr %5, metadata !4957, metadata !DIExpression()), !dbg !4958
  store ptr %2, ptr %6, align 8
  call void @llvm.dbg.declare(metadata ptr %6, metadata !4959, metadata !DIExpression()), !dbg !4958
  %8 = load ptr, ptr %4, align 8
  %9 = getelementptr inbounds %"struct.std::_Vector_base.9", ptr %8, i32 0, i32 0, !dbg !4960
  %10 = getelementptr inbounds %"struct.std::_Vector_base<std::pair<std::__cxx11::basic_string<char>, std::__cxx11::basic_string<char>>, std::allocator<std::pair<std::__cxx11::basic_string<char>, std::__cxx11::basic_string<char>>>>::_Vector_impl_data", ptr %9, i32 0, i32 1, !dbg !4962
  %11 = load ptr, ptr %10, align 8, !dbg !4962
  %12 = getelementptr inbounds %"struct.std::_Vector_base.9", ptr %8, i32 0, i32 0, !dbg !4963
  %13 = getelementptr inbounds %"struct.std::_Vector_base<std::pair<std::__cxx11::basic_string<char>, std::__cxx11::basic_string<char>>, std::allocator<std::pair<std::__cxx11::basic_string<char>, std::__cxx11::basic_string<char>>>>::_Vector_impl_data", ptr %12, i32 0, i32 2, !dbg !4964
  %14 = load ptr, ptr %13, align 8, !dbg !4964
  %15 = icmp ne ptr %11, %14, !dbg !4965
  br i1 %15, label %16, label %27, !dbg !4966

16:                                               ; preds = %3
  %17 = getelementptr inbounds %"struct.std::_Vector_base.9", ptr %8, i32 0, i32 0, !dbg !4967
  %18 = getelementptr inbounds %"struct.std::_Vector_base.9", ptr %8, i32 0, i32 0, !dbg !4969
  %19 = getelementptr inbounds %"struct.std::_Vector_base<std::pair<std::__cxx11::basic_string<char>, std::__cxx11::basic_string<char>>, std::allocator<std::pair<std::__cxx11::basic_string<char>, std::__cxx11::basic_string<char>>>>::_Vector_impl_data", ptr %18, i32 0, i32 1, !dbg !4970
  %20 = load ptr, ptr %19, align 8, !dbg !4970
  %21 = load ptr, ptr %5, align 8, !dbg !4971
  %22 = load ptr, ptr %6, align 8, !dbg !4971
  call void @_ZNSt16allocator_traitsISaISt4pairINSt7__cxx1112basic_stringIcSt11char_traitsIcESaIcEEES6_EEE9constructIS7_JRA11_KcRKS6_EEEvRS8_PT_DpOT0_(ptr noundef nonnull align 1 dereferenceable(1) %17, ptr noundef %20, ptr noundef nonnull align 1 dereferenceable(11) %21, ptr noundef nonnull align 8 dereferenceable(32) %22), !dbg !4972
  %23 = getelementptr inbounds %"struct.std::_Vector_base.9", ptr %8, i32 0, i32 0, !dbg !4973
  %24 = getelementptr inbounds %"struct.std::_Vector_base<std::pair<std::__cxx11::basic_string<char>, std::__cxx11::basic_string<char>>, std::allocator<std::pair<std::__cxx11::basic_string<char>, std::__cxx11::basic_string<char>>>>::_Vector_impl_data", ptr %23, i32 0, i32 1, !dbg !4974
  %25 = load ptr, ptr %24, align 8, !dbg !4975
  %26 = getelementptr inbounds %"struct.std::pair", ptr %25, i32 1, !dbg !4975
  store ptr %26, ptr %24, align 8, !dbg !4975
  br label %34, !dbg !4976

27:                                               ; preds = %3
  %28 = call ptr @_ZNSt6vectorISt4pairINSt7__cxx1112basic_stringIcSt11char_traitsIcESaIcEEES6_ESaIS7_EE3endEv(ptr noundef nonnull align 8 dereferenceable(24) %8) #3, !dbg !4977
  %29 = getelementptr inbounds %"class.__gnu_cxx::__normal_iterator.23", ptr %7, i32 0, i32 0, !dbg !4977
  store ptr %28, ptr %29, align 8, !dbg !4977
  %30 = load ptr, ptr %5, align 8, !dbg !4978
  %31 = load ptr, ptr %6, align 8, !dbg !4978
  %32 = getelementptr inbounds %"class.__gnu_cxx::__normal_iterator.23", ptr %7, i32 0, i32 0, !dbg !4979
  %33 = load ptr, ptr %32, align 8, !dbg !4979
  call void @_ZNSt6vectorISt4pairINSt7__cxx1112basic_stringIcSt11char_traitsIcESaIcEEES6_ESaIS7_EE17_M_realloc_insertIJRA11_KcRKS6_EEEvN9__gnu_cxx17__normal_iteratorIPS7_S9_EEDpOT_(ptr noundef nonnull align 8 dereferenceable(24) %8, ptr %33, ptr noundef nonnull align 1 dereferenceable(11) %30, ptr noundef nonnull align 8 dereferenceable(32) %31), !dbg !4979
  br label %34

34:                                               ; preds = %27, %16
  %35 = call noundef nonnull align 8 dereferenceable(64) ptr @_ZNSt6vectorISt4pairINSt7__cxx1112basic_stringIcSt11char_traitsIcESaIcEEES6_ESaIS7_EE4backEv(ptr noundef nonnull align 8 dereferenceable(24) %8) #3, !dbg !4980
  ret ptr %35, !dbg !4981
}

; Function Attrs: mustprogress noinline uwtable
define linkonce_odr dso_local noundef nonnull align 8 dereferenceable(64) ptr @_ZNSt6vectorISt4pairINSt7__cxx1112basic_stringIcSt11char_traitsIcESaIcEEES6_ESaIS7_EE12emplace_backIJRA12_KcRKS6_EEERS7_DpOT_(ptr noundef nonnull align 8 dereferenceable(24) %0, ptr noundef nonnull align 1 dereferenceable(12) %1, ptr noundef nonnull align 8 dereferenceable(32) %2) #5 comdat align 2 !dbg !4982 {
  %4 = alloca ptr, align 8
  %5 = alloca ptr, align 8
  %6 = alloca ptr, align 8
  %7 = alloca %"class.__gnu_cxx::__normal_iterator.23", align 8
  store ptr %0, ptr %4, align 8
  call void @llvm.dbg.declare(metadata ptr %4, metadata !4993, metadata !DIExpression()), !dbg !4994
  store ptr %1, ptr %5, align 8
  call void @llvm.dbg.declare(metadata ptr %5, metadata !4995, metadata !DIExpression()), !dbg !4996
  store ptr %2, ptr %6, align 8
  call void @llvm.dbg.declare(metadata ptr %6, metadata !4997, metadata !DIExpression()), !dbg !4996
  %8 = load ptr, ptr %4, align 8
  %9 = getelementptr inbounds %"struct.std::_Vector_base.9", ptr %8, i32 0, i32 0, !dbg !4998
  %10 = getelementptr inbounds %"struct.std::_Vector_base<std::pair<std::__cxx11::basic_string<char>, std::__cxx11::basic_string<char>>, std::allocator<std::pair<std::__cxx11::basic_string<char>, std::__cxx11::basic_string<char>>>>::_Vector_impl_data", ptr %9, i32 0, i32 1, !dbg !5000
  %11 = load ptr, ptr %10, align 8, !dbg !5000
  %12 = getelementptr inbounds %"struct.std::_Vector_base.9", ptr %8, i32 0, i32 0, !dbg !5001
  %13 = getelementptr inbounds %"struct.std::_Vector_base<std::pair<std::__cxx11::basic_string<char>, std::__cxx11::basic_string<char>>, std::allocator<std::pair<std::__cxx11::basic_string<char>, std::__cxx11::basic_string<char>>>>::_Vector_impl_data", ptr %12, i32 0, i32 2, !dbg !5002
  %14 = load ptr, ptr %13, align 8, !dbg !5002
  %15 = icmp ne ptr %11, %14, !dbg !5003
  br i1 %15, label %16, label %27, !dbg !5004

16:                                               ; preds = %3
  %17 = getelementptr inbounds %"struct.std::_Vector_base.9", ptr %8, i32 0, i32 0, !dbg !5005
  %18 = getelementptr inbounds %"struct.std::_Vector_base.9", ptr %8, i32 0, i32 0, !dbg !5007
  %19 = getelementptr inbounds %"struct.std::_Vector_base<std::pair<std::__cxx11::basic_string<char>, std::__cxx11::basic_string<char>>, std::allocator<std::pair<std::__cxx11::basic_string<char>, std::__cxx11::basic_string<char>>>>::_Vector_impl_data", ptr %18, i32 0, i32 1, !dbg !5008
  %20 = load ptr, ptr %19, align 8, !dbg !5008
  %21 = load ptr, ptr %5, align 8, !dbg !5009
  %22 = load ptr, ptr %6, align 8, !dbg !5009
  call void @_ZNSt16allocator_traitsISaISt4pairINSt7__cxx1112basic_stringIcSt11char_traitsIcESaIcEEES6_EEE9constructIS7_JRA12_KcRKS6_EEEvRS8_PT_DpOT0_(ptr noundef nonnull align 1 dereferenceable(1) %17, ptr noundef %20, ptr noundef nonnull align 1 dereferenceable(12) %21, ptr noundef nonnull align 8 dereferenceable(32) %22), !dbg !5010
  %23 = getelementptr inbounds %"struct.std::_Vector_base.9", ptr %8, i32 0, i32 0, !dbg !5011
  %24 = getelementptr inbounds %"struct.std::_Vector_base<std::pair<std::__cxx11::basic_string<char>, std::__cxx11::basic_string<char>>, std::allocator<std::pair<std::__cxx11::basic_string<char>, std::__cxx11::basic_string<char>>>>::_Vector_impl_data", ptr %23, i32 0, i32 1, !dbg !5012
  %25 = load ptr, ptr %24, align 8, !dbg !5013
  %26 = getelementptr inbounds %"struct.std::pair", ptr %25, i32 1, !dbg !5013
  store ptr %26, ptr %24, align 8, !dbg !5013
  br label %34, !dbg !5014

27:                                               ; preds = %3
  %28 = call ptr @_ZNSt6vectorISt4pairINSt7__cxx1112basic_stringIcSt11char_traitsIcESaIcEEES6_ESaIS7_EE3endEv(ptr noundef nonnull align 8 dereferenceable(24) %8) #3, !dbg !5015
  %29 = getelementptr inbounds %"class.__gnu_cxx::__normal_iterator.23", ptr %7, i32 0, i32 0, !dbg !5015
  store ptr %28, ptr %29, align 8, !dbg !5015
  %30 = load ptr, ptr %5, align 8, !dbg !5016
  %31 = load ptr, ptr %6, align 8, !dbg !5016
  %32 = getelementptr inbounds %"class.__gnu_cxx::__normal_iterator.23", ptr %7, i32 0, i32 0, !dbg !5017
  %33 = load ptr, ptr %32, align 8, !dbg !5017
  call void @_ZNSt6vectorISt4pairINSt7__cxx1112basic_stringIcSt11char_traitsIcESaIcEEES6_ESaIS7_EE17_M_realloc_insertIJRA12_KcRKS6_EEEvN9__gnu_cxx17__normal_iteratorIPS7_S9_EEDpOT_(ptr noundef nonnull align 8 dereferenceable(24) %8, ptr %33, ptr noundef nonnull align 1 dereferenceable(12) %30, ptr noundef nonnull align 8 dereferenceable(32) %31), !dbg !5017
  br label %34

34:                                               ; preds = %27, %16
  %35 = call noundef nonnull align 8 dereferenceable(64) ptr @_ZNSt6vectorISt4pairINSt7__cxx1112basic_stringIcSt11char_traitsIcESaIcEEES6_ESaIS7_EE4backEv(ptr noundef nonnull align 8 dereferenceable(24) %8) #3, !dbg !5018
  ret ptr %35, !dbg !5019
}

; Function Attrs: noinline uwtable
define dso_local void @_ZN5ProofC2ENS_4TypeE(ptr noundef nonnull align 8 dereferenceable(32) %0, i32 noundef %1) unnamed_addr #0 align 2 personality ptr @__gxx_personality_v0 !dbg !5020 {
  %3 = alloca ptr, align 8
  %4 = alloca i32, align 4
  %5 = alloca ptr, align 8
  %6 = alloca i32, align 4
  store ptr %0, ptr %3, align 8
  call void @llvm.dbg.declare(metadata ptr %3, metadata !5021, metadata !DIExpression()), !dbg !5022
  store i32 %1, ptr %4, align 4
  call void @llvm.dbg.declare(metadata ptr %4, metadata !5023, metadata !DIExpression()), !dbg !5024
  %7 = load ptr, ptr %3, align 8
  %8 = getelementptr inbounds %class.Proof, ptr %7, i32 0, i32 0, !dbg !5025
  %9 = call noalias noundef nonnull ptr @_Znwm(i64 noundef 16) #17, !dbg !5026, !heapallocsite !96
  invoke void @_ZN4Poco6Crypto6RSAKeyC1ENS1_9KeyLengthENS1_8ExponentE(ptr noundef nonnull align 8 dereferenceable(16) %9, i32 noundef 2048, i32 noundef 1)
          to label %10 unwind label %13, !dbg !5027

10:                                               ; preds = %2
  call void @_ZNSt10unique_ptrIKN4Poco6Crypto6RSAKeyESt14default_deleteIS3_EEC2IS5_vEEPS3_(ptr noundef nonnull align 8 dereferenceable(8) %8, ptr noundef %9) #3, !dbg !5025
  %11 = getelementptr inbounds %class.Proof, ptr %7, i32 0, i32 1, !dbg !5028
  call void @_ZNSt6vectorISt4pairINSt7__cxx1112basic_stringIcSt11char_traitsIcESaIcEEES6_ESaIS7_EEC2Ev(ptr noundef nonnull align 8 dereferenceable(24) %11) #3, !dbg !5028
  invoke void @_ZN5Proof10initializeEv(ptr noundef nonnull align 8 dereferenceable(32) %7)
          to label %12 unwind label %17, !dbg !5029

12:                                               ; preds = %10
  ret void, !dbg !5031

13:                                               ; preds = %2
  %14 = landingpad { ptr, i32 }
          cleanup, !dbg !5031
  %15 = extractvalue { ptr, i32 } %14, 0, !dbg !5031
  store ptr %15, ptr %5, align 8, !dbg !5031
  %16 = extractvalue { ptr, i32 } %14, 1, !dbg !5031
  store i32 %16, ptr %6, align 4, !dbg !5031
  call void @_ZdlPv(ptr noundef %9) #18, !dbg !5026
  br label %21, !dbg !5026

17:                                               ; preds = %10
  %18 = landingpad { ptr, i32 }
          cleanup, !dbg !5032
  %19 = extractvalue { ptr, i32 } %18, 0, !dbg !5032
  store ptr %19, ptr %5, align 8, !dbg !5032
  %20 = extractvalue { ptr, i32 } %18, 1, !dbg !5032
  store i32 %20, ptr %6, align 4, !dbg !5032
  call void @_ZNSt6vectorISt4pairINSt7__cxx1112basic_stringIcSt11char_traitsIcESaIcEEES6_ESaIS7_EED2Ev(ptr noundef nonnull align 8 dereferenceable(24) %11) #3, !dbg !5032
  call void @_ZNSt10unique_ptrIKN4Poco6Crypto6RSAKeyESt14default_deleteIS3_EED2Ev(ptr noundef nonnull align 8 dereferenceable(8) %8) #3, !dbg !5032
  br label %21, !dbg !5032

21:                                               ; preds = %17, %13
  %22 = load ptr, ptr %5, align 8, !dbg !5026
  %23 = load i32, ptr %6, align 4, !dbg !5026
  %24 = insertvalue { ptr, i32 } poison, ptr %22, 0, !dbg !5026
  %25 = insertvalue { ptr, i32 } %24, i32 %23, 1, !dbg !5026
  resume { ptr, i32 } %25, !dbg !5026
}

; Function Attrs: nobuiltin allocsize(0)
declare noundef nonnull ptr @_Znwm(i64 noundef) #8

declare void @_ZN4Poco6Crypto6RSAKeyC1ENS1_9KeyLengthENS1_8ExponentE(ptr noundef nonnull align 8 dereferenceable(16), i32 noundef, i32 noundef) unnamed_addr #1

; Function Attrs: nobuiltin nounwind
declare void @_ZdlPv(ptr noundef) #9

; Function Attrs: noinline nounwind uwtable
define linkonce_odr dso_local void @_ZNSt10unique_ptrIKN4Poco6Crypto6RSAKeyESt14default_deleteIS3_EEC2IS5_vEEPS3_(ptr noundef nonnull align 8 dereferenceable(8) %0, ptr noundef %1) unnamed_addr #4 comdat align 2 personality ptr @__gxx_personality_v0 !dbg !5033 {
  %3 = alloca ptr, align 8
  %4 = alloca ptr, align 8
  store ptr %0, ptr %3, align 8
  call void @llvm.dbg.declare(metadata ptr %3, metadata !5037, metadata !DIExpression()), !dbg !5039
  store ptr %1, ptr %4, align 8
  call void @llvm.dbg.declare(metadata ptr %4, metadata !5040, metadata !DIExpression()), !dbg !5041
  %5 = load ptr, ptr %3, align 8
  %6 = getelementptr inbounds %"class.std::unique_ptr", ptr %5, i32 0, i32 0, !dbg !5042
  %7 = load ptr, ptr %4, align 8, !dbg !5043
  invoke void @_ZNSt15__uniq_ptr_dataIKN4Poco6Crypto6RSAKeyESt14default_deleteIS3_ELb1ELb1EECI2St15__uniq_ptr_implIS3_S5_EEPS3_(ptr noundef nonnull align 8 dereferenceable(8) %6, ptr noundef %7)
          to label %8 unwind label %9, !dbg !5042

8:                                                ; preds = %2
  ret void, !dbg !5044

9:                                                ; preds = %2
  %10 = landingpad { ptr, i32 }
          catch ptr null, !dbg !5042
  %11 = extractvalue { ptr, i32 } %10, 0, !dbg !5042
  call void @__clang_call_terminate(ptr %11) #15, !dbg !5042
  unreachable, !dbg !5042
}

; Function Attrs: noinline nounwind uwtable
define linkonce_odr dso_local void @_ZNSt6vectorISt4pairINSt7__cxx1112basic_stringIcSt11char_traitsIcESaIcEEES6_ESaIS7_EEC2Ev(ptr noundef nonnull align 8 dereferenceable(24) %0) unnamed_addr #4 comdat align 2 !dbg !5045 {
  %2 = alloca ptr, align 8
  store ptr %0, ptr %2, align 8
  call void @llvm.dbg.declare(metadata ptr %2, metadata !5046, metadata !DIExpression()), !dbg !5047
  %3 = load ptr, ptr %2, align 8
  call void @_ZNSt12_Vector_baseISt4pairINSt7__cxx1112basic_stringIcSt11char_traitsIcESaIcEEES6_ESaIS7_EEC2Ev(ptr noundef nonnull align 8 dereferenceable(24) %3) #3, !dbg !5048
  ret void, !dbg !5049
}

; Function Attrs: noinline nounwind uwtable
define linkonce_odr dso_local void @_ZNSt6vectorISt4pairINSt7__cxx1112basic_stringIcSt11char_traitsIcESaIcEEES6_ESaIS7_EED2Ev(ptr noundef nonnull align 8 dereferenceable(24) %0) unnamed_addr #4 comdat align 2 personality ptr @__gxx_personality_v0 !dbg !5050 {
  %2 = alloca ptr, align 8
  store ptr %0, ptr %2, align 8
  call void @llvm.dbg.declare(metadata ptr %2, metadata !5051, metadata !DIExpression()), !dbg !5052
  %3 = load ptr, ptr %2, align 8
  %4 = getelementptr inbounds %"struct.std::_Vector_base.9", ptr %3, i32 0, i32 0, !dbg !5053
  %5 = getelementptr inbounds %"struct.std::_Vector_base<std::pair<std::__cxx11::basic_string<char>, std::__cxx11::basic_string<char>>, std::allocator<std::pair<std::__cxx11::basic_string<char>, std::__cxx11::basic_string<char>>>>::_Vector_impl_data", ptr %4, i32 0, i32 0, !dbg !5055
  %6 = load ptr, ptr %5, align 8, !dbg !5055
  %7 = getelementptr inbounds %"struct.std::_Vector_base.9", ptr %3, i32 0, i32 0, !dbg !5056
  %8 = getelementptr inbounds %"struct.std::_Vector_base<std::pair<std::__cxx11::basic_string<char>, std::__cxx11::basic_string<char>>, std::allocator<std::pair<std::__cxx11::basic_string<char>, std::__cxx11::basic_string<char>>>>::_Vector_impl_data", ptr %7, i32 0, i32 1, !dbg !5057
  %9 = load ptr, ptr %8, align 8, !dbg !5057
  %10 = call noundef nonnull align 1 dereferenceable(1) ptr @_ZNSt12_Vector_baseISt4pairINSt7__cxx1112basic_stringIcSt11char_traitsIcESaIcEEES6_ESaIS7_EE19_M_get_Tp_allocatorEv(ptr noundef nonnull align 8 dereferenceable(24) %3) #3, !dbg !5058
  invoke void @_ZSt8_DestroyIPSt4pairINSt7__cxx1112basic_stringIcSt11char_traitsIcESaIcEEES6_ES7_EvT_S9_RSaIT0_E(ptr noundef %6, ptr noundef %9, ptr noundef nonnull align 1 dereferenceable(1) %10)
          to label %11 unwind label %12, !dbg !5059

11:                                               ; preds = %1
  call void @_ZNSt12_Vector_baseISt4pairINSt7__cxx1112basic_stringIcSt11char_traitsIcESaIcEEES6_ESaIS7_EED2Ev(ptr noundef nonnull align 8 dereferenceable(24) %3) #3, !dbg !5060
  ret void, !dbg !5061

12:                                               ; preds = %1
  %13 = landingpad { ptr, i32 }
          catch ptr null, !dbg !5059
  %14 = extractvalue { ptr, i32 } %13, 0, !dbg !5059
  call void @__clang_call_terminate(ptr %14) #15, !dbg !5059
  unreachable, !dbg !5059
}

; Function Attrs: noinline nounwind uwtable
define linkonce_odr dso_local void @_ZNSt10unique_ptrIKN4Poco6Crypto6RSAKeyESt14default_deleteIS3_EED2Ev(ptr noundef nonnull align 8 dereferenceable(8) %0) unnamed_addr #4 comdat align 2 personality ptr @__gxx_personality_v0 !dbg !5062 {
  %2 = alloca ptr, align 8
  %3 = alloca ptr, align 8
  store ptr %0, ptr %2, align 8
  call void @llvm.dbg.declare(metadata ptr %2, metadata !5063, metadata !DIExpression()), !dbg !5064
  %4 = load ptr, ptr %2, align 8
  call void @llvm.dbg.declare(metadata ptr %3, metadata !5065, metadata !DIExpression()), !dbg !5067
  %5 = getelementptr inbounds %"class.std::unique_ptr", ptr %4, i32 0, i32 0, !dbg !5068
  %6 = call noundef nonnull align 8 dereferenceable(8) ptr @_ZNSt15__uniq_ptr_implIKN4Poco6Crypto6RSAKeyESt14default_deleteIS3_EE6_M_ptrEv(ptr noundef nonnull align 8 dereferenceable(8) %5), !dbg !5069
  store ptr %6, ptr %3, align 8, !dbg !5067
  %7 = load ptr, ptr %3, align 8, !dbg !5070
  %8 = load ptr, ptr %7, align 8, !dbg !5070
  %9 = icmp ne ptr %8, null, !dbg !5072
  br i1 %9, label %10, label %15, !dbg !5073

10:                                               ; preds = %1
  %11 = call noundef nonnull align 1 dereferenceable(1) ptr @_ZNSt10unique_ptrIKN4Poco6Crypto6RSAKeyESt14default_deleteIS3_EE11get_deleterEv(ptr noundef nonnull align 8 dereferenceable(8) %4) #3, !dbg !5074
  %12 = load ptr, ptr %3, align 8, !dbg !5075
  %13 = load ptr, ptr %12, align 8, !dbg !5076
  invoke void @_ZNKSt14default_deleteIKN4Poco6Crypto6RSAKeyEEclEPS3_(ptr noundef nonnull align 1 dereferenceable(1) %11, ptr noundef %13)
          to label %14 unwind label %17, !dbg !5074

14:                                               ; preds = %10
  br label %15, !dbg !5074

15:                                               ; preds = %14, %1
  %16 = load ptr, ptr %3, align 8, !dbg !5077
  store ptr null, ptr %16, align 8, !dbg !5078
  ret void, !dbg !5079

17:                                               ; preds = %10
  %18 = landingpad { ptr, i32 }
          catch ptr null, !dbg !5074
  %19 = extractvalue { ptr, i32 } %18, 0, !dbg !5074
  call void @__clang_call_terminate(ptr %19) #15, !dbg !5074
  unreachable, !dbg !5074
}

; Function Attrs: noinline uwtable
define dso_local void @_ZN5ProofC2Ev(ptr noundef nonnull align 8 dereferenceable(32) %0) unnamed_addr #0 align 2 personality ptr @__gxx_personality_v0 !dbg !5080 {
  %2 = alloca ptr, align 8
  %3 = alloca %class.anon, align 1
  %4 = alloca ptr, align 8
  %5 = alloca i32, align 4
  store ptr %0, ptr %2, align 8
  call void @llvm.dbg.declare(metadata ptr %2, metadata !5081, metadata !DIExpression()), !dbg !5082
  %6 = load ptr, ptr %2, align 8
  %7 = getelementptr inbounds %class.Proof, ptr %6, i32 0, i32 0, !dbg !5083
  %8 = call noundef ptr @"_ZZN5ProofC1EvENK3$_0clEv"(ptr noundef nonnull align 1 dereferenceable(1) %3), !dbg !5084
  call void @_ZNSt10unique_ptrIKN4Poco6Crypto6RSAKeyESt14default_deleteIS3_EEC2IS5_vEEPS3_(ptr noundef nonnull align 8 dereferenceable(8) %7, ptr noundef %8) #3, !dbg !5083
  %9 = getelementptr inbounds %class.Proof, ptr %6, i32 0, i32 1, !dbg !5085
  call void @_ZNSt6vectorISt4pairINSt7__cxx1112basic_stringIcSt11char_traitsIcESaIcEEES6_ESaIS7_EEC2Ev(ptr noundef nonnull align 8 dereferenceable(24) %9) #3, !dbg !5085
  invoke void @_ZN5Proof10initializeEv(ptr noundef nonnull align 8 dereferenceable(32) %6)
          to label %10 unwind label %11, !dbg !5086

10:                                               ; preds = %1
  ret void, !dbg !5088

11:                                               ; preds = %1
  %12 = landingpad { ptr, i32 }
          cleanup, !dbg !5089
  %13 = extractvalue { ptr, i32 } %12, 0, !dbg !5089
  store ptr %13, ptr %4, align 8, !dbg !5089
  %14 = extractvalue { ptr, i32 } %12, 1, !dbg !5089
  store i32 %14, ptr %5, align 4, !dbg !5089
  call void @_ZNSt6vectorISt4pairINSt7__cxx1112basic_stringIcSt11char_traitsIcESaIcEEES6_ESaIS7_EED2Ev(ptr noundef nonnull align 8 dereferenceable(24) %9) #3, !dbg !5089
  call void @_ZNSt10unique_ptrIKN4Poco6Crypto6RSAKeyESt14default_deleteIS3_EED2Ev(ptr noundef nonnull align 8 dereferenceable(8) %7) #3, !dbg !5089
  br label %15, !dbg !5089

15:                                               ; preds = %11
  %16 = load ptr, ptr %4, align 8, !dbg !5089
  %17 = load i32, ptr %5, align 4, !dbg !5089
  %18 = insertvalue { ptr, i32 } poison, ptr %16, 0, !dbg !5089
  %19 = insertvalue { ptr, i32 } %18, i32 %17, 1, !dbg !5089
  resume { ptr, i32 } %19, !dbg !5089
}

; Function Attrs: mustprogress noinline uwtable
define internal noundef ptr @"_ZZN5ProofC1EvENK3$_0clEv"(ptr noundef nonnull align 1 dereferenceable(1) %0) #5 align 2 personality ptr @__gxx_personality_v0 !dbg !5090 {
  %2 = alloca ptr, align 8
  %3 = alloca ptr, align 8
  %4 = alloca %"class.std::__cxx11::basic_string", align 8
  %5 = alloca ptr, align 8
  %6 = alloca i32, align 4
  %7 = alloca %"class.std::__cxx11::basic_string", align 8
  %8 = alloca %"class.std::allocator.0", align 1
  %9 = alloca %"class.std::__cxx11::basic_string", align 8
  %10 = alloca %"class.std::allocator.0", align 1
  %11 = alloca i1, align 1
  %12 = alloca i32, align 4
  %13 = alloca ptr, align 8
  %14 = alloca [1024 x i8], align 16
  %15 = alloca %"class.std::__cxx11::basic_ostringstream", align 8
  %16 = alloca %"class.std::__cxx11::basic_string", align 8
  %17 = alloca %"class.std::allocator.0", align 1
  %18 = alloca %"class.Poco::Message", align 8
  %19 = alloca %"class.std::__cxx11::basic_string", align 8
  %20 = alloca ptr, align 8
  %21 = alloca ptr, align 8
  %22 = alloca [1024 x i8], align 16
  %23 = alloca %"class.std::__cxx11::basic_ostringstream", align 8
  %24 = alloca %"class.std::__cxx11::basic_string", align 8
  %25 = alloca %"class.std::allocator.0", align 1
  %26 = alloca %"class.Poco::Message", align 8
  %27 = alloca %"class.std::__cxx11::basic_string", align 8
  %28 = alloca ptr, align 8
  %29 = alloca ptr, align 8
  %30 = alloca [1024 x i8], align 16
  %31 = alloca %"class.std::__cxx11::basic_ostringstream", align 8
  %32 = alloca %"class.std::__cxx11::basic_string", align 8
  %33 = alloca %"class.std::allocator.0", align 1
  %34 = alloca %"class.std::__cxx11::basic_string", align 8
  %35 = alloca %"class.Poco::Message", align 8
  %36 = alloca %"class.std::__cxx11::basic_string", align 8
  %37 = alloca ptr, align 8
  %38 = alloca %"class.std::__cxx11::basic_string", align 8
  %39 = alloca %"class.std::__cxx11::basic_string", align 8
  %40 = alloca %"class.std::__cxx11::basic_string", align 8
  %41 = alloca %"class.std::__cxx11::basic_string", align 8
  %42 = alloca ptr, align 8
  %43 = alloca [1024 x i8], align 16
  %44 = alloca %"class.std::__cxx11::basic_ostringstream", align 8
  %45 = alloca %"class.std::__cxx11::basic_string", align 8
  %46 = alloca %"class.std::allocator.0", align 1
  %47 = alloca %"class.Poco::Message", align 8
  %48 = alloca %"class.std::__cxx11::basic_string", align 8
  store ptr %0, ptr %3, align 8
  call void @llvm.dbg.declare(metadata ptr %3, metadata !5099, metadata !DIExpression()), !dbg !5101
  %49 = load ptr, ptr %3, align 8
  call void @llvm.dbg.declare(metadata ptr %4, metadata !5102, metadata !DIExpression()), !dbg !5103
  call void @_ZN5Proof12ProofKeyPathB5cxx11Ev(ptr sret(%"class.std::__cxx11::basic_string") align 8 %4), !dbg !5104
  %50 = invoke noalias noundef nonnull ptr @_Znwm(i64 noundef 16) #17
          to label %51 unwind label %55, !dbg !5105, !heapallocsite !96

51:                                               ; preds = %1
  store i1 true, ptr %11, align 1
  call void @_ZNSaIcEC1Ev(ptr noundef nonnull align 1 dereferenceable(1) %8) #3, !dbg !5107
  invoke void @_ZNSt7__cxx1112basic_stringIcSt11char_traitsIcESaIcEEC2IS3_EEPKcRKS3_(ptr noundef nonnull align 8 dereferenceable(32) %7, ptr noundef @.str, ptr noundef nonnull align 1 dereferenceable(1) %8)
          to label %52 unwind label %59, !dbg !5107

52:                                               ; preds = %51
  call void @_ZNSaIcEC1Ev(ptr noundef nonnull align 1 dereferenceable(1) %10) #3, !dbg !5108
  invoke void @_ZNSt7__cxx1112basic_stringIcSt11char_traitsIcESaIcEEC2IS3_EEPKcRKS3_(ptr noundef nonnull align 8 dereferenceable(32) %9, ptr noundef @.str, ptr noundef nonnull align 1 dereferenceable(1) %10)
          to label %53 unwind label %63, !dbg !5108

53:                                               ; preds = %52
  invoke void @_ZN4Poco6Crypto6RSAKeyC1ERKNSt7__cxx1112basic_stringIcSt11char_traitsIcESaIcEEES9_S9_(ptr noundef nonnull align 8 dereferenceable(16) %50, ptr noundef nonnull align 8 dereferenceable(32) %7, ptr noundef nonnull align 8 dereferenceable(32) %4, ptr noundef nonnull align 8 dereferenceable(32) %9)
          to label %54 unwind label %67, !dbg !5108

54:                                               ; preds = %53
  store i1 false, ptr %11, align 1, !dbg !5105
  store ptr %50, ptr %2, align 8, !dbg !5109
  call void @_ZNSt7__cxx1112basic_stringIcSt11char_traitsIcESaIcEED1Ev(ptr noundef nonnull align 8 dereferenceable(32) %9) #3, !dbg !5109
  call void @_ZNSaIcED1Ev(ptr noundef nonnull align 1 dereferenceable(1) %10) #3, !dbg !5109
  call void @_ZNSt7__cxx1112basic_stringIcSt11char_traitsIcESaIcEED1Ev(ptr noundef nonnull align 8 dereferenceable(32) %7) #3, !dbg !5109
  call void @_ZNSaIcED1Ev(ptr noundef nonnull align 1 dereferenceable(1) %8) #3, !dbg !5109
  store i32 1, ptr %12, align 4
  br label %442, !dbg !5109

55:                                               ; preds = %1
  %56 = landingpad { ptr, i32 }
          catch ptr @_ZTIN4Poco21FileNotFoundExceptionE
          catch ptr @_ZTIN4Poco9ExceptionE
          catch ptr @_ZTISt9exception
          catch ptr null, !dbg !5110
  %57 = extractvalue { ptr, i32 } %56, 0, !dbg !5110
  store ptr %57, ptr %5, align 8, !dbg !5110
  %58 = extractvalue { ptr, i32 } %56, 1, !dbg !5110
  store i32 %58, ptr %6, align 4, !dbg !5110
  br label %76, !dbg !5110

59:                                               ; preds = %51
  %60 = landingpad { ptr, i32 }
          catch ptr @_ZTIN4Poco21FileNotFoundExceptionE
          catch ptr @_ZTIN4Poco9ExceptionE
          catch ptr @_ZTISt9exception
          catch ptr null, !dbg !5110
  %61 = extractvalue { ptr, i32 } %60, 0, !dbg !5110
  store ptr %61, ptr %5, align 8, !dbg !5110
  %62 = extractvalue { ptr, i32 } %60, 1, !dbg !5110
  store i32 %62, ptr %6, align 4, !dbg !5110
  br label %72, !dbg !5110

63:                                               ; preds = %52
  %64 = landingpad { ptr, i32 }
          catch ptr @_ZTIN4Poco21FileNotFoundExceptionE
          catch ptr @_ZTIN4Poco9ExceptionE
          catch ptr @_ZTISt9exception
          catch ptr null, !dbg !5108
  %65 = extractvalue { ptr, i32 } %64, 0, !dbg !5108
  store ptr %65, ptr %5, align 8, !dbg !5108
  %66 = extractvalue { ptr, i32 } %64, 1, !dbg !5108
  store i32 %66, ptr %6, align 4, !dbg !5108
  br label %71, !dbg !5108

67:                                               ; preds = %53
  %68 = landingpad { ptr, i32 }
          catch ptr @_ZTIN4Poco21FileNotFoundExceptionE
          catch ptr @_ZTIN4Poco9ExceptionE
          catch ptr @_ZTISt9exception
          catch ptr null, !dbg !5110
  %69 = extractvalue { ptr, i32 } %68, 0, !dbg !5110
  store ptr %69, ptr %5, align 8, !dbg !5110
  %70 = extractvalue { ptr, i32 } %68, 1, !dbg !5110
  store i32 %70, ptr %6, align 4, !dbg !5110
  call void @_ZNSt7__cxx1112basic_stringIcSt11char_traitsIcESaIcEED1Ev(ptr noundef nonnull align 8 dereferenceable(32) %9) #3, !dbg !5109
  br label %71, !dbg !5109

71:                                               ; preds = %67, %63
  call void @_ZNSaIcED1Ev(ptr noundef nonnull align 1 dereferenceable(1) %10) #3, !dbg !5109
  call void @_ZNSt7__cxx1112basic_stringIcSt11char_traitsIcESaIcEED1Ev(ptr noundef nonnull align 8 dereferenceable(32) %7) #3, !dbg !5109
  br label %72, !dbg !5109

72:                                               ; preds = %71, %59
  call void @_ZNSaIcED1Ev(ptr noundef nonnull align 1 dereferenceable(1) %8) #3, !dbg !5109
  %73 = load i1, ptr %11, align 1, !dbg !5109
  br i1 %73, label %74, label %75, !dbg !5109

74:                                               ; preds = %72
  call void @_ZdlPv(ptr noundef %50) #18, !dbg !5109
  br label %75, !dbg !5109

75:                                               ; preds = %74, %72
  br label %76, !dbg !5109

76:                                               ; preds = %75, %55
  %77 = load i32, ptr %6, align 4, !dbg !5111
  %78 = call i32 @llvm.eh.typeid.for(ptr @_ZTIN4Poco21FileNotFoundExceptionE) #3, !dbg !5111
  %79 = icmp eq i32 %77, %78, !dbg !5111
  br i1 %79, label %80, label %130, !dbg !5111

80:                                               ; preds = %76
  call void @llvm.dbg.declare(metadata ptr %37, metadata !5112, metadata !DIExpression()), !dbg !5117
  %81 = load ptr, ptr %5, align 8, !dbg !5118
  %82 = call ptr @__cxa_begin_catch(ptr %81) #3, !dbg !5118
  store ptr %82, ptr %37, align 8, !dbg !5118
  call void @llvm.dbg.declare(metadata ptr %38, metadata !5120, metadata !DIExpression()), !dbg !5122
  %83 = load ptr, ptr %37, align 8, !dbg !5123
  invoke void @_ZNK4Poco9Exception11displayTextB5cxx11Ev(ptr sret(%"class.std::__cxx11::basic_string") align 8 %41, ptr noundef nonnull align 8 dereferenceable(52) %83)
          to label %84 unwind label %389, !dbg !5124

84:                                               ; preds = %80
  invoke void @_ZStplIcSt11char_traitsIcESaIcEENSt7__cxx1112basic_stringIT_T0_T1_EEOS8_PKS5_(ptr sret(%"class.std::__cxx11::basic_string") align 8 %40, ptr noundef nonnull align 8 dereferenceable(32) %41, ptr noundef @.str.20)
          to label %85 unwind label %393, !dbg !5125

85:                                               ; preds = %84
  invoke void @_ZStplIcSt11char_traitsIcESaIcEENSt7__cxx1112basic_stringIT_T0_T1_EEOS8_RKS8_(ptr sret(%"class.std::__cxx11::basic_string") align 8 %39, ptr noundef nonnull align 8 dereferenceable(32) %40, ptr noundef nonnull align 8 dereferenceable(32) %4)
          to label %86 unwind label %397, !dbg !5126

86:                                               ; preds = %85
  invoke void @_ZStplIcSt11char_traitsIcESaIcEENSt7__cxx1112basic_stringIT_T0_T1_EEOS8_PKS5_(ptr sret(%"class.std::__cxx11::basic_string") align 8 %38, ptr noundef nonnull align 8 dereferenceable(32) %39, ptr noundef @.str.21)
          to label %87 unwind label %401, !dbg !5127

87:                                               ; preds = %86
  call void @_ZNSt7__cxx1112basic_stringIcSt11char_traitsIcESaIcEED1Ev(ptr noundef nonnull align 8 dereferenceable(32) %39) #3, !dbg !5123
  call void @_ZNSt7__cxx1112basic_stringIcSt11char_traitsIcESaIcEED1Ev(ptr noundef nonnull align 8 dereferenceable(32) %40) #3, !dbg !5123
  call void @_ZNSt7__cxx1112basic_stringIcSt11char_traitsIcESaIcEED1Ev(ptr noundef nonnull align 8 dereferenceable(32) %41) #3, !dbg !5123
  br label %88, !dbg !5128

88:                                               ; preds = %87
  call void @llvm.dbg.declare(metadata ptr %42, metadata !5129, metadata !DIExpression()), !dbg !5134
  %89 = invoke noundef nonnull align 8 dereferenceable(68) ptr @_ZN3Log6loggerEv()
          to label %90 unwind label %407, !dbg !5134

90:                                               ; preds = %88
  store ptr %89, ptr %42, align 8, !dbg !5134
  %91 = invoke noundef zeroext i1 @_ZN3Log16isShutdownCalledEv()
          to label %92 unwind label %407, !dbg !5135

92:                                               ; preds = %90
  br i1 %91, label %434, label %93, !dbg !5135

93:                                               ; preds = %92
  %94 = load ptr, ptr %42, align 8, !dbg !5135
  %95 = invoke noundef zeroext i1 @_ZNK4Poco6Logger7warningEv(ptr noundef nonnull align 8 dereferenceable(68) %94)
          to label %96 unwind label %407, !dbg !5135

96:                                               ; preds = %93
  br i1 %95, label %97, label %434, !dbg !5134

97:                                               ; preds = %96
  call void @llvm.dbg.declare(metadata ptr %43, metadata !5137, metadata !DIExpression()), !dbg !5142
  call void @llvm.dbg.declare(metadata ptr %44, metadata !5143, metadata !DIExpression()), !dbg !5142
  %98 = getelementptr inbounds [1024 x i8], ptr %43, i64 0, i64 0, !dbg !5142
  %99 = invoke noundef ptr @_ZN3Log6prefixILi1023EEEPcS1_PKc(ptr noundef %98, ptr noundef @.str.22)
          to label %100 unwind label %407, !dbg !5142

100:                                              ; preds = %97
  call void @_ZNSaIcEC1Ev(ptr noundef nonnull align 1 dereferenceable(1) %46) #3, !dbg !5142
  invoke void @_ZNSt7__cxx1112basic_stringIcSt11char_traitsIcESaIcEEC2IS3_EEPKcRKS3_(ptr noundef nonnull align 8 dereferenceable(32) %45, ptr noundef %99, ptr noundef nonnull align 1 dereferenceable(1) %46)
          to label %101 unwind label %411, !dbg !5142

101:                                              ; preds = %100
  invoke void @_ZNSt7__cxx1119basic_ostringstreamIcSt11char_traitsIcESaIcEEC1ERKNS_12basic_stringIcS2_S3_EESt13_Ios_Openmode(ptr noundef nonnull align 8 dereferenceable(112) %44, ptr noundef nonnull align 8 dereferenceable(32) %45, i32 noundef 2)
          to label %102 unwind label %415, !dbg !5142

102:                                              ; preds = %101
  call void @_ZNSt7__cxx1112basic_stringIcSt11char_traitsIcESaIcEED1Ev(ptr noundef nonnull align 8 dereferenceable(32) %45) #3, !dbg !5142
  call void @_ZNSaIcED1Ev(ptr noundef nonnull align 1 dereferenceable(1) %46) #3, !dbg !5142
  %103 = invoke noundef nonnull align 8 dereferenceable(8) ptr @_ZNSolsEPFRSt8ios_baseS0_E(ptr noundef nonnull align 8 dereferenceable(8) %44, ptr noundef @_ZSt9boolalphaRSt8ios_base)
          to label %104 unwind label %420, !dbg !5142

104:                                              ; preds = %102
  %105 = invoke noundef nonnull align 8 dereferenceable(8) ptr @_ZStlsIcSt11char_traitsIcESaIcEERSt13basic_ostreamIT_T0_ES7_RKNSt7__cxx1112basic_stringIS4_S5_T1_EE(ptr noundef nonnull align 8 dereferenceable(8) %103, ptr noundef nonnull align 8 dereferenceable(32) %38)
          to label %106 unwind label %420, !dbg !5142

106:                                              ; preds = %104
  br label %107, !dbg !5142

107:                                              ; preds = %106
  %108 = invoke noundef nonnull align 8 dereferenceable(8) ptr @_ZStlsISt11char_traitsIcEERSt13basic_ostreamIcT_ES5_PKc(ptr noundef nonnull align 8 dereferenceable(8) %44, ptr noundef @.str.16)
          to label %109 unwind label %420, !dbg !5144

109:                                              ; preds = %107
  %110 = invoke noundef nonnull align 8 dereferenceable(8) ptr @_ZStlsISt11char_traitsIcEERSt13basic_ostreamIcT_ES5_PKc(ptr noundef nonnull align 8 dereferenceable(8) %108, ptr noundef @.str.17)
          to label %111 unwind label %420, !dbg !5144

111:                                              ; preds = %109
  %112 = invoke noundef nonnull align 8 dereferenceable(8) ptr @_ZStlsISt11char_traitsIcEERSt13basic_ostreamIcT_ES5_c(ptr noundef nonnull align 8 dereferenceable(8) %110, i8 noundef signext 58)
          to label %113 unwind label %420, !dbg !5144

113:                                              ; preds = %111
  %114 = invoke noundef nonnull align 8 dereferenceable(8) ptr @_ZNSolsEi(ptr noundef nonnull align 8 dereferenceable(8) %112, i32 noundef 147)
          to label %115 unwind label %420, !dbg !5144

115:                                              ; preds = %113
  %116 = invoke noundef nonnull align 8 dereferenceable(8) ptr @_ZNSo5flushEv(ptr noundef nonnull align 8 dereferenceable(8) %44)
          to label %117 unwind label %420, !dbg !5147

117:                                              ; preds = %115
  br label %118, !dbg !5147

118:                                              ; preds = %117
  br label %119, !dbg !5147

119:                                              ; preds = %118
  %120 = load ptr, ptr %42, align 8, !dbg !5142
  %121 = load ptr, ptr %42, align 8, !dbg !5142
  %122 = invoke noundef nonnull align 8 dereferenceable(32) ptr @_ZNK4Poco6Logger4nameB5cxx11Ev(ptr noundef nonnull align 8 dereferenceable(68) %121)
          to label %123 unwind label %420, !dbg !5142

123:                                              ; preds = %119
  invoke void @_ZNKSt7__cxx1119basic_ostringstreamIcSt11char_traitsIcESaIcEE3strEv(ptr sret(%"class.std::__cxx11::basic_string") align 8 %48, ptr noundef nonnull align 8 dereferenceable(112) %44)
          to label %124 unwind label %420, !dbg !5142

124:                                              ; preds = %123
  invoke void @_ZN4Poco7MessageC1ERKNSt7__cxx1112basic_stringIcSt11char_traitsIcESaIcEEES8_NS0_8PriorityE(ptr noundef nonnull align 8 dereferenceable(152) %47, ptr noundef nonnull align 8 dereferenceable(32) %122, ptr noundef nonnull align 8 dereferenceable(32) %48, i32 noundef 4)
          to label %125 unwind label %424, !dbg !5142

125:                                              ; preds = %124
  %126 = load ptr, ptr %120, align 8, !dbg !5142
  %127 = getelementptr inbounds ptr, ptr %126, i64 6, !dbg !5142
  %128 = load ptr, ptr %127, align 8, !dbg !5142
  invoke void %128(ptr noundef nonnull align 8 dereferenceable(68) %120, ptr noundef nonnull align 8 dereferenceable(152) %47)
          to label %129 unwind label %428, !dbg !5142

129:                                              ; preds = %125
  call void @_ZN4Poco7MessageD1Ev(ptr noundef nonnull align 8 dereferenceable(152) %47) #3, !dbg !5142
  call void @_ZNSt7__cxx1112basic_stringIcSt11char_traitsIcESaIcEED1Ev(ptr noundef nonnull align 8 dereferenceable(32) %48) #3, !dbg !5142
  call void @_ZNSt7__cxx1119basic_ostringstreamIcSt11char_traitsIcESaIcEED1Ev(ptr noundef nonnull align 8 dereferenceable(112) %44) #3, !dbg !5135
  br label %434, !dbg !5142

130:                                              ; preds = %76
  %131 = call i32 @llvm.eh.typeid.for(ptr @_ZTIN4Poco9ExceptionE) #3, !dbg !5111
  %132 = icmp eq i32 %77, %131, !dbg !5111
  br i1 %132, label %133, label %182, !dbg !5111

133:                                              ; preds = %130
  call void @llvm.dbg.declare(metadata ptr %28, metadata !5148, metadata !DIExpression()), !dbg !5152
  %134 = load ptr, ptr %5, align 8, !dbg !5153
  %135 = call ptr @__cxa_begin_catch(ptr %134) #3, !dbg !5153
  store ptr %135, ptr %28, align 8, !dbg !5153
  br label %136, !dbg !5155

136:                                              ; preds = %133
  call void @llvm.dbg.declare(metadata ptr %29, metadata !5156, metadata !DIExpression()), !dbg !5158
  %137 = invoke noundef nonnull align 8 dereferenceable(68) ptr @_ZN3Log6loggerEv()
          to label %138 unwind label %352, !dbg !5158

138:                                              ; preds = %136
  store ptr %137, ptr %29, align 8, !dbg !5158
  %139 = invoke noundef zeroext i1 @_ZN3Log16isShutdownCalledEv()
          to label %140 unwind label %352, !dbg !5159

140:                                              ; preds = %138
  br i1 %139, label %383, label %141, !dbg !5159

141:                                              ; preds = %140
  %142 = load ptr, ptr %29, align 8, !dbg !5159
  %143 = invoke noundef zeroext i1 @_ZNK4Poco6Logger5errorEv(ptr noundef nonnull align 8 dereferenceable(68) %142)
          to label %144 unwind label %352, !dbg !5159

144:                                              ; preds = %141
  br i1 %143, label %145, label %383, !dbg !5158

145:                                              ; preds = %144
  call void @llvm.dbg.declare(metadata ptr %30, metadata !5161, metadata !DIExpression()), !dbg !5163
  call void @llvm.dbg.declare(metadata ptr %31, metadata !5164, metadata !DIExpression()), !dbg !5163
  %146 = getelementptr inbounds [1024 x i8], ptr %30, i64 0, i64 0, !dbg !5163
  %147 = invoke noundef ptr @_ZN3Log6prefixILi1023EEEPcS1_PKc(ptr noundef %146, ptr noundef @.str.14)
          to label %148 unwind label %352, !dbg !5163

148:                                              ; preds = %145
  call void @_ZNSaIcEC1Ev(ptr noundef nonnull align 1 dereferenceable(1) %33) #3, !dbg !5163
  invoke void @_ZNSt7__cxx1112basic_stringIcSt11char_traitsIcESaIcEEC2IS3_EEPKcRKS3_(ptr noundef nonnull align 8 dereferenceable(32) %32, ptr noundef %147, ptr noundef nonnull align 1 dereferenceable(1) %33)
          to label %149 unwind label %356, !dbg !5163

149:                                              ; preds = %148
  invoke void @_ZNSt7__cxx1119basic_ostringstreamIcSt11char_traitsIcESaIcEEC1ERKNS_12basic_stringIcS2_S3_EESt13_Ios_Openmode(ptr noundef nonnull align 8 dereferenceable(112) %31, ptr noundef nonnull align 8 dereferenceable(32) %32, i32 noundef 2)
          to label %150 unwind label %360, !dbg !5163

150:                                              ; preds = %149
  call void @_ZNSt7__cxx1112basic_stringIcSt11char_traitsIcESaIcEED1Ev(ptr noundef nonnull align 8 dereferenceable(32) %32) #3, !dbg !5163
  call void @_ZNSaIcED1Ev(ptr noundef nonnull align 1 dereferenceable(1) %33) #3, !dbg !5163
  %151 = invoke noundef nonnull align 8 dereferenceable(8) ptr @_ZNSolsEPFRSt8ios_baseS0_E(ptr noundef nonnull align 8 dereferenceable(8) %31, ptr noundef @_ZSt9boolalphaRSt8ios_base)
          to label %152 unwind label %365, !dbg !5163

152:                                              ; preds = %150
  %153 = invoke noundef nonnull align 8 dereferenceable(8) ptr @_ZStlsISt11char_traitsIcEERSt13basic_ostreamIcT_ES5_PKc(ptr noundef nonnull align 8 dereferenceable(8) %151, ptr noundef @.str.19)
          to label %154 unwind label %365, !dbg !5163

154:                                              ; preds = %152
  %155 = load ptr, ptr %28, align 8, !dbg !5163
  invoke void @_ZNK4Poco9Exception11displayTextB5cxx11Ev(ptr sret(%"class.std::__cxx11::basic_string") align 8 %34, ptr noundef nonnull align 8 dereferenceable(52) %155)
          to label %156 unwind label %365, !dbg !5163

156:                                              ; preds = %154
  %157 = invoke noundef nonnull align 8 dereferenceable(8) ptr @_ZStlsIcSt11char_traitsIcESaIcEERSt13basic_ostreamIT_T0_ES7_RKNSt7__cxx1112basic_stringIS4_S5_T1_EE(ptr noundef nonnull align 8 dereferenceable(8) %153, ptr noundef nonnull align 8 dereferenceable(32) %34)
          to label %158 unwind label %369, !dbg !5163

158:                                              ; preds = %156
  call void @_ZNSt7__cxx1112basic_stringIcSt11char_traitsIcESaIcEED1Ev(ptr noundef nonnull align 8 dereferenceable(32) %34) #3, !dbg !5163
  br label %159, !dbg !5163

159:                                              ; preds = %158
  %160 = invoke noundef nonnull align 8 dereferenceable(8) ptr @_ZStlsISt11char_traitsIcEERSt13basic_ostreamIcT_ES5_PKc(ptr noundef nonnull align 8 dereferenceable(8) %31, ptr noundef @.str.16)
          to label %161 unwind label %365, !dbg !5165

161:                                              ; preds = %159
  %162 = invoke noundef nonnull align 8 dereferenceable(8) ptr @_ZStlsISt11char_traitsIcEERSt13basic_ostreamIcT_ES5_PKc(ptr noundef nonnull align 8 dereferenceable(8) %160, ptr noundef @.str.17)
          to label %163 unwind label %365, !dbg !5165

163:                                              ; preds = %161
  %164 = invoke noundef nonnull align 8 dereferenceable(8) ptr @_ZStlsISt11char_traitsIcEERSt13basic_ostreamIcT_ES5_c(ptr noundef nonnull align 8 dereferenceable(8) %162, i8 noundef signext 58)
          to label %165 unwind label %365, !dbg !5165

165:                                              ; preds = %163
  %166 = invoke noundef nonnull align 8 dereferenceable(8) ptr @_ZNSolsEi(ptr noundef nonnull align 8 dereferenceable(8) %164, i32 noundef 151)
          to label %167 unwind label %365, !dbg !5165

167:                                              ; preds = %165
  %168 = invoke noundef nonnull align 8 dereferenceable(8) ptr @_ZNSo5flushEv(ptr noundef nonnull align 8 dereferenceable(8) %31)
          to label %169 unwind label %365, !dbg !5168

169:                                              ; preds = %167
  br label %170, !dbg !5168

170:                                              ; preds = %169
  br label %171, !dbg !5168

171:                                              ; preds = %170
  %172 = load ptr, ptr %29, align 8, !dbg !5163
  %173 = load ptr, ptr %29, align 8, !dbg !5163
  %174 = invoke noundef nonnull align 8 dereferenceable(32) ptr @_ZNK4Poco6Logger4nameB5cxx11Ev(ptr noundef nonnull align 8 dereferenceable(68) %173)
          to label %175 unwind label %365, !dbg !5163

175:                                              ; preds = %171
  invoke void @_ZNKSt7__cxx1119basic_ostringstreamIcSt11char_traitsIcESaIcEE3strEv(ptr sret(%"class.std::__cxx11::basic_string") align 8 %36, ptr noundef nonnull align 8 dereferenceable(112) %31)
          to label %176 unwind label %365, !dbg !5163

176:                                              ; preds = %175
  invoke void @_ZN4Poco7MessageC1ERKNSt7__cxx1112basic_stringIcSt11char_traitsIcESaIcEEES8_NS0_8PriorityE(ptr noundef nonnull align 8 dereferenceable(152) %35, ptr noundef nonnull align 8 dereferenceable(32) %174, ptr noundef nonnull align 8 dereferenceable(32) %36, i32 noundef 3)
          to label %177 unwind label %373, !dbg !5163

177:                                              ; preds = %176
  %178 = load ptr, ptr %172, align 8, !dbg !5163
  %179 = getelementptr inbounds ptr, ptr %178, i64 6, !dbg !5163
  %180 = load ptr, ptr %179, align 8, !dbg !5163
  invoke void %180(ptr noundef nonnull align 8 dereferenceable(68) %172, ptr noundef nonnull align 8 dereferenceable(152) %35)
          to label %181 unwind label %377, !dbg !5163

181:                                              ; preds = %177
  call void @_ZN4Poco7MessageD1Ev(ptr noundef nonnull align 8 dereferenceable(152) %35) #3, !dbg !5163
  call void @_ZNSt7__cxx1112basic_stringIcSt11char_traitsIcESaIcEED1Ev(ptr noundef nonnull align 8 dereferenceable(32) %36) #3, !dbg !5163
  call void @_ZNSt7__cxx1119basic_ostringstreamIcSt11char_traitsIcESaIcEED1Ev(ptr noundef nonnull align 8 dereferenceable(112) %31) #3, !dbg !5159
  br label %383, !dbg !5163

182:                                              ; preds = %130
  %183 = call i32 @llvm.eh.typeid.for(ptr @_ZTISt9exception) #3, !dbg !5111
  %184 = icmp eq i32 %77, %183, !dbg !5111
  br i1 %184, label %185, label %237, !dbg !5111

185:                                              ; preds = %182
  call void @llvm.dbg.declare(metadata ptr %20, metadata !5169, metadata !DIExpression()), !dbg !5172
  %186 = load ptr, ptr %5, align 8, !dbg !5173
  %187 = call ptr @__cxa_begin_catch(ptr %186) #3, !dbg !5173
  store ptr %187, ptr %20, align 8, !dbg !5173
  br label %188, !dbg !5175

188:                                              ; preds = %185
  call void @llvm.dbg.declare(metadata ptr %21, metadata !5176, metadata !DIExpression()), !dbg !5178
  %189 = invoke noundef nonnull align 8 dereferenceable(68) ptr @_ZN3Log6loggerEv()
          to label %190 unwind label %319, !dbg !5178

190:                                              ; preds = %188
  store ptr %189, ptr %21, align 8, !dbg !5178
  %191 = invoke noundef zeroext i1 @_ZN3Log16isShutdownCalledEv()
          to label %192 unwind label %319, !dbg !5179

192:                                              ; preds = %190
  br i1 %191, label %346, label %193, !dbg !5179

193:                                              ; preds = %192
  %194 = load ptr, ptr %21, align 8, !dbg !5179
  %195 = invoke noundef zeroext i1 @_ZNK4Poco6Logger5errorEv(ptr noundef nonnull align 8 dereferenceable(68) %194)
          to label %196 unwind label %319, !dbg !5179

196:                                              ; preds = %193
  br i1 %195, label %197, label %346, !dbg !5178

197:                                              ; preds = %196
  call void @llvm.dbg.declare(metadata ptr %22, metadata !5181, metadata !DIExpression()), !dbg !5183
  call void @llvm.dbg.declare(metadata ptr %23, metadata !5184, metadata !DIExpression()), !dbg !5183
  %198 = getelementptr inbounds [1024 x i8], ptr %22, i64 0, i64 0, !dbg !5183
  %199 = invoke noundef ptr @_ZN3Log6prefixILi1023EEEPcS1_PKc(ptr noundef %198, ptr noundef @.str.14)
          to label %200 unwind label %319, !dbg !5183

200:                                              ; preds = %197
  call void @_ZNSaIcEC1Ev(ptr noundef nonnull align 1 dereferenceable(1) %25) #3, !dbg !5183
  invoke void @_ZNSt7__cxx1112basic_stringIcSt11char_traitsIcESaIcEEC2IS3_EEPKcRKS3_(ptr noundef nonnull align 8 dereferenceable(32) %24, ptr noundef %199, ptr noundef nonnull align 1 dereferenceable(1) %25)
          to label %201 unwind label %323, !dbg !5183

201:                                              ; preds = %200
  invoke void @_ZNSt7__cxx1119basic_ostringstreamIcSt11char_traitsIcESaIcEEC1ERKNS_12basic_stringIcS2_S3_EESt13_Ios_Openmode(ptr noundef nonnull align 8 dereferenceable(112) %23, ptr noundef nonnull align 8 dereferenceable(32) %24, i32 noundef 2)
          to label %202 unwind label %327, !dbg !5183

202:                                              ; preds = %201
  call void @_ZNSt7__cxx1112basic_stringIcSt11char_traitsIcESaIcEED1Ev(ptr noundef nonnull align 8 dereferenceable(32) %24) #3, !dbg !5183
  call void @_ZNSaIcED1Ev(ptr noundef nonnull align 1 dereferenceable(1) %25) #3, !dbg !5183
  %203 = invoke noundef nonnull align 8 dereferenceable(8) ptr @_ZNSolsEPFRSt8ios_baseS0_E(ptr noundef nonnull align 8 dereferenceable(8) %23, ptr noundef @_ZSt9boolalphaRSt8ios_base)
          to label %204 unwind label %332, !dbg !5183

204:                                              ; preds = %202
  %205 = invoke noundef nonnull align 8 dereferenceable(8) ptr @_ZStlsISt11char_traitsIcEERSt13basic_ostreamIcT_ES5_PKc(ptr noundef nonnull align 8 dereferenceable(8) %203, ptr noundef @.str.18)
          to label %206 unwind label %332, !dbg !5183

206:                                              ; preds = %204
  %207 = load ptr, ptr %20, align 8, !dbg !5183
  %208 = load ptr, ptr %207, align 8, !dbg !5183
  %209 = getelementptr inbounds ptr, ptr %208, i64 2, !dbg !5183
  %210 = load ptr, ptr %209, align 8, !dbg !5183
  %211 = call noundef ptr %210(ptr noundef nonnull align 8 dereferenceable(8) %207) #3, !dbg !5183
  %212 = invoke noundef nonnull align 8 dereferenceable(8) ptr @_ZStlsISt11char_traitsIcEERSt13basic_ostreamIcT_ES5_PKc(ptr noundef nonnull align 8 dereferenceable(8) %205, ptr noundef %211)
          to label %213 unwind label %332, !dbg !5183

213:                                              ; preds = %206
  br label %214, !dbg !5183

214:                                              ; preds = %213
  %215 = invoke noundef nonnull align 8 dereferenceable(8) ptr @_ZStlsISt11char_traitsIcEERSt13basic_ostreamIcT_ES5_PKc(ptr noundef nonnull align 8 dereferenceable(8) %23, ptr noundef @.str.16)
          to label %216 unwind label %332, !dbg !5185

216:                                              ; preds = %214
  %217 = invoke noundef nonnull align 8 dereferenceable(8) ptr @_ZStlsISt11char_traitsIcEERSt13basic_ostreamIcT_ES5_PKc(ptr noundef nonnull align 8 dereferenceable(8) %215, ptr noundef @.str.17)
          to label %218 unwind label %332, !dbg !5185

218:                                              ; preds = %216
  %219 = invoke noundef nonnull align 8 dereferenceable(8) ptr @_ZStlsISt11char_traitsIcEERSt13basic_ostreamIcT_ES5_c(ptr noundef nonnull align 8 dereferenceable(8) %217, i8 noundef signext 58)
          to label %220 unwind label %332, !dbg !5185

220:                                              ; preds = %218
  %221 = invoke noundef nonnull align 8 dereferenceable(8) ptr @_ZNSolsEi(ptr noundef nonnull align 8 dereferenceable(8) %219, i32 noundef 155)
          to label %222 unwind label %332, !dbg !5185

222:                                              ; preds = %220
  %223 = invoke noundef nonnull align 8 dereferenceable(8) ptr @_ZNSo5flushEv(ptr noundef nonnull align 8 dereferenceable(8) %23)
          to label %224 unwind label %332, !dbg !5188

224:                                              ; preds = %222
  br label %225, !dbg !5188

225:                                              ; preds = %224
  br label %226, !dbg !5188

226:                                              ; preds = %225
  %227 = load ptr, ptr %21, align 8, !dbg !5183
  %228 = load ptr, ptr %21, align 8, !dbg !5183
  %229 = invoke noundef nonnull align 8 dereferenceable(32) ptr @_ZNK4Poco6Logger4nameB5cxx11Ev(ptr noundef nonnull align 8 dereferenceable(68) %228)
          to label %230 unwind label %332, !dbg !5183

230:                                              ; preds = %226
  invoke void @_ZNKSt7__cxx1119basic_ostringstreamIcSt11char_traitsIcESaIcEE3strEv(ptr sret(%"class.std::__cxx11::basic_string") align 8 %27, ptr noundef nonnull align 8 dereferenceable(112) %23)
          to label %231 unwind label %332, !dbg !5183

231:                                              ; preds = %230
  invoke void @_ZN4Poco7MessageC1ERKNSt7__cxx1112basic_stringIcSt11char_traitsIcESaIcEEES8_NS0_8PriorityE(ptr noundef nonnull align 8 dereferenceable(152) %26, ptr noundef nonnull align 8 dereferenceable(32) %229, ptr noundef nonnull align 8 dereferenceable(32) %27, i32 noundef 3)
          to label %232 unwind label %336, !dbg !5183

232:                                              ; preds = %231
  %233 = load ptr, ptr %227, align 8, !dbg !5183
  %234 = getelementptr inbounds ptr, ptr %233, i64 6, !dbg !5183
  %235 = load ptr, ptr %234, align 8, !dbg !5183
  invoke void %235(ptr noundef nonnull align 8 dereferenceable(68) %227, ptr noundef nonnull align 8 dereferenceable(152) %26)
          to label %236 unwind label %340, !dbg !5183

236:                                              ; preds = %232
  call void @_ZN4Poco7MessageD1Ev(ptr noundef nonnull align 8 dereferenceable(152) %26) #3, !dbg !5183
  call void @_ZNSt7__cxx1112basic_stringIcSt11char_traitsIcESaIcEED1Ev(ptr noundef nonnull align 8 dereferenceable(32) %27) #3, !dbg !5183
  call void @_ZNSt7__cxx1119basic_ostringstreamIcSt11char_traitsIcESaIcEED1Ev(ptr noundef nonnull align 8 dereferenceable(112) %23) #3, !dbg !5179
  br label %346, !dbg !5183

237:                                              ; preds = %182
  %238 = load ptr, ptr %5, align 8, !dbg !5111
  %239 = call ptr @__cxa_begin_catch(ptr %238) #3, !dbg !5111
  br label %240, !dbg !5189

240:                                              ; preds = %237
  call void @llvm.dbg.declare(metadata ptr %13, metadata !5190, metadata !DIExpression()), !dbg !5192
  %241 = invoke noundef nonnull align 8 dereferenceable(68) ptr @_ZN3Log6loggerEv()
          to label %242 unwind label %282, !dbg !5192

242:                                              ; preds = %240
  store ptr %241, ptr %13, align 8, !dbg !5192
  %243 = invoke noundef zeroext i1 @_ZN3Log16isShutdownCalledEv()
          to label %244 unwind label %282, !dbg !5193

244:                                              ; preds = %242
  br i1 %243, label %309, label %245, !dbg !5193

245:                                              ; preds = %244
  %246 = load ptr, ptr %13, align 8, !dbg !5193
  %247 = invoke noundef zeroext i1 @_ZNK4Poco6Logger5errorEv(ptr noundef nonnull align 8 dereferenceable(68) %246)
          to label %248 unwind label %282, !dbg !5193

248:                                              ; preds = %245
  br i1 %247, label %249, label %309, !dbg !5192

249:                                              ; preds = %248
  call void @llvm.dbg.declare(metadata ptr %14, metadata !5195, metadata !DIExpression()), !dbg !5197
  call void @llvm.dbg.declare(metadata ptr %15, metadata !5198, metadata !DIExpression()), !dbg !5197
  %250 = getelementptr inbounds [1024 x i8], ptr %14, i64 0, i64 0, !dbg !5197
  %251 = invoke noundef ptr @_ZN3Log6prefixILi1023EEEPcS1_PKc(ptr noundef %250, ptr noundef @.str.14)
          to label %252 unwind label %282, !dbg !5197

252:                                              ; preds = %249
  call void @_ZNSaIcEC1Ev(ptr noundef nonnull align 1 dereferenceable(1) %17) #3, !dbg !5197
  invoke void @_ZNSt7__cxx1112basic_stringIcSt11char_traitsIcESaIcEEC2IS3_EEPKcRKS3_(ptr noundef nonnull align 8 dereferenceable(32) %16, ptr noundef %251, ptr noundef nonnull align 1 dereferenceable(1) %17)
          to label %253 unwind label %286, !dbg !5197

253:                                              ; preds = %252
  invoke void @_ZNSt7__cxx1119basic_ostringstreamIcSt11char_traitsIcESaIcEEC1ERKNS_12basic_stringIcS2_S3_EESt13_Ios_Openmode(ptr noundef nonnull align 8 dereferenceable(112) %15, ptr noundef nonnull align 8 dereferenceable(32) %16, i32 noundef 2)
          to label %254 unwind label %290, !dbg !5197

254:                                              ; preds = %253
  call void @_ZNSt7__cxx1112basic_stringIcSt11char_traitsIcESaIcEED1Ev(ptr noundef nonnull align 8 dereferenceable(32) %16) #3, !dbg !5197
  call void @_ZNSaIcED1Ev(ptr noundef nonnull align 1 dereferenceable(1) %17) #3, !dbg !5197
  %255 = invoke noundef nonnull align 8 dereferenceable(8) ptr @_ZNSolsEPFRSt8ios_baseS0_E(ptr noundef nonnull align 8 dereferenceable(8) %15, ptr noundef @_ZSt9boolalphaRSt8ios_base)
          to label %256 unwind label %295, !dbg !5197

256:                                              ; preds = %254
  %257 = invoke noundef nonnull align 8 dereferenceable(8) ptr @_ZStlsISt11char_traitsIcEERSt13basic_ostreamIcT_ES5_PKc(ptr noundef nonnull align 8 dereferenceable(8) %255, ptr noundef @.str.15)
          to label %258 unwind label %295, !dbg !5197

258:                                              ; preds = %256
  br label %259, !dbg !5197

259:                                              ; preds = %258
  %260 = invoke noundef nonnull align 8 dereferenceable(8) ptr @_ZStlsISt11char_traitsIcEERSt13basic_ostreamIcT_ES5_PKc(ptr noundef nonnull align 8 dereferenceable(8) %15, ptr noundef @.str.16)
          to label %261 unwind label %295, !dbg !5199

261:                                              ; preds = %259
  %262 = invoke noundef nonnull align 8 dereferenceable(8) ptr @_ZStlsISt11char_traitsIcEERSt13basic_ostreamIcT_ES5_PKc(ptr noundef nonnull align 8 dereferenceable(8) %260, ptr noundef @.str.17)
          to label %263 unwind label %295, !dbg !5199

263:                                              ; preds = %261
  %264 = invoke noundef nonnull align 8 dereferenceable(8) ptr @_ZStlsISt11char_traitsIcEERSt13basic_ostreamIcT_ES5_c(ptr noundef nonnull align 8 dereferenceable(8) %262, i8 noundef signext 58)
          to label %265 unwind label %295, !dbg !5199

265:                                              ; preds = %263
  %266 = invoke noundef nonnull align 8 dereferenceable(8) ptr @_ZNSolsEi(ptr noundef nonnull align 8 dereferenceable(8) %264, i32 noundef 159)
          to label %267 unwind label %295, !dbg !5199

267:                                              ; preds = %265
  %268 = invoke noundef nonnull align 8 dereferenceable(8) ptr @_ZNSo5flushEv(ptr noundef nonnull align 8 dereferenceable(8) %15)
          to label %269 unwind label %295, !dbg !5202

269:                                              ; preds = %267
  br label %270, !dbg !5202

270:                                              ; preds = %269
  br label %271, !dbg !5202

271:                                              ; preds = %270
  %272 = load ptr, ptr %13, align 8, !dbg !5197
  %273 = load ptr, ptr %13, align 8, !dbg !5197
  %274 = invoke noundef nonnull align 8 dereferenceable(32) ptr @_ZNK4Poco6Logger4nameB5cxx11Ev(ptr noundef nonnull align 8 dereferenceable(68) %273)
          to label %275 unwind label %295, !dbg !5197

275:                                              ; preds = %271
  invoke void @_ZNKSt7__cxx1119basic_ostringstreamIcSt11char_traitsIcESaIcEE3strEv(ptr sret(%"class.std::__cxx11::basic_string") align 8 %19, ptr noundef nonnull align 8 dereferenceable(112) %15)
          to label %276 unwind label %295, !dbg !5197

276:                                              ; preds = %275
  invoke void @_ZN4Poco7MessageC1ERKNSt7__cxx1112basic_stringIcSt11char_traitsIcESaIcEEES8_NS0_8PriorityE(ptr noundef nonnull align 8 dereferenceable(152) %18, ptr noundef nonnull align 8 dereferenceable(32) %274, ptr noundef nonnull align 8 dereferenceable(32) %19, i32 noundef 3)
          to label %277 unwind label %299, !dbg !5197

277:                                              ; preds = %276
  %278 = load ptr, ptr %272, align 8, !dbg !5197
  %279 = getelementptr inbounds ptr, ptr %278, i64 6, !dbg !5197
  %280 = load ptr, ptr %279, align 8, !dbg !5197
  invoke void %280(ptr noundef nonnull align 8 dereferenceable(68) %272, ptr noundef nonnull align 8 dereferenceable(152) %18)
          to label %281 unwind label %303, !dbg !5197

281:                                              ; preds = %277
  call void @_ZN4Poco7MessageD1Ev(ptr noundef nonnull align 8 dereferenceable(152) %18) #3, !dbg !5197
  call void @_ZNSt7__cxx1112basic_stringIcSt11char_traitsIcESaIcEED1Ev(ptr noundef nonnull align 8 dereferenceable(32) %19) #3, !dbg !5197
  call void @_ZNSt7__cxx1119basic_ostringstreamIcSt11char_traitsIcESaIcEED1Ev(ptr noundef nonnull align 8 dereferenceable(112) %15) #3, !dbg !5193
  br label %309, !dbg !5197

282:                                              ; preds = %249, %245, %242, %240
  %283 = landingpad { ptr, i32 }
          cleanup, !dbg !5203
  %284 = extractvalue { ptr, i32 } %283, 0, !dbg !5203
  store ptr %284, ptr %5, align 8, !dbg !5203
  %285 = extractvalue { ptr, i32 } %283, 1, !dbg !5203
  store i32 %285, ptr %6, align 4, !dbg !5203
  br label %317, !dbg !5203

286:                                              ; preds = %252
  %287 = landingpad { ptr, i32 }
          cleanup, !dbg !5204
  %288 = extractvalue { ptr, i32 } %287, 0, !dbg !5204
  store ptr %288, ptr %5, align 8, !dbg !5204
  %289 = extractvalue { ptr, i32 } %287, 1, !dbg !5204
  store i32 %289, ptr %6, align 4, !dbg !5204
  br label %294, !dbg !5204

290:                                              ; preds = %253
  %291 = landingpad { ptr, i32 }
          cleanup, !dbg !5204
  %292 = extractvalue { ptr, i32 } %291, 0, !dbg !5204
  store ptr %292, ptr %5, align 8, !dbg !5204
  %293 = extractvalue { ptr, i32 } %291, 1, !dbg !5204
  store i32 %293, ptr %6, align 4, !dbg !5204
  call void @_ZNSt7__cxx1112basic_stringIcSt11char_traitsIcESaIcEED1Ev(ptr noundef nonnull align 8 dereferenceable(32) %16) #3, !dbg !5197
  br label %294, !dbg !5197

294:                                              ; preds = %290, %286
  call void @_ZNSaIcED1Ev(ptr noundef nonnull align 1 dereferenceable(1) %17) #3, !dbg !5197
  br label %317, !dbg !5197

295:                                              ; preds = %275, %271, %267, %265, %263, %261, %259, %256, %254
  %296 = landingpad { ptr, i32 }
          cleanup, !dbg !5204
  %297 = extractvalue { ptr, i32 } %296, 0, !dbg !5204
  store ptr %297, ptr %5, align 8, !dbg !5204
  %298 = extractvalue { ptr, i32 } %296, 1, !dbg !5204
  store i32 %298, ptr %6, align 4, !dbg !5204
  br label %308, !dbg !5204

299:                                              ; preds = %276
  %300 = landingpad { ptr, i32 }
          cleanup, !dbg !5204
  %301 = extractvalue { ptr, i32 } %300, 0, !dbg !5204
  store ptr %301, ptr %5, align 8, !dbg !5204
  %302 = extractvalue { ptr, i32 } %300, 1, !dbg !5204
  store i32 %302, ptr %6, align 4, !dbg !5204
  br label %307, !dbg !5204

303:                                              ; preds = %277
  %304 = landingpad { ptr, i32 }
          cleanup, !dbg !5204
  %305 = extractvalue { ptr, i32 } %304, 0, !dbg !5204
  store ptr %305, ptr %5, align 8, !dbg !5204
  %306 = extractvalue { ptr, i32 } %304, 1, !dbg !5204
  store i32 %306, ptr %6, align 4, !dbg !5204
  call void @_ZN4Poco7MessageD1Ev(ptr noundef nonnull align 8 dereferenceable(152) %18) #3, !dbg !5197
  br label %307, !dbg !5197

307:                                              ; preds = %303, %299
  call void @_ZNSt7__cxx1112basic_stringIcSt11char_traitsIcESaIcEED1Ev(ptr noundef nonnull align 8 dereferenceable(32) %19) #3, !dbg !5197
  br label %308, !dbg !5197

308:                                              ; preds = %307, %295
  call void @_ZNSt7__cxx1119basic_ostringstreamIcSt11char_traitsIcESaIcEED1Ev(ptr noundef nonnull align 8 dereferenceable(112) %15) #3, !dbg !5193
  br label %317, !dbg !5193

309:                                              ; preds = %281, %248, %244
  br label %310, !dbg !5192

310:                                              ; preds = %309
  br label %311, !dbg !5192

311:                                              ; preds = %310
  invoke void @__cxa_end_catch()
          to label %312 unwind label %313, !dbg !5173

312:                                              ; preds = %311
  br label %438, !dbg !5173

313:                                              ; preds = %436, %385, %348, %311
  %314 = landingpad { ptr, i32 }
          cleanup, !dbg !5205
  %315 = extractvalue { ptr, i32 } %314, 0, !dbg !5205
  store ptr %315, ptr %5, align 8, !dbg !5205
  %316 = extractvalue { ptr, i32 } %314, 1, !dbg !5205
  store i32 %316, ptr %6, align 4, !dbg !5205
  br label %444, !dbg !5205

317:                                              ; preds = %308, %294, %282
  invoke void @__cxa_end_catch()
          to label %318 unwind label %450, !dbg !5173

318:                                              ; preds = %317
  br label %444, !dbg !5173

319:                                              ; preds = %197, %193, %190, %188
  %320 = landingpad { ptr, i32 }
          cleanup, !dbg !5206
  %321 = extractvalue { ptr, i32 } %320, 0, !dbg !5206
  store ptr %321, ptr %5, align 8, !dbg !5206
  %322 = extractvalue { ptr, i32 } %320, 1, !dbg !5206
  store i32 %322, ptr %6, align 4, !dbg !5206
  br label %350, !dbg !5206

323:                                              ; preds = %200
  %324 = landingpad { ptr, i32 }
          cleanup, !dbg !5207
  %325 = extractvalue { ptr, i32 } %324, 0, !dbg !5207
  store ptr %325, ptr %5, align 8, !dbg !5207
  %326 = extractvalue { ptr, i32 } %324, 1, !dbg !5207
  store i32 %326, ptr %6, align 4, !dbg !5207
  br label %331, !dbg !5207

327:                                              ; preds = %201
  %328 = landingpad { ptr, i32 }
          cleanup, !dbg !5207
  %329 = extractvalue { ptr, i32 } %328, 0, !dbg !5207
  store ptr %329, ptr %5, align 8, !dbg !5207
  %330 = extractvalue { ptr, i32 } %328, 1, !dbg !5207
  store i32 %330, ptr %6, align 4, !dbg !5207
  call void @_ZNSt7__cxx1112basic_stringIcSt11char_traitsIcESaIcEED1Ev(ptr noundef nonnull align 8 dereferenceable(32) %24) #3, !dbg !5183
  br label %331, !dbg !5183

331:                                              ; preds = %327, %323
  call void @_ZNSaIcED1Ev(ptr noundef nonnull align 1 dereferenceable(1) %25) #3, !dbg !5183
  br label %350, !dbg !5183

332:                                              ; preds = %230, %226, %222, %220, %218, %216, %214, %206, %204, %202
  %333 = landingpad { ptr, i32 }
          cleanup, !dbg !5207
  %334 = extractvalue { ptr, i32 } %333, 0, !dbg !5207
  store ptr %334, ptr %5, align 8, !dbg !5207
  %335 = extractvalue { ptr, i32 } %333, 1, !dbg !5207
  store i32 %335, ptr %6, align 4, !dbg !5207
  br label %345, !dbg !5207

336:                                              ; preds = %231
  %337 = landingpad { ptr, i32 }
          cleanup, !dbg !5207
  %338 = extractvalue { ptr, i32 } %337, 0, !dbg !5207
  store ptr %338, ptr %5, align 8, !dbg !5207
  %339 = extractvalue { ptr, i32 } %337, 1, !dbg !5207
  store i32 %339, ptr %6, align 4, !dbg !5207
  br label %344, !dbg !5207

340:                                              ; preds = %232
  %341 = landingpad { ptr, i32 }
          cleanup, !dbg !5207
  %342 = extractvalue { ptr, i32 } %341, 0, !dbg !5207
  store ptr %342, ptr %5, align 8, !dbg !5207
  %343 = extractvalue { ptr, i32 } %341, 1, !dbg !5207
  store i32 %343, ptr %6, align 4, !dbg !5207
  call void @_ZN4Poco7MessageD1Ev(ptr noundef nonnull align 8 dereferenceable(152) %26) #3, !dbg !5183
  br label %344, !dbg !5183

344:                                              ; preds = %340, %336
  call void @_ZNSt7__cxx1112basic_stringIcSt11char_traitsIcESaIcEED1Ev(ptr noundef nonnull align 8 dereferenceable(32) %27) #3, !dbg !5183
  br label %345, !dbg !5183

345:                                              ; preds = %344, %332
  call void @_ZNSt7__cxx1119basic_ostringstreamIcSt11char_traitsIcESaIcEED1Ev(ptr noundef nonnull align 8 dereferenceable(112) %23) #3, !dbg !5179
  br label %350, !dbg !5179

346:                                              ; preds = %236, %196, %192
  br label %347, !dbg !5178

347:                                              ; preds = %346
  br label %348, !dbg !5178

348:                                              ; preds = %347
  invoke void @__cxa_end_catch()
          to label %349 unwind label %313, !dbg !5153

349:                                              ; preds = %348
  br label %438, !dbg !5153

350:                                              ; preds = %345, %331, %319
  invoke void @__cxa_end_catch()
          to label %351 unwind label %450, !dbg !5153

351:                                              ; preds = %350
  br label %444, !dbg !5153

352:                                              ; preds = %145, %141, %138, %136
  %353 = landingpad { ptr, i32 }
          cleanup, !dbg !5208
  %354 = extractvalue { ptr, i32 } %353, 0, !dbg !5208
  store ptr %354, ptr %5, align 8, !dbg !5208
  %355 = extractvalue { ptr, i32 } %353, 1, !dbg !5208
  store i32 %355, ptr %6, align 4, !dbg !5208
  br label %387, !dbg !5208

356:                                              ; preds = %148
  %357 = landingpad { ptr, i32 }
          cleanup, !dbg !5209
  %358 = extractvalue { ptr, i32 } %357, 0, !dbg !5209
  store ptr %358, ptr %5, align 8, !dbg !5209
  %359 = extractvalue { ptr, i32 } %357, 1, !dbg !5209
  store i32 %359, ptr %6, align 4, !dbg !5209
  br label %364, !dbg !5209

360:                                              ; preds = %149
  %361 = landingpad { ptr, i32 }
          cleanup, !dbg !5209
  %362 = extractvalue { ptr, i32 } %361, 0, !dbg !5209
  store ptr %362, ptr %5, align 8, !dbg !5209
  %363 = extractvalue { ptr, i32 } %361, 1, !dbg !5209
  store i32 %363, ptr %6, align 4, !dbg !5209
  call void @_ZNSt7__cxx1112basic_stringIcSt11char_traitsIcESaIcEED1Ev(ptr noundef nonnull align 8 dereferenceable(32) %32) #3, !dbg !5163
  br label %364, !dbg !5163

364:                                              ; preds = %360, %356
  call void @_ZNSaIcED1Ev(ptr noundef nonnull align 1 dereferenceable(1) %33) #3, !dbg !5163
  br label %387, !dbg !5163

365:                                              ; preds = %175, %171, %167, %165, %163, %161, %159, %154, %152, %150
  %366 = landingpad { ptr, i32 }
          cleanup, !dbg !5209
  %367 = extractvalue { ptr, i32 } %366, 0, !dbg !5209
  store ptr %367, ptr %5, align 8, !dbg !5209
  %368 = extractvalue { ptr, i32 } %366, 1, !dbg !5209
  store i32 %368, ptr %6, align 4, !dbg !5209
  br label %382, !dbg !5209

369:                                              ; preds = %156
  %370 = landingpad { ptr, i32 }
          cleanup, !dbg !5209
  %371 = extractvalue { ptr, i32 } %370, 0, !dbg !5209
  store ptr %371, ptr %5, align 8, !dbg !5209
  %372 = extractvalue { ptr, i32 } %370, 1, !dbg !5209
  store i32 %372, ptr %6, align 4, !dbg !5209
  call void @_ZNSt7__cxx1112basic_stringIcSt11char_traitsIcESaIcEED1Ev(ptr noundef nonnull align 8 dereferenceable(32) %34) #3, !dbg !5163
  br label %382, !dbg !5163

373:                                              ; preds = %176
  %374 = landingpad { ptr, i32 }
          cleanup, !dbg !5209
  %375 = extractvalue { ptr, i32 } %374, 0, !dbg !5209
  store ptr %375, ptr %5, align 8, !dbg !5209
  %376 = extractvalue { ptr, i32 } %374, 1, !dbg !5209
  store i32 %376, ptr %6, align 4, !dbg !5209
  br label %381, !dbg !5209

377:                                              ; preds = %177
  %378 = landingpad { ptr, i32 }
          cleanup, !dbg !5209
  %379 = extractvalue { ptr, i32 } %378, 0, !dbg !5209
  store ptr %379, ptr %5, align 8, !dbg !5209
  %380 = extractvalue { ptr, i32 } %378, 1, !dbg !5209
  store i32 %380, ptr %6, align 4, !dbg !5209
  call void @_ZN4Poco7MessageD1Ev(ptr noundef nonnull align 8 dereferenceable(152) %35) #3, !dbg !5163
  br label %381, !dbg !5163

381:                                              ; preds = %377, %373
  call void @_ZNSt7__cxx1112basic_stringIcSt11char_traitsIcESaIcEED1Ev(ptr noundef nonnull align 8 dereferenceable(32) %36) #3, !dbg !5163
  br label %382, !dbg !5163

382:                                              ; preds = %381, %369, %365
  call void @_ZNSt7__cxx1119basic_ostringstreamIcSt11char_traitsIcESaIcEED1Ev(ptr noundef nonnull align 8 dereferenceable(112) %31) #3, !dbg !5159
  br label %387, !dbg !5159

383:                                              ; preds = %181, %144, %140
  br label %384, !dbg !5158

384:                                              ; preds = %383
  br label %385, !dbg !5158

385:                                              ; preds = %384
  invoke void @__cxa_end_catch()
          to label %386 unwind label %313, !dbg !5118

386:                                              ; preds = %385
  br label %438, !dbg !5118

387:                                              ; preds = %382, %364, %352
  invoke void @__cxa_end_catch()
          to label %388 unwind label %450, !dbg !5118

388:                                              ; preds = %387
  br label %444, !dbg !5118

389:                                              ; preds = %80
  %390 = landingpad { ptr, i32 }
          cleanup, !dbg !5210
  %391 = extractvalue { ptr, i32 } %390, 0, !dbg !5210
  store ptr %391, ptr %5, align 8, !dbg !5210
  %392 = extractvalue { ptr, i32 } %390, 1, !dbg !5210
  store i32 %392, ptr %6, align 4, !dbg !5210
  br label %440, !dbg !5210

393:                                              ; preds = %84
  %394 = landingpad { ptr, i32 }
          cleanup, !dbg !5210
  %395 = extractvalue { ptr, i32 } %394, 0, !dbg !5210
  store ptr %395, ptr %5, align 8, !dbg !5210
  %396 = extractvalue { ptr, i32 } %394, 1, !dbg !5210
  store i32 %396, ptr %6, align 4, !dbg !5210
  br label %406, !dbg !5210

397:                                              ; preds = %85
  %398 = landingpad { ptr, i32 }
          cleanup, !dbg !5210
  %399 = extractvalue { ptr, i32 } %398, 0, !dbg !5210
  store ptr %399, ptr %5, align 8, !dbg !5210
  %400 = extractvalue { ptr, i32 } %398, 1, !dbg !5210
  store i32 %400, ptr %6, align 4, !dbg !5210
  br label %405, !dbg !5210

401:                                              ; preds = %86
  %402 = landingpad { ptr, i32 }
          cleanup, !dbg !5210
  %403 = extractvalue { ptr, i32 } %402, 0, !dbg !5210
  store ptr %403, ptr %5, align 8, !dbg !5210
  %404 = extractvalue { ptr, i32 } %402, 1, !dbg !5210
  store i32 %404, ptr %6, align 4, !dbg !5210
  call void @_ZNSt7__cxx1112basic_stringIcSt11char_traitsIcESaIcEED1Ev(ptr noundef nonnull align 8 dereferenceable(32) %39) #3, !dbg !5123
  br label %405, !dbg !5123

405:                                              ; preds = %401, %397
  call void @_ZNSt7__cxx1112basic_stringIcSt11char_traitsIcESaIcEED1Ev(ptr noundef nonnull align 8 dereferenceable(32) %40) #3, !dbg !5123
  br label %406, !dbg !5123

406:                                              ; preds = %405, %393
  call void @_ZNSt7__cxx1112basic_stringIcSt11char_traitsIcESaIcEED1Ev(ptr noundef nonnull align 8 dereferenceable(32) %41) #3, !dbg !5123
  br label %440, !dbg !5123

407:                                              ; preds = %97, %93, %90, %88
  %408 = landingpad { ptr, i32 }
          cleanup, !dbg !5211
  %409 = extractvalue { ptr, i32 } %408, 0, !dbg !5211
  store ptr %409, ptr %5, align 8, !dbg !5211
  %410 = extractvalue { ptr, i32 } %408, 1, !dbg !5211
  store i32 %410, ptr %6, align 4, !dbg !5211
  br label %439, !dbg !5211

411:                                              ; preds = %100
  %412 = landingpad { ptr, i32 }
          cleanup, !dbg !5212
  %413 = extractvalue { ptr, i32 } %412, 0, !dbg !5212
  store ptr %413, ptr %5, align 8, !dbg !5212
  %414 = extractvalue { ptr, i32 } %412, 1, !dbg !5212
  store i32 %414, ptr %6, align 4, !dbg !5212
  br label %419, !dbg !5212

415:                                              ; preds = %101
  %416 = landingpad { ptr, i32 }
          cleanup, !dbg !5212
  %417 = extractvalue { ptr, i32 } %416, 0, !dbg !5212
  store ptr %417, ptr %5, align 8, !dbg !5212
  %418 = extractvalue { ptr, i32 } %416, 1, !dbg !5212
  store i32 %418, ptr %6, align 4, !dbg !5212
  call void @_ZNSt7__cxx1112basic_stringIcSt11char_traitsIcESaIcEED1Ev(ptr noundef nonnull align 8 dereferenceable(32) %45) #3, !dbg !5142
  br label %419, !dbg !5142

419:                                              ; preds = %415, %411
  call void @_ZNSaIcED1Ev(ptr noundef nonnull align 1 dereferenceable(1) %46) #3, !dbg !5142
  br label %439, !dbg !5142

420:                                              ; preds = %123, %119, %115, %113, %111, %109, %107, %104, %102
  %421 = landingpad { ptr, i32 }
          cleanup, !dbg !5212
  %422 = extractvalue { ptr, i32 } %421, 0, !dbg !5212
  store ptr %422, ptr %5, align 8, !dbg !5212
  %423 = extractvalue { ptr, i32 } %421, 1, !dbg !5212
  store i32 %423, ptr %6, align 4, !dbg !5212
  br label %433, !dbg !5212

424:                                              ; preds = %124
  %425 = landingpad { ptr, i32 }
          cleanup, !dbg !5212
  %426 = extractvalue { ptr, i32 } %425, 0, !dbg !5212
  store ptr %426, ptr %5, align 8, !dbg !5212
  %427 = extractvalue { ptr, i32 } %425, 1, !dbg !5212
  store i32 %427, ptr %6, align 4, !dbg !5212
  br label %432, !dbg !5212

428:                                              ; preds = %125
  %429 = landingpad { ptr, i32 }
          cleanup, !dbg !5212
  %430 = extractvalue { ptr, i32 } %429, 0, !dbg !5212
  store ptr %430, ptr %5, align 8, !dbg !5212
  %431 = extractvalue { ptr, i32 } %429, 1, !dbg !5212
  store i32 %431, ptr %6, align 4, !dbg !5212
  call void @_ZN4Poco7MessageD1Ev(ptr noundef nonnull align 8 dereferenceable(152) %47) #3, !dbg !5142
  br label %432, !dbg !5142

432:                                              ; preds = %428, %424
  call void @_ZNSt7__cxx1112basic_stringIcSt11char_traitsIcESaIcEED1Ev(ptr noundef nonnull align 8 dereferenceable(32) %48) #3, !dbg !5142
  br label %433, !dbg !5142

433:                                              ; preds = %432, %420
  call void @_ZNSt7__cxx1119basic_ostringstreamIcSt11char_traitsIcESaIcEED1Ev(ptr noundef nonnull align 8 dereferenceable(112) %44) #3, !dbg !5135
  br label %439, !dbg !5135

434:                                              ; preds = %129, %96, %92
  br label %435, !dbg !5134

435:                                              ; preds = %434
  br label %436, !dbg !5134

436:                                              ; preds = %435
  call void @_ZNSt7__cxx1112basic_stringIcSt11char_traitsIcESaIcEED1Ev(ptr noundef nonnull align 8 dereferenceable(32) %38) #3, !dbg !5213
  invoke void @__cxa_end_catch()
          to label %437 unwind label %313, !dbg !5214

437:                                              ; preds = %436
  br label %438, !dbg !5214

438:                                              ; preds = %437, %386, %349, %312
  store ptr null, ptr %2, align 8, !dbg !5215
  store i32 1, ptr %12, align 4
  br label %442, !dbg !5215

439:                                              ; preds = %433, %419, %407
  call void @_ZNSt7__cxx1112basic_stringIcSt11char_traitsIcESaIcEED1Ev(ptr noundef nonnull align 8 dereferenceable(32) %38) #3, !dbg !5213
  br label %440, !dbg !5213

440:                                              ; preds = %439, %406, %389
  invoke void @__cxa_end_catch()
          to label %441 unwind label %450, !dbg !5214

441:                                              ; preds = %440
  br label %444, !dbg !5214

442:                                              ; preds = %438, %54
  call void @_ZNSt7__cxx1112basic_stringIcSt11char_traitsIcESaIcEED1Ev(ptr noundef nonnull align 8 dereferenceable(32) %4) #3, !dbg !5205
  %443 = load ptr, ptr %2, align 8, !dbg !5205
  ret ptr %443, !dbg !5205

444:                                              ; preds = %441, %388, %351, %318, %313
  call void @_ZNSt7__cxx1112basic_stringIcSt11char_traitsIcESaIcEED1Ev(ptr noundef nonnull align 8 dereferenceable(32) %4) #3, !dbg !5205
  br label %445, !dbg !5205

445:                                              ; preds = %444
  %446 = load ptr, ptr %5, align 8, !dbg !5205
  %447 = load i32, ptr %6, align 4, !dbg !5205
  %448 = insertvalue { ptr, i32 } poison, ptr %446, 0, !dbg !5205
  %449 = insertvalue { ptr, i32 } %448, i32 %447, 1, !dbg !5205
  resume { ptr, i32 } %449, !dbg !5205

450:                                              ; preds = %440, %387, %350, %317
  %451 = landingpad { ptr, i32 }
          catch ptr null, !dbg !5173
  %452 = extractvalue { ptr, i32 } %451, 0, !dbg !5173
  call void @__clang_call_terminate(ptr %452) #15, !dbg !5173
  unreachable, !dbg !5173
}

; Function Attrs: mustprogress noinline uwtable
define dso_local void @_ZN5Proof12ProofKeyPathB5cxx11Ev(ptr noalias sret(%"class.std::__cxx11::basic_string") align 8 %0) #5 align 2 personality ptr @__gxx_personality_v0 !dbg !55 {
  %2 = alloca ptr, align 8
  %3 = alloca %"class.std::allocator.0", align 1
  %4 = alloca ptr, align 8
  %5 = alloca i32, align 4
  store ptr %0, ptr %2, align 8
  %6 = load atomic i8, ptr @_ZGVZN5Proof12ProofKeyPathB5cxx11EvE7keyPathB5cxx11 acquire, align 8, !dbg !5216
  %7 = icmp eq i8 %6, 0, !dbg !5216
  br i1 %7, label %8, label %14, !dbg !5216, !prof !5217

8:                                                ; preds = %1
  %9 = call i32 @__cxa_guard_acquire(ptr @_ZGVZN5Proof12ProofKeyPathB5cxx11EvE7keyPathB5cxx11) #3, !dbg !5216
  %10 = icmp ne i32 %9, 0, !dbg !5216
  br i1 %10, label %11, label %14, !dbg !5216

11:                                               ; preds = %8
  call void @_ZNSaIcEC1Ev(ptr noundef nonnull align 1 dereferenceable(1) %3) #3, !dbg !5218
  invoke void @_ZNSt7__cxx1112basic_stringIcSt11char_traitsIcESaIcEEC2IS3_EEPKcRKS3_(ptr noundef nonnull align 8 dereferenceable(32) @_ZZN5Proof12ProofKeyPathB5cxx11EvE7keyPathB5cxx11, ptr noundef @.str.8, ptr noundef nonnull align 1 dereferenceable(1) %3)
          to label %12 unwind label %15, !dbg !5218

12:                                               ; preds = %11
  call void @_ZNSaIcED1Ev(ptr noundef nonnull align 1 dereferenceable(1) %3) #3, !dbg !5218
  %13 = call i32 @__cxa_atexit(ptr @_ZNSt7__cxx1112basic_stringIcSt11char_traitsIcESaIcEED1Ev, ptr @_ZZN5Proof12ProofKeyPathB5cxx11EvE7keyPathB5cxx11, ptr @__dso_handle) #3, !dbg !5216
  call void @__cxa_guard_release(ptr @_ZGVZN5Proof12ProofKeyPathB5cxx11EvE7keyPathB5cxx11) #3, !dbg !5216
  br label %14, !dbg !5216

14:                                               ; preds = %12, %8, %1
  call void @_ZNSt7__cxx1112basic_stringIcSt11char_traitsIcESaIcEEC1ERKS4_(ptr noundef nonnull align 8 dereferenceable(32) %0, ptr noundef nonnull align 8 dereferenceable(32) @_ZZN5Proof12ProofKeyPathB5cxx11EvE7keyPathB5cxx11), !dbg !5219
  ret void, !dbg !5220

15:                                               ; preds = %11
  %16 = landingpad { ptr, i32 }
          cleanup, !dbg !5221
  %17 = extractvalue { ptr, i32 } %16, 0, !dbg !5221
  store ptr %17, ptr %4, align 8, !dbg !5221
  %18 = extractvalue { ptr, i32 } %16, 1, !dbg !5221
  store i32 %18, ptr %5, align 4, !dbg !5221
  call void @_ZNSaIcED1Ev(ptr noundef nonnull align 1 dereferenceable(1) %3) #3, !dbg !5218
  call void @__cxa_guard_abort(ptr @_ZGVZN5Proof12ProofKeyPathB5cxx11EvE7keyPathB5cxx11) #3, !dbg !5216
  br label %19, !dbg !5216

19:                                               ; preds = %15
  %20 = load ptr, ptr %4, align 8, !dbg !5216
  %21 = load i32, ptr %5, align 4, !dbg !5216
  %22 = insertvalue { ptr, i32 } poison, ptr %20, 0, !dbg !5216
  %23 = insertvalue { ptr, i32 } %22, i32 %21, 1, !dbg !5216
  resume { ptr, i32 } %23, !dbg !5216
}

; Function Attrs: nounwind
declare i32 @__cxa_guard_acquire(ptr) #3

; Function Attrs: nounwind
declare void @__cxa_guard_abort(ptr) #3

; Function Attrs: nounwind
declare void @__cxa_guard_release(ptr) #3

declare void @_ZNSt7__cxx1112basic_stringIcSt11char_traitsIcESaIcEEC1ERKS4_(ptr noundef nonnull align 8 dereferenceable(32), ptr noundef nonnull align 8 dereferenceable(32)) unnamed_addr #1

; Function Attrs: mustprogress noinline nounwind uwtable
define linkonce_odr dso_local noundef i64 @_ZNKSt6vectorIhSaIhEE4sizeEv(ptr noundef nonnull align 8 dereferenceable(24) %0) #7 comdat align 2 !dbg !5222 {
  %2 = alloca ptr, align 8
  store ptr %0, ptr %2, align 8
  call void @llvm.dbg.declare(metadata ptr %2, metadata !5223, metadata !DIExpression()), !dbg !5224
  %3 = load ptr, ptr %2, align 8
  %4 = getelementptr inbounds %"struct.std::_Vector_base", ptr %3, i32 0, i32 0, !dbg !5225
  %5 = getelementptr inbounds %"struct.std::_Vector_base<unsigned char, std::allocator<unsigned char>>::_Vector_impl_data", ptr %4, i32 0, i32 1, !dbg !5226
  %6 = load ptr, ptr %5, align 8, !dbg !5226
  %7 = getelementptr inbounds %"struct.std::_Vector_base", ptr %3, i32 0, i32 0, !dbg !5227
  %8 = getelementptr inbounds %"struct.std::_Vector_base<unsigned char, std::allocator<unsigned char>>::_Vector_impl_data", ptr %7, i32 0, i32 0, !dbg !5228
  %9 = load ptr, ptr %8, align 8, !dbg !5228
  %10 = ptrtoint ptr %6 to i64, !dbg !5229
  %11 = ptrtoint ptr %9 to i64, !dbg !5229
  %12 = sub i64 %10, %11, !dbg !5229
  ret i64 %12, !dbg !5230
}

declare ptr @__cxa_allocate_exception(i64)

; Function Attrs: noinline uwtable
define linkonce_odr dso_local void @_ZN10ParseErrorCI2St13runtime_errorEPKc(ptr noundef nonnull align 8 dereferenceable(16) %0, ptr noundef %1) unnamed_addr #0 comdat align 2 !dbg !5231 {
  %3 = alloca ptr, align 8
  %4 = alloca ptr, align 8
  store ptr %0, ptr %3, align 8
  call void @llvm.dbg.declare(metadata ptr %3, metadata !5236, metadata !DIExpression()), !dbg !5238
  store ptr %1, ptr %4, align 8
  call void @llvm.dbg.declare(metadata ptr %4, metadata !5239, metadata !DIExpression()), !dbg !5238
  %5 = load ptr, ptr %3, align 8
  %6 = load ptr, ptr %4, align 8, !dbg !5240
  call void @_ZN13CoolExceptionCI2St13runtime_errorEPKc(ptr noundef nonnull align 8 dereferenceable(16) %5, ptr noundef %6), !dbg !5240
  store ptr getelementptr inbounds ({ [5 x ptr] }, ptr @_ZTV10ParseError, i32 0, inrange i32 0, i32 2), ptr %5, align 8, !dbg !5240
  ret void, !dbg !5240
}

declare void @__cxa_free_exception(ptr)

; Function Attrs: noinline nounwind uwtable
define linkonce_odr dso_local void @_ZN10ParseErrorD2Ev(ptr noundef nonnull align 8 dereferenceable(16) %0) unnamed_addr #4 comdat align 2 !dbg !5241 {
  %2 = alloca ptr, align 8
  store ptr %0, ptr %2, align 8
  call void @llvm.dbg.declare(metadata ptr %2, metadata !5245, metadata !DIExpression()), !dbg !5246
  %3 = load ptr, ptr %2, align 8
  call void @_ZN13CoolExceptionD2Ev(ptr noundef nonnull align 8 dereferenceable(16) %3) #3, !dbg !5247
  ret void, !dbg !5249
}

declare void @__cxa_throw(ptr, ptr, ptr)

; Function Attrs: noinline nounwind uwtable
define linkonce_odr dso_local void @_ZNSaIhEC2Ev(ptr noundef nonnull align 1 dereferenceable(1) %0) unnamed_addr #4 comdat align 2 !dbg !5250 {
  %2 = alloca ptr, align 8
  store ptr %0, ptr %2, align 8
  call void @llvm.dbg.declare(metadata ptr %2, metadata !5251, metadata !DIExpression()), !dbg !5253
  %3 = load ptr, ptr %2, align 8
  call void @_ZN9__gnu_cxx13new_allocatorIhEC2Ev(ptr noundef nonnull align 1 dereferenceable(1) %3) #3, !dbg !5254
  ret void, !dbg !5255
}

; Function Attrs: noinline uwtable
define linkonce_odr dso_local void @_ZNSt6vectorIhSaIhEEC2EmRKS0_(ptr noundef nonnull align 8 dereferenceable(24) %0, i64 noundef %1, ptr noundef nonnull align 1 dereferenceable(1) %2) unnamed_addr #0 comdat align 2 personality ptr @__gxx_personality_v0 !dbg !5256 {
  %4 = alloca ptr, align 8
  %5 = alloca i64, align 8
  %6 = alloca ptr, align 8
  %7 = alloca ptr, align 8
  %8 = alloca i32, align 4
  store ptr %0, ptr %4, align 8
  call void @llvm.dbg.declare(metadata ptr %4, metadata !5257, metadata !DIExpression()), !dbg !5258
  store i64 %1, ptr %5, align 8
  call void @llvm.dbg.declare(metadata ptr %5, metadata !5259, metadata !DIExpression()), !dbg !5260
  store ptr %2, ptr %6, align 8
  call void @llvm.dbg.declare(metadata ptr %6, metadata !5261, metadata !DIExpression()), !dbg !5262
  %9 = load ptr, ptr %4, align 8
  %10 = load i64, ptr %5, align 8, !dbg !5263
  %11 = load ptr, ptr %6, align 8, !dbg !5264
  %12 = call noundef i64 @_ZNSt6vectorIhSaIhEE17_S_check_init_lenEmRKS0_(i64 noundef %10, ptr noundef nonnull align 1 dereferenceable(1) %11), !dbg !5265
  %13 = load ptr, ptr %6, align 8, !dbg !5266
  call void @_ZNSt12_Vector_baseIhSaIhEEC2EmRKS0_(ptr noundef nonnull align 8 dereferenceable(24) %9, i64 noundef %12, ptr noundef nonnull align 1 dereferenceable(1) %13), !dbg !5267
  %14 = load i64, ptr %5, align 8, !dbg !5268
  invoke void @_ZNSt6vectorIhSaIhEE21_M_default_initializeEm(ptr noundef nonnull align 8 dereferenceable(24) %9, i64 noundef %14)
          to label %15 unwind label %16, !dbg !5270

15:                                               ; preds = %3
  ret void, !dbg !5271

16:                                               ; preds = %3
  %17 = landingpad { ptr, i32 }
          cleanup, !dbg !5272
  %18 = extractvalue { ptr, i32 } %17, 0, !dbg !5272
  store ptr %18, ptr %7, align 8, !dbg !5272
  %19 = extractvalue { ptr, i32 } %17, 1, !dbg !5272
  store i32 %19, ptr %8, align 4, !dbg !5272
  call void @_ZNSt12_Vector_baseIhSaIhEED2Ev(ptr noundef nonnull align 8 dereferenceable(24) %9) #3, !dbg !5272
  br label %20, !dbg !5272

20:                                               ; preds = %16
  %21 = load ptr, ptr %7, align 8, !dbg !5272
  %22 = load i32, ptr %8, align 4, !dbg !5272
  %23 = insertvalue { ptr, i32 } poison, ptr %21, 0, !dbg !5272
  %24 = insertvalue { ptr, i32 } %23, i32 %22, 1, !dbg !5272
  resume { ptr, i32 } %24, !dbg !5272
}

; Function Attrs: noinline nounwind uwtable
define linkonce_odr dso_local void @_ZNSaIhED2Ev(ptr noundef nonnull align 1 dereferenceable(1) %0) unnamed_addr #4 comdat align 2 !dbg !5273 {
  %2 = alloca ptr, align 8
  store ptr %0, ptr %2, align 8
  call void @llvm.dbg.declare(metadata ptr %2, metadata !5274, metadata !DIExpression()), !dbg !5275
  %3 = load ptr, ptr %2, align 8
  call void @_ZN9__gnu_cxx13new_allocatorIhED2Ev(ptr noundef nonnull align 1 dereferenceable(1) %3) #3, !dbg !5276
  ret void, !dbg !5278
}

; Function Attrs: mustprogress noinline uwtable
define linkonce_odr dso_local ptr @_ZSt4copyISt16reverse_iteratorIN9__gnu_cxx17__normal_iteratorIPKhSt6vectorIhSaIhEEEEENS2_IPhS7_EEET0_T_SD_SC_(ptr noundef %0, ptr noundef %1, ptr %2) #5 comdat !dbg !5279 {
  %4 = alloca %"class.__gnu_cxx::__normal_iterator.14", align 8
  %5 = alloca %"class.__gnu_cxx::__normal_iterator.14", align 8
  %6 = alloca %"class.std::reverse_iterator", align 8
  %7 = alloca %"class.std::reverse_iterator", align 8
  %8 = alloca %"class.std::reverse_iterator", align 8
  %9 = alloca %"class.std::reverse_iterator", align 8
  %10 = alloca %"class.__gnu_cxx::__normal_iterator.14", align 8
  %11 = getelementptr inbounds %"class.__gnu_cxx::__normal_iterator.14", ptr %5, i32 0, i32 0
  store ptr %2, ptr %11, align 8
  call void @llvm.dbg.declare(metadata ptr %0, metadata !5286, metadata !DIExpression()), !dbg !5288
  call void @llvm.dbg.declare(metadata ptr %1, metadata !5289, metadata !DIExpression()), !dbg !5290
  call void @llvm.dbg.declare(metadata ptr %5, metadata !5291, metadata !DIExpression()), !dbg !5292
  call void @_ZNSt16reverse_iteratorIN9__gnu_cxx17__normal_iteratorIPKhSt6vectorIhSaIhEEEEEC2ERKS8_(ptr noundef nonnull align 8 dereferenceable(8) %7, ptr noundef nonnull align 8 dereferenceable(8) %0), !dbg !5293
  call void @_ZSt12__miter_baseIN9__gnu_cxx17__normal_iteratorIPKhSt6vectorIhSaIhEEEEEDTcl23__make_reverse_iteratorcl12__miter_basecldtfp_4baseEEEESt16reverse_iteratorIT_E(ptr sret(%"class.std::reverse_iterator") align 8 %6, ptr noundef %7), !dbg !5294
  call void @_ZNSt16reverse_iteratorIN9__gnu_cxx17__normal_iteratorIPKhSt6vectorIhSaIhEEEEEC2ERKS8_(ptr noundef nonnull align 8 dereferenceable(8) %9, ptr noundef nonnull align 8 dereferenceable(8) %1), !dbg !5295
  call void @_ZSt12__miter_baseIN9__gnu_cxx17__normal_iteratorIPKhSt6vectorIhSaIhEEEEEDTcl23__make_reverse_iteratorcl12__miter_basecldtfp_4baseEEEESt16reverse_iteratorIT_E(ptr sret(%"class.std::reverse_iterator") align 8 %8, ptr noundef %9), !dbg !5296
  call void @llvm.memcpy.p0.p0.i64(ptr align 8 %10, ptr align 8 %5, i64 8, i1 false), !dbg !5297
  %12 = getelementptr inbounds %"class.__gnu_cxx::__normal_iterator.14", ptr %10, i32 0, i32 0, !dbg !5298
  %13 = load ptr, ptr %12, align 8, !dbg !5298
  %14 = call ptr @_ZSt13__copy_move_aILb0ESt16reverse_iteratorIN9__gnu_cxx17__normal_iteratorIPKhSt6vectorIhSaIhEEEEENS2_IPhS7_EEET1_T0_SD_SC_(ptr noundef %6, ptr noundef %8, ptr %13), !dbg !5298
  %15 = getelementptr inbounds %"class.__gnu_cxx::__normal_iterator.14", ptr %4, i32 0, i32 0, !dbg !5298
  store ptr %14, ptr %15, align 8, !dbg !5298
  %16 = getelementptr inbounds %"class.__gnu_cxx::__normal_iterator.14", ptr %4, i32 0, i32 0, !dbg !5299
  %17 = load ptr, ptr %16, align 8, !dbg !5299
  ret ptr %17, !dbg !5299
}

; Function Attrs: mustprogress noinline nounwind uwtable
define linkonce_odr dso_local void @_ZNKSt6vectorIhSaIhEE6rbeginEv(ptr noalias sret(%"class.std::reverse_iterator") align 8 %0, ptr noundef nonnull align 8 dereferenceable(24) %1) #7 comdat align 2 personality ptr @__gxx_personality_v0 !dbg !5300 {
  %3 = alloca ptr, align 8
  %4 = alloca ptr, align 8
  %5 = alloca %"class.__gnu_cxx::__normal_iterator.4", align 8
  store ptr %0, ptr %3, align 8
  store ptr %1, ptr %4, align 8
  call void @llvm.dbg.declare(metadata ptr %4, metadata !5301, metadata !DIExpression()), !dbg !5302
  %6 = load ptr, ptr %4, align 8
  %7 = call ptr @_ZNKSt6vectorIhSaIhEE3endEv(ptr noundef nonnull align 8 dereferenceable(24) %6) #3, !dbg !5303
  %8 = getelementptr inbounds %"class.__gnu_cxx::__normal_iterator.4", ptr %5, i32 0, i32 0, !dbg !5303
  store ptr %7, ptr %8, align 8, !dbg !5303
  %9 = getelementptr inbounds %"class.__gnu_cxx::__normal_iterator.4", ptr %5, i32 0, i32 0, !dbg !5304
  %10 = load ptr, ptr %9, align 8, !dbg !5304
  invoke void @_ZNSt16reverse_iteratorIN9__gnu_cxx17__normal_iteratorIPKhSt6vectorIhSaIhEEEEEC2ES7_(ptr noundef nonnull align 8 dereferenceable(8) %0, ptr %10)
          to label %11 unwind label %12, !dbg !5304

11:                                               ; preds = %2
  ret void, !dbg !5305

12:                                               ; preds = %2
  %13 = landingpad { ptr, i32 }
          catch ptr null, !dbg !5304
  %14 = extractvalue { ptr, i32 } %13, 0, !dbg !5304
  call void @__clang_call_terminate(ptr %14) #15, !dbg !5304
  unreachable, !dbg !5304
}

; Function Attrs: mustprogress noinline nounwind uwtable
define linkonce_odr dso_local void @_ZNKSt6vectorIhSaIhEE4rendEv(ptr noalias sret(%"class.std::reverse_iterator") align 8 %0, ptr noundef nonnull align 8 dereferenceable(24) %1) #7 comdat align 2 personality ptr @__gxx_personality_v0 !dbg !5306 {
  %3 = alloca ptr, align 8
  %4 = alloca ptr, align 8
  %5 = alloca %"class.__gnu_cxx::__normal_iterator.4", align 8
  store ptr %0, ptr %3, align 8
  store ptr %1, ptr %4, align 8
  call void @llvm.dbg.declare(metadata ptr %4, metadata !5307, metadata !DIExpression()), !dbg !5308
  %6 = load ptr, ptr %4, align 8
  %7 = call ptr @_ZNKSt6vectorIhSaIhEE5beginEv(ptr noundef nonnull align 8 dereferenceable(24) %6) #3, !dbg !5309
  %8 = getelementptr inbounds %"class.__gnu_cxx::__normal_iterator.4", ptr %5, i32 0, i32 0, !dbg !5309
  store ptr %7, ptr %8, align 8, !dbg !5309
  %9 = getelementptr inbounds %"class.__gnu_cxx::__normal_iterator.4", ptr %5, i32 0, i32 0, !dbg !5310
  %10 = load ptr, ptr %9, align 8, !dbg !5310
  invoke void @_ZNSt16reverse_iteratorIN9__gnu_cxx17__normal_iteratorIPKhSt6vectorIhSaIhEEEEEC2ES7_(ptr noundef nonnull align 8 dereferenceable(8) %0, ptr %10)
          to label %11 unwind label %12, !dbg !5310

11:                                               ; preds = %2
  ret void, !dbg !5311

12:                                               ; preds = %2
  %13 = landingpad { ptr, i32 }
          catch ptr null, !dbg !5310
  %14 = extractvalue { ptr, i32 } %13, 0, !dbg !5310
  call void @__clang_call_terminate(ptr %14) #15, !dbg !5310
  unreachable, !dbg !5310
}

; Function Attrs: mustprogress noinline nounwind uwtable
define linkonce_odr dso_local ptr @_ZNSt6vectorIhSaIhEE5beginEv(ptr noundef nonnull align 8 dereferenceable(24) %0) #7 comdat align 2 !dbg !5312 {
  %2 = alloca %"class.__gnu_cxx::__normal_iterator.14", align 8
  %3 = alloca ptr, align 8
  store ptr %0, ptr %3, align 8
  call void @llvm.dbg.declare(metadata ptr %3, metadata !5313, metadata !DIExpression()), !dbg !5314
  %4 = load ptr, ptr %3, align 8
  %5 = getelementptr inbounds %"struct.std::_Vector_base", ptr %4, i32 0, i32 0, !dbg !5315
  %6 = getelementptr inbounds %"struct.std::_Vector_base<unsigned char, std::allocator<unsigned char>>::_Vector_impl_data", ptr %5, i32 0, i32 0, !dbg !5316
  call void @_ZN9__gnu_cxx17__normal_iteratorIPhSt6vectorIhSaIhEEEC2ERKS1_(ptr noundef nonnull align 8 dereferenceable(8) %2, ptr noundef nonnull align 8 dereferenceable(8) %6) #3, !dbg !5317
  %7 = getelementptr inbounds %"class.__gnu_cxx::__normal_iterator.14", ptr %2, i32 0, i32 0, !dbg !5318
  %8 = load ptr, ptr %7, align 8, !dbg !5318
  ret ptr %8, !dbg !5318
}

; Function Attrs: noinline uwtable
define linkonce_odr dso_local void @_ZNSt6vectorIhSaIhEEC2ESt16initializer_listIhERKS0_(ptr noundef nonnull align 8 dereferenceable(24) %0, ptr %1, i64 %2, ptr noundef nonnull align 1 dereferenceable(1) %3) unnamed_addr #0 comdat align 2 personality ptr @__gxx_personality_v0 !dbg !5319 {
  %5 = alloca %"class.std::initializer_list", align 8
  %6 = alloca ptr, align 8
  %7 = alloca ptr, align 8
  %8 = alloca %"struct.std::forward_iterator_tag", align 1
  %9 = alloca %"struct.std::random_access_iterator_tag", align 1
  %10 = alloca ptr, align 8
  %11 = alloca i32, align 4
  %12 = getelementptr inbounds { ptr, i64 }, ptr %5, i32 0, i32 0
  store ptr %1, ptr %12, align 8
  %13 = getelementptr inbounds { ptr, i64 }, ptr %5, i32 0, i32 1
  store i64 %2, ptr %13, align 8
  store ptr %0, ptr %6, align 8
  call void @llvm.dbg.declare(metadata ptr %6, metadata !5320, metadata !DIExpression()), !dbg !5321
  call void @llvm.dbg.declare(metadata ptr %5, metadata !5322, metadata !DIExpression()), !dbg !5323
  store ptr %3, ptr %7, align 8
  call void @llvm.dbg.declare(metadata ptr %7, metadata !5324, metadata !DIExpression()), !dbg !5325
  %14 = load ptr, ptr %6, align 8
  %15 = load ptr, ptr %7, align 8, !dbg !5326
  call void @_ZNSt12_Vector_baseIhSaIhEEC2ERKS0_(ptr noundef nonnull align 8 dereferenceable(24) %14, ptr noundef nonnull align 1 dereferenceable(1) %15) #3, !dbg !5327
  %16 = call noundef ptr @_ZNKSt16initializer_listIhE5beginEv(ptr noundef nonnull align 8 dereferenceable(16) %5) #3, !dbg !5328
  %17 = call noundef ptr @_ZNKSt16initializer_listIhE3endEv(ptr noundef nonnull align 8 dereferenceable(16) %5) #3, !dbg !5330
  invoke void @_ZNSt6vectorIhSaIhEE19_M_range_initializeIPKhEEvT_S5_St20forward_iterator_tag(ptr noundef nonnull align 8 dereferenceable(24) %14, ptr noundef %16, ptr noundef %17)
          to label %18 unwind label %19, !dbg !5331

18:                                               ; preds = %4
  ret void, !dbg !5332

19:                                               ; preds = %4
  %20 = landingpad { ptr, i32 }
          cleanup, !dbg !5333
  %21 = extractvalue { ptr, i32 } %20, 0, !dbg !5333
  store ptr %21, ptr %10, align 8, !dbg !5333
  %22 = extractvalue { ptr, i32 } %20, 1, !dbg !5333
  store i32 %22, ptr %11, align 4, !dbg !5333
  call void @_ZNSt12_Vector_baseIhSaIhEED2Ev(ptr noundef nonnull align 8 dereferenceable(24) %14) #3, !dbg !5333
  br label %23, !dbg !5333

23:                                               ; preds = %19
  %24 = load ptr, ptr %10, align 8, !dbg !5333
  %25 = load i32, ptr %11, align 4, !dbg !5333
  %26 = insertvalue { ptr, i32 } poison, ptr %24, 0, !dbg !5333
  %27 = insertvalue { ptr, i32 } %26, i32 %25, 1, !dbg !5333
  resume { ptr, i32 } %27, !dbg !5333
}

; Function Attrs: mustprogress noinline uwtable
define internal void @_ZN12_GLOBAL__N_19ToLEBytesIjEESt6vectorIhSaIhEERKT_(ptr noalias sret(%"class.std::vector") align 8 %0, ptr noundef nonnull align 4 dereferenceable(4) %1) #5 !dbg !5334 {
  %3 = alloca ptr, align 8
  %4 = alloca ptr, align 8
  store ptr %0, ptr %3, align 8
  store ptr %1, ptr %4, align 8
  call void @llvm.dbg.declare(metadata ptr %4, metadata !5342, metadata !DIExpression()), !dbg !5343
  %5 = load ptr, ptr %4, align 8, !dbg !5344
  call void @_ZN12_GLOBAL__N_110getBytesLEEPKhm(ptr sret(%"class.std::vector") align 8 %0, ptr noundef %5, i64 noundef 4), !dbg !5345
  ret void, !dbg !5346
}

; Function Attrs: mustprogress noinline uwtable
define linkonce_odr dso_local void @_ZNSt6vectorIhSaIhEE7reserveEm(ptr noundef nonnull align 8 dereferenceable(24) %0, i64 noundef %1) #5 comdat align 2 !dbg !5347 {
  %3 = alloca ptr, align 8
  %4 = alloca i64, align 8
  %5 = alloca i64, align 8
  %6 = alloca ptr, align 8
  store ptr %0, ptr %3, align 8
  call void @llvm.dbg.declare(metadata ptr %3, metadata !5348, metadata !DIExpression()), !dbg !5349
  store i64 %1, ptr %4, align 8
  call void @llvm.dbg.declare(metadata ptr %4, metadata !5350, metadata !DIExpression()), !dbg !5351
  %7 = load ptr, ptr %3, align 8
  %8 = load i64, ptr %4, align 8, !dbg !5352
  %9 = call noundef i64 @_ZNKSt6vectorIhSaIhEE8max_sizeEv(ptr noundef nonnull align 8 dereferenceable(24) %7) #3, !dbg !5354
  %10 = icmp ugt i64 %8, %9, !dbg !5355
  br i1 %10, label %11, label %12, !dbg !5356

11:                                               ; preds = %2
  call void @_ZSt20__throw_length_errorPKc(ptr noundef @.str.26) #16, !dbg !5357
  unreachable, !dbg !5357

12:                                               ; preds = %2
  %13 = call noundef i64 @_ZNKSt6vectorIhSaIhEE8capacityEv(ptr noundef nonnull align 8 dereferenceable(24) %7) #3, !dbg !5358
  %14 = load i64, ptr %4, align 8, !dbg !5360
  %15 = icmp ult i64 %13, %14, !dbg !5361
  br i1 %15, label %16, label %56, !dbg !5362

16:                                               ; preds = %12
  call void @llvm.dbg.declare(metadata ptr %5, metadata !5363, metadata !DIExpression()), !dbg !5366
  %17 = call noundef i64 @_ZNKSt6vectorIhSaIhEE4sizeEv(ptr noundef nonnull align 8 dereferenceable(24) %7) #3, !dbg !5367
  store i64 %17, ptr %5, align 8, !dbg !5366
  call void @llvm.dbg.declare(metadata ptr %6, metadata !5368, metadata !DIExpression()), !dbg !5369
  %18 = load i64, ptr %4, align 8, !dbg !5370
  %19 = call noundef ptr @_ZNSt12_Vector_baseIhSaIhEE11_M_allocateEm(ptr noundef nonnull align 8 dereferenceable(24) %7, i64 noundef %18), !dbg !5373
  store ptr %19, ptr %6, align 8, !dbg !5374
  %20 = getelementptr inbounds %"struct.std::_Vector_base", ptr %7, i32 0, i32 0, !dbg !5375
  %21 = getelementptr inbounds %"struct.std::_Vector_base<unsigned char, std::allocator<unsigned char>>::_Vector_impl_data", ptr %20, i32 0, i32 0, !dbg !5376
  %22 = load ptr, ptr %21, align 8, !dbg !5376
  %23 = getelementptr inbounds %"struct.std::_Vector_base", ptr %7, i32 0, i32 0, !dbg !5377
  %24 = getelementptr inbounds %"struct.std::_Vector_base<unsigned char, std::allocator<unsigned char>>::_Vector_impl_data", ptr %23, i32 0, i32 1, !dbg !5378
  %25 = load ptr, ptr %24, align 8, !dbg !5378
  %26 = load ptr, ptr %6, align 8, !dbg !5379
  %27 = call noundef nonnull align 1 dereferenceable(1) ptr @_ZNSt12_Vector_baseIhSaIhEE19_M_get_Tp_allocatorEv(ptr noundef nonnull align 8 dereferenceable(24) %7) #3, !dbg !5380
  %28 = call noundef ptr @_ZNSt6vectorIhSaIhEE11_S_relocateEPhS2_S2_RS0_(ptr noundef %22, ptr noundef %25, ptr noundef %26, ptr noundef nonnull align 1 dereferenceable(1) %27) #3, !dbg !5381
  %29 = getelementptr inbounds %"struct.std::_Vector_base", ptr %7, i32 0, i32 0, !dbg !5382
  %30 = getelementptr inbounds %"struct.std::_Vector_base<unsigned char, std::allocator<unsigned char>>::_Vector_impl_data", ptr %29, i32 0, i32 0, !dbg !5383
  %31 = load ptr, ptr %30, align 8, !dbg !5383
  %32 = getelementptr inbounds %"struct.std::_Vector_base", ptr %7, i32 0, i32 0, !dbg !5384
  %33 = getelementptr inbounds %"struct.std::_Vector_base<unsigned char, std::allocator<unsigned char>>::_Vector_impl_data", ptr %32, i32 0, i32 2, !dbg !5385
  %34 = load ptr, ptr %33, align 8, !dbg !5385
  %35 = getelementptr inbounds %"struct.std::_Vector_base", ptr %7, i32 0, i32 0, !dbg !5386
  %36 = getelementptr inbounds %"struct.std::_Vector_base<unsigned char, std::allocator<unsigned char>>::_Vector_impl_data", ptr %35, i32 0, i32 0, !dbg !5387
  %37 = load ptr, ptr %36, align 8, !dbg !5387
  %38 = ptrtoint ptr %34 to i64, !dbg !5388
  %39 = ptrtoint ptr %37 to i64, !dbg !5388
  %40 = sub i64 %38, %39, !dbg !5388
  call void @_ZNSt12_Vector_baseIhSaIhEE13_M_deallocateEPhm(ptr noundef nonnull align 8 dereferenceable(24) %7, ptr noundef %31, i64 noundef %40), !dbg !5389
  %41 = load ptr, ptr %6, align 8, !dbg !5390
  %42 = getelementptr inbounds %"struct.std::_Vector_base", ptr %7, i32 0, i32 0, !dbg !5391
  %43 = getelementptr inbounds %"struct.std::_Vector_base<unsigned char, std::allocator<unsigned char>>::_Vector_impl_data", ptr %42, i32 0, i32 0, !dbg !5392
  store ptr %41, ptr %43, align 8, !dbg !5393
  %44 = load ptr, ptr %6, align 8, !dbg !5394
  %45 = load i64, ptr %5, align 8, !dbg !5395
  %46 = getelementptr inbounds i8, ptr %44, i64 %45, !dbg !5396
  %47 = getelementptr inbounds %"struct.std::_Vector_base", ptr %7, i32 0, i32 0, !dbg !5397
  %48 = getelementptr inbounds %"struct.std::_Vector_base<unsigned char, std::allocator<unsigned char>>::_Vector_impl_data", ptr %47, i32 0, i32 1, !dbg !5398
  store ptr %46, ptr %48, align 8, !dbg !5399
  %49 = getelementptr inbounds %"struct.std::_Vector_base", ptr %7, i32 0, i32 0, !dbg !5400
  %50 = getelementptr inbounds %"struct.std::_Vector_base<unsigned char, std::allocator<unsigned char>>::_Vector_impl_data", ptr %49, i32 0, i32 0, !dbg !5401
  %51 = load ptr, ptr %50, align 8, !dbg !5401
  %52 = load i64, ptr %4, align 8, !dbg !5402
  %53 = getelementptr inbounds i8, ptr %51, i64 %52, !dbg !5403
  %54 = getelementptr inbounds %"struct.std::_Vector_base", ptr %7, i32 0, i32 0, !dbg !5404
  %55 = getelementptr inbounds %"struct.std::_Vector_base<unsigned char, std::allocator<unsigned char>>::_Vector_impl_data", ptr %54, i32 0, i32 2, !dbg !5405
  store ptr %53, ptr %55, align 8, !dbg !5406
  br label %56, !dbg !5407

56:                                               ; preds = %16, %12
  ret void, !dbg !5408
}

; Function Attrs: mustprogress noinline uwtable
define linkonce_odr dso_local ptr @_ZSt4copyIN9__gnu_cxx17__normal_iteratorIPKhSt6vectorIhSaIhEEEESt20back_insert_iteratorIS6_EET0_T_SB_SA_(ptr %0, ptr %1, ptr %2) #5 comdat !dbg !5409 {
  %4 = alloca %"class.std::back_insert_iterator", align 8
  %5 = alloca %"class.__gnu_cxx::__normal_iterator.4", align 8
  %6 = alloca %"class.__gnu_cxx::__normal_iterator.4", align 8
  %7 = alloca %"class.std::back_insert_iterator", align 8
  %8 = alloca %"class.__gnu_cxx::__normal_iterator.4", align 8
  %9 = alloca %"class.__gnu_cxx::__normal_iterator.4", align 8
  %10 = alloca %"class.__gnu_cxx::__normal_iterator.4", align 8
  %11 = alloca %"class.__gnu_cxx::__normal_iterator.4", align 8
  %12 = alloca %"class.std::back_insert_iterator", align 8
  %13 = getelementptr inbounds %"class.__gnu_cxx::__normal_iterator.4", ptr %5, i32 0, i32 0
  store ptr %0, ptr %13, align 8
  %14 = getelementptr inbounds %"class.__gnu_cxx::__normal_iterator.4", ptr %6, i32 0, i32 0
  store ptr %1, ptr %14, align 8
  %15 = getelementptr inbounds %"class.std::back_insert_iterator", ptr %7, i32 0, i32 0
  store ptr %2, ptr %15, align 8
  call void @llvm.dbg.declare(metadata ptr %5, metadata !5415, metadata !DIExpression()), !dbg !5416
  call void @llvm.dbg.declare(metadata ptr %6, metadata !5417, metadata !DIExpression()), !dbg !5418
  call void @llvm.dbg.declare(metadata ptr %7, metadata !5419, metadata !DIExpression()), !dbg !5420
  call void @llvm.memcpy.p0.p0.i64(ptr align 8 %9, ptr align 8 %5, i64 8, i1 false), !dbg !5421
  %16 = getelementptr inbounds %"class.__gnu_cxx::__normal_iterator.4", ptr %9, i32 0, i32 0, !dbg !5422
  %17 = load ptr, ptr %16, align 8, !dbg !5422
  %18 = call ptr @_ZSt12__miter_baseIN9__gnu_cxx17__normal_iteratorIPKhSt6vectorIhSaIhEEEEET_S8_(ptr %17), !dbg !5422
  %19 = getelementptr inbounds %"class.__gnu_cxx::__normal_iterator.4", ptr %8, i32 0, i32 0, !dbg !5422
  store ptr %18, ptr %19, align 8, !dbg !5422
  call void @llvm.memcpy.p0.p0.i64(ptr align 8 %11, ptr align 8 %6, i64 8, i1 false), !dbg !5423
  %20 = getelementptr inbounds %"class.__gnu_cxx::__normal_iterator.4", ptr %11, i32 0, i32 0, !dbg !5424
  %21 = load ptr, ptr %20, align 8, !dbg !5424
  %22 = call ptr @_ZSt12__miter_baseIN9__gnu_cxx17__normal_iteratorIPKhSt6vectorIhSaIhEEEEET_S8_(ptr %21), !dbg !5424
  %23 = getelementptr inbounds %"class.__gnu_cxx::__normal_iterator.4", ptr %10, i32 0, i32 0, !dbg !5424
  store ptr %22, ptr %23, align 8, !dbg !5424
  call void @llvm.memcpy.p0.p0.i64(ptr align 8 %12, ptr align 8 %7, i64 8, i1 false), !dbg !5425
  %24 = getelementptr inbounds %"class.__gnu_cxx::__normal_iterator.4", ptr %8, i32 0, i32 0, !dbg !5426
  %25 = load ptr, ptr %24, align 8, !dbg !5426
  %26 = getelementptr inbounds %"class.__gnu_cxx::__normal_iterator.4", ptr %10, i32 0, i32 0, !dbg !5426
  %27 = load ptr, ptr %26, align 8, !dbg !5426
  %28 = getelementptr inbounds %"class.std::back_insert_iterator", ptr %12, i32 0, i32 0, !dbg !5426
  %29 = load ptr, ptr %28, align 8, !dbg !5426
  %30 = call ptr @_ZSt13__copy_move_aILb0EN9__gnu_cxx17__normal_iteratorIPKhSt6vectorIhSaIhEEEESt20back_insert_iteratorIS6_EET1_T0_SB_SA_(ptr %25, ptr %27, ptr %29), !dbg !5426
  %31 = getelementptr inbounds %"class.std::back_insert_iterator", ptr %4, i32 0, i32 0, !dbg !5426
  store ptr %30, ptr %31, align 8, !dbg !5426
  %32 = getelementptr inbounds %"class.std::back_insert_iterator", ptr %4, i32 0, i32 0, !dbg !5427
  %33 = load ptr, ptr %32, align 8, !dbg !5427
  ret ptr %33, !dbg !5427
}

; Function Attrs: mustprogress noinline uwtable
define linkonce_odr dso_local ptr @_ZSt13back_inserterISt6vectorIhSaIhEEESt20back_insert_iteratorIT_ERS4_(ptr noundef nonnull align 8 dereferenceable(24) %0) #5 comdat !dbg !5428 {
  %2 = alloca %"class.std::back_insert_iterator", align 8
  %3 = alloca ptr, align 8
  store ptr %0, ptr %3, align 8
  call void @llvm.dbg.declare(metadata ptr %3, metadata !5431, metadata !DIExpression()), !dbg !5432
  %4 = load ptr, ptr %3, align 8, !dbg !5433
  call void @_ZNSt20back_insert_iteratorISt6vectorIhSaIhEEEC2ERS2_(ptr noundef nonnull align 8 dereferenceable(8) %2, ptr noundef nonnull align 8 dereferenceable(24) %4), !dbg !5434
  %5 = getelementptr inbounds %"class.std::back_insert_iterator", ptr %2, i32 0, i32 0, !dbg !5435
  %6 = load ptr, ptr %5, align 8, !dbg !5435
  ret ptr %6, !dbg !5435
}

; Function Attrs: mustprogress noinline uwtable
define linkonce_odr dso_local ptr @_ZSt4copyIN9__gnu_cxx17__normal_iteratorIPhSt6vectorIhSaIhEEEESt20back_insert_iteratorIS5_EET0_T_SA_S9_(ptr %0, ptr %1, ptr %2) #5 comdat !dbg !5436 {
  %4 = alloca %"class.std::back_insert_iterator", align 8
  %5 = alloca %"class.__gnu_cxx::__normal_iterator.14", align 8
  %6 = alloca %"class.__gnu_cxx::__normal_iterator.14", align 8
