; ModuleID = 'common/Protocol.cpp'
source_filename = "common/Protocol.cpp"
target datalayout = "e-m:e-p270:32:32-p271:32:32-p272:64:64-i64:64-f80:128-n8:16:32:64-S128"
target triple = "x86_64-unknown-linux-gnu"

%"class.std::tuple" = type { %"struct.std::_Tuple_impl" }
%"struct.std::_Tuple_impl" = type { %"struct.std::_Tuple_impl.base", %"struct.std::_Head_base.3" }
%"struct.std::_Tuple_impl.base" = type <{ %"struct.std::_Tuple_impl.1", %"struct.std::_Head_base.2" }>
%"struct.std::_Tuple_impl.1" = type { %"struct.std::_Head_base" }
%"struct.std::_Head_base" = type { %"class.std::__cxx11::basic_string" }
%"class.std::__cxx11::basic_string" = type { %"struct.std::__cxx11::basic_string<char>::_Alloc_hider", i64, %union.anon }
%"struct.std::__cxx11::basic_string<char>::_Alloc_hider" = type { ptr }
%union.anon = type { i64, [8 x i8] }
%"struct.std::_Head_base.2" = type { i32 }
%"struct.std::_Head_base.3" = type { i32 }
%class.StringVector = type { %"class.std::__cxx11::basic_string", %"class.std::vector" }
%"class.std::vector" = type { %"struct.std::_Vector_base" }
%"struct.std::_Vector_base" = type { %"struct.std::_Vector_base<StringToken, std::allocator<StringToken>>::_Vector_impl" }
%"struct.std::_Vector_base<StringToken, std::allocator<StringToken>>::_Vector_impl" = type { %"struct.std::_Vector_base<StringToken, std::allocator<StringToken>>::_Vector_impl_data" }
%"struct.std::_Vector_base<StringToken, std::allocator<StringToken>>::_Vector_impl_data" = type { ptr, ptr, ptr }
%struct.StringToken = type { i64, i64 }
%"struct.std::_Rb_tree_const_iterator" = type { ptr }
%"struct.std::pair" = type <{ %"class.std::__cxx11::basic_string", i32, [4 x i8] }>
%"class.std::map" = type { %"class.std::_Rb_tree" }
%"class.std::_Rb_tree" = type { %"struct.std::_Rb_tree<std::__cxx11::basic_string<char>, std::pair<const std::__cxx11::basic_string<char>, int>, std::_Select1st<std::pair<const std::__cxx11::basic_string<char>, int>>, std::less<std::__cxx11::basic_string<char>>>::_Rb_tree_impl" }
%"struct.std::_Rb_tree<std::__cxx11::basic_string<char>, std::pair<const std::__cxx11::basic_string<char>, int>, std::_Select1st<std::pair<const std::__cxx11::basic_string<char>, int>>, std::less<std::__cxx11::basic_string<char>>>::_Rb_tree_impl" = type { %"struct.std::_Rb_tree_key_compare", %"struct.std::_Rb_tree_header" }
%"struct.std::_Rb_tree_key_compare" = type { %"struct.std::less" }
%"struct.std::less" = type { i8 }
%"struct.std::_Rb_tree_header" = type { %"struct.std::_Rb_tree_node_base", i64 }
%"struct.std::_Rb_tree_node_base" = type { i32, ptr, ptr, ptr }
%"class.__gnu_cxx::__normal_iterator" = type { ptr }
%"struct.std::integral_constant" = type { i8 }
%struct._Save_errno = type { i32 }
%"struct.std::is_same" = type { i8 }
%"class.std::allocator.4" = type { i8 }
%"struct.std::_Select1st" = type { i8 }
%"struct.std::_Rb_tree_node" = type { %"struct.std::_Rb_tree_node_base", %"struct.__gnu_cxx::__aligned_membuf" }
%"struct.__gnu_cxx::__aligned_membuf" = type { [40 x i8] }

$_ZN4Util8tokenizeERKNSt7__cxx1112basic_stringIcSt11char_traitsIcESaIcEEEc = comdat any

$_ZNK12StringVector4sizeEv = comdat any

$_ZNSt7__cxx114stoiERKNS_12basic_stringIcSt11char_traitsIcESaIcEEEPmi = comdat any

$_ZNK12StringVectorixB5cxx11Em = comdat any

$_ZN12StringVectorC2Ev = comdat any

$_ZN12StringVectoraSEOS_ = comdat any

$_ZN12StringVectorD2Ev = comdat any

$_ZSt10make_tupleIJRiS0_RNSt7__cxx1112basic_stringIcSt11char_traitsIcESaIcEEEEESt5tupleIJDpNSt25__strip_reference_wrapperINSt5decayIT_E4typeEE6__typeEEEDpOSB_ = comdat any

$_ZNKSt3mapINSt7__cxx1112basic_stringIcSt11char_traitsIcESaIcEEEiSt4lessIS5_ESaISt4pairIKS5_iEEE4findERS9_ = comdat any

$_ZStneRKSt23_Rb_tree_const_iteratorISt4pairIKNSt7__cxx1112basic_stringIcSt11char_traitsIcESaIcEEEiEESB_ = comdat any

$_ZNKSt3mapINSt7__cxx1112basic_stringIcSt11char_traitsIcESaIcEEEiSt4lessIS5_ESaISt4pairIKS5_iEEE4cendEv = comdat any

$_ZNKSt23_Rb_tree_const_iteratorISt4pairIKNSt7__cxx1112basic_stringIcSt11char_traitsIcESaIcEEEiEEptEv = comdat any

$_ZNSt6vectorI11StringTokenSaIS0_EEC2Ev = comdat any

$_ZN4Util8tokenizeEPKcmcRSt6vectorI11StringTokenSaIS3_EE = comdat any

$_ZNSt6vectorI11StringTokenSaIS0_EEC2EOS2_ = comdat any

$_ZN12StringVectorC2ENSt7__cxx1112basic_stringIcSt11char_traitsIcESaIcEEESt6vectorI11StringTokenSaIS7_EE = comdat any

$_ZNSt6vectorI11StringTokenSaIS0_EED2Ev = comdat any

$_ZNSt12_Vector_baseI11StringTokenSaIS0_EEC2Ev = comdat any

$_ZNSt12_Vector_baseI11StringTokenSaIS0_EE12_Vector_implC2Ev = comdat any

$_ZNSaI11StringTokenEC2Ev = comdat any

$_ZN9__gnu_cxx13new_allocatorI11StringTokenEC2Ev = comdat any

$_ZNSt6vectorI11StringTokenSaIS0_EE7reserveEm = comdat any

$_ZNSt6vectorI11StringTokenSaIS0_EE12emplace_backIJllEEERS0_DpOT_ = comdat any

$_ZNKSt6vectorI11StringTokenSaIS0_EE8max_sizeEv = comdat any

$_ZNKSt6vectorI11StringTokenSaIS0_EE8capacityEv = comdat any

$_ZNKSt6vectorI11StringTokenSaIS0_EE4sizeEv = comdat any

$_ZNSt12_Vector_baseI11StringTokenSaIS0_EE11_M_allocateEm = comdat any

$_ZNSt6vectorI11StringTokenSaIS0_EE11_S_relocateEPS0_S3_S3_RS1_ = comdat any

$_ZNSt12_Vector_baseI11StringTokenSaIS0_EE19_M_get_Tp_allocatorEv = comdat any

$_ZNSt12_Vector_baseI11StringTokenSaIS0_EE13_M_deallocateEPS0_m = comdat any

$_ZNSt6vectorI11StringTokenSaIS0_EE11_S_max_sizeERKS1_ = comdat any

$_ZNKSt12_Vector_baseI11StringTokenSaIS0_EE19_M_get_Tp_allocatorEv = comdat any

$_ZNSt16allocator_traitsISaI11StringTokenEE8max_sizeERKS1_ = comdat any

$_ZSt3minImERKT_S2_S2_ = comdat any

$__clang_call_terminate = comdat any

$_ZNK9__gnu_cxx13new_allocatorI11StringTokenE8max_sizeEv = comdat any

$_ZNK9__gnu_cxx13new_allocatorI11StringTokenE11_M_max_sizeEv = comdat any

$_ZNSt16allocator_traitsISaI11StringTokenEE8allocateERS1_m = comdat any

$_ZN9__gnu_cxx13new_allocatorI11StringTokenE8allocateEmPKv = comdat any

$_ZNSt6vectorI11StringTokenSaIS0_EE14_S_do_relocateEPS0_S3_S3_RS1_St17integral_constantIbLb1EE = comdat any

$_ZSt12__relocate_aIP11StringTokenS1_SaIS0_EET0_T_S4_S3_RT1_ = comdat any

$_ZSt14__relocate_a_1I11StringTokenS0_ENSt9enable_ifIXsr3std24__is_bitwise_relocatableIT_EE5valueEPS2_E4typeES3_S3_S3_RSaIT0_E = comdat any

$_ZSt12__niter_baseIP11StringTokenET_S2_ = comdat any

$_ZNSt16allocator_traitsISaI11StringTokenEE10deallocateERS1_PS0_m = comdat any

$_ZN9__gnu_cxx13new_allocatorI11StringTokenE10deallocateEPS1_m = comdat any

$_ZNSt16allocator_traitsISaI11StringTokenEE9constructIS0_JllEEEvRS1_PT_DpOT0_ = comdat any

$_ZNSt6vectorI11StringTokenSaIS0_EE17_M_realloc_insertIJllEEEvN9__gnu_cxx17__normal_iteratorIPS0_S2_EEDpOT_ = comdat any

$_ZNSt6vectorI11StringTokenSaIS0_EE3endEv = comdat any

$_ZNSt6vectorI11StringTokenSaIS0_EE4backEv = comdat any

$_ZN9__gnu_cxx13new_allocatorI11StringTokenE9constructIS1_JllEEEvPT_DpOT0_ = comdat any

$_ZN11StringTokenC2Emm = comdat any

$_ZNKSt6vectorI11StringTokenSaIS0_EE12_M_check_lenEmPKc = comdat any

$_ZN9__gnu_cxxmiIP11StringTokenSt6vectorIS1_SaIS1_EEEENS_17__normal_iteratorIT_T0_E15difference_typeERKS9_SC_ = comdat any

$_ZNSt6vectorI11StringTokenSaIS0_EE5beginEv = comdat any

$_ZNK9__gnu_cxx17__normal_iteratorIP11StringTokenSt6vectorIS1_SaIS1_EEE4baseEv = comdat any

$_ZNSt16allocator_traitsISaI11StringTokenEE7destroyIS0_EEvRS1_PT_ = comdat any

$_ZSt8_DestroyIP11StringTokenS0_EvT_S2_RSaIT0_E = comdat any

$_ZSt3maxImERKT_S2_S2_ = comdat any

$_ZN9__gnu_cxx17__normal_iteratorIP11StringTokenSt6vectorIS1_SaIS1_EEEC2ERKS2_ = comdat any

$_ZN9__gnu_cxx13new_allocatorI11StringTokenE7destroyIS1_EEvPT_ = comdat any

$_ZSt8_DestroyIP11StringTokenEvT_S2_ = comdat any

$_ZNSt12_Destroy_auxILb1EE9__destroyIP11StringTokenEEvT_S4_ = comdat any

$_ZNK9__gnu_cxx17__normal_iteratorIP11StringTokenSt6vectorIS1_SaIS1_EEEmiEl = comdat any

$_ZNK9__gnu_cxx17__normal_iteratorIP11StringTokenSt6vectorIS1_SaIS1_EEEdeEv = comdat any

$_ZNSt12_Vector_baseI11StringTokenSaIS0_EEC2EOS2_ = comdat any

$_ZNSt12_Vector_baseI11StringTokenSaIS0_EE12_Vector_implC2EOS3_ = comdat any

$_ZNSt12_Vector_baseI11StringTokenSaIS0_EE17_Vector_impl_dataC2EOS3_ = comdat any

$_ZN9__gnu_cxx13new_allocatorI11StringTokenEC2ERKS2_ = comdat any

$_ZNSt12_Vector_baseI11StringTokenSaIS0_EED2Ev = comdat any

$_ZNSt12_Vector_baseI11StringTokenSaIS0_EE12_Vector_implD2Ev = comdat any

$_ZN9__gnu_cxx13new_allocatorI11StringTokenED2Ev = comdat any

$_ZN9__gnu_cxx6__stoaIlicJiEEET0_PFT_PKT1_PPS3_DpT2_EPKcS5_PmS9_ = comdat any

$_ZZN9__gnu_cxx6__stoaIlicJiEEET0_PFT_PKT1_PPS3_DpT2_EPKcS5_PmS9_EN11_Save_errnoC2Ev = comdat any

$_ZZN9__gnu_cxx6__stoaIlicJiEEET0_PFT_PKT1_PPS3_DpT2_EPKcS5_PmS9_EN10_Range_chk6_S_chkElSt17integral_constantIbLb1EE = comdat any

$_ZZN9__gnu_cxx6__stoaIlicJiEEET0_PFT_PKT1_PPS3_DpT2_EPKcS5_PmS9_EN11_Save_errnoD2Ev = comdat any

$_ZNKSt6vectorI11StringTokenSaIS0_EEixEm = comdat any

$_ZNSt6vectorI11StringTokenSaIS0_EEaSEOS2_ = comdat any

$_ZNSt6vectorI11StringTokenSaIS0_EE14_M_move_assignEOS2_St17integral_constantIbLb1EE = comdat any

$_ZNKSt12_Vector_baseI11StringTokenSaIS0_EE13get_allocatorEv = comdat any

$_ZNSt6vectorI11StringTokenSaIS0_EEC2ERKS1_ = comdat any

$_ZNSaI11StringTokenED2Ev = comdat any

$_ZNSt12_Vector_baseI11StringTokenSaIS0_EE17_Vector_impl_data12_M_swap_dataERS3_ = comdat any

$_ZSt15__alloc_on_moveISaI11StringTokenEEvRT_S3_ = comdat any

$_ZNSaI11StringTokenEC2ERKS0_ = comdat any

$_ZNSt12_Vector_baseI11StringTokenSaIS0_EEC2ERKS1_ = comdat any

$_ZNSt12_Vector_baseI11StringTokenSaIS0_EE12_Vector_implC2ERKS1_ = comdat any

$_ZNSt12_Vector_baseI11StringTokenSaIS0_EE17_Vector_impl_dataC2Ev = comdat any

$_ZNSt12_Vector_baseI11StringTokenSaIS0_EE17_Vector_impl_data12_M_copy_dataERKS3_ = comdat any

$_ZNSt5tupleIJiiNSt7__cxx1112basic_stringIcSt11char_traitsIcESaIcEEEEEC2IJRiS8_RS5_ELb1ELb1EEEDpOT_ = comdat any

$_ZNSt11_Tuple_implILm0EJiiNSt7__cxx1112basic_stringIcSt11char_traitsIcESaIcEEEEEC2IRiJS8_RS5_EvEEOT_DpOT0_ = comdat any

$_ZNSt11_Tuple_implILm1EJiNSt7__cxx1112basic_stringIcSt11char_traitsIcESaIcEEEEEC2IRiJRS5_EvEEOT_DpOT0_ = comdat any

$_ZNSt10_Head_baseILm0EiLb0EEC2IRiEEOT_ = comdat any

$_ZNSt11_Tuple_implILm1EJiNSt7__cxx1112basic_stringIcSt11char_traitsIcESaIcEEEEED2Ev = comdat any

$_ZNSt11_Tuple_implILm2EJNSt7__cxx1112basic_stringIcSt11char_traitsIcESaIcEEEEEC2IRS5_EEOT_ = comdat any

$_ZNSt10_Head_baseILm1EiLb0EEC2IRiEEOT_ = comdat any

$_ZNSt11_Tuple_implILm2EJNSt7__cxx1112basic_stringIcSt11char_traitsIcESaIcEEEEED2Ev = comdat any

$_ZNSt10_Head_baseILm2ENSt7__cxx1112basic_stringIcSt11char_traitsIcESaIcEEELb0EEC2IRS5_EEOT_ = comdat any

$_ZNSt10_Head_baseILm2ENSt7__cxx1112basic_stringIcSt11char_traitsIcESaIcEEELb0EED2Ev = comdat any

$_ZNKSt8_Rb_treeINSt7__cxx1112basic_stringIcSt11char_traitsIcESaIcEEESt4pairIKS5_iESt10_Select1stIS8_ESt4lessIS5_ESaIS8_EE4findERS7_ = comdat any

$_ZNKSt8_Rb_treeINSt7__cxx1112basic_stringIcSt11char_traitsIcESaIcEEESt4pairIKS5_iESt10_Select1stIS8_ESt4lessIS5_ESaIS8_EE14_M_lower_boundEPKSt13_Rb_tree_nodeIS8_EPKSt18_Rb_tree_node_baseRS7_ = comdat any

$_ZNKSt8_Rb_treeINSt7__cxx1112basic_stringIcSt11char_traitsIcESaIcEEESt4pairIKS5_iESt10_Select1stIS8_ESt4lessIS5_ESaIS8_EE8_M_beginEv = comdat any

$_ZNKSt8_Rb_treeINSt7__cxx1112basic_stringIcSt11char_traitsIcESaIcEEESt4pairIKS5_iESt10_Select1stIS8_ESt4lessIS5_ESaIS8_EE6_M_endEv = comdat any

$_ZSteqRKSt23_Rb_tree_const_iteratorISt4pairIKNSt7__cxx1112basic_stringIcSt11char_traitsIcESaIcEEEiEESB_ = comdat any

$_ZNKSt8_Rb_treeINSt7__cxx1112basic_stringIcSt11char_traitsIcESaIcEEESt4pairIKS5_iESt10_Select1stIS8_ESt4lessIS5_ESaIS8_EE3endEv = comdat any

$_ZNKSt4lessINSt7__cxx1112basic_stringIcSt11char_traitsIcESaIcEEEEclERKS5_S8_ = comdat any

$_ZNSt8_Rb_treeINSt7__cxx1112basic_stringIcSt11char_traitsIcESaIcEEESt4pairIKS5_iESt10_Select1stIS8_ESt4lessIS5_ESaIS8_EE6_S_keyEPKSt18_Rb_tree_node_base = comdat any

$_ZNSt8_Rb_treeINSt7__cxx1112basic_stringIcSt11char_traitsIcESaIcEEESt4pairIKS5_iESt10_Select1stIS8_ESt4lessIS5_ESaIS8_EE6_S_keyEPKSt13_Rb_tree_nodeIS8_E = comdat any

$_ZNSt8_Rb_treeINSt7__cxx1112basic_stringIcSt11char_traitsIcESaIcEEESt4pairIKS5_iESt10_Select1stIS8_ESt4lessIS5_ESaIS8_EE7_S_leftEPKSt18_Rb_tree_node_base = comdat any

$_ZNSt8_Rb_treeINSt7__cxx1112basic_stringIcSt11char_traitsIcESaIcEEESt4pairIKS5_iESt10_Select1stIS8_ESt4lessIS5_ESaIS8_EE8_S_rightEPKSt18_Rb_tree_node_base = comdat any

$_ZNSt23_Rb_tree_const_iteratorISt4pairIKNSt7__cxx1112basic_stringIcSt11char_traitsIcESaIcEEEiEEC2EPKSt18_Rb_tree_node_base = comdat any

$_ZNKSt10_Select1stISt4pairIKNSt7__cxx1112basic_stringIcSt11char_traitsIcESaIcEEEiEEclERKS8_ = comdat any

$_ZNKSt13_Rb_tree_nodeISt4pairIKNSt7__cxx1112basic_stringIcSt11char_traitsIcESaIcEEEiEE9_M_valptrEv = comdat any

$_ZNK9__gnu_cxx16__aligned_membufISt4pairIKNSt7__cxx1112basic_stringIcSt11char_traitsIcESaIcEEEiEE6_M_ptrEv = comdat any

$_ZNK9__gnu_cxx16__aligned_membufISt4pairIKNSt7__cxx1112basic_stringIcSt11char_traitsIcESaIcEEEiEE7_M_addrEv = comdat any

$_ZStltIcSt11char_traitsIcESaIcEEbRKNSt7__cxx1112basic_stringIT_T0_T1_EESA_ = comdat any

@.str = private unnamed_addr constant [3 x i8] c" \0A\00", align 1, !dbg !0
@.str.1 = private unnamed_addr constant [16 x i8] c"vector::reserve\00", align 1, !dbg !8
@.str.2 = private unnamed_addr constant [26 x i8] c"vector::_M_realloc_insert\00", align 1, !dbg !14
@.str.3 = private unnamed_addr constant [5 x i8] c"stoi\00", align 1, !dbg !19

; Function Attrs: mustprogress noinline uwtable
define dso_local void @_ZN12COOLProtocol12ParseVersionERKNSt7__cxx1112basic_stringIcSt11char_traitsIcESaIcEEE(ptr noalias sret(%"class.std::tuple") align 8 %0, ptr noundef nonnull align 8 dereferenceable(32) %1) #0 personality ptr @__gxx_personality_v0 !dbg !2236 {
  %3 = alloca ptr, align 8
  %4 = alloca ptr, align 8
  %5 = alloca i32, align 4
  %6 = alloca i32, align 4
  %7 = alloca %"class.std::__cxx11::basic_string", align 8
  %8 = alloca %class.StringVector, align 8
  %9 = alloca ptr, align 8
  %10 = alloca i32, align 4
  %11 = alloca %"class.std::__cxx11::basic_string", align 8
  %12 = alloca %class.StringVector, align 8
  %13 = alloca %class.StringVector, align 8
  %14 = alloca %"class.std::__cxx11::basic_string", align 8
  %15 = alloca %"class.std::__cxx11::basic_string", align 8
  %16 = alloca %"class.std::__cxx11::basic_string", align 8
  store ptr %0, ptr %3, align 8
  store ptr %1, ptr %4, align 8
  call void @llvm.dbg.declare(metadata ptr %4, metadata !2240, metadata !DIExpression()), !dbg !2241
  call void @llvm.dbg.declare(metadata ptr %5, metadata !2242, metadata !DIExpression()), !dbg !2243
  store i32 -1, ptr %5, align 4, !dbg !2243
  call void @llvm.dbg.declare(metadata ptr %6, metadata !2244, metadata !DIExpression()), !dbg !2245
  store i32 -1, ptr %6, align 4, !dbg !2245
  call void @llvm.dbg.declare(metadata ptr %7, metadata !2246, metadata !DIExpression()), !dbg !2247
  call void @_ZNSt7__cxx1112basic_stringIcSt11char_traitsIcESaIcEEC1Ev(ptr noundef nonnull align 8 dereferenceable(32) %7) #14, !dbg !2247
  call void @llvm.dbg.declare(metadata ptr %8, metadata !2248, metadata !DIExpression()), !dbg !2249
  %17 = load ptr, ptr %4, align 8, !dbg !2250
  invoke void @_ZN4Util8tokenizeERKNSt7__cxx1112basic_stringIcSt11char_traitsIcESaIcEEEc(ptr sret(%class.StringVector) align 8 %8, ptr noundef nonnull align 8 dereferenceable(32) %17, i8 noundef signext 46)
          to label %18 unwind label %33, !dbg !2251

18:                                               ; preds = %2
  %19 = invoke noundef i64 @_ZNK12StringVector4sizeEv(ptr noundef nonnull align 8 dereferenceable(56) %8)
          to label %20 unwind label %37, !dbg !2252

20:                                               ; preds = %18
  %21 = icmp ugt i64 %19, 0, !dbg !2254
  br i1 %21, label %22, label %74, !dbg !2255

22:                                               ; preds = %20
  invoke void @_ZNK12StringVectorixB5cxx11Em(ptr sret(%"class.std::__cxx11::basic_string") align 8 %11, ptr noundef nonnull align 8 dereferenceable(56) %8, i64 noundef 0)
          to label %23 unwind label %37, !dbg !2256

23:                                               ; preds = %22
  %24 = invoke noundef i32 @_ZNSt7__cxx114stoiERKNS_12basic_stringIcSt11char_traitsIcESaIcEEEPmi(ptr noundef nonnull align 8 dereferenceable(32) %11, ptr noundef null, i32 noundef 10)
          to label %25 unwind label %41, !dbg !2258

25:                                               ; preds = %23
  store i32 %24, ptr %5, align 4, !dbg !2259
  call void @_ZNSt7__cxx1112basic_stringIcSt11char_traitsIcESaIcEED1Ev(ptr noundef nonnull align 8 dereferenceable(32) %11) #14, !dbg !2260
  call void @llvm.dbg.declare(metadata ptr %12, metadata !2261, metadata !DIExpression()), !dbg !2262
  call void @_ZN12StringVectorC2Ev(ptr noundef nonnull align 8 dereferenceable(56) %12) #14, !dbg !2262
  %26 = invoke noundef i64 @_ZNK12StringVector4sizeEv(ptr noundef nonnull align 8 dereferenceable(56) %8)
          to label %27 unwind label %45, !dbg !2263

27:                                               ; preds = %25
  %28 = icmp ugt i64 %26, 1, !dbg !2265
  br i1 %28, label %29, label %53, !dbg !2266

29:                                               ; preds = %27
  invoke void @_ZNK12StringVectorixB5cxx11Em(ptr sret(%"class.std::__cxx11::basic_string") align 8 %14, ptr noundef nonnull align 8 dereferenceable(56) %8, i64 noundef 1)
          to label %30 unwind label %45, !dbg !2267

30:                                               ; preds = %29
  invoke void @_ZN4Util8tokenizeERKNSt7__cxx1112basic_stringIcSt11char_traitsIcESaIcEEEc(ptr sret(%class.StringVector) align 8 %13, ptr noundef nonnull align 8 dereferenceable(32) %14, i8 noundef signext 45)
          to label %31 unwind label %49, !dbg !2269

31:                                               ; preds = %30
  %32 = call noundef nonnull align 8 dereferenceable(56) ptr @_ZN12StringVectoraSEOS_(ptr noundef nonnull align 8 dereferenceable(56) %12, ptr noundef nonnull align 8 dereferenceable(56) %13) #14, !dbg !2270
  call void @_ZN12StringVectorD2Ev(ptr noundef nonnull align 8 dereferenceable(56) %13) #14, !dbg !2271
  call void @_ZNSt7__cxx1112basic_stringIcSt11char_traitsIcESaIcEED1Ev(ptr noundef nonnull align 8 dereferenceable(32) %14) #14, !dbg !2271
  br label %53, !dbg !2272

33:                                               ; preds = %2
  %34 = landingpad { ptr, i32 }
          cleanup, !dbg !2273
  %35 = extractvalue { ptr, i32 } %34, 0, !dbg !2273
  store ptr %35, ptr %9, align 8, !dbg !2273
  %36 = extractvalue { ptr, i32 } %34, 1, !dbg !2273
  store i32 %36, ptr %10, align 4, !dbg !2273
  br label %77, !dbg !2273

37:                                               ; preds = %74, %22, %18
  %38 = landingpad { ptr, i32 }
          cleanup, !dbg !2274
  %39 = extractvalue { ptr, i32 } %38, 0, !dbg !2274
  store ptr %39, ptr %9, align 8, !dbg !2274
  %40 = extractvalue { ptr, i32 } %38, 1, !dbg !2274
  store i32 %40, ptr %10, align 4, !dbg !2274
  br label %76, !dbg !2274

41:                                               ; preds = %23
  %42 = landingpad { ptr, i32 }
          cleanup, !dbg !2275
  %43 = extractvalue { ptr, i32 } %42, 0, !dbg !2275
  store ptr %43, ptr %9, align 8, !dbg !2275
  %44 = extractvalue { ptr, i32 } %42, 1, !dbg !2275
  store i32 %44, ptr %10, align 4, !dbg !2275
  call void @_ZNSt7__cxx1112basic_stringIcSt11char_traitsIcESaIcEED1Ev(ptr noundef nonnull align 8 dereferenceable(32) %11) #14, !dbg !2260
  br label %76, !dbg !2260

45:                                               ; preds = %69, %65, %57, %53, %29, %25
  %46 = landingpad { ptr, i32 }
          cleanup, !dbg !2276
  %47 = extractvalue { ptr, i32 } %46, 0, !dbg !2276
  store ptr %47, ptr %9, align 8, !dbg !2276
  %48 = extractvalue { ptr, i32 } %46, 1, !dbg !2276
  store i32 %48, ptr %10, align 4, !dbg !2276
  br label %73, !dbg !2276

49:                                               ; preds = %30
  %50 = landingpad { ptr, i32 }
          cleanup, !dbg !2277
  %51 = extractvalue { ptr, i32 } %50, 0, !dbg !2277
  store ptr %51, ptr %9, align 8, !dbg !2277
  %52 = extractvalue { ptr, i32 } %50, 1, !dbg !2277
  store i32 %52, ptr %10, align 4, !dbg !2277
  call void @_ZNSt7__cxx1112basic_stringIcSt11char_traitsIcESaIcEED1Ev(ptr noundef nonnull align 8 dereferenceable(32) %14) #14, !dbg !2271
  br label %73, !dbg !2271

53:                                               ; preds = %31, %27
  %54 = invoke noundef i64 @_ZNK12StringVector4sizeEv(ptr noundef nonnull align 8 dereferenceable(56) %12)
          to label %55 unwind label %45, !dbg !2278

55:                                               ; preds = %53
  %56 = icmp ugt i64 %54, 0, !dbg !2280
  br i1 %56, label %57, label %65, !dbg !2281

57:                                               ; preds = %55
  invoke void @_ZNK12StringVectorixB5cxx11Em(ptr sret(%"class.std::__cxx11::basic_string") align 8 %15, ptr noundef nonnull align 8 dereferenceable(56) %12, i64 noundef 0)
          to label %58 unwind label %45, !dbg !2282

58:                                               ; preds = %57
  %59 = invoke noundef i32 @_ZNSt7__cxx114stoiERKNS_12basic_stringIcSt11char_traitsIcESaIcEEEPmi(ptr noundef nonnull align 8 dereferenceable(32) %15, ptr noundef null, i32 noundef 10)
          to label %60 unwind label %61, !dbg !2284

60:                                               ; preds = %58
  store i32 %59, ptr %6, align 4, !dbg !2285
  call void @_ZNSt7__cxx1112basic_stringIcSt11char_traitsIcESaIcEED1Ev(ptr noundef nonnull align 8 dereferenceable(32) %15) #14, !dbg !2286
  br label %65, !dbg !2287

61:                                               ; preds = %58
  %62 = landingpad { ptr, i32 }
          cleanup, !dbg !2288
  %63 = extractvalue { ptr, i32 } %62, 0, !dbg !2288
  store ptr %63, ptr %9, align 8, !dbg !2288
  %64 = extractvalue { ptr, i32 } %62, 1, !dbg !2288
  store i32 %64, ptr %10, align 4, !dbg !2288
  call void @_ZNSt7__cxx1112basic_stringIcSt11char_traitsIcESaIcEED1Ev(ptr noundef nonnull align 8 dereferenceable(32) %15) #14, !dbg !2286
  br label %73, !dbg !2286

65:                                               ; preds = %60, %55
  %66 = invoke noundef i64 @_ZNK12StringVector4sizeEv(ptr noundef nonnull align 8 dereferenceable(56) %12)
          to label %67 unwind label %45, !dbg !2289

67:                                               ; preds = %65
  %68 = icmp ugt i64 %66, 1, !dbg !2291
  br i1 %68, label %69, label %72, !dbg !2292

69:                                               ; preds = %67
  invoke void @_ZNK12StringVectorixB5cxx11Em(ptr sret(%"class.std::__cxx11::basic_string") align 8 %16, ptr noundef nonnull align 8 dereferenceable(56) %12, i64 noundef 1)
          to label %70 unwind label %45, !dbg !2293

70:                                               ; preds = %69
  %71 = call noundef nonnull align 8 dereferenceable(32) ptr @_ZNSt7__cxx1112basic_stringIcSt11char_traitsIcESaIcEEaSEOS4_(ptr noundef nonnull align 8 dereferenceable(32) %7, ptr noundef nonnull align 8 dereferenceable(32) %16) #14, !dbg !2294
  call void @_ZNSt7__cxx1112basic_stringIcSt11char_traitsIcESaIcEED1Ev(ptr noundef nonnull align 8 dereferenceable(32) %16) #14, !dbg !2295
  br label %72, !dbg !2295

72:                                               ; preds = %70, %67
  call void @_ZN12StringVectorD2Ev(ptr noundef nonnull align 8 dereferenceable(56) %12) #14, !dbg !2296
  br label %74, !dbg !2297

73:                                               ; preds = %61, %49, %45
  call void @_ZN12StringVectorD2Ev(ptr noundef nonnull align 8 dereferenceable(56) %12) #14, !dbg !2296
  br label %76, !dbg !2296

74:                                               ; preds = %72, %20
  invoke void @_ZSt10make_tupleIJRiS0_RNSt7__cxx1112basic_stringIcSt11char_traitsIcESaIcEEEEESt5tupleIJDpNSt25__strip_reference_wrapperINSt5decayIT_E4typeEE6__typeEEEDpOSB_(ptr sret(%"class.std::tuple") align 8 %0, ptr noundef nonnull align 4 dereferenceable(4) %5, ptr noundef nonnull align 4 dereferenceable(4) %6, ptr noundef nonnull align 8 dereferenceable(32) %7)
          to label %75 unwind label %37, !dbg !2298

75:                                               ; preds = %74
  call void @_ZN12StringVectorD2Ev(ptr noundef nonnull align 8 dereferenceable(56) %8) #14, !dbg !2273
  call void @_ZNSt7__cxx1112basic_stringIcSt11char_traitsIcESaIcEED1Ev(ptr noundef nonnull align 8 dereferenceable(32) %7) #14, !dbg !2273
  ret void, !dbg !2273

76:                                               ; preds = %73, %41, %37
  call void @_ZN12StringVectorD2Ev(ptr noundef nonnull align 8 dereferenceable(56) %8) #14, !dbg !2273
  br label %77, !dbg !2273

77:                                               ; preds = %76, %33
  call void @_ZNSt7__cxx1112basic_stringIcSt11char_traitsIcESaIcEED1Ev(ptr noundef nonnull align 8 dereferenceable(32) %7) #14, !dbg !2273
  br label %78, !dbg !2273

78:                                               ; preds = %77
  %79 = load ptr, ptr %9, align 8, !dbg !2273
  %80 = load i32, ptr %10, align 4, !dbg !2273
  %81 = insertvalue { ptr, i32 } poison, ptr %79, 0, !dbg !2273
  %82 = insertvalue { ptr, i32 } %81, i32 %80, 1, !dbg !2273
  resume { ptr, i32 } %82, !dbg !2273
}

; Function Attrs: nocallback nofree nosync nounwind speculatable willreturn memory(none)
declare void @llvm.dbg.declare(metadata, metadata, metadata) #1

; Function Attrs: nounwind
declare void @_ZNSt7__cxx1112basic_stringIcSt11char_traitsIcESaIcEEC1Ev(ptr noundef nonnull align 8 dereferenceable(32)) unnamed_addr #2

; Function Attrs: mustprogress noinline uwtable
define linkonce_odr dso_local void @_ZN4Util8tokenizeERKNSt7__cxx1112basic_stringIcSt11char_traitsIcESaIcEEEc(ptr noalias sret(%class.StringVector) align 8 %0, ptr noundef nonnull align 8 dereferenceable(32) %1, i8 noundef signext %2) #0 comdat personality ptr @__gxx_personality_v0 !dbg !2299 {
  %4 = alloca ptr, align 8
  %5 = alloca ptr, align 8
  %6 = alloca i8, align 1
  %7 = alloca %"class.std::vector", align 8
  %8 = alloca ptr, align 8
  %9 = alloca i32, align 4
  %10 = alloca %"class.std::__cxx11::basic_string", align 8
  %11 = alloca %"class.std::vector", align 8
  store ptr %0, ptr %4, align 8
  store ptr %1, ptr %5, align 8
  call void @llvm.dbg.declare(metadata ptr %5, metadata !2304, metadata !DIExpression()), !dbg !2305
  store i8 %2, ptr %6, align 1
  call void @llvm.dbg.declare(metadata ptr %6, metadata !2306, metadata !DIExpression()), !dbg !2307
  %12 = load ptr, ptr %5, align 8, !dbg !2308
  %13 = call noundef zeroext i1 @_ZNKSt7__cxx1112basic_stringIcSt11char_traitsIcESaIcEE5emptyEv(ptr noundef nonnull align 8 dereferenceable(32) %12) #14, !dbg !2310
  br i1 %13, label %14, label %15, !dbg !2311

14:                                               ; preds = %3
  call void @llvm.memset.p0.i64(ptr align 8 %0, i8 0, i64 56, i1 false), !dbg !2312
  call void @_ZN12StringVectorC2Ev(ptr noundef nonnull align 8 dereferenceable(56) %0) #14, !dbg !2312
  br label %34, !dbg !2313

15:                                               ; preds = %3
  call void @llvm.dbg.declare(metadata ptr %7, metadata !2314, metadata !DIExpression()), !dbg !2315
  call void @_ZNSt6vectorI11StringTokenSaIS0_EEC2Ev(ptr noundef nonnull align 8 dereferenceable(24) %7) #14, !dbg !2315
  %16 = load ptr, ptr %5, align 8, !dbg !2316
  %17 = call noundef ptr @_ZNKSt7__cxx1112basic_stringIcSt11char_traitsIcESaIcEE4dataEv(ptr noundef nonnull align 8 dereferenceable(32) %16) #14, !dbg !2317
  %18 = load ptr, ptr %5, align 8, !dbg !2318
  %19 = call noundef i64 @_ZNKSt7__cxx1112basic_stringIcSt11char_traitsIcESaIcEE4sizeEv(ptr noundef nonnull align 8 dereferenceable(32) %18) #14, !dbg !2319
  %20 = load i8, ptr %6, align 1, !dbg !2320
  invoke void @_ZN4Util8tokenizeEPKcmcRSt6vectorI11StringTokenSaIS3_EE(ptr noundef %17, i64 noundef %19, i8 noundef signext %20, ptr noundef nonnull align 8 dereferenceable(24) %7)
          to label %21 unwind label %25, !dbg !2321

21:                                               ; preds = %15
  %22 = load ptr, ptr %5, align 8, !dbg !2322
  invoke void @_ZNSt7__cxx1112basic_stringIcSt11char_traitsIcESaIcEEC1ERKS4_(ptr noundef nonnull align 8 dereferenceable(32) %10, ptr noundef nonnull align 8 dereferenceable(32) %22)
          to label %23 unwind label %25, !dbg !2322

23:                                               ; preds = %21
  call void @_ZNSt6vectorI11StringTokenSaIS0_EEC2EOS2_(ptr noundef nonnull align 8 dereferenceable(24) %11, ptr noundef nonnull align 8 dereferenceable(24) %7) #14, !dbg !2323
  invoke void @_ZN12StringVectorC2ENSt7__cxx1112basic_stringIcSt11char_traitsIcESaIcEEESt6vectorI11StringTokenSaIS7_EE(ptr noundef nonnull align 8 dereferenceable(56) %0, ptr noundef %10, ptr noundef %11)
          to label %24 unwind label %29, !dbg !2324

24:                                               ; preds = %23
  call void @_ZNSt6vectorI11StringTokenSaIS0_EED2Ev(ptr noundef nonnull align 8 dereferenceable(24) %11) #14, !dbg !2325
  call void @_ZNSt7__cxx1112basic_stringIcSt11char_traitsIcESaIcEED1Ev(ptr noundef nonnull align 8 dereferenceable(32) %10) #14, !dbg !2325
  call void @_ZNSt6vectorI11StringTokenSaIS0_EED2Ev(ptr noundef nonnull align 8 dereferenceable(24) %7) #14, !dbg !2326
  br label %34

25:                                               ; preds = %21, %15
  %26 = landingpad { ptr, i32 }
          cleanup, !dbg !2326
  %27 = extractvalue { ptr, i32 } %26, 0, !dbg !2326
  store ptr %27, ptr %8, align 8, !dbg !2326
  %28 = extractvalue { ptr, i32 } %26, 1, !dbg !2326
  store i32 %28, ptr %9, align 4, !dbg !2326
  br label %33, !dbg !2326

29:                                               ; preds = %23
  %30 = landingpad { ptr, i32 }
          cleanup, !dbg !2326
  %31 = extractvalue { ptr, i32 } %30, 0, !dbg !2326
  store ptr %31, ptr %8, align 8, !dbg !2326
  %32 = extractvalue { ptr, i32 } %30, 1, !dbg !2326
  store i32 %32, ptr %9, align 4, !dbg !2326
  call void @_ZNSt6vectorI11StringTokenSaIS0_EED2Ev(ptr noundef nonnull align 8 dereferenceable(24) %11) #14, !dbg !2325
  call void @_ZNSt7__cxx1112basic_stringIcSt11char_traitsIcESaIcEED1Ev(ptr noundef nonnull align 8 dereferenceable(32) %10) #14, !dbg !2325
  br label %33, !dbg !2325

33:                                               ; preds = %29, %25
  call void @_ZNSt6vectorI11StringTokenSaIS0_EED2Ev(ptr noundef nonnull align 8 dereferenceable(24) %7) #14, !dbg !2326
  br label %35, !dbg !2326

34:                                               ; preds = %24, %14
  ret void, !dbg !2326

35:                                               ; preds = %33
  %36 = load ptr, ptr %8, align 8, !dbg !2326
  %37 = load i32, ptr %9, align 4, !dbg !2326
  %38 = insertvalue { ptr, i32 } poison, ptr %36, 0, !dbg !2326
  %39 = insertvalue { ptr, i32 } %38, i32 %37, 1, !dbg !2326
  resume { ptr, i32 } %39, !dbg !2326
}

declare i32 @__gxx_personality_v0(...)

; Function Attrs: mustprogress noinline nounwind uwtable
define linkonce_odr dso_local noundef i64 @_ZNK12StringVector4sizeEv(ptr noundef nonnull align 8 dereferenceable(56) %0) #3 comdat align 2 !dbg !2327 {
  %2 = alloca ptr, align 8
  store ptr %0, ptr %2, align 8
  call void @llvm.dbg.declare(metadata ptr %2, metadata !2328, metadata !DIExpression()), !dbg !2330
  %3 = load ptr, ptr %2, align 8
  %4 = getelementptr inbounds %class.StringVector, ptr %3, i32 0, i32 1, !dbg !2331
  %5 = call noundef i64 @_ZNKSt6vectorI11StringTokenSaIS0_EE4sizeEv(ptr noundef nonnull align 8 dereferenceable(24) %4) #14, !dbg !2332
  ret i64 %5, !dbg !2333
}

; Function Attrs: mustprogress noinline uwtable
define linkonce_odr dso_local noundef i32 @_ZNSt7__cxx114stoiERKNS_12basic_stringIcSt11char_traitsIcESaIcEEEPmi(ptr noundef nonnull align 8 dereferenceable(32) %0, ptr noundef %1, i32 noundef %2) #0 comdat !dbg !2334 {
  %4 = alloca ptr, align 8
  %5 = alloca ptr, align 8
  %6 = alloca i32, align 4
  store ptr %0, ptr %4, align 8
  call void @llvm.dbg.declare(metadata ptr %4, metadata !2337, metadata !DIExpression()), !dbg !2338
  store ptr %1, ptr %5, align 8
  call void @llvm.dbg.declare(metadata ptr %5, metadata !2339, metadata !DIExpression()), !dbg !2340
  store i32 %2, ptr %6, align 4
  call void @llvm.dbg.declare(metadata ptr %6, metadata !2341, metadata !DIExpression()), !dbg !2342
  %7 = load ptr, ptr %4, align 8, !dbg !2343
  %8 = call noundef ptr @_ZNKSt7__cxx1112basic_stringIcSt11char_traitsIcESaIcEE5c_strEv(ptr noundef nonnull align 8 dereferenceable(32) %7) #14, !dbg !2344
  %9 = load ptr, ptr %5, align 8, !dbg !2345
  %10 = load i32, ptr %6, align 4, !dbg !2346
  %11 = call noundef i32 @_ZN9__gnu_cxx6__stoaIlicJiEEET0_PFT_PKT1_PPS3_DpT2_EPKcS5_PmS9_(ptr noundef @strtol, ptr noundef @.str.3, ptr noundef %8, ptr noundef %9, i32 noundef %10), !dbg !2347
  ret i32 %11, !dbg !2348
}

; Function Attrs: mustprogress noinline uwtable
define linkonce_odr dso_local void @_ZNK12StringVectorixB5cxx11Em(ptr noalias sret(%"class.std::__cxx11::basic_string") align 8 %0, ptr noundef nonnull align 8 dereferenceable(56) %1, i64 noundef %2) #0 comdat align 2 !dbg !2349 {
  %4 = alloca ptr, align 8
  %5 = alloca ptr, align 8
  %6 = alloca i64, align 8
  %7 = alloca ptr, align 8
  store ptr %0, ptr %4, align 8
  store ptr %1, ptr %5, align 8
  call void @llvm.dbg.declare(metadata ptr %5, metadata !2350, metadata !DIExpression()), !dbg !2351
  store i64 %2, ptr %6, align 8
  call void @llvm.dbg.declare(metadata ptr %6, metadata !2352, metadata !DIExpression()), !dbg !2353
  %8 = load ptr, ptr %5, align 8
  %9 = load i64, ptr %6, align 8, !dbg !2354
  %10 = getelementptr inbounds %class.StringVector, ptr %8, i32 0, i32 1, !dbg !2356
  %11 = call noundef i64 @_ZNKSt6vectorI11StringTokenSaIS0_EE4sizeEv(ptr noundef nonnull align 8 dereferenceable(24) %10) #14, !dbg !2357
  %12 = icmp uge i64 %9, %11, !dbg !2358
  br i1 %12, label %13, label %14, !dbg !2359

13:                                               ; preds = %3
  call void @_ZNSt7__cxx1112basic_stringIcSt11char_traitsIcESaIcEEC1Ev(ptr noundef nonnull align 8 dereferenceable(32) %0) #14, !dbg !2360
  br label %25, !dbg !2362

14:                                               ; preds = %3
  call void @llvm.dbg.declare(metadata ptr %7, metadata !2363, metadata !DIExpression()), !dbg !2364
  %15 = getelementptr inbounds %class.StringVector, ptr %8, i32 0, i32 1, !dbg !2365
  %16 = load i64, ptr %6, align 8, !dbg !2366
  %17 = call noundef nonnull align 8 dereferenceable(16) ptr @_ZNKSt6vectorI11StringTokenSaIS0_EEixEm(ptr noundef nonnull align 8 dereferenceable(24) %15, i64 noundef %16) #14, !dbg !2365
  store ptr %17, ptr %7, align 8, !dbg !2364
  %18 = getelementptr inbounds %class.StringVector, ptr %8, i32 0, i32 0, !dbg !2367
  %19 = load ptr, ptr %7, align 8, !dbg !2368
  %20 = getelementptr inbounds %struct.StringToken, ptr %19, i32 0, i32 0, !dbg !2369
  %21 = load i64, ptr %20, align 8, !dbg !2369
  %22 = load ptr, ptr %7, align 8, !dbg !2370
  %23 = getelementptr inbounds %struct.StringToken, ptr %22, i32 0, i32 1, !dbg !2371
  %24 = load i64, ptr %23, align 8, !dbg !2371
  call void @_ZNKSt7__cxx1112basic_stringIcSt11char_traitsIcESaIcEE6substrEmm(ptr sret(%"class.std::__cxx11::basic_string") align 8 %0, ptr noundef nonnull align 8 dereferenceable(32) %18, i64 noundef %21, i64 noundef %24), !dbg !2372
  br label %25, !dbg !2373

25:                                               ; preds = %14, %13
  ret void, !dbg !2374
}

; Function Attrs: nounwind
declare void @_ZNSt7__cxx1112basic_stringIcSt11char_traitsIcESaIcEED1Ev(ptr noundef nonnull align 8 dereferenceable(32)) unnamed_addr #2

; Function Attrs: noinline nounwind uwtable
define linkonce_odr dso_local void @_ZN12StringVectorC2Ev(ptr noundef nonnull align 8 dereferenceable(56) %0) unnamed_addr #4 comdat align 2 !dbg !2375 {
  %2 = alloca ptr, align 8
  store ptr %0, ptr %2, align 8
  call void @llvm.dbg.declare(metadata ptr %2, metadata !2376, metadata !DIExpression()), !dbg !2378
  %3 = load ptr, ptr %2, align 8
  %4 = getelementptr inbounds %class.StringVector, ptr %3, i32 0, i32 0, !dbg !2379
  call void @_ZNSt7__cxx1112basic_stringIcSt11char_traitsIcESaIcEEC1Ev(ptr noundef nonnull align 8 dereferenceable(32) %4) #14, !dbg !2379
  %5 = getelementptr inbounds %class.StringVector, ptr %3, i32 0, i32 1, !dbg !2379
  call void @_ZNSt6vectorI11StringTokenSaIS0_EEC2Ev(ptr noundef nonnull align 8 dereferenceable(24) %5) #14, !dbg !2379
  ret void, !dbg !2380
}

; Function Attrs: noinline nounwind uwtable
define linkonce_odr dso_local noundef nonnull align 8 dereferenceable(56) ptr @_ZN12StringVectoraSEOS_(ptr noundef nonnull align 8 dereferenceable(56) %0, ptr noundef nonnull align 8 dereferenceable(56) %1) #4 comdat align 2 !dbg !2381 {
  %3 = alloca ptr, align 8
  %4 = alloca ptr, align 8
  store ptr %0, ptr %3, align 8
  call void @llvm.dbg.declare(metadata ptr %3, metadata !2387, metadata !DIExpression()), !dbg !2388
  store ptr %1, ptr %4, align 8
  call void @llvm.dbg.declare(metadata ptr %4, metadata !2389, metadata !DIExpression()), !dbg !2388
  %5 = load ptr, ptr %3, align 8
  %6 = getelementptr inbounds %class.StringVector, ptr %5, i32 0, i32 0, !dbg !2390
  %7 = load ptr, ptr %4, align 8, !dbg !2390
  %8 = getelementptr inbounds %class.StringVector, ptr %7, i32 0, i32 0, !dbg !2390
  %9 = call noundef nonnull align 8 dereferenceable(32) ptr @_ZNSt7__cxx1112basic_stringIcSt11char_traitsIcESaIcEEaSEOS4_(ptr noundef nonnull align 8 dereferenceable(32) %6, ptr noundef nonnull align 8 dereferenceable(32) %8) #14, !dbg !2390
  %10 = getelementptr inbounds %class.StringVector, ptr %5, i32 0, i32 1, !dbg !2390
  %11 = load ptr, ptr %4, align 8, !dbg !2390
  %12 = getelementptr inbounds %class.StringVector, ptr %11, i32 0, i32 1, !dbg !2390
  %13 = call noundef nonnull align 8 dereferenceable(24) ptr @_ZNSt6vectorI11StringTokenSaIS0_EEaSEOS2_(ptr noundef nonnull align 8 dereferenceable(24) %10, ptr noundef nonnull align 8 dereferenceable(24) %12) #14, !dbg !2390
  ret ptr %5, !dbg !2390
}

; Function Attrs: noinline nounwind uwtable
define linkonce_odr dso_local void @_ZN12StringVectorD2Ev(ptr noundef nonnull align 8 dereferenceable(56) %0) unnamed_addr #4 comdat align 2 !dbg !2392 {
  %2 = alloca ptr, align 8
  store ptr %0, ptr %2, align 8
  call void @llvm.dbg.declare(metadata ptr %2, metadata !2394, metadata !DIExpression()), !dbg !2395
  %3 = load ptr, ptr %2, align 8
  %4 = getelementptr inbounds %class.StringVector, ptr %3, i32 0, i32 1, !dbg !2396
  call void @_ZNSt6vectorI11StringTokenSaIS0_EED2Ev(ptr noundef nonnull align 8 dereferenceable(24) %4) #14, !dbg !2396
  %5 = getelementptr inbounds %class.StringVector, ptr %3, i32 0, i32 0, !dbg !2396
  call void @_ZNSt7__cxx1112basic_stringIcSt11char_traitsIcESaIcEED1Ev(ptr noundef nonnull align 8 dereferenceable(32) %5) #14, !dbg !2396
  ret void, !dbg !2398
}

; Function Attrs: nounwind
declare noundef nonnull align 8 dereferenceable(32) ptr @_ZNSt7__cxx1112basic_stringIcSt11char_traitsIcESaIcEEaSEOS4_(ptr noundef nonnull align 8 dereferenceable(32), ptr noundef nonnull align 8 dereferenceable(32)) #2

; Function Attrs: mustprogress noinline uwtable
define linkonce_odr dso_local void @_ZSt10make_tupleIJRiS0_RNSt7__cxx1112basic_stringIcSt11char_traitsIcESaIcEEEEESt5tupleIJDpNSt25__strip_reference_wrapperINSt5decayIT_E4typeEE6__typeEEEDpOSB_(ptr noalias sret(%"class.std::tuple") align 8 %0, ptr noundef nonnull align 4 dereferenceable(4) %1, ptr noundef nonnull align 4 dereferenceable(4) %2, ptr noundef nonnull align 8 dereferenceable(32) %3) #0 comdat !dbg !2399 {
  %5 = alloca ptr, align 8
  %6 = alloca ptr, align 8
  %7 = alloca ptr, align 8
  %8 = alloca ptr, align 8
  store ptr %0, ptr %5, align 8
  store ptr %1, ptr %6, align 8
  call void @llvm.dbg.declare(metadata ptr %6, metadata !2407, metadata !DIExpression()), !dbg !2408
  store ptr %2, ptr %7, align 8
  call void @llvm.dbg.declare(metadata ptr %7, metadata !2409, metadata !DIExpression()), !dbg !2408
  store ptr %3, ptr %8, align 8
  call void @llvm.dbg.declare(metadata ptr %8, metadata !2410, metadata !DIExpression()), !dbg !2408
  %9 = load ptr, ptr %6, align 8, !dbg !2411
  %10 = load ptr, ptr %7, align 8, !dbg !2411
  %11 = load ptr, ptr %8, align 8, !dbg !2411
  call void @_ZNSt5tupleIJiiNSt7__cxx1112basic_stringIcSt11char_traitsIcESaIcEEEEEC2IJRiS8_RS5_ELb1ELb1EEEDpOT_(ptr noundef nonnull align 8 dereferenceable(40) %0, ptr noundef nonnull align 4 dereferenceable(4) %9, ptr noundef nonnull align 4 dereferenceable(4) %10, ptr noundef nonnull align 8 dereferenceable(32) %11), !dbg !2412
  ret void, !dbg !2413
}

; Function Attrs: mustprogress noinline uwtable
define dso_local noundef zeroext i1 @_ZN12COOLProtocol15getTokenIntegerERKNSt7__cxx1112basic_stringIcSt11char_traitsIcESaIcEEES7_Ri(ptr noundef nonnull align 8 dereferenceable(32) %0, ptr noundef nonnull align 8 dereferenceable(32) %1, ptr noundef nonnull align 4 dereferenceable(4) %2) #0 !dbg !2414 {
  %4 = alloca i1, align 1
  %5 = alloca ptr, align 8
  %6 = alloca ptr, align 8
  %7 = alloca ptr, align 8
  %8 = alloca ptr, align 8
  %9 = alloca ptr, align 8
  store ptr %0, ptr %5, align 8
  call void @llvm.dbg.declare(metadata ptr %5, metadata !2417, metadata !DIExpression()), !dbg !2418
  store ptr %1, ptr %6, align 8
  call void @llvm.dbg.declare(metadata ptr %6, metadata !2419, metadata !DIExpression()), !dbg !2420
  store ptr %2, ptr %7, align 8
  call void @llvm.dbg.declare(metadata ptr %7, metadata !2421, metadata !DIExpression()), !dbg !2422
  %10 = load ptr, ptr %5, align 8, !dbg !2423
  %11 = call noundef i64 @_ZNKSt7__cxx1112basic_stringIcSt11char_traitsIcESaIcEE4sizeEv(ptr noundef nonnull align 8 dereferenceable(32) %10) #14, !dbg !2425
  %12 = load ptr, ptr %6, align 8, !dbg !2426
  %13 = call noundef i64 @_ZNKSt7__cxx1112basic_stringIcSt11char_traitsIcESaIcEE4sizeEv(ptr noundef nonnull align 8 dereferenceable(32) %12) #14, !dbg !2427
  %14 = add i64 %13, 1, !dbg !2428
  %15 = icmp ugt i64 %11, %14, !dbg !2429
  br i1 %15, label %16, label %45, !dbg !2430

16:                                               ; preds = %3
  %17 = load ptr, ptr %5, align 8, !dbg !2431
  %18 = load ptr, ptr %6, align 8, !dbg !2432
  %19 = call noundef i64 @_ZNKSt7__cxx1112basic_stringIcSt11char_traitsIcESaIcEE4sizeEv(ptr noundef nonnull align 8 dereferenceable(32) %18) #14, !dbg !2433
  %20 = load ptr, ptr %6, align 8, !dbg !2434
  %21 = call noundef i32 @_ZNKSt7__cxx1112basic_stringIcSt11char_traitsIcESaIcEE7compareEmmRKS4_(ptr noundef nonnull align 8 dereferenceable(32) %17, i64 noundef 0, i64 noundef %19, ptr noundef nonnull align 8 dereferenceable(32) %20), !dbg !2435
  %22 = icmp eq i32 %21, 0, !dbg !2436
  br i1 %22, label %23, label %45, !dbg !2437

23:                                               ; preds = %16
  %24 = load ptr, ptr %5, align 8, !dbg !2438
  %25 = load ptr, ptr %6, align 8, !dbg !2439
  %26 = call noundef i64 @_ZNKSt7__cxx1112basic_stringIcSt11char_traitsIcESaIcEE4sizeEv(ptr noundef nonnull align 8 dereferenceable(32) %25) #14, !dbg !2440
  %27 = call noundef nonnull align 1 dereferenceable(1) ptr @_ZNKSt7__cxx1112basic_stringIcSt11char_traitsIcESaIcEEixEm(ptr noundef nonnull align 8 dereferenceable(32) %24, i64 noundef %26) #14, !dbg !2438
  %28 = load i8, ptr %27, align 1, !dbg !2438
  %29 = sext i8 %28 to i32, !dbg !2438
  %30 = icmp eq i32 %29, 61, !dbg !2441
  br i1 %30, label %31, label %45, !dbg !2442

31:                                               ; preds = %23
  call void @llvm.dbg.declare(metadata ptr %8, metadata !2443, metadata !DIExpression()), !dbg !2445
  %32 = load ptr, ptr %5, align 8, !dbg !2446
  %33 = call noundef ptr @_ZNKSt7__cxx1112basic_stringIcSt11char_traitsIcESaIcEE4dataEv(ptr noundef nonnull align 8 dereferenceable(32) %32) #14, !dbg !2447
  %34 = load ptr, ptr %6, align 8, !dbg !2448
  %35 = call noundef i64 @_ZNKSt7__cxx1112basic_stringIcSt11char_traitsIcESaIcEE4sizeEv(ptr noundef nonnull align 8 dereferenceable(32) %34) #14, !dbg !2449
  %36 = getelementptr inbounds i8, ptr %33, i64 %35, !dbg !2450
  %37 = getelementptr inbounds i8, ptr %36, i64 1, !dbg !2451
  store ptr %37, ptr %8, align 8, !dbg !2445
  call void @llvm.dbg.declare(metadata ptr %9, metadata !2452, metadata !DIExpression()), !dbg !2453
  store ptr null, ptr %9, align 8, !dbg !2453
  %38 = load ptr, ptr %8, align 8, !dbg !2454
  %39 = call i64 @strtol(ptr noundef %38, ptr noundef %9, i32 noundef 10) #14, !dbg !2455
  %40 = trunc i64 %39 to i32, !dbg !2455
  %41 = load ptr, ptr %7, align 8, !dbg !2456
  store i32 %40, ptr %41, align 4, !dbg !2457
  %42 = load ptr, ptr %9, align 8, !dbg !2458
  %43 = load ptr, ptr %8, align 8, !dbg !2459
  %44 = icmp ugt ptr %42, %43, !dbg !2460
  store i1 %44, ptr %4, align 1, !dbg !2461
  br label %46, !dbg !2461

45:                                               ; preds = %23, %16, %3
  store i1 false, ptr %4, align 1, !dbg !2462
  br label %46, !dbg !2462

46:                                               ; preds = %45, %31
  %47 = load i1, ptr %4, align 1, !dbg !2463
  ret i1 %47, !dbg !2463
}

; Function Attrs: nounwind
declare noundef i64 @_ZNKSt7__cxx1112basic_stringIcSt11char_traitsIcESaIcEE4sizeEv(ptr noundef nonnull align 8 dereferenceable(32)) #2

declare noundef i32 @_ZNKSt7__cxx1112basic_stringIcSt11char_traitsIcESaIcEE7compareEmmRKS4_(ptr noundef nonnull align 8 dereferenceable(32), i64 noundef, i64 noundef, ptr noundef nonnull align 8 dereferenceable(32)) #5

; Function Attrs: nounwind
declare noundef nonnull align 1 dereferenceable(1) ptr @_ZNKSt7__cxx1112basic_stringIcSt11char_traitsIcESaIcEEixEm(ptr noundef nonnull align 8 dereferenceable(32), i64 noundef) #2

; Function Attrs: nounwind
declare noundef ptr @_ZNKSt7__cxx1112basic_stringIcSt11char_traitsIcESaIcEE4dataEv(ptr noundef nonnull align 8 dereferenceable(32)) #2

; Function Attrs: nounwind
declare i64 @strtol(ptr noundef, ptr noundef, i32 noundef) #2

; Function Attrs: mustprogress noinline uwtable
define dso_local noundef zeroext i1 @_ZN12COOLProtocol14getTokenUInt64ERKNSt7__cxx1112basic_stringIcSt11char_traitsIcESaIcEEES7_Rm(ptr noundef nonnull align 8 dereferenceable(32) %0, ptr noundef nonnull align 8 dereferenceable(32) %1, ptr noundef nonnull align 8 dereferenceable(8) %2) #0 !dbg !2464 {
  %4 = alloca i1, align 1
  %5 = alloca ptr, align 8
  %6 = alloca ptr, align 8
  %7 = alloca ptr, align 8
  %8 = alloca ptr, align 8
  %9 = alloca ptr, align 8
  store ptr %0, ptr %5, align 8
  call void @llvm.dbg.declare(metadata ptr %5, metadata !2468, metadata !DIExpression()), !dbg !2469
  store ptr %1, ptr %6, align 8
  call void @llvm.dbg.declare(metadata ptr %6, metadata !2470, metadata !DIExpression()), !dbg !2471
  store ptr %2, ptr %7, align 8
  call void @llvm.dbg.declare(metadata ptr %7, metadata !2472, metadata !DIExpression()), !dbg !2473
  %10 = load ptr, ptr %5, align 8, !dbg !2474
  %11 = call noundef i64 @_ZNKSt7__cxx1112basic_stringIcSt11char_traitsIcESaIcEE4sizeEv(ptr noundef nonnull align 8 dereferenceable(32) %10) #14, !dbg !2476
  %12 = load ptr, ptr %6, align 8, !dbg !2477
  %13 = call noundef i64 @_ZNKSt7__cxx1112basic_stringIcSt11char_traitsIcESaIcEE4sizeEv(ptr noundef nonnull align 8 dereferenceable(32) %12) #14, !dbg !2478
  %14 = add i64 %13, 1, !dbg !2479
  %15 = icmp ugt i64 %11, %14, !dbg !2480
  br i1 %15, label %16, label %44, !dbg !2481

16:                                               ; preds = %3
  %17 = load ptr, ptr %5, align 8, !dbg !2482
  %18 = load ptr, ptr %6, align 8, !dbg !2483
  %19 = call noundef i64 @_ZNKSt7__cxx1112basic_stringIcSt11char_traitsIcESaIcEE4sizeEv(ptr noundef nonnull align 8 dereferenceable(32) %18) #14, !dbg !2484
  %20 = load ptr, ptr %6, align 8, !dbg !2485
  %21 = call noundef i32 @_ZNKSt7__cxx1112basic_stringIcSt11char_traitsIcESaIcEE7compareEmmRKS4_(ptr noundef nonnull align 8 dereferenceable(32) %17, i64 noundef 0, i64 noundef %19, ptr noundef nonnull align 8 dereferenceable(32) %20), !dbg !2486
  %22 = icmp eq i32 %21, 0, !dbg !2487
  br i1 %22, label %23, label %44, !dbg !2488

23:                                               ; preds = %16
  %24 = load ptr, ptr %5, align 8, !dbg !2489
  %25 = load ptr, ptr %6, align 8, !dbg !2490
  %26 = call noundef i64 @_ZNKSt7__cxx1112basic_stringIcSt11char_traitsIcESaIcEE4sizeEv(ptr noundef nonnull align 8 dereferenceable(32) %25) #14, !dbg !2491
  %27 = call noundef nonnull align 1 dereferenceable(1) ptr @_ZNKSt7__cxx1112basic_stringIcSt11char_traitsIcESaIcEEixEm(ptr noundef nonnull align 8 dereferenceable(32) %24, i64 noundef %26) #14, !dbg !2489
  %28 = load i8, ptr %27, align 1, !dbg !2489
  %29 = sext i8 %28 to i32, !dbg !2489
  %30 = icmp eq i32 %29, 61, !dbg !2492
  br i1 %30, label %31, label %44, !dbg !2493

31:                                               ; preds = %23
  call void @llvm.dbg.declare(metadata ptr %8, metadata !2494, metadata !DIExpression()), !dbg !2496
  %32 = load ptr, ptr %5, align 8, !dbg !2497
  %33 = call noundef ptr @_ZNKSt7__cxx1112basic_stringIcSt11char_traitsIcESaIcEE4dataEv(ptr noundef nonnull align 8 dereferenceable(32) %32) #14, !dbg !2498
  %34 = load ptr, ptr %6, align 8, !dbg !2499
  %35 = call noundef i64 @_ZNKSt7__cxx1112basic_stringIcSt11char_traitsIcESaIcEE4sizeEv(ptr noundef nonnull align 8 dereferenceable(32) %34) #14, !dbg !2500
  %36 = getelementptr inbounds i8, ptr %33, i64 %35, !dbg !2501
  %37 = getelementptr inbounds i8, ptr %36, i64 1, !dbg !2502
  store ptr %37, ptr %8, align 8, !dbg !2496
  call void @llvm.dbg.declare(metadata ptr %9, metadata !2503, metadata !DIExpression()), !dbg !2504
  store ptr null, ptr %9, align 8, !dbg !2504
  %38 = load ptr, ptr %8, align 8, !dbg !2505
  %39 = call i64 @strtoull(ptr noundef %38, ptr noundef %9, i32 noundef 10) #14, !dbg !2506
  %40 = load ptr, ptr %7, align 8, !dbg !2507
  store i64 %39, ptr %40, align 8, !dbg !2508
  %41 = load ptr, ptr %9, align 8, !dbg !2509
  %42 = load ptr, ptr %8, align 8, !dbg !2510
  %43 = icmp ugt ptr %41, %42, !dbg !2511
  store i1 %43, ptr %4, align 1, !dbg !2512
  br label %45, !dbg !2512

44:                                               ; preds = %23, %16, %3
  store i1 false, ptr %4, align 1, !dbg !2513
  br label %45, !dbg !2513

45:                                               ; preds = %44, %31
  %46 = load i1, ptr %4, align 1, !dbg !2514
  ret i1 %46, !dbg !2514
}

; Function Attrs: nounwind
declare i64 @strtoull(ptr noundef, ptr noundef, i32 noundef) #2

; Function Attrs: mustprogress noinline uwtable
define dso_local noundef zeroext i1 @_ZN12COOLProtocol14getTokenUInt32ERKNSt7__cxx1112basic_stringIcSt11char_traitsIcESaIcEEES7_Rj(ptr noundef nonnull align 8 dereferenceable(32) %0, ptr noundef nonnull align 8 dereferenceable(32) %1, ptr noundef nonnull align 4 dereferenceable(4) %2) #0 !dbg !2515 {
  %4 = alloca i1, align 1
  %5 = alloca ptr, align 8
  %6 = alloca ptr, align 8
  %7 = alloca ptr, align 8
  %8 = alloca ptr, align 8
  %9 = alloca ptr, align 8
  store ptr %0, ptr %5, align 8
  call void @llvm.dbg.declare(metadata ptr %5, metadata !2518, metadata !DIExpression()), !dbg !2519
  store ptr %1, ptr %6, align 8
  call void @llvm.dbg.declare(metadata ptr %6, metadata !2520, metadata !DIExpression()), !dbg !2521
  store ptr %2, ptr %7, align 8
  call void @llvm.dbg.declare(metadata ptr %7, metadata !2522, metadata !DIExpression()), !dbg !2523
  %10 = load ptr, ptr %5, align 8, !dbg !2524
  %11 = call noundef i64 @_ZNKSt7__cxx1112basic_stringIcSt11char_traitsIcESaIcEE4sizeEv(ptr noundef nonnull align 8 dereferenceable(32) %10) #14, !dbg !2526
  %12 = load ptr, ptr %6, align 8, !dbg !2527
  %13 = call noundef i64 @_ZNKSt7__cxx1112basic_stringIcSt11char_traitsIcESaIcEE4sizeEv(ptr noundef nonnull align 8 dereferenceable(32) %12) #14, !dbg !2528
  %14 = add i64 %13, 1, !dbg !2529
  %15 = icmp ugt i64 %11, %14, !dbg !2530
  br i1 %15, label %16, label %45, !dbg !2531

16:                                               ; preds = %3
  %17 = load ptr, ptr %5, align 8, !dbg !2532
  %18 = load ptr, ptr %6, align 8, !dbg !2533
  %19 = call noundef i64 @_ZNKSt7__cxx1112basic_stringIcSt11char_traitsIcESaIcEE4sizeEv(ptr noundef nonnull align 8 dereferenceable(32) %18) #14, !dbg !2534
  %20 = load ptr, ptr %6, align 8, !dbg !2535
  %21 = call noundef i32 @_ZNKSt7__cxx1112basic_stringIcSt11char_traitsIcESaIcEE7compareEmmRKS4_(ptr noundef nonnull align 8 dereferenceable(32) %17, i64 noundef 0, i64 noundef %19, ptr noundef nonnull align 8 dereferenceable(32) %20), !dbg !2536
  %22 = icmp eq i32 %21, 0, !dbg !2537
  br i1 %22, label %23, label %45, !dbg !2538

23:                                               ; preds = %16
  %24 = load ptr, ptr %5, align 8, !dbg !2539
  %25 = load ptr, ptr %6, align 8, !dbg !2540
  %26 = call noundef i64 @_ZNKSt7__cxx1112basic_stringIcSt11char_traitsIcESaIcEE4sizeEv(ptr noundef nonnull align 8 dereferenceable(32) %25) #14, !dbg !2541
  %27 = call noundef nonnull align 1 dereferenceable(1) ptr @_ZNKSt7__cxx1112basic_stringIcSt11char_traitsIcESaIcEEixEm(ptr noundef nonnull align 8 dereferenceable(32) %24, i64 noundef %26) #14, !dbg !2539
  %28 = load i8, ptr %27, align 1, !dbg !2539
  %29 = sext i8 %28 to i32, !dbg !2539
  %30 = icmp eq i32 %29, 61, !dbg !2542
  br i1 %30, label %31, label %45, !dbg !2543

31:                                               ; preds = %23
  call void @llvm.dbg.declare(metadata ptr %8, metadata !2544, metadata !DIExpression()), !dbg !2546
  %32 = load ptr, ptr %5, align 8, !dbg !2547
  %33 = call noundef ptr @_ZNKSt7__cxx1112basic_stringIcSt11char_traitsIcESaIcEE4dataEv(ptr noundef nonnull align 8 dereferenceable(32) %32) #14, !dbg !2548
  %34 = load ptr, ptr %6, align 8, !dbg !2549
  %35 = call noundef i64 @_ZNKSt7__cxx1112basic_stringIcSt11char_traitsIcESaIcEE4sizeEv(ptr noundef nonnull align 8 dereferenceable(32) %34) #14, !dbg !2550
  %36 = getelementptr inbounds i8, ptr %33, i64 %35, !dbg !2551
  %37 = getelementptr inbounds i8, ptr %36, i64 1, !dbg !2552
  store ptr %37, ptr %8, align 8, !dbg !2546
  call void @llvm.dbg.declare(metadata ptr %9, metadata !2553, metadata !DIExpression()), !dbg !2554
  store ptr null, ptr %9, align 8, !dbg !2554
  %38 = load ptr, ptr %8, align 8, !dbg !2555
  %39 = call i64 @strtoul(ptr noundef %38, ptr noundef %9, i32 noundef 10) #14, !dbg !2556
  %40 = trunc i64 %39 to i32, !dbg !2556
  %41 = load ptr, ptr %7, align 8, !dbg !2557
  store i32 %40, ptr %41, align 4, !dbg !2558
  %42 = load ptr, ptr %9, align 8, !dbg !2559
  %43 = load ptr, ptr %8, align 8, !dbg !2560
  %44 = icmp ugt ptr %42, %43, !dbg !2561
  store i1 %44, ptr %4, align 1, !dbg !2562
  br label %46, !dbg !2562

45:                                               ; preds = %23, %16, %3
  store i1 false, ptr %4, align 1, !dbg !2563
  br label %46, !dbg !2563

46:                                               ; preds = %45, %31
  %47 = load i1, ptr %4, align 1, !dbg !2564
  ret i1 %47, !dbg !2564
}

; Function Attrs: nounwind
declare i64 @strtoul(ptr noundef, ptr noundef, i32 noundef) #2

; Function Attrs: mustprogress noinline uwtable
define dso_local noundef zeroext i1 @_ZN12COOLProtocol14getTokenStringERKNSt7__cxx1112basic_stringIcSt11char_traitsIcESaIcEEES7_RS5_(ptr noundef nonnull align 8 dereferenceable(32) %0, ptr noundef nonnull align 8 dereferenceable(32) %1, ptr noundef nonnull align 8 dereferenceable(32) %2) #0 !dbg !2565 {
  %4 = alloca i1, align 1
  %5 = alloca ptr, align 8
  %6 = alloca ptr, align 8
  %7 = alloca ptr, align 8
  %8 = alloca %"class.std::__cxx11::basic_string", align 8
  store ptr %0, ptr %5, align 8
  call void @llvm.dbg.declare(metadata ptr %5, metadata !2568, metadata !DIExpression()), !dbg !2569
  store ptr %1, ptr %6, align 8
  call void @llvm.dbg.declare(metadata ptr %6, metadata !2570, metadata !DIExpression()), !dbg !2571
  store ptr %2, ptr %7, align 8
  call void @llvm.dbg.declare(metadata ptr %7, metadata !2572, metadata !DIExpression()), !dbg !2573
  %9 = load ptr, ptr %5, align 8, !dbg !2574
  %10 = call noundef i64 @_ZNKSt7__cxx1112basic_stringIcSt11char_traitsIcESaIcEE4sizeEv(ptr noundef nonnull align 8 dereferenceable(32) %9) #14, !dbg !2576
  %11 = load ptr, ptr %6, align 8, !dbg !2577
  %12 = call noundef i64 @_ZNKSt7__cxx1112basic_stringIcSt11char_traitsIcESaIcEE4sizeEv(ptr noundef nonnull align 8 dereferenceable(32) %11) #14, !dbg !2578
  %13 = add i64 %12, 1, !dbg !2579
  %14 = icmp uge i64 %10, %13, !dbg !2580
  br i1 %14, label %15, label %37, !dbg !2581

15:                                               ; preds = %3
  %16 = load ptr, ptr %5, align 8, !dbg !2582
  %17 = load ptr, ptr %6, align 8, !dbg !2583
  %18 = call noundef i64 @_ZNKSt7__cxx1112basic_stringIcSt11char_traitsIcESaIcEE4sizeEv(ptr noundef nonnull align 8 dereferenceable(32) %17) #14, !dbg !2584
  %19 = load ptr, ptr %6, align 8, !dbg !2585
  %20 = call noundef i32 @_ZNKSt7__cxx1112basic_stringIcSt11char_traitsIcESaIcEE7compareEmmRKS4_(ptr noundef nonnull align 8 dereferenceable(32) %16, i64 noundef 0, i64 noundef %18, ptr noundef nonnull align 8 dereferenceable(32) %19), !dbg !2586
  %21 = icmp eq i32 %20, 0, !dbg !2587
  br i1 %21, label %22, label %37, !dbg !2588

22:                                               ; preds = %15
  %23 = load ptr, ptr %5, align 8, !dbg !2589
  %24 = load ptr, ptr %6, align 8, !dbg !2590
  %25 = call noundef i64 @_ZNKSt7__cxx1112basic_stringIcSt11char_traitsIcESaIcEE4sizeEv(ptr noundef nonnull align 8 dereferenceable(32) %24) #14, !dbg !2591
  %26 = call noundef nonnull align 1 dereferenceable(1) ptr @_ZNKSt7__cxx1112basic_stringIcSt11char_traitsIcESaIcEEixEm(ptr noundef nonnull align 8 dereferenceable(32) %23, i64 noundef %25) #14, !dbg !2589
  %27 = load i8, ptr %26, align 1, !dbg !2589
  %28 = sext i8 %27 to i32, !dbg !2589
  %29 = icmp eq i32 %28, 61, !dbg !2592
  br i1 %29, label %30, label %37, !dbg !2593

30:                                               ; preds = %22
  %31 = load ptr, ptr %5, align 8, !dbg !2594
  %32 = load ptr, ptr %6, align 8, !dbg !2596
  %33 = call noundef i64 @_ZNKSt7__cxx1112basic_stringIcSt11char_traitsIcESaIcEE4sizeEv(ptr noundef nonnull align 8 dereferenceable(32) %32) #14, !dbg !2597
  %34 = add i64 %33, 1, !dbg !2598
  call void @_ZNKSt7__cxx1112basic_stringIcSt11char_traitsIcESaIcEE6substrEmm(ptr sret(%"class.std::__cxx11::basic_string") align 8 %8, ptr noundef nonnull align 8 dereferenceable(32) %31, i64 noundef %34, i64 noundef -1), !dbg !2599
  %35 = load ptr, ptr %7, align 8, !dbg !2600
  %36 = call noundef nonnull align 8 dereferenceable(32) ptr @_ZNSt7__cxx1112basic_stringIcSt11char_traitsIcESaIcEEaSEOS4_(ptr noundef nonnull align 8 dereferenceable(32) %35, ptr noundef nonnull align 8 dereferenceable(32) %8) #14, !dbg !2601
  call void @_ZNSt7__cxx1112basic_stringIcSt11char_traitsIcESaIcEED1Ev(ptr noundef nonnull align 8 dereferenceable(32) %8) #14, !dbg !2600
  store i1 true, ptr %4, align 1, !dbg !2602
  br label %38, !dbg !2602

37:                                               ; preds = %22, %15, %3
  store i1 false, ptr %4, align 1, !dbg !2603
  br label %38, !dbg !2603

38:                                               ; preds = %37, %30
  %39 = load i1, ptr %4, align 1, !dbg !2604
  ret i1 %39, !dbg !2604
}

declare void @_ZNKSt7__cxx1112basic_stringIcSt11char_traitsIcESaIcEE6substrEmm(ptr sret(%"class.std::__cxx11::basic_string") align 8, ptr noundef nonnull align 8 dereferenceable(32), i64 noundef, i64 noundef) #5

; Function Attrs: mustprogress noinline uwtable
define dso_local noundef zeroext i1 @_ZN12COOLProtocol15getTokenKeywordERKNSt7__cxx1112basic_stringIcSt11char_traitsIcESaIcEEES7_RKSt3mapIS5_iSt4lessIS5_ESaISt4pairIS6_iEEERi(ptr noundef nonnull align 8 dereferenceable(32) %0, ptr noundef nonnull align 8 dereferenceable(32) %1, ptr noundef nonnull align 8 dereferenceable(48) %2, ptr noundef nonnull align 4 dereferenceable(4) %3) #0 personality ptr @__gxx_personality_v0 !dbg !2605 {
  %5 = alloca i1, align 1
  %6 = alloca ptr, align 8
  %7 = alloca ptr, align 8
  %8 = alloca ptr, align 8
  %9 = alloca ptr, align 8
  %10 = alloca %"class.std::__cxx11::basic_string", align 8
  %11 = alloca ptr, align 8
  %12 = alloca i32, align 4
  %13 = alloca %"class.std::__cxx11::basic_string", align 8
  %14 = alloca %"struct.std::_Rb_tree_const_iterator", align 8
  %15 = alloca %"struct.std::_Rb_tree_const_iterator", align 8
  %16 = alloca i32, align 4
  store ptr %0, ptr %6, align 8
  call void @llvm.dbg.declare(metadata ptr %6, metadata !2612, metadata !DIExpression()), !dbg !2613
  store ptr %1, ptr %7, align 8
  call void @llvm.dbg.declare(metadata ptr %7, metadata !2614, metadata !DIExpression()), !dbg !2615
  store ptr %2, ptr %8, align 8
  call void @llvm.dbg.declare(metadata ptr %8, metadata !2616, metadata !DIExpression()), !dbg !2617
  store ptr %3, ptr %9, align 8
  call void @llvm.dbg.declare(metadata ptr %9, metadata !2618, metadata !DIExpression()), !dbg !2619
  call void @llvm.dbg.declare(metadata ptr %10, metadata !2620, metadata !DIExpression()), !dbg !2621
  call void @_ZNSt7__cxx1112basic_stringIcSt11char_traitsIcESaIcEEC1Ev(ptr noundef nonnull align 8 dereferenceable(32) %10) #14, !dbg !2621
  %17 = load ptr, ptr %6, align 8, !dbg !2622
  %18 = load ptr, ptr %7, align 8, !dbg !2624
  %19 = invoke noundef zeroext i1 @_ZN12COOLProtocol14getTokenStringERKNSt7__cxx1112basic_stringIcSt11char_traitsIcESaIcEEES7_RS5_(ptr noundef nonnull align 8 dereferenceable(32) %17, ptr noundef nonnull align 8 dereferenceable(32) %18, ptr noundef nonnull align 8 dereferenceable(32) %10)
          to label %20 unwind label %40, !dbg !2625

20:                                               ; preds = %4
  br i1 %19, label %21, label %59, !dbg !2626

21:                                               ; preds = %20
  %22 = invoke noundef nonnull align 1 dereferenceable(1) ptr @_ZNSt7__cxx1112basic_stringIcSt11char_traitsIcESaIcEEixEm(ptr noundef nonnull align 8 dereferenceable(32) %10, i64 noundef 0)
          to label %23 unwind label %40, !dbg !2627

23:                                               ; preds = %21
  %24 = load i8, ptr %22, align 1, !dbg !2627
  %25 = sext i8 %24 to i32, !dbg !2627
  %26 = icmp eq i32 %25, 39, !dbg !2630
  br i1 %26, label %27, label %44, !dbg !2631

27:                                               ; preds = %23
  %28 = call noundef i64 @_ZNKSt7__cxx1112basic_stringIcSt11char_traitsIcESaIcEE4sizeEv(ptr noundef nonnull align 8 dereferenceable(32) %10) #14, !dbg !2632
  %29 = sub i64 %28, 1, !dbg !2633
  %30 = invoke noundef nonnull align 1 dereferenceable(1) ptr @_ZNSt7__cxx1112basic_stringIcSt11char_traitsIcESaIcEEixEm(ptr noundef nonnull align 8 dereferenceable(32) %10, i64 noundef %29)
          to label %31 unwind label %40, !dbg !2634

31:                                               ; preds = %27
  %32 = load i8, ptr %30, align 1, !dbg !2634
  %33 = sext i8 %32 to i32, !dbg !2634
  %34 = icmp eq i32 %33, 39, !dbg !2635
  br i1 %34, label %35, label %44, !dbg !2636

35:                                               ; preds = %31
  %36 = call noundef i64 @_ZNKSt7__cxx1112basic_stringIcSt11char_traitsIcESaIcEE4sizeEv(ptr noundef nonnull align 8 dereferenceable(32) %10) #14, !dbg !2637
  %37 = sub i64 %36, 2, !dbg !2639
  invoke void @_ZNKSt7__cxx1112basic_stringIcSt11char_traitsIcESaIcEE6substrEmm(ptr sret(%"class.std::__cxx11::basic_string") align 8 %13, ptr noundef nonnull align 8 dereferenceable(32) %10, i64 noundef 1, i64 noundef %37)
          to label %38 unwind label %40, !dbg !2640

38:                                               ; preds = %35
  %39 = call noundef nonnull align 8 dereferenceable(32) ptr @_ZNSt7__cxx1112basic_stringIcSt11char_traitsIcESaIcEEaSEOS4_(ptr noundef nonnull align 8 dereferenceable(32) %10, ptr noundef nonnull align 8 dereferenceable(32) %13) #14, !dbg !2641
  call void @_ZNSt7__cxx1112basic_stringIcSt11char_traitsIcESaIcEED1Ev(ptr noundef nonnull align 8 dereferenceable(32) %13) #14, !dbg !2642
  br label %44, !dbg !2643

40:                                               ; preds = %44, %35, %27, %21, %4
  %41 = landingpad { ptr, i32 }
          cleanup, !dbg !2644
  %42 = extractvalue { ptr, i32 } %41, 0, !dbg !2644
  store ptr %42, ptr %11, align 8, !dbg !2644
  %43 = extractvalue { ptr, i32 } %41, 1, !dbg !2644
  store i32 %43, ptr %12, align 4, !dbg !2644
  call void @_ZNSt7__cxx1112basic_stringIcSt11char_traitsIcESaIcEED1Ev(ptr noundef nonnull align 8 dereferenceable(32) %10) #14, !dbg !2645
  br label %62, !dbg !2645

44:                                               ; preds = %38, %31, %23
  call void @llvm.dbg.declare(metadata ptr %14, metadata !2646, metadata !DIExpression()), !dbg !2649
  %45 = load ptr, ptr %8, align 8, !dbg !2650
  %46 = invoke ptr @_ZNKSt3mapINSt7__cxx1112basic_stringIcSt11char_traitsIcESaIcEEEiSt4lessIS5_ESaISt4pairIKS5_iEEE4findERS9_(ptr noundef nonnull align 8 dereferenceable(48) %45, ptr noundef nonnull align 8 dereferenceable(32) %10)
          to label %47 unwind label %40, !dbg !2651

47:                                               ; preds = %44
  %48 = getelementptr inbounds %"struct.std::_Rb_tree_const_iterator", ptr %14, i32 0, i32 0, !dbg !2651
  store ptr %46, ptr %48, align 8, !dbg !2651
  %49 = load ptr, ptr %8, align 8, !dbg !2652
  %50 = call ptr @_ZNKSt3mapINSt7__cxx1112basic_stringIcSt11char_traitsIcESaIcEEEiSt4lessIS5_ESaISt4pairIKS5_iEEE4cendEv(ptr noundef nonnull align 8 dereferenceable(48) %49) #14, !dbg !2654
  %51 = getelementptr inbounds %"struct.std::_Rb_tree_const_iterator", ptr %15, i32 0, i32 0, !dbg !2654
  store ptr %50, ptr %51, align 8, !dbg !2654
  %52 = call noundef zeroext i1 @_ZStneRKSt23_Rb_tree_const_iteratorISt4pairIKNSt7__cxx1112basic_stringIcSt11char_traitsIcESaIcEEEiEESB_(ptr noundef nonnull align 8 dereferenceable(8) %14, ptr noundef nonnull align 8 dereferenceable(8) %15) #14, !dbg !2655
  br i1 %52, label %53, label %58, !dbg !2656

53:                                               ; preds = %47
  %54 = call noundef ptr @_ZNKSt23_Rb_tree_const_iteratorISt4pairIKNSt7__cxx1112basic_stringIcSt11char_traitsIcESaIcEEEiEEptEv(ptr noundef nonnull align 8 dereferenceable(8) %14) #14, !dbg !2657
  %55 = getelementptr inbounds %"struct.std::pair", ptr %54, i32 0, i32 1, !dbg !2659
  %56 = load i32, ptr %55, align 8, !dbg !2659
  %57 = load ptr, ptr %9, align 8, !dbg !2660
  store i32 %56, ptr %57, align 4, !dbg !2661
  store i1 true, ptr %5, align 1, !dbg !2662
  store i32 1, ptr %16, align 4
  br label %60, !dbg !2662

58:                                               ; preds = %47
  br label %59, !dbg !2663

59:                                               ; preds = %58, %20
  store i1 false, ptr %5, align 1, !dbg !2664
  store i32 1, ptr %16, align 4
  br label %60, !dbg !2664

60:                                               ; preds = %59, %53
  call void @_ZNSt7__cxx1112basic_stringIcSt11char_traitsIcESaIcEED1Ev(ptr noundef nonnull align 8 dereferenceable(32) %10) #14, !dbg !2645
  %61 = load i1, ptr %5, align 1, !dbg !2645
  ret i1 %61, !dbg !2645

62:                                               ; preds = %40
  %63 = load ptr, ptr %11, align 8, !dbg !2645
  %64 = load i32, ptr %12, align 4, !dbg !2645
  %65 = insertvalue { ptr, i32 } poison, ptr %63, 0, !dbg !2645
  %66 = insertvalue { ptr, i32 } %65, i32 %64, 1, !dbg !2645
  resume { ptr, i32 } %66, !dbg !2645
}

declare noundef nonnull align 1 dereferenceable(1) ptr @_ZNSt7__cxx1112basic_stringIcSt11char_traitsIcESaIcEEixEm(ptr noundef nonnull align 8 dereferenceable(32), i64 noundef) #5

; Function Attrs: mustprogress noinline uwtable
define linkonce_odr dso_local ptr @_ZNKSt3mapINSt7__cxx1112basic_stringIcSt11char_traitsIcESaIcEEEiSt4lessIS5_ESaISt4pairIKS5_iEEE4findERS9_(ptr noundef nonnull align 8 dereferenceable(48) %0, ptr noundef nonnull align 8 dereferenceable(32) %1) #0 comdat align 2 !dbg !2665 {
  %3 = alloca %"struct.std::_Rb_tree_const_iterator", align 8
  %4 = alloca ptr, align 8
  %5 = alloca ptr, align 8
  store ptr %0, ptr %4, align 8
  call void @llvm.dbg.declare(metadata ptr %4, metadata !2673, metadata !DIExpression()), !dbg !2675
  store ptr %1, ptr %5, align 8
  call void @llvm.dbg.declare(metadata ptr %5, metadata !2676, metadata !DIExpression()), !dbg !2677
  %6 = load ptr, ptr %4, align 8
  %7 = getelementptr inbounds %"class.std::map", ptr %6, i32 0, i32 0, !dbg !2678
  %8 = load ptr, ptr %5, align 8, !dbg !2679
  %9 = call ptr @_ZNKSt8_Rb_treeINSt7__cxx1112basic_stringIcSt11char_traitsIcESaIcEEESt4pairIKS5_iESt10_Select1stIS8_ESt4lessIS5_ESaIS8_EE4findERS7_(ptr noundef nonnull align 8 dereferenceable(48) %7, ptr noundef nonnull align 8 dereferenceable(32) %8), !dbg !2680
  %10 = getelementptr inbounds %"struct.std::_Rb_tree_const_iterator", ptr %3, i32 0, i32 0, !dbg !2680
  store ptr %9, ptr %10, align 8, !dbg !2680
  %11 = getelementptr inbounds %"struct.std::_Rb_tree_const_iterator", ptr %3, i32 0, i32 0, !dbg !2681
  %12 = load ptr, ptr %11, align 8, !dbg !2681
  ret ptr %12, !dbg !2681
}

; Function Attrs: mustprogress noinline nounwind uwtable
define linkonce_odr dso_local noundef zeroext i1 @_ZStneRKSt23_Rb_tree_const_iteratorISt4pairIKNSt7__cxx1112basic_stringIcSt11char_traitsIcESaIcEEEiEESB_(ptr noundef nonnull align 8 dereferenceable(8) %0, ptr noundef nonnull align 8 dereferenceable(8) %1) #3 comdat !dbg !2682 {
  %3 = alloca ptr, align 8
  %4 = alloca ptr, align 8
  store ptr %0, ptr %3, align 8
  call void @llvm.dbg.declare(metadata ptr %3, metadata !2687, metadata !DIExpression()), !dbg !2688
  store ptr %1, ptr %4, align 8
  call void @llvm.dbg.declare(metadata ptr %4, metadata !2689, metadata !DIExpression()), !dbg !2690
  %5 = load ptr, ptr %3, align 8, !dbg !2691
  %6 = getelementptr inbounds %"struct.std::_Rb_tree_const_iterator", ptr %5, i32 0, i32 0, !dbg !2692
  %7 = load ptr, ptr %6, align 8, !dbg !2692
  %8 = load ptr, ptr %4, align 8, !dbg !2693
  %9 = getelementptr inbounds %"struct.std::_Rb_tree_const_iterator", ptr %8, i32 0, i32 0, !dbg !2694
  %10 = load ptr, ptr %9, align 8, !dbg !2694
  %11 = icmp ne ptr %7, %10, !dbg !2695
  ret i1 %11, !dbg !2696
}

; Function Attrs: mustprogress noinline nounwind uwtable
define linkonce_odr dso_local ptr @_ZNKSt3mapINSt7__cxx1112basic_stringIcSt11char_traitsIcESaIcEEEiSt4lessIS5_ESaISt4pairIKS5_iEEE4cendEv(ptr noundef nonnull align 8 dereferenceable(48) %0) #3 comdat align 2 !dbg !2697 {
  %2 = alloca %"struct.std::_Rb_tree_const_iterator", align 8
  %3 = alloca ptr, align 8
  store ptr %0, ptr %3, align 8
  call void @llvm.dbg.declare(metadata ptr %3, metadata !2701, metadata !DIExpression()), !dbg !2702
  %4 = load ptr, ptr %3, align 8
  %5 = getelementptr inbounds %"class.std::map", ptr %4, i32 0, i32 0, !dbg !2703
  %6 = call ptr @_ZNKSt8_Rb_treeINSt7__cxx1112basic_stringIcSt11char_traitsIcESaIcEEESt4pairIKS5_iESt10_Select1stIS8_ESt4lessIS5_ESaIS8_EE3endEv(ptr noundef nonnull align 8 dereferenceable(48) %5) #14, !dbg !2704
  %7 = getelementptr inbounds %"struct.std::_Rb_tree_const_iterator", ptr %2, i32 0, i32 0, !dbg !2704
  store ptr %6, ptr %7, align 8, !dbg !2704
  %8 = getelementptr inbounds %"struct.std::_Rb_tree_const_iterator", ptr %2, i32 0, i32 0, !dbg !2705
  %9 = load ptr, ptr %8, align 8, !dbg !2705
  ret ptr %9, !dbg !2705
}

; Function Attrs: mustprogress noinline nounwind uwtable
define linkonce_odr dso_local noundef ptr @_ZNKSt23_Rb_tree_const_iteratorISt4pairIKNSt7__cxx1112basic_stringIcSt11char_traitsIcESaIcEEEiEEptEv(ptr noundef nonnull align 8 dereferenceable(8) %0) #3 comdat align 2 !dbg !2706 {
  %2 = alloca ptr, align 8
  store ptr %0, ptr %2, align 8
  call void @llvm.dbg.declare(metadata ptr %2, metadata !2707, metadata !DIExpression()), !dbg !2709
  %3 = load ptr, ptr %2, align 8
  %4 = getelementptr inbounds %"struct.std::_Rb_tree_const_iterator", ptr %3, i32 0, i32 0, !dbg !2710
  %5 = load ptr, ptr %4, align 8, !dbg !2710
  %6 = call noundef ptr @_ZNKSt13_Rb_tree_nodeISt4pairIKNSt7__cxx1112basic_stringIcSt11char_traitsIcESaIcEEEiEE9_M_valptrEv(ptr noundef nonnull align 8 dereferenceable(72) %5), !dbg !2711
  ret ptr %6, !dbg !2712
}

; Function Attrs: mustprogress noinline uwtable
define dso_local noundef zeroext i1 @_ZN12COOLProtocol15getTokenIntegerERK12StringVectorRKNSt7__cxx1112basic_stringIcSt11char_traitsIcESaIcEEERi(ptr noundef nonnull align 8 dereferenceable(56) %0, ptr noundef nonnull align 8 dereferenceable(32) %1, ptr noundef nonnull align 4 dereferenceable(4) %2) #0 personality ptr @__gxx_personality_v0 !dbg !2713 {
  %4 = alloca i1, align 1
  %5 = alloca ptr, align 8
  %6 = alloca ptr, align 8
  %7 = alloca ptr, align 8
  %8 = alloca i64, align 8
  %9 = alloca %"class.std::__cxx11::basic_string", align 8
  %10 = alloca ptr, align 8
  %11 = alloca i32, align 4
  store ptr %0, ptr %5, align 8
  call void @llvm.dbg.declare(metadata ptr %5, metadata !2716, metadata !DIExpression()), !dbg !2717
  store ptr %1, ptr %6, align 8
  call void @llvm.dbg.declare(metadata ptr %6, metadata !2718, metadata !DIExpression()), !dbg !2719
  store ptr %2, ptr %7, align 8
  call void @llvm.dbg.declare(metadata ptr %7, metadata !2720, metadata !DIExpression()), !dbg !2721
  call void @llvm.dbg.declare(metadata ptr %8, metadata !2722, metadata !DIExpression()), !dbg !2724
  store i64 0, ptr %8, align 8, !dbg !2724
  br label %12, !dbg !2725

12:                                               ; preds = %30, %3
  %13 = load i64, ptr %8, align 8, !dbg !2726
  %14 = load ptr, ptr %5, align 8, !dbg !2728
  %15 = call noundef i64 @_ZNK12StringVector4sizeEv(ptr noundef nonnull align 8 dereferenceable(56) %14), !dbg !2729
  %16 = icmp ult i64 %13, %15, !dbg !2730
  br i1 %16, label %17, label %33, !dbg !2731

17:                                               ; preds = %12
  %18 = load ptr, ptr %5, align 8, !dbg !2732
  %19 = load i64, ptr %8, align 8, !dbg !2735
  call void @_ZNK12StringVectorixB5cxx11Em(ptr sret(%"class.std::__cxx11::basic_string") align 8 %9, ptr noundef nonnull align 8 dereferenceable(56) %18, i64 noundef %19), !dbg !2732
  %20 = load ptr, ptr %6, align 8, !dbg !2736
  %21 = load ptr, ptr %7, align 8, !dbg !2737
  %22 = invoke noundef zeroext i1 @_ZN12COOLProtocol15getTokenIntegerERKNSt7__cxx1112basic_stringIcSt11char_traitsIcESaIcEEES7_Ri(ptr noundef nonnull align 8 dereferenceable(32) %9, ptr noundef nonnull align 8 dereferenceable(32) %20, ptr noundef nonnull align 4 dereferenceable(4) %21)
          to label %23 unwind label %25, !dbg !2738

23:                                               ; preds = %17
  call void @_ZNSt7__cxx1112basic_stringIcSt11char_traitsIcESaIcEED1Ev(ptr noundef nonnull align 8 dereferenceable(32) %9) #14, !dbg !2738
  br i1 %22, label %24, label %29, !dbg !2739

24:                                               ; preds = %23
  store i1 true, ptr %4, align 1, !dbg !2740
  br label %34, !dbg !2740

25:                                               ; preds = %17
  %26 = landingpad { ptr, i32 }
          cleanup, !dbg !2741
  %27 = extractvalue { ptr, i32 } %26, 0, !dbg !2741
  store ptr %27, ptr %10, align 8, !dbg !2741
  %28 = extractvalue { ptr, i32 } %26, 1, !dbg !2741
  store i32 %28, ptr %11, align 4, !dbg !2741
  call void @_ZNSt7__cxx1112basic_stringIcSt11char_traitsIcESaIcEED1Ev(ptr noundef nonnull align 8 dereferenceable(32) %9) #14, !dbg !2738
  br label %36, !dbg !2738

29:                                               ; preds = %23
  br label %30, !dbg !2742

30:                                               ; preds = %29
  %31 = load i64, ptr %8, align 8, !dbg !2743
  %32 = add i64 %31, 1, !dbg !2743
  store i64 %32, ptr %8, align 8, !dbg !2743
  br label %12, !dbg !2744, !llvm.loop !2745

33:                                               ; preds = %12
  store i1 false, ptr %4, align 1, !dbg !2748
  br label %34, !dbg !2748

34:                                               ; preds = %33, %24
  %35 = load i1, ptr %4, align 1, !dbg !2749
  ret i1 %35, !dbg !2749

36:                                               ; preds = %25
  %37 = load ptr, ptr %10, align 8, !dbg !2738
  %38 = load i32, ptr %11, align 4, !dbg !2738
  %39 = insertvalue { ptr, i32 } poison, ptr %37, 0, !dbg !2738
  %40 = insertvalue { ptr, i32 } %39, i32 %38, 1, !dbg !2738
  resume { ptr, i32 } %40, !dbg !2738
}

; Function Attrs: mustprogress noinline uwtable
define dso_local noundef zeroext i1 @_ZN12COOLProtocol15getTokenKeywordERK12StringVectorRKNSt7__cxx1112basic_stringIcSt11char_traitsIcESaIcEEERKSt3mapIS8_iSt4lessIS8_ESaISt4pairIS9_iEEERi(ptr noundef nonnull align 8 dereferenceable(56) %0, ptr noundef nonnull align 8 dereferenceable(32) %1, ptr noundef nonnull align 8 dereferenceable(48) %2, ptr noundef nonnull align 4 dereferenceable(4) %3) #0 personality ptr @__gxx_personality_v0 !dbg !2750 {
  %5 = alloca i1, align 1
  %6 = alloca ptr, align 8
  %7 = alloca ptr, align 8
  %8 = alloca ptr, align 8
  %9 = alloca ptr, align 8
  %10 = alloca i64, align 8
  %11 = alloca %"class.std::__cxx11::basic_string", align 8
  %12 = alloca ptr, align 8
  %13 = alloca i32, align 4
  store ptr %0, ptr %6, align 8
  call void @llvm.dbg.declare(metadata ptr %6, metadata !2753, metadata !DIExpression()), !dbg !2754
  store ptr %1, ptr %7, align 8
  call void @llvm.dbg.declare(metadata ptr %7, metadata !2755, metadata !DIExpression()), !dbg !2756
  store ptr %2, ptr %8, align 8
  call void @llvm.dbg.declare(metadata ptr %8, metadata !2757, metadata !DIExpression()), !dbg !2758
  store ptr %3, ptr %9, align 8
  call void @llvm.dbg.declare(metadata ptr %9, metadata !2759, metadata !DIExpression()), !dbg !2760
  call void @llvm.dbg.declare(metadata ptr %10, metadata !2761, metadata !DIExpression()), !dbg !2763
  store i64 0, ptr %10, align 8, !dbg !2763
  br label %14, !dbg !2764

14:                                               ; preds = %33, %4
  %15 = load i64, ptr %10, align 8, !dbg !2765
  %16 = load ptr, ptr %6, align 8, !dbg !2767
  %17 = call noundef i64 @_ZNK12StringVector4sizeEv(ptr noundef nonnull align 8 dereferenceable(56) %16), !dbg !2768
  %18 = icmp ult i64 %15, %17, !dbg !2769
  br i1 %18, label %19, label %36, !dbg !2770

19:                                               ; preds = %14
  %20 = load ptr, ptr %6, align 8, !dbg !2771
  %21 = load i64, ptr %10, align 8, !dbg !2774
  call void @_ZNK12StringVectorixB5cxx11Em(ptr sret(%"class.std::__cxx11::basic_string") align 8 %11, ptr noundef nonnull align 8 dereferenceable(56) %20, i64 noundef %21), !dbg !2771
  %22 = load ptr, ptr %7, align 8, !dbg !2775
  %23 = load ptr, ptr %8, align 8, !dbg !2776
  %24 = load ptr, ptr %9, align 8, !dbg !2777
  %25 = invoke noundef zeroext i1 @_ZN12COOLProtocol15getTokenKeywordERKNSt7__cxx1112basic_stringIcSt11char_traitsIcESaIcEEES7_RKSt3mapIS5_iSt4lessIS5_ESaISt4pairIS6_iEEERi(ptr noundef nonnull align 8 dereferenceable(32) %11, ptr noundef nonnull align 8 dereferenceable(32) %22, ptr noundef nonnull align 8 dereferenceable(48) %23, ptr noundef nonnull align 4 dereferenceable(4) %24)
          to label %26 unwind label %28, !dbg !2778

26:                                               ; preds = %19
  call void @_ZNSt7__cxx1112basic_stringIcSt11char_traitsIcESaIcEED1Ev(ptr noundef nonnull align 8 dereferenceable(32) %11) #14, !dbg !2778
  br i1 %25, label %27, label %32, !dbg !2779

27:                                               ; preds = %26
  store i1 true, ptr %5, align 1, !dbg !2780
  br label %37, !dbg !2780

28:                                               ; preds = %19
  %29 = landingpad { ptr, i32 }
          cleanup, !dbg !2781
  %30 = extractvalue { ptr, i32 } %29, 0, !dbg !2781
  store ptr %30, ptr %12, align 8, !dbg !2781
  %31 = extractvalue { ptr, i32 } %29, 1, !dbg !2781
  store i32 %31, ptr %13, align 4, !dbg !2781
  call void @_ZNSt7__cxx1112basic_stringIcSt11char_traitsIcESaIcEED1Ev(ptr noundef nonnull align 8 dereferenceable(32) %11) #14, !dbg !2778
  br label %39, !dbg !2778

32:                                               ; preds = %26
  br label %33, !dbg !2782

33:                                               ; preds = %32
  %34 = load i64, ptr %10, align 8, !dbg !2783
  %35 = add i64 %34, 1, !dbg !2783
  store i64 %35, ptr %10, align 8, !dbg !2783
  br label %14, !dbg !2784, !llvm.loop !2785

36:                                               ; preds = %14
  store i1 false, ptr %5, align 1, !dbg !2787
  br label %37, !dbg !2787

37:                                               ; preds = %36, %27
  %38 = load i1, ptr %5, align 1, !dbg !2788
  ret i1 %38, !dbg !2788

39:                                               ; preds = %28
  %40 = load ptr, ptr %12, align 8, !dbg !2778
  %41 = load i32, ptr %13, align 4, !dbg !2778
  %42 = insertvalue { ptr, i32 } poison, ptr %40, 0, !dbg !2778
  %43 = insertvalue { ptr, i32 } %42, i32 %41, 1, !dbg !2778
  resume { ptr, i32 } %43, !dbg !2778
}

; Function Attrs: mustprogress noinline uwtable
define dso_local noundef zeroext i1 @_ZN12COOLProtocol25getTokenStringFromMessageERKNSt7__cxx1112basic_stringIcSt11char_traitsIcESaIcEEES7_RS5_(ptr noundef nonnull align 8 dereferenceable(32) %0, ptr noundef nonnull align 8 dereferenceable(32) %1, ptr noundef nonnull align 8 dereferenceable(32) %2) #0 !dbg !2789 {
  %4 = alloca i1, align 1
  %5 = alloca ptr, align 8
  %6 = alloca ptr, align 8
  %7 = alloca ptr, align 8
  %8 = alloca i64, align 8
  %9 = alloca i8, align 1
  %10 = alloca i64, align 8
  %11 = alloca i64, align 8
  %12 = alloca %"class.std::__cxx11::basic_string", align 8
  store ptr %0, ptr %5, align 8
  call void @llvm.dbg.declare(metadata ptr %5, metadata !2790, metadata !DIExpression()), !dbg !2791
  store ptr %1, ptr %6, align 8
  call void @llvm.dbg.declare(metadata ptr %6, metadata !2792, metadata !DIExpression()), !dbg !2793
  store ptr %2, ptr %7, align 8
  call void @llvm.dbg.declare(metadata ptr %7, metadata !2794, metadata !DIExpression()), !dbg !2795
  %13 = load ptr, ptr %5, align 8, !dbg !2796
  %14 = call noundef i64 @_ZNKSt7__cxx1112basic_stringIcSt11char_traitsIcESaIcEE4sizeEv(ptr noundef nonnull align 8 dereferenceable(32) %13) #14, !dbg !2798
  %15 = load ptr, ptr %6, align 8, !dbg !2799
  %16 = call noundef i64 @_ZNKSt7__cxx1112basic_stringIcSt11char_traitsIcESaIcEE4sizeEv(ptr noundef nonnull align 8 dereferenceable(32) %15) #14, !dbg !2800
  %17 = add i64 %16, 1, !dbg !2801
  %18 = icmp ugt i64 %14, %17, !dbg !2802
  br i1 %18, label %19, label %75, !dbg !2803

19:                                               ; preds = %3
  call void @llvm.dbg.declare(metadata ptr %8, metadata !2804, metadata !DIExpression()), !dbg !2806
  %20 = load ptr, ptr %5, align 8, !dbg !2807
  %21 = load ptr, ptr %6, align 8, !dbg !2808
  %22 = call noundef i64 @_ZNKSt7__cxx1112basic_stringIcSt11char_traitsIcESaIcEE4findERKS4_m(ptr noundef nonnull align 8 dereferenceable(32) %20, ptr noundef nonnull align 8 dereferenceable(32) %21, i64 noundef 0) #14, !dbg !2809
  store i64 %22, ptr %8, align 8, !dbg !2806
  br label %23, !dbg !2810

23:                                               ; preds = %66, %19
  %24 = load i64, ptr %8, align 8, !dbg !2811
  %25 = icmp ne i64 %24, -1, !dbg !2812
  br i1 %25, label %26, label %74, !dbg !2810

26:                                               ; preds = %23
  call void @llvm.dbg.declare(metadata ptr %9, metadata !2813, metadata !DIExpression()), !dbg !2815
  %27 = load i64, ptr %8, align 8, !dbg !2816
  %28 = icmp eq i64 %27, 0, !dbg !2817
  br i1 %28, label %37, label %29, !dbg !2818

29:                                               ; preds = %26
  %30 = load ptr, ptr %5, align 8, !dbg !2819
  %31 = load i64, ptr %8, align 8, !dbg !2820
  %32 = sub i64 %31, 1, !dbg !2821
  %33 = call noundef nonnull align 1 dereferenceable(1) ptr @_ZNKSt7__cxx1112basic_stringIcSt11char_traitsIcESaIcEEixEm(ptr noundef nonnull align 8 dereferenceable(32) %30, i64 noundef %32) #14, !dbg !2819
  %34 = load i8, ptr %33, align 1, !dbg !2819
  %35 = sext i8 %34 to i32, !dbg !2819
  %36 = icmp eq i32 %35, 32, !dbg !2822
  br label %37, !dbg !2818

37:                                               ; preds = %29, %26
  %38 = phi i1 [ true, %26 ], [ %36, %29 ]
  %39 = zext i1 %38 to i8, !dbg !2815
  store i8 %39, ptr %9, align 1, !dbg !2815
  call void @llvm.dbg.declare(metadata ptr %10, metadata !2823, metadata !DIExpression()), !dbg !2825
  %40 = load i64, ptr %8, align 8, !dbg !2826
  %41 = load ptr, ptr %6, align 8, !dbg !2827
  %42 = call noundef i64 @_ZNKSt7__cxx1112basic_stringIcSt11char_traitsIcESaIcEE4sizeEv(ptr noundef nonnull align 8 dereferenceable(32) %41) #14, !dbg !2828
  %43 = add i64 %40, %42, !dbg !2829
  store i64 %43, ptr %10, align 8, !dbg !2825
  %44 = load i8, ptr %9, align 1, !dbg !2830
  %45 = trunc i8 %44 to i1, !dbg !2830
  br i1 %45, label %46, label %66, !dbg !2832

46:                                               ; preds = %37
  %47 = load ptr, ptr %5, align 8, !dbg !2833
  %48 = load i64, ptr %10, align 8, !dbg !2834
  %49 = call noundef nonnull align 1 dereferenceable(1) ptr @_ZNKSt7__cxx1112basic_stringIcSt11char_traitsIcESaIcEEixEm(ptr noundef nonnull align 8 dereferenceable(32) %47, i64 noundef %48) #14, !dbg !2833
  %50 = load i8, ptr %49, align 1, !dbg !2833
  %51 = sext i8 %50 to i32, !dbg !2833
  %52 = icmp eq i32 %51, 61, !dbg !2835
  br i1 %52, label %53, label %66, !dbg !2836

53:                                               ; preds = %46
  call void @llvm.dbg.declare(metadata ptr %11, metadata !2837, metadata !DIExpression()), !dbg !2839
  %54 = load ptr, ptr %5, align 8, !dbg !2840
  %55 = load i64, ptr %10, align 8, !dbg !2841
  %56 = call noundef i64 @_ZNKSt7__cxx1112basic_stringIcSt11char_traitsIcESaIcEE13find_first_ofEPKcm(ptr noundef nonnull align 8 dereferenceable(32) %54, ptr noundef @.str, i64 noundef %55) #14, !dbg !2842
  store i64 %56, ptr %11, align 8, !dbg !2839
  %57 = load ptr, ptr %5, align 8, !dbg !2843
  %58 = load i64, ptr %10, align 8, !dbg !2844
  %59 = add i64 %58, 1, !dbg !2845
  %60 = load i64, ptr %11, align 8, !dbg !2846
  %61 = load i64, ptr %10, align 8, !dbg !2847
  %62 = sub i64 %60, %61, !dbg !2848
  %63 = sub i64 %62, 1, !dbg !2849
  call void @_ZNKSt7__cxx1112basic_stringIcSt11char_traitsIcESaIcEE6substrEmm(ptr sret(%"class.std::__cxx11::basic_string") align 8 %12, ptr noundef nonnull align 8 dereferenceable(32) %57, i64 noundef %59, i64 noundef %63), !dbg !2850
  %64 = load ptr, ptr %7, align 8, !dbg !2851
  %65 = call noundef nonnull align 8 dereferenceable(32) ptr @_ZNSt7__cxx1112basic_stringIcSt11char_traitsIcESaIcEEaSEOS4_(ptr noundef nonnull align 8 dereferenceable(32) %64, ptr noundef nonnull align 8 dereferenceable(32) %12) #14, !dbg !2852
  call void @_ZNSt7__cxx1112basic_stringIcSt11char_traitsIcESaIcEED1Ev(ptr noundef nonnull align 8 dereferenceable(32) %12) #14, !dbg !2851
  store i1 true, ptr %4, align 1, !dbg !2853
  br label %76, !dbg !2853

66:                                               ; preds = %46, %37
  %67 = load ptr, ptr %5, align 8, !dbg !2854
  %68 = load ptr, ptr %6, align 8, !dbg !2855
  %69 = load i64, ptr %8, align 8, !dbg !2856
  %70 = load ptr, ptr %6, align 8, !dbg !2857
  %71 = call noundef i64 @_ZNKSt7__cxx1112basic_stringIcSt11char_traitsIcESaIcEE4sizeEv(ptr noundef nonnull align 8 dereferenceable(32) %70) #14, !dbg !2858
  %72 = add i64 %69, %71, !dbg !2859
  %73 = call noundef i64 @_ZNKSt7__cxx1112basic_stringIcSt11char_traitsIcESaIcEE4findERKS4_m(ptr noundef nonnull align 8 dereferenceable(32) %67, ptr noundef nonnull align 8 dereferenceable(32) %68, i64 noundef %72) #14, !dbg !2860
  store i64 %73, ptr %8, align 8, !dbg !2861
  br label %23, !dbg !2810, !llvm.loop !2862

74:                                               ; preds = %23
  br label %75, !dbg !2864

75:                                               ; preds = %74, %3
  store i1 false, ptr %4, align 1, !dbg !2865
  br label %76, !dbg !2865

76:                                               ; preds = %75, %53
  %77 = load i1, ptr %4, align 1, !dbg !2866
  ret i1 %77, !dbg !2866
}

; Function Attrs: nounwind
declare noundef i64 @_ZNKSt7__cxx1112basic_stringIcSt11char_traitsIcESaIcEE4findERKS4_m(ptr noundef nonnull align 8 dereferenceable(32), ptr noundef nonnull align 8 dereferenceable(32), i64 noundef) #2

; Function Attrs: nounwind
declare noundef i64 @_ZNKSt7__cxx1112basic_stringIcSt11char_traitsIcESaIcEE13find_first_ofEPKcm(ptr noundef nonnull align 8 dereferenceable(32), ptr noundef, i64 noundef) #2

; Function Attrs: mustprogress noinline uwtable
define dso_local noundef zeroext i1 @_ZN12COOLProtocol26getTokenKeywordFromMessageERKNSt7__cxx1112basic_stringIcSt11char_traitsIcESaIcEEES7_RKSt3mapIS5_iSt4lessIS5_ESaISt4pairIS6_iEEERi(ptr noundef nonnull align 8 dereferenceable(32) %0, ptr noundef nonnull align 8 dereferenceable(32) %1, ptr noundef nonnull align 8 dereferenceable(48) %2, ptr noundef nonnull align 4 dereferenceable(4) %3) #0 personality ptr @__gxx_personality_v0 !dbg !2867 {
  %5 = alloca ptr, align 8
  %6 = alloca ptr, align 8
  %7 = alloca ptr, align 8
  %8 = alloca ptr, align 8
  %9 = alloca %class.StringVector, align 8
  %10 = alloca ptr, align 8
  %11 = alloca i32, align 4
  store ptr %0, ptr %5, align 8
  call void @llvm.dbg.declare(metadata ptr %5, metadata !2868, metadata !DIExpression()), !dbg !2869
  store ptr %1, ptr %6, align 8
  call void @llvm.dbg.declare(metadata ptr %6, metadata !2870, metadata !DIExpression()), !dbg !2871
  store ptr %2, ptr %7, align 8
  call void @llvm.dbg.declare(metadata ptr %7, metadata !2872, metadata !DIExpression()), !dbg !2873
  store ptr %3, ptr %8, align 8
  call void @llvm.dbg.declare(metadata ptr %8, metadata !2874, metadata !DIExpression()), !dbg !2875
  %12 = load ptr, ptr %5, align 8, !dbg !2876
  call void @_ZN4Util8tokenizeERKNSt7__cxx1112basic_stringIcSt11char_traitsIcESaIcEEEc(ptr sret(%class.StringVector) align 8 %9, ptr noundef nonnull align 8 dereferenceable(32) %12, i8 noundef signext 32), !dbg !2877
  %13 = load ptr, ptr %6, align 8, !dbg !2878
  %14 = load ptr, ptr %7, align 8, !dbg !2879
  %15 = load ptr, ptr %8, align 8, !dbg !2880
  %16 = invoke noundef zeroext i1 @_ZN12COOLProtocol15getTokenKeywordERK12StringVectorRKNSt7__cxx1112basic_stringIcSt11char_traitsIcESaIcEEERKSt3mapIS8_iSt4lessIS8_ESaISt4pairIS9_iEEERi(ptr noundef nonnull align 8 dereferenceable(56) %9, ptr noundef nonnull align 8 dereferenceable(32) %13, ptr noundef nonnull align 8 dereferenceable(48) %14, ptr noundef nonnull align 4 dereferenceable(4) %15)
          to label %17 unwind label %18, !dbg !2881

17:                                               ; preds = %4
  call void @_ZN12StringVectorD2Ev(ptr noundef nonnull align 8 dereferenceable(56) %9) #14, !dbg !2882
  ret i1 %16, !dbg !2882

18:                                               ; preds = %4
  %19 = landingpad { ptr, i32 }
          cleanup, !dbg !2883
  %20 = extractvalue { ptr, i32 } %19, 0, !dbg !2883
  store ptr %20, ptr %10, align 8, !dbg !2883
  %21 = extractvalue { ptr, i32 } %19, 1, !dbg !2883
  store i32 %21, ptr %11, align 4, !dbg !2883
  call void @_ZN12StringVectorD2Ev(ptr noundef nonnull align 8 dereferenceable(56) %9) #14, !dbg !2882
  br label %22, !dbg !2882

22:                                               ; preds = %18
  %23 = load ptr, ptr %10, align 8, !dbg !2882
  %24 = load i32, ptr %11, align 4, !dbg !2882
  %25 = insertvalue { ptr, i32 } poison, ptr %23, 0, !dbg !2882
  %26 = insertvalue { ptr, i32 } %25, i32 %24, 1, !dbg !2882
  resume { ptr, i32 } %26, !dbg !2882
}

; Function Attrs: nounwind
declare noundef zeroext i1 @_ZNKSt7__cxx1112basic_stringIcSt11char_traitsIcESaIcEE5emptyEv(ptr noundef nonnull align 8 dereferenceable(32)) #2

; Function Attrs: nocallback nofree nounwind willreturn memory(argmem: write)
declare void @llvm.memset.p0.i64(ptr nocapture writeonly, i8, i64, i1 immarg) #6

; Function Attrs: noinline nounwind uwtable
define linkonce_odr dso_local void @_ZNSt6vectorI11StringTokenSaIS0_EEC2Ev(ptr noundef nonnull align 8 dereferenceable(24) %0) unnamed_addr #4 comdat align 2 !dbg !2884 {
  %2 = alloca ptr, align 8
  store ptr %0, ptr %2, align 8
  call void @llvm.dbg.declare(metadata ptr %2, metadata !2885, metadata !DIExpression()), !dbg !2887
  %3 = load ptr, ptr %2, align 8
  call void @_ZNSt12_Vector_baseI11StringTokenSaIS0_EEC2Ev(ptr noundef nonnull align 8 dereferenceable(24) %3) #14, !dbg !2888
  ret void, !dbg !2889
}

; Function Attrs: mustprogress noinline uwtable
define linkonce_odr dso_local void @_ZN4Util8tokenizeEPKcmcRSt6vectorI11StringTokenSaIS3_EE(ptr noundef %0, i64 noundef %1, i8 noundef signext %2, ptr noundef nonnull align 8 dereferenceable(24) %3) #0 comdat !dbg !2890 {
  %5 = alloca ptr, align 8
  %6 = alloca i64, align 8
  %7 = alloca i8, align 1
  %8 = alloca ptr, align 8
  %9 = alloca ptr, align 8
  %10 = alloca ptr, align 8
  %11 = alloca i64, align 8
  %12 = alloca i64, align 8
  %13 = alloca i64, align 8
  %14 = alloca i64, align 8
  %15 = alloca i64, align 8
  store ptr %0, ptr %5, align 8
  call void @llvm.dbg.declare(metadata ptr %5, metadata !2894, metadata !DIExpression()), !dbg !2895
  store i64 %1, ptr %6, align 8
  call void @llvm.dbg.declare(metadata ptr %6, metadata !2896, metadata !DIExpression()), !dbg !2897
  store i8 %2, ptr %7, align 1
  call void @llvm.dbg.declare(metadata ptr %7, metadata !2898, metadata !DIExpression()), !dbg !2899
  store ptr %3, ptr %8, align 8
  call void @llvm.dbg.declare(metadata ptr %8, metadata !2900, metadata !DIExpression()), !dbg !2901
  %16 = load i64, ptr %6, align 8, !dbg !2902
  %17 = icmp eq i64 %16, 0, !dbg !2904
  br i1 %17, label %26, label %18, !dbg !2905

18:                                               ; preds = %4
  %19 = load ptr, ptr %5, align 8, !dbg !2906
  %20 = icmp eq ptr %19, null, !dbg !2907
  br i1 %20, label %26, label %21, !dbg !2908

21:                                               ; preds = %18
  %22 = load ptr, ptr %5, align 8, !dbg !2909
  %23 = load i8, ptr %22, align 1, !dbg !2910
  %24 = sext i8 %23 to i32, !dbg !2910
  %25 = icmp eq i32 %24, 0, !dbg !2911
  br i1 %25, label %26, label %27, !dbg !2912

26:                                               ; preds = %21, %18, %4
  br label %125, !dbg !2913

27:                                               ; preds = %21
  %28 = load ptr, ptr %8, align 8, !dbg !2914
  call void @_ZNSt6vectorI11StringTokenSaIS0_EE7reserveEm(ptr noundef nonnull align 8 dereferenceable(24) %28, i64 noundef 16), !dbg !2915
  call void @llvm.dbg.declare(metadata ptr %9, metadata !2916, metadata !DIExpression()), !dbg !2917
  %29 = load ptr, ptr %5, align 8, !dbg !2918
  store ptr %29, ptr %9, align 8, !dbg !2917
  call void @llvm.dbg.declare(metadata ptr %10, metadata !2919, metadata !DIExpression()), !dbg !2920
  %30 = load ptr, ptr %5, align 8, !dbg !2921
  store ptr %30, ptr %10, align 8, !dbg !2920
  call void @llvm.dbg.declare(metadata ptr %11, metadata !2922, metadata !DIExpression()), !dbg !2924
  store i64 0, ptr %11, align 8, !dbg !2924
  br label %31, !dbg !2925

31:                                               ; preds = %91, %27
  %32 = load i64, ptr %11, align 8, !dbg !2926
  %33 = load i64, ptr %6, align 8, !dbg !2928
  %34 = icmp ult i64 %32, %33, !dbg !2929
  br i1 %34, label %35, label %42, !dbg !2930

35:                                               ; preds = %31
  %36 = load ptr, ptr %5, align 8, !dbg !2931
  %37 = load i64, ptr %11, align 8, !dbg !2932
  %38 = getelementptr inbounds i8, ptr %36, i64 %37, !dbg !2931
  %39 = load i8, ptr %38, align 1, !dbg !2931
  %40 = sext i8 %39 to i32, !dbg !2931
  %41 = icmp ne i32 %40, 10, !dbg !2933
  br label %42

42:                                               ; preds = %35, %31
  %43 = phi i1 [ false, %31 ], [ %41, %35 ], !dbg !2934
  br i1 %43, label %44, label %96, !dbg !2935

44:                                               ; preds = %42
  %45 = load ptr, ptr %5, align 8, !dbg !2936
  %46 = load i64, ptr %11, align 8, !dbg !2939
  %47 = getelementptr inbounds i8, ptr %45, i64 %46, !dbg !2936
  %48 = load i8, ptr %47, align 1, !dbg !2936
  %49 = sext i8 %48 to i32, !dbg !2936
  %50 = load i8, ptr %7, align 1, !dbg !2940
  %51 = sext i8 %50 to i32, !dbg !2940
  %52 = icmp eq i32 %49, %51, !dbg !2941
  br i1 %52, label %53, label %79, !dbg !2942

53:                                               ; preds = %44
  %54 = load ptr, ptr %9, align 8, !dbg !2943
  %55 = load ptr, ptr %10, align 8, !dbg !2946
  %56 = icmp ne ptr %54, %55, !dbg !2947
  br i1 %56, label %57, label %77, !dbg !2948

57:                                               ; preds = %53
  %58 = load ptr, ptr %9, align 8, !dbg !2949
  %59 = load i8, ptr %58, align 1, !dbg !2950
  %60 = sext i8 %59 to i32, !dbg !2950
  %61 = load i8, ptr %7, align 1, !dbg !2951
  %62 = sext i8 %61 to i32, !dbg !2951
  %63 = icmp ne i32 %60, %62, !dbg !2952
  br i1 %63, label %64, label %77, !dbg !2953

64:                                               ; preds = %57
  %65 = load ptr, ptr %8, align 8, !dbg !2954
  %66 = load ptr, ptr %9, align 8, !dbg !2955
  %67 = load ptr, ptr %5, align 8, !dbg !2956
  %68 = ptrtoint ptr %66 to i64, !dbg !2957
  %69 = ptrtoint ptr %67 to i64, !dbg !2957
  %70 = sub i64 %68, %69, !dbg !2957
  store i64 %70, ptr %12, align 8, !dbg !2955
  %71 = load ptr, ptr %10, align 8, !dbg !2958
  %72 = load ptr, ptr %9, align 8, !dbg !2959
  %73 = ptrtoint ptr %71 to i64, !dbg !2960
  %74 = ptrtoint ptr %72 to i64, !dbg !2960
  %75 = sub i64 %73, %74, !dbg !2960
  store i64 %75, ptr %13, align 8, !dbg !2958
  %76 = call noundef nonnull align 8 dereferenceable(16) ptr @_ZNSt6vectorI11StringTokenSaIS0_EE12emplace_backIJllEEERS0_DpOT_(ptr noundef nonnull align 8 dereferenceable(24) %65, ptr noundef nonnull align 8 dereferenceable(8) %12, ptr noundef nonnull align 8 dereferenceable(8) %13), !dbg !2961
  br label %77, !dbg !2954

77:                                               ; preds = %64, %57, %53
  %78 = load ptr, ptr %10, align 8, !dbg !2962
  store ptr %78, ptr %9, align 8, !dbg !2963
  br label %90, !dbg !2964

79:                                               ; preds = %44
  %80 = load ptr, ptr %9, align 8, !dbg !2965
  %81 = load i8, ptr %80, align 1, !dbg !2967
  %82 = sext i8 %81 to i32, !dbg !2967
  %83 = load i8, ptr %7, align 1, !dbg !2968
  %84 = sext i8 %83 to i32, !dbg !2968
  %85 = icmp eq i32 %82, %84, !dbg !2969
  br i1 %85, label %86, label %89, !dbg !2970

86:                                               ; preds = %79
  %87 = load ptr, ptr %9, align 8, !dbg !2971
  %88 = getelementptr inbounds i8, ptr %87, i32 1, !dbg !2971
  store ptr %88, ptr %9, align 8, !dbg !2971
  br label %89, !dbg !2971

89:                                               ; preds = %86, %79
  br label %90

90:                                               ; preds = %89, %77
  br label %91, !dbg !2972

91:                                               ; preds = %90
  %92 = load i64, ptr %11, align 8, !dbg !2973
  %93 = add i64 %92, 1, !dbg !2973
  store i64 %93, ptr %11, align 8, !dbg !2973
  %94 = load ptr, ptr %10, align 8, !dbg !2974
  %95 = getelementptr inbounds i8, ptr %94, i32 1, !dbg !2974
  store ptr %95, ptr %10, align 8, !dbg !2974
  br label %31, !dbg !2975, !llvm.loop !2976

96:                                               ; preds = %42
  %97 = load ptr, ptr %9, align 8, !dbg !2978
  %98 = load ptr, ptr %10, align 8, !dbg !2980
  %99 = icmp ne ptr %97, %98, !dbg !2981
  br i1 %99, label %100, label %125, !dbg !2982

100:                                              ; preds = %96
  %101 = load ptr, ptr %9, align 8, !dbg !2983
  %102 = load i8, ptr %101, align 1, !dbg !2984
  %103 = sext i8 %102 to i32, !dbg !2984
  %104 = load i8, ptr %7, align 1, !dbg !2985
  %105 = sext i8 %104 to i32, !dbg !2985
  %106 = icmp ne i32 %103, %105, !dbg !2986
  br i1 %106, label %107, label %125, !dbg !2987

107:                                              ; preds = %100
  %108 = load ptr, ptr %9, align 8, !dbg !2988
  %109 = load i8, ptr %108, align 1, !dbg !2989
  %110 = sext i8 %109 to i32, !dbg !2989
  %111 = icmp ne i32 %110, 10, !dbg !2990
  br i1 %111, label %112, label %125, !dbg !2991

112:                                              ; preds = %107
  %113 = load ptr, ptr %8, align 8, !dbg !2992
  %114 = load ptr, ptr %9, align 8, !dbg !2993
  %115 = load ptr, ptr %5, align 8, !dbg !2994
  %116 = ptrtoint ptr %114 to i64, !dbg !2995
  %117 = ptrtoint ptr %115 to i64, !dbg !2995
  %118 = sub i64 %116, %117, !dbg !2995
  store i64 %118, ptr %14, align 8, !dbg !2993
  %119 = load ptr, ptr %10, align 8, !dbg !2996
  %120 = load ptr, ptr %9, align 8, !dbg !2997
  %121 = ptrtoint ptr %119 to i64, !dbg !2998
  %122 = ptrtoint ptr %120 to i64, !dbg !2998
  %123 = sub i64 %121, %122, !dbg !2998
  store i64 %123, ptr %15, align 8, !dbg !2996
  %124 = call noundef nonnull align 8 dereferenceable(16) ptr @_ZNSt6vectorI11StringTokenSaIS0_EE12emplace_backIJllEEERS0_DpOT_(ptr noundef nonnull align 8 dereferenceable(24) %113, ptr noundef nonnull align 8 dereferenceable(8) %14, ptr noundef nonnull align 8 dereferenceable(8) %15), !dbg !2999
  br label %125, !dbg !2992

125:                                              ; preds = %26, %112, %107, %100, %96
  ret void, !dbg !3000
}

declare void @_ZNSt7__cxx1112basic_stringIcSt11char_traitsIcESaIcEEC1ERKS4_(ptr noundef nonnull align 8 dereferenceable(32), ptr noundef nonnull align 8 dereferenceable(32)) unnamed_addr #5

; Function Attrs: noinline nounwind uwtable
define linkonce_odr dso_local void @_ZNSt6vectorI11StringTokenSaIS0_EEC2EOS2_(ptr noundef nonnull align 8 dereferenceable(24) %0, ptr noundef nonnull align 8 dereferenceable(24) %1) unnamed_addr #4 comdat align 2 !dbg !3001 {
  %3 = alloca ptr, align 8
  %4 = alloca ptr, align 8
  store ptr %0, ptr %3, align 8
  call void @llvm.dbg.declare(metadata ptr %3, metadata !3002, metadata !DIExpression()), !dbg !3003
  store ptr %1, ptr %4, align 8
  call void @llvm.dbg.declare(metadata ptr %4, metadata !3004, metadata !DIExpression()), !dbg !3005
  %5 = load ptr, ptr %3, align 8
  %6 = load ptr, ptr %4, align 8, !dbg !3006
  call void @_ZNSt12_Vector_baseI11StringTokenSaIS0_EEC2EOS2_(ptr noundef nonnull align 8 dereferenceable(24) %5, ptr noundef nonnull align 8 dereferenceable(24) %6) #14, !dbg !3006
  ret void, !dbg !3007
}

; Function Attrs: noinline nounwind uwtable
define linkonce_odr dso_local void @_ZN12StringVectorC2ENSt7__cxx1112basic_stringIcSt11char_traitsIcESaIcEEESt6vectorI11StringTokenSaIS7_EE(ptr noundef nonnull align 8 dereferenceable(56) %0, ptr noundef %1, ptr noundef %2) unnamed_addr #4 comdat align 2 !dbg !3008 {
  %4 = alloca ptr, align 8
  store ptr %0, ptr %4, align 8
  call void @llvm.dbg.declare(metadata ptr %4, metadata !3009, metadata !DIExpression()), !dbg !3010
  call void @llvm.dbg.declare(metadata ptr %1, metadata !3011, metadata !DIExpression()), !dbg !3012
  call void @llvm.dbg.declare(metadata ptr %2, metadata !3013, metadata !DIExpression()), !dbg !3014
  %5 = load ptr, ptr %4, align 8
  %6 = getelementptr inbounds %class.StringVector, ptr %5, i32 0, i32 0, !dbg !3015
  call void @_ZNSt7__cxx1112basic_stringIcSt11char_traitsIcESaIcEEC1EOS4_(ptr noundef nonnull align 8 dereferenceable(32) %6, ptr noundef nonnull align 8 dereferenceable(32) %1) #14, !dbg !3015
  %7 = getelementptr inbounds %class.StringVector, ptr %5, i32 0, i32 1, !dbg !3016
  call void @_ZNSt6vectorI11StringTokenSaIS0_EEC2EOS2_(ptr noundef nonnull align 8 dereferenceable(24) %7, ptr noundef nonnull align 8 dereferenceable(24) %2) #14, !dbg !3016
  ret void, !dbg !3017
}

; Function Attrs: noinline nounwind uwtable
define linkonce_odr dso_local void @_ZNSt6vectorI11StringTokenSaIS0_EED2Ev(ptr noundef nonnull align 8 dereferenceable(24) %0) unnamed_addr #4 comdat align 2 personality ptr @__gxx_personality_v0 !dbg !3018 {
  %2 = alloca ptr, align 8
  store ptr %0, ptr %2, align 8
  call void @llvm.dbg.declare(metadata ptr %2, metadata !3019, metadata !DIExpression()), !dbg !3020
  %3 = load ptr, ptr %2, align 8
  %4 = getelementptr inbounds %"struct.std::_Vector_base", ptr %3, i32 0, i32 0, !dbg !3021
  %5 = getelementptr inbounds %"struct.std::_Vector_base<StringToken, std::allocator<StringToken>>::_Vector_impl_data", ptr %4, i32 0, i32 0, !dbg !3023
  %6 = load ptr, ptr %5, align 8, !dbg !3023
  %7 = getelementptr inbounds %"struct.std::_Vector_base", ptr %3, i32 0, i32 0, !dbg !3024
  %8 = getelementptr inbounds %"struct.std::_Vector_base<StringToken, std::allocator<StringToken>>::_Vector_impl_data", ptr %7, i32 0, i32 1, !dbg !3025
  %9 = load ptr, ptr %8, align 8, !dbg !3025
  %10 = call noundef nonnull align 1 dereferenceable(1) ptr @_ZNSt12_Vector_baseI11StringTokenSaIS0_EE19_M_get_Tp_allocatorEv(ptr noundef nonnull align 8 dereferenceable(24) %3) #14, !dbg !3026
  invoke void @_ZSt8_DestroyIP11StringTokenS0_EvT_S2_RSaIT0_E(ptr noundef %6, ptr noundef %9, ptr noundef nonnull align 1 dereferenceable(1) %10)
          to label %11 unwind label %12, !dbg !3027

11:                                               ; preds = %1
  call void @_ZNSt12_Vector_baseI11StringTokenSaIS0_EED2Ev(ptr noundef nonnull align 8 dereferenceable(24) %3) #14, !dbg !3028
  ret void, !dbg !3029

12:                                               ; preds = %1
  %13 = landingpad { ptr, i32 }
          catch ptr null, !dbg !3027
  %14 = extractvalue { ptr, i32 } %13, 0, !dbg !3027
  call void @__clang_call_terminate(ptr %14) #15, !dbg !3027
  unreachable, !dbg !3027
}

; Function Attrs: noinline nounwind uwtable
define linkonce_odr dso_local void @_ZNSt12_Vector_baseI11StringTokenSaIS0_EEC2Ev(ptr noundef nonnull align 8 dereferenceable(24) %0) unnamed_addr #4 comdat align 2 !dbg !3030 {
  %2 = alloca ptr, align 8
  store ptr %0, ptr %2, align 8
  call void @llvm.dbg.declare(metadata ptr %2, metadata !3031, metadata !DIExpression()), !dbg !3033
  %3 = load ptr, ptr %2, align 8
  %4 = getelementptr inbounds %"struct.std::_Vector_base", ptr %3, i32 0, i32 0, !dbg !3034
  call void @_ZNSt12_Vector_baseI11StringTokenSaIS0_EE12_Vector_implC2Ev(ptr noundef nonnull align 8 dereferenceable(24) %4) #14, !dbg !3034
  ret void, !dbg !3035
}

; Function Attrs: noinline nounwind uwtable
define linkonce_odr dso_local void @_ZNSt12_Vector_baseI11StringTokenSaIS0_EE12_Vector_implC2Ev(ptr noundef nonnull align 8 dereferenceable(24) %0) unnamed_addr #4 comdat align 2 !dbg !3036 {
  %2 = alloca ptr, align 8
  store ptr %0, ptr %2, align 8
  call void @llvm.dbg.declare(metadata ptr %2, metadata !3037, metadata !DIExpression()), !dbg !3039
  %3 = load ptr, ptr %2, align 8
  call void @_ZNSaI11StringTokenEC2Ev(ptr noundef nonnull align 1 dereferenceable(1) %3) #14, !dbg !3040
  call void @_ZNSt12_Vector_baseI11StringTokenSaIS0_EE17_Vector_impl_dataC2Ev(ptr noundef nonnull align 8 dereferenceable(24) %3) #14, !dbg !3041
  ret void, !dbg !3042
}

; Function Attrs: noinline nounwind uwtable
define linkonce_odr dso_local void @_ZNSaI11StringTokenEC2Ev(ptr noundef nonnull align 1 dereferenceable(1) %0) unnamed_addr #4 comdat align 2 !dbg !3043 {
  %2 = alloca ptr, align 8
  store ptr %0, ptr %2, align 8
  call void @llvm.dbg.declare(metadata ptr %2, metadata !3044, metadata !DIExpression()), !dbg !3046
  %3 = load ptr, ptr %2, align 8
  call void @_ZN9__gnu_cxx13new_allocatorI11StringTokenEC2Ev(ptr noundef nonnull align 1 dereferenceable(1) %3) #14, !dbg !3047
  ret void, !dbg !3048
}

; Function Attrs: noinline nounwind uwtable
define linkonce_odr dso_local void @_ZN9__gnu_cxx13new_allocatorI11StringTokenEC2Ev(ptr noundef nonnull align 1 dereferenceable(1) %0) unnamed_addr #4 comdat align 2 !dbg !3049 {
  %2 = alloca ptr, align 8
  store ptr %0, ptr %2, align 8
  call void @llvm.dbg.declare(metadata ptr %2, metadata !3050, metadata !DIExpression()), !dbg !3052
  %3 = load ptr, ptr %2, align 8
  ret void, !dbg !3053
}

; Function Attrs: mustprogress noinline uwtable
define linkonce_odr dso_local void @_ZNSt6vectorI11StringTokenSaIS0_EE7reserveEm(ptr noundef nonnull align 8 dereferenceable(24) %0, i64 noundef %1) #0 comdat align 2 !dbg !3054 {
  %3 = alloca ptr, align 8
  %4 = alloca i64, align 8
  %5 = alloca i64, align 8
  %6 = alloca ptr, align 8
  store ptr %0, ptr %3, align 8
  call void @llvm.dbg.declare(metadata ptr %3, metadata !3055, metadata !DIExpression()), !dbg !3056
  store i64 %1, ptr %4, align 8
  call void @llvm.dbg.declare(metadata ptr %4, metadata !3057, metadata !DIExpression()), !dbg !3058
  %7 = load ptr, ptr %3, align 8
  %8 = load i64, ptr %4, align 8, !dbg !3059
  %9 = call noundef i64 @_ZNKSt6vectorI11StringTokenSaIS0_EE8max_sizeEv(ptr noundef nonnull align 8 dereferenceable(24) %7) #14, !dbg !3061
  %10 = icmp ugt i64 %8, %9, !dbg !3062
  br i1 %10, label %11, label %12, !dbg !3063

11:                                               ; preds = %2
  call void @_ZSt20__throw_length_errorPKc(ptr noundef @.str.1) #16, !dbg !3064
  unreachable, !dbg !3064

12:                                               ; preds = %2
  %13 = call noundef i64 @_ZNKSt6vectorI11StringTokenSaIS0_EE8capacityEv(ptr noundef nonnull align 8 dereferenceable(24) %7) #14, !dbg !3065
  %14 = load i64, ptr %4, align 8, !dbg !3067
  %15 = icmp ult i64 %13, %14, !dbg !3068
  br i1 %15, label %16, label %57, !dbg !3069

16:                                               ; preds = %12
  call void @llvm.dbg.declare(metadata ptr %5, metadata !3070, metadata !DIExpression()), !dbg !3073
  %17 = call noundef i64 @_ZNKSt6vectorI11StringTokenSaIS0_EE4sizeEv(ptr noundef nonnull align 8 dereferenceable(24) %7) #14, !dbg !3074
  store i64 %17, ptr %5, align 8, !dbg !3073
  call void @llvm.dbg.declare(metadata ptr %6, metadata !3075, metadata !DIExpression()), !dbg !3076
  %18 = load i64, ptr %4, align 8, !dbg !3077
  %19 = call noundef ptr @_ZNSt12_Vector_baseI11StringTokenSaIS0_EE11_M_allocateEm(ptr noundef nonnull align 8 dereferenceable(24) %7, i64 noundef %18), !dbg !3080
  store ptr %19, ptr %6, align 8, !dbg !3081
  %20 = getelementptr inbounds %"struct.std::_Vector_base", ptr %7, i32 0, i32 0, !dbg !3082
  %21 = getelementptr inbounds %"struct.std::_Vector_base<StringToken, std::allocator<StringToken>>::_Vector_impl_data", ptr %20, i32 0, i32 0, !dbg !3083
  %22 = load ptr, ptr %21, align 8, !dbg !3083
  %23 = getelementptr inbounds %"struct.std::_Vector_base", ptr %7, i32 0, i32 0, !dbg !3084
  %24 = getelementptr inbounds %"struct.std::_Vector_base<StringToken, std::allocator<StringToken>>::_Vector_impl_data", ptr %23, i32 0, i32 1, !dbg !3085
  %25 = load ptr, ptr %24, align 8, !dbg !3085
  %26 = load ptr, ptr %6, align 8, !dbg !3086
  %27 = call noundef nonnull align 1 dereferenceable(1) ptr @_ZNSt12_Vector_baseI11StringTokenSaIS0_EE19_M_get_Tp_allocatorEv(ptr noundef nonnull align 8 dereferenceable(24) %7) #14, !dbg !3087
  %28 = call noundef ptr @_ZNSt6vectorI11StringTokenSaIS0_EE11_S_relocateEPS0_S3_S3_RS1_(ptr noundef %22, ptr noundef %25, ptr noundef %26, ptr noundef nonnull align 1 dereferenceable(1) %27) #14, !dbg !3088
  %29 = getelementptr inbounds %"struct.std::_Vector_base", ptr %7, i32 0, i32 0, !dbg !3089
  %30 = getelementptr inbounds %"struct.std::_Vector_base<StringToken, std::allocator<StringToken>>::_Vector_impl_data", ptr %29, i32 0, i32 0, !dbg !3090
  %31 = load ptr, ptr %30, align 8, !dbg !3090
  %32 = getelementptr inbounds %"struct.std::_Vector_base", ptr %7, i32 0, i32 0, !dbg !3091
  %33 = getelementptr inbounds %"struct.std::_Vector_base<StringToken, std::allocator<StringToken>>::_Vector_impl_data", ptr %32, i32 0, i32 2, !dbg !3092
  %34 = load ptr, ptr %33, align 8, !dbg !3092
  %35 = getelementptr inbounds %"struct.std::_Vector_base", ptr %7, i32 0, i32 0, !dbg !3093
  %36 = getelementptr inbounds %"struct.std::_Vector_base<StringToken, std::allocator<StringToken>>::_Vector_impl_data", ptr %35, i32 0, i32 0, !dbg !3094
  %37 = load ptr, ptr %36, align 8, !dbg !3094
  %38 = ptrtoint ptr %34 to i64, !dbg !3095
  %39 = ptrtoint ptr %37 to i64, !dbg !3095
  %40 = sub i64 %38, %39, !dbg !3095
  %41 = sdiv exact i64 %40, 16, !dbg !3095
  call void @_ZNSt12_Vector_baseI11StringTokenSaIS0_EE13_M_deallocateEPS0_m(ptr noundef nonnull align 8 dereferenceable(24) %7, ptr noundef %31, i64 noundef %41), !dbg !3096
  %42 = load ptr, ptr %6, align 8, !dbg !3097
  %43 = getelementptr inbounds %"struct.std::_Vector_base", ptr %7, i32 0, i32 0, !dbg !3098
  %44 = getelementptr inbounds %"struct.std::_Vector_base<StringToken, std::allocator<StringToken>>::_Vector_impl_data", ptr %43, i32 0, i32 0, !dbg !3099
  store ptr %42, ptr %44, align 8, !dbg !3100
  %45 = load ptr, ptr %6, align 8, !dbg !3101
  %46 = load i64, ptr %5, align 8, !dbg !3102
  %47 = getelementptr inbounds %struct.StringToken, ptr %45, i64 %46, !dbg !3103
  %48 = getelementptr inbounds %"struct.std::_Vector_base", ptr %7, i32 0, i32 0, !dbg !3104
  %49 = getelementptr inbounds %"struct.std::_Vector_base<StringToken, std::allocator<StringToken>>::_Vector_impl_data", ptr %48, i32 0, i32 1, !dbg !3105
  store ptr %47, ptr %49, align 8, !dbg !3106
  %50 = getelementptr inbounds %"struct.std::_Vector_base", ptr %7, i32 0, i32 0, !dbg !3107
  %51 = getelementptr inbounds %"struct.std::_Vector_base<StringToken, std::allocator<StringToken>>::_Vector_impl_data", ptr %50, i32 0, i32 0, !dbg !3108
  %52 = load ptr, ptr %51, align 8, !dbg !3108
  %53 = load i64, ptr %4, align 8, !dbg !3109
  %54 = getelementptr inbounds %struct.StringToken, ptr %52, i64 %53, !dbg !3110
  %55 = getelementptr inbounds %"struct.std::_Vector_base", ptr %7, i32 0, i32 0, !dbg !3111
  %56 = getelementptr inbounds %"struct.std::_Vector_base<StringToken, std::allocator<StringToken>>::_Vector_impl_data", ptr %55, i32 0, i32 2, !dbg !3112
  store ptr %54, ptr %56, align 8, !dbg !3113
  br label %57, !dbg !3114

57:                                               ; preds = %16, %12
  ret void, !dbg !3115
}

; Function Attrs: mustprogress noinline uwtable
define linkonce_odr dso_local noundef nonnull align 8 dereferenceable(16) ptr @_ZNSt6vectorI11StringTokenSaIS0_EE12emplace_backIJllEEERS0_DpOT_(ptr noundef nonnull align 8 dereferenceable(24) %0, ptr noundef nonnull align 8 dereferenceable(8) %1, ptr noundef nonnull align 8 dereferenceable(8) %2) #0 comdat align 2 !dbg !3116 {
  %4 = alloca ptr, align 8
  %5 = alloca ptr, align 8
  %6 = alloca ptr, align 8
  %7 = alloca %"class.__gnu_cxx::__normal_iterator", align 8
  store ptr %0, ptr %4, align 8
  call void @llvm.dbg.declare(metadata ptr %4, metadata !3125, metadata !DIExpression()), !dbg !3126
  store ptr %1, ptr %5, align 8
  call void @llvm.dbg.declare(metadata ptr %5, metadata !3127, metadata !DIExpression()), !dbg !3128
  store ptr %2, ptr %6, align 8
  call void @llvm.dbg.declare(metadata ptr %6, metadata !3129, metadata !DIExpression()), !dbg !3128
  %8 = load ptr, ptr %4, align 8
  %9 = getelementptr inbounds %"struct.std::_Vector_base", ptr %8, i32 0, i32 0, !dbg !3130
  %10 = getelementptr inbounds %"struct.std::_Vector_base<StringToken, std::allocator<StringToken>>::_Vector_impl_data", ptr %9, i32 0, i32 1, !dbg !3132
  %11 = load ptr, ptr %10, align 8, !dbg !3132
  %12 = getelementptr inbounds %"struct.std::_Vector_base", ptr %8, i32 0, i32 0, !dbg !3133
  %13 = getelementptr inbounds %"struct.std::_Vector_base<StringToken, std::allocator<StringToken>>::_Vector_impl_data", ptr %12, i32 0, i32 2, !dbg !3134
  %14 = load ptr, ptr %13, align 8, !dbg !3134
  %15 = icmp ne ptr %11, %14, !dbg !3135
  br i1 %15, label %16, label %27, !dbg !3136

16:                                               ; preds = %3
  %17 = getelementptr inbounds %"struct.std::_Vector_base", ptr %8, i32 0, i32 0, !dbg !3137
  %18 = getelementptr inbounds %"struct.std::_Vector_base", ptr %8, i32 0, i32 0, !dbg !3139
  %19 = getelementptr inbounds %"struct.std::_Vector_base<StringToken, std::allocator<StringToken>>::_Vector_impl_data", ptr %18, i32 0, i32 1, !dbg !3140
  %20 = load ptr, ptr %19, align 8, !dbg !3140
  %21 = load ptr, ptr %5, align 8, !dbg !3141
  %22 = load ptr, ptr %6, align 8, !dbg !3141
  call void @_ZNSt16allocator_traitsISaI11StringTokenEE9constructIS0_JllEEEvRS1_PT_DpOT0_(ptr noundef nonnull align 1 dereferenceable(1) %17, ptr noundef %20, ptr noundef nonnull align 8 dereferenceable(8) %21, ptr noundef nonnull align 8 dereferenceable(8) %22), !dbg !3142
  %23 = getelementptr inbounds %"struct.std::_Vector_base", ptr %8, i32 0, i32 0, !dbg !3143
  %24 = getelementptr inbounds %"struct.std::_Vector_base<StringToken, std::allocator<StringToken>>::_Vector_impl_data", ptr %23, i32 0, i32 1, !dbg !3144
  %25 = load ptr, ptr %24, align 8, !dbg !3145
  %26 = getelementptr inbounds %struct.StringToken, ptr %25, i32 1, !dbg !3145
  store ptr %26, ptr %24, align 8, !dbg !3145
  br label %34, !dbg !3146

27:                                               ; preds = %3
  %28 = call ptr @_ZNSt6vectorI11StringTokenSaIS0_EE3endEv(ptr noundef nonnull align 8 dereferenceable(24) %8) #14, !dbg !3147
  %29 = getelementptr inbounds %"class.__gnu_cxx::__normal_iterator", ptr %7, i32 0, i32 0, !dbg !3147
  store ptr %28, ptr %29, align 8, !dbg !3147
  %30 = load ptr, ptr %5, align 8, !dbg !3148
  %31 = load ptr, ptr %6, align 8, !dbg !3148
  %32 = getelementptr inbounds %"class.__gnu_cxx::__normal_iterator", ptr %7, i32 0, i32 0, !dbg !3149
  %33 = load ptr, ptr %32, align 8, !dbg !3149
  call void @_ZNSt6vectorI11StringTokenSaIS0_EE17_M_realloc_insertIJllEEEvN9__gnu_cxx17__normal_iteratorIPS0_S2_EEDpOT_(ptr noundef nonnull align 8 dereferenceable(24) %8, ptr %33, ptr noundef nonnull align 8 dereferenceable(8) %30, ptr noundef nonnull align 8 dereferenceable(8) %31), !dbg !3149
  br label %34

34:                                               ; preds = %27, %16
  %35 = call noundef nonnull align 8 dereferenceable(16) ptr @_ZNSt6vectorI11StringTokenSaIS0_EE4backEv(ptr noundef nonnull align 8 dereferenceable(24) %8) #14, !dbg !3150
  ret ptr %35, !dbg !3151
}

; Function Attrs: mustprogress noinline nounwind uwtable
define linkonce_odr dso_local noundef i64 @_ZNKSt6vectorI11StringTokenSaIS0_EE8max_sizeEv(ptr noundef nonnull align 8 dereferenceable(24) %0) #3 comdat align 2 !dbg !3152 {
  %2 = alloca ptr, align 8
  store ptr %0, ptr %2, align 8
  call void @llvm.dbg.declare(metadata ptr %2, metadata !3153, metadata !DIExpression()), !dbg !3155
  %3 = load ptr, ptr %2, align 8
  %4 = call noundef nonnull align 1 dereferenceable(1) ptr @_ZNKSt12_Vector_baseI11StringTokenSaIS0_EE19_M_get_Tp_allocatorEv(ptr noundef nonnull align 8 dereferenceable(24) %3) #14, !dbg !3156
  %5 = call noundef i64 @_ZNSt6vectorI11StringTokenSaIS0_EE11_S_max_sizeERKS1_(ptr noundef nonnull align 1 dereferenceable(1) %4) #14, !dbg !3157
  ret i64 %5, !dbg !3158
}

; Function Attrs: noreturn
declare void @_ZSt20__throw_length_errorPKc(ptr noundef) #7

; Function Attrs: mustprogress noinline nounwind uwtable
define linkonce_odr dso_local noundef i64 @_ZNKSt6vectorI11StringTokenSaIS0_EE8capacityEv(ptr noundef nonnull align 8 dereferenceable(24) %0) #3 comdat align 2 !dbg !3159 {
  %2 = alloca ptr, align 8
  store ptr %0, ptr %2, align 8
  call void @llvm.dbg.declare(metadata ptr %2, metadata !3160, metadata !DIExpression()), !dbg !3161
  %3 = load ptr, ptr %2, align 8
  %4 = getelementptr inbounds %"struct.std::_Vector_base", ptr %3, i32 0, i32 0, !dbg !3162
  %5 = getelementptr inbounds %"struct.std::_Vector_base<StringToken, std::allocator<StringToken>>::_Vector_impl_data", ptr %4, i32 0, i32 2, !dbg !3163
  %6 = load ptr, ptr %5, align 8, !dbg !3163
  %7 = getelementptr inbounds %"struct.std::_Vector_base", ptr %3, i32 0, i32 0, !dbg !3164
  %8 = getelementptr inbounds %"struct.std::_Vector_base<StringToken, std::allocator<StringToken>>::_Vector_impl_data", ptr %7, i32 0, i32 0, !dbg !3165
  %9 = load ptr, ptr %8, align 8, !dbg !3165
  %10 = ptrtoint ptr %6 to i64, !dbg !3166
  %11 = ptrtoint ptr %9 to i64, !dbg !3166
  %12 = sub i64 %10, %11, !dbg !3166
  %13 = sdiv exact i64 %12, 16, !dbg !3166
  ret i64 %13, !dbg !3167
}

; Function Attrs: mustprogress noinline nounwind uwtable
define linkonce_odr dso_local noundef i64 @_ZNKSt6vectorI11StringTokenSaIS0_EE4sizeEv(ptr noundef nonnull align 8 dereferenceable(24) %0) #3 comdat align 2 !dbg !3168 {
  %2 = alloca ptr, align 8
  store ptr %0, ptr %2, align 8
  call void @llvm.dbg.declare(metadata ptr %2, metadata !3169, metadata !DIExpression()), !dbg !3170
  %3 = load ptr, ptr %2, align 8
  %4 = getelementptr inbounds %"struct.std::_Vector_base", ptr %3, i32 0, i32 0, !dbg !3171
  %5 = getelementptr inbounds %"struct.std::_Vector_base<StringToken, std::allocator<StringToken>>::_Vector_impl_data", ptr %4, i32 0, i32 1, !dbg !3172
  %6 = load ptr, ptr %5, align 8, !dbg !3172
  %7 = getelementptr inbounds %"struct.std::_Vector_base", ptr %3, i32 0, i32 0, !dbg !3173
  %8 = getelementptr inbounds %"struct.std::_Vector_base<StringToken, std::allocator<StringToken>>::_Vector_impl_data", ptr %7, i32 0, i32 0, !dbg !3174
  %9 = load ptr, ptr %8, align 8, !dbg !3174
  %10 = ptrtoint ptr %6 to i64, !dbg !3175
  %11 = ptrtoint ptr %9 to i64, !dbg !3175
  %12 = sub i64 %10, %11, !dbg !3175
  %13 = sdiv exact i64 %12, 16, !dbg !3175
  ret i64 %13, !dbg !3176
}

; Function Attrs: mustprogress noinline uwtable
define linkonce_odr dso_local noundef ptr @_ZNSt12_Vector_baseI11StringTokenSaIS0_EE11_M_allocateEm(ptr noundef nonnull align 8 dereferenceable(24) %0, i64 noundef %1) #0 comdat align 2 !dbg !3177 {
  %3 = alloca ptr, align 8
  %4 = alloca i64, align 8
  store ptr %0, ptr %3, align 8
  call void @llvm.dbg.declare(metadata ptr %3, metadata !3178, metadata !DIExpression()), !dbg !3179
  store i64 %1, ptr %4, align 8
  call void @llvm.dbg.declare(metadata ptr %4, metadata !3180, metadata !DIExpression()), !dbg !3181
  %5 = load ptr, ptr %3, align 8
  %6 = load i64, ptr %4, align 8, !dbg !3182
  %7 = icmp ne i64 %6, 0, !dbg !3183
  br i1 %7, label %8, label %12, !dbg !3182

8:                                                ; preds = %2
  %9 = getelementptr inbounds %"struct.std::_Vector_base", ptr %5, i32 0, i32 0, !dbg !3184
  %10 = load i64, ptr %4, align 8, !dbg !3185
  %11 = call noundef ptr @_ZNSt16allocator_traitsISaI11StringTokenEE8allocateERS1_m(ptr noundef nonnull align 1 dereferenceable(1) %9, i64 noundef %10), !dbg !3186
  br label %13, !dbg !3182

12:                                               ; preds = %2
  br label %13, !dbg !3182

13:                                               ; preds = %12, %8
  %14 = phi ptr [ %11, %8 ], [ null, %12 ], !dbg !3182
  ret ptr %14, !dbg !3187
}

; Function Attrs: mustprogress noinline nounwind uwtable
define linkonce_odr dso_local noundef ptr @_ZNSt6vectorI11StringTokenSaIS0_EE11_S_relocateEPS0_S3_S3_RS1_(ptr noundef %0, ptr noundef %1, ptr noundef %2, ptr noundef nonnull align 1 dereferenceable(1) %3) #3 comdat align 2 !dbg !63 {
  %5 = alloca ptr, align 8
  %6 = alloca ptr, align 8
  %7 = alloca ptr, align 8
  %8 = alloca ptr, align 8
  %9 = alloca %"struct.std::integral_constant", align 1
  store ptr %0, ptr %5, align 8
  call void @llvm.dbg.declare(metadata ptr %5, metadata !3188, metadata !DIExpression()), !dbg !3189
  store ptr %1, ptr %6, align 8
  call void @llvm.dbg.declare(metadata ptr %6, metadata !3190, metadata !DIExpression()), !dbg !3191
  store ptr %2, ptr %7, align 8
  call void @llvm.dbg.declare(metadata ptr %7, metadata !3192, metadata !DIExpression()), !dbg !3193
  store ptr %3, ptr %8, align 8
  call void @llvm.dbg.declare(metadata ptr %8, metadata !3194, metadata !DIExpression()), !dbg !3195
  %10 = load ptr, ptr %5, align 8, !dbg !3196
  %11 = load ptr, ptr %6, align 8, !dbg !3197
  %12 = load ptr, ptr %7, align 8, !dbg !3198
  %13 = load ptr, ptr %8, align 8, !dbg !3199
  %14 = call noundef ptr @_ZNSt6vectorI11StringTokenSaIS0_EE14_S_do_relocateEPS0_S3_S3_RS1_St17integral_constantIbLb1EE(ptr noundef %10, ptr noundef %11, ptr noundef %12, ptr noundef nonnull align 1 dereferenceable(1) %13) #14, !dbg !3200
  ret ptr %14, !dbg !3201
}

; Function Attrs: mustprogress noinline nounwind uwtable
define linkonce_odr dso_local noundef nonnull align 1 dereferenceable(1) ptr @_ZNSt12_Vector_baseI11StringTokenSaIS0_EE19_M_get_Tp_allocatorEv(ptr noundef nonnull align 8 dereferenceable(24) %0) #3 comdat align 2 !dbg !3202 {
  %2 = alloca ptr, align 8
  store ptr %0, ptr %2, align 8
  call void @llvm.dbg.declare(metadata ptr %2, metadata !3203, metadata !DIExpression()), !dbg !3204
  %3 = load ptr, ptr %2, align 8
  %4 = getelementptr inbounds %"struct.std::_Vector_base", ptr %3, i32 0, i32 0, !dbg !3205
  ret ptr %4, !dbg !3206
}

; Function Attrs: mustprogress noinline uwtable
define linkonce_odr dso_local void @_ZNSt12_Vector_baseI11StringTokenSaIS0_EE13_M_deallocateEPS0_m(ptr noundef nonnull align 8 dereferenceable(24) %0, ptr noundef %1, i64 noundef %2) #0 comdat align 2 !dbg !3207 {
  %4 = alloca ptr, align 8
  %5 = alloca ptr, align 8
  %6 = alloca i64, align 8
  store ptr %0, ptr %4, align 8
  call void @llvm.dbg.declare(metadata ptr %4, metadata !3208, metadata !DIExpression()), !dbg !3209
  store ptr %1, ptr %5, align 8
  call void @llvm.dbg.declare(metadata ptr %5, metadata !3210, metadata !DIExpression()), !dbg !3211
  store i64 %2, ptr %6, align 8
  call void @llvm.dbg.declare(metadata ptr %6, metadata !3212, metadata !DIExpression()), !dbg !3213
  %7 = load ptr, ptr %4, align 8
  %8 = load ptr, ptr %5, align 8, !dbg !3214
  %9 = icmp ne ptr %8, null, !dbg !3214
  br i1 %9, label %10, label %14, !dbg !3216

10:                                               ; preds = %3
  %11 = getelementptr inbounds %"struct.std::_Vector_base", ptr %7, i32 0, i32 0, !dbg !3217
  %12 = load ptr, ptr %5, align 8, !dbg !3218
  %13 = load i64, ptr %6, align 8, !dbg !3219
  call void @_ZNSt16allocator_traitsISaI11StringTokenEE10deallocateERS1_PS0_m(ptr noundef nonnull align 1 dereferenceable(1) %11, ptr noundef %12, i64 noundef %13), !dbg !3220
  br label %14, !dbg !3220

14:                                               ; preds = %10, %3
  ret void, !dbg !3221
}

; Function Attrs: mustprogress noinline nounwind uwtable
define linkonce_odr dso_local noundef i64 @_ZNSt6vectorI11StringTokenSaIS0_EE11_S_max_sizeERKS1_(ptr noundef nonnull align 1 dereferenceable(1) %0) #3 comdat align 2 personality ptr @__gxx_personality_v0 !dbg !3222 {
  %2 = alloca ptr, align 8
  %3 = alloca i64, align 8
  %4 = alloca i64, align 8
  store ptr %0, ptr %2, align 8
  call void @llvm.dbg.declare(metadata ptr %2, metadata !3223, metadata !DIExpression()), !dbg !3224
  call void @llvm.dbg.declare(metadata ptr %3, metadata !3225, metadata !DIExpression()), !dbg !3226
  store i64 576460752303423487, ptr %3, align 8, !dbg !3226
  call void @llvm.dbg.declare(metadata ptr %4, metadata !3227, metadata !DIExpression()), !dbg !3228
  %5 = load ptr, ptr %2, align 8, !dbg !3229
  %6 = call noundef i64 @_ZNSt16allocator_traitsISaI11StringTokenEE8max_sizeERKS1_(ptr noundef nonnull align 1 dereferenceable(1) %5) #14, !dbg !3230
  store i64 %6, ptr %4, align 8, !dbg !3228
  %7 = invoke noundef nonnull align 8 dereferenceable(8) ptr @_ZSt3minImERKT_S2_S2_(ptr noundef nonnull align 8 dereferenceable(8) %3, ptr noundef nonnull align 8 dereferenceable(8) %4)
          to label %8 unwind label %10, !dbg !3231

8:                                                ; preds = %1
  %9 = load i64, ptr %7, align 8, !dbg !3231
  ret i64 %9, !dbg !3232

10:                                               ; preds = %1
  %11 = landingpad { ptr, i32 }
          catch ptr null, !dbg !3231
  %12 = extractvalue { ptr, i32 } %11, 0, !dbg !3231
  call void @__clang_call_terminate(ptr %12) #15, !dbg !3231
  unreachable, !dbg !3231
}

; Function Attrs: mustprogress noinline nounwind uwtable
define linkonce_odr dso_local noundef nonnull align 1 dereferenceable(1) ptr @_ZNKSt12_Vector_baseI11StringTokenSaIS0_EE19_M_get_Tp_allocatorEv(ptr noundef nonnull align 8 dereferenceable(24) %0) #3 comdat align 2 !dbg !3233 {
  %2 = alloca ptr, align 8
  store ptr %0, ptr %2, align 8
  call void @llvm.dbg.declare(metadata ptr %2, metadata !3234, metadata !DIExpression()), !dbg !3236
  %3 = load ptr, ptr %2, align 8
  %4 = getelementptr inbounds %"struct.std::_Vector_base", ptr %3, i32 0, i32 0, !dbg !3237
  ret ptr %4, !dbg !3238
}

; Function Attrs: mustprogress noinline nounwind uwtable
define linkonce_odr dso_local noundef i64 @_ZNSt16allocator_traitsISaI11StringTokenEE8max_sizeERKS1_(ptr noundef nonnull align 1 dereferenceable(1) %0) #3 comdat align 2 !dbg !3239 {
  %2 = alloca ptr, align 8
  store ptr %0, ptr %2, align 8
  call void @llvm.dbg.declare(metadata ptr %2, metadata !3240, metadata !DIExpression()), !dbg !3241
  %3 = load ptr, ptr %2, align 8, !dbg !3242
  %4 = call noundef i64 @_ZNK9__gnu_cxx13new_allocatorI11StringTokenE8max_sizeEv(ptr noundef nonnull align 1 dereferenceable(1) %3) #14, !dbg !3243
  ret i64 %4, !dbg !3244
}

; Function Attrs: mustprogress noinline nounwind uwtable
define linkonce_odr dso_local noundef nonnull align 8 dereferenceable(8) ptr @_ZSt3minImERKT_S2_S2_(ptr noundef nonnull align 8 dereferenceable(8) %0, ptr noundef nonnull align 8 dereferenceable(8) %1) #3 comdat !dbg !3245 {
  %3 = alloca ptr, align 8
  %4 = alloca ptr, align 8
  %5 = alloca ptr, align 8
  store ptr %0, ptr %4, align 8
  call void @llvm.dbg.declare(metadata ptr %4, metadata !3253, metadata !DIExpression()), !dbg !3254
  store ptr %1, ptr %5, align 8
  call void @llvm.dbg.declare(metadata ptr %5, metadata !3255, metadata !DIExpression()), !dbg !3256
  %6 = load ptr, ptr %5, align 8, !dbg !3257
  %7 = load i64, ptr %6, align 8, !dbg !3257
  %8 = load ptr, ptr %4, align 8, !dbg !3259
  %9 = load i64, ptr %8, align 8, !dbg !3259
  %10 = icmp ult i64 %7, %9, !dbg !3260
  br i1 %10, label %11, label %13, !dbg !3261

11:                                               ; preds = %2
  %12 = load ptr, ptr %5, align 8, !dbg !3262
  store ptr %12, ptr %3, align 8, !dbg !3263
  br label %15, !dbg !3263

13:                                               ; preds = %2
  %14 = load ptr, ptr %4, align 8, !dbg !3264
  store ptr %14, ptr %3, align 8, !dbg !3265
  br label %15, !dbg !3265

15:                                               ; preds = %13, %11
  %16 = load ptr, ptr %3, align 8, !dbg !3266
  ret ptr %16, !dbg !3266
}

; Function Attrs: noinline noreturn nounwind
define linkonce_odr hidden void @__clang_call_terminate(ptr noundef %0) #8 comdat {
  %2 = call ptr @__cxa_begin_catch(ptr %0) #14
  call void @_ZSt9terminatev() #15
  unreachable
}

declare ptr @__cxa_begin_catch(ptr)

declare void @_ZSt9terminatev()

; Function Attrs: mustprogress noinline nounwind uwtable
define linkonce_odr dso_local noundef i64 @_ZNK9__gnu_cxx13new_allocatorI11StringTokenE8max_sizeEv(ptr noundef nonnull align 1 dereferenceable(1) %0) #3 comdat align 2 !dbg !3267 {
  %2 = alloca ptr, align 8
  store ptr %0, ptr %2, align 8
  call void @llvm.dbg.declare(metadata ptr %2, metadata !3268, metadata !DIExpression()), !dbg !3270
  %3 = load ptr, ptr %2, align 8
  %4 = call noundef i64 @_ZNK9__gnu_cxx13new_allocatorI11StringTokenE11_M_max_sizeEv(ptr noundef nonnull align 1 dereferenceable(1) %3) #14, !dbg !3271
  ret i64 %4, !dbg !3272
}

; Function Attrs: mustprogress noinline nounwind uwtable
define linkonce_odr dso_local noundef i64 @_ZNK9__gnu_cxx13new_allocatorI11StringTokenE11_M_max_sizeEv(ptr noundef nonnull align 1 dereferenceable(1) %0) #3 comdat align 2 !dbg !3273 {
  %2 = alloca ptr, align 8
  store ptr %0, ptr %2, align 8
  call void @llvm.dbg.declare(metadata ptr %2, metadata !3274, metadata !DIExpression()), !dbg !3275
  %3 = load ptr, ptr %2, align 8
  ret i64 576460752303423487, !dbg !3276
}

; Function Attrs: mustprogress noinline uwtable
define linkonce_odr dso_local noundef ptr @_ZNSt16allocator_traitsISaI11StringTokenEE8allocateERS1_m(ptr noundef nonnull align 1 dereferenceable(1) %0, i64 noundef %1) #0 comdat align 2 !dbg !3277 {
  %3 = alloca ptr, align 8
  %4 = alloca i64, align 8
  store ptr %0, ptr %3, align 8
  call void @llvm.dbg.declare(metadata ptr %3, metadata !3278, metadata !DIExpression()), !dbg !3279
  store i64 %1, ptr %4, align 8
  call void @llvm.dbg.declare(metadata ptr %4, metadata !3280, metadata !DIExpression()), !dbg !3281
  %5 = load ptr, ptr %3, align 8, !dbg !3282
  %6 = load i64, ptr %4, align 8, !dbg !3283
  %7 = call noundef ptr @_ZN9__gnu_cxx13new_allocatorI11StringTokenE8allocateEmPKv(ptr noundef nonnull align 1 dereferenceable(1) %5, i64 noundef %6, ptr noundef null), !dbg !3284
  ret ptr %7, !dbg !3285
}

; Function Attrs: mustprogress noinline uwtable
define linkonce_odr dso_local noundef ptr @_ZN9__gnu_cxx13new_allocatorI11StringTokenE8allocateEmPKv(ptr noundef nonnull align 1 dereferenceable(1) %0, i64 noundef %1, ptr noundef %2) #0 comdat align 2 !dbg !3286 {
  %4 = alloca ptr, align 8
  %5 = alloca i64, align 8
  %6 = alloca ptr, align 8
  store ptr %0, ptr %4, align 8
  call void @llvm.dbg.declare(metadata ptr %4, metadata !3287, metadata !DIExpression()), !dbg !3288
  store i64 %1, ptr %5, align 8
  call void @llvm.dbg.declare(metadata ptr %5, metadata !3289, metadata !DIExpression()), !dbg !3290
  store ptr %2, ptr %6, align 8
  call void @llvm.dbg.declare(metadata ptr %6, metadata !3291, metadata !DIExpression()), !dbg !3292
  %7 = load ptr, ptr %4, align 8
  %8 = load i64, ptr %5, align 8, !dbg !3293
  %9 = call noundef i64 @_ZNK9__gnu_cxx13new_allocatorI11StringTokenE11_M_max_sizeEv(ptr noundef nonnull align 1 dereferenceable(1) %7) #14, !dbg !3295
  %10 = icmp ugt i64 %8, %9, !dbg !3296
  br i1 %10, label %11, label %16, !dbg !3297

11:                                               ; preds = %3
  %12 = load i64, ptr %5, align 8, !dbg !3298
  %13 = icmp ugt i64 %12, 1152921504606846975, !dbg !3301
  br i1 %13, label %14, label %15, !dbg !3302

14:                                               ; preds = %11
  call void @_ZSt28__throw_bad_array_new_lengthv() #16, !dbg !3303
  unreachable, !dbg !3303

15:                                               ; preds = %11
  call void @_ZSt17__throw_bad_allocv() #16, !dbg !3304
  unreachable, !dbg !3304

16:                                               ; preds = %3
  %17 = load i64, ptr %5, align 8, !dbg !3305
  %18 = mul i64 %17, 16, !dbg !3306
  %19 = call noalias noundef nonnull ptr @_Znwm(i64 noundef %18) #17, !dbg !3307
  ret ptr %19, !dbg !3308
}

; Function Attrs: noreturn
declare void @_ZSt28__throw_bad_array_new_lengthv() #7

; Function Attrs: noreturn
declare void @_ZSt17__throw_bad_allocv() #7

; Function Attrs: nobuiltin allocsize(0)
declare noundef nonnull ptr @_Znwm(i64 noundef) #9

; Function Attrs: mustprogress noinline nounwind uwtable
define linkonce_odr dso_local noundef ptr @_ZNSt6vectorI11StringTokenSaIS0_EE14_S_do_relocateEPS0_S3_S3_RS1_St17integral_constantIbLb1EE(ptr noundef %0, ptr noundef %1, ptr noundef %2, ptr noundef nonnull align 1 dereferenceable(1) %3) #3 comdat align 2 !dbg !3309 {
  %5 = alloca %"struct.std::integral_constant", align 1
  %6 = alloca ptr, align 8
  %7 = alloca ptr, align 8
  %8 = alloca ptr, align 8
  %9 = alloca ptr, align 8
  store ptr %0, ptr %6, align 8
  call void @llvm.dbg.declare(metadata ptr %6, metadata !3310, metadata !DIExpression()), !dbg !3311
  store ptr %1, ptr %7, align 8
  call void @llvm.dbg.declare(metadata ptr %7, metadata !3312, metadata !DIExpression()), !dbg !3313
  store ptr %2, ptr %8, align 8
  call void @llvm.dbg.declare(metadata ptr %8, metadata !3314, metadata !DIExpression()), !dbg !3315
  store ptr %3, ptr %9, align 8
  call void @llvm.dbg.declare(metadata ptr %9, metadata !3316, metadata !DIExpression()), !dbg !3317
  call void @llvm.dbg.declare(metadata ptr %5, metadata !3318, metadata !DIExpression()), !dbg !3319
  %10 = load ptr, ptr %6, align 8, !dbg !3320
  %11 = load ptr, ptr %7, align 8, !dbg !3321
  %12 = load ptr, ptr %8, align 8, !dbg !3322
  %13 = load ptr, ptr %9, align 8, !dbg !3323
  %14 = call noundef ptr @_ZSt12__relocate_aIP11StringTokenS1_SaIS0_EET0_T_S4_S3_RT1_(ptr noundef %10, ptr noundef %11, ptr noundef %12, ptr noundef nonnull align 1 dereferenceable(1) %13) #14, !dbg !3324
  ret ptr %14, !dbg !3325
}

; Function Attrs: mustprogress noinline nounwind uwtable
define linkonce_odr dso_local noundef ptr @_ZSt12__relocate_aIP11StringTokenS1_SaIS0_EET0_T_S4_S3_RT1_(ptr noundef %0, ptr noundef %1, ptr noundef %2, ptr noundef nonnull align 1 dereferenceable(1) %3) #3 comdat !dbg !3326 {
  %5 = alloca ptr, align 8
  %6 = alloca ptr, align 8
  %7 = alloca ptr, align 8
  %8 = alloca ptr, align 8
  store ptr %0, ptr %5, align 8
  call void @llvm.dbg.declare(metadata ptr %5, metadata !3334, metadata !DIExpression()), !dbg !3335
  store ptr %1, ptr %6, align 8
  call void @llvm.dbg.declare(metadata ptr %6, metadata !3336, metadata !DIExpression()), !dbg !3337
  store ptr %2, ptr %7, align 8
  call void @llvm.dbg.declare(metadata ptr %7, metadata !3338, metadata !DIExpression()), !dbg !3339
  store ptr %3, ptr %8, align 8
  call void @llvm.dbg.declare(metadata ptr %8, metadata !3340, metadata !DIExpression()), !dbg !3341
  %9 = load ptr, ptr %5, align 8, !dbg !3342
  %10 = call noundef ptr @_ZSt12__niter_baseIP11StringTokenET_S2_(ptr noundef %9) #14, !dbg !3343
  %11 = load ptr, ptr %6, align 8, !dbg !3344
  %12 = call noundef ptr @_ZSt12__niter_baseIP11StringTokenET_S2_(ptr noundef %11) #14, !dbg !3345
  %13 = load ptr, ptr %7, align 8, !dbg !3346
  %14 = call noundef ptr @_ZSt12__niter_baseIP11StringTokenET_S2_(ptr noundef %13) #14, !dbg !3347
  %15 = load ptr, ptr %8, align 8, !dbg !3348
  %16 = call noundef ptr @_ZSt14__relocate_a_1I11StringTokenS0_ENSt9enable_ifIXsr3std24__is_bitwise_relocatableIT_EE5valueEPS2_E4typeES3_S3_S3_RSaIT0_E(ptr noundef %10, ptr noundef %12, ptr noundef %14, ptr noundef nonnull align 1 dereferenceable(1) %15) #14, !dbg !3349
  ret ptr %16, !dbg !3350
}

; Function Attrs: mustprogress noinline nounwind uwtable
define linkonce_odr dso_local noundef ptr @_ZSt14__relocate_a_1I11StringTokenS0_ENSt9enable_ifIXsr3std24__is_bitwise_relocatableIT_EE5valueEPS2_E4typeES3_S3_S3_RSaIT0_E(ptr noundef %0, ptr noundef %1, ptr noundef %2, ptr noundef nonnull align 1 dereferenceable(1) %3) #3 comdat !dbg !3351 {
  %5 = alloca ptr, align 8
  %6 = alloca ptr, align 8
  %7 = alloca ptr, align 8
  %8 = alloca ptr, align 8
  %9 = alloca i64, align 8
  store ptr %0, ptr %5, align 8
  call void @llvm.dbg.declare(metadata ptr %5, metadata !3362, metadata !DIExpression()), !dbg !3363
  store ptr %1, ptr %6, align 8
  call void @llvm.dbg.declare(metadata ptr %6, metadata !3364, metadata !DIExpression()), !dbg !3365
  store ptr %2, ptr %7, align 8
  call void @llvm.dbg.declare(metadata ptr %7, metadata !3366, metadata !DIExpression()), !dbg !3367
  store ptr %3, ptr %8, align 8
  call void @llvm.dbg.declare(metadata ptr %8, metadata !3368, metadata !DIExpression()), !dbg !3369
  call void @llvm.dbg.declare(metadata ptr %9, metadata !3370, metadata !DIExpression()), !dbg !3371
  %10 = load ptr, ptr %6, align 8, !dbg !3372
  %11 = load ptr, ptr %5, align 8, !dbg !3373
  %12 = ptrtoint ptr %10 to i64, !dbg !3374
  %13 = ptrtoint ptr %11 to i64, !dbg !3374
  %14 = sub i64 %12, %13, !dbg !3374
  %15 = sdiv exact i64 %14, 16, !dbg !3374
  store i64 %15, ptr %9, align 8, !dbg !3371
  %16 = load i64, ptr %9, align 8, !dbg !3375
  %17 = icmp sgt i64 %16, 0, !dbg !3377
  br i1 %17, label %18, label %23, !dbg !3378

18:                                               ; preds = %4
  %19 = load ptr, ptr %7, align 8, !dbg !3379
  %20 = load ptr, ptr %5, align 8, !dbg !3380
  %21 = load i64, ptr %9, align 8, !dbg !3381
  %22 = mul i64 %21, 16, !dbg !3382
  call void @llvm.memmove.p0.p0.i64(ptr align 8 %19, ptr align 8 %20, i64 %22, i1 false), !dbg !3383
  br label %23, !dbg !3383

23:                                               ; preds = %18, %4
  %24 = load ptr, ptr %7, align 8, !dbg !3384
  %25 = load i64, ptr %9, align 8, !dbg !3385
  %26 = getelementptr inbounds %struct.StringToken, ptr %24, i64 %25, !dbg !3386
  ret ptr %26, !dbg !3387
}

; Function Attrs: mustprogress noinline nounwind uwtable
define linkonce_odr dso_local noundef ptr @_ZSt12__niter_baseIP11StringTokenET_S2_(ptr noundef %0) #3 comdat !dbg !3388 {
  %2 = alloca ptr, align 8
  store ptr %0, ptr %2, align 8
  call void @llvm.dbg.declare(metadata ptr %2, metadata !3391, metadata !DIExpression()), !dbg !3392
  %3 = load ptr, ptr %2, align 8, !dbg !3393
  ret ptr %3, !dbg !3394
}

; Function Attrs: nocallback nofree nounwind willreturn memory(argmem: readwrite)
declare void @llvm.memmove.p0.p0.i64(ptr nocapture writeonly, ptr nocapture readonly, i64, i1 immarg) #10

; Function Attrs: mustprogress noinline uwtable
define linkonce_odr dso_local void @_ZNSt16allocator_traitsISaI11StringTokenEE10deallocateERS1_PS0_m(ptr noundef nonnull align 1 dereferenceable(1) %0, ptr noundef %1, i64 noundef %2) #0 comdat align 2 !dbg !3395 {
  %4 = alloca ptr, align 8
  %5 = alloca ptr, align 8
  %6 = alloca i64, align 8
  store ptr %0, ptr %4, align 8
  call void @llvm.dbg.declare(metadata ptr %4, metadata !3396, metadata !DIExpression()), !dbg !3397
  store ptr %1, ptr %5, align 8
  call void @llvm.dbg.declare(metadata ptr %5, metadata !3398, metadata !DIExpression()), !dbg !3399
  store i64 %2, ptr %6, align 8
  call void @llvm.dbg.declare(metadata ptr %6, metadata !3400, metadata !DIExpression()), !dbg !3401
  %7 = load ptr, ptr %4, align 8, !dbg !3402
  %8 = load ptr, ptr %5, align 8, !dbg !3403
  %9 = load i64, ptr %6, align 8, !dbg !3404
  call void @_ZN9__gnu_cxx13new_allocatorI11StringTokenE10deallocateEPS1_m(ptr noundef nonnull align 1 dereferenceable(1) %7, ptr noundef %8, i64 noundef %9), !dbg !3405
  ret void, !dbg !3406
}

; Function Attrs: mustprogress noinline nounwind uwtable
define linkonce_odr dso_local void @_ZN9__gnu_cxx13new_allocatorI11StringTokenE10deallocateEPS1_m(ptr noundef nonnull align 1 dereferenceable(1) %0, ptr noundef %1, i64 noundef %2) #3 comdat align 2 !dbg !3407 {
  %4 = alloca ptr, align 8
  %5 = alloca ptr, align 8
  %6 = alloca i64, align 8
  store ptr %0, ptr %4, align 8
  call void @llvm.dbg.declare(metadata ptr %4, metadata !3408, metadata !DIExpression()), !dbg !3409
  store ptr %1, ptr %5, align 8
  call void @llvm.dbg.declare(metadata ptr %5, metadata !3410, metadata !DIExpression()), !dbg !3411
  store i64 %2, ptr %6, align 8
  call void @llvm.dbg.declare(metadata ptr %6, metadata !3412, metadata !DIExpression()), !dbg !3413
  %7 = load ptr, ptr %4, align 8
  %8 = load ptr, ptr %5, align 8, !dbg !3414
  call void @_ZdlPv(ptr noundef %8) #14, !dbg !3415
  ret void, !dbg !3416
}

; Function Attrs: nobuiltin nounwind
declare void @_ZdlPv(ptr noundef) #11

; Function Attrs: mustprogress noinline uwtable
define linkonce_odr dso_local void @_ZNSt16allocator_traitsISaI11StringTokenEE9constructIS0_JllEEEvRS1_PT_DpOT0_(ptr noundef nonnull align 1 dereferenceable(1) %0, ptr noundef %1, ptr noundef nonnull align 8 dereferenceable(8) %2, ptr noundef nonnull align 8 dereferenceable(8) %3) #0 comdat align 2 !dbg !3417 {
  %5 = alloca ptr, align 8
  %6 = alloca ptr, align 8
  %7 = alloca ptr, align 8
  %8 = alloca ptr, align 8
  store ptr %0, ptr %5, align 8
  call void @llvm.dbg.declare(metadata ptr %5, metadata !3422, metadata !DIExpression()), !dbg !3423
  store ptr %1, ptr %6, align 8
  call void @llvm.dbg.declare(metadata ptr %6, metadata !3424, metadata !DIExpression()), !dbg !3425
  store ptr %2, ptr %7, align 8
  call void @llvm.dbg.declare(metadata ptr %7, metadata !3426, metadata !DIExpression()), !dbg !3427
  store ptr %3, ptr %8, align 8
  call void @llvm.dbg.declare(metadata ptr %8, metadata !3428, metadata !DIExpression()), !dbg !3427
  %9 = load ptr, ptr %5, align 8, !dbg !3429
  %10 = load ptr, ptr %6, align 8, !dbg !3430
  %11 = load ptr, ptr %7, align 8, !dbg !3431
  %12 = load ptr, ptr %8, align 8, !dbg !3431
  call void @_ZN9__gnu_cxx13new_allocatorI11StringTokenE9constructIS1_JllEEEvPT_DpOT0_(ptr noundef nonnull align 1 dereferenceable(1) %9, ptr noundef %10, ptr noundef nonnull align 8 dereferenceable(8) %11, ptr noundef nonnull align 8 dereferenceable(8) %12), !dbg !3432
  ret void, !dbg !3433
}

; Function Attrs: mustprogress noinline uwtable
define linkonce_odr dso_local void @_ZNSt6vectorI11StringTokenSaIS0_EE17_M_realloc_insertIJllEEEvN9__gnu_cxx17__normal_iteratorIPS0_S2_EEDpOT_(ptr noundef nonnull align 8 dereferenceable(24) %0, ptr %1, ptr noundef nonnull align 8 dereferenceable(8) %2, ptr noundef nonnull align 8 dereferenceable(8) %3) #0 comdat align 2 personality ptr @__gxx_personality_v0 !dbg !3434 {
  %5 = alloca %"class.__gnu_cxx::__normal_iterator", align 8
  %6 = alloca ptr, align 8
  %7 = alloca ptr, align 8
  %8 = alloca ptr, align 8
  %9 = alloca i64, align 8
  %10 = alloca ptr, align 8
  %11 = alloca ptr, align 8
  %12 = alloca i64, align 8
  %13 = alloca %"class.__gnu_cxx::__normal_iterator", align 8
  %14 = alloca ptr, align 8
  %15 = alloca ptr, align 8
  %16 = alloca ptr, align 8
  %17 = alloca i32, align 4
  %18 = getelementptr inbounds %"class.__gnu_cxx::__normal_iterator", ptr %5, i32 0, i32 0
  store ptr %1, ptr %18, align 8
  store ptr %0, ptr %6, align 8
  call void @llvm.dbg.declare(metadata ptr %6, metadata !3438, metadata !DIExpression()), !dbg !3439
  call void @llvm.dbg.declare(metadata ptr %5, metadata !3440, metadata !DIExpression()), !dbg !3441
  store ptr %2, ptr %7, align 8
  call void @llvm.dbg.declare(metadata ptr %7, metadata !3442, metadata !DIExpression()), !dbg !3443
  store ptr %3, ptr %8, align 8
  call void @llvm.dbg.declare(metadata ptr %8, metadata !3444, metadata !DIExpression()), !dbg !3443
  %19 = load ptr, ptr %6, align 8
  call void @llvm.dbg.declare(metadata ptr %9, metadata !3445, metadata !DIExpression()), !dbg !3446
  %20 = call noundef i64 @_ZNKSt6vectorI11StringTokenSaIS0_EE12_M_check_lenEmPKc(ptr noundef nonnull align 8 dereferenceable(24) %19, i64 noundef 1, ptr noundef @.str.2), !dbg !3447
  store i64 %20, ptr %9, align 8, !dbg !3446
  call void @llvm.dbg.declare(metadata ptr %10, metadata !3448, metadata !DIExpression()), !dbg !3449
  %21 = getelementptr inbounds %"struct.std::_Vector_base", ptr %19, i32 0, i32 0, !dbg !3450
  %22 = getelementptr inbounds %"struct.std::_Vector_base<StringToken, std::allocator<StringToken>>::_Vector_impl_data", ptr %21, i32 0, i32 0, !dbg !3451
  %23 = load ptr, ptr %22, align 8, !dbg !3451
  store ptr %23, ptr %10, align 8, !dbg !3449
  call void @llvm.dbg.declare(metadata ptr %11, metadata !3452, metadata !DIExpression()), !dbg !3453
  %24 = getelementptr inbounds %"struct.std::_Vector_base", ptr %19, i32 0, i32 0, !dbg !3454
  %25 = getelementptr inbounds %"struct.std::_Vector_base<StringToken, std::allocator<StringToken>>::_Vector_impl_data", ptr %24, i32 0, i32 1, !dbg !3455
  %26 = load ptr, ptr %25, align 8, !dbg !3455
  store ptr %26, ptr %11, align 8, !dbg !3453
  call void @llvm.dbg.declare(metadata ptr %12, metadata !3456, metadata !DIExpression()), !dbg !3457
  %27 = call ptr @_ZNSt6vectorI11StringTokenSaIS0_EE5beginEv(ptr noundef nonnull align 8 dereferenceable(24) %19) #14, !dbg !3458
  %28 = getelementptr inbounds %"class.__gnu_cxx::__normal_iterator", ptr %13, i32 0, i32 0, !dbg !3458
  store ptr %27, ptr %28, align 8, !dbg !3458
  %29 = call noundef i64 @_ZN9__gnu_cxxmiIP11StringTokenSt6vectorIS1_SaIS1_EEEENS_17__normal_iteratorIT_T0_E15difference_typeERKS9_SC_(ptr noundef nonnull align 8 dereferenceable(8) %5, ptr noundef nonnull align 8 dereferenceable(8) %13) #14, !dbg !3459
  store i64 %29, ptr %12, align 8, !dbg !3457
  call void @llvm.dbg.declare(metadata ptr %14, metadata !3460, metadata !DIExpression()), !dbg !3461
  %30 = load i64, ptr %9, align 8, !dbg !3462
  %31 = call noundef ptr @_ZNSt12_Vector_baseI11StringTokenSaIS0_EE11_M_allocateEm(ptr noundef nonnull align 8 dereferenceable(24) %19, i64 noundef %30), !dbg !3463
  store ptr %31, ptr %14, align 8, !dbg !3461
  call void @llvm.dbg.declare(metadata ptr %15, metadata !3464, metadata !DIExpression()), !dbg !3465
  %32 = load ptr, ptr %14, align 8, !dbg !3466
  store ptr %32, ptr %15, align 8, !dbg !3465
  %33 = getelementptr inbounds %"struct.std::_Vector_base", ptr %19, i32 0, i32 0, !dbg !3467
  %34 = load ptr, ptr %14, align 8, !dbg !3469
  %35 = load i64, ptr %12, align 8, !dbg !3470
  %36 = getelementptr inbounds %struct.StringToken, ptr %34, i64 %35, !dbg !3471
  %37 = load ptr, ptr %7, align 8, !dbg !3472
  %38 = load ptr, ptr %8, align 8, !dbg !3472
  invoke void @_ZNSt16allocator_traitsISaI11StringTokenEE9constructIS0_JllEEEvRS1_PT_DpOT0_(ptr noundef nonnull align 1 dereferenceable(1) %33, ptr noundef %36, ptr noundef nonnull align 8 dereferenceable(8) %37, ptr noundef nonnull align 8 dereferenceable(8) %38)
          to label %39 unwind label %54, !dbg !3473

39:                                               ; preds = %4
  store ptr null, ptr %15, align 8, !dbg !3474
  %40 = load ptr, ptr %10, align 8, !dbg !3475
  %41 = call noundef nonnull align 8 dereferenceable(8) ptr @_ZNK9__gnu_cxx17__normal_iteratorIP11StringTokenSt6vectorIS1_SaIS1_EEE4baseEv(ptr noundef nonnull align 8 dereferenceable(8) %5) #14, !dbg !3478
  %42 = load ptr, ptr %41, align 8, !dbg !3478
  %43 = load ptr, ptr %14, align 8, !dbg !3479
  %44 = call noundef nonnull align 1 dereferenceable(1) ptr @_ZNSt12_Vector_baseI11StringTokenSaIS0_EE19_M_get_Tp_allocatorEv(ptr noundef nonnull align 8 dereferenceable(24) %19) #14, !dbg !3480
  %45 = call noundef ptr @_ZNSt6vectorI11StringTokenSaIS0_EE11_S_relocateEPS0_S3_S3_RS1_(ptr noundef %40, ptr noundef %42, ptr noundef %43, ptr noundef nonnull align 1 dereferenceable(1) %44) #14, !dbg !3481
  store ptr %45, ptr %15, align 8, !dbg !3482
  %46 = load ptr, ptr %15, align 8, !dbg !3483
  %47 = getelementptr inbounds %struct.StringToken, ptr %46, i32 1, !dbg !3483
  store ptr %47, ptr %15, align 8, !dbg !3483
  %48 = call noundef nonnull align 8 dereferenceable(8) ptr @_ZNK9__gnu_cxx17__normal_iteratorIP11StringTokenSt6vectorIS1_SaIS1_EEE4baseEv(ptr noundef nonnull align 8 dereferenceable(8) %5) #14, !dbg !3484
  %49 = load ptr, ptr %48, align 8, !dbg !3484
  %50 = load ptr, ptr %11, align 8, !dbg !3485
  %51 = load ptr, ptr %15, align 8, !dbg !3486
  %52 = call noundef nonnull align 1 dereferenceable(1) ptr @_ZNSt12_Vector_baseI11StringTokenSaIS0_EE19_M_get_Tp_allocatorEv(ptr noundef nonnull align 8 dereferenceable(24) %19) #14, !dbg !3487
  %53 = call noundef ptr @_ZNSt6vectorI11StringTokenSaIS0_EE11_S_relocateEPS0_S3_S3_RS1_(ptr noundef %49, ptr noundef %50, ptr noundef %51, ptr noundef nonnull align 1 dereferenceable(1) %52) #14, !dbg !3488
  store ptr %53, ptr %15, align 8, !dbg !3489
  br label %82, !dbg !3490

54:                                               ; preds = %4
  %55 = landingpad { ptr, i32 }
          catch ptr null, !dbg !3491
  %56 = extractvalue { ptr, i32 } %55, 0, !dbg !3491
  store ptr %56, ptr %16, align 8, !dbg !3491
  %57 = extractvalue { ptr, i32 } %55, 1, !dbg !3491
  store i32 %57, ptr %17, align 4, !dbg !3491
  br label %58, !dbg !3491

58:                                               ; preds = %54
  %59 = load ptr, ptr %16, align 8, !dbg !3490
  %60 = call ptr @__cxa_begin_catch(ptr %59) #14, !dbg !3490
  %61 = load ptr, ptr %15, align 8, !dbg !3492
  %62 = icmp ne ptr %61, null, !dbg !3492
  br i1 %62, label %68, label %63, !dbg !3495

63:                                               ; preds = %58
  %64 = getelementptr inbounds %"struct.std::_Vector_base", ptr %19, i32 0, i32 0, !dbg !3496
  %65 = load ptr, ptr %14, align 8, !dbg !3497
  %66 = load i64, ptr %12, align 8, !dbg !3498
  %67 = getelementptr inbounds %struct.StringToken, ptr %65, i64 %66, !dbg !3499
  call void @_ZNSt16allocator_traitsISaI11StringTokenEE7destroyIS0_EEvRS1_PT_(ptr noundef nonnull align 1 dereferenceable(1) %64, ptr noundef %67) #14, !dbg !3500
  br label %77, !dbg !3500

68:                                               ; preds = %58
  %69 = load ptr, ptr %14, align 8, !dbg !3501
  %70 = load ptr, ptr %15, align 8, !dbg !3502
  %71 = call noundef nonnull align 1 dereferenceable(1) ptr @_ZNSt12_Vector_baseI11StringTokenSaIS0_EE19_M_get_Tp_allocatorEv(ptr noundef nonnull align 8 dereferenceable(24) %19) #14, !dbg !3503
  invoke void @_ZSt8_DestroyIP11StringTokenS0_EvT_S2_RSaIT0_E(ptr noundef %69, ptr noundef %70, ptr noundef nonnull align 1 dereferenceable(1) %71)
          to label %72 unwind label %73, !dbg !3504

72:                                               ; preds = %68
  br label %77

73:                                               ; preds = %80, %77, %68
  %74 = landingpad { ptr, i32 }
          cleanup, !dbg !3505
  %75 = extractvalue { ptr, i32 } %74, 0, !dbg !3505
  store ptr %75, ptr %16, align 8, !dbg !3505
  %76 = extractvalue { ptr, i32 } %74, 1, !dbg !3505
  store i32 %76, ptr %17, align 4, !dbg !3505
  invoke void @__cxa_end_catch()
          to label %81 unwind label %108, !dbg !3506

77:                                               ; preds = %72, %63
  %78 = load ptr, ptr %14, align 8, !dbg !3507
  %79 = load i64, ptr %9, align 8, !dbg !3508
  invoke void @_ZNSt12_Vector_baseI11StringTokenSaIS0_EE13_M_deallocateEPS0_m(ptr noundef nonnull align 8 dereferenceable(24) %19, ptr noundef %78, i64 noundef %79)
          to label %80 unwind label %73, !dbg !3509

80:                                               ; preds = %77
  invoke void @__cxa_rethrow() #16
          to label %111 unwind label %73, !dbg !3510

81:                                               ; preds = %73
  br label %103, !dbg !3506

82:                                               ; preds = %39
  %83 = load ptr, ptr %10, align 8, !dbg !3511
  %84 = getelementptr inbounds %"struct.std::_Vector_base", ptr %19, i32 0, i32 0, !dbg !3512
  %85 = getelementptr inbounds %"struct.std::_Vector_base<StringToken, std::allocator<StringToken>>::_Vector_impl_data", ptr %84, i32 0, i32 2, !dbg !3513
  %86 = load ptr, ptr %85, align 8, !dbg !3513
  %87 = load ptr, ptr %10, align 8, !dbg !3514
  %88 = ptrtoint ptr %86 to i64, !dbg !3515
  %89 = ptrtoint ptr %87 to i64, !dbg !3515
  %90 = sub i64 %88, %89, !dbg !3515
  %91 = sdiv exact i64 %90, 16, !dbg !3515
  call void @_ZNSt12_Vector_baseI11StringTokenSaIS0_EE13_M_deallocateEPS0_m(ptr noundef nonnull align 8 dereferenceable(24) %19, ptr noundef %83, i64 noundef %91), !dbg !3516
  %92 = load ptr, ptr %14, align 8, !dbg !3517
  %93 = getelementptr inbounds %"struct.std::_Vector_base", ptr %19, i32 0, i32 0, !dbg !3518
  %94 = getelementptr inbounds %"struct.std::_Vector_base<StringToken, std::allocator<StringToken>>::_Vector_impl_data", ptr %93, i32 0, i32 0, !dbg !3519
  store ptr %92, ptr %94, align 8, !dbg !3520
  %95 = load ptr, ptr %15, align 8, !dbg !3521
  %96 = getelementptr inbounds %"struct.std::_Vector_base", ptr %19, i32 0, i32 0, !dbg !3522
  %97 = getelementptr inbounds %"struct.std::_Vector_base<StringToken, std::allocator<StringToken>>::_Vector_impl_data", ptr %96, i32 0, i32 1, !dbg !3523
  store ptr %95, ptr %97, align 8, !dbg !3524
  %98 = load ptr, ptr %14, align 8, !dbg !3525
  %99 = load i64, ptr %9, align 8, !dbg !3526
  %100 = getelementptr inbounds %struct.StringToken, ptr %98, i64 %99, !dbg !3527
  %101 = getelementptr inbounds %"struct.std::_Vector_base", ptr %19, i32 0, i32 0, !dbg !3528
  %102 = getelementptr inbounds %"struct.std::_Vector_base<StringToken, std::allocator<StringToken>>::_Vector_impl_data", ptr %101, i32 0, i32 2, !dbg !3529
  store ptr %100, ptr %102, align 8, !dbg !3530
  ret void, !dbg !3531

103:                                              ; preds = %81
  %104 = load ptr, ptr %16, align 8, !dbg !3506
  %105 = load i32, ptr %17, align 4, !dbg !3506
  %106 = insertvalue { ptr, i32 } poison, ptr %104, 0, !dbg !3506
  %107 = insertvalue { ptr, i32 } %106, i32 %105, 1, !dbg !3506
  resume { ptr, i32 } %107, !dbg !3506

108:                                              ; preds = %73
  %109 = landingpad { ptr, i32 }
          catch ptr null, !dbg !3506
  %110 = extractvalue { ptr, i32 } %109, 0, !dbg !3506
  call void @__clang_call_terminate(ptr %110) #15, !dbg !3506
  unreachable, !dbg !3506

111:                                              ; preds = %80
  unreachable
}

; Function Attrs: mustprogress noinline nounwind uwtable
define linkonce_odr dso_local ptr @_ZNSt6vectorI11StringTokenSaIS0_EE3endEv(ptr noundef nonnull align 8 dereferenceable(24) %0) #3 comdat align 2 !dbg !3532 {
  %2 = alloca %"class.__gnu_cxx::__normal_iterator", align 8
  %3 = alloca ptr, align 8
  store ptr %0, ptr %3, align 8
  call void @llvm.dbg.declare(metadata ptr %3, metadata !3533, metadata !DIExpression()), !dbg !3534
  %4 = load ptr, ptr %3, align 8
  %5 = getelementptr inbounds %"struct.std::_Vector_base", ptr %4, i32 0, i32 0, !dbg !3535
  %6 = getelementptr inbounds %"struct.std::_Vector_base<StringToken, std::allocator<StringToken>>::_Vector_impl_data", ptr %5, i32 0, i32 1, !dbg !3536
  call void @_ZN9__gnu_cxx17__normal_iteratorIP11StringTokenSt6vectorIS1_SaIS1_EEEC2ERKS2_(ptr noundef nonnull align 8 dereferenceable(8) %2, ptr noundef nonnull align 8 dereferenceable(8) %6) #14, !dbg !3537
  %7 = getelementptr inbounds %"class.__gnu_cxx::__normal_iterator", ptr %2, i32 0, i32 0, !dbg !3538
  %8 = load ptr, ptr %7, align 8, !dbg !3538
  ret ptr %8, !dbg !3538
}

; Function Attrs: mustprogress noinline nounwind uwtable
define linkonce_odr dso_local noundef nonnull align 8 dereferenceable(16) ptr @_ZNSt6vectorI11StringTokenSaIS0_EE4backEv(ptr noundef nonnull align 8 dereferenceable(24) %0) #3 comdat align 2 !dbg !3539 {
  %2 = alloca ptr, align 8
  %3 = alloca %"class.__gnu_cxx::__normal_iterator", align 8
  %4 = alloca %"class.__gnu_cxx::__normal_iterator", align 8
  store ptr %0, ptr %2, align 8
  call void @llvm.dbg.declare(metadata ptr %2, metadata !3540, metadata !DIExpression()), !dbg !3541
  %5 = load ptr, ptr %2, align 8
  %6 = call ptr @_ZNSt6vectorI11StringTokenSaIS0_EE3endEv(ptr noundef nonnull align 8 dereferenceable(24) %5) #14, !dbg !3542
  %7 = getelementptr inbounds %"class.__gnu_cxx::__normal_iterator", ptr %4, i32 0, i32 0, !dbg !3542
  store ptr %6, ptr %7, align 8, !dbg !3542
  %8 = call ptr @_ZNK9__gnu_cxx17__normal_iteratorIP11StringTokenSt6vectorIS1_SaIS1_EEEmiEl(ptr noundef nonnull align 8 dereferenceable(8) %4, i64 noundef 1) #14, !dbg !3543
  %9 = getelementptr inbounds %"class.__gnu_cxx::__normal_iterator", ptr %3, i32 0, i32 0, !dbg !3543
  store ptr %8, ptr %9, align 8, !dbg !3543
  %10 = call noundef nonnull align 8 dereferenceable(16) ptr @_ZNK9__gnu_cxx17__normal_iteratorIP11StringTokenSt6vectorIS1_SaIS1_EEEdeEv(ptr noundef nonnull align 8 dereferenceable(8) %3) #14, !dbg !3544
  ret ptr %10, !dbg !3545
}

; Function Attrs: mustprogress noinline uwtable
define linkonce_odr dso_local void @_ZN9__gnu_cxx13new_allocatorI11StringTokenE9constructIS1_JllEEEvPT_DpOT0_(ptr noundef nonnull align 1 dereferenceable(1) %0, ptr noundef %1, ptr noundef nonnull align 8 dereferenceable(8) %2, ptr noundef nonnull align 8 dereferenceable(8) %3) #0 comdat align 2 !dbg !3546 {
  %5 = alloca ptr, align 8
  %6 = alloca ptr, align 8
  %7 = alloca ptr, align 8
  %8 = alloca ptr, align 8
  store ptr %0, ptr %5, align 8
  call void @llvm.dbg.declare(metadata ptr %5, metadata !3550, metadata !DIExpression()), !dbg !3551
  store ptr %1, ptr %6, align 8
  call void @llvm.dbg.declare(metadata ptr %6, metadata !3552, metadata !DIExpression()), !dbg !3553
  store ptr %2, ptr %7, align 8
  call void @llvm.dbg.declare(metadata ptr %7, metadata !3554, metadata !DIExpression()), !dbg !3555
  store ptr %3, ptr %8, align 8
  call void @llvm.dbg.declare(metadata ptr %8, metadata !3556, metadata !DIExpression()), !dbg !3555
  %9 = load ptr, ptr %5, align 8
  %10 = load ptr, ptr %6, align 8, !dbg !3557
  %11 = load ptr, ptr %7, align 8, !dbg !3558
  %12 = load i64, ptr %11, align 8, !dbg !3559
  %13 = load ptr, ptr %8, align 8, !dbg !3558
  %14 = load i64, ptr %13, align 8, !dbg !3559
  call void @_ZN11StringTokenC2Emm(ptr noundef nonnull align 8 dereferenceable(16) %10, i64 noundef %12, i64 noundef %14), !dbg !3560
  ret void, !dbg !3561
}

; Function Attrs: noinline nounwind uwtable
define linkonce_odr dso_local void @_ZN11StringTokenC2Emm(ptr noundef nonnull align 8 dereferenceable(16) %0, i64 noundef %1, i64 noundef %2) unnamed_addr #4 comdat align 2 !dbg !3562 {
  %4 = alloca ptr, align 8
  %5 = alloca i64, align 8
  %6 = alloca i64, align 8
  store ptr %0, ptr %4, align 8
  call void @llvm.dbg.declare(metadata ptr %4, metadata !3563, metadata !DIExpression()), !dbg !3564
  store i64 %1, ptr %5, align 8
  call void @llvm.dbg.declare(metadata ptr %5, metadata !3565, metadata !DIExpression()), !dbg !3566
  store i64 %2, ptr %6, align 8
  call void @llvm.dbg.declare(metadata ptr %6, metadata !3567, metadata !DIExpression()), !dbg !3568
  %7 = load ptr, ptr %4, align 8
  %8 = getelementptr inbounds %struct.StringToken, ptr %7, i32 0, i32 0, !dbg !3569
  %9 = load i64, ptr %5, align 8, !dbg !3570
  store i64 %9, ptr %8, align 8, !dbg !3569
  %10 = getelementptr inbounds %struct.StringToken, ptr %7, i32 0, i32 1, !dbg !3571
  %11 = load i64, ptr %6, align 8, !dbg !3572
  store i64 %11, ptr %10, align 8, !dbg !3571
  ret void, !dbg !3573
}

; Function Attrs: mustprogress noinline uwtable
define linkonce_odr dso_local noundef i64 @_ZNKSt6vectorI11StringTokenSaIS0_EE12_M_check_lenEmPKc(ptr noundef nonnull align 8 dereferenceable(24) %0, i64 noundef %1, ptr noundef %2) #0 comdat align 2 !dbg !3574 {
  %4 = alloca ptr, align 8
  %5 = alloca i64, align 8
  %6 = alloca ptr, align 8
  %7 = alloca i64, align 8
  %8 = alloca i64, align 8
  store ptr %0, ptr %4, align 8
  call void @llvm.dbg.declare(metadata ptr %4, metadata !3575, metadata !DIExpression()), !dbg !3576
  store i64 %1, ptr %5, align 8
  call void @llvm.dbg.declare(metadata ptr %5, metadata !3577, metadata !DIExpression()), !dbg !3578
  store ptr %2, ptr %6, align 8
  call void @llvm.dbg.declare(metadata ptr %6, metadata !3579, metadata !DIExpression()), !dbg !3580
  %9 = load ptr, ptr %4, align 8
  %10 = call noundef i64 @_ZNKSt6vectorI11StringTokenSaIS0_EE8max_sizeEv(ptr noundef nonnull align 8 dereferenceable(24) %9) #14, !dbg !3581
  %11 = call noundef i64 @_ZNKSt6vectorI11StringTokenSaIS0_EE4sizeEv(ptr noundef nonnull align 8 dereferenceable(24) %9) #14, !dbg !3583
  %12 = sub i64 %10, %11, !dbg !3584
  %13 = load i64, ptr %5, align 8, !dbg !3585
  %14 = icmp ult i64 %12, %13, !dbg !3586
  br i1 %14, label %15, label %17, !dbg !3587

15:                                               ; preds = %3
  %16 = load ptr, ptr %6, align 8, !dbg !3588
  call void @_ZSt20__throw_length_errorPKc(ptr noundef %16) #16, !dbg !3589
  unreachable, !dbg !3589

17:                                               ; preds = %3
  call void @llvm.dbg.declare(metadata ptr %7, metadata !3590, metadata !DIExpression()), !dbg !3591
  %18 = call noundef i64 @_ZNKSt6vectorI11StringTokenSaIS0_EE4sizeEv(ptr noundef nonnull align 8 dereferenceable(24) %9) #14, !dbg !3592
  %19 = call noundef i64 @_ZNKSt6vectorI11StringTokenSaIS0_EE4sizeEv(ptr noundef nonnull align 8 dereferenceable(24) %9) #14, !dbg !3593
  store i64 %19, ptr %8, align 8, !dbg !3593
  %20 = call noundef nonnull align 8 dereferenceable(8) ptr @_ZSt3maxImERKT_S2_S2_(ptr noundef nonnull align 8 dereferenceable(8) %8, ptr noundef nonnull align 8 dereferenceable(8) %5), !dbg !3594
  %21 = load i64, ptr %20, align 8, !dbg !3594
  %22 = add i64 %18, %21, !dbg !3595
  store i64 %22, ptr %7, align 8, !dbg !3591
  %23 = load i64, ptr %7, align 8, !dbg !3596
  %24 = call noundef i64 @_ZNKSt6vectorI11StringTokenSaIS0_EE4sizeEv(ptr noundef nonnull align 8 dereferenceable(24) %9) #14, !dbg !3597
  %25 = icmp ult i64 %23, %24, !dbg !3598
  br i1 %25, label %30, label %26, !dbg !3599

26:                                               ; preds = %17
  %27 = load i64, ptr %7, align 8, !dbg !3600
  %28 = call noundef i64 @_ZNKSt6vectorI11StringTokenSaIS0_EE8max_sizeEv(ptr noundef nonnull align 8 dereferenceable(24) %9) #14, !dbg !3601
  %29 = icmp ugt i64 %27, %28, !dbg !3602
  br i1 %29, label %30, label %32, !dbg !3603

30:                                               ; preds = %26, %17
  %31 = call noundef i64 @_ZNKSt6vectorI11StringTokenSaIS0_EE8max_sizeEv(ptr noundef nonnull align 8 dereferenceable(24) %9) #14, !dbg !3604
  br label %34, !dbg !3603

32:                                               ; preds = %26
  %33 = load i64, ptr %7, align 8, !dbg !3605
  br label %34, !dbg !3603

34:                                               ; preds = %32, %30
  %35 = phi i64 [ %31, %30 ], [ %33, %32 ], !dbg !3603
  ret i64 %35, !dbg !3606
}

; Function Attrs: mustprogress noinline nounwind uwtable
define linkonce_odr dso_local noundef i64 @_ZN9__gnu_cxxmiIP11StringTokenSt6vectorIS1_SaIS1_EEEENS_17__normal_iteratorIT_T0_E15difference_typeERKS9_SC_(ptr noundef nonnull align 8 dereferenceable(8) %0, ptr noundef nonnull align 8 dereferenceable(8) %1) #3 comdat !dbg !3607 {
  %3 = alloca ptr, align 8
  %4 = alloca ptr, align 8
  store ptr %0, ptr %3, align 8
  call void @llvm.dbg.declare(metadata ptr %3, metadata !3611, metadata !DIExpression()), !dbg !3612
  store ptr %1, ptr %4, align 8
  call void @llvm.dbg.declare(metadata ptr %4, metadata !3613, metadata !DIExpression()), !dbg !3614
  %5 = load ptr, ptr %3, align 8, !dbg !3615
  %6 = call noundef nonnull align 8 dereferenceable(8) ptr @_ZNK9__gnu_cxx17__normal_iteratorIP11StringTokenSt6vectorIS1_SaIS1_EEE4baseEv(ptr noundef nonnull align 8 dereferenceable(8) %5) #14, !dbg !3616
  %7 = load ptr, ptr %6, align 8, !dbg !3616
  %8 = load ptr, ptr %4, align 8, !dbg !3617
  %9 = call noundef nonnull align 8 dereferenceable(8) ptr @_ZNK9__gnu_cxx17__normal_iteratorIP11StringTokenSt6vectorIS1_SaIS1_EEE4baseEv(ptr noundef nonnull align 8 dereferenceable(8) %8) #14, !dbg !3618
  %10 = load ptr, ptr %9, align 8, !dbg !3618
  %11 = ptrtoint ptr %7 to i64, !dbg !3619
  %12 = ptrtoint ptr %10 to i64, !dbg !3619
  %13 = sub i64 %11, %12, !dbg !3619
  %14 = sdiv exact i64 %13, 16, !dbg !3619
  ret i64 %14, !dbg !3620
}

; Function Attrs: mustprogress noinline nounwind uwtable
define linkonce_odr dso_local ptr @_ZNSt6vectorI11StringTokenSaIS0_EE5beginEv(ptr noundef nonnull align 8 dereferenceable(24) %0) #3 comdat align 2 !dbg !3621 {
  %2 = alloca %"class.__gnu_cxx::__normal_iterator", align 8
  %3 = alloca ptr, align 8
  store ptr %0, ptr %3, align 8
  call void @llvm.dbg.declare(metadata ptr %3, metadata !3622, metadata !DIExpression()), !dbg !3623
  %4 = load ptr, ptr %3, align 8
  %5 = getelementptr inbounds %"struct.std::_Vector_base", ptr %4, i32 0, i32 0, !dbg !3624
  %6 = getelementptr inbounds %"struct.std::_Vector_base<StringToken, std::allocator<StringToken>>::_Vector_impl_data", ptr %5, i32 0, i32 0, !dbg !3625
  call void @_ZN9__gnu_cxx17__normal_iteratorIP11StringTokenSt6vectorIS1_SaIS1_EEEC2ERKS2_(ptr noundef nonnull align 8 dereferenceable(8) %2, ptr noundef nonnull align 8 dereferenceable(8) %6) #14, !dbg !3626
  %7 = getelementptr inbounds %"class.__gnu_cxx::__normal_iterator", ptr %2, i32 0, i32 0, !dbg !3627
  %8 = load ptr, ptr %7, align 8, !dbg !3627
  ret ptr %8, !dbg !3627
}

; Function Attrs: mustprogress noinline nounwind uwtable
define linkonce_odr dso_local noundef nonnull align 8 dereferenceable(8) ptr @_ZNK9__gnu_cxx17__normal_iteratorIP11StringTokenSt6vectorIS1_SaIS1_EEE4baseEv(ptr noundef nonnull align 8 dereferenceable(8) %0) #3 comdat align 2 !dbg !3628 {
  %2 = alloca ptr, align 8
  store ptr %0, ptr %2, align 8
  call void @llvm.dbg.declare(metadata ptr %2, metadata !3629, metadata !DIExpression()), !dbg !3631
  %3 = load ptr, ptr %2, align 8
  %4 = getelementptr inbounds %"class.__gnu_cxx::__normal_iterator", ptr %3, i32 0, i32 0, !dbg !3632
  ret ptr %4, !dbg !3633
}

; Function Attrs: mustprogress noinline nounwind uwtable
define linkonce_odr dso_local void @_ZNSt16allocator_traitsISaI11StringTokenEE7destroyIS0_EEvRS1_PT_(ptr noundef nonnull align 1 dereferenceable(1) %0, ptr noundef %1) #3 comdat align 2 !dbg !3634 {
  %3 = alloca ptr, align 8
  %4 = alloca ptr, align 8
  store ptr %0, ptr %3, align 8
  call void @llvm.dbg.declare(metadata ptr %3, metadata !3639, metadata !DIExpression()), !dbg !3640
  store ptr %1, ptr %4, align 8
  call void @llvm.dbg.declare(metadata ptr %4, metadata !3641, metadata !DIExpression()), !dbg !3642
  %5 = load ptr, ptr %3, align 8, !dbg !3643
  %6 = load ptr, ptr %4, align 8, !dbg !3644
  call void @_ZN9__gnu_cxx13new_allocatorI11StringTokenE7destroyIS1_EEvPT_(ptr noundef nonnull align 1 dereferenceable(1) %5, ptr noundef %6) #14, !dbg !3645
  ret void, !dbg !3646
}

; Function Attrs: mustprogress noinline uwtable
define linkonce_odr dso_local void @_ZSt8_DestroyIP11StringTokenS0_EvT_S2_RSaIT0_E(ptr noundef %0, ptr noundef %1, ptr noundef nonnull align 1 dereferenceable(1) %2) #0 comdat !dbg !3647 {
  %4 = alloca ptr, align 8
  %5 = alloca ptr, align 8
  %6 = alloca ptr, align 8
  store ptr %0, ptr %4, align 8
  call void @llvm.dbg.declare(metadata ptr %4, metadata !3651, metadata !DIExpression()), !dbg !3652
  store ptr %1, ptr %5, align 8
  call void @llvm.dbg.declare(metadata ptr %5, metadata !3653, metadata !DIExpression()), !dbg !3654
  store ptr %2, ptr %6, align 8
  call void @llvm.dbg.declare(metadata ptr %6, metadata !3655, metadata !DIExpression()), !dbg !3656
  %7 = load ptr, ptr %4, align 8, !dbg !3657
  %8 = load ptr, ptr %5, align 8, !dbg !3658
  call void @_ZSt8_DestroyIP11StringTokenEvT_S2_(ptr noundef %7, ptr noundef %8), !dbg !3659
  ret void, !dbg !3660
}

declare void @__cxa_rethrow()

declare void @__cxa_end_catch()

; Function Attrs: mustprogress noinline nounwind uwtable
define linkonce_odr dso_local noundef nonnull align 8 dereferenceable(8) ptr @_ZSt3maxImERKT_S2_S2_(ptr noundef nonnull align 8 dereferenceable(8) %0, ptr noundef nonnull align 8 dereferenceable(8) %1) #3 comdat !dbg !3661 {
  %3 = alloca ptr, align 8
  %4 = alloca ptr, align 8
  %5 = alloca ptr, align 8
  store ptr %0, ptr %4, align 8
  call void @llvm.dbg.declare(metadata ptr %4, metadata !3662, metadata !DIExpression()), !dbg !3664
  store ptr %1, ptr %5, align 8
  call void @llvm.dbg.declare(metadata ptr %5, metadata !3665, metadata !DIExpression()), !dbg !3666
  %6 = load ptr, ptr %4, align 8, !dbg !3667
  %7 = load i64, ptr %6, align 8, !dbg !3667
  %8 = load ptr, ptr %5, align 8, !dbg !3669
  %9 = load i64, ptr %8, align 8, !dbg !3669
  %10 = icmp ult i64 %7, %9, !dbg !3670
  br i1 %10, label %11, label %13, !dbg !3671

11:                                               ; preds = %2
  %12 = load ptr, ptr %5, align 8, !dbg !3672
  store ptr %12, ptr %3, align 8, !dbg !3673
  br label %15, !dbg !3673

13:                                               ; preds = %2
  %14 = load ptr, ptr %4, align 8, !dbg !3674
  store ptr %14, ptr %3, align 8, !dbg !3675
  br label %15, !dbg !3675

15:                                               ; preds = %13, %11
  %16 = load ptr, ptr %3, align 8, !dbg !3676
  ret ptr %16, !dbg !3676
}

; Function Attrs: noinline nounwind uwtable
define linkonce_odr dso_local void @_ZN9__gnu_cxx17__normal_iteratorIP11StringTokenSt6vectorIS1_SaIS1_EEEC2ERKS2_(ptr noundef nonnull align 8 dereferenceable(8) %0, ptr noundef nonnull align 8 dereferenceable(8) %1) unnamed_addr #4 comdat align 2 !dbg !3677 {
  %3 = alloca ptr, align 8
  %4 = alloca ptr, align 8
  store ptr %0, ptr %3, align 8
  call void @llvm.dbg.declare(metadata ptr %3, metadata !3678, metadata !DIExpression()), !dbg !3680
  store ptr %1, ptr %4, align 8
  call void @llvm.dbg.declare(metadata ptr %4, metadata !3681, metadata !DIExpression()), !dbg !3682
  %5 = load ptr, ptr %3, align 8
  %6 = getelementptr inbounds %"class.__gnu_cxx::__normal_iterator", ptr %5, i32 0, i32 0, !dbg !3683
  %7 = load ptr, ptr %4, align 8, !dbg !3684
  %8 = load ptr, ptr %7, align 8, !dbg !3684
  store ptr %8, ptr %6, align 8, !dbg !3683
  ret void, !dbg !3685
}

; Function Attrs: mustprogress noinline nounwind uwtable
define linkonce_odr dso_local void @_ZN9__gnu_cxx13new_allocatorI11StringTokenE7destroyIS1_EEvPT_(ptr noundef nonnull align 1 dereferenceable(1) %0, ptr noundef %1) #3 comdat align 2 !dbg !3686 {
  %3 = alloca ptr, align 8
  %4 = alloca ptr, align 8
  store ptr %0, ptr %3, align 8
  call void @llvm.dbg.declare(metadata ptr %3, metadata !3690, metadata !DIExpression()), !dbg !3691
  store ptr %1, ptr %4, align 8
  call void @llvm.dbg.declare(metadata ptr %4, metadata !3692, metadata !DIExpression()), !dbg !3693
  %5 = load ptr, ptr %3, align 8
  %6 = load ptr, ptr %4, align 8, !dbg !3694
  ret void, !dbg !3695
}

; Function Attrs: mustprogress noinline uwtable
define linkonce_odr dso_local void @_ZSt8_DestroyIP11StringTokenEvT_S2_(ptr noundef %0, ptr noundef %1) #0 comdat !dbg !3696 {
  %3 = alloca ptr, align 8
  %4 = alloca ptr, align 8
  store ptr %0, ptr %3, align 8
  call void @llvm.dbg.declare(metadata ptr %3, metadata !3701, metadata !DIExpression()), !dbg !3702
  store ptr %1, ptr %4, align 8
  call void @llvm.dbg.declare(metadata ptr %4, metadata !3703, metadata !DIExpression()), !dbg !3704
  %5 = load ptr, ptr %3, align 8, !dbg !3705
  %6 = load ptr, ptr %4, align 8, !dbg !3706
  call void @_ZNSt12_Destroy_auxILb1EE9__destroyIP11StringTokenEEvT_S4_(ptr noundef %5, ptr noundef %6), !dbg !3707
  ret void, !dbg !3708
}

; Function Attrs: mustprogress noinline nounwind uwtable
define linkonce_odr dso_local void @_ZNSt12_Destroy_auxILb1EE9__destroyIP11StringTokenEEvT_S4_(ptr noundef %0, ptr noundef %1) #3 comdat align 2 !dbg !3709 {
  %3 = alloca ptr, align 8
  %4 = alloca ptr, align 8
  store ptr %0, ptr %3, align 8
  call void @llvm.dbg.declare(metadata ptr %3, metadata !3713, metadata !DIExpression()), !dbg !3714
  store ptr %1, ptr %4, align 8
  call void @llvm.dbg.declare(metadata ptr %4, metadata !3715, metadata !DIExpression()), !dbg !3716
  ret void, !dbg !3717
}

; Function Attrs: mustprogress noinline nounwind uwtable
define linkonce_odr dso_local ptr @_ZNK9__gnu_cxx17__normal_iteratorIP11StringTokenSt6vectorIS1_SaIS1_EEEmiEl(ptr noundef nonnull align 8 dereferenceable(8) %0, i64 noundef %1) #3 comdat align 2 !dbg !3718 {
  %3 = alloca %"class.__gnu_cxx::__normal_iterator", align 8
  %4 = alloca ptr, align 8
  %5 = alloca i64, align 8
  %6 = alloca ptr, align 8
  store ptr %0, ptr %4, align 8
  call void @llvm.dbg.declare(metadata ptr %4, metadata !3719, metadata !DIExpression()), !dbg !3720
  store i64 %1, ptr %5, align 8
  call void @llvm.dbg.declare(metadata ptr %5, metadata !3721, metadata !DIExpression()), !dbg !3722
  %7 = load ptr, ptr %4, align 8
  %8 = getelementptr inbounds %"class.__gnu_cxx::__normal_iterator", ptr %7, i32 0, i32 0, !dbg !3723
  %9 = load ptr, ptr %8, align 8, !dbg !3723
  %10 = load i64, ptr %5, align 8, !dbg !3724
  %11 = sub i64 0, %10, !dbg !3725
  %12 = getelementptr inbounds %struct.StringToken, ptr %9, i64 %11, !dbg !3725
  store ptr %12, ptr %6, align 8, !dbg !3723
  call void @_ZN9__gnu_cxx17__normal_iteratorIP11StringTokenSt6vectorIS1_SaIS1_EEEC2ERKS2_(ptr noundef nonnull align 8 dereferenceable(8) %3, ptr noundef nonnull align 8 dereferenceable(8) %6) #14, !dbg !3726
  %13 = getelementptr inbounds %"class.__gnu_cxx::__normal_iterator", ptr %3, i32 0, i32 0, !dbg !3727
  %14 = load ptr, ptr %13, align 8, !dbg !3727
  ret ptr %14, !dbg !3727
}

; Function Attrs: mustprogress noinline nounwind uwtable
define linkonce_odr dso_local noundef nonnull align 8 dereferenceable(16) ptr @_ZNK9__gnu_cxx17__normal_iteratorIP11StringTokenSt6vectorIS1_SaIS1_EEEdeEv(ptr noundef nonnull align 8 dereferenceable(8) %0) #3 comdat align 2 !dbg !3728 {
  %2 = alloca ptr, align 8
  store ptr %0, ptr %2, align 8
  call void @llvm.dbg.declare(metadata ptr %2, metadata !3729, metadata !DIExpression()), !dbg !3730
  %3 = load ptr, ptr %2, align 8
  %4 = getelementptr inbounds %"class.__gnu_cxx::__normal_iterator", ptr %3, i32 0, i32 0, !dbg !3731
  %5 = load ptr, ptr %4, align 8, !dbg !3731
  ret ptr %5, !dbg !3732
}

; Function Attrs: noinline nounwind uwtable
define linkonce_odr dso_local void @_ZNSt12_Vector_baseI11StringTokenSaIS0_EEC2EOS2_(ptr noundef nonnull align 8 dereferenceable(24) %0, ptr noundef nonnull align 8 dereferenceable(24) %1) unnamed_addr #4 comdat align 2 !dbg !3733 {
  %3 = alloca ptr, align 8
  %4 = alloca ptr, align 8
  store ptr %0, ptr %3, align 8
  call void @llvm.dbg.declare(metadata ptr %3, metadata !3734, metadata !DIExpression()), !dbg !3735
  store ptr %1, ptr %4, align 8
  call void @llvm.dbg.declare(metadata ptr %4, metadata !3736, metadata !DIExpression()), !dbg !3737
  %5 = load ptr, ptr %3, align 8
  %6 = getelementptr inbounds %"struct.std::_Vector_base", ptr %5, i32 0, i32 0, !dbg !3738
  %7 = load ptr, ptr %4, align 8, !dbg !3738
  %8 = getelementptr inbounds %"struct.std::_Vector_base", ptr %7, i32 0, i32 0, !dbg !3738
  call void @_ZNSt12_Vector_baseI11StringTokenSaIS0_EE12_Vector_implC2EOS3_(ptr noundef nonnull align 8 dereferenceable(24) %6, ptr noundef nonnull align 8 dereferenceable(24) %8) #14, !dbg !3738
  ret void, !dbg !3739
}

; Function Attrs: noinline nounwind uwtable
define linkonce_odr dso_local void @_ZNSt12_Vector_baseI11StringTokenSaIS0_EE12_Vector_implC2EOS3_(ptr noundef nonnull align 8 dereferenceable(24) %0, ptr noundef nonnull align 8 dereferenceable(24) %1) unnamed_addr #4 comdat align 2 !dbg !3740 {
  %3 = alloca ptr, align 8
  %4 = alloca ptr, align 8
  store ptr %0, ptr %3, align 8
  call void @llvm.dbg.declare(metadata ptr %3, metadata !3741, metadata !DIExpression()), !dbg !3742
  store ptr %1, ptr %4, align 8
  call void @llvm.dbg.declare(metadata ptr %4, metadata !3743, metadata !DIExpression()), !dbg !3744
  %5 = load ptr, ptr %3, align 8
  %6 = load ptr, ptr %4, align 8, !dbg !3745
  call void @_ZNSaI11StringTokenEC2ERKS0_(ptr noundef nonnull align 1 dereferenceable(1) %5, ptr noundef nonnull align 1 dereferenceable(1) %6) #14, !dbg !3746
  %7 = load ptr, ptr %4, align 8, !dbg !3747
  call void @_ZNSt12_Vector_baseI11StringTokenSaIS0_EE17_Vector_impl_dataC2EOS3_(ptr noundef nonnull align 8 dereferenceable(24) %5, ptr noundef nonnull align 8 dereferenceable(24) %7) #14, !dbg !3748
  ret void, !dbg !3749
}

; Function Attrs: noinline nounwind uwtable
define linkonce_odr dso_local void @_ZNSt12_Vector_baseI11StringTokenSaIS0_EE17_Vector_impl_dataC2EOS3_(ptr noundef nonnull align 8 dereferenceable(24) %0, ptr noundef nonnull align 8 dereferenceable(24) %1) unnamed_addr #4 comdat align 2 !dbg !3750 {
  %3 = alloca ptr, align 8
  %4 = alloca ptr, align 8
  store ptr %0, ptr %3, align 8
  call void @llvm.dbg.declare(metadata ptr %3, metadata !3751, metadata !DIExpression()), !dbg !3753
  store ptr %1, ptr %4, align 8
  call void @llvm.dbg.declare(metadata ptr %4, metadata !3754, metadata !DIExpression()), !dbg !3755
  %5 = load ptr, ptr %3, align 8
  %6 = getelementptr inbounds %"struct.std::_Vector_base<StringToken, std::allocator<StringToken>>::_Vector_impl_data", ptr %5, i32 0, i32 0, !dbg !3756
  %7 = load ptr, ptr %4, align 8, !dbg !3757
  %8 = getelementptr inbounds %"struct.std::_Vector_base<StringToken, std::allocator<StringToken>>::_Vector_impl_data", ptr %7, i32 0, i32 0, !dbg !3758
  %9 = load ptr, ptr %8, align 8, !dbg !3758
  store ptr %9, ptr %6, align 8, !dbg !3756
  %10 = getelementptr inbounds %"struct.std::_Vector_base<StringToken, std::allocator<StringToken>>::_Vector_impl_data", ptr %5, i32 0, i32 1, !dbg !3759
  %11 = load ptr, ptr %4, align 8, !dbg !3760
  %12 = getelementptr inbounds %"struct.std::_Vector_base<StringToken, std::allocator<StringToken>>::_Vector_impl_data", ptr %11, i32 0, i32 1, !dbg !3761
  %13 = load ptr, ptr %12, align 8, !dbg !3761
  store ptr %13, ptr %10, align 8, !dbg !3759
  %14 = getelementptr inbounds %"struct.std::_Vector_base<StringToken, std::allocator<StringToken>>::_Vector_impl_data", ptr %5, i32 0, i32 2, !dbg !3762
  %15 = load ptr, ptr %4, align 8, !dbg !3763
  %16 = getelementptr inbounds %"struct.std::_Vector_base<StringToken, std::allocator<StringToken>>::_Vector_impl_data", ptr %15, i32 0, i32 2, !dbg !3764
  %17 = load ptr, ptr %16, align 8, !dbg !3764
  store ptr %17, ptr %14, align 8, !dbg !3762
  %18 = load ptr, ptr %4, align 8, !dbg !3765
  %19 = getelementptr inbounds %"struct.std::_Vector_base<StringToken, std::allocator<StringToken>>::_Vector_impl_data", ptr %18, i32 0, i32 2, !dbg !3767
  store ptr null, ptr %19, align 8, !dbg !3768
  %20 = load ptr, ptr %4, align 8, !dbg !3769
  %21 = getelementptr inbounds %"struct.std::_Vector_base<StringToken, std::allocator<StringToken>>::_Vector_impl_data", ptr %20, i32 0, i32 1, !dbg !3770
  store ptr null, ptr %21, align 8, !dbg !3771
  %22 = load ptr, ptr %4, align 8, !dbg !3772
  %23 = getelementptr inbounds %"struct.std::_Vector_base<StringToken, std::allocator<StringToken>>::_Vector_impl_data", ptr %22, i32 0, i32 0, !dbg !3773
  store ptr null, ptr %23, align 8, !dbg !3774
  ret void, !dbg !3775
}

; Function Attrs: noinline nounwind uwtable
define linkonce_odr dso_local void @_ZN9__gnu_cxx13new_allocatorI11StringTokenEC2ERKS2_(ptr noundef nonnull align 1 dereferenceable(1) %0, ptr noundef nonnull align 1 dereferenceable(1) %1) unnamed_addr #4 comdat align 2 !dbg !3776 {
  %3 = alloca ptr, align 8
  %4 = alloca ptr, align 8
  store ptr %0, ptr %3, align 8
  call void @llvm.dbg.declare(metadata ptr %3, metadata !3777, metadata !DIExpression()), !dbg !3778
  store ptr %1, ptr %4, align 8
  call void @llvm.dbg.declare(metadata ptr %4, metadata !3779, metadata !DIExpression()), !dbg !3780
  %5 = load ptr, ptr %3, align 8
  ret void, !dbg !3781
}

; Function Attrs: nounwind
declare void @_ZNSt7__cxx1112basic_stringIcSt11char_traitsIcESaIcEEC1EOS4_(ptr noundef nonnull align 8 dereferenceable(32), ptr noundef nonnull align 8 dereferenceable(32)) unnamed_addr #2

; Function Attrs: noinline nounwind uwtable
define linkonce_odr dso_local void @_ZNSt12_Vector_baseI11StringTokenSaIS0_EED2Ev(ptr noundef nonnull align 8 dereferenceable(24) %0) unnamed_addr #4 comdat align 2 personality ptr @__gxx_personality_v0 !dbg !3782 {
  %2 = alloca ptr, align 8
  store ptr %0, ptr %2, align 8
  call void @llvm.dbg.declare(metadata ptr %2, metadata !3783, metadata !DIExpression()), !dbg !3784
  %3 = load ptr, ptr %2, align 8
  %4 = getelementptr inbounds %"struct.std::_Vector_base", ptr %3, i32 0, i32 0, !dbg !3785
  %5 = getelementptr inbounds %"struct.std::_Vector_base<StringToken, std::allocator<StringToken>>::_Vector_impl_data", ptr %4, i32 0, i32 0, !dbg !3787
  %6 = load ptr, ptr %5, align 8, !dbg !3787
  %7 = getelementptr inbounds %"struct.std::_Vector_base", ptr %3, i32 0, i32 0, !dbg !3788
  %8 = getelementptr inbounds %"struct.std::_Vector_base<StringToken, std::allocator<StringToken>>::_Vector_impl_data", ptr %7, i32 0, i32 2, !dbg !3789
  %9 = load ptr, ptr %8, align 8, !dbg !3789
  %10 = getelementptr inbounds %"struct.std::_Vector_base", ptr %3, i32 0, i32 0, !dbg !3790
  %11 = getelementptr inbounds %"struct.std::_Vector_base<StringToken, std::allocator<StringToken>>::_Vector_impl_data", ptr %10, i32 0, i32 0, !dbg !3791
  %12 = load ptr, ptr %11, align 8, !dbg !3791
  %13 = ptrtoint ptr %9 to i64, !dbg !3792
  %14 = ptrtoint ptr %12 to i64, !dbg !3792
  %15 = sub i64 %13, %14, !dbg !3792
  %16 = sdiv exact i64 %15, 16, !dbg !3792
  invoke void @_ZNSt12_Vector_baseI11StringTokenSaIS0_EE13_M_deallocateEPS0_m(ptr noundef nonnull align 8 dereferenceable(24) %3, ptr noundef %6, i64 noundef %16)
          to label %17 unwind label %19, !dbg !3793

17:                                               ; preds = %1
  %18 = getelementptr inbounds %"struct.std::_Vector_base", ptr %3, i32 0, i32 0, !dbg !3794
  call void @_ZNSt12_Vector_baseI11StringTokenSaIS0_EE12_Vector_implD2Ev(ptr noundef nonnull align 8 dereferenceable(24) %18) #14, !dbg !3794
  ret void, !dbg !3795

19:                                               ; preds = %1
  %20 = landingpad { ptr, i32 }
          catch ptr null, !dbg !3793
  %21 = extractvalue { ptr, i32 } %20, 0, !dbg !3793
  call void @__clang_call_terminate(ptr %21) #15, !dbg !3793
  unreachable, !dbg !3793
}

; Function Attrs: noinline nounwind uwtable
define linkonce_odr dso_local void @_ZNSt12_Vector_baseI11StringTokenSaIS0_EE12_Vector_implD2Ev(ptr noundef nonnull align 8 dereferenceable(24) %0) unnamed_addr #4 comdat align 2 !dbg !3796 {
  %2 = alloca ptr, align 8
  store ptr %0, ptr %2, align 8
  call void @llvm.dbg.declare(metadata ptr %2, metadata !3798, metadata !DIExpression()), !dbg !3799
  %3 = load ptr, ptr %2, align 8
  call void @_ZNSaI11StringTokenED2Ev(ptr noundef nonnull align 1 dereferenceable(1) %3) #14, !dbg !3800
  ret void, !dbg !3802
}

; Function Attrs: noinline nounwind uwtable
define linkonce_odr dso_local void @_ZN9__gnu_cxx13new_allocatorI11StringTokenED2Ev(ptr noundef nonnull align 1 dereferenceable(1) %0) unnamed_addr #4 comdat align 2 !dbg !3803 {
  %2 = alloca ptr, align 8
  store ptr %0, ptr %2, align 8
  call void @llvm.dbg.declare(metadata ptr %2, metadata !3804, metadata !DIExpression()), !dbg !3805
  %3 = load ptr, ptr %2, align 8
  ret void, !dbg !3806
}

; Function Attrs: mustprogress noinline uwtable
define linkonce_odr dso_local noundef i32 @_ZN9__gnu_cxx6__stoaIlicJiEEET0_PFT_PKT1_PPS3_DpT2_EPKcS5_PmS9_(ptr noundef %0, ptr noundef %1, ptr noundef %2, ptr noundef %3, i32 noundef %4) #0 comdat personality ptr @__gxx_personality_v0 !dbg !1181 {
  %6 = alloca ptr, align 8
  %7 = alloca ptr, align 8
  %8 = alloca ptr, align 8
  %9 = alloca ptr, align 8
  %10 = alloca i32, align 4
  %11 = alloca i32, align 4
  %12 = alloca ptr, align 8
  %13 = alloca %struct._Save_errno, align 4
  %14 = alloca i64, align 8
  %15 = alloca ptr, align 8
  %16 = alloca i32, align 4
  %17 = alloca %"struct.std::integral_constant", align 1
  %18 = alloca %"struct.std::is_same", align 1
  store ptr %0, ptr %6, align 8
  call void @llvm.dbg.declare(metadata ptr %6, metadata !3807, metadata !DIExpression()), !dbg !3808
  store ptr %1, ptr %7, align 8
  call void @llvm.dbg.declare(metadata ptr %7, metadata !3809, metadata !DIExpression()), !dbg !3810
  store ptr %2, ptr %8, align 8
  call void @llvm.dbg.declare(metadata ptr %8, metadata !3811, metadata !DIExpression()), !dbg !3812
  store ptr %3, ptr %9, align 8
  call void @llvm.dbg.declare(metadata ptr %9, metadata !3813, metadata !DIExpression()), !dbg !3814
  store i32 %4, ptr %10, align 4
  call void @llvm.dbg.declare(metadata ptr %10, metadata !3815, metadata !DIExpression()), !dbg !3816
  call void @llvm.dbg.declare(metadata ptr %11, metadata !3817, metadata !DIExpression()), !dbg !3818
  call void @llvm.dbg.declare(metadata ptr %12, metadata !3819, metadata !DIExpression()), !dbg !3820
  call void @llvm.dbg.declare(metadata ptr %13, metadata !3821, metadata !DIExpression()), !dbg !3823
  call void @_ZZN9__gnu_cxx6__stoaIlicJiEEET0_PFT_PKT1_PPS3_DpT2_EPKcS5_PmS9_EN11_Save_errnoC2Ev(ptr noundef nonnull align 4 dereferenceable(4) %13), !dbg !3823
  call void @llvm.dbg.declare(metadata ptr %14, metadata !3824, metadata !DIExpression()), !dbg !3826
  %19 = load ptr, ptr %6, align 8, !dbg !3827
  %20 = load ptr, ptr %8, align 8, !dbg !3828
  %21 = load i32, ptr %10, align 4, !dbg !3829
  %22 = invoke noundef i64 %19(ptr noundef %20, ptr noundef %12, i32 noundef %21)
          to label %23 unwind label %30, !dbg !3827

23:                                               ; preds = %5
  store i64 %22, ptr %14, align 8, !dbg !3826
  %24 = load ptr, ptr %12, align 8, !dbg !3830
  %25 = load ptr, ptr %8, align 8, !dbg !3832
  %26 = icmp eq ptr %24, %25, !dbg !3833
  br i1 %26, label %27, label %34, !dbg !3834

27:                                               ; preds = %23
  %28 = load ptr, ptr %7, align 8, !dbg !3835
  invoke void @_ZSt24__throw_invalid_argumentPKc(ptr noundef %28) #16
          to label %29 unwind label %30, !dbg !3836

29:                                               ; preds = %27
  unreachable, !dbg !3836

30:                                               ; preds = %44, %38, %27, %5
  %31 = landingpad { ptr, i32 }
          cleanup, !dbg !3837
  %32 = extractvalue { ptr, i32 } %31, 0, !dbg !3837
  store ptr %32, ptr %15, align 8, !dbg !3837
  %33 = extractvalue { ptr, i32 } %31, 1, !dbg !3837
  store i32 %33, ptr %16, align 4, !dbg !3837
  call void @_ZZN9__gnu_cxx6__stoaIlicJiEEET0_PFT_PKT1_PPS3_DpT2_EPKcS5_PmS9_EN11_Save_errnoD2Ev(ptr noundef nonnull align 4 dereferenceable(4) %13) #14, !dbg !3837
  br label %63, !dbg !3837

34:                                               ; preds = %23
  %35 = call ptr @__errno_location() #18, !dbg !3838
  %36 = load i32, ptr %35, align 4, !dbg !3838
  %37 = icmp eq i32 %36, 34, !dbg !3840
  br i1 %37, label %42, label %38, !dbg !3841

38:                                               ; preds = %34
  %39 = load i64, ptr %14, align 8, !dbg !3842
  %40 = invoke noundef zeroext i1 @_ZZN9__gnu_cxx6__stoaIlicJiEEET0_PFT_PKT1_PPS3_DpT2_EPKcS5_PmS9_EN10_Range_chk6_S_chkElSt17integral_constantIbLb1EE(i64 noundef %39)
          to label %41 unwind label %30, !dbg !3843

41:                                               ; preds = %38
  br label %42, !dbg !3841

42:                                               ; preds = %41, %34
  %43 = phi i1 [ true, %34 ], [ %40, %41 ]
  br i1 %43, label %44, label %47, !dbg !3844

44:                                               ; preds = %42
  %45 = load ptr, ptr %7, align 8, !dbg !3845
  invoke void @_ZSt20__throw_out_of_rangePKc(ptr noundef %45) #16
          to label %46 unwind label %30, !dbg !3846

46:                                               ; preds = %44
  unreachable, !dbg !3846

47:                                               ; preds = %42
  %48 = load i64, ptr %14, align 8, !dbg !3847
  %49 = trunc i64 %48 to i32, !dbg !3847
  store i32 %49, ptr %11, align 4, !dbg !3848
  br label %50

50:                                               ; preds = %47
  br label %51

51:                                               ; preds = %50
  %52 = load ptr, ptr %9, align 8, !dbg !3849
  %53 = icmp ne ptr %52, null, !dbg !3849
  br i1 %53, label %54, label %61, !dbg !3851

54:                                               ; preds = %51
  %55 = load ptr, ptr %12, align 8, !dbg !3852
  %56 = load ptr, ptr %8, align 8, !dbg !3853
  %57 = ptrtoint ptr %55 to i64, !dbg !3854
  %58 = ptrtoint ptr %56 to i64, !dbg !3854
  %59 = sub i64 %57, %58, !dbg !3854
  %60 = load ptr, ptr %9, align 8, !dbg !3855
  store i64 %59, ptr %60, align 8, !dbg !3856
  br label %61, !dbg !3857

61:                                               ; preds = %54, %51
  %62 = load i32, ptr %11, align 4, !dbg !3858
  call void @_ZZN9__gnu_cxx6__stoaIlicJiEEET0_PFT_PKT1_PPS3_DpT2_EPKcS5_PmS9_EN11_Save_errnoD2Ev(ptr noundef nonnull align 4 dereferenceable(4) %13) #14, !dbg !3837
  ret i32 %62, !dbg !3837

63:                                               ; preds = %30
  %64 = load ptr, ptr %15, align 8, !dbg !3837
  %65 = load i32, ptr %16, align 4, !dbg !3837
  %66 = insertvalue { ptr, i32 } poison, ptr %64, 0, !dbg !3837
  %67 = insertvalue { ptr, i32 } %66, i32 %65, 1, !dbg !3837
  resume { ptr, i32 } %67, !dbg !3837
}

; Function Attrs: nounwind
declare noundef ptr @_ZNKSt7__cxx1112basic_stringIcSt11char_traitsIcESaIcEE5c_strEv(ptr noundef nonnull align 8 dereferenceable(32)) #2

; Function Attrs: noinline nounwind uwtable
define linkonce_odr dso_local void @_ZZN9__gnu_cxx6__stoaIlicJiEEET0_PFT_PKT1_PPS3_DpT2_EPKcS5_PmS9_EN11_Save_errnoC2Ev(ptr noundef nonnull align 4 dereferenceable(4) %0) unnamed_addr #4 comdat align 2 !dbg !3859 {
  %2 = alloca ptr, align 8
  store ptr %0, ptr %2, align 8
  call void @llvm.dbg.declare(metadata ptr %2, metadata !3860, metadata !DIExpression()), !dbg !3862
  %3 = load ptr, ptr %2, align 8
  %4 = getelementptr inbounds %struct._Save_errno, ptr %3, i32 0, i32 0, !dbg !3863
  %5 = call ptr @__errno_location() #18, !dbg !3864
  %6 = load i32, ptr %5, align 4, !dbg !3864
  store i32 %6, ptr %4, align 4, !dbg !3863
  %7 = call ptr @__errno_location() #18, !dbg !3865
  store i32 0, ptr %7, align 4, !dbg !3867
  ret void, !dbg !3868
}

; Function Attrs: noreturn
declare void @_ZSt24__throw_invalid_argumentPKc(ptr noundef) #7

; Function Attrs: nounwind willreturn memory(none)
declare ptr @__errno_location() #12

; Function Attrs: mustprogress noinline nounwind uwtable
define linkonce_odr dso_local noundef zeroext i1 @_ZZN9__gnu_cxx6__stoaIlicJiEEET0_PFT_PKT1_PPS3_DpT2_EPKcS5_PmS9_EN10_Range_chk6_S_chkElSt17integral_constantIbLb1EE(i64 noundef %0) #3 comdat align 2 !dbg !3869 {
  %2 = alloca %"struct.std::integral_constant", align 1
  %3 = alloca i64, align 8
  store i64 %0, ptr %3, align 8
  call void @llvm.dbg.declare(metadata ptr %3, metadata !3878, metadata !DIExpression()), !dbg !3879
  call void @llvm.dbg.declare(metadata ptr %2, metadata !3880, metadata !DIExpression()), !dbg !3881
  %4 = load i64, ptr %3, align 8, !dbg !3882
  %5 = icmp slt i64 %4, -2147483648, !dbg !3883
  br i1 %5, label %9, label %6, !dbg !3884

6:                                                ; preds = %1
  %7 = load i64, ptr %3, align 8, !dbg !3885
  %8 = icmp sgt i64 %7, 2147483647, !dbg !3886
  br label %9, !dbg !3884

9:                                                ; preds = %6, %1
  %10 = phi i1 [ true, %1 ], [ %8, %6 ]
  ret i1 %10, !dbg !3887
}

; Function Attrs: noreturn
declare void @_ZSt20__throw_out_of_rangePKc(ptr noundef) #7

; Function Attrs: noinline nounwind uwtable
define linkonce_odr dso_local void @_ZZN9__gnu_cxx6__stoaIlicJiEEET0_PFT_PKT1_PPS3_DpT2_EPKcS5_PmS9_EN11_Save_errnoD2Ev(ptr noundef nonnull align 4 dereferenceable(4) %0) unnamed_addr #4 comdat align 2 !dbg !3888 {
  %2 = alloca ptr, align 8
  store ptr %0, ptr %2, align 8
  call void @llvm.dbg.declare(metadata ptr %2, metadata !3889, metadata !DIExpression()), !dbg !3890
  %3 = load ptr, ptr %2, align 8
  %4 = call ptr @__errno_location() #18, !dbg !3891
  %5 = load i32, ptr %4, align 4, !dbg !3891
  %6 = icmp eq i32 %5, 0, !dbg !3894
  br i1 %6, label %7, label %11, !dbg !3895

7:                                                ; preds = %1
  %8 = getelementptr inbounds %struct._Save_errno, ptr %3, i32 0, i32 0, !dbg !3896
  %9 = load i32, ptr %8, align 4, !dbg !3896
  %10 = call ptr @__errno_location() #18, !dbg !3897
  store i32 %9, ptr %10, align 4, !dbg !3898
  br label %11, !dbg !3897

11:                                               ; preds = %7, %1
  ret void, !dbg !3899
}

; Function Attrs: mustprogress noinline nounwind uwtable
define linkonce_odr dso_local noundef nonnull align 8 dereferenceable(16) ptr @_ZNKSt6vectorI11StringTokenSaIS0_EEixEm(ptr noundef nonnull align 8 dereferenceable(24) %0, i64 noundef %1) #3 comdat align 2 !dbg !3900 {
  %3 = alloca ptr, align 8
  %4 = alloca i64, align 8
  store ptr %0, ptr %3, align 8
  call void @llvm.dbg.declare(metadata ptr %3, metadata !3901, metadata !DIExpression()), !dbg !3902
  store i64 %1, ptr %4, align 8
  call void @llvm.dbg.declare(metadata ptr %4, metadata !3903, metadata !DIExpression()), !dbg !3904
  %5 = load ptr, ptr %3, align 8
  %6 = getelementptr inbounds %"struct.std::_Vector_base", ptr %5, i32 0, i32 0, !dbg !3905
  %7 = getelementptr inbounds %"struct.std::_Vector_base<StringToken, std::allocator<StringToken>>::_Vector_impl_data", ptr %6, i32 0, i32 0, !dbg !3906
  %8 = load ptr, ptr %7, align 8, !dbg !3906
  %9 = load i64, ptr %4, align 8, !dbg !3907
  %10 = getelementptr inbounds %struct.StringToken, ptr %8, i64 %9, !dbg !3908
  ret ptr %10, !dbg !3909
}

; Function Attrs: mustprogress noinline nounwind uwtable
define linkonce_odr dso_local noundef nonnull align 8 dereferenceable(24) ptr @_ZNSt6vectorI11StringTokenSaIS0_EEaSEOS2_(ptr noundef nonnull align 8 dereferenceable(24) %0, ptr noundef nonnull align 8 dereferenceable(24) %1) #3 comdat align 2 !dbg !3910 {
  %3 = alloca ptr, align 8
  %4 = alloca ptr, align 8
  %5 = alloca i8, align 1
  %6 = alloca %"struct.std::integral_constant", align 1
  store ptr %0, ptr %3, align 8
  call void @llvm.dbg.declare(metadata ptr %3, metadata !3911, metadata !DIExpression()), !dbg !3912
  store ptr %1, ptr %4, align 8
  call void @llvm.dbg.declare(metadata ptr %4, metadata !3913, metadata !DIExpression()), !dbg !3914
  %7 = load ptr, ptr %3, align 8
  call void @llvm.dbg.declare(metadata ptr %5, metadata !3915, metadata !DIExpression()), !dbg !3916
  store i8 1, ptr %5, align 1, !dbg !3916
  %8 = load ptr, ptr %4, align 8, !dbg !3917
  call void @_ZNSt6vectorI11StringTokenSaIS0_EE14_M_move_assignEOS2_St17integral_constantIbLb1EE(ptr noundef nonnull align 8 dereferenceable(24) %7, ptr noundef nonnull align 8 dereferenceable(24) %8) #14, !dbg !3918
  ret ptr %7, !dbg !3919
}

; Function Attrs: mustprogress noinline nounwind uwtable
define linkonce_odr dso_local void @_ZNSt6vectorI11StringTokenSaIS0_EE14_M_move_assignEOS2_St17integral_constantIbLb1EE(ptr noundef nonnull align 8 dereferenceable(24) %0, ptr noundef nonnull align 8 dereferenceable(24) %1) #3 comdat align 2 personality ptr @__gxx_personality_v0 !dbg !3920 {
  %3 = alloca %"struct.std::integral_constant", align 1
  %4 = alloca ptr, align 8
  %5 = alloca ptr, align 8
  %6 = alloca %"class.std::vector", align 8
  %7 = alloca %"class.std::allocator.4", align 1
  store ptr %0, ptr %4, align 8
  call void @llvm.dbg.declare(metadata ptr %4, metadata !3921, metadata !DIExpression()), !dbg !3922
  store ptr %1, ptr %5, align 8
  call void @llvm.dbg.declare(metadata ptr %5, metadata !3923, metadata !DIExpression()), !dbg !3924
  call void @llvm.dbg.declare(metadata ptr %3, metadata !3925, metadata !DIExpression()), !dbg !3926
  %8 = load ptr, ptr %4, align 8
  call void @llvm.dbg.declare(metadata ptr %6, metadata !3927, metadata !DIExpression()), !dbg !3928
  call void @_ZNKSt12_Vector_baseI11StringTokenSaIS0_EE13get_allocatorEv(ptr sret(%"class.std::allocator.4") align 1 %7, ptr noundef nonnull align 8 dereferenceable(24) %8) #14, !dbg !3929
  call void @_ZNSt6vectorI11StringTokenSaIS0_EEC2ERKS1_(ptr noundef nonnull align 8 dereferenceable(24) %6, ptr noundef nonnull align 1 dereferenceable(1) %7) #14, !dbg !3928
  call void @_ZNSaI11StringTokenED2Ev(ptr noundef nonnull align 1 dereferenceable(1) %7) #14, !dbg !3928
  %9 = getelementptr inbounds %"struct.std::_Vector_base", ptr %8, i32 0, i32 0, !dbg !3930
  %10 = load ptr, ptr %5, align 8, !dbg !3931
  %11 = getelementptr inbounds %"struct.std::_Vector_base", ptr %10, i32 0, i32 0, !dbg !3932
  call void @_ZNSt12_Vector_baseI11StringTokenSaIS0_EE17_Vector_impl_data12_M_swap_dataERS3_(ptr noundef nonnull align 8 dereferenceable(24) %9, ptr noundef nonnull align 8 dereferenceable(24) %11) #14, !dbg !3933
  %12 = getelementptr inbounds %"struct.std::_Vector_base", ptr %6, i32 0, i32 0, !dbg !3934
  %13 = load ptr, ptr %5, align 8, !dbg !3935
  %14 = getelementptr inbounds %"struct.std::_Vector_base", ptr %13, i32 0, i32 0, !dbg !3936
  call void @_ZNSt12_Vector_baseI11StringTokenSaIS0_EE17_Vector_impl_data12_M_swap_dataERS3_(ptr noundef nonnull align 8 dereferenceable(24) %12, ptr noundef nonnull align 8 dereferenceable(24) %14) #14, !dbg !3937
  %15 = call noundef nonnull align 1 dereferenceable(1) ptr @_ZNSt12_Vector_baseI11StringTokenSaIS0_EE19_M_get_Tp_allocatorEv(ptr noundef nonnull align 8 dereferenceable(24) %8) #14, !dbg !3938
  %16 = load ptr, ptr %5, align 8, !dbg !3939
  %17 = call noundef nonnull align 1 dereferenceable(1) ptr @_ZNSt12_Vector_baseI11StringTokenSaIS0_EE19_M_get_Tp_allocatorEv(ptr noundef nonnull align 8 dereferenceable(24) %16) #14, !dbg !3940
  invoke void @_ZSt15__alloc_on_moveISaI11StringTokenEEvRT_S3_(ptr noundef nonnull align 1 dereferenceable(1) %15, ptr noundef nonnull align 1 dereferenceable(1) %17)
          to label %18 unwind label %19, !dbg !3941

18:                                               ; preds = %2
  call void @_ZNSt6vectorI11StringTokenSaIS0_EED2Ev(ptr noundef nonnull align 8 dereferenceable(24) %6) #14, !dbg !3942
  ret void, !dbg !3942

19:                                               ; preds = %2
  %20 = landingpad { ptr, i32 }
          catch ptr null, !dbg !3941
  %21 = extractvalue { ptr, i32 } %20, 0, !dbg !3941
  call void @__clang_call_terminate(ptr %21) #15, !dbg !3941
  unreachable, !dbg !3941
}

; Function Attrs: mustprogress noinline nounwind uwtable
define linkonce_odr dso_local void @_ZNKSt12_Vector_baseI11StringTokenSaIS0_EE13get_allocatorEv(ptr noalias sret(%"class.std::allocator.4") align 1 %0, ptr noundef nonnull align 8 dereferenceable(24) %1) #3 comdat align 2 !dbg !3943 {
  %3 = alloca ptr, align 8
  %4 = alloca ptr, align 8
  store ptr %0, ptr %3, align 8
  store ptr %1, ptr %4, align 8
  call void @llvm.dbg.declare(metadata ptr %4, metadata !3944, metadata !DIExpression()), !dbg !3945
  %5 = load ptr, ptr %4, align 8
  %6 = call noundef nonnull align 1 dereferenceable(1) ptr @_ZNKSt12_Vector_baseI11StringTokenSaIS0_EE19_M_get_Tp_allocatorEv(ptr noundef nonnull align 8 dereferenceable(24) %5) #14, !dbg !3946
  call void @_ZNSaI11StringTokenEC2ERKS0_(ptr noundef nonnull align 1 dereferenceable(1) %0, ptr noundef nonnull align 1 dereferenceable(1) %6) #14, !dbg !3947
  ret void, !dbg !3948
}

; Function Attrs: noinline nounwind uwtable
define linkonce_odr dso_local void @_ZNSt6vectorI11StringTokenSaIS0_EEC2ERKS1_(ptr noundef nonnull align 8 dereferenceable(24) %0, ptr noundef nonnull align 1 dereferenceable(1) %1) unnamed_addr #4 comdat align 2 !dbg !3949 {
  %3 = alloca ptr, align 8
  %4 = alloca ptr, align 8
  store ptr %0, ptr %3, align 8
  call void @llvm.dbg.declare(metadata ptr %3, metadata !3950, metadata !DIExpression()), !dbg !3951
  store ptr %1, ptr %4, align 8
  call void @llvm.dbg.declare(metadata ptr %4, metadata !3952, metadata !DIExpression()), !dbg !3953
  %5 = load ptr, ptr %3, align 8
  %6 = load ptr, ptr %4, align 8, !dbg !3954
  call void @_ZNSt12_Vector_baseI11StringTokenSaIS0_EEC2ERKS1_(ptr noundef nonnull align 8 dereferenceable(24) %5, ptr noundef nonnull align 1 dereferenceable(1) %6) #14, !dbg !3955
  ret void, !dbg !3956
}

; Function Attrs: noinline nounwind uwtable
define linkonce_odr dso_local void @_ZNSaI11StringTokenED2Ev(ptr noundef nonnull align 1 dereferenceable(1) %0) unnamed_addr #4 comdat align 2 !dbg !3957 {
  %2 = alloca ptr, align 8
  store ptr %0, ptr %2, align 8
  call void @llvm.dbg.declare(metadata ptr %2, metadata !3958, metadata !DIExpression()), !dbg !3959
  %3 = load ptr, ptr %2, align 8
  call void @_ZN9__gnu_cxx13new_allocatorI11StringTokenED2Ev(ptr noundef nonnull align 1 dereferenceable(1) %3) #14, !dbg !3960
  ret void, !dbg !3962
}

; Function Attrs: mustprogress noinline nounwind uwtable
define linkonce_odr dso_local void @_ZNSt12_Vector_baseI11StringTokenSaIS0_EE17_Vector_impl_data12_M_swap_dataERS3_(ptr noundef nonnull align 8 dereferenceable(24) %0, ptr noundef nonnull align 8 dereferenceable(24) %1) #3 comdat align 2 !dbg !3963 {
  %3 = alloca ptr, align 8
  %4 = alloca ptr, align 8
  %5 = alloca %"struct.std::_Vector_base<StringToken, std::allocator<StringToken>>::_Vector_impl_data", align 8
  store ptr %0, ptr %3, align 8
  call void @llvm.dbg.declare(metadata ptr %3, metadata !3964, metadata !DIExpression()), !dbg !3965
  store ptr %1, ptr %4, align 8
  call void @llvm.dbg.declare(metadata ptr %4, metadata !3966, metadata !DIExpression()), !dbg !3967
  %6 = load ptr, ptr %3, align 8
  call void @llvm.dbg.declare(metadata ptr %5, metadata !3968, metadata !DIExpression()), !dbg !3969
  call void @_ZNSt12_Vector_baseI11StringTokenSaIS0_EE17_Vector_impl_dataC2Ev(ptr noundef nonnull align 8 dereferenceable(24) %5) #14, !dbg !3969
  call void @_ZNSt12_Vector_baseI11StringTokenSaIS0_EE17_Vector_impl_data12_M_copy_dataERKS3_(ptr noundef nonnull align 8 dereferenceable(24) %5, ptr noundef nonnull align 8 dereferenceable(24) %6) #14, !dbg !3970
  %7 = load ptr, ptr %4, align 8, !dbg !3971
  call void @_ZNSt12_Vector_baseI11StringTokenSaIS0_EE17_Vector_impl_data12_M_copy_dataERKS3_(ptr noundef nonnull align 8 dereferenceable(24) %6, ptr noundef nonnull align 8 dereferenceable(24) %7) #14, !dbg !3972
  %8 = load ptr, ptr %4, align 8, !dbg !3973
  call void @_ZNSt12_Vector_baseI11StringTokenSaIS0_EE17_Vector_impl_data12_M_copy_dataERKS3_(ptr noundef nonnull align 8 dereferenceable(24) %8, ptr noundef nonnull align 8 dereferenceable(24) %5) #14, !dbg !3974
  ret void, !dbg !3975
}

; Function Attrs: mustprogress noinline nounwind uwtable
define linkonce_odr dso_local void @_ZSt15__alloc_on_moveISaI11StringTokenEEvRT_S3_(ptr noundef nonnull align 1 dereferenceable(1) %0, ptr noundef nonnull align 1 dereferenceable(1) %1) #3 comdat !dbg !3976 {
  %3 = alloca ptr, align 8
  %4 = alloca ptr, align 8
  store ptr %0, ptr %3, align 8
  call void @llvm.dbg.declare(metadata ptr %3, metadata !3977, metadata !DIExpression()), !dbg !3978
  store ptr %1, ptr %4, align 8
  call void @llvm.dbg.declare(metadata ptr %4, metadata !3979, metadata !DIExpression()), !dbg !3980
  %5 = load ptr, ptr %4, align 8, !dbg !3981
  %6 = load ptr, ptr %3, align 8, !dbg !3983
  ret void, !dbg !3984
}

; Function Attrs: noinline nounwind uwtable
define linkonce_odr dso_local void @_ZNSaI11StringTokenEC2ERKS0_(ptr noundef nonnull align 1 dereferenceable(1) %0, ptr noundef nonnull align 1 dereferenceable(1) %1) unnamed_addr #4 comdat align 2 !dbg !3985 {
  %3 = alloca ptr, align 8
  %4 = alloca ptr, align 8
  store ptr %0, ptr %3, align 8
  call void @llvm.dbg.declare(metadata ptr %3, metadata !3986, metadata !DIExpression()), !dbg !3987
  store ptr %1, ptr %4, align 8
  call void @llvm.dbg.declare(metadata ptr %4, metadata !3988, metadata !DIExpression()), !dbg !3989
  %5 = load ptr, ptr %3, align 8
  %6 = load ptr, ptr %4, align 8, !dbg !3990
  call void @_ZN9__gnu_cxx13new_allocatorI11StringTokenEC2ERKS2_(ptr noundef nonnull align 1 dereferenceable(1) %5, ptr noundef nonnull align 1 dereferenceable(1) %6) #14, !dbg !3991
  ret void, !dbg !3992
}

; Function Attrs: noinline nounwind uwtable
define linkonce_odr dso_local void @_ZNSt12_Vector_baseI11StringTokenSaIS0_EEC2ERKS1_(ptr noundef nonnull align 8 dereferenceable(24) %0, ptr noundef nonnull align 1 dereferenceable(1) %1) unnamed_addr #4 comdat align 2 !dbg !3993 {
  %3 = alloca ptr, align 8
  %4 = alloca ptr, align 8
  store ptr %0, ptr %3, align 8
  call void @llvm.dbg.declare(metadata ptr %3, metadata !3994, metadata !DIExpression()), !dbg !3995
  store ptr %1, ptr %4, align 8
  call void @llvm.dbg.declare(metadata ptr %4, metadata !3996, metadata !DIExpression()), !dbg !3997
  %5 = load ptr, ptr %3, align 8
  %6 = getelementptr inbounds %"struct.std::_Vector_base", ptr %5, i32 0, i32 0, !dbg !3998
  %7 = load ptr, ptr %4, align 8, !dbg !3999
  call void @_ZNSt12_Vector_baseI11StringTokenSaIS0_EE12_Vector_implC2ERKS1_(ptr noundef nonnull align 8 dereferenceable(24) %6, ptr noundef nonnull align 1 dereferenceable(1) %7) #14, !dbg !3998
  ret void, !dbg !4000
}

; Function Attrs: noinline nounwind uwtable
define linkonce_odr dso_local void @_ZNSt12_Vector_baseI11StringTokenSaIS0_EE12_Vector_implC2ERKS1_(ptr noundef nonnull align 8 dereferenceable(24) %0, ptr noundef nonnull align 1 dereferenceable(1) %1) unnamed_addr #4 comdat align 2 !dbg !4001 {
  %3 = alloca ptr, align 8
  %4 = alloca ptr, align 8
  store ptr %0, ptr %3, align 8
  call void @llvm.dbg.declare(metadata ptr %3, metadata !4002, metadata !DIExpression()), !dbg !4003
  store ptr %1, ptr %4, align 8
  call void @llvm.dbg.declare(metadata ptr %4, metadata !4004, metadata !DIExpression()), !dbg !4005
  %5 = load ptr, ptr %3, align 8
  %6 = load ptr, ptr %4, align 8, !dbg !4006
  call void @_ZNSaI11StringTokenEC2ERKS0_(ptr noundef nonnull align 1 dereferenceable(1) %5, ptr noundef nonnull align 1 dereferenceable(1) %6) #14, !dbg !4007
  call void @_ZNSt12_Vector_baseI11StringTokenSaIS0_EE17_Vector_impl_dataC2Ev(ptr noundef nonnull align 8 dereferenceable(24) %5) #14, !dbg !4008
  ret void, !dbg !4009
}

; Function Attrs: noinline nounwind uwtable
define linkonce_odr dso_local void @_ZNSt12_Vector_baseI11StringTokenSaIS0_EE17_Vector_impl_dataC2Ev(ptr noundef nonnull align 8 dereferenceable(24) %0) unnamed_addr #4 comdat align 2 !dbg !4010 {
  %2 = alloca ptr, align 8
  store ptr %0, ptr %2, align 8
  call void @llvm.dbg.declare(metadata ptr %2, metadata !4011, metadata !DIExpression()), !dbg !4012
  %3 = load ptr, ptr %2, align 8
  %4 = getelementptr inbounds %"struct.std::_Vector_base<StringToken, std::allocator<StringToken>>::_Vector_impl_data", ptr %3, i32 0, i32 0, !dbg !4013
  store ptr null, ptr %4, align 8, !dbg !4013
  %5 = getelementptr inbounds %"struct.std::_Vector_base<StringToken, std::allocator<StringToken>>::_Vector_impl_data", ptr %3, i32 0, i32 1, !dbg !4014
  store ptr null, ptr %5, align 8, !dbg !4014
  %6 = getelementptr inbounds %"struct.std::_Vector_base<StringToken, std::allocator<StringToken>>::_Vector_impl_data", ptr %3, i32 0, i32 2, !dbg !4015
  store ptr null, ptr %6, align 8, !dbg !4015
  ret void, !dbg !4016
}

; Function Attrs: mustprogress noinline nounwind uwtable
define linkonce_odr dso_local void @_ZNSt12_Vector_baseI11StringTokenSaIS0_EE17_Vector_impl_data12_M_copy_dataERKS3_(ptr noundef nonnull align 8 dereferenceable(24) %0, ptr noundef nonnull align 8 dereferenceable(24) %1) #3 comdat align 2 !dbg !4017 {
  %3 = alloca ptr, align 8
  %4 = alloca ptr, align 8
  store ptr %0, ptr %3, align 8
  call void @llvm.dbg.declare(metadata ptr %3, metadata !4018, metadata !DIExpression()), !dbg !4019
  store ptr %1, ptr %4, align 8
  call void @llvm.dbg.declare(metadata ptr %4, metadata !4020, metadata !DIExpression()), !dbg !4021
  %5 = load ptr, ptr %3, align 8
  %6 = load ptr, ptr %4, align 8, !dbg !4022
  %7 = getelementptr inbounds %"struct.std::_Vector_base<StringToken, std::allocator<StringToken>>::_Vector_impl_data", ptr %6, i32 0, i32 0, !dbg !4023
  %8 = load ptr, ptr %7, align 8, !dbg !4023
  %9 = getelementptr inbounds %"struct.std::_Vector_base<StringToken, std::allocator<StringToken>>::_Vector_impl_data", ptr %5, i32 0, i32 0, !dbg !4024
  store ptr %8, ptr %9, align 8, !dbg !4025
  %10 = load ptr, ptr %4, align 8, !dbg !4026
  %11 = getelementptr inbounds %"struct.std::_Vector_base<StringToken, std::allocator<StringToken>>::_Vector_impl_data", ptr %10, i32 0, i32 1, !dbg !4027
  %12 = load ptr, ptr %11, align 8, !dbg !4027
  %13 = getelementptr inbounds %"struct.std::_Vector_base<StringToken, std::allocator<StringToken>>::_Vector_impl_data", ptr %5, i32 0, i32 1, !dbg !4028
  store ptr %12, ptr %13, align 8, !dbg !4029
  %14 = load ptr, ptr %4, align 8, !dbg !4030
  %15 = getelementptr inbounds %"struct.std::_Vector_base<StringToken, std::allocator<StringToken>>::_Vector_impl_data", ptr %14, i32 0, i32 2, !dbg !4031
  %16 = load ptr, ptr %15, align 8, !dbg !4031
  %17 = getelementptr inbounds %"struct.std::_Vector_base<StringToken, std::allocator<StringToken>>::_Vector_impl_data", ptr %5, i32 0, i32 2, !dbg !4032
  store ptr %16, ptr %17, align 8, !dbg !4033
  ret void, !dbg !4034
}

; Function Attrs: noinline uwtable
define linkonce_odr dso_local void @_ZNSt5tupleIJiiNSt7__cxx1112basic_stringIcSt11char_traitsIcESaIcEEEEEC2IJRiS8_RS5_ELb1ELb1EEEDpOT_(ptr noundef nonnull align 8 dereferenceable(40) %0, ptr noundef nonnull align 4 dereferenceable(4) %1, ptr noundef nonnull align 4 dereferenceable(4) %2, ptr noundef nonnull align 8 dereferenceable(32) %3) unnamed_addr #13 comdat align 2 !dbg !4035 {
  %5 = alloca ptr, align 8
  %6 = alloca ptr, align 8
  %7 = alloca ptr, align 8
  %8 = alloca ptr, align 8
  store ptr %0, ptr %5, align 8
  call void @llvm.dbg.declare(metadata ptr %5, metadata !4043, metadata !DIExpression()), !dbg !4045
  store ptr %1, ptr %6, align 8
  call void @llvm.dbg.declare(metadata ptr %6, metadata !4046, metadata !DIExpression()), !dbg !4047
  store ptr %2, ptr %7, align 8
  call void @llvm.dbg.declare(metadata ptr %7, metadata !4048, metadata !DIExpression()), !dbg !4047
  store ptr %3, ptr %8, align 8
  call void @llvm.dbg.declare(metadata ptr %8, metadata !4049, metadata !DIExpression()), !dbg !4047
  %9 = load ptr, ptr %5, align 8
  %10 = load ptr, ptr %6, align 8, !dbg !4050
  %11 = load ptr, ptr %7, align 8, !dbg !4050
  %12 = load ptr, ptr %8, align 8, !dbg !4050
  call void @_ZNSt11_Tuple_implILm0EJiiNSt7__cxx1112basic_stringIcSt11char_traitsIcESaIcEEEEEC2IRiJS8_RS5_EvEEOT_DpOT0_(ptr noundef nonnull align 8 dereferenceable(40) %9, ptr noundef nonnull align 4 dereferenceable(4) %10, ptr noundef nonnull align 4 dereferenceable(4) %11, ptr noundef nonnull align 8 dereferenceable(32) %12), !dbg !4051
  ret void, !dbg !4052
}

; Function Attrs: noinline uwtable
define linkonce_odr dso_local void @_ZNSt11_Tuple_implILm0EJiiNSt7__cxx1112basic_stringIcSt11char_traitsIcESaIcEEEEEC2IRiJS8_RS5_EvEEOT_DpOT0_(ptr noundef nonnull align 8 dereferenceable(40) %0, ptr noundef nonnull align 4 dereferenceable(4) %1, ptr noundef nonnull align 4 dereferenceable(4) %2, ptr noundef nonnull align 8 dereferenceable(32) %3) unnamed_addr #13 comdat align 2 personality ptr @__gxx_personality_v0 !dbg !4053 {
  %5 = alloca ptr, align 8
  %6 = alloca ptr, align 8
  %7 = alloca ptr, align 8
  %8 = alloca ptr, align 8
  %9 = alloca ptr, align 8
  %10 = alloca i32, align 4
  store ptr %0, ptr %5, align 8
  call void @llvm.dbg.declare(metadata ptr %5, metadata !4062, metadata !DIExpression()), !dbg !4064
  store ptr %1, ptr %6, align 8
  call void @llvm.dbg.declare(metadata ptr %6, metadata !4065, metadata !DIExpression()), !dbg !4066
  store ptr %2, ptr %7, align 8
  call void @llvm.dbg.declare(metadata ptr %7, metadata !4067, metadata !DIExpression()), !dbg !4068
  store ptr %3, ptr %8, align 8
  call void @llvm.dbg.declare(metadata ptr %8, metadata !4069, metadata !DIExpression()), !dbg !4068
  %11 = load ptr, ptr %5, align 8
  %12 = load ptr, ptr %7, align 8, !dbg !4070
  %13 = load ptr, ptr %8, align 8, !dbg !4070
  call void @_ZNSt11_Tuple_implILm1EJiNSt7__cxx1112basic_stringIcSt11char_traitsIcESaIcEEEEEC2IRiJRS5_EvEEOT_DpOT0_(ptr noundef nonnull align 8 dereferenceable(36) %11, ptr noundef nonnull align 4 dereferenceable(4) %12, ptr noundef nonnull align 8 dereferenceable(32) %13), !dbg !4071
  %14 = getelementptr inbounds i8, ptr %11, i64 36, !dbg !4072
  %15 = load ptr, ptr %6, align 8, !dbg !4073
  invoke void @_ZNSt10_Head_baseILm0EiLb0EEC2IRiEEOT_(ptr noundef nonnull align 4 dereferenceable(4) %14, ptr noundef nonnull align 4 dereferenceable(4) %15)
          to label %16 unwind label %17, !dbg !4074

16:                                               ; preds = %4
  ret void, !dbg !4075

17:                                               ; preds = %4
  %18 = landingpad { ptr, i32 }
          cleanup, !dbg !4075
  %19 = extractvalue { ptr, i32 } %18, 0, !dbg !4075
  store ptr %19, ptr %9, align 8, !dbg !4075
  %20 = extractvalue { ptr, i32 } %18, 1, !dbg !4075
  store i32 %20, ptr %10, align 4, !dbg !4075
  call void @_ZNSt11_Tuple_implILm1EJiNSt7__cxx1112basic_stringIcSt11char_traitsIcESaIcEEEEED2Ev(ptr noundef nonnull align 8 dereferenceable(36) %11) #14, !dbg !4076
  br label %21, !dbg !4076

21:                                               ; preds = %17
  %22 = load ptr, ptr %9, align 8, !dbg !4076
  %23 = load i32, ptr %10, align 4, !dbg !4076
  %24 = insertvalue { ptr, i32 } poison, ptr %22, 0, !dbg !4076
  %25 = insertvalue { ptr, i32 } %24, i32 %23, 1, !dbg !4076
  resume { ptr, i32 } %25, !dbg !4076
}

; Function Attrs: noinline uwtable
define linkonce_odr dso_local void @_ZNSt11_Tuple_implILm1EJiNSt7__cxx1112basic_stringIcSt11char_traitsIcESaIcEEEEEC2IRiJRS5_EvEEOT_DpOT0_(ptr noundef nonnull align 8 dereferenceable(36) %0, ptr noundef nonnull align 4 dereferenceable(4) %1, ptr noundef nonnull align 8 dereferenceable(32) %2) unnamed_addr #13 comdat align 2 personality ptr @__gxx_personality_v0 !dbg !4078 {
  %4 = alloca ptr, align 8
  %5 = alloca ptr, align 8
  %6 = alloca ptr, align 8
  %7 = alloca ptr, align 8
  %8 = alloca i32, align 4
  store ptr %0, ptr %4, align 8
  call void @llvm.dbg.declare(metadata ptr %4, metadata !4085, metadata !DIExpression()), !dbg !4087
  store ptr %1, ptr %5, align 8
  call void @llvm.dbg.declare(metadata ptr %5, metadata !4088, metadata !DIExpression()), !dbg !4089
  store ptr %2, ptr %6, align 8
  call void @llvm.dbg.declare(metadata ptr %6, metadata !4090, metadata !DIExpression()), !dbg !4091
  %9 = load ptr, ptr %4, align 8
  %10 = load ptr, ptr %6, align 8, !dbg !4092
  call void @_ZNSt11_Tuple_implILm2EJNSt7__cxx1112basic_stringIcSt11char_traitsIcESaIcEEEEEC2IRS5_EEOT_(ptr noundef nonnull align 8 dereferenceable(32) %9, ptr noundef nonnull align 8 dereferenceable(32) %10), !dbg !4093
  %11 = getelementptr inbounds i8, ptr %9, i64 32, !dbg !4094
  %12 = load ptr, ptr %5, align 8, !dbg !4095
  invoke void @_ZNSt10_Head_baseILm1EiLb0EEC2IRiEEOT_(ptr noundef nonnull align 4 dereferenceable(4) %11, ptr noundef nonnull align 4 dereferenceable(4) %12)
          to label %13 unwind label %14, !dbg !4096

13:                                               ; preds = %3
  ret void, !dbg !4097

14:                                               ; preds = %3
  %15 = landingpad { ptr, i32 }
          cleanup, !dbg !4097
  %16 = extractvalue { ptr, i32 } %15, 0, !dbg !4097
  store ptr %16, ptr %7, align 8, !dbg !4097
  %17 = extractvalue { ptr, i32 } %15, 1, !dbg !4097
  store i32 %17, ptr %8, align 4, !dbg !4097
  call void @_ZNSt11_Tuple_implILm2EJNSt7__cxx1112basic_stringIcSt11char_traitsIcESaIcEEEEED2Ev(ptr noundef nonnull align 8 dereferenceable(32) %9) #14, !dbg !4098
  br label %18, !dbg !4098

18:                                               ; preds = %14
  %19 = load ptr, ptr %7, align 8, !dbg !4098
  %20 = load i32, ptr %8, align 4, !dbg !4098
  %21 = insertvalue { ptr, i32 } poison, ptr %19, 0, !dbg !4098
  %22 = insertvalue { ptr, i32 } %21, i32 %20, 1, !dbg !4098
  resume { ptr, i32 } %22, !dbg !4098
}

; Function Attrs: noinline nounwind uwtable
define linkonce_odr dso_local void @_ZNSt10_Head_baseILm0EiLb0EEC2IRiEEOT_(ptr noundef nonnull align 4 dereferenceable(4) %0, ptr noundef nonnull align 4 dereferenceable(4) %1) unnamed_addr #4 comdat align 2 !dbg !4100 {
  %3 = alloca ptr, align 8
  %4 = alloca ptr, align 8
  store ptr %0, ptr %3, align 8
  call void @llvm.dbg.declare(metadata ptr %3, metadata !4105, metadata !DIExpression()), !dbg !4107
  store ptr %1, ptr %4, align 8
  call void @llvm.dbg.declare(metadata ptr %4, metadata !4108, metadata !DIExpression()), !dbg !4109
  %5 = load ptr, ptr %3, align 8
  %6 = getelementptr inbounds %"struct.std::_Head_base.3", ptr %5, i32 0, i32 0, !dbg !4110
  %7 = load ptr, ptr %4, align 8, !dbg !4111
  %8 = load i32, ptr %7, align 4, !dbg !4112
  store i32 %8, ptr %6, align 4, !dbg !4110
  ret void, !dbg !4113
}

; Function Attrs: noinline nounwind uwtable
define linkonce_odr dso_local void @_ZNSt11_Tuple_implILm1EJiNSt7__cxx1112basic_stringIcSt11char_traitsIcESaIcEEEEED2Ev(ptr noundef nonnull align 8 dereferenceable(36) %0) unnamed_addr #4 comdat align 2 !dbg !4114 {
  %2 = alloca ptr, align 8
  store ptr %0, ptr %2, align 8
  call void @llvm.dbg.declare(metadata ptr %2, metadata !4116, metadata !DIExpression()), !dbg !4117
  %3 = load ptr, ptr %2, align 8
  call void @_ZNSt11_Tuple_implILm2EJNSt7__cxx1112basic_stringIcSt11char_traitsIcESaIcEEEEED2Ev(ptr noundef nonnull align 8 dereferenceable(32) %3) #14, !dbg !4118
  ret void, !dbg !4120
}

; Function Attrs: noinline uwtable
define linkonce_odr dso_local void @_ZNSt11_Tuple_implILm2EJNSt7__cxx1112basic_stringIcSt11char_traitsIcESaIcEEEEEC2IRS5_EEOT_(ptr noundef nonnull align 8 dereferenceable(32) %0, ptr noundef nonnull align 8 dereferenceable(32) %1) unnamed_addr #13 comdat align 2 !dbg !4121 {
  %3 = alloca ptr, align 8
  %4 = alloca ptr, align 8
  store ptr %0, ptr %3, align 8
  call void @llvm.dbg.declare(metadata ptr %3, metadata !4127, metadata !DIExpression()), !dbg !4129
  store ptr %1, ptr %4, align 8
  call void @llvm.dbg.declare(metadata ptr %4, metadata !4130, metadata !DIExpression()), !dbg !4131
  %5 = load ptr, ptr %3, align 8
  %6 = load ptr, ptr %4, align 8, !dbg !4132
  call void @_ZNSt10_Head_baseILm2ENSt7__cxx1112basic_stringIcSt11char_traitsIcESaIcEEELb0EEC2IRS5_EEOT_(ptr noundef nonnull align 8 dereferenceable(32) %5, ptr noundef nonnull align 8 dereferenceable(32) %6), !dbg !4133
  ret void, !dbg !4134
}

; Function Attrs: noinline nounwind uwtable
define linkonce_odr dso_local void @_ZNSt10_Head_baseILm1EiLb0EEC2IRiEEOT_(ptr noundef nonnull align 4 dereferenceable(4) %0, ptr noundef nonnull align 4 dereferenceable(4) %1) unnamed_addr #4 comdat align 2 !dbg !4135 {
  %3 = alloca ptr, align 8
  %4 = alloca ptr, align 8
  store ptr %0, ptr %3, align 8
  call void @llvm.dbg.declare(metadata ptr %3, metadata !4139, metadata !DIExpression()), !dbg !4141
  store ptr %1, ptr %4, align 8
  call void @llvm.dbg.declare(metadata ptr %4, metadata !4142, metadata !DIExpression()), !dbg !4143
  %5 = load ptr, ptr %3, align 8
  %6 = getelementptr inbounds %"struct.std::_Head_base.2", ptr %5, i32 0, i32 0, !dbg !4144
  %7 = load ptr, ptr %4, align 8, !dbg !4145
  %8 = load i32, ptr %7, align 4, !dbg !4146
  store i32 %8, ptr %6, align 4, !dbg !4144
  ret void, !dbg !4147
}

; Function Attrs: noinline nounwind uwtable
define linkonce_odr dso_local void @_ZNSt11_Tuple_implILm2EJNSt7__cxx1112basic_stringIcSt11char_traitsIcESaIcEEEEED2Ev(ptr noundef nonnull align 8 dereferenceable(32) %0) unnamed_addr #4 comdat align 2 !dbg !4148 {
  %2 = alloca ptr, align 8
  store ptr %0, ptr %2, align 8
  call void @llvm.dbg.declare(metadata ptr %2, metadata !4150, metadata !DIExpression()), !dbg !4151
  %3 = load ptr, ptr %2, align 8
  call void @_ZNSt10_Head_baseILm2ENSt7__cxx1112basic_stringIcSt11char_traitsIcESaIcEEELb0EED2Ev(ptr noundef nonnull align 8 dereferenceable(32) %3) #14, !dbg !4152
  ret void, !dbg !4154
}

; Function Attrs: noinline uwtable
define linkonce_odr dso_local void @_ZNSt10_Head_baseILm2ENSt7__cxx1112basic_stringIcSt11char_traitsIcESaIcEEELb0EEC2IRS5_EEOT_(ptr noundef nonnull align 8 dereferenceable(32) %0, ptr noundef nonnull align 8 dereferenceable(32) %1) unnamed_addr #13 comdat align 2 !dbg !4155 {
  %3 = alloca ptr, align 8
  %4 = alloca ptr, align 8
  store ptr %0, ptr %3, align 8
  call void @llvm.dbg.declare(metadata ptr %3, metadata !4159, metadata !DIExpression()), !dbg !4161
  store ptr %1, ptr %4, align 8
  call void @llvm.dbg.declare(metadata ptr %4, metadata !4162, metadata !DIExpression()), !dbg !4163
  %5 = load ptr, ptr %3, align 8
  %6 = getelementptr inbounds %"struct.std::_Head_base", ptr %5, i32 0, i32 0, !dbg !4164
  %7 = load ptr, ptr %4, align 8, !dbg !4165
  call void @_ZNSt7__cxx1112basic_stringIcSt11char_traitsIcESaIcEEC1ERKS4_(ptr noundef nonnull align 8 dereferenceable(32) %6, ptr noundef nonnull align 8 dereferenceable(32) %7), !dbg !4164
  ret void, !dbg !4166
}

; Function Attrs: noinline nounwind uwtable
define linkonce_odr dso_local void @_ZNSt10_Head_baseILm2ENSt7__cxx1112basic_stringIcSt11char_traitsIcESaIcEEELb0EED2Ev(ptr noundef nonnull align 8 dereferenceable(32) %0) unnamed_addr #4 comdat align 2 !dbg !4167 {
  %2 = alloca ptr, align 8
  store ptr %0, ptr %2, align 8
  call void @llvm.dbg.declare(metadata ptr %2, metadata !4169, metadata !DIExpression()), !dbg !4170
  %3 = load ptr, ptr %2, align 8
  %4 = getelementptr inbounds %"struct.std::_Head_base", ptr %3, i32 0, i32 0, !dbg !4171
  call void @_ZNSt7__cxx1112basic_stringIcSt11char_traitsIcESaIcEED1Ev(ptr noundef nonnull align 8 dereferenceable(32) %4) #14, !dbg !4171
  ret void, !dbg !4173
}

; Function Attrs: mustprogress noinline uwtable
define linkonce_odr dso_local ptr @_ZNKSt8_Rb_treeINSt7__cxx1112basic_stringIcSt11char_traitsIcESaIcEEESt4pairIKS5_iESt10_Select1stIS8_ESt4lessIS5_ESaIS8_EE4findERS7_(ptr noundef nonnull align 8 dereferenceable(48) %0, ptr noundef nonnull align 8 dereferenceable(32) %1) #0 comdat align 2 !dbg !4174 {
  %3 = alloca %"struct.std::_Rb_tree_const_iterator", align 8
  %4 = alloca ptr, align 8
  %5 = alloca ptr, align 8
  %6 = alloca %"struct.std::_Rb_tree_const_iterator", align 8
  %7 = alloca %"struct.std::_Rb_tree_const_iterator", align 8
  store ptr %0, ptr %4, align 8
  call void @llvm.dbg.declare(metadata ptr %4, metadata !4183, metadata !DIExpression()), !dbg !4185
  store ptr %1, ptr %5, align 8
  call void @llvm.dbg.declare(metadata ptr %5, metadata !4186, metadata !DIExpression()), !dbg !4187
  %8 = load ptr, ptr %4, align 8
  call void @llvm.dbg.declare(metadata ptr %6, metadata !4188, metadata !DIExpression()), !dbg !4189
  %9 = call noundef ptr @_ZNKSt8_Rb_treeINSt7__cxx1112basic_stringIcSt11char_traitsIcESaIcEEESt4pairIKS5_iESt10_Select1stIS8_ESt4lessIS5_ESaIS8_EE8_M_beginEv(ptr noundef nonnull align 8 dereferenceable(48) %8) #14, !dbg !4190
  %10 = call noundef ptr @_ZNKSt8_Rb_treeINSt7__cxx1112basic_stringIcSt11char_traitsIcESaIcEEESt4pairIKS5_iESt10_Select1stIS8_ESt4lessIS5_ESaIS8_EE6_M_endEv(ptr noundef nonnull align 8 dereferenceable(48) %8) #14, !dbg !4191
  %11 = load ptr, ptr %5, align 8, !dbg !4192
  %12 = call ptr @_ZNKSt8_Rb_treeINSt7__cxx1112basic_stringIcSt11char_traitsIcESaIcEEESt4pairIKS5_iESt10_Select1stIS8_ESt4lessIS5_ESaIS8_EE14_M_lower_boundEPKSt13_Rb_tree_nodeIS8_EPKSt18_Rb_tree_node_baseRS7_(ptr noundef nonnull align 8 dereferenceable(48) %8, ptr noundef %9, ptr noundef %10, ptr noundef nonnull align 8 dereferenceable(32) %11), !dbg !4193
  %13 = getelementptr inbounds %"struct.std::_Rb_tree_const_iterator", ptr %6, i32 0, i32 0, !dbg !4193
  store ptr %12, ptr %13, align 8, !dbg !4193
  %14 = call ptr @_ZNKSt8_Rb_treeINSt7__cxx1112basic_stringIcSt11char_traitsIcESaIcEEESt4pairIKS5_iESt10_Select1stIS8_ESt4lessIS5_ESaIS8_EE3endEv(ptr noundef nonnull align 8 dereferenceable(48) %8) #14, !dbg !4194
  %15 = getelementptr inbounds %"struct.std::_Rb_tree_const_iterator", ptr %7, i32 0, i32 0, !dbg !4194
  store ptr %14, ptr %15, align 8, !dbg !4194
  %16 = call noundef zeroext i1 @_ZSteqRKSt23_Rb_tree_const_iteratorISt4pairIKNSt7__cxx1112basic_stringIcSt11char_traitsIcESaIcEEEiEESB_(ptr noundef nonnull align 8 dereferenceable(8) %6, ptr noundef nonnull align 8 dereferenceable(8) %7) #14, !dbg !4195
  br i1 %16, label %25, label %17, !dbg !4196

17:                                               ; preds = %2
  %18 = getelementptr inbounds %"class.std::_Rb_tree", ptr %8, i32 0, i32 0, !dbg !4197
  %19 = getelementptr inbounds %"struct.std::_Rb_tree_key_compare", ptr %18, i32 0, i32 0, !dbg !4198
  %20 = load ptr, ptr %5, align 8, !dbg !4199
  %21 = getelementptr inbounds %"struct.std::_Rb_tree_const_iterator", ptr %6, i32 0, i32 0, !dbg !4200
  %22 = load ptr, ptr %21, align 8, !dbg !4200
  %23 = call noundef nonnull align 8 dereferenceable(32) ptr @_ZNSt8_Rb_treeINSt7__cxx1112basic_stringIcSt11char_traitsIcESaIcEEESt4pairIKS5_iESt10_Select1stIS8_ESt4lessIS5_ESaIS8_EE6_S_keyEPKSt18_Rb_tree_node_base(ptr noundef %22), !dbg !4201
  %24 = call noundef zeroext i1 @_ZNKSt4lessINSt7__cxx1112basic_stringIcSt11char_traitsIcESaIcEEEEclERKS5_S8_(ptr noundef nonnull align 1 dereferenceable(1) %19, ptr noundef nonnull align 8 dereferenceable(32) %20, ptr noundef nonnull align 8 dereferenceable(32) %23), !dbg !4197
  br i1 %24, label %25, label %28, !dbg !4202

25:                                               ; preds = %17, %2
  %26 = call ptr @_ZNKSt8_Rb_treeINSt7__cxx1112basic_stringIcSt11char_traitsIcESaIcEEESt4pairIKS5_iESt10_Select1stIS8_ESt4lessIS5_ESaIS8_EE3endEv(ptr noundef nonnull align 8 dereferenceable(48) %8) #14, !dbg !4203
  %27 = getelementptr inbounds %"struct.std::_Rb_tree_const_iterator", ptr %3, i32 0, i32 0, !dbg !4203
  store ptr %26, ptr %27, align 8, !dbg !4203
  br label %29, !dbg !4202

28:                                               ; preds = %17
  call void @llvm.memcpy.p0.p0.i64(ptr align 8 %3, ptr align 8 %6, i64 8, i1 false), !dbg !4204
  br label %29, !dbg !4202

29:                                               ; preds = %28, %25
  %30 = getelementptr inbounds %"struct.std::_Rb_tree_const_iterator", ptr %3, i32 0, i32 0, !dbg !4205
  %31 = load ptr, ptr %30, align 8, !dbg !4205
  ret ptr %31, !dbg !4205
}

; Function Attrs: mustprogress noinline uwtable
define linkonce_odr dso_local ptr @_ZNKSt8_Rb_treeINSt7__cxx1112basic_stringIcSt11char_traitsIcESaIcEEESt4pairIKS5_iESt10_Select1stIS8_ESt4lessIS5_ESaIS8_EE14_M_lower_boundEPKSt13_Rb_tree_nodeIS8_EPKSt18_Rb_tree_node_baseRS7_(ptr noundef nonnull align 8 dereferenceable(48) %0, ptr noundef %1, ptr noundef %2, ptr noundef nonnull align 8 dereferenceable(32) %3) #0 comdat align 2 !dbg !4206 {
  %5 = alloca %"struct.std::_Rb_tree_const_iterator", align 8
  %6 = alloca ptr, align 8
  %7 = alloca ptr, align 8
  %8 = alloca ptr, align 8
  %9 = alloca ptr, align 8
  store ptr %0, ptr %6, align 8
  call void @llvm.dbg.declare(metadata ptr %6, metadata !4211, metadata !DIExpression()), !dbg !4212
  store ptr %1, ptr %7, align 8
  call void @llvm.dbg.declare(metadata ptr %7, metadata !4213, metadata !DIExpression()), !dbg !4214
  store ptr %2, ptr %8, align 8
  call void @llvm.dbg.declare(metadata ptr %8, metadata !4215, metadata !DIExpression()), !dbg !4216
  store ptr %3, ptr %9, align 8
  call void @llvm.dbg.declare(metadata ptr %9, metadata !4217, metadata !DIExpression()), !dbg !4218
  %10 = load ptr, ptr %6, align 8
  br label %11, !dbg !4219

11:                                               ; preds = %28, %4
  %12 = load ptr, ptr %7, align 8, !dbg !4220
  %13 = icmp ne ptr %12, null, !dbg !4221
  br i1 %13, label %14, label %29, !dbg !4219

14:                                               ; preds = %11
  %15 = getelementptr inbounds %"class.std::_Rb_tree", ptr %10, i32 0, i32 0, !dbg !4222
  %16 = getelementptr inbounds %"struct.std::_Rb_tree_key_compare", ptr %15, i32 0, i32 0, !dbg !4224
  %17 = load ptr, ptr %7, align 8, !dbg !4225
  %18 = call noundef nonnull align 8 dereferenceable(32) ptr @_ZNSt8_Rb_treeINSt7__cxx1112basic_stringIcSt11char_traitsIcESaIcEEESt4pairIKS5_iESt10_Select1stIS8_ESt4lessIS5_ESaIS8_EE6_S_keyEPKSt13_Rb_tree_nodeIS8_E(ptr noundef %17), !dbg !4226
  %19 = load ptr, ptr %9, align 8, !dbg !4227
  %20 = call noundef zeroext i1 @_ZNKSt4lessINSt7__cxx1112basic_stringIcSt11char_traitsIcESaIcEEEEclERKS5_S8_(ptr noundef nonnull align 1 dereferenceable(1) %16, ptr noundef nonnull align 8 dereferenceable(32) %18, ptr noundef nonnull align 8 dereferenceable(32) %19), !dbg !4222
  br i1 %20, label %25, label %21, !dbg !4228

21:                                               ; preds = %14
  %22 = load ptr, ptr %7, align 8, !dbg !4229
  store ptr %22, ptr %8, align 8, !dbg !4230
  %23 = load ptr, ptr %7, align 8, !dbg !4231
  %24 = call noundef ptr @_ZNSt8_Rb_treeINSt7__cxx1112basic_stringIcSt11char_traitsIcESaIcEEESt4pairIKS5_iESt10_Select1stIS8_ESt4lessIS5_ESaIS8_EE7_S_leftEPKSt18_Rb_tree_node_base(ptr noundef %23) #14, !dbg !4232
  store ptr %24, ptr %7, align 8, !dbg !4233
  br label %28, !dbg !4234

25:                                               ; preds = %14
  %26 = load ptr, ptr %7, align 8, !dbg !4235
  %27 = call noundef ptr @_ZNSt8_Rb_treeINSt7__cxx1112basic_stringIcSt11char_traitsIcESaIcEEESt4pairIKS5_iESt10_Select1stIS8_ESt4lessIS5_ESaIS8_EE8_S_rightEPKSt18_Rb_tree_node_base(ptr noundef %26) #14, !dbg !4236
  store ptr %27, ptr %7, align 8, !dbg !4237
  br label %28

28:                                               ; preds = %25, %21
  br label %11, !dbg !4219, !llvm.loop !4238

29:                                               ; preds = %11
  %30 = load ptr, ptr %8, align 8, !dbg !4240
  call void @_ZNSt23_Rb_tree_const_iteratorISt4pairIKNSt7__cxx1112basic_stringIcSt11char_traitsIcESaIcEEEiEEC2EPKSt18_Rb_tree_node_base(ptr noundef nonnull align 8 dereferenceable(8) %5, ptr noundef %30) #14, !dbg !4241
  %31 = getelementptr inbounds %"struct.std::_Rb_tree_const_iterator", ptr %5, i32 0, i32 0, !dbg !4242
  %32 = load ptr, ptr %31, align 8, !dbg !4242
  ret ptr %32, !dbg !4242
}

; Function Attrs: mustprogress noinline nounwind uwtable
define linkonce_odr dso_local noundef ptr @_ZNKSt8_Rb_treeINSt7__cxx1112basic_stringIcSt11char_traitsIcESaIcEEESt4pairIKS5_iESt10_Select1stIS8_ESt4lessIS5_ESaIS8_EE8_M_beginEv(ptr noundef nonnull align 8 dereferenceable(48) %0) #3 comdat align 2 !dbg !4243 {
  %2 = alloca ptr, align 8
  store ptr %0, ptr %2, align 8
  call void @llvm.dbg.declare(metadata ptr %2, metadata !4247, metadata !DIExpression()), !dbg !4248
  %3 = load ptr, ptr %2, align 8
  %4 = getelementptr inbounds %"class.std::_Rb_tree", ptr %3, i32 0, i32 0, !dbg !4249
  %5 = getelementptr inbounds i8, ptr %4, i64 8, !dbg !4250
  %6 = getelementptr inbounds %"struct.std::_Rb_tree_header", ptr %5, i32 0, i32 0, !dbg !4251
  %7 = getelementptr inbounds %"struct.std::_Rb_tree_node_base", ptr %6, i32 0, i32 1, !dbg !4252
  %8 = load ptr, ptr %7, align 8, !dbg !4252
  ret ptr %8, !dbg !4253
}

; Function Attrs: mustprogress noinline nounwind uwtable
define linkonce_odr dso_local noundef ptr @_ZNKSt8_Rb_treeINSt7__cxx1112basic_stringIcSt11char_traitsIcESaIcEEESt4pairIKS5_iESt10_Select1stIS8_ESt4lessIS5_ESaIS8_EE6_M_endEv(ptr noundef nonnull align 8 dereferenceable(48) %0) #3 comdat align 2 !dbg !4254 {
  %2 = alloca ptr, align 8
  store ptr %0, ptr %2, align 8
  call void @llvm.dbg.declare(metadata ptr %2, metadata !4258, metadata !DIExpression()), !dbg !4259
  %3 = load ptr, ptr %2, align 8
  %4 = getelementptr inbounds %"class.std::_Rb_tree", ptr %3, i32 0, i32 0, !dbg !4260
  %5 = getelementptr inbounds i8, ptr %4, i64 8, !dbg !4261
  %6 = getelementptr inbounds %"struct.std::_Rb_tree_header", ptr %5, i32 0, i32 0, !dbg !4262
  ret ptr %6, !dbg !4263
}

; Function Attrs: mustprogress noinline nounwind uwtable
define linkonce_odr dso_local noundef zeroext i1 @_ZSteqRKSt23_Rb_tree_const_iteratorISt4pairIKNSt7__cxx1112basic_stringIcSt11char_traitsIcESaIcEEEiEESB_(ptr noundef nonnull align 8 dereferenceable(8) %0, ptr noundef nonnull align 8 dereferenceable(8) %1) #3 comdat !dbg !4264 {
  %3 = alloca ptr, align 8
  %4 = alloca ptr, align 8
  store ptr %0, ptr %3, align 8
  call void @llvm.dbg.declare(metadata ptr %3, metadata !4265, metadata !DIExpression()), !dbg !4266
  store ptr %1, ptr %4, align 8
  call void @llvm.dbg.declare(metadata ptr %4, metadata !4267, metadata !DIExpression()), !dbg !4268
  %5 = load ptr, ptr %3, align 8, !dbg !4269
  %6 = getelementptr inbounds %"struct.std::_Rb_tree_const_iterator", ptr %5, i32 0, i32 0, !dbg !4270
  %7 = load ptr, ptr %6, align 8, !dbg !4270
  %8 = load ptr, ptr %4, align 8, !dbg !4271
  %9 = getelementptr inbounds %"struct.std::_Rb_tree_const_iterator", ptr %8, i32 0, i32 0, !dbg !4272
  %10 = load ptr, ptr %9, align 8, !dbg !4272
  %11 = icmp eq ptr %7, %10, !dbg !4273
  ret i1 %11, !dbg !4274
}

; Function Attrs: mustprogress noinline nounwind uwtable
define linkonce_odr dso_local ptr @_ZNKSt8_Rb_treeINSt7__cxx1112basic_stringIcSt11char_traitsIcESaIcEEESt4pairIKS5_iESt10_Select1stIS8_ESt4lessIS5_ESaIS8_EE3endEv(ptr noundef nonnull align 8 dereferenceable(48) %0) #3 comdat align 2 !dbg !4275 {
  %2 = alloca %"struct.std::_Rb_tree_const_iterator", align 8
  %3 = alloca ptr, align 8
  store ptr %0, ptr %3, align 8
  call void @llvm.dbg.declare(metadata ptr %3, metadata !4279, metadata !DIExpression()), !dbg !4280
  %4 = load ptr, ptr %3, align 8
  %5 = getelementptr inbounds %"class.std::_Rb_tree", ptr %4, i32 0, i32 0, !dbg !4281
  %6 = getelementptr inbounds i8, ptr %5, i64 8, !dbg !4282
  %7 = getelementptr inbounds %"struct.std::_Rb_tree_header", ptr %6, i32 0, i32 0, !dbg !4283
  call void @_ZNSt23_Rb_tree_const_iteratorISt4pairIKNSt7__cxx1112basic_stringIcSt11char_traitsIcESaIcEEEiEEC2EPKSt18_Rb_tree_node_base(ptr noundef nonnull align 8 dereferenceable(8) %2, ptr noundef %7) #14, !dbg !4284
  %8 = getelementptr inbounds %"struct.std::_Rb_tree_const_iterator", ptr %2, i32 0, i32 0, !dbg !4285
  %9 = load ptr, ptr %8, align 8, !dbg !4285
  ret ptr %9, !dbg !4285
}

; Function Attrs: mustprogress noinline nounwind uwtable
define linkonce_odr dso_local noundef zeroext i1 @_ZNKSt4lessINSt7__cxx1112basic_stringIcSt11char_traitsIcESaIcEEEEclERKS5_S8_(ptr noundef nonnull align 1 dereferenceable(1) %0, ptr noundef nonnull align 8 dereferenceable(32) %1, ptr noundef nonnull align 8 dereferenceable(32) %2) #3 comdat align 2 !dbg !4286 {
  %4 = alloca ptr, align 8
  %5 = alloca ptr, align 8
  %6 = alloca ptr, align 8
  store ptr %0, ptr %4, align 8
  call void @llvm.dbg.declare(metadata ptr %4, metadata !4303, metadata !DIExpression()), !dbg !4305
  store ptr %1, ptr %5, align 8
  call void @llvm.dbg.declare(metadata ptr %5, metadata !4306, metadata !DIExpression()), !dbg !4307
  store ptr %2, ptr %6, align 8
  call void @llvm.dbg.declare(metadata ptr %6, metadata !4308, metadata !DIExpression()), !dbg !4309
  %7 = load ptr, ptr %4, align 8
  %8 = load ptr, ptr %5, align 8, !dbg !4310
  %9 = load ptr, ptr %6, align 8, !dbg !4311
  %10 = call noundef zeroext i1 @_ZStltIcSt11char_traitsIcESaIcEEbRKNSt7__cxx1112basic_stringIT_T0_T1_EESA_(ptr noundef nonnull align 8 dereferenceable(32) %8, ptr noundef nonnull align 8 dereferenceable(32) %9) #14, !dbg !4312
  ret i1 %10, !dbg !4313
}

; Function Attrs: mustprogress noinline uwtable
define linkonce_odr dso_local noundef nonnull align 8 dereferenceable(32) ptr @_ZNSt8_Rb_treeINSt7__cxx1112basic_stringIcSt11char_traitsIcESaIcEEESt4pairIKS5_iESt10_Select1stIS8_ESt4lessIS5_ESaIS8_EE6_S_keyEPKSt18_Rb_tree_node_base(ptr noundef %0) #0 comdat align 2 !dbg !4314 {
  %2 = alloca ptr, align 8
  store ptr %0, ptr %2, align 8
  call void @llvm.dbg.declare(metadata ptr %2, metadata !4318, metadata !DIExpression()), !dbg !4319
  %3 = load ptr, ptr %2, align 8, !dbg !4320
  %4 = call noundef nonnull align 8 dereferenceable(32) ptr @_ZNSt8_Rb_treeINSt7__cxx1112basic_stringIcSt11char_traitsIcESaIcEEESt4pairIKS5_iESt10_Select1stIS8_ESt4lessIS5_ESaIS8_EE6_S_keyEPKSt13_Rb_tree_nodeIS8_E(ptr noundef %3), !dbg !4321
  ret ptr %4, !dbg !4322
}

; Function Attrs: nocallback nofree nounwind willreturn memory(argmem: readwrite)
declare void @llvm.memcpy.p0.p0.i64(ptr noalias nocapture writeonly, ptr noalias nocapture readonly, i64, i1 immarg) #10

; Function Attrs: mustprogress noinline uwtable
define linkonce_odr dso_local noundef nonnull align 8 dereferenceable(32) ptr @_ZNSt8_Rb_treeINSt7__cxx1112basic_stringIcSt11char_traitsIcESaIcEEESt4pairIKS5_iESt10_Select1stIS8_ESt4lessIS5_ESaIS8_EE6_S_keyEPKSt13_Rb_tree_nodeIS8_E(ptr noundef %0) #0 comdat align 2 !dbg !4323 {
  %2 = alloca ptr, align 8
  %3 = alloca %"struct.std::_Select1st", align 1
  store ptr %0, ptr %2, align 8
  call void @llvm.dbg.declare(metadata ptr %2, metadata !4327, metadata !DIExpression()), !dbg !4328
  %4 = load ptr, ptr %2, align 8, !dbg !4329
  %5 = call noundef ptr @_ZNKSt13_Rb_tree_nodeISt4pairIKNSt7__cxx1112basic_stringIcSt11char_traitsIcESaIcEEEiEE9_M_valptrEv(ptr noundef nonnull align 8 dereferenceable(72) %4), !dbg !4330
  %6 = call noundef nonnull align 8 dereferenceable(32) ptr @_ZNKSt10_Select1stISt4pairIKNSt7__cxx1112basic_stringIcSt11char_traitsIcESaIcEEEiEEclERKS8_(ptr noundef nonnull align 1 dereferenceable(1) %3, ptr noundef nonnull align 8 dereferenceable(36) %5), !dbg !4331
  ret ptr %6, !dbg !4332
}

; Function Attrs: mustprogress noinline nounwind uwtable
define linkonce_odr dso_local noundef ptr @_ZNSt8_Rb_treeINSt7__cxx1112basic_stringIcSt11char_traitsIcESaIcEEESt4pairIKS5_iESt10_Select1stIS8_ESt4lessIS5_ESaIS8_EE7_S_leftEPKSt18_Rb_tree_node_base(ptr noundef %0) #3 comdat align 2 !dbg !4333 {
  %2 = alloca ptr, align 8
  store ptr %0, ptr %2, align 8
  call void @llvm.dbg.declare(metadata ptr %2, metadata !4337, metadata !DIExpression()), !dbg !4338
  %3 = load ptr, ptr %2, align 8, !dbg !4339
  %4 = getelementptr inbounds %"struct.std::_Rb_tree_node_base", ptr %3, i32 0, i32 2, !dbg !4340
  %5 = load ptr, ptr %4, align 8, !dbg !4340
  ret ptr %5, !dbg !4341
}

; Function Attrs: mustprogress noinline nounwind uwtable
define linkonce_odr dso_local noundef ptr @_ZNSt8_Rb_treeINSt7__cxx1112basic_stringIcSt11char_traitsIcESaIcEEESt4pairIKS5_iESt10_Select1stIS8_ESt4lessIS5_ESaIS8_EE8_S_rightEPKSt18_Rb_tree_node_base(ptr noundef %0) #3 comdat align 2 !dbg !4342 {
  %2 = alloca ptr, align 8
  store ptr %0, ptr %2, align 8
  call void @llvm.dbg.declare(metadata ptr %2, metadata !4344, metadata !DIExpression()), !dbg !4345
  %3 = load ptr, ptr %2, align 8, !dbg !4346
  %4 = getelementptr inbounds %"struct.std::_Rb_tree_node_base", ptr %3, i32 0, i32 3, !dbg !4347
  %5 = load ptr, ptr %4, align 8, !dbg !4347
  ret ptr %5, !dbg !4348
}

; Function Attrs: noinline nounwind uwtable
define linkonce_odr dso_local void @_ZNSt23_Rb_tree_const_iteratorISt4pairIKNSt7__cxx1112basic_stringIcSt11char_traitsIcESaIcEEEiEEC2EPKSt18_Rb_tree_node_base(ptr noundef nonnull align 8 dereferenceable(8) %0, ptr noundef %1) unnamed_addr #4 comdat align 2 !dbg !4349 {
  %3 = alloca ptr, align 8
  %4 = alloca ptr, align 8
  store ptr %0, ptr %3, align 8
  call void @llvm.dbg.declare(metadata ptr %3, metadata !4350, metadata !DIExpression()), !dbg !4352
  store ptr %1, ptr %4, align 8
  call void @llvm.dbg.declare(metadata ptr %4, metadata !4353, metadata !DIExpression()), !dbg !4354
  %5 = load ptr, ptr %3, align 8
  %6 = getelementptr inbounds %"struct.std::_Rb_tree_const_iterator", ptr %5, i32 0, i32 0, !dbg !4355
  %7 = load ptr, ptr %4, align 8, !dbg !4356
  store ptr %7, ptr %6, align 8, !dbg !4355
  ret void, !dbg !4357
}

; Function Attrs: mustprogress noinline nounwind uwtable
define linkonce_odr dso_local noundef nonnull align 8 dereferenceable(32) ptr @_ZNKSt10_Select1stISt4pairIKNSt7__cxx1112basic_stringIcSt11char_traitsIcESaIcEEEiEEclERKS8_(ptr noundef nonnull align 1 dereferenceable(1) %0, ptr noundef nonnull align 8 dereferenceable(36) %1) #3 comdat align 2 !dbg !4358 {
  %3 = alloca ptr, align 8
  %4 = alloca ptr, align 8
  store ptr %0, ptr %3, align 8
  call void @llvm.dbg.declare(metadata ptr %3, metadata !4380, metadata !DIExpression()), !dbg !4382
  store ptr %1, ptr %4, align 8
  call void @llvm.dbg.declare(metadata ptr %4, metadata !4383, metadata !DIExpression()), !dbg !4384
  %5 = load ptr, ptr %3, align 8
  %6 = load ptr, ptr %4, align 8, !dbg !4385
  %7 = getelementptr inbounds %"struct.std::pair", ptr %6, i32 0, i32 0, !dbg !4386
  ret ptr %7, !dbg !4387
}

; Function Attrs: mustprogress noinline nounwind uwtable
define linkonce_odr dso_local noundef ptr @_ZNKSt13_Rb_tree_nodeISt4pairIKNSt7__cxx1112basic_stringIcSt11char_traitsIcESaIcEEEiEE9_M_valptrEv(ptr noundef nonnull align 8 dereferenceable(72) %0) #3 comdat align 2 !dbg !4388 {
  %2 = alloca ptr, align 8
  store ptr %0, ptr %2, align 8
  call void @llvm.dbg.declare(metadata ptr %2, metadata !4389, metadata !DIExpression()), !dbg !4390
  %3 = load ptr, ptr %2, align 8
  %4 = getelementptr inbounds %"struct.std::_Rb_tree_node", ptr %3, i32 0, i32 1, !dbg !4391
  %5 = call noundef ptr @_ZNK9__gnu_cxx16__aligned_membufISt4pairIKNSt7__cxx1112basic_stringIcSt11char_traitsIcESaIcEEEiEE6_M_ptrEv(ptr noundef nonnull align 8 dereferenceable(40) %4) #14, !dbg !4392
  ret ptr %5, !dbg !4393
}

; Function Attrs: mustprogress noinline nounwind uwtable
define linkonce_odr dso_local noundef ptr @_ZNK9__gnu_cxx16__aligned_membufISt4pairIKNSt7__cxx1112basic_stringIcSt11char_traitsIcESaIcEEEiEE6_M_ptrEv(ptr noundef nonnull align 8 dereferenceable(40) %0) #3 comdat align 2 !dbg !4394 {
  %2 = alloca ptr, align 8
  store ptr %0, ptr %2, align 8
  call void @llvm.dbg.declare(metadata ptr %2, metadata !4395, metadata !DIExpression()), !dbg !4397
  %3 = load ptr, ptr %2, align 8
  %4 = call noundef ptr @_ZNK9__gnu_cxx16__aligned_membufISt4pairIKNSt7__cxx1112basic_stringIcSt11char_traitsIcESaIcEEEiEE7_M_addrEv(ptr noundef nonnull align 8 dereferenceable(40) %3) #14, !dbg !4398
  ret ptr %4, !dbg !4399
}

; Function Attrs: mustprogress noinline nounwind uwtable
define linkonce_odr dso_local noundef ptr @_ZNK9__gnu_cxx16__aligned_membufISt4pairIKNSt7__cxx1112basic_stringIcSt11char_traitsIcESaIcEEEiEE7_M_addrEv(ptr noundef nonnull align 8 dereferenceable(40) %0) #3 comdat align 2 !dbg !4400 {
  %2 = alloca ptr, align 8
  store ptr %0, ptr %2, align 8
  call void @llvm.dbg.declare(metadata ptr %2, metadata !4401, metadata !DIExpression()), !dbg !4402
  %3 = load ptr, ptr %2, align 8
  %4 = getelementptr inbounds %"struct.__gnu_cxx::__aligned_membuf", ptr %3, i32 0, i32 0, !dbg !4403
  ret ptr %4, !dbg !4404
}

; Function Attrs: mustprogress noinline nounwind uwtable
define linkonce_odr dso_local noundef zeroext i1 @_ZStltIcSt11char_traitsIcESaIcEEbRKNSt7__cxx1112basic_stringIT_T0_T1_EESA_(ptr noundef nonnull align 8 dereferenceable(32) %0, ptr noundef nonnull align 8 dereferenceable(32) %1) #3 comdat personality ptr @__gxx_personality_v0 !dbg !4405 {
  %3 = alloca ptr, align 8
  %4 = alloca ptr, align 8
  store ptr %0, ptr %3, align 8
  call void @llvm.dbg.declare(metadata ptr %3, metadata !4463, metadata !DIExpression()), !dbg !4464
  store ptr %1, ptr %4, align 8
  call void @llvm.dbg.declare(metadata ptr %4, metadata !4465, metadata !DIExpression()), !dbg !4466
  %5 = load ptr, ptr %3, align 8, !dbg !4467
  %6 = load ptr, ptr %4, align 8, !dbg !4468
  %7 = invoke noundef i32 @_ZNKSt7__cxx1112basic_stringIcSt11char_traitsIcESaIcEE7compareERKS4_(ptr noundef nonnull align 8 dereferenceable(32) %5, ptr noundef nonnull align 8 dereferenceable(32) %6)
          to label %8 unwind label %10, !dbg !4469

8:                                                ; preds = %2
  %9 = icmp slt i32 %7, 0, !dbg !4470
  ret i1 %9, !dbg !4471

10:                                               ; preds = %2
  %11 = landingpad { ptr, i32 }
          catch ptr null, !dbg !4469
  %12 = extractvalue { ptr, i32 } %11, 0, !dbg !4469
  call void @__clang_call_terminate(ptr %12) #15, !dbg !4469
  unreachable, !dbg !4469
}

declare noundef i32 @_ZNKSt7__cxx1112basic_stringIcSt11char_traitsIcESaIcEE7compareERKS4_(ptr noundef nonnull align 8 dereferenceable(32), ptr noundef nonnull align 8 dereferenceable(32)) #5

attributes #0 = { mustprogress noinline uwtable "frame-pointer"="all" "min-legal-vector-width"="0" "no-trapping-math"="true" "stack-protector-buffer-size"="8" "target-cpu"="x86-64" "target-features"="+cx8,+fxsr,+mmx,+sse,+sse2,+x87" "tune-cpu"="generic" }
attributes #1 = { nocallback nofree nosync nounwind speculatable willreturn memory(none) }
attributes #2 = { nounwind "frame-pointer"="all" "no-trapping-math"="true" "stack-protector-buffer-size"="8" "target-cpu"="x86-64" "target-features"="+cx8,+fxsr,+mmx,+sse,+sse2,+x87" "tune-cpu"="generic" }
attributes #3 = { mustprogress noinline nounwind uwtable "frame-pointer"="all" "min-legal-vector-width"="0" "no-trapping-math"="true" "stack-protector-buffer-size"="8" "target-cpu"="x86-64" "target-features"="+cx8,+fxsr,+mmx,+sse,+sse2,+x87" "tune-cpu"="generic" }
attributes #4 = { noinline nounwind uwtable "frame-pointer"="all" "min-legal-vector-width"="0" "no-trapping-math"="true" "stack-protector-buffer-size"="8" "target-cpu"="x86-64" "target-features"="+cx8,+fxsr,+mmx,+sse,+sse2,+x87" "tune-cpu"="generic" }
attributes #5 = { "frame-pointer"="all" "no-trapping-math"="true" "stack-protector-buffer-size"="8" "target-cpu"="x86-64" "target-features"="+cx8,+fxsr,+mmx,+sse,+sse2,+x87" "tune-cpu"="generic" }
attributes #6 = { nocallback nofree nounwind willreturn memory(argmem: write) }
attributes #7 = { noreturn "frame-pointer"="all" "no-trapping-math"="true" "stack-protector-buffer-size"="8" "target-cpu"="x86-64" "target-features"="+cx8,+fxsr,+mmx,+sse,+sse2,+x87" "tune-cpu"="generic" }
attributes #8 = { noinline noreturn nounwind "frame-pointer"="all" "no-trapping-math"="true" "stack-protector-buffer-size"="8" "target-cpu"="x86-64" "target-features"="+cx8,+fxsr,+mmx,+sse,+sse2,+x87" "tune-cpu"="generic" }
attributes #9 = { nobuiltin allocsize(0) "frame-pointer"="all" "no-trapping-math"="true" "stack-protector-buffer-size"="8" "target-cpu"="x86-64" "target-features"="+cx8,+fxsr,+mmx,+sse,+sse2,+x87" "tune-cpu"="generic" }
attributes #10 = { nocallback nofree nounwind willreturn memory(argmem: readwrite) }
attributes #11 = { nobuiltin nounwind "frame-pointer"="all" "no-trapping-math"="true" "stack-protector-buffer-size"="8" "target-cpu"="x86-64" "target-features"="+cx8,+fxsr,+mmx,+sse,+sse2,+x87" "tune-cpu"="generic" }
attributes #12 = { nounwind willreturn memory(none) "frame-pointer"="all" "no-trapping-math"="true" "stack-protector-buffer-size"="8" "target-cpu"="x86-64" "target-features"="+cx8,+fxsr,+mmx,+sse,+sse2,+x87" "tune-cpu"="generic" }
attributes #13 = { noinline uwtable "frame-pointer"="all" "min-legal-vector-width"="0" "no-trapping-math"="true" "stack-protector-buffer-size"="8" "target-cpu"="x86-64" "target-features"="+cx8,+fxsr,+mmx,+sse,+sse2,+x87" "tune-cpu"="generic" }
attributes #14 = { nounwind }
attributes #15 = { noreturn nounwind }
attributes #16 = { noreturn }
attributes #17 = { allocsize(0) }
attributes #18 = { nounwind willreturn memory(none) }

!llvm.dbg.cu = !{!25}
!llvm.module.flags = !{!2228, !2229, !2230, !2231, !2232, !2233, !2234}
!llvm.ident = !{!2235}

!0 = !DIGlobalVariableExpression(var: !1, expr: !DIExpression())
!1 = distinct !DIGlobalVariable(scope: null, file: !2, line: 160, type: !3, isLocal: true, isDefinition: true)
!2 = !DIFile(filename: "common/Protocol.cpp", directory: "/home/raj/sme2", checksumkind: CSK_MD5, checksum: "a66bf462960b8024435d4007b86b705e")
!3 = !DICompositeType(tag: DW_TAG_array_type, baseType: !4, size: 24, elements: !6)
!4 = !DIDerivedType(tag: DW_TAG_const_type, baseType: !5)
