; ModuleID = 'wsd/QuarantineUtil.cpp'
source_filename = "wsd/QuarantineUtil.cpp"
target datalayout = "e-m:e-p270:32:32-p271:32:32-p272:64:64-i64:64-f80:128-n8:16:32:64-S128"
target triple = "x86_64-unknown-linux-gnu"

%"class.std::ios_base::Init" = type { i8 }
%"struct.Log::_end_marker" = type { i8 }
%"class.std::__cxx11::basic_string" = type { %"struct.std::__cxx11::basic_string<char>::_Alloc_hider", i64, %union.anon.0 }
%"struct.std::__cxx11::basic_string<char>::_Alloc_hider" = type { ptr }
%union.anon.0 = type { i64, [8 x i8] }
%"class.std::unordered_map" = type { %"class.std::_Hashtable" }
%"class.std::_Hashtable" = type { ptr, i64, %"struct.std::__detail::_Hash_node_base", i64, %"struct.std::__detail::_Prime_rehash_policy", ptr }
%"struct.std::__detail::_Hash_node_base" = type { ptr }
%"struct.std::__detail::_Prime_rehash_policy" = type { float, i64 }
%"struct.std::piecewise_construct_t" = type { i8 }
%"class.Poco::Net::IPAddress" = type { %"class.Poco::AutoPtr" }
%"class.Poco::AutoPtr" = type { ptr }
%"class.Poco::Net::Impl::IPv4SocketAddressImpl" = type { %"class.Poco::Net::Impl::SocketAddressImpl.base", %struct.sockaddr_in, [4 x i8] }
%"class.Poco::Net::Impl::SocketAddressImpl.base" = type { %"class.Poco::RefCountedObject.base" }
%"class.Poco::RefCountedObject.base" = type <{ ptr, %"class.Poco::AtomicCounter" }>
%"class.Poco::AtomicCounter" = type { %"struct.std::atomic" }
%"struct.std::atomic" = type { %"struct.std::__atomic_base" }
%"struct.std::__atomic_base" = type { i32 }
%struct.sockaddr_in = type { i16, i16, %struct.in_addr, [8 x i8] }
%struct.in_addr = type { i32 }
%"class.Poco::Net::Impl::IPv6SocketAddressImpl" = type { %"class.Poco::Net::Impl::SocketAddressImpl.base", %struct.sockaddr_in6 }
%struct.sockaddr_in6 = type { i16, i16, i32, %struct.in6_addr, i32 }
%struct.in6_addr = type { %union.anon }
%union.anon = type { [4 x i32] }
%"class.std::allocator" = type { i8 }
%"struct.std::forward_iterator_tag" = type { i8 }
%"struct.std::random_access_iterator_tag" = type { i8 }
%"class.std::vector" = type { %"struct.std::_Vector_base" }
%"struct.std::_Vector_base" = type { %"struct.std::_Vector_base<std::__cxx11::basic_string<char>, std::allocator<std::__cxx11::basic_string<char>>>::_Vector_impl" }
%"struct.std::_Vector_base<std::__cxx11::basic_string<char>, std::allocator<std::__cxx11::basic_string<char>>>::_Vector_impl" = type { %"struct.std::_Vector_base<std::__cxx11::basic_string<char>, std::allocator<std::__cxx11::basic_string<char>>>::_Vector_impl_data" }
%"struct.std::_Vector_base<std::__cxx11::basic_string<char>, std::allocator<std::__cxx11::basic_string<char>>>::_Vector_impl_data" = type { ptr, ptr, ptr }
%"class.Poco::File" = type { %"class.Poco::FileImpl" }
%"class.Poco::FileImpl" = type { ptr, %"class.std::__cxx11::basic_string" }
%"class.std::vector.9" = type { %"struct.std::_Vector_base.10" }
%"struct.std::_Vector_base.10" = type { %"struct.std::_Vector_base<StringToken, std::allocator<StringToken>>::_Vector_impl" }
%"struct.std::_Vector_base<StringToken, std::allocator<StringToken>>::_Vector_impl" = type { %"struct.std::_Vector_base<StringToken, std::allocator<StringToken>>::_Vector_impl_data" }
%"struct.std::_Vector_base<StringToken, std::allocator<StringToken>>::_Vector_impl_data" = type { ptr, ptr, ptr }
%"class.__gnu_cxx::__normal_iterator" = type { ptr }
%struct.StringToken = type { i64, i64 }
%"struct.__gnu_cxx::__ops::_Iter_less_iter" = type { i8 }
%"class.FileUtil::Stat" = type { %"class.std::__cxx11::basic_string", %struct.stat, i32, i32 }
%struct.stat = type { i64, i64, i64, i32, i32, i32, i32, i64, i64, i64, i64, %struct.timespec, %struct.timespec, %struct.timespec, [3 x i64] }
%struct.timespec = type { i64, i64 }
%"struct.std::chrono::time_point" = type { %"struct.std::chrono::duration" }
%"struct.std::chrono::duration" = type { i64 }
%"struct.std::chrono::duration.14" = type { i64 }
%"class.__gnu_cxx::__normal_iterator.15" = type { ptr }
%"struct.std::chrono::duration.173" = type { i64 }
%"class.std::__cxx11::basic_ostringstream" = type { %"class.std::basic_ostream.base", %"class.std::__cxx11::basic_stringbuf", %"class.std::basic_ios" }
%"class.std::basic_ostream.base" = type { ptr }
%"class.std::__cxx11::basic_stringbuf" = type { %"class.std::basic_streambuf", i32, %"class.std::__cxx11::basic_string" }
%"class.std::basic_streambuf" = type { ptr, ptr, ptr, ptr, ptr, ptr, ptr, %"class.std::locale" }
%"class.std::locale" = type { ptr }
%"class.std::basic_ios" = type { %"class.std::ios_base", ptr, i8, i8, ptr, ptr, ptr, ptr }
%"class.std::ios_base" = type { ptr, i64, i64, i32, i32, i32, ptr, %"struct.std::ios_base::_Words", [8 x %"struct.std::ios_base::_Words"], i32, ptr, %"class.std::locale" }
%"struct.std::ios_base::_Words" = type { ptr, i64 }
%"class.Poco::Message" = type { %"class.std::__cxx11::basic_string", %"class.std::__cxx11::basic_string", i32, %"class.Poco::Timestamp", i64, %"class.std::__cxx11::basic_string", i64, ptr, i32, ptr }
%"class.Poco::Timestamp" = type { i64 }
%class.DocumentBroker = type { ptr, %"class.std::enable_shared_from_this", %"struct.std::chrono::duration.14", %"class.std::__cxx11::basic_string", i32, %"class.Poco::URI", %"class.std::__cxx11::basic_string", %"class.std::__cxx11::basic_string", %"class.std::shared_ptr", %"class.std::__cxx11::basic_string", %"class.std::__cxx11::basic_string", %"class.std::__cxx11::basic_string", %"class.std::__cxx11::basic_string", %"class.DocumentBroker::DocumentState", i8, [3 x i8], %"class.DocumentBroker::SaveManager", %"class.std::unique_ptr", %"class.DocumentBroker::StorageManager", %class.SessionMap, %"class.std::set", %"class.std::unique_ptr.96", %"class.std::unique_ptr.104", %"struct.std::atomic.36", i32, i32, i32, i32, %"class.std::mutex", %"class.std::unique_ptr.147", %"struct.std::atomic.36", %"class.std::__cxx11::basic_string", %"class.std::unique_ptr.155", %"class.std::__cxx11::basic_string", %"class.std::__cxx11::basic_string", %"class.std::__cxx11::basic_string", %"struct.std::atomic.163", i32, %"struct.std::chrono::time_point.33", %"struct.std::chrono::time_point.33", %"struct.std::chrono::duration.165", %"struct.std::chrono::duration.165", i32, %"class.std::map.166" }
%"class.std::enable_shared_from_this" = type { %"class.std::weak_ptr" }
%"class.std::weak_ptr" = type { %"class.std::__weak_ptr" }
%"class.std::__weak_ptr" = type { ptr, %"class.std::__weak_count" }
%"class.std::__weak_count" = type { ptr }
%"class.Poco::URI" = type { %"class.std::__cxx11::basic_string", %"class.std::__cxx11::basic_string", %"class.std::__cxx11::basic_string", i16, %"class.std::__cxx11::basic_string", %"class.std::__cxx11::basic_string", %"class.std::__cxx11::basic_string" }
%"class.std::shared_ptr" = type { %"class.std::__shared_ptr" }
%"class.std::__shared_ptr" = type { ptr, %"class.std::__shared_count" }
%"class.std::__shared_count" = type { ptr }
%"class.DocumentBroker::DocumentState" = type { i32, i32, %"struct.std::atomic.36", %"struct.std::atomic.36", %"struct.std::atomic.36", i8 }
%"class.DocumentBroker::SaveManager" = type <{ %"class.DocumentBroker::RequestManager", %"struct.std::chrono::duration.14", %"struct.std::chrono::time_point.33", i8, [7 x i8] }>
%"class.DocumentBroker::RequestManager" = type <{ %"struct.std::chrono::time_point.33", %"struct.std::chrono::time_point.33", %"struct.std::chrono::time_point", i8, [7 x i8] }>
%"class.std::unique_ptr" = type { %"struct.std::__uniq_ptr_data" }
%"struct.std::__uniq_ptr_data" = type { %"class.std::__uniq_ptr_impl" }
%"class.std::__uniq_ptr_impl" = type { %"class.std::tuple" }
%"class.std::tuple" = type { %"struct.std::_Tuple_impl" }
%"struct.std::_Tuple_impl" = type { %"struct.std::_Head_base.42" }
%"struct.std::_Head_base.42" = type { ptr }
%"class.DocumentBroker::StorageManager" = type { %"class.DocumentBroker::RequestManager", %"struct.std::chrono::time_point.33", %"struct.std::chrono::time_point" }
%class.SessionMap = type { %"class.std::map.82", %"class.std::map.87" }
%"class.std::map.82" = type { %"class.std::_Rb_tree.83" }
%"class.std::_Rb_tree.83" = type { %"struct.std::_Rb_tree<std::__cxx11::basic_string<char>, std::pair<const std::__cxx11::basic_string<char>, std::shared_ptr<ClientSession>>, std::_Select1st<std::pair<const std::__cxx11::basic_string<char>, std::shared_ptr<ClientSession>>>, std::less<std::__cxx11::basic_string<char>>>::_Rb_tree_impl" }
%"struct.std::_Rb_tree<std::__cxx11::basic_string<char>, std::pair<const std::__cxx11::basic_string<char>, std::shared_ptr<ClientSession>>, std::_Select1st<std::pair<const std::__cxx11::basic_string<char>, std::shared_ptr<ClientSession>>>, std::less<std::__cxx11::basic_string<char>>>::_Rb_tree_impl" = type { %"struct.std::_Rb_tree_key_compare", %"struct.std::_Rb_tree_header" }
%"struct.std::_Rb_tree_key_compare" = type { %"struct.std::less" }
%"struct.std::less" = type { i8 }
%"struct.std::_Rb_tree_header" = type { %"struct.std::_Rb_tree_node_base", i64 }
%"struct.std::_Rb_tree_node_base" = type { i32, ptr, ptr, ptr }
%"class.std::map.87" = type { %"class.std::_Rb_tree.88" }
%"class.std::_Rb_tree.88" = type { %"struct.std::_Rb_tree<std::__cxx11::basic_string<char>, std::pair<const std::__cxx11::basic_string<char>, int>, std::_Select1st<std::pair<const std::__cxx11::basic_string<char>, int>>, std::less<std::__cxx11::basic_string<char>>>::_Rb_tree_impl" }
%"struct.std::_Rb_tree<std::__cxx11::basic_string<char>, std::pair<const std::__cxx11::basic_string<char>, int>, std::_Select1st<std::pair<const std::__cxx11::basic_string<char>, int>>, std::less<std::__cxx11::basic_string<char>>>::_Rb_tree_impl" = type { %"struct.std::_Rb_tree_key_compare", %"struct.std::_Rb_tree_header" }
%"class.std::set" = type { %"class.std::_Rb_tree.92" }
%"class.std::_Rb_tree.92" = type { %"struct.std::_Rb_tree<std::__cxx11::basic_string<char>, std::__cxx11::basic_string<char>, std::_Identity<std::__cxx11::basic_string<char>>, std::less<std::__cxx11::basic_string<char>>>::_Rb_tree_impl" }
%"struct.std::_Rb_tree<std::__cxx11::basic_string<char>, std::__cxx11::basic_string<char>, std::_Identity<std::__cxx11::basic_string<char>>, std::less<std::__cxx11::basic_string<char>>>::_Rb_tree_impl" = type { %"struct.std::_Rb_tree_key_compare", %"struct.std::_Rb_tree_header" }
%"class.std::unique_ptr.96" = type { %"struct.std::__uniq_ptr_data.97" }
%"struct.std::__uniq_ptr_data.97" = type { %"class.std::__uniq_ptr_impl.98" }
%"class.std::__uniq_ptr_impl.98" = type { %"class.std::tuple.99" }
%"class.std::tuple.99" = type { %"struct.std::_Tuple_impl.100" }
%"struct.std::_Tuple_impl.100" = type { %"struct.std::_Head_base.103" }
%"struct.std::_Head_base.103" = type { ptr }
%"class.std::unique_ptr.104" = type { %"struct.std::__uniq_ptr_data.105" }
%"struct.std::__uniq_ptr_data.105" = type { %"class.std::__uniq_ptr_impl.106" }
%"class.std::__uniq_ptr_impl.106" = type { %"class.std::tuple.107" }
%"class.std::tuple.107" = type { %"struct.std::_Tuple_impl.108" }
%"struct.std::_Tuple_impl.108" = type { %"struct.std::_Head_base.111" }
%"struct.std::_Head_base.111" = type { ptr }
%"class.std::mutex" = type { %"class.std::__mutex_base" }
%"class.std::__mutex_base" = type { %union.pthread_mutex_t }
%union.pthread_mutex_t = type { %struct.__pthread_mutex_s }
%struct.__pthread_mutex_s = type { i32, i32, i32, i32, i32, i16, i16, %struct.__pthread_internal_list }
%struct.__pthread_internal_list = type { ptr, ptr }
%"class.std::unique_ptr.147" = type { %"struct.std::__uniq_ptr_data.148" }
%"struct.std::__uniq_ptr_data.148" = type { %"class.std::__uniq_ptr_impl.149" }
%"class.std::__uniq_ptr_impl.149" = type { %"class.std::tuple.150" }
%"class.std::tuple.150" = type { %"struct.std::_Tuple_impl.151" }
%"struct.std::_Tuple_impl.151" = type { %"struct.std::_Head_base.154" }
%"struct.std::_Head_base.154" = type { ptr }
%"struct.std::atomic.36" = type { %"struct.std::__atomic_base.37" }
%"struct.std::__atomic_base.37" = type { i8 }
%"class.std::unique_ptr.155" = type { %"struct.std::__uniq_ptr_data.156" }
%"struct.std::__uniq_ptr_data.156" = type { %"class.std::__uniq_ptr_impl.157" }
%"class.std::__uniq_ptr_impl.157" = type { %"class.std::tuple.158" }
%"class.std::tuple.158" = type { %"struct.std::_Tuple_impl.159" }
%"struct.std::_Tuple_impl.159" = type { %"struct.std::_Head_base.162" }
%"struct.std::_Head_base.162" = type { ptr }
%"struct.std::atomic.163" = type { %"struct.std::__atomic_base.164" }
%"struct.std::__atomic_base.164" = type { i64 }
%"struct.std::chrono::time_point.33" = type { %"struct.std::chrono::duration" }
%"struct.std::chrono::duration.165" = type { i64 }
%"class.std::map.166" = type { %"class.std::_Rb_tree.167" }
%"class.std::_Rb_tree.167" = type { %"struct.std::_Rb_tree<std::__cxx11::basic_string<char>, std::pair<const std::__cxx11::basic_string<char>, std::__cxx11::basic_string<char>>, std::_Select1st<std::pair<const std::__cxx11::basic_string<char>, std::__cxx11::basic_string<char>>>, std::less<std::__cxx11::basic_string<char>>>::_Rb_tree_impl" }
%"struct.std::_Rb_tree<std::__cxx11::basic_string<char>, std::pair<const std::__cxx11::basic_string<char>, std::__cxx11::basic_string<char>>, std::_Select1st<std::pair<const std::__cxx11::basic_string<char>, std::__cxx11::basic_string<char>>>, std::less<std::__cxx11::basic_string<char>>>::_Rb_tree_impl" = type { %"struct.std::_Rb_tree_key_compare", %"struct.std::_Rb_tree_header" }
%"class.Poco::Logger" = type <{ %"class.Poco::Channel.base", [4 x i8], %"class.std::__cxx11::basic_string", %"class.Poco::AutoPtr.171", i32, [4 x i8] }>
%"class.Poco::Channel.base" = type <{ %"class.Poco::Configurable", %"class.Poco::RefCountedObject.base" }>
%"class.Poco::Configurable" = type { ptr }
%"class.Poco::AutoPtr.171" = type { ptr }
%"class.Poco::LocalDateTime" = type <{ %"class.Poco::DateTime", i32, [4 x i8] }>
%"class.Poco::DateTime" = type { i64, i16, i16, i16, i16, i16, i16, i16, i16 }
%"class.__gnu_cxx::__normal_iterator.172" = type { ptr }
%"struct.std::integral_constant" = type { i8 }
%class.WSProcess = type { ptr, %"class.std::__cxx11::basic_string", i32, %"class.std::shared_ptr.16", %"class.std::shared_ptr.38" }
%"class.std::shared_ptr.16" = type { %"class.std::__shared_ptr.17" }
%"class.std::__shared_ptr.17" = type { ptr, %"class.std::__shared_count" }
%"class.std::shared_ptr.38" = type { %"class.std::__shared_ptr.39" }
%"class.std::__shared_ptr.39" = type { ptr, %"class.std::__shared_count" }
%"class.Poco::Util::Application" = type { %"class.Poco::Util::Subsystem.base", %"class.Poco::AutoPtr.204", %"class.std::vector.205", i8, %"class.std::__cxx11::basic_string", %"class.std::vector", %"class.std::vector", %"class.Poco::Util::OptionSet", i8, ptr, %"class.Poco::Timestamp", i8, %"class.std::__cxx11::basic_string" }
%"class.Poco::Util::Subsystem.base" = type { %"class.Poco::RefCountedObject.base" }
%"class.Poco::AutoPtr.204" = type { ptr }
%"class.std::vector.205" = type { %"struct.std::_Vector_base.206" }
%"struct.std::_Vector_base.206" = type { %"struct.std::_Vector_base<Poco::AutoPtr<Poco::Util::Subsystem>, std::allocator<Poco::AutoPtr<Poco::Util::Subsystem>>>::_Vector_impl" }
%"struct.std::_Vector_base<Poco::AutoPtr<Poco::Util::Subsystem>, std::allocator<Poco::AutoPtr<Poco::Util::Subsystem>>>::_Vector_impl" = type { %"struct.std::_Vector_base<Poco::AutoPtr<Poco::Util::Subsystem>, std::allocator<Poco::AutoPtr<Poco::Util::Subsystem>>>::_Vector_impl_data" }
%"struct.std::_Vector_base<Poco::AutoPtr<Poco::Util::Subsystem>, std::allocator<Poco::AutoPtr<Poco::Util::Subsystem>>>::_Vector_impl_data" = type { ptr, ptr, ptr }
%"class.Poco::Util::OptionSet" = type { %"class.std::vector.211" }
%"class.std::vector.211" = type { %"struct.std::_Vector_base.212" }
%"struct.std::_Vector_base.212" = type { %"struct.std::_Vector_base<Poco::Util::Option, std::allocator<Poco::Util::Option>>::_Vector_impl" }
%"struct.std::_Vector_base<Poco::Util::Option, std::allocator<Poco::Util::Option>>::_Vector_impl" = type { %"struct.std::_Vector_base<Poco::Util::Option, std::allocator<Poco::Util::Option>>::_Vector_impl_data" }
%"struct.std::_Vector_base<Poco::Util::Option, std::allocator<Poco::Util::Option>>::_Vector_impl_data" = type { ptr, ptr, ptr }
%"class.COOLWSD::ConfigValueGetter" = type { ptr, ptr }
%"struct.std::__detail::_Hash_node_value_base" = type { %"struct.__gnu_cxx::__aligned_buffer" }
%"struct.__gnu_cxx::__aligned_buffer" = type { %"union.std::aligned_storage<56, 8>::type" }
%"union.std::aligned_storage<56, 8>::type" = type { [56 x i8] }
%"struct.std::pair.217" = type { %"class.std::__cxx11::basic_string", %"class.std::vector" }
%"struct.__gnu_cxx::__ops::_Iter_less_val" = type { i8 }
%"struct.__gnu_cxx::__ops::_Val_less_iter" = type { i8 }
%"struct.std::_Hashtable<std::__cxx11::basic_string<char>, std::pair<const std::__cxx11::basic_string<char>, std::vector<std::__cxx11::basic_string<char>>>, std::allocator<std::pair<const std::__cxx11::basic_string<char>, std::vector<std::__cxx11::basic_string<char>>>>, std::__detail::_Select1st, std::equal_to<std::__cxx11::basic_string<char>>, std::hash<string>, std::__detail::_Mod_range_hashing, std::__detail::_Default_ranged_hash, std::__detail::_Prime_rehash_policy, std::__detail::_Hashtable_traits<true, false, true>>::_Scoped_node" = type { ptr, ptr }
%"class.std::tuple.219" = type { %"struct.std::_Tuple_impl.220" }
%"struct.std::_Tuple_impl.220" = type { %"struct.std::_Head_base.221" }
%"struct.std::_Head_base.221" = type { ptr }
%"class.std::tuple.222" = type { i8 }
%"struct.std::__detail::_Node_iterator" = type { %"struct.std::__detail::_Node_iterator_base" }
%"struct.std::__detail::_Node_iterator_base" = type { ptr }
%"struct.std::pair.224" = type { i8, i64 }
%"struct.std::__detail::_Mod_range_hashing" = type { i8 }
%"struct.std::__detail::_Select1st" = type { i8 }
%"struct.std::__detail::_Hash_node_code_cache" = type { i64 }
%"struct.std::_Index_tuple" = type { i8 }
%"struct.std::_Index_tuple.223" = type { i8 }
%"class.std::allocator.226" = type { i8 }

$_ZN3Log11_end_markerC2Ev = comdat any

$_ZNK4Poco3Net4Impl21IPv4SocketAddressImpl4hostEv = comdat any

$_ZNK4Poco3Net4Impl21IPv6SocketAddressImpl4hostEv = comdat any

$_ZN7COOLWSD14getConfigValueIbEET_RKNSt7__cxx1112basic_stringIcSt11char_traitsIcESaIcEEES1_ = comdat any

$_ZNSt7__cxx1112basic_stringIcSt11char_traitsIcESaIcEEC2IS3_EEPKcRKS3_ = comdat any

$_ZNSt6vectorINSt7__cxx1112basic_stringIcSt11char_traitsIcESaIcEEESaIS5_EEC2Ev = comdat any

$_ZNSt13unordered_mapINSt7__cxx1112basic_stringIcSt11char_traitsIcESaIcEEESt6vectorIS5_SaIS5_EESt4hashIS5_ESt8equal_toIS5_ESaISt4pairIKS5_S8_EEE5clearEv = comdat any

$_ZNSt6vectorI11StringTokenSaIS0_EEC2Ev = comdat any

$_ZSt4sortIN9__gnu_cxx17__normal_iteratorIPNSt7__cxx1112basic_stringIcSt11char_traitsIcESaIcEEESt6vectorIS7_SaIS7_EEEEEvT_SD_ = comdat any

$_ZNSt6vectorINSt7__cxx1112basic_stringIcSt11char_traitsIcESaIcEEESaIS5_EE5beginEv = comdat any

$_ZNSt6vectorINSt7__cxx1112basic_stringIcSt11char_traitsIcESaIcEEESaIS5_EE3endEv = comdat any

$_ZN9__gnu_cxxneIPNSt7__cxx1112basic_stringIcSt11char_traitsIcESaIcEEESt6vectorIS6_SaIS6_EEEEbRKNS_17__normal_iteratorIT_T0_EESG_ = comdat any

$_ZNK9__gnu_cxx17__normal_iteratorIPNSt7__cxx1112basic_stringIcSt11char_traitsIcESaIcEEESt6vectorIS6_SaIS6_EEEdeEv = comdat any

$_ZN4Util8tokenizeEPKcmcRSt6vectorI11StringTokenSaIS3_EE = comdat any

$_ZNSt6vectorI11StringTokenSaIS0_EEixEm = comdat any

$_ZNSt13unordered_mapINSt7__cxx1112basic_stringIcSt11char_traitsIcESaIcEEESt6vectorIS5_SaIS5_EESt4hashIS5_ESt8equal_toIS5_ESaISt4pairIKS5_S8_EEEixERSE_ = comdat any

$_ZNSt6vectorINSt7__cxx1112basic_stringIcSt11char_traitsIcESaIcEEESaIS5_EE12emplace_backIJS5_EEERS5_DpOT_ = comdat any

$_ZStplIcSt11char_traitsIcESaIcEENSt7__cxx1112basic_stringIT_T0_T1_EERKS8_SA_ = comdat any

$_ZNSt6vectorI11StringTokenSaIS0_EE5clearEv = comdat any

$_ZN9__gnu_cxx17__normal_iteratorIPNSt7__cxx1112basic_stringIcSt11char_traitsIcESaIcEEESt6vectorIS6_SaIS6_EEEppEv = comdat any

$_ZNSt6vectorI11StringTokenSaIS0_EED2Ev = comdat any

$_ZNSt6vectorINSt7__cxx1112basic_stringIcSt11char_traitsIcESaIcEEESaIS5_EED2Ev = comdat any

$_ZN8FileUtil4StatC2ERKNSt7__cxx1112basic_stringIcSt11char_traitsIcESaIcEEEb = comdat any

$_ZNK8FileUtil4Stat13hardLinkCountEv = comdat any

$_ZNK8FileUtil4Stat4sizeEv = comdat any

$_ZN8FileUtil4StatD2Ev = comdat any

$_ZN7COOLWSD14getConfigValueImEET_RKNSt7__cxx1112basic_stringIcSt11char_traitsIcESaIcEEES1_ = comdat any

$_ZNSt6chrono13duration_castINS_8durationIlSt5ratioILl1ELl1EEEElS2_ILl1ELl1000000000EEEENSt9enable_ifIXsr13__is_durationIT_EE5valueES7_E4typeERKNS1_IT0_T1_EE = comdat any

$_ZNKSt6chrono10time_pointINS_3_V212system_clockENS_8durationIlSt5ratioILl1ELl1000000000EEEEE16time_since_epochEv = comdat any

$_ZNKSt6chrono8durationIlSt5ratioILl1ELl1EEE5countEv = comdat any

$_ZNKSt6vectorINSt7__cxx1112basic_stringIcSt11char_traitsIcESaIcEEESaIS5_EE5emptyEv = comdat any

$_ZNK8FileUtil4Stat17modifiedTimepointEv = comdat any

$_ZNSt6vectorINSt7__cxx1112basic_stringIcSt11char_traitsIcESaIcEEESaIS5_EE5eraseEN9__gnu_cxx17__normal_iteratorIPKS5_S7_EE = comdat any

$_ZN9__gnu_cxx17__normal_iteratorIPKNSt7__cxx1112basic_stringIcSt11char_traitsIcESaIcEEESt6vectorIS6_SaIS6_EEEC2IPS6_EERKNS0_IT_NS_11__enable_ifIXsr3std10__are_sameISF_SE_EE7__valueESB_E6__typeEEE = comdat any

$_ZN9__gnu_cxx17__normal_iteratorIPNSt7__cxx1112basic_stringIcSt11char_traitsIcESaIcEEESt6vectorIS6_SaIS6_EEEppEi = comdat any

$_ZNKSt6vectorINSt7__cxx1112basic_stringIcSt11char_traitsIcESaIcEEESaIS5_EE4sizeEv = comdat any

$_ZNSt6vectorINSt7__cxx1112basic_stringIcSt11char_traitsIcESaIcEEESaIS5_EEixEm = comdat any

$_ZNK14DocumentBroker9getDocKeyB5cxx11Ev = comdat any

$_ZNSt7__cxx119to_stringEl = comdat any

$_ZStplIcSt11char_traitsIcESaIcEENSt7__cxx1112basic_stringIT_T0_T1_EEOS8_RKS8_ = comdat any

$_ZStplIcSt11char_traitsIcESaIcEENSt7__cxx1112basic_stringIT_T0_T1_EEOS8_PKS5_ = comdat any

$_ZStplIcSt11char_traitsIcESaIcEENSt7__cxx1112basic_stringIT_T0_T1_EERKS8_PKS5_ = comdat any

$_ZNK14DocumentBroker9getJailIdB5cxx11Ev = comdat any

$_ZStplIcSt11char_traitsIcESaIcEENSt7__cxx1112basic_stringIT_T0_T1_EEOS8_S9_ = comdat any

$_ZNSt7__cxx119to_stringEi = comdat any

$_ZNK14DocumentBroker6getPidEv = comdat any

$_ZNSt6vectorINSt7__cxx1112basic_stringIcSt11char_traitsIcESaIcEEESaIS5_EE12emplace_backIJRS5_EEES9_DpOT_ = comdat any

$_ZN3Log16isShutdownCalledEv = comdat any

$_ZNK4Poco6Logger11informationEv = comdat any

$_ZN3Log6prefixILi1023EEEPcS1_PKc = comdat any

$_ZSt9boolalphaRSt8ios_base = comdat any

$_ZNK4Poco6Logger4nameB5cxx11Ev = comdat any

$_ZNK4Poco6Logger5errorEv = comdat any

$_ZN4Util13symbolicErrnoB5cxx11Ei = comdat any

$_ZN4Poco3Net4Impl21IPv4SocketAddressImplD2Ev = comdat any

$_ZN4Poco3Net4Impl21IPv4SocketAddressImplD0Ev = comdat any

$_ZNK4Poco3Net4Impl21IPv4SocketAddressImpl4portEv = comdat any

$_ZNK4Poco3Net4Impl21IPv4SocketAddressImpl6lengthEv = comdat any

$_ZNK4Poco3Net4Impl21IPv4SocketAddressImpl4addrEv = comdat any

$_ZNK4Poco3Net4Impl21IPv4SocketAddressImpl2afEv = comdat any

$_ZNK4Poco3Net4Impl21IPv4SocketAddressImpl6familyEv = comdat any

$_ZN4Poco3Net4Impl21IPv6SocketAddressImplD2Ev = comdat any

$_ZN4Poco3Net4Impl21IPv6SocketAddressImplD0Ev = comdat any

$_ZNK4Poco3Net4Impl21IPv6SocketAddressImpl4portEv = comdat any

$_ZNK4Poco3Net4Impl21IPv6SocketAddressImpl6lengthEv = comdat any

$_ZNK4Poco3Net4Impl21IPv6SocketAddressImpl4addrEv = comdat any

$_ZNK4Poco3Net4Impl21IPv6SocketAddressImpl2afEv = comdat any

$_ZNK4Poco3Net4Impl21IPv6SocketAddressImpl6familyEv = comdat any

$_ZNSt12_Vector_baseINSt7__cxx1112basic_stringIcSt11char_traitsIcESaIcEEESaIS5_EEC2Ev = comdat any

$_ZNSt12_Vector_baseINSt7__cxx1112basic_stringIcSt11char_traitsIcESaIcEEESaIS5_EE12_Vector_implC2Ev = comdat any

$_ZNSaINSt7__cxx1112basic_stringIcSt11char_traitsIcESaIcEEEEC2Ev = comdat any

$_ZNSt12_Vector_baseINSt7__cxx1112basic_stringIcSt11char_traitsIcESaIcEEESaIS5_EE17_Vector_impl_dataC2Ev = comdat any

$_ZN9__gnu_cxx13new_allocatorINSt7__cxx1112basic_stringIcSt11char_traitsIcESaIcEEEEC2Ev = comdat any

$_ZNSt12_Vector_baseI11StringTokenSaIS0_EEC2Ev = comdat any

$_ZNSt12_Vector_baseI11StringTokenSaIS0_EE12_Vector_implC2Ev = comdat any

$_ZNSaI11StringTokenEC2Ev = comdat any

$_ZNSt12_Vector_baseI11StringTokenSaIS0_EE17_Vector_impl_dataC2Ev = comdat any

$_ZN9__gnu_cxx13new_allocatorI11StringTokenEC2Ev = comdat any

$_ZNSt6vectorI11StringTokenSaIS0_EE7reserveEm = comdat any

$_ZNSt6vectorI11StringTokenSaIS0_EE12emplace_backIJllEEERS0_DpOT_ = comdat any

$_ZNKSt6vectorI11StringTokenSaIS0_EE8max_sizeEv = comdat any

$_ZNKSt6vectorI11StringTokenSaIS0_EE8capacityEv = comdat any

$_ZNKSt6vectorI11StringTokenSaIS0_EE4sizeEv = comdat any

$_ZNSt12_Vector_baseI11StringTokenSaIS0_EE11_M_allocateEm = comdat any

$_ZNSt6vectorI11StringTokenSaIS0_EE11_S_relocateEPS0_S3_S3_RS1_ = comdat any

$_ZNSt12_Vector_baseI11StringTokenSaIS0_EE19_M_get_Tp_allocatorEv = comdat any

$_ZNSt12_Vector_baseI11StringTokenSaIS0_EE13_M_deallocateEPS0_m = comdat any

$_ZNSt6vectorI11StringTokenSaIS0_EE11_S_max_sizeERKS1_ = comdat any

$_ZNKSt12_Vector_baseI11StringTokenSaIS0_EE19_M_get_Tp_allocatorEv = comdat any

$_ZNSt16allocator_traitsISaI11StringTokenEE8max_sizeERKS1_ = comdat any

$_ZSt3minImERKT_S2_S2_ = comdat any

$__clang_call_terminate = comdat any

$_ZNK9__gnu_cxx13new_allocatorI11StringTokenE8max_sizeEv = comdat any

$_ZNK9__gnu_cxx13new_allocatorI11StringTokenE11_M_max_sizeEv = comdat any

$_ZNSt16allocator_traitsISaI11StringTokenEE8allocateERS1_m = comdat any

$_ZN9__gnu_cxx13new_allocatorI11StringTokenE8allocateEmPKv = comdat any

$_ZNSt6vectorI11StringTokenSaIS0_EE14_S_do_relocateEPS0_S3_S3_RS1_St17integral_constantIbLb1EE = comdat any

$_ZSt12__relocate_aIP11StringTokenS1_SaIS0_EET0_T_S4_S3_RT1_ = comdat any

$_ZSt14__relocate_a_1I11StringTokenS0_ENSt9enable_ifIXsr3std24__is_bitwise_relocatableIT_EE5valueEPS2_E4typeES3_S3_S3_RSaIT0_E = comdat any

$_ZSt12__niter_baseIP11StringTokenET_S2_ = comdat any

$_ZNSt16allocator_traitsISaI11StringTokenEE10deallocateERS1_PS0_m = comdat any

$_ZN9__gnu_cxx13new_allocatorI11StringTokenE10deallocateEPS1_m = comdat any

$_ZNSt16allocator_traitsISaI11StringTokenEE9constructIS0_JllEEEvRS1_PT_DpOT0_ = comdat any

$_ZNSt6vectorI11StringTokenSaIS0_EE17_M_realloc_insertIJllEEEvN9__gnu_cxx17__normal_iteratorIPS0_S2_EEDpOT_ = comdat any

$_ZNSt6vectorI11StringTokenSaIS0_EE3endEv = comdat any

$_ZNSt6vectorI11StringTokenSaIS0_EE4backEv = comdat any

$_ZN9__gnu_cxx13new_allocatorI11StringTokenE9constructIS1_JllEEEvPT_DpOT0_ = comdat any

$_ZN11StringTokenC2Emm = comdat any

$_ZNKSt6vectorI11StringTokenSaIS0_EE12_M_check_lenEmPKc = comdat any

$_ZN9__gnu_cxxmiIP11StringTokenSt6vectorIS1_SaIS1_EEEENS_17__normal_iteratorIT_T0_E15difference_typeERKS9_SC_ = comdat any

$_ZNSt6vectorI11StringTokenSaIS0_EE5beginEv = comdat any

$_ZNK9__gnu_cxx17__normal_iteratorIP11StringTokenSt6vectorIS1_SaIS1_EEE4baseEv = comdat any

$_ZNSt16allocator_traitsISaI11StringTokenEE7destroyIS0_EEvRS1_PT_ = comdat any

$_ZSt8_DestroyIP11StringTokenS0_EvT_S2_RSaIT0_E = comdat any

$_ZSt3maxImERKT_S2_S2_ = comdat any

$_ZN9__gnu_cxx17__normal_iteratorIP11StringTokenSt6vectorIS1_SaIS1_EEEC2ERKS2_ = comdat any

$_ZN9__gnu_cxx13new_allocatorI11StringTokenE7destroyIS1_EEvPT_ = comdat any

$_ZSt8_DestroyIP11StringTokenEvT_S2_ = comdat any

$_ZNSt12_Destroy_auxILb1EE9__destroyIP11StringTokenEEvT_S4_ = comdat any

$_ZNK9__gnu_cxx17__normal_iteratorIP11StringTokenSt6vectorIS1_SaIS1_EEEmiEl = comdat any

$_ZNK9__gnu_cxx17__normal_iteratorIP11StringTokenSt6vectorIS1_SaIS1_EEEdeEv = comdat any

$_ZNSt6chrono20__duration_cast_implINS_8durationIlSt5ratioILl1ELl1EEEES2_ILl1ELl1000000000EElLb1ELb0EE6__castIlS5_EES4_RKNS1_IT_T0_EE = comdat any

$_ZNKSt6chrono8durationIlSt5ratioILl1ELl1000000000EEE5countEv = comdat any

$_ZNSt6chrono8durationIlSt5ratioILl1ELl1EEEC2IlvEERKT_ = comdat any

$_ZNK8FileUtil4Stat14modifiedTimeUsEv = comdat any

$_ZNSt6chrono8durationIlSt5ratioILl1ELl1000000EEEC2ImvEERKT_ = comdat any

$_ZNSt6chrono13duration_castINS_8durationIlSt5ratioILl1ELl1000000000EEEElS2_ILl1ELl1000000EEEENSt9enable_ifIXsr13__is_durationIT_EE5valueES7_E4typeERKNS1_IT0_T1_EE = comdat any

$_ZNSt6chrono10time_pointINS_3_V212system_clockENS_8durationIlSt5ratioILl1ELl1000000000EEEEEC2ERKS6_ = comdat any

$_ZNK8FileUtil4Stat12modifiedTimeEv = comdat any

$_ZNSt6chrono20__duration_cast_implINS_8durationIlSt5ratioILl1ELl1000000000EEEES2_ILl1000ELl1EElLb0ELb1EE6__castIlS2_ILl1ELl1000000EEEES4_RKNS1_IT_T0_EE = comdat any

$_ZNKSt6chrono8durationIlSt5ratioILl1ELl1000000EEE5countEv = comdat any

$_ZNSt6chrono8durationIlSt5ratioILl1ELl1000000000EEEC2IlvEERKT_ = comdat any

$_ZNSt8__detail14__to_chars_lenImEEjT_i = comdat any

$_ZNSt7__cxx1112basic_stringIcSt11char_traitsIcESaIcEEC2IS3_EEmcRKS3_ = comdat any

$_ZNSt8__detail18__to_chars_10_implImEEvPcjT_ = comdat any

$_ZNSt7__cxx1112basic_stringIcSt11char_traitsIcESaIcEE12_Alloc_hiderD2Ev = comdat any

$_ZNSt8__detail14__to_chars_lenIjEEjT_i = comdat any

$_ZNSt8__detail18__to_chars_10_implIjEEvPcjT_ = comdat any

$_ZNKSt12__shared_ptrI12ChildProcessLN9__gnu_cxx12_Lock_policyE2EEcvbEv = comdat any

$_ZNKSt19__shared_ptr_accessI12ChildProcessLN9__gnu_cxx12_Lock_policyE2ELb0ELb0EEptEv = comdat any

$_ZNK9WSProcess6getPidEv = comdat any

$_ZNKSt19__shared_ptr_accessI12ChildProcessLN9__gnu_cxx12_Lock_policyE2ELb0ELb0EE6_M_getEv = comdat any

$_ZNKSt12__shared_ptrI12ChildProcessLN9__gnu_cxx12_Lock_policyE2EE3getEv = comdat any

$_ZNSt8ios_base4setfESt13_Ios_Fmtflags = comdat any

$_ZStoRRSt13_Ios_FmtflagsS_ = comdat any

$_ZStorSt13_Ios_FmtflagsS_ = comdat any

$_ZNSt12_Vector_baseI11StringTokenSaIS0_EED2Ev = comdat any

$_ZNSt12_Vector_baseI11StringTokenSaIS0_EE12_Vector_implD2Ev = comdat any

$_ZNSaI11StringTokenED2Ev = comdat any

$_ZN9__gnu_cxx13new_allocatorI11StringTokenED2Ev = comdat any

$_ZNSt11char_traitsIcE6lengthEPKc = comdat any

$_ZNSt7__cxx1112basic_stringIcSt11char_traitsIcESaIcEE12_M_constructIPKcEEvT_S8_St20forward_iterator_tag = comdat any

$_ZN9__gnu_cxx11char_traitsIcE6lengthEPKc = comdat any

$_ZN9__gnu_cxx11char_traitsIcE2eqERKcS3_ = comdat any

$_ZN9__gnu_cxx17__is_null_pointerIKcEEbPT_ = comdat any

$_ZSt8distanceIPKcENSt15iterator_traitsIT_E15difference_typeES3_S3_ = comdat any

$_ZSt10__distanceIPKcENSt15iterator_traitsIT_E15difference_typeES3_S3_St26random_access_iterator_tag = comdat any

$_ZSt19__iterator_categoryIPKcENSt15iterator_traitsIT_E17iterator_categoryERKS3_ = comdat any

$_ZSt8_DestroyIPNSt7__cxx1112basic_stringIcSt11char_traitsIcESaIcEEES5_EvT_S7_RSaIT0_E = comdat any

$_ZNSt12_Vector_baseINSt7__cxx1112basic_stringIcSt11char_traitsIcESaIcEEESaIS5_EE19_M_get_Tp_allocatorEv = comdat any

$_ZNSt12_Vector_baseINSt7__cxx1112basic_stringIcSt11char_traitsIcESaIcEEESaIS5_EED2Ev = comdat any

$_ZSt8_DestroyIPNSt7__cxx1112basic_stringIcSt11char_traitsIcESaIcEEEEvT_S7_ = comdat any

$_ZNSt12_Destroy_auxILb0EE9__destroyIPNSt7__cxx1112basic_stringIcSt11char_traitsIcESaIcEEEEEvT_S9_ = comdat any

$_ZSt8_DestroyINSt7__cxx1112basic_stringIcSt11char_traitsIcESaIcEEEEvPT_ = comdat any

$_ZNSt12_Vector_baseINSt7__cxx1112basic_stringIcSt11char_traitsIcESaIcEEESaIS5_EE13_M_deallocateEPS5_m = comdat any

$_ZNSt12_Vector_baseINSt7__cxx1112basic_stringIcSt11char_traitsIcESaIcEEESaIS5_EE12_Vector_implD2Ev = comdat any

$_ZNSt16allocator_traitsISaINSt7__cxx1112basic_stringIcSt11char_traitsIcESaIcEEEEE10deallocateERS6_PS5_m = comdat any

$_ZN9__gnu_cxx13new_allocatorINSt7__cxx1112basic_stringIcSt11char_traitsIcESaIcEEEE10deallocateEPS6_m = comdat any

$_ZNSaINSt7__cxx1112basic_stringIcSt11char_traitsIcESaIcEEEED2Ev = comdat any

$_ZN9__gnu_cxx13new_allocatorINSt7__cxx1112basic_stringIcSt11char_traitsIcESaIcEEEED2Ev = comdat any

$_ZNSt16allocator_traitsISaINSt7__cxx1112basic_stringIcSt11char_traitsIcESaIcEEEEE9constructIS5_JS5_EEEvRS6_PT_DpOT0_ = comdat any

$_ZNSt6vectorINSt7__cxx1112basic_stringIcSt11char_traitsIcESaIcEEESaIS5_EE17_M_realloc_insertIJS5_EEEvN9__gnu_cxx17__normal_iteratorIPS5_S7_EEDpOT_ = comdat any

$_ZNSt6vectorINSt7__cxx1112basic_stringIcSt11char_traitsIcESaIcEEESaIS5_EE4backEv = comdat any

$_ZN9__gnu_cxx13new_allocatorINSt7__cxx1112basic_stringIcSt11char_traitsIcESaIcEEEE9constructIS6_JS6_EEEvPT_DpOT0_ = comdat any

$_ZNKSt6vectorINSt7__cxx1112basic_stringIcSt11char_traitsIcESaIcEEESaIS5_EE12_M_check_lenEmPKc = comdat any

$_ZN9__gnu_cxxmiIPNSt7__cxx1112basic_stringIcSt11char_traitsIcESaIcEEESt6vectorIS6_SaIS6_EEEENS_17__normal_iteratorIT_T0_E15difference_typeERKSE_SH_ = comdat any

$_ZNSt12_Vector_baseINSt7__cxx1112basic_stringIcSt11char_traitsIcESaIcEEESaIS5_EE11_M_allocateEm = comdat any

$_ZNSt6vectorINSt7__cxx1112basic_stringIcSt11char_traitsIcESaIcEEESaIS5_EE11_S_relocateEPS5_S8_S8_RS6_ = comdat any

$_ZNK9__gnu_cxx17__normal_iteratorIPNSt7__cxx1112basic_stringIcSt11char_traitsIcESaIcEEESt6vectorIS6_SaIS6_EEE4baseEv = comdat any

$_ZNKSt6vectorINSt7__cxx1112basic_stringIcSt11char_traitsIcESaIcEEESaIS5_EE8max_sizeEv = comdat any

$_ZNSt6vectorINSt7__cxx1112basic_stringIcSt11char_traitsIcESaIcEEESaIS5_EE11_S_max_sizeERKS6_ = comdat any

$_ZNKSt12_Vector_baseINSt7__cxx1112basic_stringIcSt11char_traitsIcESaIcEEESaIS5_EE19_M_get_Tp_allocatorEv = comdat any

$_ZNSt16allocator_traitsISaINSt7__cxx1112basic_stringIcSt11char_traitsIcESaIcEEEEE8max_sizeERKS6_ = comdat any

$_ZNK9__gnu_cxx13new_allocatorINSt7__cxx1112basic_stringIcSt11char_traitsIcESaIcEEEE8max_sizeEv = comdat any

$_ZNK9__gnu_cxx13new_allocatorINSt7__cxx1112basic_stringIcSt11char_traitsIcESaIcEEEE11_M_max_sizeEv = comdat any

$_ZNSt16allocator_traitsISaINSt7__cxx1112basic_stringIcSt11char_traitsIcESaIcEEEEE8allocateERS6_m = comdat any

$_ZN9__gnu_cxx13new_allocatorINSt7__cxx1112basic_stringIcSt11char_traitsIcESaIcEEEE8allocateEmPKv = comdat any

$_ZNSt6vectorINSt7__cxx1112basic_stringIcSt11char_traitsIcESaIcEEESaIS5_EE14_S_do_relocateEPS5_S8_S8_RS6_St17integral_constantIbLb1EE = comdat any

$_ZSt12__relocate_aIPNSt7__cxx1112basic_stringIcSt11char_traitsIcESaIcEEES6_SaIS5_EET0_T_S9_S8_RT1_ = comdat any

$_ZSt14__relocate_a_1IPNSt7__cxx1112basic_stringIcSt11char_traitsIcESaIcEEES6_SaIS5_EET0_T_S9_S8_RT1_ = comdat any

$_ZSt12__niter_baseIPNSt7__cxx1112basic_stringIcSt11char_traitsIcESaIcEEEET_S7_ = comdat any

$_ZSt19__relocate_object_aINSt7__cxx1112basic_stringIcSt11char_traitsIcESaIcEEES5_SaIS5_EEvPT_PT0_RT1_ = comdat any

$_ZNSt16allocator_traitsISaINSt7__cxx1112basic_stringIcSt11char_traitsIcESaIcEEEEE7destroyIS5_EEvRS6_PT_ = comdat any

$_ZN9__gnu_cxx13new_allocatorINSt7__cxx1112basic_stringIcSt11char_traitsIcESaIcEEEE7destroyIS6_EEvPT_ = comdat any

$_ZNK9__gnu_cxx17__normal_iteratorIPNSt7__cxx1112basic_stringIcSt11char_traitsIcESaIcEEESt6vectorIS6_SaIS6_EEEmiEl = comdat any

$_ZN9__gnu_cxx17__normal_iteratorIPNSt7__cxx1112basic_stringIcSt11char_traitsIcESaIcEEESt6vectorIS6_SaIS6_EEEC2ERKS7_ = comdat any

$_ZN7COOLWSD14getConfigValueIbEET_RN4Poco4Util20LayeredConfigurationERKNSt7__cxx1112basic_stringIcSt11char_traitsIcESaIcEEES1_ = comdat any

$_ZN4Poco4Util11Application8instanceEv = comdat any

$_ZNK4Poco4Util11Application6configEv = comdat any

$_ZN7COOLWSD13getSafeConfigIbEEbRN4Poco4Util20LayeredConfigurationERKNSt7__cxx1112basic_stringIcSt11char_traitsIcESaIcEEERT_ = comdat any

$_ZN7COOLWSD17ConfigValueGetterC2ERN4Poco4Util20LayeredConfigurationERKNSt7__cxx1112basic_stringIcSt11char_traitsIcESaIcEEE = comdat any

$_ZN7COOLWSD17ConfigValueGetterclERb = comdat any

$_ZNK4Poco7AutoPtrINS_4Util20LayeredConfigurationEE3getEv = comdat any

$_ZNSt10_HashtableINSt7__cxx1112basic_stringIcSt11char_traitsIcESaIcEEESt4pairIKS5_St6vectorIS5_SaIS5_EEESaISB_ENSt8__detail10_Select1stESt8equal_toIS5_ESt4hashIS5_ENSD_18_Mod_range_hashingENSD_20_Default_ranged_hashENSD_20_Prime_rehash_policyENSD_17_Hashtable_traitsILb1ELb0ELb1EEEE5clearEv = comdat any

$_ZNSt8__detail16_Hashtable_allocISaINS_10_Hash_nodeISt4pairIKNSt7__cxx1112basic_stringIcSt11char_traitsIcESaIcEEESt6vectorIS8_SaIS8_EEELb1EEEEE19_M_deallocate_nodesEPSE_ = comdat any

$_ZNKSt10_HashtableINSt7__cxx1112basic_stringIcSt11char_traitsIcESaIcEEESt4pairIKS5_St6vectorIS5_SaIS5_EEESaISB_ENSt8__detail10_Select1stESt8equal_toIS5_ESt4hashIS5_ENSD_18_Mod_range_hashingENSD_20_Default_ranged_hashENSD_20_Prime_rehash_policyENSD_17_Hashtable_traitsILb1ELb0ELb1EEEE8_M_beginEv = comdat any

$_ZNKSt8__detail10_Hash_nodeISt4pairIKNSt7__cxx1112basic_stringIcSt11char_traitsIcESaIcEEESt6vectorIS7_SaIS7_EEELb1EE7_M_nextEv = comdat any

$_ZNSt8__detail16_Hashtable_allocISaINS_10_Hash_nodeISt4pairIKNSt7__cxx1112basic_stringIcSt11char_traitsIcESaIcEEESt6vectorIS8_SaIS8_EEELb1EEEEE18_M_deallocate_nodeEPSE_ = comdat any

$_ZNSt16allocator_traitsISaINSt8__detail10_Hash_nodeISt4pairIKNSt7__cxx1112basic_stringIcSt11char_traitsIcESaIcEEESt6vectorIS8_SaIS8_EEELb1EEEEE7destroyISD_EEvRSF_PT_ = comdat any

$_ZNSt8__detail16_Hashtable_allocISaINS_10_Hash_nodeISt4pairIKNSt7__cxx1112basic_stringIcSt11char_traitsIcESaIcEEESt6vectorIS8_SaIS8_EEELb1EEEEE17_M_node_allocatorEv = comdat any

$_ZNSt8__detail21_Hash_node_value_baseISt4pairIKNSt7__cxx1112basic_stringIcSt11char_traitsIcESaIcEEESt6vectorIS7_SaIS7_EEEE9_M_valptrEv = comdat any

$_ZNSt8__detail16_Hashtable_allocISaINS_10_Hash_nodeISt4pairIKNSt7__cxx1112basic_stringIcSt11char_traitsIcESaIcEEESt6vectorIS8_SaIS8_EEELb1EEEEE22_M_deallocate_node_ptrEPSE_ = comdat any

$_ZN9__gnu_cxx13new_allocatorINSt8__detail10_Hash_nodeISt4pairIKNSt7__cxx1112basic_stringIcSt11char_traitsIcESaIcEEESt6vectorIS9_SaIS9_EEELb1EEEE7destroyISE_EEvPT_ = comdat any

$_ZNSt4pairIKNSt7__cxx1112basic_stringIcSt11char_traitsIcESaIcEEESt6vectorIS5_SaIS5_EEED2Ev = comdat any

$_ZNSt8__detail21_Hashtable_ebo_helperILi0ESaINS_10_Hash_nodeISt4pairIKNSt7__cxx1112basic_stringIcSt11char_traitsIcESaIcEEESt6vectorIS8_SaIS8_EEELb1EEEELb1EE6_M_getEv = comdat any

$_ZN9__gnu_cxx16__aligned_bufferISt4pairIKNSt7__cxx1112basic_stringIcSt11char_traitsIcESaIcEEESt6vectorIS7_SaIS7_EEEE6_M_ptrEv = comdat any

$_ZN9__gnu_cxx16__aligned_bufferISt4pairIKNSt7__cxx1112basic_stringIcSt11char_traitsIcESaIcEEESt6vectorIS7_SaIS7_EEEE7_M_addrEv = comdat any

$_ZNSt14pointer_traitsIPNSt8__detail10_Hash_nodeISt4pairIKNSt7__cxx1112basic_stringIcSt11char_traitsIcESaIcEEESt6vectorIS8_SaIS8_EEELb1EEEE10pointer_toERSE_ = comdat any

$_ZNSt16allocator_traitsISaINSt8__detail10_Hash_nodeISt4pairIKNSt7__cxx1112basic_stringIcSt11char_traitsIcESaIcEEESt6vectorIS8_SaIS8_EEELb1EEEEE10deallocateERSF_PSE_m = comdat any

$_ZN9__gnu_cxx13new_allocatorINSt8__detail10_Hash_nodeISt4pairIKNSt7__cxx1112basic_stringIcSt11char_traitsIcESaIcEEESt6vectorIS9_SaIS9_EEELb1EEEE10deallocateEPSF_m = comdat any

$_ZSt6__sortIN9__gnu_cxx17__normal_iteratorIPNSt7__cxx1112basic_stringIcSt11char_traitsIcESaIcEEESt6vectorIS7_SaIS7_EEEENS0_5__ops15_Iter_less_iterEEvT_SF_T0_ = comdat any

$_ZN9__gnu_cxx5__ops16__iter_less_iterEv = comdat any

$_ZSt16__introsort_loopIN9__gnu_cxx17__normal_iteratorIPNSt7__cxx1112basic_stringIcSt11char_traitsIcESaIcEEESt6vectorIS7_SaIS7_EEEElNS0_5__ops15_Iter_less_iterEEvT_SF_T0_T1_ = comdat any

$_ZSt4__lgl = comdat any

$_ZSt22__final_insertion_sortIN9__gnu_cxx17__normal_iteratorIPNSt7__cxx1112basic_stringIcSt11char_traitsIcESaIcEEESt6vectorIS7_SaIS7_EEEENS0_5__ops15_Iter_less_iterEEvT_SF_T0_ = comdat any

$_ZSt14__partial_sortIN9__gnu_cxx17__normal_iteratorIPNSt7__cxx1112basic_stringIcSt11char_traitsIcESaIcEEESt6vectorIS7_SaIS7_EEEENS0_5__ops15_Iter_less_iterEEvT_SF_SF_T0_ = comdat any

$_ZSt27__unguarded_partition_pivotIN9__gnu_cxx17__normal_iteratorIPNSt7__cxx1112basic_stringIcSt11char_traitsIcESaIcEEESt6vectorIS7_SaIS7_EEEENS0_5__ops15_Iter_less_iterEET_SF_SF_T0_ = comdat any

$_ZSt13__heap_selectIN9__gnu_cxx17__normal_iteratorIPNSt7__cxx1112basic_stringIcSt11char_traitsIcESaIcEEESt6vectorIS7_SaIS7_EEEENS0_5__ops15_Iter_less_iterEEvT_SF_SF_T0_ = comdat any

$_ZSt11__sort_heapIN9__gnu_cxx17__normal_iteratorIPNSt7__cxx1112basic_stringIcSt11char_traitsIcESaIcEEESt6vectorIS7_SaIS7_EEEENS0_5__ops15_Iter_less_iterEEvT_SF_RT0_ = comdat any

$_ZSt11__make_heapIN9__gnu_cxx17__normal_iteratorIPNSt7__cxx1112basic_stringIcSt11char_traitsIcESaIcEEESt6vectorIS7_SaIS7_EEEENS0_5__ops15_Iter_less_iterEEvT_SF_RT0_ = comdat any

$_ZN9__gnu_cxxltIPNSt7__cxx1112basic_stringIcSt11char_traitsIcESaIcEEESt6vectorIS6_SaIS6_EEEEbRKNS_17__normal_iteratorIT_T0_EESG_ = comdat any

$_ZNK9__gnu_cxx5__ops15_Iter_less_iterclINS_17__normal_iteratorIPNSt7__cxx1112basic_stringIcSt11char_traitsIcESaIcEEESt6vectorIS9_SaIS9_EEEESE_EEbT_T0_ = comdat any

$_ZSt10__pop_heapIN9__gnu_cxx17__normal_iteratorIPNSt7__cxx1112basic_stringIcSt11char_traitsIcESaIcEEESt6vectorIS7_SaIS7_EEEENS0_5__ops15_Iter_less_iterEEvT_SF_SF_RT0_ = comdat any

$_ZNK9__gnu_cxx17__normal_iteratorIPNSt7__cxx1112basic_stringIcSt11char_traitsIcESaIcEEESt6vectorIS6_SaIS6_EEEplEl = comdat any

$_ZSt13__adjust_heapIN9__gnu_cxx17__normal_iteratorIPNSt7__cxx1112basic_stringIcSt11char_traitsIcESaIcEEESt6vectorIS7_SaIS7_EEEElS7_NS0_5__ops15_Iter_less_iterEEvT_T0_SG_T1_T2_ = comdat any

$_ZN9__gnu_cxx5__ops14_Iter_less_valC2ENS0_15_Iter_less_iterE = comdat any

$_ZSt11__push_heapIN9__gnu_cxx17__normal_iteratorIPNSt7__cxx1112basic_stringIcSt11char_traitsIcESaIcEEESt6vectorIS7_SaIS7_EEEElS7_NS0_5__ops14_Iter_less_valEEvT_T0_SG_T1_RT2_ = comdat any

$_ZNK9__gnu_cxx5__ops14_Iter_less_valclINS_17__normal_iteratorIPNSt7__cxx1112basic_stringIcSt11char_traitsIcESaIcEEESt6vectorIS9_SaIS9_EEEES9_EEbT_RT0_ = comdat any

$_ZStltIcSt11char_traitsIcESaIcEEbRKNSt7__cxx1112basic_stringIT_T0_T1_EESA_ = comdat any

$_ZN9__gnu_cxx17__normal_iteratorIPNSt7__cxx1112basic_stringIcSt11char_traitsIcESaIcEEESt6vectorIS6_SaIS6_EEEmmEv = comdat any

$_ZSt22__move_median_to_firstIN9__gnu_cxx17__normal_iteratorIPNSt7__cxx1112basic_stringIcSt11char_traitsIcESaIcEEESt6vectorIS7_SaIS7_EEEENS0_5__ops15_Iter_less_iterEEvT_SF_SF_SF_T0_ = comdat any

$_ZSt21__unguarded_partitionIN9__gnu_cxx17__normal_iteratorIPNSt7__cxx1112basic_stringIcSt11char_traitsIcESaIcEEESt6vectorIS7_SaIS7_EEEENS0_5__ops15_Iter_less_iterEET_SF_SF_SF_T0_ = comdat any

$_ZSt9iter_swapIN9__gnu_cxx17__normal_iteratorIPNSt7__cxx1112basic_stringIcSt11char_traitsIcESaIcEEESt6vectorIS7_SaIS7_EEEESC_EvT_T0_ = comdat any

$_ZSt4swapIcSt11char_traitsIcESaIcEEvRNSt7__cxx1112basic_stringIT_T0_T1_EES9_ = comdat any

$_ZSt16__insertion_sortIN9__gnu_cxx17__normal_iteratorIPNSt7__cxx1112basic_stringIcSt11char_traitsIcESaIcEEESt6vectorIS7_SaIS7_EEEENS0_5__ops15_Iter_less_iterEEvT_SF_T0_ = comdat any

$_ZSt26__unguarded_insertion_sortIN9__gnu_cxx17__normal_iteratorIPNSt7__cxx1112basic_stringIcSt11char_traitsIcESaIcEEESt6vectorIS7_SaIS7_EEEENS0_5__ops15_Iter_less_iterEEvT_SF_T0_ = comdat any

$_ZN9__gnu_cxxeqIPNSt7__cxx1112basic_stringIcSt11char_traitsIcESaIcEEESt6vectorIS6_SaIS6_EEEEbRKNS_17__normal_iteratorIT_T0_EESG_ = comdat any

$_ZSt13move_backwardIN9__gnu_cxx17__normal_iteratorIPNSt7__cxx1112basic_stringIcSt11char_traitsIcESaIcEEESt6vectorIS7_SaIS7_EEEESC_ET0_T_SE_SD_ = comdat any

$_ZSt25__unguarded_linear_insertIN9__gnu_cxx17__normal_iteratorIPNSt7__cxx1112basic_stringIcSt11char_traitsIcESaIcEEESt6vectorIS7_SaIS7_EEEENS0_5__ops14_Val_less_iterEEvT_T0_ = comdat any

$_ZN9__gnu_cxx5__ops15__val_comp_iterENS0_15_Iter_less_iterE = comdat any

$_ZSt22__copy_move_backward_aILb1EN9__gnu_cxx17__normal_iteratorIPNSt7__cxx1112basic_stringIcSt11char_traitsIcESaIcEEESt6vectorIS7_SaIS7_EEEESC_ET1_T0_SE_SD_ = comdat any

$_ZSt12__miter_baseIN9__gnu_cxx17__normal_iteratorIPNSt7__cxx1112basic_stringIcSt11char_traitsIcESaIcEEESt6vectorIS7_SaIS7_EEEEET_SD_ = comdat any

$_ZSt12__niter_wrapIN9__gnu_cxx17__normal_iteratorIPNSt7__cxx1112basic_stringIcSt11char_traitsIcESaIcEEESt6vectorIS7_SaIS7_EEEES8_ET_SD_T0_ = comdat any

$_ZSt23__copy_move_backward_a1ILb1EPNSt7__cxx1112basic_stringIcSt11char_traitsIcESaIcEEES6_ET1_T0_S8_S7_ = comdat any

$_ZSt12__niter_baseIPNSt7__cxx1112basic_stringIcSt11char_traitsIcESaIcEEESt6vectorIS5_SaIS5_EEET_N9__gnu_cxx17__normal_iteratorISA_T0_EE = comdat any

$_ZSt23__copy_move_backward_a2ILb1EPNSt7__cxx1112basic_stringIcSt11char_traitsIcESaIcEEES6_ET1_T0_S8_S7_ = comdat any

$_ZNSt20__copy_move_backwardILb1ELb0ESt26random_access_iterator_tagE13__copy_move_bIPNSt7__cxx1112basic_stringIcSt11char_traitsIcESaIcEEES9_EET0_T_SB_SA_ = comdat any

$_ZNK9__gnu_cxx5__ops14_Val_less_iterclINSt7__cxx1112basic_stringIcSt11char_traitsIcESaIcEEENS_17__normal_iteratorIPS8_St6vectorIS8_SaIS8_EEEEEEbRT_T0_ = comdat any

$_ZNSt8__detail9_Map_baseINSt7__cxx1112basic_stringIcSt11char_traitsIcESaIcEEESt4pairIKS6_St6vectorIS6_SaIS6_EEESaISC_ENS_10_Select1stESt8equal_toIS6_ESt4hashIS6_ENS_18_Mod_range_hashingENS_20_Default_ranged_hashENS_20_Prime_rehash_policyENS_17_Hashtable_traitsILb1ELb0ELb1EEELb1EEixERS8_ = comdat any

$_ZNKSt8__detail15_Hash_code_baseINSt7__cxx1112basic_stringIcSt11char_traitsIcESaIcEEESt4pairIKS6_St6vectorIS6_SaIS6_EEENS_10_Select1stESt4hashIS6_ENS_18_Mod_range_hashingENS_20_Default_ranged_hashELb1EE12_M_hash_codeERS8_ = comdat any

$_ZNKSt10_HashtableINSt7__cxx1112basic_stringIcSt11char_traitsIcESaIcEEESt4pairIKS5_St6vectorIS5_SaIS5_EEESaISB_ENSt8__detail10_Select1stESt8equal_toIS5_ESt4hashIS5_ENSD_18_Mod_range_hashingENSD_20_Default_ranged_hashENSD_20_Prime_rehash_policyENSD_17_Hashtable_traitsILb1ELb0ELb1EEEE15_M_bucket_indexEm = comdat any

$_ZNKSt10_HashtableINSt7__cxx1112basic_stringIcSt11char_traitsIcESaIcEEESt4pairIKS5_St6vectorIS5_SaIS5_EEESaISB_ENSt8__detail10_Select1stESt8equal_toIS5_ESt4hashIS5_ENSD_18_Mod_range_hashingENSD_20_Default_ranged_hashENSD_20_Prime_rehash_policyENSD_17_Hashtable_traitsILb1ELb0ELb1EEEE12_M_find_nodeEmRS7_m = comdat any

$_ZNSt8__detail21_Hash_node_value_baseISt4pairIKNSt7__cxx1112basic_stringIcSt11char_traitsIcESaIcEEESt6vectorIS7_SaIS7_EEEE4_M_vEv = comdat any

$_ZNSt5tupleIJRKNSt7__cxx1112basic_stringIcSt11char_traitsIcESaIcEEEEEC2ILb1ELb1EEES7_ = comdat any

$_ZNSt10_HashtableINSt7__cxx1112basic_stringIcSt11char_traitsIcESaIcEEESt4pairIKS5_St6vectorIS5_SaIS5_EEESaISB_ENSt8__detail10_Select1stESt8equal_toIS5_ESt4hashIS5_ENSD_18_Mod_range_hashingENSD_20_Default_ranged_hashENSD_20_Prime_rehash_policyENSD_17_Hashtable_traitsILb1ELb0ELb1EEEE12_Scoped_nodeC2IJRKSt21piecewise_construct_tSt5tupleIJRS7_EESU_IJEEEEEPNSD_16_Hashtable_allocISaINSD_10_Hash_nodeISB_Lb1EEEEEEDpOT_ = comdat any

$_ZNSt10_HashtableINSt7__cxx1112basic_stringIcSt11char_traitsIcESaIcEEESt4pairIKS5_St6vectorIS5_SaIS5_EEESaISB_ENSt8__detail10_Select1stESt8equal_toIS5_ESt4hashIS5_ENSD_18_Mod_range_hashingENSD_20_Default_ranged_hashENSD_20_Prime_rehash_policyENSD_17_Hashtable_traitsILb1ELb0ELb1EEEE21_M_insert_unique_nodeEmmPNSD_10_Hash_nodeISB_Lb1EEEm = comdat any

$_ZNKSt8__detail14_Node_iteratorISt4pairIKNSt7__cxx1112basic_stringIcSt11char_traitsIcESaIcEEESt6vectorIS7_SaIS7_EEELb0ELb1EEptEv = comdat any

$_ZNSt10_HashtableINSt7__cxx1112basic_stringIcSt11char_traitsIcESaIcEEESt4pairIKS5_St6vectorIS5_SaIS5_EEESaISB_ENSt8__detail10_Select1stESt8equal_toIS5_ESt4hashIS5_ENSD_18_Mod_range_hashingENSD_20_Default_ranged_hashENSD_20_Prime_rehash_policyENSD_17_Hashtable_traitsILb1ELb0ELb1EEEE12_Scoped_nodeD2Ev = comdat any

$_ZNKSt8__detail15_Hash_code_baseINSt7__cxx1112basic_stringIcSt11char_traitsIcESaIcEEESt4pairIKS6_St6vectorIS6_SaIS6_EEENS_10_Select1stESt4hashIS6_ENS_18_Mod_range_hashingENS_20_Default_ranged_hashELb1EE7_M_hashEv = comdat any

$_ZNKSt4hashINSt7__cxx1112basic_stringIcSt11char_traitsIcESaIcEEEEclERKS5_ = comdat any

$_ZNKSt8__detail21_Hashtable_ebo_helperILi1ESt4hashINSt7__cxx1112basic_stringIcSt11char_traitsIcESaIcEEEELb1EE7_M_cgetEv = comdat any

$_ZNSt10_Hash_impl4hashEPKvmm = comdat any

$_ZNKSt8__detail15_Hash_code_baseINSt7__cxx1112basic_stringIcSt11char_traitsIcESaIcEEESt4pairIKS6_St6vectorIS6_SaIS6_EEENS_10_Select1stESt4hashIS6_ENS_18_Mod_range_hashingENS_20_Default_ranged_hashELb1EE15_M_bucket_indexEmm = comdat any

$_ZNKSt8__detail18_Mod_range_hashingclEmm = comdat any

$_ZNKSt10_HashtableINSt7__cxx1112basic_stringIcSt11char_traitsIcESaIcEEESt4pairIKS5_St6vectorIS5_SaIS5_EEESaISB_ENSt8__detail10_Select1stESt8equal_toIS5_ESt4hashIS5_ENSD_18_Mod_range_hashingENSD_20_Default_ranged_hashENSD_20_Prime_rehash_policyENSD_17_Hashtable_traitsILb1ELb0ELb1EEEE19_M_find_before_nodeEmRS7_m = comdat any

$_ZNKSt8__detail15_Hashtable_baseINSt7__cxx1112basic_stringIcSt11char_traitsIcESaIcEEESt4pairIKS6_St6vectorIS6_SaIS6_EEENS_10_Select1stESt8equal_toIS6_ESt4hashIS6_ENS_18_Mod_range_hashingENS_20_Default_ranged_hashENS_17_Hashtable_traitsILb1ELb0ELb1EEEE9_M_equalsERS8_mRKNS_16_Hash_node_valueISC_Lb1EEE = comdat any

$_ZNKSt10_HashtableINSt7__cxx1112basic_stringIcSt11char_traitsIcESaIcEEESt4pairIKS5_St6vectorIS5_SaIS5_EEESaISB_ENSt8__detail10_Select1stESt8equal_toIS5_ESt4hashIS5_ENSD_18_Mod_range_hashingENSD_20_Default_ranged_hashENSD_20_Prime_rehash_policyENSD_17_Hashtable_traitsILb1ELb0ELb1EEEE15_M_bucket_indexERKNSD_16_Hash_node_valueISB_Lb1EEE = comdat any

$_ZNSt8__detail15_Hashtable_baseINSt7__cxx1112basic_stringIcSt11char_traitsIcESaIcEEESt4pairIKS6_St6vectorIS6_SaIS6_EEENS_10_Select1stESt8equal_toIS6_ESt4hashIS6_ENS_18_Mod_range_hashingENS_20_Default_ranged_hashENS_17_Hashtable_traitsILb1ELb0ELb1EEEE9_S_equalsEmRKNS_21_Hash_node_code_cacheILb1EEE = comdat any

$_ZNKSt8__detail15_Hashtable_baseINSt7__cxx1112basic_stringIcSt11char_traitsIcESaIcEEESt4pairIKS6_St6vectorIS6_SaIS6_EEENS_10_Select1stESt8equal_toIS6_ESt4hashIS6_ENS_18_Mod_range_hashingENS_20_Default_ranged_hashENS_17_Hashtable_traitsILb1ELb0ELb1EEEE5_M_eqEv = comdat any

$_ZNKSt8equal_toINSt7__cxx1112basic_stringIcSt11char_traitsIcESaIcEEEEclERKS5_S8_ = comdat any

$_ZNKSt8__detail10_Select1stclIRKSt4pairIKNSt7__cxx1112basic_stringIcSt11char_traitsIcESaIcEEESt6vectorIS8_SaIS8_EEEEEDTclsr3stdE3getILi0EEclsr3stdE7forwardIT_Efp_EEEOSG_ = comdat any

$_ZNKSt8__detail21_Hash_node_value_baseISt4pairIKNSt7__cxx1112basic_stringIcSt11char_traitsIcESaIcEEESt6vectorIS7_SaIS7_EEEE4_M_vEv = comdat any

$_ZNKSt8__detail21_Hashtable_ebo_helperILi0ESt8equal_toINSt7__cxx1112basic_stringIcSt11char_traitsIcESaIcEEEELb1EE7_M_cgetEv = comdat any

$_ZSteqIcEN9__gnu_cxx11__enable_ifIXsr9__is_charIT_EE7__valueEbE6__typeERKNSt7__cxx1112basic_stringIS2_St11char_traitsIS2_ESaIS2_EEESC_ = comdat any

$_ZNSt11char_traitsIcE7compareEPKcS2_m = comdat any

$_ZNSt11char_traitsIcE2ltERKcS2_ = comdat any

$_ZSt3getILm0EKNSt7__cxx1112basic_stringIcSt11char_traitsIcESaIcEEESt6vectorIS5_SaIS5_EEERKNSt13tuple_elementIXT_ESt4pairIT0_T1_EE4typeERKSE_ = comdat any

$_ZNSt10__pair_getILm0EE11__const_getIKNSt7__cxx1112basic_stringIcSt11char_traitsIcESaIcEEESt6vectorIS7_SaIS7_EEEERKT_RKSt4pairISC_T0_E = comdat any

$_ZNKSt8__detail21_Hash_node_value_baseISt4pairIKNSt7__cxx1112basic_stringIcSt11char_traitsIcESaIcEEESt6vectorIS7_SaIS7_EEEE9_M_valptrEv = comdat any

$_ZNK9__gnu_cxx16__aligned_bufferISt4pairIKNSt7__cxx1112basic_stringIcSt11char_traitsIcESaIcEEESt6vectorIS7_SaIS7_EEEE6_M_ptrEv = comdat any

$_ZNK9__gnu_cxx16__aligned_bufferISt4pairIKNSt7__cxx1112basic_stringIcSt11char_traitsIcESaIcEEESt6vectorIS7_SaIS7_EEEE7_M_addrEv = comdat any

$_ZNKSt8__detail15_Hash_code_baseINSt7__cxx1112basic_stringIcSt11char_traitsIcESaIcEEESt4pairIKS6_St6vectorIS6_SaIS6_EEENS_10_Select1stESt4hashIS6_ENS_18_Mod_range_hashingENS_20_Default_ranged_hashELb1EE15_M_bucket_indexERKNS_16_Hash_node_valueISC_Lb1EEEm = comdat any

$_ZNSt11_Tuple_implILm0EJRKNSt7__cxx1112basic_stringIcSt11char_traitsIcESaIcEEEEEC2ES7_ = comdat any

$_ZNSt10_Head_baseILm0ERKNSt7__cxx1112basic_stringIcSt11char_traitsIcESaIcEEELb0EEC2ES7_ = comdat any

$_ZNSt8__detail16_Hashtable_allocISaINS_10_Hash_nodeISt4pairIKNSt7__cxx1112basic_stringIcSt11char_traitsIcESaIcEEESt6vectorIS8_SaIS8_EEELb1EEEEE16_M_allocate_nodeIJRKSt21piecewise_construct_tSt5tupleIJRS9_EESL_IJEEEEEPSE_DpOT_ = comdat any

$_ZNSt16allocator_traitsISaINSt8__detail10_Hash_nodeISt4pairIKNSt7__cxx1112basic_stringIcSt11char_traitsIcESaIcEEESt6vectorIS8_SaIS8_EEELb1EEEEE8allocateERSF_m = comdat any

$_ZSt12__to_addressINSt8__detail10_Hash_nodeISt4pairIKNSt7__cxx1112basic_stringIcSt11char_traitsIcESaIcEEESt6vectorIS8_SaIS8_EEELb1EEEEPT_SG_ = comdat any

$_ZNSt8__detail10_Hash_nodeISt4pairIKNSt7__cxx1112basic_stringIcSt11char_traitsIcESaIcEEESt6vectorIS7_SaIS7_EEELb1EEC2Ev = comdat any

$_ZNSt16allocator_traitsISaINSt8__detail10_Hash_nodeISt4pairIKNSt7__cxx1112basic_stringIcSt11char_traitsIcESaIcEEESt6vectorIS8_SaIS8_EEELb1EEEEE9constructISD_JRKSt21piecewise_construct_tSt5tupleIJRS9_EESL_IJEEEEEvRSF_PT_DpOT0_ = comdat any

$_ZN9__gnu_cxx13new_allocatorINSt8__detail10_Hash_nodeISt4pairIKNSt7__cxx1112basic_stringIcSt11char_traitsIcESaIcEEESt6vectorIS9_SaIS9_EEELb1EEEE8allocateEmPKv = comdat any

$_ZNK9__gnu_cxx13new_allocatorINSt8__detail10_Hash_nodeISt4pairIKNSt7__cxx1112basic_stringIcSt11char_traitsIcESaIcEEESt6vectorIS9_SaIS9_EEELb1EEEE11_M_max_sizeEv = comdat any

$_ZNSt8__detail15_Hash_node_baseC2Ev = comdat any

$_ZN9__gnu_cxx13new_allocatorINSt8__detail10_Hash_nodeISt4pairIKNSt7__cxx1112basic_stringIcSt11char_traitsIcESaIcEEESt6vectorIS9_SaIS9_EEELb1EEEE9constructISE_JRKSt21piecewise_construct_tSt5tupleIJRSA_EESL_IJEEEEEvPT_DpOT0_ = comdat any

$_ZNSt5tupleIJRKNSt7__cxx1112basic_stringIcSt11char_traitsIcESaIcEEEEEC2EOS8_ = comdat any

$_ZNSt4pairIKNSt7__cxx1112basic_stringIcSt11char_traitsIcESaIcEEESt6vectorIS5_SaIS5_EEEC2IJRS6_EJEEESt21piecewise_construct_tSt5tupleIJDpT_EESE_IJDpT0_EE = comdat any

$_ZNSt11_Tuple_implILm0EJRKNSt7__cxx1112basic_stringIcSt11char_traitsIcESaIcEEEEEC2EOS8_ = comdat any

$_ZNSt4pairIKNSt7__cxx1112basic_stringIcSt11char_traitsIcESaIcEEESt6vectorIS5_SaIS5_EEEC2IJRS6_EJLm0EEJEJEEERSt5tupleIJDpT_EERSD_IJDpT1_EESt12_Index_tupleIJXspT0_EEESM_IJXspT2_EEE = comdat any

$_ZSt3getILm0EJRKNSt7__cxx1112basic_stringIcSt11char_traitsIcESaIcEEEEERNSt13tuple_elementIXT_ESt5tupleIJDpT0_EEE4typeERSC_ = comdat any

$_ZSt12__get_helperILm0ERKNSt7__cxx1112basic_stringIcSt11char_traitsIcESaIcEEEJEERT0_RSt11_Tuple_implIXT_EJS8_DpT1_EE = comdat any

$_ZNSt11_Tuple_implILm0EJRKNSt7__cxx1112basic_stringIcSt11char_traitsIcESaIcEEEEE7_M_headERS8_ = comdat any

$_ZNSt10_Head_baseILm0ERKNSt7__cxx1112basic_stringIcSt11char_traitsIcESaIcEEELb0EE7_M_headERS8_ = comdat any

$_ZNKSt8__detail20_Prime_rehash_policy8_M_stateEv = comdat any

$_ZNSt10_HashtableINSt7__cxx1112basic_stringIcSt11char_traitsIcESaIcEEESt4pairIKS5_St6vectorIS5_SaIS5_EEESaISB_ENSt8__detail10_Select1stESt8equal_toIS5_ESt4hashIS5_ENSD_18_Mod_range_hashingENSD_20_Default_ranged_hashENSD_20_Prime_rehash_policyENSD_17_Hashtable_traitsILb1ELb0ELb1EEEE9_M_rehashEmRKm = comdat any

$_ZNKSt8__detail15_Hash_code_baseINSt7__cxx1112basic_stringIcSt11char_traitsIcESaIcEEESt4pairIKS6_St6vectorIS6_SaIS6_EEENS_10_Select1stESt4hashIS6_ENS_18_Mod_range_hashingENS_20_Default_ranged_hashELb1EE13_M_store_codeERNS_21_Hash_node_code_cacheILb1EEEm = comdat any

$_ZNSt10_HashtableINSt7__cxx1112basic_stringIcSt11char_traitsIcESaIcEEESt4pairIKS5_St6vectorIS5_SaIS5_EEESaISB_ENSt8__detail10_Select1stESt8equal_toIS5_ESt4hashIS5_ENSD_18_Mod_range_hashingENSD_20_Default_ranged_hashENSD_20_Prime_rehash_policyENSD_17_Hashtable_traitsILb1ELb0ELb1EEEE22_M_insert_bucket_beginEmPNSD_10_Hash_nodeISB_Lb1EEE = comdat any

$_ZNSt8__detail14_Node_iteratorISt4pairIKNSt7__cxx1112basic_stringIcSt11char_traitsIcESaIcEEESt6vectorIS7_SaIS7_EEELb0ELb1EEC2EPNS_10_Hash_nodeISC_Lb1EEE = comdat any

$_ZNSt10_HashtableINSt7__cxx1112basic_stringIcSt11char_traitsIcESaIcEEESt4pairIKS5_St6vectorIS5_SaIS5_EEESaISB_ENSt8__detail10_Select1stESt8equal_toIS5_ESt4hashIS5_ENSD_18_Mod_range_hashingENSD_20_Default_ranged_hashENSD_20_Prime_rehash_policyENSD_17_Hashtable_traitsILb1ELb0ELb1EEEE13_M_rehash_auxEmSt17integral_constantIbLb1EE = comdat any

$_ZNSt8__detail20_Prime_rehash_policy8_M_resetEm = comdat any

$_ZNSt10_HashtableINSt7__cxx1112basic_stringIcSt11char_traitsIcESaIcEEESt4pairIKS5_St6vectorIS5_SaIS5_EEESaISB_ENSt8__detail10_Select1stESt8equal_toIS5_ESt4hashIS5_ENSD_18_Mod_range_hashingENSD_20_Default_ranged_hashENSD_20_Prime_rehash_policyENSD_17_Hashtable_traitsILb1ELb0ELb1EEEE19_M_allocate_bucketsEm = comdat any

$_ZNSt10_HashtableINSt7__cxx1112basic_stringIcSt11char_traitsIcESaIcEEESt4pairIKS5_St6vectorIS5_SaIS5_EEESaISB_ENSt8__detail10_Select1stESt8equal_toIS5_ESt4hashIS5_ENSD_18_Mod_range_hashingENSD_20_Default_ranged_hashENSD_20_Prime_rehash_policyENSD_17_Hashtable_traitsILb1ELb0ELb1EEEE21_M_deallocate_bucketsEv = comdat any

$_ZNSt8__detail16_Hashtable_allocISaINS_10_Hash_nodeISt4pairIKNSt7__cxx1112basic_stringIcSt11char_traitsIcESaIcEEESt6vectorIS8_SaIS8_EEELb1EEEEE19_M_allocate_bucketsEm = comdat any

$_ZNSaIPNSt8__detail15_Hash_node_baseEEC2INS_10_Hash_nodeISt4pairIKNSt7__cxx1112basic_stringIcSt11char_traitsIcESaIcEEESt6vectorISB_SaISB_EEELb1EEEEERKSaIT_E = comdat any

$_ZNSt16allocator_traitsISaIPNSt8__detail15_Hash_node_baseEEE8allocateERS3_m = comdat any

$_ZSt12__to_addressIPNSt8__detail15_Hash_node_baseEEPT_S4_ = comdat any

$_ZNSaIPNSt8__detail15_Hash_node_baseEED2Ev = comdat any

$_ZN9__gnu_cxx13new_allocatorIPNSt8__detail15_Hash_node_baseEEC2Ev = comdat any

$_ZN9__gnu_cxx13new_allocatorIPNSt8__detail15_Hash_node_baseEE8allocateEmPKv = comdat any

$_ZNK9__gnu_cxx13new_allocatorIPNSt8__detail15_Hash_node_baseEE11_M_max_sizeEv = comdat any

$_ZN9__gnu_cxx13new_allocatorIPNSt8__detail15_Hash_node_baseEED2Ev = comdat any

$_ZNSt10_HashtableINSt7__cxx1112basic_stringIcSt11char_traitsIcESaIcEEESt4pairIKS5_St6vectorIS5_SaIS5_EEESaISB_ENSt8__detail10_Select1stESt8equal_toIS5_ESt4hashIS5_ENSD_18_Mod_range_hashingENSD_20_Default_ranged_hashENSD_20_Prime_rehash_policyENSD_17_Hashtable_traitsILb1ELb0ELb1EEEE21_M_deallocate_bucketsEPPNSD_15_Hash_node_baseEm = comdat any

$_ZNKSt10_HashtableINSt7__cxx1112basic_stringIcSt11char_traitsIcESaIcEEESt4pairIKS5_St6vectorIS5_SaIS5_EEESaISB_ENSt8__detail10_Select1stESt8equal_toIS5_ESt4hashIS5_ENSD_18_Mod_range_hashingENSD_20_Default_ranged_hashENSD_20_Prime_rehash_policyENSD_17_Hashtable_traitsILb1ELb0ELb1EEEE21_M_uses_single_bucketEPPNSD_15_Hash_node_baseE = comdat any

$_ZNSt8__detail16_Hashtable_allocISaINS_10_Hash_nodeISt4pairIKNSt7__cxx1112basic_stringIcSt11char_traitsIcESaIcEEESt6vectorIS8_SaIS8_EEELb1EEEEE21_M_deallocate_bucketsEPPNS_15_Hash_node_baseEm = comdat any

$_ZNSt14pointer_traitsIPPNSt8__detail15_Hash_node_baseEE10pointer_toERS2_ = comdat any

$_ZNSt16allocator_traitsISaIPNSt8__detail15_Hash_node_baseEEE10deallocateERS3_PS2_m = comdat any

$_ZN9__gnu_cxx13new_allocatorIPNSt8__detail15_Hash_node_baseEE10deallocateEPS3_m = comdat any

$_ZNSt8__detail19_Node_iterator_baseISt4pairIKNSt7__cxx1112basic_stringIcSt11char_traitsIcESaIcEEESt6vectorIS7_SaIS7_EEELb1EEC2EPNS_10_Hash_nodeISC_Lb1EEE = comdat any

$_ZNSt6vectorI11StringTokenSaIS0_EE15_M_erase_at_endEPS0_ = comdat any

$_ZN7COOLWSD14getConfigValueImEET_RN4Poco4Util20LayeredConfigurationERKNSt7__cxx1112basic_stringIcSt11char_traitsIcESaIcEEES1_ = comdat any

$_ZN7COOLWSD13getSafeConfigImEEbRN4Poco4Util20LayeredConfigurationERKNSt7__cxx1112basic_stringIcSt11char_traitsIcESaIcEEERT_ = comdat any

$_ZN7COOLWSD17ConfigValueGetterclERm = comdat any

$_ZN9__gnu_cxxeqIPKNSt7__cxx1112basic_stringIcSt11char_traitsIcESaIcEEESt6vectorIS6_SaIS6_EEEEbRKNS_17__normal_iteratorIT_T0_EESH_ = comdat any

$_ZNKSt6vectorINSt7__cxx1112basic_stringIcSt11char_traitsIcESaIcEEESaIS5_EE5beginEv = comdat any

$_ZNKSt6vectorINSt7__cxx1112basic_stringIcSt11char_traitsIcESaIcEEESaIS5_EE3endEv = comdat any

$_ZNK9__gnu_cxx17__normal_iteratorIPKNSt7__cxx1112basic_stringIcSt11char_traitsIcESaIcEEESt6vectorIS6_SaIS6_EEE4baseEv = comdat any

$_ZN9__gnu_cxx17__normal_iteratorIPKNSt7__cxx1112basic_stringIcSt11char_traitsIcESaIcEEESt6vectorIS6_SaIS6_EEEC2ERKS8_ = comdat any

$_ZNSt6vectorINSt7__cxx1112basic_stringIcSt11char_traitsIcESaIcEEESaIS5_EE8_M_eraseEN9__gnu_cxx17__normal_iteratorIPS5_S7_EE = comdat any

$_ZN9__gnu_cxxmiIPKNSt7__cxx1112basic_stringIcSt11char_traitsIcESaIcEEESt6vectorIS6_SaIS6_EEEENS_17__normal_iteratorIT_T0_E15difference_typeERKSF_SI_ = comdat any

$_ZNKSt6vectorINSt7__cxx1112basic_stringIcSt11char_traitsIcESaIcEEESaIS5_EE6cbeginEv = comdat any

$_ZSt4moveIN9__gnu_cxx17__normal_iteratorIPNSt7__cxx1112basic_stringIcSt11char_traitsIcESaIcEEESt6vectorIS7_SaIS7_EEEESC_ET0_T_SE_SD_ = comdat any

$_ZSt13__copy_move_aILb1EN9__gnu_cxx17__normal_iteratorIPNSt7__cxx1112basic_stringIcSt11char_traitsIcESaIcEEESt6vectorIS7_SaIS7_EEEESC_ET1_T0_SE_SD_ = comdat any

$_ZSt14__copy_move_a1ILb1EPNSt7__cxx1112basic_stringIcSt11char_traitsIcESaIcEEES6_ET1_T0_S8_S7_ = comdat any

$_ZSt14__copy_move_a2ILb1EPNSt7__cxx1112basic_stringIcSt11char_traitsIcESaIcEEES6_ET1_T0_S8_S7_ = comdat any

$_ZNSt11__copy_moveILb1ELb0ESt26random_access_iterator_tagE8__copy_mIPNSt7__cxx1112basic_stringIcSt11char_traitsIcESaIcEEES9_EET0_T_SB_SA_ = comdat any

$_ZNSt16allocator_traitsISaINSt7__cxx1112basic_stringIcSt11char_traitsIcESaIcEEEEE9constructIS5_JRS5_EEEvRS6_PT_DpOT0_ = comdat any

$_ZNSt6vectorINSt7__cxx1112basic_stringIcSt11char_traitsIcESaIcEEESaIS5_EE17_M_realloc_insertIJRS5_EEEvN9__gnu_cxx17__normal_iteratorIPS5_S7_EEDpOT_ = comdat any

$_ZN9__gnu_cxx13new_allocatorINSt7__cxx1112basic_stringIcSt11char_traitsIcESaIcEEEE9constructIS6_JRS6_EEEvPT_DpOT0_ = comdat any

$_ZTVN4Poco3Net4Impl21IPv4SocketAddressImplE = comdat any

$_ZTSN4Poco3Net4Impl21IPv4SocketAddressImplE = comdat any

$_ZTIN4Poco3Net4Impl21IPv4SocketAddressImplE = comdat any

$_ZTVN4Poco3Net4Impl21IPv6SocketAddressImplE = comdat any

$_ZTSN4Poco3Net4Impl21IPv6SocketAddressImplE = comdat any

$_ZTIN4Poco3Net4Impl21IPv6SocketAddressImplE = comdat any

$_ZZNSt8__detail18__to_chars_10_implImEEvPcjT_E8__digits = comdat any

$_ZZNSt8__detail18__to_chars_10_implIjEEvPcjT_E8__digits = comdat any

$_ZSt19piecewise_construct = comdat any

@_ZStL8__ioinit = internal global %"class.std::ios_base::Init" zeroinitializer, align 1, !dbg !0
@__dso_handle = external hidden global i8
@_ZN3LogL3endE = internal global %"struct.Log::_end_marker" zeroinitializer, align 1, !dbg !7
@.str = private unnamed_addr constant [26 x i8] c"quarantine_files[@enable]\00", align 1, !dbg !18
@_ZN7COOLWSD14QuarantinePathB5cxx11E = external global %"class.std::__cxx11::basic_string", align 8
@_ZN7COOLWSD13QuarantineMapB5cxx11E = external global %"class.std::unordered_map", align 8
@.str.2 = private unnamed_addr constant [35 x i8] c"quarantine_files.limit_dir_size_mb\00", align 1, !dbg !26
@.str.3 = private unnamed_addr constant [28 x i8] c"quarantine_files.expiry_min\00", align 1, !dbg !31
@.str.4 = private unnamed_addr constant [42 x i8] c"quarantine_files.max_versions_to_maintain\00", align 1, !dbg !36
@.str.5 = private unnamed_addr constant [4 x i8] c"?#/\00", align 1, !dbg !41
@_ZN7COOLWSD9ChildRootB5cxx11E = external global %"class.std::__cxx11::basic_string", align 8
@.str.6 = private unnamed_addr constant [10 x i8] c"tmp/cool-\00", align 1, !dbg !46
@.str.7 = private unnamed_addr constant [12 x i8] c"/user/docs/\00", align 1, !dbg !51
@.str.8 = private unnamed_addr constant [2 x i8] c"/\00", align 1, !dbg !56
@.str.9 = private unnamed_addr constant [2 x i8] c"_\00", align 1, !dbg !61
@.str.10 = private unnamed_addr constant [4 x i8] c"INF\00", align 1, !dbg !63
@.str.11 = private unnamed_addr constant [13 x i8] c"Quarantined \00", align 1, !dbg !65
@.str.12 = private unnamed_addr constant [5 x i8] c" to \00", align 1, !dbg !70
@.str.13 = private unnamed_addr constant [3 x i8] c"| \00", align 1, !dbg !75
@.str.14 = private unnamed_addr constant [23 x i8] c"wsd/QuarantineUtil.cpp\00", align 1, !dbg !80
@.str.15 = private unnamed_addr constant [4 x i8] c"ERR\00", align 1, !dbg !85
@.str.16 = private unnamed_addr constant [22 x i8] c"Quarantining of file \00", align 1, !dbg !87
@.str.17 = private unnamed_addr constant [10 x i8] c" failed: \00", align 1, !dbg !92
@.str.18 = private unnamed_addr constant [3 x i8] c": \00", align 1, !dbg !94
@_ZTVN4Poco3Net4Impl21IPv4SocketAddressImplE = linkonce_odr dso_local unnamed_addr constant { [11 x ptr] } { [11 x ptr] [ptr null, ptr @_ZTIN4Poco3Net4Impl21IPv4SocketAddressImplE, ptr @_ZN4Poco3Net4Impl21IPv4SocketAddressImplD2Ev, ptr @_ZN4Poco3Net4Impl21IPv4SocketAddressImplD0Ev, ptr @_ZNK4Poco3Net4Impl21IPv4SocketAddressImpl4hostEv, ptr @_ZNK4Poco3Net4Impl21IPv4SocketAddressImpl4portEv, ptr @_ZNK4Poco3Net4Impl21IPv4SocketAddressImpl6lengthEv, ptr @_ZNK4Poco3Net4Impl21IPv4SocketAddressImpl4addrEv, ptr @_ZNK4Poco3Net4Impl21IPv4SocketAddressImpl2afEv, ptr @_ZNK4Poco3Net4Impl21IPv4SocketAddressImpl6familyEv, ptr @_ZNK4Poco3Net4Impl21IPv4SocketAddressImpl8toStringB5cxx11Ev] }, comdat, align 8
@_ZTVN10__cxxabiv120__si_class_type_infoE = external global ptr
@_ZTSN4Poco3Net4Impl21IPv4SocketAddressImplE = linkonce_odr dso_local constant [40 x i8] c"N4Poco3Net4Impl21IPv4SocketAddressImplE\00", comdat, align 1
@_ZTIN4Poco3Net4Impl17SocketAddressImplE = external constant ptr
@_ZTIN4Poco3Net4Impl21IPv4SocketAddressImplE = linkonce_odr dso_local constant { ptr, ptr, ptr } { ptr getelementptr inbounds (ptr, ptr @_ZTVN10__cxxabiv120__si_class_type_infoE, i64 2), ptr @_ZTSN4Poco3Net4Impl21IPv4SocketAddressImplE, ptr @_ZTIN4Poco3Net4Impl17SocketAddressImplE }, comdat, align 8
@_ZTVN4Poco3Net4Impl21IPv6SocketAddressImplE = linkonce_odr dso_local unnamed_addr constant { [11 x ptr] } { [11 x ptr] [ptr null, ptr @_ZTIN4Poco3Net4Impl21IPv6SocketAddressImplE, ptr @_ZN4Poco3Net4Impl21IPv6SocketAddressImplD2Ev, ptr @_ZN4Poco3Net4Impl21IPv6SocketAddressImplD0Ev, ptr @_ZNK4Poco3Net4Impl21IPv6SocketAddressImpl4hostEv, ptr @_ZNK4Poco3Net4Impl21IPv6SocketAddressImpl4portEv, ptr @_ZNK4Poco3Net4Impl21IPv6SocketAddressImpl6lengthEv, ptr @_ZNK4Poco3Net4Impl21IPv6SocketAddressImpl4addrEv, ptr @_ZNK4Poco3Net4Impl21IPv6SocketAddressImpl2afEv, ptr @_ZNK4Poco3Net4Impl21IPv6SocketAddressImpl6familyEv, ptr @_ZNK4Poco3Net4Impl21IPv6SocketAddressImpl8toStringB5cxx11Ev] }, comdat, align 8
@_ZTSN4Poco3Net4Impl21IPv6SocketAddressImplE = linkonce_odr dso_local constant [40 x i8] c"N4Poco3Net4Impl21IPv6SocketAddressImplE\00", comdat, align 1
@_ZTIN4Poco3Net4Impl21IPv6SocketAddressImplE = linkonce_odr dso_local constant { ptr, ptr, ptr } { ptr getelementptr inbounds (ptr, ptr @_ZTVN10__cxxabiv120__si_class_type_infoE, i64 2), ptr @_ZTSN4Poco3Net4Impl21IPv6SocketAddressImplE, ptr @_ZTIN4Poco3Net4Impl17SocketAddressImplE }, comdat, align 8
@.str.19 = private unnamed_addr constant [16 x i8] c"vector::reserve\00", align 1, !dbg !96
@.str.20 = private unnamed_addr constant [26 x i8] c"vector::_M_realloc_insert\00", align 1, !dbg !102
@_ZZNSt8__detail18__to_chars_10_implImEEvPcjT_E8__digits = linkonce_odr dso_local constant [201 x i8] c"00010203040506070809101112131415161718192021222324252627282930313233343536373839404142434445464748495051525354555657585960616263646566676869707172737475767778798081828384858687888990919293949596979899\00", comdat, align 16, !dbg !104
@_ZZNSt8__detail18__to_chars_10_implIjEEvPcjT_E8__digits = linkonce_odr dso_local constant [201 x i8] c"00010203040506070809101112131415161718192021222324252627282930313233343536373839404142434445464748495051525354555657585960616263646566676869707172737475767778798081828384858687888990919293949596979899\00", comdat, align 16, !dbg !3529
@_ZN3Log10IsShutdownE = external global i8, align 1
@.str.21 = private unnamed_addr constant [6 x i8] c"EPERM\00", align 1, !dbg !3540
@.str.22 = private unnamed_addr constant [7 x i8] c"ENOENT\00", align 1, !dbg !3546
@.str.23 = private unnamed_addr constant [6 x i8] c"ESRCH\00", align 1, !dbg !3551
@.str.24 = private unnamed_addr constant [6 x i8] c"EINTR\00", align 1, !dbg !3553
@.str.25 = private unnamed_addr constant [4 x i8] c"EIO\00", align 1, !dbg !3555
@.str.26 = private unnamed_addr constant [6 x i8] c"ENXIO\00", align 1, !dbg !3557
@.str.27 = private unnamed_addr constant [6 x i8] c"E2BIG\00", align 1, !dbg !3559
@.str.28 = private unnamed_addr constant [8 x i8] c"ENOEXEC\00", align 1, !dbg !3561
@.str.29 = private unnamed_addr constant [6 x i8] c"EBADF\00", align 1, !dbg !3566
@.str.30 = private unnamed_addr constant [7 x i8] c"ECHILD\00", align 1, !dbg !3568
@.str.31 = private unnamed_addr constant [7 x i8] c"EAGAIN\00", align 1, !dbg !3570
@.str.32 = private unnamed_addr constant [7 x i8] c"ENOMEM\00", align 1, !dbg !3572
@.str.33 = private unnamed_addr constant [7 x i8] c"EACCES\00", align 1, !dbg !3574
@.str.34 = private unnamed_addr constant [7 x i8] c"EFAULT\00", align 1, !dbg !3576
@.str.35 = private unnamed_addr constant [8 x i8] c"ENOTBLK\00", align 1, !dbg !3578
@.str.36 = private unnamed_addr constant [6 x i8] c"EBUSY\00", align 1, !dbg !3580
@.str.37 = private unnamed_addr constant [7 x i8] c"EEXIST\00", align 1, !dbg !3582
@.str.38 = private unnamed_addr constant [6 x i8] c"EXDEV\00", align 1, !dbg !3584
@.str.39 = private unnamed_addr constant [7 x i8] c"ENODEV\00", align 1, !dbg !3586
@.str.40 = private unnamed_addr constant [8 x i8] c"ENOTDIR\00", align 1, !dbg !3588
@.str.41 = private unnamed_addr constant [7 x i8] c"EISDIR\00", align 1, !dbg !3590
@.str.42 = private unnamed_addr constant [7 x i8] c"EINVAL\00", align 1, !dbg !3592
@.str.43 = private unnamed_addr constant [7 x i8] c"ENFILE\00", align 1, !dbg !3594
@.str.44 = private unnamed_addr constant [7 x i8] c"EMFILE\00", align 1, !dbg !3596
@.str.45 = private unnamed_addr constant [7 x i8] c"ENOTTY\00", align 1, !dbg !3598
@.str.46 = private unnamed_addr constant [8 x i8] c"ETXTBSY\00", align 1, !dbg !3600
@.str.47 = private unnamed_addr constant [6 x i8] c"EFBIG\00", align 1, !dbg !3602
@.str.48 = private unnamed_addr constant [7 x i8] c"ENOSPC\00", align 1, !dbg !3604
@.str.49 = private unnamed_addr constant [7 x i8] c"ESPIPE\00", align 1, !dbg !3606
@.str.50 = private unnamed_addr constant [6 x i8] c"EROFS\00", align 1, !dbg !3608
@.str.51 = private unnamed_addr constant [7 x i8] c"EMLINK\00", align 1, !dbg !3610
@.str.52 = private unnamed_addr constant [6 x i8] c"EPIPE\00", align 1, !dbg !3612
@.str.53 = private unnamed_addr constant [5 x i8] c"EDOM\00", align 1, !dbg !3614
@.str.54 = private unnamed_addr constant [7 x i8] c"ERANGE\00", align 1, !dbg !3616
@.str.55 = private unnamed_addr constant [8 x i8] c"EDEADLK\00", align 1, !dbg !3618
@.str.56 = private unnamed_addr constant [13 x i8] c"ENAMETOOLONG\00", align 1, !dbg !3620
@.str.57 = private unnamed_addr constant [7 x i8] c"ENOLCK\00", align 1, !dbg !3622
@.str.58 = private unnamed_addr constant [7 x i8] c"ENOSYS\00", align 1, !dbg !3624
@.str.59 = private unnamed_addr constant [10 x i8] c"ENOTEMPTY\00", align 1, !dbg !3626
@.str.60 = private unnamed_addr constant [6 x i8] c"ELOOP\00", align 1, !dbg !3628
@.str.61 = private unnamed_addr constant [7 x i8] c"ENOMSG\00", align 1, !dbg !3630
@.str.62 = private unnamed_addr constant [6 x i8] c"EIDRM\00", align 1, !dbg !3632
@.str.63 = private unnamed_addr constant [7 x i8] c"ECHRNG\00", align 1, !dbg !3634
@.str.64 = private unnamed_addr constant [9 x i8] c"EL2NSYNC\00", align 1, !dbg !3636
@.str.65 = private unnamed_addr constant [7 x i8] c"EL3HLT\00", align 1, !dbg !3641
@.str.66 = private unnamed_addr constant [7 x i8] c"EL3RST\00", align 1, !dbg !3643
@.str.67 = private unnamed_addr constant [7 x i8] c"ELNRNG\00", align 1, !dbg !3645
@.str.68 = private unnamed_addr constant [8 x i8] c"EUNATCH\00", align 1, !dbg !3647
@.str.69 = private unnamed_addr constant [7 x i8] c"ENOCSI\00", align 1, !dbg !3649
@.str.70 = private unnamed_addr constant [7 x i8] c"EL2HLT\00", align 1, !dbg !3651
@.str.71 = private unnamed_addr constant [6 x i8] c"EBADE\00", align 1, !dbg !3653
@.str.72 = private unnamed_addr constant [6 x i8] c"EBADR\00", align 1, !dbg !3655
@.str.73 = private unnamed_addr constant [7 x i8] c"EXFULL\00", align 1, !dbg !3657
@.str.74 = private unnamed_addr constant [7 x i8] c"ENOANO\00", align 1, !dbg !3659
@.str.75 = private unnamed_addr constant [8 x i8] c"EBADRQC\00", align 1, !dbg !3661
@.str.76 = private unnamed_addr constant [8 x i8] c"EBADSLT\00", align 1, !dbg !3663
@.str.77 = private unnamed_addr constant [7 x i8] c"EBFONT\00", align 1, !dbg !3665
@.str.78 = private unnamed_addr constant [7 x i8] c"ENOSTR\00", align 1, !dbg !3667
@.str.79 = private unnamed_addr constant [8 x i8] c"ENODATA\00", align 1, !dbg !3669
@.str.80 = private unnamed_addr constant [6 x i8] c"ETIME\00", align 1, !dbg !3671
@.str.81 = private unnamed_addr constant [6 x i8] c"ENOSR\00", align 1, !dbg !3673
@.str.82 = private unnamed_addr constant [7 x i8] c"ENONET\00", align 1, !dbg !3675
@.str.83 = private unnamed_addr constant [7 x i8] c"ENOPKG\00", align 1, !dbg !3677
@.str.84 = private unnamed_addr constant [8 x i8] c"EREMOTE\00", align 1, !dbg !3679
@.str.85 = private unnamed_addr constant [8 x i8] c"ENOLINK\00", align 1, !dbg !3681
@.str.86 = private unnamed_addr constant [5 x i8] c"EADV\00", align 1, !dbg !3683
@.str.87 = private unnamed_addr constant [7 x i8] c"ESRMNT\00", align 1, !dbg !3685
@.str.88 = private unnamed_addr constant [6 x i8] c"ECOMM\00", align 1, !dbg !3687
@.str.89 = private unnamed_addr constant [7 x i8] c"EPROTO\00", align 1, !dbg !3689
@.str.90 = private unnamed_addr constant [10 x i8] c"EMULTIHOP\00", align 1, !dbg !3691
@.str.91 = private unnamed_addr constant [8 x i8] c"EDOTDOT\00", align 1, !dbg !3693
@.str.92 = private unnamed_addr constant [8 x i8] c"EBADMSG\00", align 1, !dbg !3695
@.str.93 = private unnamed_addr constant [10 x i8] c"EOVERFLOW\00", align 1, !dbg !3697
@.str.94 = private unnamed_addr constant [9 x i8] c"ENOTUNIQ\00", align 1, !dbg !3699
@.str.95 = private unnamed_addr constant [7 x i8] c"EBADFD\00", align 1, !dbg !3701
@.str.96 = private unnamed_addr constant [8 x i8] c"EREMCHG\00", align 1, !dbg !3703
@.str.97 = private unnamed_addr constant [8 x i8] c"ELIBACC\00", align 1, !dbg !3705
@.str.98 = private unnamed_addr constant [8 x i8] c"ELIBBAD\00", align 1, !dbg !3707
@.str.99 = private unnamed_addr constant [8 x i8] c"ELIBSCN\00", align 1, !dbg !3709
@.str.100 = private unnamed_addr constant [8 x i8] c"ELIBMAX\00", align 1, !dbg !3711
@.str.101 = private unnamed_addr constant [9 x i8] c"ELIBEXEC\00", align 1, !dbg !3713
@.str.102 = private unnamed_addr constant [7 x i8] c"EILSEQ\00", align 1, !dbg !3715
@.str.103 = private unnamed_addr constant [9 x i8] c"ERESTART\00", align 1, !dbg !3717
@.str.104 = private unnamed_addr constant [9 x i8] c"ESTRPIPE\00", align 1, !dbg !3719
@.str.105 = private unnamed_addr constant [7 x i8] c"EUSERS\00", align 1, !dbg !3721
@.str.106 = private unnamed_addr constant [9 x i8] c"ENOTSOCK\00", align 1, !dbg !3723
@.str.107 = private unnamed_addr constant [13 x i8] c"EDESTADDRREQ\00", align 1, !dbg !3725
@.str.108 = private unnamed_addr constant [9 x i8] c"EMSGSIZE\00", align 1, !dbg !3727
@.str.109 = private unnamed_addr constant [11 x i8] c"EPROTOTYPE\00", align 1, !dbg !3729
@.str.110 = private unnamed_addr constant [12 x i8] c"ENOPROTOOPT\00", align 1, !dbg !3734
@.str.111 = private unnamed_addr constant [16 x i8] c"EPROTONOSUPPORT\00", align 1, !dbg !3736
@.str.112 = private unnamed_addr constant [16 x i8] c"ESOCKTNOSUPPORT\00", align 1, !dbg !3738
@.str.113 = private unnamed_addr constant [11 x i8] c"EOPNOTSUPP\00", align 1, !dbg !3740
@.str.114 = private unnamed_addr constant [13 x i8] c"EPFNOSUPPORT\00", align 1, !dbg !3742
@.str.115 = private unnamed_addr constant [13 x i8] c"EAFNOSUPPORT\00", align 1, !dbg !3744
@.str.116 = private unnamed_addr constant [11 x i8] c"EADDRINUSE\00", align 1, !dbg !3746
@.str.117 = private unnamed_addr constant [14 x i8] c"EADDRNOTAVAIL\00", align 1, !dbg !3748
@.str.118 = private unnamed_addr constant [9 x i8] c"ENETDOWN\00", align 1, !dbg !3751
@.str.119 = private unnamed_addr constant [12 x i8] c"ENETUNREACH\00", align 1, !dbg !3753
@.str.120 = private unnamed_addr constant [10 x i8] c"ENETRESET\00", align 1, !dbg !3755
@.str.121 = private unnamed_addr constant [13 x i8] c"ECONNABORTED\00", align 1, !dbg !3757
@.str.122 = private unnamed_addr constant [11 x i8] c"ECONNRESET\00", align 1, !dbg !3759
@.str.123 = private unnamed_addr constant [8 x i8] c"ENOBUFS\00", align 1, !dbg !3761
@.str.124 = private unnamed_addr constant [8 x i8] c"EISCONN\00", align 1, !dbg !3763
@.str.125 = private unnamed_addr constant [9 x i8] c"ENOTCONN\00", align 1, !dbg !3765
@.str.126 = private unnamed_addr constant [10 x i8] c"ESHUTDOWN\00", align 1, !dbg !3767
@.str.127 = private unnamed_addr constant [13 x i8] c"ETOOMANYREFS\00", align 1, !dbg !3769
@.str.128 = private unnamed_addr constant [10 x i8] c"ETIMEDOUT\00", align 1, !dbg !3771
@.str.129 = private unnamed_addr constant [13 x i8] c"ECONNREFUSED\00", align 1, !dbg !3773
@.str.130 = private unnamed_addr constant [10 x i8] c"EHOSTDOWN\00", align 1, !dbg !3775
@.str.131 = private unnamed_addr constant [13 x i8] c"EHOSTUNREACH\00", align 1, !dbg !3777
@.str.132 = private unnamed_addr constant [9 x i8] c"EALREADY\00", align 1, !dbg !3779
@.str.133 = private unnamed_addr constant [12 x i8] c"EINPROGRESS\00", align 1, !dbg !3781
@.str.134 = private unnamed_addr constant [7 x i8] c"ESTALE\00", align 1, !dbg !3783
@.str.135 = private unnamed_addr constant [8 x i8] c"EUCLEAN\00", align 1, !dbg !3785
@.str.136 = private unnamed_addr constant [8 x i8] c"ENOTNAM\00", align 1, !dbg !3787
@.str.137 = private unnamed_addr constant [8 x i8] c"ENAVAIL\00", align 1, !dbg !3789
@.str.138 = private unnamed_addr constant [7 x i8] c"EISNAM\00", align 1, !dbg !3791
@.str.139 = private unnamed_addr constant [10 x i8] c"EREMOTEIO\00", align 1, !dbg !3793
@.str.140 = private unnamed_addr constant [7 x i8] c"EDQUOT\00", align 1, !dbg !3795
@.str.141 = private unnamed_addr constant [10 x i8] c"ENOMEDIUM\00", align 1, !dbg !3797
@.str.142 = private unnamed_addr constant [12 x i8] c"EMEDIUMTYPE\00", align 1, !dbg !3799
@.str.143 = private unnamed_addr constant [10 x i8] c"ECANCELED\00", align 1, !dbg !3801
@.str.144 = private unnamed_addr constant [7 x i8] c"ENOKEY\00", align 1, !dbg !3803
@.str.145 = private unnamed_addr constant [12 x i8] c"EKEYEXPIRED\00", align 1, !dbg !3805
@.str.146 = private unnamed_addr constant [12 x i8] c"EKEYREVOKED\00", align 1, !dbg !3807
@.str.147 = private unnamed_addr constant [13 x i8] c"EKEYREJECTED\00", align 1, !dbg !3809
@.str.148 = private unnamed_addr constant [11 x i8] c"EOWNERDEAD\00", align 1, !dbg !3811
@.str.149 = private unnamed_addr constant [16 x i8] c"ENOTRECOVERABLE\00", align 1, !dbg !3813
@.str.150 = private unnamed_addr constant [8 x i8] c"ERFKILL\00", align 1, !dbg !3815
@.str.151 = private unnamed_addr constant [10 x i8] c"EHWPOISON\00", align 1, !dbg !3817
@.str.152 = private unnamed_addr constant [42 x i8] c"basic_string::_M_construct null not valid\00", align 1, !dbg !3819
@.str.153 = private unnamed_addr constant [11 x i8] c"[@default]\00", align 1, !dbg !3821
@_ZN4Poco4Util11Application10_pInstanceE = external global ptr, align 8
@.str.154 = private unnamed_addr constant [11 x i8] c"_pInstance\00", align 1, !dbg !3823
@.str.155 = private unnamed_addr constant [37 x i8] c"/usr/include/Poco/Util/Application.h\00", align 1, !dbg !3826
@_ZSt19piecewise_construct = linkonce_odr dso_local constant %"struct.std::piecewise_construct_t" undef, comdat, align 1, !dbg !3831
@llvm.global_ctors = appending global [1 x { i32, ptr, ptr }] [{ i32, ptr, ptr } { i32 65535, ptr @_GLOBAL__sub_I_QuarantineUtil.cpp, ptr null }]

; Function Attrs: noinline uwtable
define internal void @__cxx_global_var_init() #0 section ".text.startup" !dbg !5280 {
  call void @_ZNSt8ios_base4InitC1Ev(ptr noundef nonnull align 1 dereferenceable(1) @_ZStL8__ioinit), !dbg !5281
  %1 = call i32 @__cxa_atexit(ptr @_ZNSt8ios_base4InitD1Ev, ptr @_ZStL8__ioinit, ptr @__dso_handle) #3, !dbg !5283
  ret void, !dbg !5281
}

declare void @_ZNSt8ios_base4InitC1Ev(ptr noundef nonnull align 1 dereferenceable(1)) unnamed_addr #1

; Function Attrs: nounwind
declare void @_ZNSt8ios_base4InitD1Ev(ptr noundef nonnull align 1 dereferenceable(1)) unnamed_addr #2

; Function Attrs: nounwind
declare i32 @__cxa_atexit(ptr, ptr, ptr) #3

; Function Attrs: noinline uwtable
define internal void @__cxx_global_var_init.1() #0 section ".text.startup" !dbg !5284 {
  call void @_ZN3Log11_end_markerC2Ev(ptr noundef nonnull align 1 dereferenceable(1) @_ZN3LogL3endE), !dbg !5285
  ret void, !dbg !5285
}

; Function Attrs: noinline nounwind optnone uwtable
define linkonce_odr dso_local void @_ZN3Log11_end_markerC2Ev(ptr noundef nonnull align 1 dereferenceable(1) %0) unnamed_addr #4 comdat align 2 !dbg !5287 {
  %2 = alloca ptr, align 8
  store ptr %0, ptr %2, align 8
  call void @llvm.dbg.declare(metadata ptr %2, metadata !5288, metadata !DIExpression()), !dbg !5290
  %3 = load ptr, ptr %2, align 8
  ret void, !dbg !5291
}

; Function Attrs: mustprogress noinline optnone uwtable
define linkonce_odr dso_local void @_ZNK4Poco3Net4Impl21IPv4SocketAddressImpl4hostEv(ptr noalias sret(%"class.Poco::Net::IPAddress") align 8 %0, ptr noundef nonnull align 8 dereferenceable(28) %1) unnamed_addr #5 comdat align 2 !dbg !5292 {
  %3 = alloca ptr, align 8
  %4 = alloca ptr, align 8
  store ptr %0, ptr %3, align 8
  store ptr %1, ptr %4, align 8
  call void @llvm.dbg.declare(metadata ptr %4, metadata !5358, metadata !DIExpression()), !dbg !5360
  %5 = load ptr, ptr %4, align 8
  %6 = getelementptr inbounds %"class.Poco::Net::Impl::IPv4SocketAddressImpl", ptr %5, i32 0, i32 1, !dbg !5361
  %7 = getelementptr inbounds %struct.sockaddr_in, ptr %6, i32 0, i32 2, !dbg !5362
  call void @_ZN4Poco3Net9IPAddressC1EPKvj(ptr noundef nonnull align 8 dereferenceable(8) %0, ptr noundef %7, i32 noundef 4), !dbg !5363
  ret void, !dbg !5364
}

; Function Attrs: nocallback nofree nosync nounwind speculatable willreturn memory(none)
declare void @llvm.dbg.declare(metadata, metadata, metadata) #6

declare void @_ZN4Poco3Net9IPAddressC1EPKvj(ptr noundef nonnull align 8 dereferenceable(8), ptr noundef, i32 noundef) unnamed_addr #1

; Function Attrs: mustprogress noinline optnone uwtable
define linkonce_odr dso_local void @_ZNK4Poco3Net4Impl21IPv6SocketAddressImpl4hostEv(ptr noalias sret(%"class.Poco::Net::IPAddress") align 8 %0, ptr noundef nonnull align 8 dereferenceable(40) %1) unnamed_addr #5 comdat align 2 !dbg !5365 {
  %3 = alloca ptr, align 8
  %4 = alloca ptr, align 8
  store ptr %0, ptr %3, align 8
  store ptr %1, ptr %4, align 8
  call void @llvm.dbg.declare(metadata ptr %4, metadata !5424, metadata !DIExpression()), !dbg !5426
  %5 = load ptr, ptr %4, align 8
  %6 = getelementptr inbounds %"class.Poco::Net::Impl::IPv6SocketAddressImpl", ptr %5, i32 0, i32 1, !dbg !5427
  %7 = getelementptr inbounds %struct.sockaddr_in6, ptr %6, i32 0, i32 3, !dbg !5428
  %8 = getelementptr inbounds %"class.Poco::Net::Impl::IPv6SocketAddressImpl", ptr %5, i32 0, i32 1, !dbg !5429
  %9 = getelementptr inbounds %struct.sockaddr_in6, ptr %8, i32 0, i32 4, !dbg !5430
  %10 = load i32, ptr %9, align 4, !dbg !5430
  call void @_ZN4Poco3Net9IPAddressC1EPKvjj(ptr noundef nonnull align 8 dereferenceable(8) %0, ptr noundef %7, i32 noundef 16, i32 noundef %10), !dbg !5431
  ret void, !dbg !5432
}

declare void @_ZN4Poco3Net9IPAddressC1EPKvjj(ptr noundef nonnull align 8 dereferenceable(8), ptr noundef, i32 noundef, i32 noundef) unnamed_addr #1

; Function Attrs: mustprogress noinline optnone uwtable
define dso_local noundef zeroext i1 @_ZN10Quarantine19isQuarantineEnabledEv() #5 personality ptr @__gxx_personality_v0 !dbg !5433 {
  %1 = alloca %"class.std::__cxx11::basic_string", align 8
  %2 = alloca %"class.std::allocator", align 1
  %3 = alloca ptr, align 8
  %4 = alloca i32, align 4
  call void @_ZNSaIcEC1Ev(ptr noundef nonnull align 1 dereferenceable(1) %2) #3, !dbg !5435
  invoke void @_ZNSt7__cxx1112basic_stringIcSt11char_traitsIcESaIcEEC2IS3_EEPKcRKS3_(ptr noundef nonnull align 8 dereferenceable(32) %1, ptr noundef @.str, ptr noundef nonnull align 1 dereferenceable(1) %2)
          to label %5 unwind label %8, !dbg !5435

5:                                                ; preds = %0
  %6 = invoke noundef zeroext i1 @_ZN7COOLWSD14getConfigValueIbEET_RKNSt7__cxx1112basic_stringIcSt11char_traitsIcESaIcEEES1_(ptr noundef nonnull align 8 dereferenceable(32) %1, i1 noundef zeroext false)
          to label %7 unwind label %12, !dbg !5436

7:                                                ; preds = %5
  call void @_ZNSt7__cxx1112basic_stringIcSt11char_traitsIcESaIcEED1Ev(ptr noundef nonnull align 8 dereferenceable(32) %1) #3, !dbg !5437
  call void @_ZNSaIcED1Ev(ptr noundef nonnull align 1 dereferenceable(1) %2) #3, !dbg !5437
  ret i1 %6, !dbg !5437

8:                                                ; preds = %0
  %9 = landingpad { ptr, i32 }
          cleanup, !dbg !5438
  %10 = extractvalue { ptr, i32 } %9, 0, !dbg !5438
  store ptr %10, ptr %3, align 8, !dbg !5438
  %11 = extractvalue { ptr, i32 } %9, 1, !dbg !5438
  store i32 %11, ptr %4, align 4, !dbg !5438
  br label %16, !dbg !5438

12:                                               ; preds = %5
  %13 = landingpad { ptr, i32 }
          cleanup, !dbg !5438
  %14 = extractvalue { ptr, i32 } %13, 0, !dbg !5438
  store ptr %14, ptr %3, align 8, !dbg !5438
  %15 = extractvalue { ptr, i32 } %13, 1, !dbg !5438
  store i32 %15, ptr %4, align 4, !dbg !5438
  call void @_ZNSt7__cxx1112basic_stringIcSt11char_traitsIcESaIcEED1Ev(ptr noundef nonnull align 8 dereferenceable(32) %1) #3, !dbg !5437
  br label %16, !dbg !5437

16:                                               ; preds = %12, %8
  call void @_ZNSaIcED1Ev(ptr noundef nonnull align 1 dereferenceable(1) %2) #3, !dbg !5437
  br label %17, !dbg !5437

17:                                               ; preds = %16
  %18 = load ptr, ptr %3, align 8, !dbg !5437
  %19 = load i32, ptr %4, align 4, !dbg !5437
  %20 = insertvalue { ptr, i32 } poison, ptr %18, 0, !dbg !5437
  %21 = insertvalue { ptr, i32 } %20, i32 %19, 1, !dbg !5437
  resume { ptr, i32 } %21, !dbg !5437
}

; Function Attrs: mustprogress noinline optnone uwtable
define linkonce_odr dso_local noundef zeroext i1 @_ZN7COOLWSD14getConfigValueIbEET_RKNSt7__cxx1112basic_stringIcSt11char_traitsIcESaIcEEES1_(ptr noundef nonnull align 8 dereferenceable(32) %0, i1 noundef zeroext %1) #5 comdat align 2 !dbg !5439 {
  %3 = alloca i1, align 1
  %4 = alloca ptr, align 8
  %5 = alloca i8, align 1
  store ptr %0, ptr %4, align 8
  call void @llvm.dbg.declare(metadata ptr %4, metadata !5445, metadata !DIExpression()), !dbg !5446
  %6 = zext i1 %1 to i8
  store i8 %6, ptr %5, align 1
  call void @llvm.dbg.declare(metadata ptr %5, metadata !5447, metadata !DIExpression()), !dbg !5448
  %7 = call noundef zeroext i1 @_ZN4Util9isFuzzingEv(), !dbg !5449
  br i1 %7, label %8, label %11, !dbg !5451

8:                                                ; preds = %2
  %9 = load i8, ptr %5, align 1, !dbg !5452
  %10 = trunc i8 %9 to i1, !dbg !5452
  store i1 %10, ptr %3, align 1, !dbg !5454
  br label %18, !dbg !5454

11:                                               ; preds = %2
  %12 = call noundef nonnull align 8 dereferenceable(224) ptr @_ZN4Poco4Util11Application8instanceEv(), !dbg !5455
  %13 = call noundef nonnull align 8 dereferenceable(536) ptr @_ZNK4Poco4Util11Application6configEv(ptr noundef nonnull align 8 dereferenceable(224) %12), !dbg !5456
  %14 = load ptr, ptr %4, align 8, !dbg !5457
  %15 = load i8, ptr %5, align 1, !dbg !5458
  %16 = trunc i8 %15 to i1, !dbg !5458
  %17 = call noundef zeroext i1 @_ZN7COOLWSD14getConfigValueIbEET_RN4Poco4Util20LayeredConfigurationERKNSt7__cxx1112basic_stringIcSt11char_traitsIcESaIcEEES1_(ptr noundef nonnull align 8 dereferenceable(536) %13, ptr noundef nonnull align 8 dereferenceable(32) %14, i1 noundef zeroext %16), !dbg !5459
  store i1 %17, ptr %3, align 1, !dbg !5460
  br label %18, !dbg !5460

18:                                               ; preds = %11, %8
  %19 = load i1, ptr %3, align 1, !dbg !5461
  ret i1 %19, !dbg !5461
}

; Function Attrs: nounwind
declare void @_ZNSaIcEC1Ev(ptr noundef nonnull align 1 dereferenceable(1)) unnamed_addr #2

; Function Attrs: noinline optnone uwtable
define linkonce_odr dso_local void @_ZNSt7__cxx1112basic_stringIcSt11char_traitsIcESaIcEEC2IS3_EEPKcRKS3_(ptr noundef nonnull align 8 dereferenceable(32) %0, ptr noundef %1, ptr noundef nonnull align 1 dereferenceable(1) %2) unnamed_addr #7 comdat align 2 personality ptr @__gxx_personality_v0 !dbg !5462 {
  %4 = alloca ptr, align 8
  %5 = alloca ptr, align 8
  %6 = alloca ptr, align 8
  %7 = alloca ptr, align 8
  %8 = alloca ptr, align 8
  %9 = alloca i32, align 4
  %10 = alloca %"struct.std::forward_iterator_tag", align 1
  %11 = alloca %"struct.std::random_access_iterator_tag", align 1
  store ptr %0, ptr %4, align 8
  call void @llvm.dbg.declare(metadata ptr %4, metadata !5468, metadata !DIExpression()), !dbg !5469
  store ptr %1, ptr %5, align 8
  call void @llvm.dbg.declare(metadata ptr %5, metadata !5470, metadata !DIExpression()), !dbg !5471
  store ptr %2, ptr %6, align 8
  call void @llvm.dbg.declare(metadata ptr %6, metadata !5472, metadata !DIExpression()), !dbg !5473
  %12 = load ptr, ptr %4, align 8
  %13 = getelementptr inbounds %"class.std::__cxx11::basic_string", ptr %12, i32 0, i32 0, !dbg !5474
  %14 = call noundef ptr @_ZNSt7__cxx1112basic_stringIcSt11char_traitsIcESaIcEE13_M_local_dataEv(ptr noundef nonnull align 8 dereferenceable(32) %12), !dbg !5475
  %15 = load ptr, ptr %6, align 8, !dbg !5476
  call void @_ZNSt7__cxx1112basic_stringIcSt11char_traitsIcESaIcEE12_Alloc_hiderC1EPcRKS3_(ptr noundef nonnull align 8 dereferenceable(8) %13, ptr noundef %14, ptr noundef nonnull align 1 dereferenceable(1) %15), !dbg !5474
  call void @llvm.dbg.declare(metadata ptr %7, metadata !5477, metadata !DIExpression()), !dbg !5479
  %16 = load ptr, ptr %5, align 8, !dbg !5480
  %17 = icmp ne ptr %16, null, !dbg !5480
  br i1 %17, label %18, label %24, !dbg !5480

18:                                               ; preds = %3
  %19 = load ptr, ptr %5, align 8, !dbg !5481
  %20 = load ptr, ptr %5, align 8, !dbg !5482
  %21 = invoke noundef i64 @_ZNSt11char_traitsIcE6lengthEPKc(ptr noundef %20)
          to label %22 unwind label %30, !dbg !5483

22:                                               ; preds = %18
  %23 = getelementptr inbounds i8, ptr %19, i64 %21, !dbg !5484
  br label %25, !dbg !5480

24:                                               ; preds = %3
  br label %25, !dbg !5480

25:                                               ; preds = %24, %22
  %26 = phi ptr [ %23, %22 ], [ inttoptr (i64 1 to ptr), %24 ], !dbg !5480
  store ptr %26, ptr %7, align 8, !dbg !5479
  %27 = load ptr, ptr %5, align 8, !dbg !5485
  %28 = load ptr, ptr %7, align 8, !dbg !5486
  invoke void @_ZNSt7__cxx1112basic_stringIcSt11char_traitsIcESaIcEE12_M_constructIPKcEEvT_S8_St20forward_iterator_tag(ptr noundef nonnull align 8 dereferenceable(32) %12, ptr noundef %27, ptr noundef %28)
          to label %29 unwind label %30, !dbg !5487

29:                                               ; preds = %25
  ret void, !dbg !5488

30:                                               ; preds = %25, %18
  %31 = landingpad { ptr, i32 }
          cleanup, !dbg !5489
  %32 = extractvalue { ptr, i32 } %31, 0, !dbg !5489
  store ptr %32, ptr %8, align 8, !dbg !5489
  %33 = extractvalue { ptr, i32 } %31, 1, !dbg !5489
  store i32 %33, ptr %9, align 4, !dbg !5489
  call void @_ZNSt7__cxx1112basic_stringIcSt11char_traitsIcESaIcEE12_Alloc_hiderD2Ev(ptr noundef nonnull align 8 dereferenceable(8) %13) #3, !dbg !5489
  br label %34, !dbg !5489

34:                                               ; preds = %30
  %35 = load ptr, ptr %8, align 8, !dbg !5489
  %36 = load i32, ptr %9, align 4, !dbg !5489
  %37 = insertvalue { ptr, i32 } poison, ptr %35, 0, !dbg !5489
  %38 = insertvalue { ptr, i32 } %37, i32 %36, 1, !dbg !5489
  resume { ptr, i32 } %38, !dbg !5489
}

declare i32 @__gxx_personality_v0(...)

; Function Attrs: nounwind
declare void @_ZNSt7__cxx1112basic_stringIcSt11char_traitsIcESaIcEED1Ev(ptr noundef nonnull align 8 dereferenceable(32)) unnamed_addr #2

; Function Attrs: nounwind
declare void @_ZNSaIcED1Ev(ptr noundef nonnull align 1 dereferenceable(1)) unnamed_addr #2

; Function Attrs: mustprogress noinline optnone uwtable
define dso_local void @_ZN10Quarantine19createQuarantineMapEv() #5 personality ptr @__gxx_personality_v0 !dbg !5490 {
  %1 = alloca %"class.std::vector", align 8
  %2 = alloca %"class.Poco::File", align 8
  %3 = alloca ptr, align 8
  %4 = alloca i32, align 4
  %5 = alloca %"class.std::vector.9", align 8
  %6 = alloca %"class.std::__cxx11::basic_string", align 8
  %7 = alloca %"class.__gnu_cxx::__normal_iterator", align 8
  %8 = alloca %"class.__gnu_cxx::__normal_iterator", align 8
  %9 = alloca ptr, align 8
  %10 = alloca %"class.__gnu_cxx::__normal_iterator", align 8
  %11 = alloca %"class.__gnu_cxx::__normal_iterator", align 8
  %12 = alloca %"class.std::__cxx11::basic_string", align 8
  %13 = alloca %"class.std::__cxx11::basic_string", align 8
  %14 = alloca %"class.std::__cxx11::basic_string", align 8
  %15 = call noundef zeroext i1 @_ZN10Quarantine19isQuarantineEnabledEv(), !dbg !5491
  br i1 %15, label %17, label %16, !dbg !5493

16:                                               ; preds = %0
  br label %81, !dbg !5494

17:                                               ; preds = %0
  call void @llvm.dbg.declare(metadata ptr %1, metadata !5495, metadata !DIExpression()), !dbg !5496
  call void @_ZNSt6vectorINSt7__cxx1112basic_stringIcSt11char_traitsIcESaIcEEESaIS5_EEC2Ev(ptr noundef nonnull align 8 dereferenceable(24) %1) #3, !dbg !5496
  invoke void @_ZN4Poco4FileC1ERKNSt7__cxx1112basic_stringIcSt11char_traitsIcESaIcEEE(ptr noundef nonnull align 8 dereferenceable(40) %2, ptr noundef nonnull align 8 dereferenceable(32) @_ZN7COOLWSD14QuarantinePathB5cxx11E)
          to label %18 unwind label %55, !dbg !5497

18:                                               ; preds = %17
  invoke void @_ZNK4Poco4File4listERSt6vectorINSt7__cxx1112basic_stringIcSt11char_traitsIcESaIcEEESaIS7_EE(ptr noundef nonnull align 8 dereferenceable(40) %2, ptr noundef nonnull align 8 dereferenceable(24) %1)
          to label %19 unwind label %59, !dbg !5498

19:                                               ; preds = %18
  call void @_ZN4Poco4FileD1Ev(ptr noundef nonnull align 8 dereferenceable(40) %2) #3, !dbg !5497
  call void @_ZNSt13unordered_mapINSt7__cxx1112basic_stringIcSt11char_traitsIcESaIcEEESt6vectorIS5_SaIS5_EESt4hashIS5_ESt8equal_toIS5_ESaISt4pairIKS5_S8_EEE5clearEv(ptr noundef nonnull align 8 dereferenceable(56) @_ZN7COOLWSD13QuarantineMapB5cxx11E) #3, !dbg !5499
  call void @llvm.dbg.declare(metadata ptr %5, metadata !5500, metadata !DIExpression()), !dbg !5501
  call void @_ZNSt6vectorI11StringTokenSaIS0_EEC2Ev(ptr noundef nonnull align 8 dereferenceable(24) %5) #3, !dbg !5501
  call void @llvm.dbg.declare(metadata ptr %6, metadata !5502, metadata !DIExpression()), !dbg !5503
  call void @_ZNSt7__cxx1112basic_stringIcSt11char_traitsIcESaIcEEC1Ev(ptr noundef nonnull align 8 dereferenceable(32) %6) #3, !dbg !5503
  %20 = call ptr @_ZNSt6vectorINSt7__cxx1112basic_stringIcSt11char_traitsIcESaIcEEESaIS5_EE5beginEv(ptr noundef nonnull align 8 dereferenceable(24) %1) #3, !dbg !5504
  %21 = getelementptr inbounds %"class.__gnu_cxx::__normal_iterator", ptr %7, i32 0, i32 0, !dbg !5504
  store ptr %20, ptr %21, align 8, !dbg !5504
  %22 = call ptr @_ZNSt6vectorINSt7__cxx1112basic_stringIcSt11char_traitsIcESaIcEEESaIS5_EE3endEv(ptr noundef nonnull align 8 dereferenceable(24) %1) #3, !dbg !5505
  %23 = getelementptr inbounds %"class.__gnu_cxx::__normal_iterator", ptr %8, i32 0, i32 0, !dbg !5505
  store ptr %22, ptr %23, align 8, !dbg !5505
  %24 = getelementptr inbounds %"class.__gnu_cxx::__normal_iterator", ptr %7, i32 0, i32 0, !dbg !5506
  %25 = load ptr, ptr %24, align 8, !dbg !5506
  %26 = getelementptr inbounds %"class.__gnu_cxx::__normal_iterator", ptr %8, i32 0, i32 0, !dbg !5506
  %27 = load ptr, ptr %26, align 8, !dbg !5506
  invoke void @_ZSt4sortIN9__gnu_cxx17__normal_iteratorIPNSt7__cxx1112basic_stringIcSt11char_traitsIcESaIcEEESt6vectorIS7_SaIS7_EEEEEvT_SD_(ptr %25, ptr %27)
          to label %28 unwind label %63, !dbg !5506

28:                                               ; preds = %19
  call void @llvm.dbg.declare(metadata ptr %9, metadata !5507, metadata !DIExpression()), !dbg !5509
  store ptr %1, ptr %9, align 8, !dbg !5510
  call void @llvm.dbg.declare(metadata ptr %10, metadata !5511, metadata !DIExpression()), !dbg !5509
  %29 = load ptr, ptr %9, align 8, !dbg !5512
  %30 = call ptr @_ZNSt6vectorINSt7__cxx1112basic_stringIcSt11char_traitsIcESaIcEEESaIS5_EE5beginEv(ptr noundef nonnull align 8 dereferenceable(24) %29) #3, !dbg !5512
  %31 = getelementptr inbounds %"class.__gnu_cxx::__normal_iterator", ptr %10, i32 0, i32 0, !dbg !5512
  store ptr %30, ptr %31, align 8, !dbg !5512
  call void @llvm.dbg.declare(metadata ptr %11, metadata !5513, metadata !DIExpression()), !dbg !5509
  %32 = load ptr, ptr %9, align 8, !dbg !5512
  %33 = call ptr @_ZNSt6vectorINSt7__cxx1112basic_stringIcSt11char_traitsIcESaIcEEESaIS5_EE3endEv(ptr noundef nonnull align 8 dereferenceable(24) %32) #3, !dbg !5512
  %34 = getelementptr inbounds %"class.__gnu_cxx::__normal_iterator", ptr %11, i32 0, i32 0, !dbg !5512
  store ptr %33, ptr %34, align 8, !dbg !5512
  br label %35, !dbg !5512

35:                                               ; preds = %53, %28
  %36 = call noundef zeroext i1 @_ZN9__gnu_cxxneIPNSt7__cxx1112basic_stringIcSt11char_traitsIcESaIcEEESt6vectorIS6_SaIS6_EEEEbRKNS_17__normal_iteratorIT_T0_EESG_(ptr noundef nonnull align 8 dereferenceable(8) %10, ptr noundef nonnull align 8 dereferenceable(8) %11) #3, !dbg !5512
  br i1 %36, label %37, label %80, !dbg !5512

37:                                               ; preds = %35
  call void @llvm.dbg.declare(metadata ptr %12, metadata !5514, metadata !DIExpression()), !dbg !5516
  %38 = call noundef nonnull align 8 dereferenceable(32) ptr @_ZNK9__gnu_cxx17__normal_iteratorIPNSt7__cxx1112basic_stringIcSt11char_traitsIcESaIcEEESt6vectorIS6_SaIS6_EEEdeEv(ptr noundef nonnull align 8 dereferenceable(8) %10) #3, !dbg !5517
  invoke void @_ZNSt7__cxx1112basic_stringIcSt11char_traitsIcESaIcEEC1ERKS4_(ptr noundef nonnull align 8 dereferenceable(32) %12, ptr noundef nonnull align 8 dereferenceable(32) %38)
          to label %39 unwind label %63, !dbg !5517

39:                                               ; preds = %37
  %40 = call noundef ptr @_ZNKSt7__cxx1112basic_stringIcSt11char_traitsIcESaIcEE5c_strEv(ptr noundef nonnull align 8 dereferenceable(32) %12) #3, !dbg !5518
  %41 = call noundef i64 @_ZNKSt7__cxx1112basic_stringIcSt11char_traitsIcESaIcEE4sizeEv(ptr noundef nonnull align 8 dereferenceable(32) %12) #3, !dbg !5520
  invoke void @_ZN4Util8tokenizeEPKcmcRSt6vectorI11StringTokenSaIS3_EE(ptr noundef %40, i64 noundef %41, i8 noundef signext 95, ptr noundef nonnull align 8 dereferenceable(24) %5)
          to label %42 unwind label %67, !dbg !5521

42:                                               ; preds = %39
  %43 = call noundef nonnull align 8 dereferenceable(16) ptr @_ZNSt6vectorI11StringTokenSaIS0_EEixEm(ptr noundef nonnull align 8 dereferenceable(24) %5, i64 noundef 2) #3, !dbg !5522
  %44 = getelementptr inbounds %struct.StringToken, ptr %43, i32 0, i32 0, !dbg !5523
  %45 = load i64, ptr %44, align 8, !dbg !5523
  invoke void @_ZNKSt7__cxx1112basic_stringIcSt11char_traitsIcESaIcEE6substrEmm(ptr sret(%"class.std::__cxx11::basic_string") align 8 %13, ptr noundef nonnull align 8 dereferenceable(32) %12, i64 noundef %45, i64 noundef -1)
          to label %46 unwind label %67, !dbg !5524

46:                                               ; preds = %42
  invoke void @_ZN4Poco3URI6decodeERKNSt7__cxx1112basic_stringIcSt11char_traitsIcESaIcEEERS6_b(ptr noundef nonnull align 8 dereferenceable(32) %13, ptr noundef nonnull align 8 dereferenceable(32) %6, i1 noundef zeroext false)
          to label %47 unwind label %71, !dbg !5525

47:                                               ; preds = %46
  call void @_ZNSt7__cxx1112basic_stringIcSt11char_traitsIcESaIcEED1Ev(ptr noundef nonnull align 8 dereferenceable(32) %13) #3, !dbg !5525
  %48 = invoke noundef nonnull align 8 dereferenceable(24) ptr @_ZNSt13unordered_mapINSt7__cxx1112basic_stringIcSt11char_traitsIcESaIcEEESt6vectorIS5_SaIS5_EESt4hashIS5_ESt8equal_toIS5_ESaISt4pairIKS5_S8_EEEixERSE_(ptr noundef nonnull align 8 dereferenceable(56) @_ZN7COOLWSD13QuarantineMapB5cxx11E, ptr noundef nonnull align 8 dereferenceable(32) %6)
          to label %49 unwind label %67, !dbg !5526

49:                                               ; preds = %47
  invoke void @_ZStplIcSt11char_traitsIcESaIcEENSt7__cxx1112basic_stringIT_T0_T1_EERKS8_SA_(ptr sret(%"class.std::__cxx11::basic_string") align 8 %14, ptr noundef nonnull align 8 dereferenceable(32) @_ZN7COOLWSD14QuarantinePathB5cxx11E, ptr noundef nonnull align 8 dereferenceable(32) %12)
          to label %50 unwind label %67, !dbg !5527

50:                                               ; preds = %49
  %51 = invoke noundef nonnull align 8 dereferenceable(32) ptr @_ZNSt6vectorINSt7__cxx1112basic_stringIcSt11char_traitsIcESaIcEEESaIS5_EE12emplace_backIJS5_EEERS5_DpOT_(ptr noundef nonnull align 8 dereferenceable(24) %48, ptr noundef nonnull align 8 dereferenceable(32) %14)
          to label %52 unwind label %75, !dbg !5528

52:                                               ; preds = %50
  call void @_ZNSt7__cxx1112basic_stringIcSt11char_traitsIcESaIcEED1Ev(ptr noundef nonnull align 8 dereferenceable(32) %14) #3, !dbg !5526
  call void @_ZNSt6vectorI11StringTokenSaIS0_EE5clearEv(ptr noundef nonnull align 8 dereferenceable(24) %5) #3, !dbg !5529
  call void @_ZNSt7__cxx1112basic_stringIcSt11char_traitsIcESaIcEE5clearEv(ptr noundef nonnull align 8 dereferenceable(32) %6) #3, !dbg !5530
  call void @_ZNSt7__cxx1112basic_stringIcSt11char_traitsIcESaIcEED1Ev(ptr noundef nonnull align 8 dereferenceable(32) %12) #3, !dbg !5531
  br label %53, !dbg !5532

53:                                               ; preds = %52
  %54 = call noundef nonnull align 8 dereferenceable(8) ptr @_ZN9__gnu_cxx17__normal_iteratorIPNSt7__cxx1112basic_stringIcSt11char_traitsIcESaIcEEESt6vectorIS6_SaIS6_EEEppEv(ptr noundef nonnull align 8 dereferenceable(8) %10) #3, !dbg !5512
  br label %35, !dbg !5512, !llvm.loop !5533

55:                                               ; preds = %17
  %56 = landingpad { ptr, i32 }
          cleanup, !dbg !5534
  %57 = extractvalue { ptr, i32 } %56, 0, !dbg !5534
  store ptr %57, ptr %3, align 8, !dbg !5534
  %58 = extractvalue { ptr, i32 } %56, 1, !dbg !5534
  store i32 %58, ptr %4, align 4, !dbg !5534
  br label %83, !dbg !5534

59:                                               ; preds = %18
  %60 = landingpad { ptr, i32 }
          cleanup, !dbg !5534
  %61 = extractvalue { ptr, i32 } %60, 0, !dbg !5534
  store ptr %61, ptr %3, align 8, !dbg !5534
  %62 = extractvalue { ptr, i32 } %60, 1, !dbg !5534
  store i32 %62, ptr %4, align 4, !dbg !5534
  call void @_ZN4Poco4FileD1Ev(ptr noundef nonnull align 8 dereferenceable(40) %2) #3, !dbg !5497
  br label %83, !dbg !5497

63:                                               ; preds = %37, %19
  %64 = landingpad { ptr, i32 }
          cleanup, !dbg !5534
  %65 = extractvalue { ptr, i32 } %64, 0, !dbg !5534
  store ptr %65, ptr %3, align 8, !dbg !5534
  %66 = extractvalue { ptr, i32 } %64, 1, !dbg !5534
  store i32 %66, ptr %4, align 4, !dbg !5534
  br label %82, !dbg !5534

67:                                               ; preds = %49, %47, %42, %39
  %68 = landingpad { ptr, i32 }
          cleanup, !dbg !5535
  %69 = extractvalue { ptr, i32 } %68, 0, !dbg !5535
  store ptr %69, ptr %3, align 8, !dbg !5535
  %70 = extractvalue { ptr, i32 } %68, 1, !dbg !5535
  store i32 %70, ptr %4, align 4, !dbg !5535
  br label %79, !dbg !5535

71:                                               ; preds = %46
  %72 = landingpad { ptr, i32 }
          cleanup, !dbg !5535
  %73 = extractvalue { ptr, i32 } %72, 0, !dbg !5535
  store ptr %73, ptr %3, align 8, !dbg !5535
  %74 = extractvalue { ptr, i32 } %72, 1, !dbg !5535
  store i32 %74, ptr %4, align 4, !dbg !5535
  call void @_ZNSt7__cxx1112basic_stringIcSt11char_traitsIcESaIcEED1Ev(ptr noundef nonnull align 8 dereferenceable(32) %13) #3, !dbg !5525
  br label %79, !dbg !5525

75:                                               ; preds = %50
  %76 = landingpad { ptr, i32 }
          cleanup, !dbg !5535
  %77 = extractvalue { ptr, i32 } %76, 0, !dbg !5535
  store ptr %77, ptr %3, align 8, !dbg !5535
  %78 = extractvalue { ptr, i32 } %76, 1, !dbg !5535
  store i32 %78, ptr %4, align 4, !dbg !5535
  call void @_ZNSt7__cxx1112basic_stringIcSt11char_traitsIcESaIcEED1Ev(ptr noundef nonnull align 8 dereferenceable(32) %14) #3, !dbg !5526
  br label %79, !dbg !5526

79:                                               ; preds = %75, %71, %67
  call void @_ZNSt7__cxx1112basic_stringIcSt11char_traitsIcESaIcEED1Ev(ptr noundef nonnull align 8 dereferenceable(32) %12) #3, !dbg !5531
  br label %82, !dbg !5531

80:                                               ; preds = %35
  call void @_ZNSt7__cxx1112basic_stringIcSt11char_traitsIcESaIcEED1Ev(ptr noundef nonnull align 8 dereferenceable(32) %6) #3, !dbg !5534
  call void @_ZNSt6vectorI11StringTokenSaIS0_EED2Ev(ptr noundef nonnull align 8 dereferenceable(24) %5) #3, !dbg !5534
  call void @_ZNSt6vectorINSt7__cxx1112basic_stringIcSt11char_traitsIcESaIcEEESaIS5_EED2Ev(ptr noundef nonnull align 8 dereferenceable(24) %1) #3, !dbg !5534
  br label %81, !dbg !5534

81:                                               ; preds = %80, %16
  ret void, !dbg !5534

82:                                               ; preds = %79, %63
  call void @_ZNSt7__cxx1112basic_stringIcSt11char_traitsIcESaIcEED1Ev(ptr noundef nonnull align 8 dereferenceable(32) %6) #3, !dbg !5534
  call void @_ZNSt6vectorI11StringTokenSaIS0_EED2Ev(ptr noundef nonnull align 8 dereferenceable(24) %5) #3, !dbg !5534
  br label %83, !dbg !5534

83:                                               ; preds = %82, %59, %55
  call void @_ZNSt6vectorINSt7__cxx1112basic_stringIcSt11char_traitsIcESaIcEEESaIS5_EED2Ev(ptr noundef nonnull align 8 dereferenceable(24) %1) #3, !dbg !5534
  br label %84, !dbg !5534

84:                                               ; preds = %83
  %85 = load ptr, ptr %3, align 8, !dbg !5534
  %86 = load i32, ptr %4, align 4, !dbg !5534
  %87 = insertvalue { ptr, i32 } poison, ptr %85, 0, !dbg !5534
  %88 = insertvalue { ptr, i32 } %87, i32 %86, 1, !dbg !5534
  resume { ptr, i32 } %88, !dbg !5534
}

; Function Attrs: noinline nounwind optnone uwtable
define linkonce_odr dso_local void @_ZNSt6vectorINSt7__cxx1112basic_stringIcSt11char_traitsIcESaIcEEESaIS5_EEC2Ev(ptr noundef nonnull align 8 dereferenceable(24) %0) unnamed_addr #4 comdat align 2 !dbg !5536 {
  %2 = alloca ptr, align 8
  store ptr %0, ptr %2, align 8
  call void @llvm.dbg.declare(metadata ptr %2, metadata !5537, metadata !DIExpression()), !dbg !5539
  %3 = load ptr, ptr %2, align 8
  call void @_ZNSt12_Vector_baseINSt7__cxx1112basic_stringIcSt11char_traitsIcESaIcEEESaIS5_EEC2Ev(ptr noundef nonnull align 8 dereferenceable(24) %3) #3, !dbg !5540
  ret void, !dbg !5541
}

declare void @_ZN4Poco4FileC1ERKNSt7__cxx1112basic_stringIcSt11char_traitsIcESaIcEEE(ptr noundef nonnull align 8 dereferenceable(40), ptr noundef nonnull align 8 dereferenceable(32)) unnamed_addr #1

declare void @_ZNK4Poco4File4listERSt6vectorINSt7__cxx1112basic_stringIcSt11char_traitsIcESaIcEEESaIS7_EE(ptr noundef nonnull align 8 dereferenceable(40), ptr noundef nonnull align 8 dereferenceable(24)) #1

; Function Attrs: nounwind
declare void @_ZN4Poco4FileD1Ev(ptr noundef nonnull align 8 dereferenceable(40)) unnamed_addr #2

; Function Attrs: mustprogress noinline nounwind optnone uwtable
define linkonce_odr dso_local void @_ZNSt13unordered_mapINSt7__cxx1112basic_stringIcSt11char_traitsIcESaIcEEESt6vectorIS5_SaIS5_EESt4hashIS5_ESt8equal_toIS5_ESaISt4pairIKS5_S8_EEE5clearEv(ptr noundef nonnull align 8 dereferenceable(56) %0) #8 comdat align 2 !dbg !5542 {
  %2 = alloca ptr, align 8
  store ptr %0, ptr %2, align 8
  call void @llvm.dbg.declare(metadata ptr %2, metadata !5549, metadata !DIExpression()), !dbg !5551
  %3 = load ptr, ptr %2, align 8
  %4 = getelementptr inbounds %"class.std::unordered_map", ptr %3, i32 0, i32 0, !dbg !5552
  call void @_ZNSt10_HashtableINSt7__cxx1112basic_stringIcSt11char_traitsIcESaIcEEESt4pairIKS5_St6vectorIS5_SaIS5_EEESaISB_ENSt8__detail10_Select1stESt8equal_toIS5_ESt4hashIS5_ENSD_18_Mod_range_hashingENSD_20_Default_ranged_hashENSD_20_Prime_rehash_policyENSD_17_Hashtable_traitsILb1ELb0ELb1EEEE5clearEv(ptr noundef nonnull align 8 dereferenceable(56) %4) #3, !dbg !5553
  ret void, !dbg !5554
}

; Function Attrs: noinline nounwind optnone uwtable
define linkonce_odr dso_local void @_ZNSt6vectorI11StringTokenSaIS0_EEC2Ev(ptr noundef nonnull align 8 dereferenceable(24) %0) unnamed_addr #4 comdat align 2 !dbg !5555 {
  %2 = alloca ptr, align 8
  store ptr %0, ptr %2, align 8
  call void @llvm.dbg.declare(metadata ptr %2, metadata !5556, metadata !DIExpression()), !dbg !5558
  %3 = load ptr, ptr %2, align 8
  call void @_ZNSt12_Vector_baseI11StringTokenSaIS0_EEC2Ev(ptr noundef nonnull align 8 dereferenceable(24) %3) #3, !dbg !5559
  ret void, !dbg !5560
}

; Function Attrs: nounwind
declare void @_ZNSt7__cxx1112basic_stringIcSt11char_traitsIcESaIcEEC1Ev(ptr noundef nonnull align 8 dereferenceable(32)) unnamed_addr #2

; Function Attrs: mustprogress noinline optnone uwtable
define linkonce_odr dso_local void @_ZSt4sortIN9__gnu_cxx17__normal_iteratorIPNSt7__cxx1112basic_stringIcSt11char_traitsIcESaIcEEESt6vectorIS7_SaIS7_EEEEEvT_SD_(ptr %0, ptr %1) #5 comdat !dbg !5561 {
  %3 = alloca %"class.__gnu_cxx::__normal_iterator", align 8
  %4 = alloca %"class.__gnu_cxx::__normal_iterator", align 8
  %5 = alloca %"class.__gnu_cxx::__normal_iterator", align 8
  %6 = alloca %"class.__gnu_cxx::__normal_iterator", align 8
  %7 = alloca %"struct.__gnu_cxx::__ops::_Iter_less_iter", align 1
  %8 = alloca %"struct.__gnu_cxx::__ops::_Iter_less_iter", align 1
  %9 = getelementptr inbounds %"class.__gnu_cxx::__normal_iterator", ptr %3, i32 0, i32 0
  store ptr %0, ptr %9, align 8
  %10 = getelementptr inbounds %"class.__gnu_cxx::__normal_iterator", ptr %4, i32 0, i32 0
  store ptr %1, ptr %10, align 8
  call void @llvm.dbg.declare(metadata ptr %3, metadata !5565, metadata !DIExpression()), !dbg !5566
  call void @llvm.dbg.declare(metadata ptr %4, metadata !5567, metadata !DIExpression()), !dbg !5568
  call void @llvm.memcpy.p0.p0.i64(ptr align 8 %5, ptr align 8 %3, i64 8, i1 false), !dbg !5569
  call void @llvm.memcpy.p0.p0.i64(ptr align 8 %6, ptr align 8 %4, i64 8, i1 false), !dbg !5570
  call void @_ZN9__gnu_cxx5__ops16__iter_less_iterEv(), !dbg !5571
  %11 = getelementptr inbounds %"class.__gnu_cxx::__normal_iterator", ptr %5, i32 0, i32 0, !dbg !5572
  %12 = load ptr, ptr %11, align 8, !dbg !5572
  %13 = getelementptr inbounds %"class.__gnu_cxx::__normal_iterator", ptr %6, i32 0, i32 0, !dbg !5572
  %14 = load ptr, ptr %13, align 8, !dbg !5572
  call void @_ZSt6__sortIN9__gnu_cxx17__normal_iteratorIPNSt7__cxx1112basic_stringIcSt11char_traitsIcESaIcEEESt6vectorIS7_SaIS7_EEEENS0_5__ops15_Iter_less_iterEEvT_SF_T0_(ptr %12, ptr %14), !dbg !5572
  ret void, !dbg !5573
}

; Function Attrs: mustprogress noinline nounwind optnone uwtable
define linkonce_odr dso_local ptr @_ZNSt6vectorINSt7__cxx1112basic_stringIcSt11char_traitsIcESaIcEEESaIS5_EE5beginEv(ptr noundef nonnull align 8 dereferenceable(24) %0) #8 comdat align 2 !dbg !5574 {
  %2 = alloca %"class.__gnu_cxx::__normal_iterator", align 8
  %3 = alloca ptr, align 8
  store ptr %0, ptr %3, align 8
  call void @llvm.dbg.declare(metadata ptr %3, metadata !5575, metadata !DIExpression()), !dbg !5576
  %4 = load ptr, ptr %3, align 8
  %5 = getelementptr inbounds %"struct.std::_Vector_base", ptr %4, i32 0, i32 0, !dbg !5577
  %6 = getelementptr inbounds %"struct.std::_Vector_base<std::__cxx11::basic_string<char>, std::allocator<std::__cxx11::basic_string<char>>>::_Vector_impl_data", ptr %5, i32 0, i32 0, !dbg !5578
  call void @_ZN9__gnu_cxx17__normal_iteratorIPNSt7__cxx1112basic_stringIcSt11char_traitsIcESaIcEEESt6vectorIS6_SaIS6_EEEC2ERKS7_(ptr noundef nonnull align 8 dereferenceable(8) %2, ptr noundef nonnull align 8 dereferenceable(8) %6) #3, !dbg !5579
  %7 = getelementptr inbounds %"class.__gnu_cxx::__normal_iterator", ptr %2, i32 0, i32 0, !dbg !5580
  %8 = load ptr, ptr %7, align 8, !dbg !5580
  ret ptr %8, !dbg !5580
}

; Function Attrs: mustprogress noinline nounwind optnone uwtable
define linkonce_odr dso_local ptr @_ZNSt6vectorINSt7__cxx1112basic_stringIcSt11char_traitsIcESaIcEEESaIS5_EE3endEv(ptr noundef nonnull align 8 dereferenceable(24) %0) #8 comdat align 2 !dbg !5581 {
  %2 = alloca %"class.__gnu_cxx::__normal_iterator", align 8
  %3 = alloca ptr, align 8
  store ptr %0, ptr %3, align 8
  call void @llvm.dbg.declare(metadata ptr %3, metadata !5582, metadata !DIExpression()), !dbg !5583
  %4 = load ptr, ptr %3, align 8
  %5 = getelementptr inbounds %"struct.std::_Vector_base", ptr %4, i32 0, i32 0, !dbg !5584
  %6 = getelementptr inbounds %"struct.std::_Vector_base<std::__cxx11::basic_string<char>, std::allocator<std::__cxx11::basic_string<char>>>::_Vector_impl_data", ptr %5, i32 0, i32 1, !dbg !5585
  call void @_ZN9__gnu_cxx17__normal_iteratorIPNSt7__cxx1112basic_stringIcSt11char_traitsIcESaIcEEESt6vectorIS6_SaIS6_EEEC2ERKS7_(ptr noundef nonnull align 8 dereferenceable(8) %2, ptr noundef nonnull align 8 dereferenceable(8) %6) #3, !dbg !5586
  %7 = getelementptr inbounds %"class.__gnu_cxx::__normal_iterator", ptr %2, i32 0, i32 0, !dbg !5587
  %8 = load ptr, ptr %7, align 8, !dbg !5587
  ret ptr %8, !dbg !5587
}

; Function Attrs: mustprogress noinline nounwind optnone uwtable
define linkonce_odr dso_local noundef zeroext i1 @_ZN9__gnu_cxxneIPNSt7__cxx1112basic_stringIcSt11char_traitsIcESaIcEEESt6vectorIS6_SaIS6_EEEEbRKNS_17__normal_iteratorIT_T0_EESG_(ptr noundef nonnull align 8 dereferenceable(8) %0, ptr noundef nonnull align 8 dereferenceable(8) %1) #8 comdat !dbg !5588 {
  %3 = alloca ptr, align 8
  %4 = alloca ptr, align 8
  store ptr %0, ptr %3, align 8
  call void @llvm.dbg.declare(metadata ptr %3, metadata !5592, metadata !DIExpression()), !dbg !5593
  store ptr %1, ptr %4, align 8
  call void @llvm.dbg.declare(metadata ptr %4, metadata !5594, metadata !DIExpression()), !dbg !5595
  %5 = load ptr, ptr %3, align 8, !dbg !5596
  %6 = call noundef nonnull align 8 dereferenceable(8) ptr @_ZNK9__gnu_cxx17__normal_iteratorIPNSt7__cxx1112basic_stringIcSt11char_traitsIcESaIcEEESt6vectorIS6_SaIS6_EEE4baseEv(ptr noundef nonnull align 8 dereferenceable(8) %5) #3, !dbg !5597
  %7 = load ptr, ptr %6, align 8, !dbg !5597
  %8 = load ptr, ptr %4, align 8, !dbg !5598
  %9 = call noundef nonnull align 8 dereferenceable(8) ptr @_ZNK9__gnu_cxx17__normal_iteratorIPNSt7__cxx1112basic_stringIcSt11char_traitsIcESaIcEEESt6vectorIS6_SaIS6_EEE4baseEv(ptr noundef nonnull align 8 dereferenceable(8) %8) #3, !dbg !5599
  %10 = load ptr, ptr %9, align 8, !dbg !5599
  %11 = icmp ne ptr %7, %10, !dbg !5600
  ret i1 %11, !dbg !5601
}

; Function Attrs: mustprogress noinline nounwind optnone uwtable
define linkonce_odr dso_local noundef nonnull align 8 dereferenceable(32) ptr @_ZNK9__gnu_cxx17__normal_iteratorIPNSt7__cxx1112basic_stringIcSt11char_traitsIcESaIcEEESt6vectorIS6_SaIS6_EEEdeEv(ptr noundef nonnull align 8 dereferenceable(8) %0) #8 comdat align 2 !dbg !5602 {
  %2 = alloca ptr, align 8
  store ptr %0, ptr %2, align 8
  call void @llvm.dbg.declare(metadata ptr %2, metadata !5603, metadata !DIExpression()), !dbg !5605
  %3 = load ptr, ptr %2, align 8
  %4 = getelementptr inbounds %"class.__gnu_cxx::__normal_iterator", ptr %3, i32 0, i32 0, !dbg !5606
  %5 = load ptr, ptr %4, align 8, !dbg !5606
  ret ptr %5, !dbg !5607
}

declare void @_ZNSt7__cxx1112basic_stringIcSt11char_traitsIcESaIcEEC1ERKS4_(ptr noundef nonnull align 8 dereferenceable(32), ptr noundef nonnull align 8 dereferenceable(32)) unnamed_addr #1

; Function Attrs: mustprogress noinline optnone uwtable
define linkonce_odr dso_local void @_ZN4Util8tokenizeEPKcmcRSt6vectorI11StringTokenSaIS3_EE(ptr noundef %0, i64 noundef %1, i8 noundef signext %2, ptr noundef nonnull align 8 dereferenceable(24) %3) #5 comdat !dbg !5608 {
  %5 = alloca ptr, align 8
  %6 = alloca i64, align 8
  %7 = alloca i8, align 1
  %8 = alloca ptr, align 8
  %9 = alloca ptr, align 8
  %10 = alloca ptr, align 8
  %11 = alloca i64, align 8
  %12 = alloca i64, align 8
  %13 = alloca i64, align 8
  %14 = alloca i64, align 8
  %15 = alloca i64, align 8
  store ptr %0, ptr %5, align 8
  call void @llvm.dbg.declare(metadata ptr %5, metadata !5613, metadata !DIExpression()), !dbg !5614
  store i64 %1, ptr %6, align 8
  call void @llvm.dbg.declare(metadata ptr %6, metadata !5615, metadata !DIExpression()), !dbg !5616
  store i8 %2, ptr %7, align 1
  call void @llvm.dbg.declare(metadata ptr %7, metadata !5617, metadata !DIExpression()), !dbg !5618
  store ptr %3, ptr %8, align 8
  call void @llvm.dbg.declare(metadata ptr %8, metadata !5619, metadata !DIExpression()), !dbg !5620
  %16 = load i64, ptr %6, align 8, !dbg !5621
  %17 = icmp eq i64 %16, 0, !dbg !5623
  br i1 %17, label %26, label %18, !dbg !5624

18:                                               ; preds = %4
  %19 = load ptr, ptr %5, align 8, !dbg !5625
  %20 = icmp eq ptr %19, null, !dbg !5626
  br i1 %20, label %26, label %21, !dbg !5627

21:                                               ; preds = %18
  %22 = load ptr, ptr %5, align 8, !dbg !5628
  %23 = load i8, ptr %22, align 1, !dbg !5629
  %24 = sext i8 %23 to i32, !dbg !5629
  %25 = icmp eq i32 %24, 0, !dbg !5630
  br i1 %25, label %26, label %27, !dbg !5631

26:                                               ; preds = %21, %18, %4
  br label %125, !dbg !5632

27:                                               ; preds = %21
  %28 = load ptr, ptr %8, align 8, !dbg !5633
  call void @_ZNSt6vectorI11StringTokenSaIS0_EE7reserveEm(ptr noundef nonnull align 8 dereferenceable(24) %28, i64 noundef 16), !dbg !5634
  call void @llvm.dbg.declare(metadata ptr %9, metadata !5635, metadata !DIExpression()), !dbg !5636
  %29 = load ptr, ptr %5, align 8, !dbg !5637
  store ptr %29, ptr %9, align 8, !dbg !5636
  call void @llvm.dbg.declare(metadata ptr %10, metadata !5638, metadata !DIExpression()), !dbg !5639
  %30 = load ptr, ptr %5, align 8, !dbg !5640
  store ptr %30, ptr %10, align 8, !dbg !5639
  call void @llvm.dbg.declare(metadata ptr %11, metadata !5641, metadata !DIExpression()), !dbg !5643
  store i64 0, ptr %11, align 8, !dbg !5643
  br label %31, !dbg !5644

31:                                               ; preds = %91, %27
  %32 = load i64, ptr %11, align 8, !dbg !5645
  %33 = load i64, ptr %6, align 8, !dbg !5647
  %34 = icmp ult i64 %32, %33, !dbg !5648
  br i1 %34, label %35, label %42, !dbg !5649

35:                                               ; preds = %31
  %36 = load ptr, ptr %5, align 8, !dbg !5650
  %37 = load i64, ptr %11, align 8, !dbg !5651
  %38 = getelementptr inbounds i8, ptr %36, i64 %37, !dbg !5650
  %39 = load i8, ptr %38, align 1, !dbg !5650
  %40 = sext i8 %39 to i32, !dbg !5650
  %41 = icmp ne i32 %40, 10, !dbg !5652
  br label %42

42:                                               ; preds = %35, %31
  %43 = phi i1 [ false, %31 ], [ %41, %35 ], !dbg !5653
  br i1 %43, label %44, label %96, !dbg !5654

44:                                               ; preds = %42
  %45 = load ptr, ptr %5, align 8, !dbg !5655
  %46 = load i64, ptr %11, align 8, !dbg !5658
  %47 = getelementptr inbounds i8, ptr %45, i64 %46, !dbg !5655
  %48 = load i8, ptr %47, align 1, !dbg !5655
  %49 = sext i8 %48 to i32, !dbg !5655
  %50 = load i8, ptr %7, align 1, !dbg !5659
  %51 = sext i8 %50 to i32, !dbg !5659
  %52 = icmp eq i32 %49, %51, !dbg !5660
  br i1 %52, label %53, label %79, !dbg !5661

53:                                               ; preds = %44
  %54 = load ptr, ptr %9, align 8, !dbg !5662
  %55 = load ptr, ptr %10, align 8, !dbg !5665
  %56 = icmp ne ptr %54, %55, !dbg !5666
  br i1 %56, label %57, label %77, !dbg !5667

57:                                               ; preds = %53
  %58 = load ptr, ptr %9, align 8, !dbg !5668
  %59 = load i8, ptr %58, align 1, !dbg !5669
  %60 = sext i8 %59 to i32, !dbg !5669
  %61 = load i8, ptr %7, align 1, !dbg !5670
  %62 = sext i8 %61 to i32, !dbg !5670
  %63 = icmp ne i32 %60, %62, !dbg !5671
  br i1 %63, label %64, label %77, !dbg !5672

64:                                               ; preds = %57
  %65 = load ptr, ptr %8, align 8, !dbg !5673
  %66 = load ptr, ptr %9, align 8, !dbg !5674
  %67 = load ptr, ptr %5, align 8, !dbg !5675
  %68 = ptrtoint ptr %66 to i64, !dbg !5676
  %69 = ptrtoint ptr %67 to i64, !dbg !5676
  %70 = sub i64 %68, %69, !dbg !5676
  store i64 %70, ptr %12, align 8, !dbg !5674
  %71 = load ptr, ptr %10, align 8, !dbg !5677
  %72 = load ptr, ptr %9, align 8, !dbg !5678
  %73 = ptrtoint ptr %71 to i64, !dbg !5679
  %74 = ptrtoint ptr %72 to i64, !dbg !5679
  %75 = sub i64 %73, %74, !dbg !5679
  store i64 %75, ptr %13, align 8, !dbg !5677
  %76 = call noundef nonnull align 8 dereferenceable(16) ptr @_ZNSt6vectorI11StringTokenSaIS0_EE12emplace_backIJllEEERS0_DpOT_(ptr noundef nonnull align 8 dereferenceable(24) %65, ptr noundef nonnull align 8 dereferenceable(8) %12, ptr noundef nonnull align 8 dereferenceable(8) %13), !dbg !5680
  br label %77, !dbg !5673

77:                                               ; preds = %64, %57, %53
  %78 = load ptr, ptr %10, align 8, !dbg !5681
  store ptr %78, ptr %9, align 8, !dbg !5682
  br label %90, !dbg !5683

79:                                               ; preds = %44
  %80 = load ptr, ptr %9, align 8, !dbg !5684
  %81 = load i8, ptr %80, align 1, !dbg !5686
  %82 = sext i8 %81 to i32, !dbg !5686
  %83 = load i8, ptr %7, align 1, !dbg !5687
  %84 = sext i8 %83 to i32, !dbg !5687
  %85 = icmp eq i32 %82, %84, !dbg !5688
  br i1 %85, label %86, label %89, !dbg !5689

86:                                               ; preds = %79
  %87 = load ptr, ptr %9, align 8, !dbg !5690
  %88 = getelementptr inbounds i8, ptr %87, i32 1, !dbg !5690
  store ptr %88, ptr %9, align 8, !dbg !5690
  br label %89, !dbg !5690

89:                                               ; preds = %86, %79
  br label %90

90:                                               ; preds = %89, %77
  br label %91, !dbg !5691

91:                                               ; preds = %90
  %92 = load i64, ptr %11, align 8, !dbg !5692
  %93 = add i64 %92, 1, !dbg !5692
  store i64 %93, ptr %11, align 8, !dbg !5692
  %94 = load ptr, ptr %10, align 8, !dbg !5693
  %95 = getelementptr inbounds i8, ptr %94, i32 1, !dbg !5693
  store ptr %95, ptr %10, align 8, !dbg !5693
  br label %31, !dbg !5694, !llvm.loop !5695

96:                                               ; preds = %42
  %97 = load ptr, ptr %9, align 8, !dbg !5698
  %98 = load ptr, ptr %10, align 8, !dbg !5700
  %99 = icmp ne ptr %97, %98, !dbg !5701
  br i1 %99, label %100, label %125, !dbg !5702

100:                                              ; preds = %96
  %101 = load ptr, ptr %9, align 8, !dbg !5703
  %102 = load i8, ptr %101, align 1, !dbg !5704
  %103 = sext i8 %102 to i32, !dbg !5704
  %104 = load i8, ptr %7, align 1, !dbg !5705
  %105 = sext i8 %104 to i32, !dbg !5705
  %106 = icmp ne i32 %103, %105, !dbg !5706
  br i1 %106, label %107, label %125, !dbg !5707

107:                                              ; preds = %100
  %108 = load ptr, ptr %9, align 8, !dbg !5708
  %109 = load i8, ptr %108, align 1, !dbg !5709
  %110 = sext i8 %109 to i32, !dbg !5709
  %111 = icmp ne i32 %110, 10, !dbg !5710
  br i1 %111, label %112, label %125, !dbg !5711

112:                                              ; preds = %107
  %113 = load ptr, ptr %8, align 8, !dbg !5712
  %114 = load ptr, ptr %9, align 8, !dbg !5713
  %115 = load ptr, ptr %5, align 8, !dbg !5714
  %116 = ptrtoint ptr %114 to i64, !dbg !5715
  %117 = ptrtoint ptr %115 to i64, !dbg !5715
  %118 = sub i64 %116, %117, !dbg !5715
  store i64 %118, ptr %14, align 8, !dbg !5713
  %119 = load ptr, ptr %10, align 8, !dbg !5716
  %120 = load ptr, ptr %9, align 8, !dbg !5717
  %121 = ptrtoint ptr %119 to i64, !dbg !5718
  %122 = ptrtoint ptr %120 to i64, !dbg !5718
  %123 = sub i64 %121, %122, !dbg !5718
  store i64 %123, ptr %15, align 8, !dbg !5716
  %124 = call noundef nonnull align 8 dereferenceable(16) ptr @_ZNSt6vectorI11StringTokenSaIS0_EE12emplace_backIJllEEERS0_DpOT_(ptr noundef nonnull align 8 dereferenceable(24) %113, ptr noundef nonnull align 8 dereferenceable(8) %14, ptr noundef nonnull align 8 dereferenceable(8) %15), !dbg !5719
  br label %125, !dbg !5712

125:                                              ; preds = %26, %112, %107, %100, %96
  ret void, !dbg !5720
}

; Function Attrs: nounwind
declare noundef ptr @_ZNKSt7__cxx1112basic_stringIcSt11char_traitsIcESaIcEE5c_strEv(ptr noundef nonnull align 8 dereferenceable(32)) #2

; Function Attrs: nounwind
declare noundef i64 @_ZNKSt7__cxx1112basic_stringIcSt11char_traitsIcESaIcEE4sizeEv(ptr noundef nonnull align 8 dereferenceable(32)) #2

declare void @_ZN4Poco3URI6decodeERKNSt7__cxx1112basic_stringIcSt11char_traitsIcESaIcEEERS6_b(ptr noundef nonnull align 8 dereferenceable(32), ptr noundef nonnull align 8 dereferenceable(32), i1 noundef zeroext) #1

declare void @_ZNKSt7__cxx1112basic_stringIcSt11char_traitsIcESaIcEE6substrEmm(ptr sret(%"class.std::__cxx11::basic_string") align 8, ptr noundef nonnull align 8 dereferenceable(32), i64 noundef, i64 noundef) #1

; Function Attrs: mustprogress noinline nounwind optnone uwtable
define linkonce_odr dso_local noundef nonnull align 8 dereferenceable(16) ptr @_ZNSt6vectorI11StringTokenSaIS0_EEixEm(ptr noundef nonnull align 8 dereferenceable(24) %0, i64 noundef %1) #8 comdat align 2 !dbg !5721 {
  %3 = alloca ptr, align 8
  %4 = alloca i64, align 8
  store ptr %0, ptr %3, align 8
  call void @llvm.dbg.declare(metadata ptr %3, metadata !5722, metadata !DIExpression()), !dbg !5723
  store i64 %1, ptr %4, align 8
  call void @llvm.dbg.declare(metadata ptr %4, metadata !5724, metadata !DIExpression()), !dbg !5725
  %5 = load ptr, ptr %3, align 8
  %6 = getelementptr inbounds %"struct.std::_Vector_base.10", ptr %5, i32 0, i32 0, !dbg !5726
  %7 = getelementptr inbounds %"struct.std::_Vector_base<StringToken, std::allocator<StringToken>>::_Vector_impl_data", ptr %6, i32 0, i32 0, !dbg !5727
  %8 = load ptr, ptr %7, align 8, !dbg !5727
  %9 = load i64, ptr %4, align 8, !dbg !5728
  %10 = getelementptr inbounds %struct.StringToken, ptr %8, i64 %9, !dbg !5729
  ret ptr %10, !dbg !5730
}

; Function Attrs: mustprogress noinline optnone uwtable
define linkonce_odr dso_local noundef nonnull align 8 dereferenceable(24) ptr @_ZNSt13unordered_mapINSt7__cxx1112basic_stringIcSt11char_traitsIcESaIcEEESt6vectorIS5_SaIS5_EESt4hashIS5_ESt8equal_toIS5_ESaISt4pairIKS5_S8_EEEixERSE_(ptr noundef nonnull align 8 dereferenceable(56) %0, ptr noundef nonnull align 8 dereferenceable(32) %1) #5 comdat align 2 !dbg !5731 {
  %3 = alloca ptr, align 8
  %4 = alloca ptr, align 8
  store ptr %0, ptr %3, align 8
  call void @llvm.dbg.declare(metadata ptr %3, metadata !5741, metadata !DIExpression()), !dbg !5742
  store ptr %1, ptr %4, align 8
  call void @llvm.dbg.declare(metadata ptr %4, metadata !5743, metadata !DIExpression()), !dbg !5744
  %5 = load ptr, ptr %3, align 8
  %6 = getelementptr inbounds %"class.std::unordered_map", ptr %5, i32 0, i32 0, !dbg !5745
  %7 = load ptr, ptr %4, align 8, !dbg !5746
  %8 = call noundef nonnull align 8 dereferenceable(24) ptr @_ZNSt8__detail9_Map_baseINSt7__cxx1112basic_stringIcSt11char_traitsIcESaIcEEESt4pairIKS6_St6vectorIS6_SaIS6_EEESaISC_ENS_10_Select1stESt8equal_toIS6_ESt4hashIS6_ENS_18_Mod_range_hashingENS_20_Default_ranged_hashENS_20_Prime_rehash_policyENS_17_Hashtable_traitsILb1ELb0ELb1EEELb1EEixERS8_(ptr noundef nonnull align 1 dereferenceable(1) %6, ptr noundef nonnull align 8 dereferenceable(32) %7), !dbg !5745
  ret ptr %8, !dbg !5747
}

; Function Attrs: mustprogress noinline optnone uwtable
define linkonce_odr dso_local noundef nonnull align 8 dereferenceable(32) ptr @_ZNSt6vectorINSt7__cxx1112basic_stringIcSt11char_traitsIcESaIcEEESaIS5_EE12emplace_backIJS5_EEERS5_DpOT_(ptr noundef nonnull align 8 dereferenceable(24) %0, ptr noundef nonnull align 8 dereferenceable(32) %1) #5 comdat align 2 !dbg !5748 {
  %3 = alloca ptr, align 8
  %4 = alloca ptr, align 8
  %5 = alloca %"class.__gnu_cxx::__normal_iterator", align 8
  store ptr %0, ptr %3, align 8
  call void @llvm.dbg.declare(metadata ptr %3, metadata !5755, metadata !DIExpression()), !dbg !5756
  store ptr %1, ptr %4, align 8
  call void @llvm.dbg.declare(metadata ptr %4, metadata !5757, metadata !DIExpression()), !dbg !5758
  %6 = load ptr, ptr %3, align 8
  %7 = getelementptr inbounds %"struct.std::_Vector_base", ptr %6, i32 0, i32 0, !dbg !5759
  %8 = getelementptr inbounds %"struct.std::_Vector_base<std::__cxx11::basic_string<char>, std::allocator<std::__cxx11::basic_string<char>>>::_Vector_impl_data", ptr %7, i32 0, i32 1, !dbg !5761
  %9 = load ptr, ptr %8, align 8, !dbg !5761
  %10 = getelementptr inbounds %"struct.std::_Vector_base", ptr %6, i32 0, i32 0, !dbg !5762
  %11 = getelementptr inbounds %"struct.std::_Vector_base<std::__cxx11::basic_string<char>, std::allocator<std::__cxx11::basic_string<char>>>::_Vector_impl_data", ptr %10, i32 0, i32 2, !dbg !5763
  %12 = load ptr, ptr %11, align 8, !dbg !5763
  %13 = icmp ne ptr %9, %12, !dbg !5764
  br i1 %13, label %14, label %24, !dbg !5765

14:                                               ; preds = %2
  %15 = getelementptr inbounds %"struct.std::_Vector_base", ptr %6, i32 0, i32 0, !dbg !5766
  %16 = getelementptr inbounds %"struct.std::_Vector_base", ptr %6, i32 0, i32 0, !dbg !5768
  %17 = getelementptr inbounds %"struct.std::_Vector_base<std::__cxx11::basic_string<char>, std::allocator<std::__cxx11::basic_string<char>>>::_Vector_impl_data", ptr %16, i32 0, i32 1, !dbg !5769
  %18 = load ptr, ptr %17, align 8, !dbg !5769
  %19 = load ptr, ptr %4, align 8, !dbg !5770
  call void @_ZNSt16allocator_traitsISaINSt7__cxx1112basic_stringIcSt11char_traitsIcESaIcEEEEE9constructIS5_JS5_EEEvRS6_PT_DpOT0_(ptr noundef nonnull align 1 dereferenceable(1) %15, ptr noundef %18, ptr noundef nonnull align 8 dereferenceable(32) %19) #3, !dbg !5771
  %20 = getelementptr inbounds %"struct.std::_Vector_base", ptr %6, i32 0, i32 0, !dbg !5772
  %21 = getelementptr inbounds %"struct.std::_Vector_base<std::__cxx11::basic_string<char>, std::allocator<std::__cxx11::basic_string<char>>>::_Vector_impl_data", ptr %20, i32 0, i32 1, !dbg !5773
  %22 = load ptr, ptr %21, align 8, !dbg !5774
  %23 = getelementptr inbounds %"class.std::__cxx11::basic_string", ptr %22, i32 1, !dbg !5774
  store ptr %23, ptr %21, align 8, !dbg !5774
  br label %30, !dbg !5775

24:                                               ; preds = %2
  %25 = call ptr @_ZNSt6vectorINSt7__cxx1112basic_stringIcSt11char_traitsIcESaIcEEESaIS5_EE3endEv(ptr noundef nonnull align 8 dereferenceable(24) %6) #3, !dbg !5776
  %26 = getelementptr inbounds %"class.__gnu_cxx::__normal_iterator", ptr %5, i32 0, i32 0, !dbg !5776
  store ptr %25, ptr %26, align 8, !dbg !5776
  %27 = load ptr, ptr %4, align 8, !dbg !5777
  %28 = getelementptr inbounds %"class.__gnu_cxx::__normal_iterator", ptr %5, i32 0, i32 0, !dbg !5778
  %29 = load ptr, ptr %28, align 8, !dbg !5778
  call void @_ZNSt6vectorINSt7__cxx1112basic_stringIcSt11char_traitsIcESaIcEEESaIS5_EE17_M_realloc_insertIJS5_EEEvN9__gnu_cxx17__normal_iteratorIPS5_S7_EEDpOT_(ptr noundef nonnull align 8 dereferenceable(24) %6, ptr %29, ptr noundef nonnull align 8 dereferenceable(32) %27), !dbg !5778
  br label %30

30:                                               ; preds = %24, %14
  %31 = call noundef nonnull align 8 dereferenceable(32) ptr @_ZNSt6vectorINSt7__cxx1112basic_stringIcSt11char_traitsIcESaIcEEESaIS5_EE4backEv(ptr noundef nonnull align 8 dereferenceable(24) %6) #3, !dbg !5779
  ret ptr %31, !dbg !5780
}

; Function Attrs: mustprogress noinline optnone uwtable
define linkonce_odr dso_local void @_ZStplIcSt11char_traitsIcESaIcEENSt7__cxx1112basic_stringIT_T0_T1_EERKS8_SA_(ptr noalias sret(%"class.std::__cxx11::basic_string") align 8 %0, ptr noundef nonnull align 8 dereferenceable(32) %1, ptr noundef nonnull align 8 dereferenceable(32) %2) #5 comdat personality ptr @__gxx_personality_v0 !dbg !5781 {
  %4 = alloca ptr, align 8
  %5 = alloca ptr, align 8
  %6 = alloca ptr, align 8
  %7 = alloca i1, align 1
  %8 = alloca ptr, align 8
  %9 = alloca i32, align 4
  store ptr %0, ptr %4, align 8
  store ptr %1, ptr %5, align 8
  call void @llvm.dbg.declare(metadata ptr %5, metadata !5786, metadata !DIExpression()), !dbg !5787
  store ptr %2, ptr %6, align 8
  call void @llvm.dbg.declare(metadata ptr %6, metadata !5788, metadata !DIExpression()), !dbg !5789
  store i1 false, ptr %7, align 1, !dbg !5790
  call void @llvm.dbg.declare(metadata ptr %4, metadata !5791, metadata !DIExpression(DW_OP_deref)), !dbg !5792
  %10 = load ptr, ptr %5, align 8, !dbg !5793
  call void @_ZNSt7__cxx1112basic_stringIcSt11char_traitsIcESaIcEEC1ERKS4_(ptr noundef nonnull align 8 dereferenceable(32) %0, ptr noundef nonnull align 8 dereferenceable(32) %10), !dbg !5792
  %11 = load ptr, ptr %6, align 8, !dbg !5794
  %12 = invoke noundef nonnull align 8 dereferenceable(32) ptr @_ZNSt7__cxx1112basic_stringIcSt11char_traitsIcESaIcEE6appendERKS4_(ptr noundef nonnull align 8 dereferenceable(32) %0, ptr noundef nonnull align 8 dereferenceable(32) %11)
          to label %13 unwind label %15, !dbg !5795

13:                                               ; preds = %3
  store i1 true, ptr %7, align 1, !dbg !5796
  %14 = load i1, ptr %7, align 1, !dbg !5797
  br i1 %14, label %20, label %19, !dbg !5797

15:                                               ; preds = %3
  %16 = landingpad { ptr, i32 }
          cleanup, !dbg !5797
  %17 = extractvalue { ptr, i32 } %16, 0, !dbg !5797
  store ptr %17, ptr %8, align 8, !dbg !5797
  %18 = extractvalue { ptr, i32 } %16, 1, !dbg !5797
  store i32 %18, ptr %9, align 4, !dbg !5797
  call void @_ZNSt7__cxx1112basic_stringIcSt11char_traitsIcESaIcEED1Ev(ptr noundef nonnull align 8 dereferenceable(32) %0) #3, !dbg !5797
  br label %21, !dbg !5797

19:                                               ; preds = %13
  call void @_ZNSt7__cxx1112basic_stringIcSt11char_traitsIcESaIcEED1Ev(ptr noundef nonnull align 8 dereferenceable(32) %0) #3, !dbg !5797
  br label %20, !dbg !5797

20:                                               ; preds = %19, %13
  ret void, !dbg !5797

21:                                               ; preds = %15
  %22 = load ptr, ptr %8, align 8, !dbg !5797
  %23 = load i32, ptr %9, align 4, !dbg !5797
  %24 = insertvalue { ptr, i32 } poison, ptr %22, 0, !dbg !5797
  %25 = insertvalue { ptr, i32 } %24, i32 %23, 1, !dbg !5797
  resume { ptr, i32 } %25, !dbg !5797
}

; Function Attrs: mustprogress noinline nounwind optnone uwtable
define linkonce_odr dso_local void @_ZNSt6vectorI11StringTokenSaIS0_EE5clearEv(ptr noundef nonnull align 8 dereferenceable(24) %0) #8 comdat align 2 !dbg !5798 {
  %2 = alloca ptr, align 8
  store ptr %0, ptr %2, align 8
  call void @llvm.dbg.declare(metadata ptr %2, metadata !5799, metadata !DIExpression()), !dbg !5800
  %3 = load ptr, ptr %2, align 8
  %4 = getelementptr inbounds %"struct.std::_Vector_base.10", ptr %3, i32 0, i32 0, !dbg !5801
  %5 = getelementptr inbounds %"struct.std::_Vector_base<StringToken, std::allocator<StringToken>>::_Vector_impl_data", ptr %4, i32 0, i32 0, !dbg !5802
  %6 = load ptr, ptr %5, align 8, !dbg !5802
  call void @_ZNSt6vectorI11StringTokenSaIS0_EE15_M_erase_at_endEPS0_(ptr noundef nonnull align 8 dereferenceable(24) %3, ptr noundef %6) #3, !dbg !5803
  ret void, !dbg !5804
}

; Function Attrs: nounwind
declare void @_ZNSt7__cxx1112basic_stringIcSt11char_traitsIcESaIcEE5clearEv(ptr noundef nonnull align 8 dereferenceable(32)) #2

; Function Attrs: mustprogress noinline nounwind optnone uwtable
define linkonce_odr dso_local noundef nonnull align 8 dereferenceable(8) ptr @_ZN9__gnu_cxx17__normal_iteratorIPNSt7__cxx1112basic_stringIcSt11char_traitsIcESaIcEEESt6vectorIS6_SaIS6_EEEppEv(ptr noundef nonnull align 8 dereferenceable(8) %0) #8 comdat align 2 !dbg !5805 {
  %2 = alloca ptr, align 8
  store ptr %0, ptr %2, align 8
  call void @llvm.dbg.declare(metadata ptr %2, metadata !5806, metadata !DIExpression()), !dbg !5808
  %3 = load ptr, ptr %2, align 8
  %4 = getelementptr inbounds %"class.__gnu_cxx::__normal_iterator", ptr %3, i32 0, i32 0, !dbg !5809
  %5 = load ptr, ptr %4, align 8, !dbg !5810
  %6 = getelementptr inbounds %"class.std::__cxx11::basic_string", ptr %5, i32 1, !dbg !5810
  store ptr %6, ptr %4, align 8, !dbg !5810
  ret ptr %3, !dbg !5811
}

; Function Attrs: noinline nounwind optnone uwtable
define linkonce_odr dso_local void @_ZNSt6vectorI11StringTokenSaIS0_EED2Ev(ptr noundef nonnull align 8 dereferenceable(24) %0) unnamed_addr #4 comdat align 2 personality ptr @__gxx_personality_v0 !dbg !5812 {
  %2 = alloca ptr, align 8
  store ptr %0, ptr %2, align 8
  call void @llvm.dbg.declare(metadata ptr %2, metadata !5813, metadata !DIExpression()), !dbg !5814
  %3 = load ptr, ptr %2, align 8
  %4 = getelementptr inbounds %"struct.std::_Vector_base.10", ptr %3, i32 0, i32 0, !dbg !5815
  %5 = getelementptr inbounds %"struct.std::_Vector_base<StringToken, std::allocator<StringToken>>::_Vector_impl_data", ptr %4, i32 0, i32 0, !dbg !5817
  %6 = load ptr, ptr %5, align 8, !dbg !5817
  %7 = getelementptr inbounds %"struct.std::_Vector_base.10", ptr %3, i32 0, i32 0, !dbg !5818
  %8 = getelementptr inbounds %"struct.std::_Vector_base<StringToken, std::allocator<StringToken>>::_Vector_impl_data", ptr %7, i32 0, i32 1, !dbg !5819
  %9 = load ptr, ptr %8, align 8, !dbg !5819
  %10 = call noundef nonnull align 1 dereferenceable(1) ptr @_ZNSt12_Vector_baseI11StringTokenSaIS0_EE19_M_get_Tp_allocatorEv(ptr noundef nonnull align 8 dereferenceable(24) %3) #3, !dbg !5820
  invoke void @_ZSt8_DestroyIP11StringTokenS0_EvT_S2_RSaIT0_E(ptr noundef %6, ptr noundef %9, ptr noundef nonnull align 1 dereferenceable(1) %10)
          to label %11 unwind label %12, !dbg !5821

11:                                               ; preds = %1
  call void @_ZNSt12_Vector_baseI11StringTokenSaIS0_EED2Ev(ptr noundef nonnull align 8 dereferenceable(24) %3) #3, !dbg !5822
  ret void, !dbg !5823

12:                                               ; preds = %1
  %13 = landingpad { ptr, i32 }
          catch ptr null, !dbg !5821
  %14 = extractvalue { ptr, i32 } %13, 0, !dbg !5821
  call void @__clang_call_terminate(ptr %14) #18, !dbg !5821
  unreachable, !dbg !5821
}

; Function Attrs: noinline nounwind optnone uwtable
define linkonce_odr dso_local void @_ZNSt6vectorINSt7__cxx1112basic_stringIcSt11char_traitsIcESaIcEEESaIS5_EED2Ev(ptr noundef nonnull align 8 dereferenceable(24) %0) unnamed_addr #4 comdat align 2 personality ptr @__gxx_personality_v0 !dbg !5824 {
  %2 = alloca ptr, align 8
  store ptr %0, ptr %2, align 8
  call void @llvm.dbg.declare(metadata ptr %2, metadata !5825, metadata !DIExpression()), !dbg !5826
  %3 = load ptr, ptr %2, align 8
  %4 = getelementptr inbounds %"struct.std::_Vector_base", ptr %3, i32 0, i32 0, !dbg !5827
  %5 = getelementptr inbounds %"struct.std::_Vector_base<std::__cxx11::basic_string<char>, std::allocator<std::__cxx11::basic_string<char>>>::_Vector_impl_data", ptr %4, i32 0, i32 0, !dbg !5829
  %6 = load ptr, ptr %5, align 8, !dbg !5829
  %7 = getelementptr inbounds %"struct.std::_Vector_base", ptr %3, i32 0, i32 0, !dbg !5830
  %8 = getelementptr inbounds %"struct.std::_Vector_base<std::__cxx11::basic_string<char>, std::allocator<std::__cxx11::basic_string<char>>>::_Vector_impl_data", ptr %7, i32 0, i32 1, !dbg !5831
  %9 = load ptr, ptr %8, align 8, !dbg !5831
  %10 = call noundef nonnull align 1 dereferenceable(1) ptr @_ZNSt12_Vector_baseINSt7__cxx1112basic_stringIcSt11char_traitsIcESaIcEEESaIS5_EE19_M_get_Tp_allocatorEv(ptr noundef nonnull align 8 dereferenceable(24) %3) #3, !dbg !5832
  invoke void @_ZSt8_DestroyIPNSt7__cxx1112basic_stringIcSt11char_traitsIcESaIcEEES5_EvT_S7_RSaIT0_E(ptr noundef %6, ptr noundef %9, ptr noundef nonnull align 1 dereferenceable(1) %10)
          to label %11 unwind label %12, !dbg !5833

11:                                               ; preds = %1
  call void @_ZNSt12_Vector_baseINSt7__cxx1112basic_stringIcSt11char_traitsIcESaIcEEESaIS5_EED2Ev(ptr noundef nonnull align 8 dereferenceable(24) %3) #3, !dbg !5834
  ret void, !dbg !5835

12:                                               ; preds = %1
  %13 = landingpad { ptr, i32 }
          catch ptr null, !dbg !5833
  %14 = extractvalue { ptr, i32 } %13, 0, !dbg !5833
  call void @__clang_call_terminate(ptr %14) #18, !dbg !5833
  unreachable, !dbg !5833
}

; Function Attrs: mustprogress noinline optnone uwtable
define dso_local void @_ZN10Quarantine16removeQuarantineEv() #5 !dbg !5836 {
  %1 = call noundef zeroext i1 @_ZN10Quarantine19isQuarantineEnabledEv(), !dbg !5837
  br i1 %1, label %3, label %2, !dbg !5839

2:                                                ; preds = %0
  br label %4, !dbg !5840

3:                                                ; preds = %0
  call void @_ZN8FileUtil10removeFileERKNSt7__cxx1112basic_stringIcSt11char_traitsIcESaIcEEEb(ptr noundef nonnull align 8 dereferenceable(32) @_ZN7COOLWSD14QuarantinePathB5cxx11E, i1 noundef zeroext true), !dbg !5841
  br label %4, !dbg !5842

4:                                                ; preds = %3, %2
  ret void, !dbg !5842
}

declare void @_ZN8FileUtil10removeFileERKNSt7__cxx1112basic_stringIcSt11char_traitsIcESaIcEEEb(ptr noundef nonnull align 8 dereferenceable(32), i1 noundef zeroext) #1

; Function Attrs: mustprogress noinline optnone uwtable
define dso_local noundef i64 @_ZN10Quarantine14quarantineSizeEv() #5 personality ptr @__gxx_personality_v0 !dbg !5843 {
  %1 = alloca i64, align 8
  %2 = alloca %"class.std::vector", align 8
  %3 = alloca %"class.Poco::File", align 8
  %4 = alloca ptr, align 8
  %5 = alloca i32, align 4
  %6 = alloca i64, align 8
  %7 = alloca ptr, align 8
  %8 = alloca %"class.__gnu_cxx::__normal_iterator", align 8
  %9 = alloca %"class.__gnu_cxx::__normal_iterator", align 8
  %10 = alloca %"class.std::__cxx11::basic_string", align 8
  %11 = alloca %"class.FileUtil::Stat", align 8
  %12 = alloca %"class.std::__cxx11::basic_string", align 8
  %13 = call noundef zeroext i1 @_ZN10Quarantine19isQuarantineEnabledEv(), !dbg !5846
  br i1 %13, label %15, label %14, !dbg !5848

14:                                               ; preds = %0
  store i64 0, ptr %1, align 8, !dbg !5849
  br label %66, !dbg !5849

15:                                               ; preds = %0
  call void @llvm.dbg.declare(metadata ptr %2, metadata !5850, metadata !DIExpression()), !dbg !5851
  call void @_ZNSt6vectorINSt7__cxx1112basic_stringIcSt11char_traitsIcESaIcEEESaIS5_EEC2Ev(ptr noundef nonnull align 8 dereferenceable(24) %2) #3, !dbg !5851
  invoke void @_ZN4Poco4FileC1ERKNSt7__cxx1112basic_stringIcSt11char_traitsIcESaIcEEE(ptr noundef nonnull align 8 dereferenceable(40) %3, ptr noundef nonnull align 8 dereferenceable(32) @_ZN7COOLWSD14QuarantinePathB5cxx11E)
          to label %16 unwind label %39, !dbg !5852

16:                                               ; preds = %15
  invoke void @_ZNK4Poco4File4listERSt6vectorINSt7__cxx1112basic_stringIcSt11char_traitsIcESaIcEEESaIS7_EE(ptr noundef nonnull align 8 dereferenceable(40) %3, ptr noundef nonnull align 8 dereferenceable(24) %2)
          to label %17 unwind label %43, !dbg !5853

17:                                               ; preds = %16
  call void @_ZN4Poco4FileD1Ev(ptr noundef nonnull align 8 dereferenceable(40) %3) #3, !dbg !5852
  call void @llvm.dbg.declare(metadata ptr %6, metadata !5854, metadata !DIExpression()), !dbg !5855
  store i64 0, ptr %6, align 8, !dbg !5855
  call void @llvm.dbg.declare(metadata ptr %7, metadata !5856, metadata !DIExpression()), !dbg !5858
  store ptr %2, ptr %7, align 8, !dbg !5859
  call void @llvm.dbg.declare(metadata ptr %8, metadata !5860, metadata !DIExpression()), !dbg !5858
  %18 = load ptr, ptr %7, align 8, !dbg !5861
  %19 = call ptr @_ZNSt6vectorINSt7__cxx1112basic_stringIcSt11char_traitsIcESaIcEEESaIS5_EE5beginEv(ptr noundef nonnull align 8 dereferenceable(24) %18) #3, !dbg !5861
  %20 = getelementptr inbounds %"class.__gnu_cxx::__normal_iterator", ptr %8, i32 0, i32 0, !dbg !5861
  store ptr %19, ptr %20, align 8, !dbg !5861
  call void @llvm.dbg.declare(metadata ptr %9, metadata !5862, metadata !DIExpression()), !dbg !5858
  %21 = load ptr, ptr %7, align 8, !dbg !5861
  %22 = call ptr @_ZNSt6vectorINSt7__cxx1112basic_stringIcSt11char_traitsIcESaIcEEESaIS5_EE3endEv(ptr noundef nonnull align 8 dereferenceable(24) %21) #3, !dbg !5861
  %23 = getelementptr inbounds %"class.__gnu_cxx::__normal_iterator", ptr %9, i32 0, i32 0, !dbg !5861
  store ptr %22, ptr %23, align 8, !dbg !5861
  br label %24, !dbg !5861

24:                                               ; preds = %60, %17
  %25 = call noundef zeroext i1 @_ZN9__gnu_cxxneIPNSt7__cxx1112basic_stringIcSt11char_traitsIcESaIcEEESt6vectorIS6_SaIS6_EEEEbRKNS_17__normal_iteratorIT_T0_EESG_(ptr noundef nonnull align 8 dereferenceable(8) %8, ptr noundef nonnull align 8 dereferenceable(8) %9) #3, !dbg !5861
  br i1 %25, label %26, label %63, !dbg !5861

26:                                               ; preds = %24
  call void @llvm.dbg.declare(metadata ptr %10, metadata !5863, metadata !DIExpression()), !dbg !5865
  %27 = call noundef nonnull align 8 dereferenceable(32) ptr @_ZNK9__gnu_cxx17__normal_iteratorIPNSt7__cxx1112basic_stringIcSt11char_traitsIcESaIcEEESt6vectorIS6_SaIS6_EEEdeEv(ptr noundef nonnull align 8 dereferenceable(8) %8) #3, !dbg !5866
  invoke void @_ZNSt7__cxx1112basic_stringIcSt11char_traitsIcESaIcEEC1ERKS4_(ptr noundef nonnull align 8 dereferenceable(32) %10, ptr noundef nonnull align 8 dereferenceable(32) %27)
          to label %28 unwind label %39, !dbg !5866

28:                                               ; preds = %26
  call void @llvm.dbg.declare(metadata ptr %11, metadata !5867, metadata !DIExpression()), !dbg !5869
  invoke void @_ZStplIcSt11char_traitsIcESaIcEENSt7__cxx1112basic_stringIT_T0_T1_EERKS8_SA_(ptr sret(%"class.std::__cxx11::basic_string") align 8 %12, ptr noundef nonnull align 8 dereferenceable(32) @_ZN7COOLWSD14QuarantinePathB5cxx11E, ptr noundef nonnull align 8 dereferenceable(32) %10)
          to label %29 unwind label %47, !dbg !5870

29:                                               ; preds = %28
  invoke void @_ZN8FileUtil4StatC2ERKNSt7__cxx1112basic_stringIcSt11char_traitsIcESaIcEEEb(ptr noundef nonnull align 8 dereferenceable(184) %11, ptr noundef nonnull align 8 dereferenceable(32) %12, i1 noundef zeroext false)
          to label %30 unwind label %51, !dbg !5869

30:                                               ; preds = %29
  call void @_ZNSt7__cxx1112basic_stringIcSt11char_traitsIcESaIcEED1Ev(ptr noundef nonnull align 8 dereferenceable(32) %12) #3, !dbg !5869
  %31 = invoke noundef i64 @_ZNK8FileUtil4Stat13hardLinkCountEv(ptr noundef nonnull align 8 dereferenceable(184) %11)
          to label %32 unwind label %55, !dbg !5871

32:                                               ; preds = %30
  %33 = icmp eq i64 %31, 1, !dbg !5873
  br i1 %33, label %34, label %59, !dbg !5874

34:                                               ; preds = %32
  %35 = invoke noundef i64 @_ZNK8FileUtil4Stat4sizeEv(ptr noundef nonnull align 8 dereferenceable(184) %11)
          to label %36 unwind label %55, !dbg !5875

36:                                               ; preds = %34
  %37 = load i64, ptr %6, align 8, !dbg !5876
  %38 = add i64 %37, %35, !dbg !5876
  store i64 %38, ptr %6, align 8, !dbg !5876
  br label %59, !dbg !5877

39:                                               ; preds = %26, %15
  %40 = landingpad { ptr, i32 }
          cleanup, !dbg !5878
  %41 = extractvalue { ptr, i32 } %40, 0, !dbg !5878
  store ptr %41, ptr %4, align 8, !dbg !5878
  %42 = extractvalue { ptr, i32 } %40, 1, !dbg !5878
  store i32 %42, ptr %5, align 4, !dbg !5878
  br label %65, !dbg !5878

43:                                               ; preds = %16
  %44 = landingpad { ptr, i32 }
          cleanup, !dbg !5878
  %45 = extractvalue { ptr, i32 } %44, 0, !dbg !5878
  store ptr %45, ptr %4, align 8, !dbg !5878
  %46 = extractvalue { ptr, i32 } %44, 1, !dbg !5878
  store i32 %46, ptr %5, align 4, !dbg !5878
  call void @_ZN4Poco4FileD1Ev(ptr noundef nonnull align 8 dereferenceable(40) %3) #3, !dbg !5852
  br label %65, !dbg !5852

47:                                               ; preds = %28
  %48 = landingpad { ptr, i32 }
          cleanup, !dbg !5879
  %49 = extractvalue { ptr, i32 } %48, 0, !dbg !5879
  store ptr %49, ptr %4, align 8, !dbg !5879
  %50 = extractvalue { ptr, i32 } %48, 1, !dbg !5879
  store i32 %50, ptr %5, align 4, !dbg !5879
  br label %62, !dbg !5879

51:                                               ; preds = %29
  %52 = landingpad { ptr, i32 }
          cleanup, !dbg !5879
  %53 = extractvalue { ptr, i32 } %52, 0, !dbg !5879
  store ptr %53, ptr %4, align 8, !dbg !5879
  %54 = extractvalue { ptr, i32 } %52, 1, !dbg !5879
  store i32 %54, ptr %5, align 4, !dbg !5879
  call void @_ZNSt7__cxx1112basic_stringIcSt11char_traitsIcESaIcEED1Ev(ptr noundef nonnull align 8 dereferenceable(32) %12) #3, !dbg !5869
  br label %62, !dbg !5869

55:                                               ; preds = %34, %30
  %56 = landingpad { ptr, i32 }
          cleanup, !dbg !5880
  %57 = extractvalue { ptr, i32 } %56, 0, !dbg !5880
  store ptr %57, ptr %4, align 8, !dbg !5880
  %58 = extractvalue { ptr, i32 } %56, 1, !dbg !5880
  store i32 %58, ptr %5, align 4, !dbg !5880
  call void @_ZN8FileUtil4StatD2Ev(ptr noundef nonnull align 8 dereferenceable(184) %11) #3, !dbg !5881
  br label %62, !dbg !5881

59:                                               ; preds = %36, %32
  call void @_ZN8FileUtil4StatD2Ev(ptr noundef nonnull align 8 dereferenceable(184) %11) #3, !dbg !5881
  call void @_ZNSt7__cxx1112basic_stringIcSt11char_traitsIcESaIcEED1Ev(ptr noundef nonnull align 8 dereferenceable(32) %10) #3, !dbg !5882
  br label %60, !dbg !5883

60:                                               ; preds = %59
  %61 = call noundef nonnull align 8 dereferenceable(8) ptr @_ZN9__gnu_cxx17__normal_iteratorIPNSt7__cxx1112basic_stringIcSt11char_traitsIcESaIcEEESt6vectorIS6_SaIS6_EEEppEv(ptr noundef nonnull align 8 dereferenceable(8) %8) #3, !dbg !5861
  br label %24, !dbg !5861, !llvm.loop !5884

62:                                               ; preds = %55, %51, %47
  call void @_ZNSt7__cxx1112basic_stringIcSt11char_traitsIcESaIcEED1Ev(ptr noundef nonnull align 8 dereferenceable(32) %10) #3, !dbg !5882
  br label %65, !dbg !5882

63:                                               ; preds = %24
  %64 = load i64, ptr %6, align 8, !dbg !5885
  store i64 %64, ptr %1, align 8, !dbg !5886
  call void @_ZNSt6vectorINSt7__cxx1112basic_stringIcSt11char_traitsIcESaIcEEESaIS5_EED2Ev(ptr noundef nonnull align 8 dereferenceable(24) %2) #3, !dbg !5878
  br label %66

65:                                               ; preds = %62, %43, %39
  call void @_ZNSt6vectorINSt7__cxx1112basic_stringIcSt11char_traitsIcESaIcEEESaIS5_EED2Ev(ptr noundef nonnull align 8 dereferenceable(24) %2) #3, !dbg !5878
  br label %68, !dbg !5878

66:                                               ; preds = %63, %14
  %67 = load i64, ptr %1, align 8, !dbg !5878
  ret i64 %67, !dbg !5878

68:                                               ; preds = %65
  %69 = load ptr, ptr %4, align 8, !dbg !5878
  %70 = load i32, ptr %5, align 4, !dbg !5878
  %71 = insertvalue { ptr, i32 } poison, ptr %69, 0, !dbg !5878
  %72 = insertvalue { ptr, i32 } %71, i32 %70, 1, !dbg !5878
  resume { ptr, i32 } %72, !dbg !5878
}

; Function Attrs: noinline optnone uwtable
define linkonce_odr dso_local void @_ZN8FileUtil4StatC2ERKNSt7__cxx1112basic_stringIcSt11char_traitsIcESaIcEEEb(ptr noundef nonnull align 8 dereferenceable(184) %0, ptr noundef nonnull align 8 dereferenceable(32) %1, i1 noundef zeroext %2) unnamed_addr #7 comdat align 2 !dbg !5887 {
  %4 = alloca ptr, align 8
  %5 = alloca ptr, align 8
  %6 = alloca i8, align 1
  store ptr %0, ptr %4, align 8
  call void @llvm.dbg.declare(metadata ptr %4, metadata !5888, metadata !DIExpression()), !dbg !5890
  store ptr %1, ptr %5, align 8
  call void @llvm.dbg.declare(metadata ptr %5, metadata !5891, metadata !DIExpression()), !dbg !5892
  %7 = zext i1 %2 to i8
  store i8 %7, ptr %6, align 1
  call void @llvm.dbg.declare(metadata ptr %6, metadata !5893, metadata !DIExpression()), !dbg !5894
  %8 = load ptr, ptr %4, align 8
  %9 = getelementptr inbounds %"class.FileUtil::Stat", ptr %8, i32 0, i32 0, !dbg !5895
  %10 = load ptr, ptr %5, align 8, !dbg !5896
  call void @_ZNSt7__cxx1112basic_stringIcSt11char_traitsIcESaIcEEC1ERKS4_(ptr noundef nonnull align 8 dereferenceable(32) %9, ptr noundef nonnull align 8 dereferenceable(32) %10), !dbg !5895
  %11 = getelementptr inbounds %"class.FileUtil::Stat", ptr %8, i32 0, i32 1, !dbg !5897
  %12 = getelementptr inbounds %"class.FileUtil::Stat", ptr %8, i32 0, i32 2, !dbg !5898
  %13 = load i8, ptr %6, align 1, !dbg !5899
  %14 = trunc i8 %13 to i1, !dbg !5899
  br i1 %14, label %15, label %20, !dbg !5899

15:                                               ; preds = %3
  %16 = load ptr, ptr %5, align 8, !dbg !5900
  %17 = call noundef ptr @_ZNKSt7__cxx1112basic_stringIcSt11char_traitsIcESaIcEE5c_strEv(ptr noundef nonnull align 8 dereferenceable(32) %16) #3, !dbg !5901
  %18 = getelementptr inbounds %"class.FileUtil::Stat", ptr %8, i32 0, i32 1, !dbg !5902
  %19 = call i32 @lstat(ptr noundef %17, ptr noundef %18) #3, !dbg !5903
  br label %25, !dbg !5899

20:                                               ; preds = %3
  %21 = load ptr, ptr %5, align 8, !dbg !5904
  %22 = call noundef ptr @_ZNKSt7__cxx1112basic_stringIcSt11char_traitsIcESaIcEE5c_strEv(ptr noundef nonnull align 8 dereferenceable(32) %21) #3, !dbg !5905
  %23 = getelementptr inbounds %"class.FileUtil::Stat", ptr %8, i32 0, i32 1, !dbg !5906
  %24 = call i32 @stat(ptr noundef %22, ptr noundef %23) #3, !dbg !5907
  br label %25, !dbg !5899

25:                                               ; preds = %20, %15
  %26 = phi i32 [ %19, %15 ], [ %24, %20 ], !dbg !5899
  store i32 %26, ptr %12, align 8, !dbg !5898
  %27 = getelementptr inbounds %"class.FileUtil::Stat", ptr %8, i32 0, i32 3, !dbg !5908
  %28 = call ptr @__errno_location() #19, !dbg !5909
  %29 = load i32, ptr %28, align 4, !dbg !5909
  store i32 %29, ptr %27, align 4, !dbg !5908
  ret void, !dbg !5910
}

; Function Attrs: mustprogress noinline nounwind optnone uwtable
define linkonce_odr dso_local noundef i64 @_ZNK8FileUtil4Stat13hardLinkCountEv(ptr noundef nonnull align 8 dereferenceable(184) %0) #8 comdat align 2 !dbg !5911 {
  %2 = alloca ptr, align 8
  store ptr %0, ptr %2, align 8
  call void @llvm.dbg.declare(metadata ptr %2, metadata !5912, metadata !DIExpression()), !dbg !5914
  %3 = load ptr, ptr %2, align 8
  %4 = getelementptr inbounds %"class.FileUtil::Stat", ptr %3, i32 0, i32 1, !dbg !5915
  %5 = getelementptr inbounds %struct.stat, ptr %4, i32 0, i32 2, !dbg !5916
  %6 = load i64, ptr %5, align 8, !dbg !5916
  ret i64 %6, !dbg !5917
}

; Function Attrs: mustprogress noinline nounwind optnone uwtable
define linkonce_odr dso_local noundef i64 @_ZNK8FileUtil4Stat4sizeEv(ptr noundef nonnull align 8 dereferenceable(184) %0) #8 comdat align 2 !dbg !5918 {
  %2 = alloca ptr, align 8
  store ptr %0, ptr %2, align 8
  call void @llvm.dbg.declare(metadata ptr %2, metadata !5919, metadata !DIExpression()), !dbg !5920
  %3 = load ptr, ptr %2, align 8
  %4 = getelementptr inbounds %"class.FileUtil::Stat", ptr %3, i32 0, i32 1, !dbg !5921
  %5 = getelementptr inbounds %struct.stat, ptr %4, i32 0, i32 8, !dbg !5922
  %6 = load i64, ptr %5, align 8, !dbg !5922
  ret i64 %6, !dbg !5923
}

; Function Attrs: noinline nounwind optnone uwtable
define linkonce_odr dso_local void @_ZN8FileUtil4StatD2Ev(ptr noundef nonnull align 8 dereferenceable(184) %0) unnamed_addr #4 comdat align 2 !dbg !5924 {
  %2 = alloca ptr, align 8
  store ptr %0, ptr %2, align 8
  call void @llvm.dbg.declare(metadata ptr %2, metadata !5928, metadata !DIExpression()), !dbg !5929
  %3 = load ptr, ptr %2, align 8
  %4 = getelementptr inbounds %"class.FileUtil::Stat", ptr %3, i32 0, i32 0, !dbg !5930
  call void @_ZNSt7__cxx1112basic_stringIcSt11char_traitsIcESaIcEED1Ev(ptr noundef nonnull align 8 dereferenceable(32) %4) #3, !dbg !5930
  ret void, !dbg !5932
}

; Function Attrs: mustprogress noinline optnone uwtable
define dso_local void @_ZN10Quarantine19makeQuarantineSpaceEv() #5 personality ptr @__gxx_personality_v0 !dbg !5933 {
  %1 = alloca i64, align 8
  %2 = alloca %"class.std::__cxx11::basic_string", align 8
  %3 = alloca %"class.std::allocator", align 1
  %4 = alloca ptr, align 8
  %5 = alloca i32, align 4
  %6 = alloca %"class.std::vector", align 8
  %7 = alloca %"class.Poco::File", align 8
  %8 = alloca %"class.__gnu_cxx::__normal_iterator", align 8
  %9 = alloca %"class.__gnu_cxx::__normal_iterator", align 8
  %10 = alloca i64, align 8
  %11 = alloca %"class.std::__cxx11::basic_string", align 8
  %12 = alloca %"class.std::allocator", align 1
  %13 = alloca %"struct.std::chrono::time_point", align 8
  %14 = alloca i64, align 8
  %15 = alloca %"struct.std::chrono::duration.14", align 8
  %16 = alloca %"struct.std::chrono::duration", align 8
  %17 = alloca i64, align 8
  %18 = alloca %"class.__gnu_cxx::__normal_iterator", align 8
  %19 = alloca %"class.__gnu_cxx::__normal_iterator", align 8
  %20 = alloca %"class.FileUtil::Stat", align 8
  %21 = alloca %"class.std::__cxx11::basic_string", align 8
  %22 = alloca i64, align 8
  %23 = alloca %"struct.std::chrono::duration.14", align 8
  %24 = alloca %"struct.std::chrono::duration", align 8
  %25 = alloca %"struct.std::chrono::time_point", align 8
  %26 = alloca i8, align 1
  %27 = alloca %"class.std::__cxx11::basic_string", align 8
  %28 = alloca %"class.__gnu_cxx::__normal_iterator.15", align 8
  %29 = alloca %"class.__gnu_cxx::__normal_iterator", align 8
  %30 = alloca %"class.__gnu_cxx::__normal_iterator", align 8
  %31 = call noundef zeroext i1 @_ZN10Quarantine19isQuarantineEnabledEv(), !dbg !5934
  br i1 %31, label %33, label %32, !dbg !5936

32:                                               ; preds = %0
  br label %167, !dbg !5937

33:                                               ; preds = %0
  call void @llvm.dbg.declare(metadata ptr %1, metadata !5938, metadata !DIExpression()), !dbg !5939
  call void @_ZNSaIcEC1Ev(ptr noundef nonnull align 1 dereferenceable(1) %3) #3, !dbg !5940
  invoke void @_ZNSt7__cxx1112basic_stringIcSt11char_traitsIcESaIcEEC2IS3_EEPKcRKS3_(ptr noundef nonnull align 8 dereferenceable(32) %2, ptr noundef @.str.2, ptr noundef nonnull align 1 dereferenceable(1) %3)
          to label %34 unwind label %123, !dbg !5940

34:                                               ; preds = %33
  %35 = invoke noundef i64 @_ZN7COOLWSD14getConfigValueImEET_RKNSt7__cxx1112basic_stringIcSt11char_traitsIcESaIcEEES1_(ptr noundef nonnull align 8 dereferenceable(32) %2, i64 noundef 0)
          to label %36 unwind label %127, !dbg !5941

36:                                               ; preds = %34
  %37 = mul i64 %35, 1024, !dbg !5942
  %38 = mul i64 %37, 1024, !dbg !5943
  call void @_ZNSt7__cxx1112basic_stringIcSt11char_traitsIcESaIcEED1Ev(ptr noundef nonnull align 8 dereferenceable(32) %2) #3, !dbg !5941
  call void @_ZNSaIcED1Ev(ptr noundef nonnull align 1 dereferenceable(1) %3) #3, !dbg !5941
  store i64 %38, ptr %1, align 8, !dbg !5939
  call void @llvm.dbg.declare(metadata ptr %6, metadata !5944, metadata !DIExpression()), !dbg !5945
  call void @_ZNSt6vectorINSt7__cxx1112basic_stringIcSt11char_traitsIcESaIcEEESaIS5_EEC2Ev(ptr noundef nonnull align 8 dereferenceable(24) %6) #3, !dbg !5945
  invoke void @_ZN4Poco4FileC1ERKNSt7__cxx1112basic_stringIcSt11char_traitsIcESaIcEEE(ptr noundef nonnull align 8 dereferenceable(40) %7, ptr noundef nonnull align 8 dereferenceable(32) @_ZN7COOLWSD14QuarantinePathB5cxx11E)
          to label %39 unwind label %132, !dbg !5946

39:                                               ; preds = %36
  invoke void @_ZNK4Poco4File4listERSt6vectorINSt7__cxx1112basic_stringIcSt11char_traitsIcESaIcEEESaIS7_EE(ptr noundef nonnull align 8 dereferenceable(40) %7, ptr noundef nonnull align 8 dereferenceable(24) %6)
          to label %40 unwind label %136, !dbg !5947

40:                                               ; preds = %39
  call void @_ZN4Poco4FileD1Ev(ptr noundef nonnull align 8 dereferenceable(40) %7) #3, !dbg !5946
  %41 = call ptr @_ZNSt6vectorINSt7__cxx1112basic_stringIcSt11char_traitsIcESaIcEEESaIS5_EE5beginEv(ptr noundef nonnull align 8 dereferenceable(24) %6) #3, !dbg !5948
  %42 = getelementptr inbounds %"class.__gnu_cxx::__normal_iterator", ptr %8, i32 0, i32 0, !dbg !5948
  store ptr %41, ptr %42, align 8, !dbg !5948
  %43 = call ptr @_ZNSt6vectorINSt7__cxx1112basic_stringIcSt11char_traitsIcESaIcEEESaIS5_EE3endEv(ptr noundef nonnull align 8 dereferenceable(24) %6) #3, !dbg !5949
  %44 = getelementptr inbounds %"class.__gnu_cxx::__normal_iterator", ptr %9, i32 0, i32 0, !dbg !5949
  store ptr %43, ptr %44, align 8, !dbg !5949
  %45 = getelementptr inbounds %"class.__gnu_cxx::__normal_iterator", ptr %8, i32 0, i32 0, !dbg !5950
  %46 = load ptr, ptr %45, align 8, !dbg !5950
  %47 = getelementptr inbounds %"class.__gnu_cxx::__normal_iterator", ptr %9, i32 0, i32 0, !dbg !5950
  %48 = load ptr, ptr %47, align 8, !dbg !5950
  invoke void @_ZSt4sortIN9__gnu_cxx17__normal_iteratorIPNSt7__cxx1112basic_stringIcSt11char_traitsIcESaIcEEESt6vectorIS7_SaIS7_EEEEEvT_SD_(ptr %46, ptr %48)
          to label %49 unwind label %132, !dbg !5950

49:                                               ; preds = %40
  call void @llvm.dbg.declare(metadata ptr %10, metadata !5951, metadata !DIExpression()), !dbg !5952
  call void @_ZNSaIcEC1Ev(ptr noundef nonnull align 1 dereferenceable(1) %12) #3, !dbg !5953
  invoke void @_ZNSt7__cxx1112basic_stringIcSt11char_traitsIcESaIcEEC2IS3_EEPKcRKS3_(ptr noundef nonnull align 8 dereferenceable(32) %11, ptr noundef @.str.3, ptr noundef nonnull align 1 dereferenceable(1) %12)
          to label %50 unwind label %140, !dbg !5953

50:                                               ; preds = %49
  %51 = invoke noundef i64 @_ZN7COOLWSD14getConfigValueImEET_RKNSt7__cxx1112basic_stringIcSt11char_traitsIcESaIcEEES1_(ptr noundef nonnull align 8 dereferenceable(32) %11, i64 noundef 30)
          to label %52 unwind label %144, !dbg !5954

52:                                               ; preds = %50
  call void @_ZNSt7__cxx1112basic_stringIcSt11char_traitsIcESaIcEED1Ev(ptr noundef nonnull align 8 dereferenceable(32) %11) #3, !dbg !5954
  call void @_ZNSaIcED1Ev(ptr noundef nonnull align 1 dereferenceable(1) %12) #3, !dbg !5954
  store i64 %51, ptr %10, align 8, !dbg !5952
  call void @llvm.dbg.declare(metadata ptr %13, metadata !5955, metadata !DIExpression()), !dbg !5956
  %53 = call i64 @_ZNSt6chrono3_V212system_clock3nowEv() #3, !dbg !5957
  %54 = getelementptr inbounds %"struct.std::chrono::time_point", ptr %13, i32 0, i32 0, !dbg !5957
  %55 = getelementptr inbounds %"struct.std::chrono::duration", ptr %54, i32 0, i32 0, !dbg !5957
  store i64 %53, ptr %55, align 8, !dbg !5957
  call void @llvm.dbg.declare(metadata ptr %14, metadata !5958, metadata !DIExpression()), !dbg !5959
  %56 = invoke i64 @_ZNKSt6chrono10time_pointINS_3_V212system_clockENS_8durationIlSt5ratioILl1ELl1000000000EEEEE16time_since_epochEv(ptr noundef nonnull align 8 dereferenceable(8) %13)
          to label %57 unwind label %132, !dbg !5960

57:                                               ; preds = %52
  %58 = getelementptr inbounds %"struct.std::chrono::duration", ptr %16, i32 0, i32 0, !dbg !5960
  store i64 %56, ptr %58, align 8, !dbg !5960
  %59 = invoke i64 @_ZNSt6chrono13duration_castINS_8durationIlSt5ratioILl1ELl1EEEElS2_ILl1ELl1000000000EEEENSt9enable_ifIXsr13__is_durationIT_EE5valueES7_E4typeERKNS1_IT0_T1_EE(ptr noundef nonnull align 8 dereferenceable(8) %16)
          to label %60 unwind label %132, !dbg !5961

60:                                               ; preds = %57
  %61 = getelementptr inbounds %"struct.std::chrono::duration.14", ptr %15, i32 0, i32 0, !dbg !5961
  store i64 %59, ptr %61, align 8, !dbg !5961
  %62 = invoke noundef i64 @_ZNKSt6chrono8durationIlSt5ratioILl1ELl1EEE5countEv(ptr noundef nonnull align 8 dereferenceable(8) %15)
          to label %63 unwind label %132, !dbg !5962

63:                                               ; preds = %60
  store i64 %62, ptr %14, align 8, !dbg !5959
  call void @llvm.dbg.declare(metadata ptr %17, metadata !5963, metadata !DIExpression()), !dbg !5964
  %64 = invoke noundef i64 @_ZN10Quarantine14quarantineSizeEv()
          to label %65 unwind label %132, !dbg !5965

65:                                               ; preds = %63
  store i64 %64, ptr %17, align 8, !dbg !5964
  call void @llvm.dbg.declare(metadata ptr %18, metadata !5966, metadata !DIExpression()), !dbg !5967
  %66 = call ptr @_ZNSt6vectorINSt7__cxx1112basic_stringIcSt11char_traitsIcESaIcEEESaIS5_EE5beginEv(ptr noundef nonnull align 8 dereferenceable(24) %6) #3, !dbg !5968
  %67 = getelementptr inbounds %"class.__gnu_cxx::__normal_iterator", ptr %18, i32 0, i32 0, !dbg !5968
  store ptr %66, ptr %67, align 8, !dbg !5968
  br label %68, !dbg !5969

68:                                               ; preds = %164, %65
  %69 = call ptr @_ZNSt6vectorINSt7__cxx1112basic_stringIcSt11char_traitsIcESaIcEEESaIS5_EE3endEv(ptr noundef nonnull align 8 dereferenceable(24) %6) #3, !dbg !5970
  %70 = getelementptr inbounds %"class.__gnu_cxx::__normal_iterator", ptr %19, i32 0, i32 0, !dbg !5970
  store ptr %69, ptr %70, align 8, !dbg !5970
  %71 = call noundef zeroext i1 @_ZN9__gnu_cxxneIPNSt7__cxx1112basic_stringIcSt11char_traitsIcESaIcEEESt6vectorIS6_SaIS6_EEEEbRKNS_17__normal_iteratorIT_T0_EESG_(ptr noundef nonnull align 8 dereferenceable(8) %18, ptr noundef nonnull align 8 dereferenceable(8) %19) #3, !dbg !5971
  br i1 %71, label %72, label %75, !dbg !5972

72:                                               ; preds = %68
  %73 = call noundef zeroext i1 @_ZNKSt6vectorINSt7__cxx1112basic_stringIcSt11char_traitsIcESaIcEEESaIS5_EE5emptyEv(ptr noundef nonnull align 8 dereferenceable(24) %6) #3, !dbg !5973
  %74 = xor i1 %73, true, !dbg !5974
  br label %75

75:                                               ; preds = %72, %68
  %76 = phi i1 [ false, %68 ], [ %74, %72 ], !dbg !5975
  br i1 %76, label %77, label %166, !dbg !5969

77:                                               ; preds = %75
  call void @llvm.dbg.declare(metadata ptr %20, metadata !5976, metadata !DIExpression()), !dbg !5978
  %78 = call noundef nonnull align 8 dereferenceable(32) ptr @_ZNK9__gnu_cxx17__normal_iteratorIPNSt7__cxx1112basic_stringIcSt11char_traitsIcESaIcEEESt6vectorIS6_SaIS6_EEEdeEv(ptr noundef nonnull align 8 dereferenceable(8) %18) #3, !dbg !5979
  invoke void @_ZStplIcSt11char_traitsIcESaIcEENSt7__cxx1112basic_stringIT_T0_T1_EERKS8_SA_(ptr sret(%"class.std::__cxx11::basic_string") align 8 %21, ptr noundef nonnull align 8 dereferenceable(32) @_ZN7COOLWSD14QuarantinePathB5cxx11E, ptr noundef nonnull align 8 dereferenceable(32) %78)
          to label %79 unwind label %132, !dbg !5980

79:                                               ; preds = %77
  invoke void @_ZN8FileUtil4StatC2ERKNSt7__cxx1112basic_stringIcSt11char_traitsIcESaIcEEEb(ptr noundef nonnull align 8 dereferenceable(184) %20, ptr noundef nonnull align 8 dereferenceable(32) %21, i1 noundef zeroext false)
          to label %80 unwind label %149, !dbg !5978

80:                                               ; preds = %79
  call void @_ZNSt7__cxx1112basic_stringIcSt11char_traitsIcESaIcEED1Ev(ptr noundef nonnull align 8 dereferenceable(32) %21) #3, !dbg !5978
  call void @llvm.dbg.declare(metadata ptr %22, metadata !5981, metadata !DIExpression()), !dbg !5982
  %81 = invoke i64 @_ZNK8FileUtil4Stat17modifiedTimepointEv(ptr noundef nonnull align 8 dereferenceable(184) %20)
          to label %82 unwind label %153, !dbg !5983

82:                                               ; preds = %80
  %83 = getelementptr inbounds %"struct.std::chrono::time_point", ptr %25, i32 0, i32 0, !dbg !5983
  %84 = getelementptr inbounds %"struct.std::chrono::duration", ptr %83, i32 0, i32 0, !dbg !5983
  store i64 %81, ptr %84, align 8, !dbg !5983
  %85 = invoke i64 @_ZNKSt6chrono10time_pointINS_3_V212system_clockENS_8durationIlSt5ratioILl1ELl1000000000EEEEE16time_since_epochEv(ptr noundef nonnull align 8 dereferenceable(8) %25)
          to label %86 unwind label %153, !dbg !5984

86:                                               ; preds = %82
  %87 = getelementptr inbounds %"struct.std::chrono::duration", ptr %24, i32 0, i32 0, !dbg !5984
  store i64 %85, ptr %87, align 8, !dbg !5984
  %88 = invoke i64 @_ZNSt6chrono13duration_castINS_8durationIlSt5ratioILl1ELl1EEEElS2_ILl1ELl1000000000EEEENSt9enable_ifIXsr13__is_durationIT_EE5valueES7_E4typeERKNS1_IT0_T1_EE(ptr noundef nonnull align 8 dereferenceable(8) %24)
          to label %89 unwind label %153, !dbg !5985

89:                                               ; preds = %86
  %90 = getelementptr inbounds %"struct.std::chrono::duration.14", ptr %23, i32 0, i32 0, !dbg !5985
  store i64 %88, ptr %90, align 8, !dbg !5985
  %91 = invoke noundef i64 @_ZNKSt6chrono8durationIlSt5ratioILl1ELl1EEE5countEv(ptr noundef nonnull align 8 dereferenceable(8) %23)
          to label %92 unwind label %153, !dbg !5986

92:                                               ; preds = %89
  store i64 %91, ptr %22, align 8, !dbg !5982
  call void @llvm.dbg.declare(metadata ptr %26, metadata !5987, metadata !DIExpression()), !dbg !5988
  %93 = load i64, ptr %14, align 8, !dbg !5989
  %94 = load i64, ptr %22, align 8, !dbg !5990
  %95 = sub nsw i64 %93, %94, !dbg !5991
  %96 = load i64, ptr %10, align 8, !dbg !5992
  %97 = mul i64 %96, 60, !dbg !5993
  %98 = icmp ugt i64 %95, %97, !dbg !5994
  %99 = zext i1 %98 to i8, !dbg !5988
  store i8 %99, ptr %26, align 1, !dbg !5988
  %100 = invoke noundef i64 @_ZNK8FileUtil4Stat13hardLinkCountEv(ptr noundef nonnull align 8 dereferenceable(184) %20)
          to label %101 unwind label %153, !dbg !5995

101:                                              ; preds = %92
  %102 = icmp eq i64 %100, 1, !dbg !5997
  br i1 %102, label %103, label %161, !dbg !5998

103:                                              ; preds = %101
  %104 = load i8, ptr %26, align 1, !dbg !5999
  %105 = trunc i8 %104 to i1, !dbg !5999
  br i1 %105, label %110, label %106, !dbg !6000

106:                                              ; preds = %103
  %107 = load i64, ptr %17, align 8, !dbg !6001
  %108 = load i64, ptr %1, align 8, !dbg !6002
  %109 = icmp uge i64 %107, %108, !dbg !6003
  br i1 %109, label %110, label %161, !dbg !6004

110:                                              ; preds = %106, %103
  %111 = invoke noundef i64 @_ZNK8FileUtil4Stat4sizeEv(ptr noundef nonnull align 8 dereferenceable(184) %20)
          to label %112 unwind label %153, !dbg !6005

112:                                              ; preds = %110
  %113 = load i64, ptr %17, align 8, !dbg !6007
  %114 = sub i64 %113, %111, !dbg !6007
  store i64 %114, ptr %17, align 8, !dbg !6007
  %115 = call noundef nonnull align 8 dereferenceable(32) ptr @_ZNK9__gnu_cxx17__normal_iteratorIPNSt7__cxx1112basic_stringIcSt11char_traitsIcESaIcEEESt6vectorIS6_SaIS6_EEEdeEv(ptr noundef nonnull align 8 dereferenceable(8) %18) #3, !dbg !6008
  invoke void @_ZStplIcSt11char_traitsIcESaIcEENSt7__cxx1112basic_stringIT_T0_T1_EERKS8_SA_(ptr sret(%"class.std::__cxx11::basic_string") align 8 %27, ptr noundef nonnull align 8 dereferenceable(32) @_ZN7COOLWSD14QuarantinePathB5cxx11E, ptr noundef nonnull align 8 dereferenceable(32) %115)
          to label %116 unwind label %153, !dbg !6009

116:                                              ; preds = %112
  invoke void @_ZN8FileUtil10removeFileERKNSt7__cxx1112basic_stringIcSt11char_traitsIcESaIcEEEb(ptr noundef nonnull align 8 dereferenceable(32) %27, i1 noundef zeroext true)
          to label %117 unwind label %157, !dbg !6010

117:                                              ; preds = %116
  call void @_ZNSt7__cxx1112basic_stringIcSt11char_traitsIcESaIcEED1Ev(ptr noundef nonnull align 8 dereferenceable(32) %27) #3, !dbg !6010
  call void @_ZN9__gnu_cxx17__normal_iteratorIPKNSt7__cxx1112basic_stringIcSt11char_traitsIcESaIcEEESt6vectorIS6_SaIS6_EEEC2IPS6_EERKNS0_IT_NS_11__enable_ifIXsr3std10__are_sameISF_SE_EE7__valueESB_E6__typeEEE(ptr noundef nonnull align 8 dereferenceable(8) %28, ptr noundef nonnull align 8 dereferenceable(8) %18) #3, !dbg !6011
  %118 = getelementptr inbounds %"class.__gnu_cxx::__normal_iterator.15", ptr %28, i32 0, i32 0, !dbg !6012
  %119 = load ptr, ptr %118, align 8, !dbg !6012
  %120 = invoke ptr @_ZNSt6vectorINSt7__cxx1112basic_stringIcSt11char_traitsIcESaIcEEESaIS5_EE5eraseEN9__gnu_cxx17__normal_iteratorIPKS5_S7_EE(ptr noundef nonnull align 8 dereferenceable(24) %6, ptr %119)
          to label %121 unwind label %153, !dbg !6012

121:                                              ; preds = %117
  %122 = getelementptr inbounds %"class.__gnu_cxx::__normal_iterator", ptr %29, i32 0, i32 0, !dbg !6012
  store ptr %120, ptr %122, align 8, !dbg !6012
  br label %164, !dbg !6013

123:                                              ; preds = %33
  %124 = landingpad { ptr, i32 }
          cleanup, !dbg !6014
  %125 = extractvalue { ptr, i32 } %124, 0, !dbg !6014
  store ptr %125, ptr %4, align 8, !dbg !6014
  %126 = extractvalue { ptr, i32 } %124, 1, !dbg !6014
  store i32 %126, ptr %5, align 4, !dbg !6014
  br label %131, !dbg !6014

127:                                              ; preds = %34
  %128 = landingpad { ptr, i32 }
          cleanup, !dbg !6014
  %129 = extractvalue { ptr, i32 } %128, 0, !dbg !6014
  store ptr %129, ptr %4, align 8, !dbg !6014
  %130 = extractvalue { ptr, i32 } %128, 1, !dbg !6014
  store i32 %130, ptr %5, align 4, !dbg !6014
  call void @_ZNSt7__cxx1112basic_stringIcSt11char_traitsIcESaIcEED1Ev(ptr noundef nonnull align 8 dereferenceable(32) %2) #3, !dbg !5941
  br label %131, !dbg !5941

131:                                              ; preds = %127, %123
  call void @_ZNSaIcED1Ev(ptr noundef nonnull align 1 dereferenceable(1) %3) #3, !dbg !5941
  br label %169, !dbg !5941

132:                                              ; preds = %77, %63, %60, %57, %52, %40, %36
  %133 = landingpad { ptr, i32 }
          cleanup, !dbg !6014
  %134 = extractvalue { ptr, i32 } %133, 0, !dbg !6014
  store ptr %134, ptr %4, align 8, !dbg !6014
  %135 = extractvalue { ptr, i32 } %133, 1, !dbg !6014
  store i32 %135, ptr %5, align 4, !dbg !6014
  br label %168, !dbg !6014

136:                                              ; preds = %39
  %137 = landingpad { ptr, i32 }
          cleanup, !dbg !6014
  %138 = extractvalue { ptr, i32 } %137, 0, !dbg !6014
  store ptr %138, ptr %4, align 8, !dbg !6014
  %139 = extractvalue { ptr, i32 } %137, 1, !dbg !6014
  store i32 %139, ptr %5, align 4, !dbg !6014
  call void @_ZN4Poco4FileD1Ev(ptr noundef nonnull align 8 dereferenceable(40) %7) #3, !dbg !5946
  br label %168, !dbg !5946

140:                                              ; preds = %49
  %141 = landingpad { ptr, i32 }
          cleanup, !dbg !6014
  %142 = extractvalue { ptr, i32 } %141, 0, !dbg !6014
  store ptr %142, ptr %4, align 8, !dbg !6014
  %143 = extractvalue { ptr, i32 } %141, 1, !dbg !6014
  store i32 %143, ptr %5, align 4, !dbg !6014
  br label %148, !dbg !6014

144:                                              ; preds = %50
  %145 = landingpad { ptr, i32 }
          cleanup, !dbg !6014
  %146 = extractvalue { ptr, i32 } %145, 0, !dbg !6014
  store ptr %146, ptr %4, align 8, !dbg !6014
  %147 = extractvalue { ptr, i32 } %145, 1, !dbg !6014
  store i32 %147, ptr %5, align 4, !dbg !6014
  call void @_ZNSt7__cxx1112basic_stringIcSt11char_traitsIcESaIcEED1Ev(ptr noundef nonnull align 8 dereferenceable(32) %11) #3, !dbg !5954
  br label %148, !dbg !5954

148:                                              ; preds = %144, %140
  call void @_ZNSaIcED1Ev(ptr noundef nonnull align 1 dereferenceable(1) %12) #3, !dbg !5954
  br label %168, !dbg !5954

149:                                              ; preds = %79
  %150 = landingpad { ptr, i32 }
          cleanup, !dbg !6015
  %151 = extractvalue { ptr, i32 } %150, 0, !dbg !6015
  store ptr %151, ptr %4, align 8, !dbg !6015
  %152 = extractvalue { ptr, i32 } %150, 1, !dbg !6015
  store i32 %152, ptr %5, align 4, !dbg !6015
  call void @_ZNSt7__cxx1112basic_stringIcSt11char_traitsIcESaIcEED1Ev(ptr noundef nonnull align 8 dereferenceable(32) %21) #3, !dbg !5978
  br label %168, !dbg !5978

153:                                              ; preds = %117, %112, %110, %92, %89, %86, %82, %80
  %154 = landingpad { ptr, i32 }
          cleanup, !dbg !6015
  %155 = extractvalue { ptr, i32 } %154, 0, !dbg !6015
  store ptr %155, ptr %4, align 8, !dbg !6015
  %156 = extractvalue { ptr, i32 } %154, 1, !dbg !6015
  store i32 %156, ptr %5, align 4, !dbg !6015
  br label %165, !dbg !6015

157:                                              ; preds = %116
  %158 = landingpad { ptr, i32 }
          cleanup, !dbg !6016
  %159 = extractvalue { ptr, i32 } %158, 0, !dbg !6016
  store ptr %159, ptr %4, align 8, !dbg !6016
  %160 = extractvalue { ptr, i32 } %158, 1, !dbg !6016
  store i32 %160, ptr %5, align 4, !dbg !6016
  call void @_ZNSt7__cxx1112basic_stringIcSt11char_traitsIcESaIcEED1Ev(ptr noundef nonnull align 8 dereferenceable(32) %27) #3, !dbg !6010
  br label %165, !dbg !6010

161:                                              ; preds = %106, %101
  %162 = call ptr @_ZN9__gnu_cxx17__normal_iteratorIPNSt7__cxx1112basic_stringIcSt11char_traitsIcESaIcEEESt6vectorIS6_SaIS6_EEEppEi(ptr noundef nonnull align 8 dereferenceable(8) %18, i32 noundef 0) #3, !dbg !6017
  %163 = getelementptr inbounds %"class.__gnu_cxx::__normal_iterator", ptr %30, i32 0, i32 0, !dbg !6017
  store ptr %162, ptr %163, align 8, !dbg !6017
  br label %164

164:                                              ; preds = %161, %121
  call void @_ZN8FileUtil4StatD2Ev(ptr noundef nonnull align 8 dereferenceable(184) %20) #3, !dbg !6018
  br label %68, !dbg !5969, !llvm.loop !6019

165:                                              ; preds = %157, %153
  call void @_ZN8FileUtil4StatD2Ev(ptr noundef nonnull align 8 dereferenceable(184) %20) #3, !dbg !6018
  br label %168, !dbg !6018

166:                                              ; preds = %75
  call void @_ZNSt6vectorINSt7__cxx1112basic_stringIcSt11char_traitsIcESaIcEEESaIS5_EED2Ev(ptr noundef nonnull align 8 dereferenceable(24) %6) #3, !dbg !6014
  br label %167, !dbg !6014

167:                                              ; preds = %166, %32
  ret void, !dbg !6014

168:                                              ; preds = %165, %149, %148, %136, %132
  call void @_ZNSt6vectorINSt7__cxx1112basic_stringIcSt11char_traitsIcESaIcEEESaIS5_EED2Ev(ptr noundef nonnull align 8 dereferenceable(24) %6) #3, !dbg !6014
  br label %169, !dbg !6014

169:                                              ; preds = %168, %131
  %170 = load ptr, ptr %4, align 8, !dbg !5941
  %171 = load i32, ptr %5, align 4, !dbg !5941
  %172 = insertvalue { ptr, i32 } poison, ptr %170, 0, !dbg !5941
  %173 = insertvalue { ptr, i32 } %172, i32 %171, 1, !dbg !5941
  resume { ptr, i32 } %173, !dbg !5941
}

; Function Attrs: mustprogress noinline optnone uwtable
define linkonce_odr dso_local noundef i64 @_ZN7COOLWSD14getConfigValueImEET_RKNSt7__cxx1112basic_stringIcSt11char_traitsIcESaIcEEES1_(ptr noundef nonnull align 8 dereferenceable(32) %0, i64 noundef %1) #5 comdat align 2 !dbg !6020 {
  %3 = alloca i64, align 8
  %4 = alloca ptr, align 8
  %5 = alloca i64, align 8
  store ptr %0, ptr %4, align 8
  call void @llvm.dbg.declare(metadata ptr %4, metadata !6027, metadata !DIExpression()), !dbg !6028
  store i64 %1, ptr %5, align 8
  call void @llvm.dbg.declare(metadata ptr %5, metadata !6029, metadata !DIExpression()), !dbg !6030
  %6 = call noundef zeroext i1 @_ZN4Util9isFuzzingEv(), !dbg !6031
  br i1 %6, label %7, label %9, !dbg !6033

7:                                                ; preds = %2
  %8 = load i64, ptr %5, align 8, !dbg !6034
  store i64 %8, ptr %3, align 8, !dbg !6036
  br label %15, !dbg !6036

9:                                                ; preds = %2
  %10 = call noundef nonnull align 8 dereferenceable(224) ptr @_ZN4Poco4Util11Application8instanceEv(), !dbg !6037
  %11 = call noundef nonnull align 8 dereferenceable(536) ptr @_ZNK4Poco4Util11Application6configEv(ptr noundef nonnull align 8 dereferenceable(224) %10), !dbg !6038
  %12 = load ptr, ptr %4, align 8, !dbg !6039
  %13 = load i64, ptr %5, align 8, !dbg !6040
  %14 = call noundef i64 @_ZN7COOLWSD14getConfigValueImEET_RN4Poco4Util20LayeredConfigurationERKNSt7__cxx1112basic_stringIcSt11char_traitsIcESaIcEEES1_(ptr noundef nonnull align 8 dereferenceable(536) %11, ptr noundef nonnull align 8 dereferenceable(32) %12, i64 noundef %13), !dbg !6041
  store i64 %14, ptr %3, align 8, !dbg !6042
  br label %15, !dbg !6042

15:                                               ; preds = %9, %7
  %16 = load i64, ptr %3, align 8, !dbg !6043
  ret i64 %16, !dbg !6043
}

; Function Attrs: nounwind
declare i64 @_ZNSt6chrono3_V212system_clock3nowEv() #2

; Function Attrs: mustprogress noinline optnone uwtable
define linkonce_odr dso_local i64 @_ZNSt6chrono13duration_castINS_8durationIlSt5ratioILl1ELl1EEEElS2_ILl1ELl1000000000EEEENSt9enable_ifIXsr13__is_durationIT_EE5valueES7_E4typeERKNS1_IT0_T1_EE(ptr noundef nonnull align 8 dereferenceable(8) %0) #5 comdat !dbg !6044 {
  %2 = alloca %"struct.std::chrono::duration.14", align 8
  %3 = alloca ptr, align 8
  store ptr %0, ptr %3, align 8
  call void @llvm.dbg.declare(metadata ptr %3, metadata !6055, metadata !DIExpression()), !dbg !6056
  %4 = load ptr, ptr %3, align 8, !dbg !6057
  %5 = call i64 @_ZNSt6chrono20__duration_cast_implINS_8durationIlSt5ratioILl1ELl1EEEES2_ILl1ELl1000000000EElLb1ELb0EE6__castIlS5_EES4_RKNS1_IT_T0_EE(ptr noundef nonnull align 8 dereferenceable(8) %4), !dbg !6058
  %6 = getelementptr inbounds %"struct.std::chrono::duration.14", ptr %2, i32 0, i32 0, !dbg !6058
  store i64 %5, ptr %6, align 8, !dbg !6058
  %7 = getelementptr inbounds %"struct.std::chrono::duration.14", ptr %2, i32 0, i32 0, !dbg !6059
  %8 = load i64, ptr %7, align 8, !dbg !6059
  ret i64 %8, !dbg !6059
}

; Function Attrs: mustprogress noinline nounwind optnone uwtable
define linkonce_odr dso_local i64 @_ZNKSt6chrono10time_pointINS_3_V212system_clockENS_8durationIlSt5ratioILl1ELl1000000000EEEEE16time_since_epochEv(ptr noundef nonnull align 8 dereferenceable(8) %0) #8 comdat align 2 !dbg !6060 {
  %2 = alloca %"struct.std::chrono::duration", align 8
  %3 = alloca ptr, align 8
  store ptr %0, ptr %3, align 8
  call void @llvm.dbg.declare(metadata ptr %3, metadata !6061, metadata !DIExpression()), !dbg !6063
  %4 = load ptr, ptr %3, align 8
  %5 = getelementptr inbounds %"struct.std::chrono::time_point", ptr %4, i32 0, i32 0, !dbg !6064
  call void @llvm.memcpy.p0.p0.i64(ptr align 8 %2, ptr align 8 %5, i64 8, i1 false), !dbg !6064
  %6 = getelementptr inbounds %"struct.std::chrono::duration", ptr %2, i32 0, i32 0, !dbg !6065
  %7 = load i64, ptr %6, align 8, !dbg !6065
  ret i64 %7, !dbg !6065
}

; Function Attrs: mustprogress noinline nounwind optnone uwtable
define linkonce_odr dso_local noundef i64 @_ZNKSt6chrono8durationIlSt5ratioILl1ELl1EEE5countEv(ptr noundef nonnull align 8 dereferenceable(8) %0) #8 comdat align 2 !dbg !6066 {
  %2 = alloca ptr, align 8
  store ptr %0, ptr %2, align 8
  call void @llvm.dbg.declare(metadata ptr %2, metadata !6067, metadata !DIExpression()), !dbg !6069
  %3 = load ptr, ptr %2, align 8
  %4 = getelementptr inbounds %"struct.std::chrono::duration.14", ptr %3, i32 0, i32 0, !dbg !6070
  %5 = load i64, ptr %4, align 8, !dbg !6070
  ret i64 %5, !dbg !6071
}

; Function Attrs: mustprogress noinline nounwind optnone uwtable
define linkonce_odr dso_local noundef zeroext i1 @_ZNKSt6vectorINSt7__cxx1112basic_stringIcSt11char_traitsIcESaIcEEESaIS5_EE5emptyEv(ptr noundef nonnull align 8 dereferenceable(24) %0) #8 comdat align 2 !dbg !6072 {
  %2 = alloca ptr, align 8
  %3 = alloca %"class.__gnu_cxx::__normal_iterator.15", align 8
  %4 = alloca %"class.__gnu_cxx::__normal_iterator.15", align 8
  store ptr %0, ptr %2, align 8
  call void @llvm.dbg.declare(metadata ptr %2, metadata !6073, metadata !DIExpression()), !dbg !6075
  %5 = load ptr, ptr %2, align 8
  %6 = call ptr @_ZNKSt6vectorINSt7__cxx1112basic_stringIcSt11char_traitsIcESaIcEEESaIS5_EE5beginEv(ptr noundef nonnull align 8 dereferenceable(24) %5) #3, !dbg !6076
  %7 = getelementptr inbounds %"class.__gnu_cxx::__normal_iterator.15", ptr %3, i32 0, i32 0, !dbg !6076
  store ptr %6, ptr %7, align 8, !dbg !6076
  %8 = call ptr @_ZNKSt6vectorINSt7__cxx1112basic_stringIcSt11char_traitsIcESaIcEEESaIS5_EE3endEv(ptr noundef nonnull align 8 dereferenceable(24) %5) #3, !dbg !6077
  %9 = getelementptr inbounds %"class.__gnu_cxx::__normal_iterator.15", ptr %4, i32 0, i32 0, !dbg !6077
  store ptr %8, ptr %9, align 8, !dbg !6077
  %10 = call noundef zeroext i1 @_ZN9__gnu_cxxeqIPKNSt7__cxx1112basic_stringIcSt11char_traitsIcESaIcEEESt6vectorIS6_SaIS6_EEEEbRKNS_17__normal_iteratorIT_T0_EESH_(ptr noundef nonnull align 8 dereferenceable(8) %3, ptr noundef nonnull align 8 dereferenceable(8) %4) #3, !dbg !6078
  ret i1 %10, !dbg !6079
}

; Function Attrs: mustprogress noinline optnone uwtable
define linkonce_odr dso_local i64 @_ZNK8FileUtil4Stat17modifiedTimepointEv(ptr noundef nonnull align 8 dereferenceable(184) %0) #5 comdat align 2 !dbg !6080 {
  %2 = alloca %"struct.std::chrono::time_point", align 8
  %3 = alloca ptr, align 8
  %4 = alloca %"struct.std::chrono::duration.173", align 8
  %5 = alloca i64, align 8
  %6 = alloca %"struct.std::chrono::duration", align 8
  store ptr %0, ptr %3, align 8
  call void @llvm.dbg.declare(metadata ptr %3, metadata !6081, metadata !DIExpression()), !dbg !6082
  %7 = load ptr, ptr %3, align 8
  call void @llvm.dbg.declare(metadata ptr %4, metadata !6083, metadata !DIExpression()), !dbg !6086
  %8 = call noundef i64 @_ZNK8FileUtil4Stat14modifiedTimeUsEv(ptr noundef nonnull align 8 dereferenceable(184) %7), !dbg !6087
  store i64 %8, ptr %5, align 8, !dbg !6087
  call void @_ZNSt6chrono8durationIlSt5ratioILl1ELl1000000EEEC2ImvEERKT_(ptr noundef nonnull align 8 dereferenceable(8) %4, ptr noundef nonnull align 8 dereferenceable(8) %5), !dbg !6086
  %9 = call i64 @_ZNSt6chrono13duration_castINS_8durationIlSt5ratioILl1ELl1000000000EEEElS2_ILl1ELl1000000EEEENSt9enable_ifIXsr13__is_durationIT_EE5valueES7_E4typeERKNS1_IT0_T1_EE(ptr noundef nonnull align 8 dereferenceable(8) %4), !dbg !6088
  %10 = getelementptr inbounds %"struct.std::chrono::duration", ptr %6, i32 0, i32 0, !dbg !6088
  store i64 %9, ptr %10, align 8, !dbg !6088
  call void @_ZNSt6chrono10time_pointINS_3_V212system_clockENS_8durationIlSt5ratioILl1ELl1000000000EEEEEC2ERKS6_(ptr noundef nonnull align 8 dereferenceable(8) %2, ptr noundef nonnull align 8 dereferenceable(8) %6), !dbg !6089
  %11 = getelementptr inbounds %"struct.std::chrono::time_point", ptr %2, i32 0, i32 0, !dbg !6090
  %12 = getelementptr inbounds %"struct.std::chrono::duration", ptr %11, i32 0, i32 0, !dbg !6090
  %13 = load i64, ptr %12, align 8, !dbg !6090
  ret i64 %13, !dbg !6090
}

; Function Attrs: mustprogress noinline optnone uwtable
define linkonce_odr dso_local ptr @_ZNSt6vectorINSt7__cxx1112basic_stringIcSt11char_traitsIcESaIcEEESaIS5_EE5eraseEN9__gnu_cxx17__normal_iteratorIPKS5_S7_EE(ptr noundef nonnull align 8 dereferenceable(24) %0, ptr %1) #5 comdat align 2 !dbg !6091 {
  %3 = alloca %"class.__gnu_cxx::__normal_iterator", align 8
  %4 = alloca %"class.__gnu_cxx::__normal_iterator.15", align 8
  %5 = alloca ptr, align 8
  %6 = alloca %"class.__gnu_cxx::__normal_iterator", align 8
  %7 = alloca %"class.__gnu_cxx::__normal_iterator", align 8
  %8 = alloca %"class.__gnu_cxx::__normal_iterator.15", align 8
  %9 = getelementptr inbounds %"class.__gnu_cxx::__normal_iterator.15", ptr %4, i32 0, i32 0
  store ptr %1, ptr %9, align 8
  store ptr %0, ptr %5, align 8
  call void @llvm.dbg.declare(metadata ptr %5, metadata !6092, metadata !DIExpression()), !dbg !6093
  call void @llvm.dbg.declare(metadata ptr %4, metadata !6094, metadata !DIExpression()), !dbg !6095
  %10 = load ptr, ptr %5, align 8
  %11 = call ptr @_ZNSt6vectorINSt7__cxx1112basic_stringIcSt11char_traitsIcESaIcEEESaIS5_EE5beginEv(ptr noundef nonnull align 8 dereferenceable(24) %10) #3, !dbg !6096
  %12 = getelementptr inbounds %"class.__gnu_cxx::__normal_iterator", ptr %7, i32 0, i32 0, !dbg !6096
  store ptr %11, ptr %12, align 8, !dbg !6096
  %13 = call ptr @_ZNKSt6vectorINSt7__cxx1112basic_stringIcSt11char_traitsIcESaIcEEESaIS5_EE6cbeginEv(ptr noundef nonnull align 8 dereferenceable(24) %10) #3, !dbg !6097
  %14 = getelementptr inbounds %"class.__gnu_cxx::__normal_iterator.15", ptr %8, i32 0, i32 0, !dbg !6097
  store ptr %13, ptr %14, align 8, !dbg !6097
  %15 = call noundef i64 @_ZN9__gnu_cxxmiIPKNSt7__cxx1112basic_stringIcSt11char_traitsIcESaIcEEESt6vectorIS6_SaIS6_EEEENS_17__normal_iteratorIT_T0_E15difference_typeERKSF_SI_(ptr noundef nonnull align 8 dereferenceable(8) %4, ptr noundef nonnull align 8 dereferenceable(8) %8) #3, !dbg !6098
  %16 = call ptr @_ZNK9__gnu_cxx17__normal_iteratorIPNSt7__cxx1112basic_stringIcSt11char_traitsIcESaIcEEESt6vectorIS6_SaIS6_EEEplEl(ptr noundef nonnull align 8 dereferenceable(8) %7, i64 noundef %15) #3, !dbg !6099
  %17 = getelementptr inbounds %"class.__gnu_cxx::__normal_iterator", ptr %6, i32 0, i32 0, !dbg !6099
  store ptr %16, ptr %17, align 8, !dbg !6099
  %18 = getelementptr inbounds %"class.__gnu_cxx::__normal_iterator", ptr %6, i32 0, i32 0, !dbg !6100
  %19 = load ptr, ptr %18, align 8, !dbg !6100
  %20 = call ptr @_ZNSt6vectorINSt7__cxx1112basic_stringIcSt11char_traitsIcESaIcEEESaIS5_EE8_M_eraseEN9__gnu_cxx17__normal_iteratorIPS5_S7_EE(ptr noundef nonnull align 8 dereferenceable(24) %10, ptr %19), !dbg !6100
  %21 = getelementptr inbounds %"class.__gnu_cxx::__normal_iterator", ptr %3, i32 0, i32 0, !dbg !6100
  store ptr %20, ptr %21, align 8, !dbg !6100
  %22 = getelementptr inbounds %"class.__gnu_cxx::__normal_iterator", ptr %3, i32 0, i32 0, !dbg !6101
  %23 = load ptr, ptr %22, align 8, !dbg !6101
  ret ptr %23, !dbg !6101
}

; Function Attrs: noinline nounwind optnone uwtable
define linkonce_odr dso_local void @_ZN9__gnu_cxx17__normal_iteratorIPKNSt7__cxx1112basic_stringIcSt11char_traitsIcESaIcEEESt6vectorIS6_SaIS6_EEEC2IPS6_EERKNS0_IT_NS_11__enable_ifIXsr3std10__are_sameISF_SE_EE7__valueESB_E6__typeEEE(ptr noundef nonnull align 8 dereferenceable(8) %0, ptr noundef nonnull align 8 dereferenceable(8) %1) unnamed_addr #4 comdat align 2 !dbg !6102 {
  %3 = alloca ptr, align 8
  %4 = alloca ptr, align 8
  store ptr %0, ptr %3, align 8
  call void @llvm.dbg.declare(metadata ptr %3, metadata !6108, metadata !DIExpression()), !dbg !6110
  store ptr %1, ptr %4, align 8
  call void @llvm.dbg.declare(metadata ptr %4, metadata !6111, metadata !DIExpression()), !dbg !6112
  %5 = load ptr, ptr %3, align 8
  %6 = getelementptr inbounds %"class.__gnu_cxx::__normal_iterator.15", ptr %5, i32 0, i32 0, !dbg !6113
  %7 = load ptr, ptr %4, align 8, !dbg !6114
  %8 = call noundef nonnull align 8 dereferenceable(8) ptr @_ZNK9__gnu_cxx17__normal_iteratorIPNSt7__cxx1112basic_stringIcSt11char_traitsIcESaIcEEESt6vectorIS6_SaIS6_EEE4baseEv(ptr noundef nonnull align 8 dereferenceable(8) %7) #3, !dbg !6115
  %9 = load ptr, ptr %8, align 8, !dbg !6115
  store ptr %9, ptr %6, align 8, !dbg !6113
  ret void, !dbg !6116
}

; Function Attrs: mustprogress noinline nounwind optnone uwtable
define linkonce_odr dso_local ptr @_ZN9__gnu_cxx17__normal_iteratorIPNSt7__cxx1112basic_stringIcSt11char_traitsIcESaIcEEESt6vectorIS6_SaIS6_EEEppEi(ptr noundef nonnull align 8 dereferenceable(8) %0, i32 noundef %1) #8 comdat align 2 !dbg !6117 {
  %3 = alloca %"class.__gnu_cxx::__normal_iterator", align 8
  %4 = alloca ptr, align 8
  %5 = alloca i32, align 4
  %6 = alloca ptr, align 8
  store ptr %0, ptr %4, align 8
  call void @llvm.dbg.declare(metadata ptr %4, metadata !6118, metadata !DIExpression()), !dbg !6119
  store i32 %1, ptr %5, align 4
  call void @llvm.dbg.declare(metadata ptr %5, metadata !6120, metadata !DIExpression()), !dbg !6121
  %7 = load ptr, ptr %4, align 8
  %8 = getelementptr inbounds %"class.__gnu_cxx::__normal_iterator", ptr %7, i32 0, i32 0, !dbg !6122
  %9 = load ptr, ptr %8, align 8, !dbg !6123
  %10 = getelementptr inbounds %"class.std::__cxx11::basic_string", ptr %9, i32 1, !dbg !6123
  store ptr %10, ptr %8, align 8, !dbg !6123
  store ptr %9, ptr %6, align 8, !dbg !6122
  call void @_ZN9__gnu_cxx17__normal_iteratorIPNSt7__cxx1112basic_stringIcSt11char_traitsIcESaIcEEESt6vectorIS6_SaIS6_EEEC2ERKS7_(ptr noundef nonnull align 8 dereferenceable(8) %3, ptr noundef nonnull align 8 dereferenceable(8) %6) #3, !dbg !6124
  %11 = getelementptr inbounds %"class.__gnu_cxx::__normal_iterator", ptr %3, i32 0, i32 0, !dbg !6125
  %12 = load ptr, ptr %11, align 8, !dbg !6125
  ret ptr %12, !dbg !6125
}

; Function Attrs: mustprogress noinline optnone uwtable
define dso_local void @_ZN10Quarantine26clearOldQuarantineVersionsENSt7__cxx1112basic_stringIcSt11char_traitsIcESaIcEEE(ptr noundef %0) #5 personality ptr @__gxx_personality_v0 !dbg !6126 {
  %2 = alloca i64, align 8
  %3 = alloca %"class.std::__cxx11::basic_string", align 8
  %4 = alloca %"class.std::allocator", align 1
  %5 = alloca ptr, align 8
  %6 = alloca i32, align 4
  %7 = alloca %"class.std::__cxx11::basic_string", align 8
  %8 = alloca %"class.__gnu_cxx::__normal_iterator.15", align 8
  %9 = alloca %"class.__gnu_cxx::__normal_iterator", align 8
  %10 = alloca %"class.__gnu_cxx::__normal_iterator", align 8
  call void @llvm.dbg.declare(metadata ptr %0, metadata !6129, metadata !DIExpression()), !dbg !6130
  %11 = call noundef zeroext i1 @_ZN10Quarantine19isQuarantineEnabledEv(), !dbg !6131
  br i1 %11, label %13, label %12, !dbg !6133

12:                                               ; preds = %1
  br label %54, !dbg !6134

13:                                               ; preds = %1
  call void @llvm.dbg.declare(metadata ptr %2, metadata !6135, metadata !DIExpression()), !dbg !6136
  call void @_ZNSaIcEC1Ev(ptr noundef nonnull align 1 dereferenceable(1) %4) #3, !dbg !6137
  invoke void @_ZNSt7__cxx1112basic_stringIcSt11char_traitsIcESaIcEEC2IS3_EEPKcRKS3_(ptr noundef nonnull align 8 dereferenceable(32) %3, ptr noundef @.str.4, ptr noundef nonnull align 1 dereferenceable(1) %4)
          to label %14 unwind label %40, !dbg !6137

14:                                               ; preds = %13
  %15 = invoke noundef i64 @_ZN7COOLWSD14getConfigValueImEET_RKNSt7__cxx1112basic_stringIcSt11char_traitsIcESaIcEEES1_(ptr noundef nonnull align 8 dereferenceable(32) %3, i64 noundef 2)
          to label %16 unwind label %44, !dbg !6138

16:                                               ; preds = %14
  call void @_ZNSt7__cxx1112basic_stringIcSt11char_traitsIcESaIcEED1Ev(ptr noundef nonnull align 8 dereferenceable(32) %3) #3, !dbg !6138
  call void @_ZNSaIcED1Ev(ptr noundef nonnull align 1 dereferenceable(1) %4) #3, !dbg !6138
  store i64 %15, ptr %2, align 8, !dbg !6136
  call void @llvm.dbg.declare(metadata ptr %7, metadata !6139, metadata !DIExpression()), !dbg !6140
  call void @_ZNSt7__cxx1112basic_stringIcSt11char_traitsIcESaIcEEC1Ev(ptr noundef nonnull align 8 dereferenceable(32) %7) #3, !dbg !6140
  invoke void @_ZN4Poco3URI6decodeERKNSt7__cxx1112basic_stringIcSt11char_traitsIcESaIcEEERS6_b(ptr noundef nonnull align 8 dereferenceable(32) %0, ptr noundef nonnull align 8 dereferenceable(32) %7, i1 noundef zeroext false)
          to label %17 unwind label %49, !dbg !6141

17:                                               ; preds = %16
  br label %18, !dbg !6142

18:                                               ; preds = %38, %17
  %19 = invoke noundef nonnull align 8 dereferenceable(24) ptr @_ZNSt13unordered_mapINSt7__cxx1112basic_stringIcSt11char_traitsIcESaIcEEESt6vectorIS5_SaIS5_EESt4hashIS5_ESt8equal_toIS5_ESaISt4pairIKS5_S8_EEEixERSE_(ptr noundef nonnull align 8 dereferenceable(56) @_ZN7COOLWSD13QuarantineMapB5cxx11E, ptr noundef nonnull align 8 dereferenceable(32) %7)
          to label %20 unwind label %49, !dbg !6143

20:                                               ; preds = %18
  %21 = call noundef i64 @_ZNKSt6vectorINSt7__cxx1112basic_stringIcSt11char_traitsIcESaIcEEESaIS5_EE4sizeEv(ptr noundef nonnull align 8 dereferenceable(24) %19) #3, !dbg !6144
  %22 = load i64, ptr %2, align 8, !dbg !6145
  %23 = icmp ugt i64 %21, %22, !dbg !6146
  br i1 %23, label %24, label %53, !dbg !6142

24:                                               ; preds = %20
  %25 = invoke noundef nonnull align 8 dereferenceable(24) ptr @_ZNSt13unordered_mapINSt7__cxx1112basic_stringIcSt11char_traitsIcESaIcEEESt6vectorIS5_SaIS5_EESt4hashIS5_ESt8equal_toIS5_ESaISt4pairIKS5_S8_EEEixERSE_(ptr noundef nonnull align 8 dereferenceable(56) @_ZN7COOLWSD13QuarantineMapB5cxx11E, ptr noundef nonnull align 8 dereferenceable(32) %7)
          to label %26 unwind label %49, !dbg !6147

26:                                               ; preds = %24
  %27 = call noundef nonnull align 8 dereferenceable(32) ptr @_ZNSt6vectorINSt7__cxx1112basic_stringIcSt11char_traitsIcESaIcEEESaIS5_EEixEm(ptr noundef nonnull align 8 dereferenceable(24) %25, i64 noundef 0) #3, !dbg !6147
  invoke void @_ZN8FileUtil10removeFileERKNSt7__cxx1112basic_stringIcSt11char_traitsIcESaIcEEEb(ptr noundef nonnull align 8 dereferenceable(32) %27, i1 noundef zeroext false)
          to label %28 unwind label %49, !dbg !6149

28:                                               ; preds = %26
  %29 = invoke noundef nonnull align 8 dereferenceable(24) ptr @_ZNSt13unordered_mapINSt7__cxx1112basic_stringIcSt11char_traitsIcESaIcEEESt6vectorIS5_SaIS5_EESt4hashIS5_ESt8equal_toIS5_ESaISt4pairIKS5_S8_EEEixERSE_(ptr noundef nonnull align 8 dereferenceable(56) @_ZN7COOLWSD13QuarantineMapB5cxx11E, ptr noundef nonnull align 8 dereferenceable(32) %7)
          to label %30 unwind label %49, !dbg !6150

30:                                               ; preds = %28
  %31 = invoke noundef nonnull align 8 dereferenceable(24) ptr @_ZNSt13unordered_mapINSt7__cxx1112basic_stringIcSt11char_traitsIcESaIcEEESt6vectorIS5_SaIS5_EESt4hashIS5_ESt8equal_toIS5_ESaISt4pairIKS5_S8_EEEixERSE_(ptr noundef nonnull align 8 dereferenceable(56) @_ZN7COOLWSD13QuarantineMapB5cxx11E, ptr noundef nonnull align 8 dereferenceable(32) %7)
          to label %32 unwind label %49, !dbg !6151

32:                                               ; preds = %30
  %33 = call ptr @_ZNSt6vectorINSt7__cxx1112basic_stringIcSt11char_traitsIcESaIcEEESaIS5_EE5beginEv(ptr noundef nonnull align 8 dereferenceable(24) %31) #3, !dbg !6152
  %34 = getelementptr inbounds %"class.__gnu_cxx::__normal_iterator", ptr %9, i32 0, i32 0, !dbg !6152
  store ptr %33, ptr %34, align 8, !dbg !6152
  call void @_ZN9__gnu_cxx17__normal_iteratorIPKNSt7__cxx1112basic_stringIcSt11char_traitsIcESaIcEEESt6vectorIS6_SaIS6_EEEC2IPS6_EERKNS0_IT_NS_11__enable_ifIXsr3std10__are_sameISF_SE_EE7__valueESB_E6__typeEEE(ptr noundef nonnull align 8 dereferenceable(8) %8, ptr noundef nonnull align 8 dereferenceable(8) %9) #3, !dbg !6151
  %35 = getelementptr inbounds %"class.__gnu_cxx::__normal_iterator.15", ptr %8, i32 0, i32 0, !dbg !6153
  %36 = load ptr, ptr %35, align 8, !dbg !6153
  %37 = invoke ptr @_ZNSt6vectorINSt7__cxx1112basic_stringIcSt11char_traitsIcESaIcEEESaIS5_EE5eraseEN9__gnu_cxx17__normal_iteratorIPKS5_S7_EE(ptr noundef nonnull align 8 dereferenceable(24) %29, ptr %36)
          to label %38 unwind label %49, !dbg !6153

38:                                               ; preds = %32
  %39 = getelementptr inbounds %"class.__gnu_cxx::__normal_iterator", ptr %10, i32 0, i32 0, !dbg !6153
  store ptr %37, ptr %39, align 8, !dbg !6153
  br label %18, !dbg !6142, !llvm.loop !6154

40:                                               ; preds = %13
  %41 = landingpad { ptr, i32 }
          cleanup, !dbg !6156
  %42 = extractvalue { ptr, i32 } %41, 0, !dbg !6156
  store ptr %42, ptr %5, align 8, !dbg !6156
  %43 = extractvalue { ptr, i32 } %41, 1, !dbg !6156
  store i32 %43, ptr %6, align 4, !dbg !6156
  br label %48, !dbg !6156

44:                                               ; preds = %14
  %45 = landingpad { ptr, i32 }
          cleanup, !dbg !6156
  %46 = extractvalue { ptr, i32 } %45, 0, !dbg !6156
  store ptr %46, ptr %5, align 8, !dbg !6156
  %47 = extractvalue { ptr, i32 } %45, 1, !dbg !6156
  store i32 %47, ptr %6, align 4, !dbg !6156
  call void @_ZNSt7__cxx1112basic_stringIcSt11char_traitsIcESaIcEED1Ev(ptr noundef nonnull align 8 dereferenceable(32) %3) #3, !dbg !6138
  br label %48, !dbg !6138

48:                                               ; preds = %44, %40
  call void @_ZNSaIcED1Ev(ptr noundef nonnull align 1 dereferenceable(1) %4) #3, !dbg !6138
  br label %55, !dbg !6138

49:                                               ; preds = %32, %30, %28, %26, %24, %18, %16
  %50 = landingpad { ptr, i32 }
          cleanup, !dbg !6156
  %51 = extractvalue { ptr, i32 } %50, 0, !dbg !6156
  store ptr %51, ptr %5, align 8, !dbg !6156
  %52 = extractvalue { ptr, i32 } %50, 1, !dbg !6156
  store i32 %52, ptr %6, align 4, !dbg !6156
  call void @_ZNSt7__cxx1112basic_stringIcSt11char_traitsIcESaIcEED1Ev(ptr noundef nonnull align 8 dereferenceable(32) %7) #3, !dbg !6156
  br label %55, !dbg !6156

53:                                               ; preds = %20
  call void @_ZNSt7__cxx1112basic_stringIcSt11char_traitsIcESaIcEED1Ev(ptr noundef nonnull align 8 dereferenceable(32) %7) #3, !dbg !6156
  br label %54, !dbg !6156

54:                                               ; preds = %53, %12
  ret void, !dbg !6156

55:                                               ; preds = %49, %48
  %56 = load ptr, ptr %5, align 8, !dbg !6138
  %57 = load i32, ptr %6, align 4, !dbg !6138
  %58 = insertvalue { ptr, i32 } poison, ptr %56, 0, !dbg !6138
  %59 = insertvalue { ptr, i32 } %58, i32 %57, 1, !dbg !6138
  resume { ptr, i32 } %59, !dbg !6138
}

; Function Attrs: mustprogress noinline nounwind optnone uwtable
define linkonce_odr dso_local noundef i64 @_ZNKSt6vectorINSt7__cxx1112basic_stringIcSt11char_traitsIcESaIcEEESaIS5_EE4sizeEv(ptr noundef nonnull align 8 dereferenceable(24) %0) #8 comdat align 2 !dbg !6157 {
  %2 = alloca ptr, align 8
  store ptr %0, ptr %2, align 8
  call void @llvm.dbg.declare(metadata ptr %2, metadata !6158, metadata !DIExpression()), !dbg !6159
  %3 = load ptr, ptr %2, align 8
  %4 = getelementptr inbounds %"struct.std::_Vector_base", ptr %3, i32 0, i32 0, !dbg !6160
  %5 = getelementptr inbounds %"struct.std::_Vector_base<std::__cxx11::basic_string<char>, std::allocator<std::__cxx11::basic_string<char>>>::_Vector_impl_data", ptr %4, i32 0, i32 1, !dbg !6161
  %6 = load ptr, ptr %5, align 8, !dbg !6161
  %7 = getelementptr inbounds %"struct.std::_Vector_base", ptr %3, i32 0, i32 0, !dbg !6162
  %8 = getelementptr inbounds %"struct.std::_Vector_base<std::__cxx11::basic_string<char>, std::allocator<std::__cxx11::basic_string<char>>>::_Vector_impl_data", ptr %7, i32 0, i32 0, !dbg !6163
  %9 = load ptr, ptr %8, align 8, !dbg !6163
  %10 = ptrtoint ptr %6 to i64, !dbg !6164
  %11 = ptrtoint ptr %9 to i64, !dbg !6164
  %12 = sub i64 %10, %11, !dbg !6164
  %13 = sdiv exact i64 %12, 32, !dbg !6164
  ret i64 %13, !dbg !6165
}

; Function Attrs: mustprogress noinline nounwind optnone uwtable
define linkonce_odr dso_local noundef nonnull align 8 dereferenceable(32) ptr @_ZNSt6vectorINSt7__cxx1112basic_stringIcSt11char_traitsIcESaIcEEESaIS5_EEixEm(ptr noundef nonnull align 8 dereferenceable(24) %0, i64 noundef %1) #8 comdat align 2 !dbg !6166 {
  %3 = alloca ptr, align 8
  %4 = alloca i64, align 8
  store ptr %0, ptr %3, align 8
  call void @llvm.dbg.declare(metadata ptr %3, metadata !6167, metadata !DIExpression()), !dbg !6168
  store i64 %1, ptr %4, align 8
  call void @llvm.dbg.declare(metadata ptr %4, metadata !6169, metadata !DIExpression()), !dbg !6170
  %5 = load ptr, ptr %3, align 8
  %6 = getelementptr inbounds %"struct.std::_Vector_base", ptr %5, i32 0, i32 0, !dbg !6171
  %7 = getelementptr inbounds %"struct.std::_Vector_base<std::__cxx11::basic_string<char>, std::allocator<std::__cxx11::basic_string<char>>>::_Vector_impl_data", ptr %6, i32 0, i32 0, !dbg !6172
  %8 = load ptr, ptr %7, align 8, !dbg !6172
  %9 = load i64, ptr %4, align 8, !dbg !6173
  %10 = getelementptr inbounds %"class.std::__cxx11::basic_string", ptr %8, i64 %9, !dbg !6174
  ret ptr %10, !dbg !6175
}

; Function Attrs: mustprogress noinline optnone uwtable
define dso_local noundef zeroext i1 @_ZN10Quarantine14quarantineFileEP14DocumentBrokerNSt7__cxx1112basic_stringIcSt11char_traitsIcESaIcEEE(ptr noundef %0, ptr noundef %1) #5 personality ptr @__gxx_personality_v0 !dbg !6176 {
  %3 = alloca i1, align 1
  %4 = alloca ptr, align 8
  %5 = alloca %"class.std::__cxx11::basic_string", align 8
  %6 = alloca ptr, align 8
  %7 = alloca i32, align 4
  %8 = alloca %"class.std::__cxx11::basic_string", align 8
  %9 = alloca %"class.std::allocator", align 1
  %10 = alloca %"struct.std::chrono::time_point", align 8
  %11 = alloca %"class.std::__cxx11::basic_string", align 8
  %12 = alloca %"struct.std::chrono::duration.14", align 8
  %13 = alloca %"struct.std::chrono::duration", align 8
  %14 = alloca %"class.std::__cxx11::basic_string", align 8
  %15 = alloca %"class.std::__cxx11::basic_string", align 8
  %16 = alloca %"class.std::__cxx11::basic_string", align 8
  %17 = alloca %"class.std::__cxx11::basic_string", align 8
  %18 = alloca %"class.std::__cxx11::basic_string", align 8
  %19 = alloca %"class.std::__cxx11::basic_string", align 8
  %20 = alloca %"class.std::__cxx11::basic_string", align 8
  %21 = alloca %"class.std::__cxx11::basic_string", align 8
  %22 = alloca %"class.std::__cxx11::basic_string", align 8
  %23 = alloca %"class.std::__cxx11::basic_string", align 8
  %24 = alloca %"class.std::__cxx11::basic_string", align 8
  %25 = alloca %"class.std::__cxx11::basic_string", align 8
  %26 = alloca %"class.FileUtil::Stat", align 8
  %27 = alloca i32, align 4
  %28 = alloca %"class.std::__cxx11::basic_string", align 8
  %29 = alloca ptr, align 8
  %30 = alloca [1024 x i8], align 16
  %31 = alloca %"class.std::__cxx11::basic_ostringstream", align 8
  %32 = alloca %"class.std::__cxx11::basic_string", align 8
  %33 = alloca %"class.std::allocator", align 1
  %34 = alloca %"class.Poco::Message", align 8
  %35 = alloca %"class.std::__cxx11::basic_string", align 8
  %36 = alloca i32, align 4
  %37 = alloca i32, align 4
  %38 = alloca ptr, align 8
  %39 = alloca [1024 x i8], align 16
  %40 = alloca %"class.std::__cxx11::basic_ostringstream", align 8
  %41 = alloca %"class.std::__cxx11::basic_string", align 8
  %42 = alloca %"class.std::allocator", align 1
  %43 = alloca %"class.std::__cxx11::basic_string", align 8
  %44 = alloca %"class.Poco::Message", align 8
  %45 = alloca %"class.std::__cxx11::basic_string", align 8
  store ptr %0, ptr %4, align 8
  call void @llvm.dbg.declare(metadata ptr %4, metadata !6181, metadata !DIExpression()), !dbg !6182
  call void @llvm.dbg.declare(metadata ptr %1, metadata !6183, metadata !DIExpression()), !dbg !6184
  %46 = call noundef zeroext i1 @_ZN10Quarantine19isQuarantineEnabledEv(), !dbg !6185
  br i1 %46, label %48, label %47, !dbg !6187

47:                                               ; preds = %2
  store i1 false, ptr %3, align 1, !dbg !6188
  br label %359, !dbg !6188

48:                                               ; preds = %2
  call void @llvm.dbg.declare(metadata ptr %5, metadata !6189, metadata !DIExpression()), !dbg !6190
  call void @_ZNSt7__cxx1112basic_stringIcSt11char_traitsIcESaIcEEC1Ev(ptr noundef nonnull align 8 dereferenceable(32) %5) #3, !dbg !6190
  %49 = load ptr, ptr %4, align 8, !dbg !6191
  %50 = invoke noundef nonnull align 8 dereferenceable(32) ptr @_ZNK14DocumentBroker9getDocKeyB5cxx11Ev(ptr noundef nonnull align 8 dereferenceable(1088) %49)
          to label %51 unwind label %153, !dbg !6192

51:                                               ; preds = %48
  call void @_ZNSaIcEC1Ev(ptr noundef nonnull align 1 dereferenceable(1) %9) #3, !dbg !6193
  invoke void @_ZNSt7__cxx1112basic_stringIcSt11char_traitsIcESaIcEEC2IS3_EEPKcRKS3_(ptr noundef nonnull align 8 dereferenceable(32) %8, ptr noundef @.str.5, ptr noundef nonnull align 1 dereferenceable(1) %9)
          to label %52 unwind label %157, !dbg !6193

52:                                               ; preds = %51
  invoke void @_ZN4Poco3URI6encodeERKNSt7__cxx1112basic_stringIcSt11char_traitsIcESaIcEEES8_RS6_(ptr noundef nonnull align 8 dereferenceable(32) %50, ptr noundef nonnull align 8 dereferenceable(32) %8, ptr noundef nonnull align 8 dereferenceable(32) %5)
          to label %53 unwind label %161, !dbg !6194

53:                                               ; preds = %52
  call void @_ZNSt7__cxx1112basic_stringIcSt11char_traitsIcESaIcEED1Ev(ptr noundef nonnull align 8 dereferenceable(32) %8) #3, !dbg !6194
  call void @_ZNSaIcED1Ev(ptr noundef nonnull align 1 dereferenceable(1) %9) #3, !dbg !6194
  call void @llvm.dbg.declare(metadata ptr %10, metadata !6195, metadata !DIExpression()), !dbg !6196
  %54 = call i64 @_ZNSt6chrono3_V212system_clock3nowEv() #3, !dbg !6197
  %55 = getelementptr inbounds %"struct.std::chrono::time_point", ptr %10, i32 0, i32 0, !dbg !6197
  %56 = getelementptr inbounds %"struct.std::chrono::duration", ptr %55, i32 0, i32 0, !dbg !6197
  store i64 %54, ptr %56, align 8, !dbg !6197
  call void @llvm.dbg.declare(metadata ptr %11, metadata !6198, metadata !DIExpression()), !dbg !6199
  %57 = invoke i64 @_ZNKSt6chrono10time_pointINS_3_V212system_clockENS_8durationIlSt5ratioILl1ELl1000000000EEEEE16time_since_epochEv(ptr noundef nonnull align 8 dereferenceable(8) %10)
          to label %58 unwind label %153, !dbg !6200

58:                                               ; preds = %53
  %59 = getelementptr inbounds %"struct.std::chrono::duration", ptr %13, i32 0, i32 0, !dbg !6200
  store i64 %57, ptr %59, align 8, !dbg !6200
  %60 = invoke i64 @_ZNSt6chrono13duration_castINS_8durationIlSt5ratioILl1ELl1EEEElS2_ILl1ELl1000000000EEEENSt9enable_ifIXsr13__is_durationIT_EE5valueES7_E4typeERKNS1_IT0_T1_EE(ptr noundef nonnull align 8 dereferenceable(8) %13)
          to label %61 unwind label %153, !dbg !6201

61:                                               ; preds = %58
  %62 = getelementptr inbounds %"struct.std::chrono::duration.14", ptr %12, i32 0, i32 0, !dbg !6201
  store i64 %60, ptr %62, align 8, !dbg !6201
  %63 = invoke noundef i64 @_ZNKSt6chrono8durationIlSt5ratioILl1ELl1EEE5countEv(ptr noundef nonnull align 8 dereferenceable(8) %12)
          to label %64 unwind label %153, !dbg !6202

64:                                               ; preds = %61
  invoke void @_ZNSt7__cxx119to_stringEl(ptr sret(%"class.std::__cxx11::basic_string") align 8 %11, i64 noundef %63)
          to label %65 unwind label %153, !dbg !6203

65:                                               ; preds = %64
  call void @llvm.dbg.declare(metadata ptr %14, metadata !6204, metadata !DIExpression()), !dbg !6205
  invoke void @_ZStplIcSt11char_traitsIcESaIcEENSt7__cxx1112basic_stringIT_T0_T1_EERKS8_PKS5_(ptr sret(%"class.std::__cxx11::basic_string") align 8 %19, ptr noundef nonnull align 8 dereferenceable(32) @_ZN7COOLWSD9ChildRootB5cxx11E, ptr noundef @.str.6)
          to label %66 unwind label %166, !dbg !6206

66:                                               ; preds = %65
  %67 = load ptr, ptr %4, align 8, !dbg !6207
  %68 = invoke noundef nonnull align 8 dereferenceable(32) ptr @_ZNK14DocumentBroker9getJailIdB5cxx11Ev(ptr noundef nonnull align 8 dereferenceable(1088) %67)
          to label %69 unwind label %170, !dbg !6208

69:                                               ; preds = %66
  invoke void @_ZStplIcSt11char_traitsIcESaIcEENSt7__cxx1112basic_stringIT_T0_T1_EEOS8_RKS8_(ptr sret(%"class.std::__cxx11::basic_string") align 8 %18, ptr noundef nonnull align 8 dereferenceable(32) %19, ptr noundef nonnull align 8 dereferenceable(32) %68)
          to label %70 unwind label %170, !dbg !6209

70:                                               ; preds = %69
  invoke void @_ZStplIcSt11char_traitsIcESaIcEENSt7__cxx1112basic_stringIT_T0_T1_EEOS8_PKS5_(ptr sret(%"class.std::__cxx11::basic_string") align 8 %17, ptr noundef nonnull align 8 dereferenceable(32) %18, ptr noundef @.str.7)
          to label %71 unwind label %174, !dbg !6210

71:                                               ; preds = %70
  %72 = load ptr, ptr %4, align 8, !dbg !6211
  %73 = invoke noundef nonnull align 8 dereferenceable(32) ptr @_ZNK14DocumentBroker9getJailIdB5cxx11Ev(ptr noundef nonnull align 8 dereferenceable(1088) %72)
          to label %74 unwind label %178, !dbg !6212

74:                                               ; preds = %71
  invoke void @_ZStplIcSt11char_traitsIcESaIcEENSt7__cxx1112basic_stringIT_T0_T1_EEOS8_RKS8_(ptr sret(%"class.std::__cxx11::basic_string") align 8 %16, ptr noundef nonnull align 8 dereferenceable(32) %17, ptr noundef nonnull align 8 dereferenceable(32) %73)
          to label %75 unwind label %178, !dbg !6213

75:                                               ; preds = %74
  invoke void @_ZStplIcSt11char_traitsIcESaIcEENSt7__cxx1112basic_stringIT_T0_T1_EEOS8_PKS5_(ptr sret(%"class.std::__cxx11::basic_string") align 8 %15, ptr noundef nonnull align 8 dereferenceable(32) %16, ptr noundef @.str.8)
          to label %76 unwind label %182, !dbg !6214

76:                                               ; preds = %75
  invoke void @_ZStplIcSt11char_traitsIcESaIcEENSt7__cxx1112basic_stringIT_T0_T1_EEOS8_RKS8_(ptr sret(%"class.std::__cxx11::basic_string") align 8 %14, ptr noundef nonnull align 8 dereferenceable(32) %15, ptr noundef nonnull align 8 dereferenceable(32) %1)
          to label %77 unwind label %186, !dbg !6215

77:                                               ; preds = %76
  call void @_ZNSt7__cxx1112basic_stringIcSt11char_traitsIcESaIcEED1Ev(ptr noundef nonnull align 8 dereferenceable(32) %15) #3, !dbg !6216
  call void @_ZNSt7__cxx1112basic_stringIcSt11char_traitsIcESaIcEED1Ev(ptr noundef nonnull align 8 dereferenceable(32) %16) #3, !dbg !6216
  call void @_ZNSt7__cxx1112basic_stringIcSt11char_traitsIcESaIcEED1Ev(ptr noundef nonnull align 8 dereferenceable(32) %17) #3, !dbg !6216
  call void @_ZNSt7__cxx1112basic_stringIcSt11char_traitsIcESaIcEED1Ev(ptr noundef nonnull align 8 dereferenceable(32) %18) #3, !dbg !6216
  call void @_ZNSt7__cxx1112basic_stringIcSt11char_traitsIcESaIcEED1Ev(ptr noundef nonnull align 8 dereferenceable(32) %19) #3, !dbg !6216
  call void @llvm.dbg.declare(metadata ptr %20, metadata !6217, metadata !DIExpression()), !dbg !6218
  invoke void @_ZStplIcSt11char_traitsIcESaIcEENSt7__cxx1112basic_stringIT_T0_T1_EERKS8_PKS5_(ptr sret(%"class.std::__cxx11::basic_string") align 8 %23, ptr noundef nonnull align 8 dereferenceable(32) %11, ptr noundef @.str.9)
          to label %78 unwind label %194, !dbg !6219

78:                                               ; preds = %77
  %79 = load ptr, ptr %4, align 8, !dbg !6220
  %80 = invoke noundef i32 @_ZNK14DocumentBroker6getPidEv(ptr noundef nonnull align 8 dereferenceable(1088) %79)
          to label %81 unwind label %198, !dbg !6221

81:                                               ; preds = %78
  invoke void @_ZNSt7__cxx119to_stringEi(ptr sret(%"class.std::__cxx11::basic_string") align 8 %24, i32 noundef %80)
          to label %82 unwind label %198, !dbg !6222

82:                                               ; preds = %81
  invoke void @_ZStplIcSt11char_traitsIcESaIcEENSt7__cxx1112basic_stringIT_T0_T1_EEOS8_S9_(ptr sret(%"class.std::__cxx11::basic_string") align 8 %22, ptr noundef nonnull align 8 dereferenceable(32) %23, ptr noundef nonnull align 8 dereferenceable(32) %24)
          to label %83 unwind label %202, !dbg !6223

83:                                               ; preds = %82
  invoke void @_ZStplIcSt11char_traitsIcESaIcEENSt7__cxx1112basic_stringIT_T0_T1_EEOS8_PKS5_(ptr sret(%"class.std::__cxx11::basic_string") align 8 %21, ptr noundef nonnull align 8 dereferenceable(32) %22, ptr noundef @.str.9)
          to label %84 unwind label %206, !dbg !6224

84:                                               ; preds = %83
  invoke void @_ZStplIcSt11char_traitsIcESaIcEENSt7__cxx1112basic_stringIT_T0_T1_EEOS8_RKS8_(ptr sret(%"class.std::__cxx11::basic_string") align 8 %20, ptr noundef nonnull align 8 dereferenceable(32) %21, ptr noundef nonnull align 8 dereferenceable(32) %5)
          to label %85 unwind label %210, !dbg !6225

85:                                               ; preds = %84
  call void @_ZNSt7__cxx1112basic_stringIcSt11char_traitsIcESaIcEED1Ev(ptr noundef nonnull align 8 dereferenceable(32) %21) #3, !dbg !6226
  call void @_ZNSt7__cxx1112basic_stringIcSt11char_traitsIcESaIcEED1Ev(ptr noundef nonnull align 8 dereferenceable(32) %22) #3, !dbg !6226
  call void @_ZNSt7__cxx1112basic_stringIcSt11char_traitsIcESaIcEED1Ev(ptr noundef nonnull align 8 dereferenceable(32) %24) #3, !dbg !6226
  call void @_ZNSt7__cxx1112basic_stringIcSt11char_traitsIcESaIcEED1Ev(ptr noundef nonnull align 8 dereferenceable(32) %23) #3, !dbg !6226
  call void @llvm.dbg.declare(metadata ptr %25, metadata !6227, metadata !DIExpression()), !dbg !6228
  invoke void @_ZStplIcSt11char_traitsIcESaIcEENSt7__cxx1112basic_stringIT_T0_T1_EERKS8_SA_(ptr sret(%"class.std::__cxx11::basic_string") align 8 %25, ptr noundef nonnull align 8 dereferenceable(32) @_ZN7COOLWSD14QuarantinePathB5cxx11E, ptr noundef nonnull align 8 dereferenceable(32) %20)
          to label %86 unwind label %217, !dbg !6229

86:                                               ; preds = %85
  call void @llvm.dbg.declare(metadata ptr %26, metadata !6230, metadata !DIExpression()), !dbg !6231
  invoke void @_ZN8FileUtil4StatC2ERKNSt7__cxx1112basic_stringIcSt11char_traitsIcESaIcEEEb(ptr noundef nonnull align 8 dereferenceable(184) %26, ptr noundef nonnull align 8 dereferenceable(32) %25, i1 noundef zeroext false)
          to label %87 unwind label %221, !dbg !6231

87:                                               ; preds = %86
  invoke void @_ZN10Quarantine19makeQuarantineSpaceEv()
          to label %88 unwind label %225, !dbg !6232

88:                                               ; preds = %87
  call void @llvm.dbg.declare(metadata ptr %27, metadata !6233, metadata !DIExpression()), !dbg !6234
  %89 = call noundef ptr @_ZNKSt7__cxx1112basic_stringIcSt11char_traitsIcESaIcEE5c_strEv(ptr noundef nonnull align 8 dereferenceable(32) %14) #3, !dbg !6235
  %90 = call noundef ptr @_ZNKSt7__cxx1112basic_stringIcSt11char_traitsIcESaIcEE5c_strEv(ptr noundef nonnull align 8 dereferenceable(32) %25) #3, !dbg !6236
  %91 = call i32 @link(ptr noundef %89, ptr noundef %90) #3, !dbg !6237
  store i32 %91, ptr %27, align 4, !dbg !6234
  %92 = load i32, ptr %27, align 4, !dbg !6238
  %93 = icmp eq i32 %92, 0, !dbg !6240
  br i1 %93, label %94, label %259, !dbg !6241

94:                                               ; preds = %88
  %95 = load ptr, ptr %4, align 8, !dbg !6242
  %96 = invoke noundef nonnull align 8 dereferenceable(32) ptr @_ZNK14DocumentBroker9getDocKeyB5cxx11Ev(ptr noundef nonnull align 8 dereferenceable(1088) %95)
          to label %97 unwind label %225, !dbg !6244

97:                                               ; preds = %94
  %98 = invoke noundef nonnull align 8 dereferenceable(24) ptr @_ZNSt13unordered_mapINSt7__cxx1112basic_stringIcSt11char_traitsIcESaIcEEESt6vectorIS5_SaIS5_EESt4hashIS5_ESt8equal_toIS5_ESaISt4pairIKS5_S8_EEEixERSE_(ptr noundef nonnull align 8 dereferenceable(56) @_ZN7COOLWSD13QuarantineMapB5cxx11E, ptr noundef nonnull align 8 dereferenceable(32) %96)
          to label %99 unwind label %225, !dbg !6245

99:                                               ; preds = %97
  %100 = invoke noundef nonnull align 8 dereferenceable(32) ptr @_ZNSt6vectorINSt7__cxx1112basic_stringIcSt11char_traitsIcESaIcEEESaIS5_EE12emplace_backIJRS5_EEES9_DpOT_(ptr noundef nonnull align 8 dereferenceable(24) %98, ptr noundef nonnull align 8 dereferenceable(32) %25)
          to label %101 unwind label %225, !dbg !6246

101:                                              ; preds = %99
  invoke void @_ZNSt7__cxx1112basic_stringIcSt11char_traitsIcESaIcEEC1ERKS4_(ptr noundef nonnull align 8 dereferenceable(32) %28, ptr noundef nonnull align 8 dereferenceable(32) %5)
          to label %102 unwind label %225, !dbg !6247

102:                                              ; preds = %101
  invoke void @_ZN10Quarantine26clearOldQuarantineVersionsENSt7__cxx1112basic_stringIcSt11char_traitsIcESaIcEEE(ptr noundef %28)
          to label %103 unwind label %229, !dbg !6248

103:                                              ; preds = %102
  call void @_ZNSt7__cxx1112basic_stringIcSt11char_traitsIcESaIcEED1Ev(ptr noundef nonnull align 8 dereferenceable(32) %28) #3, !dbg !6248
  invoke void @_ZN10Quarantine19makeQuarantineSpaceEv()
          to label %104 unwind label %225, !dbg !6249

104:                                              ; preds = %103
  br label %105, !dbg !6250

105:                                              ; preds = %104
  call void @llvm.dbg.declare(metadata ptr %29, metadata !6251, metadata !DIExpression()), !dbg !6256
  %106 = invoke noundef nonnull align 8 dereferenceable(68) ptr @_ZN3Log6loggerEv()
          to label %107 unwind label %225, !dbg !6256

107:                                              ; preds = %105
  store ptr %106, ptr %29, align 8, !dbg !6256
  %108 = invoke noundef zeroext i1 @_ZN3Log16isShutdownCalledEv()
          to label %109 unwind label %225, !dbg !6257

109:                                              ; preds = %107
  br i1 %108, label %256, label %110, !dbg !6257

110:                                              ; preds = %109
  %111 = load ptr, ptr %29, align 8, !dbg !6257
  %112 = invoke noundef zeroext i1 @_ZNK4Poco6Logger11informationEv(ptr noundef nonnull align 8 dereferenceable(68) %111)
          to label %113 unwind label %225, !dbg !6257

113:                                              ; preds = %110
  br i1 %112, label %114, label %256, !dbg !6256

114:                                              ; preds = %113
  call void @llvm.dbg.declare(metadata ptr %30, metadata !6259, metadata !DIExpression()), !dbg !6264
  call void @llvm.dbg.declare(metadata ptr %31, metadata !6265, metadata !DIExpression()), !dbg !6264
  %115 = getelementptr inbounds [1024 x i8], ptr %30, i64 0, i64 0, !dbg !6264
  %116 = invoke noundef ptr @_ZN3Log6prefixILi1023EEEPcS1_PKc(ptr noundef %115, ptr noundef @.str.10)
          to label %117 unwind label %225, !dbg !6264

117:                                              ; preds = %114
  call void @_ZNSaIcEC1Ev(ptr noundef nonnull align 1 dereferenceable(1) %33) #3, !dbg !6264
  invoke void @_ZNSt7__cxx1112basic_stringIcSt11char_traitsIcESaIcEEC2IS3_EEPKcRKS3_(ptr noundef nonnull align 8 dereferenceable(32) %32, ptr noundef %116, ptr noundef nonnull align 1 dereferenceable(1) %33)
          to label %118 unwind label %233, !dbg !6264

118:                                              ; preds = %117
  invoke void @_ZNSt7__cxx1119basic_ostringstreamIcSt11char_traitsIcESaIcEEC1ERKNS_12basic_stringIcS2_S3_EESt13_Ios_Openmode(ptr noundef nonnull align 8 dereferenceable(112) %31, ptr noundef nonnull align 8 dereferenceable(32) %32, i32 noundef 2)
          to label %119 unwind label %237, !dbg !6264

119:                                              ; preds = %118
  call void @_ZNSt7__cxx1112basic_stringIcSt11char_traitsIcESaIcEED1Ev(ptr noundef nonnull align 8 dereferenceable(32) %32) #3, !dbg !6264
  call void @_ZNSaIcED1Ev(ptr noundef nonnull align 1 dereferenceable(1) %33) #3, !dbg !6264
  %120 = invoke noundef nonnull align 8 dereferenceable(8) ptr @_ZNSolsEPFRSt8ios_baseS0_E(ptr noundef nonnull align 8 dereferenceable(8) %31, ptr noundef @_ZSt9boolalphaRSt8ios_base)
          to label %121 unwind label %242, !dbg !6264

121:                                              ; preds = %119
  %122 = invoke noundef nonnull align 8 dereferenceable(8) ptr @_ZStlsISt11char_traitsIcEERSt13basic_ostreamIcT_ES5_PKc(ptr noundef nonnull align 8 dereferenceable(8) %120, ptr noundef @.str.11)
          to label %123 unwind label %242, !dbg !6264

123:                                              ; preds = %121
  %124 = invoke noundef nonnull align 8 dereferenceable(8) ptr @_ZStlsIcSt11char_traitsIcESaIcEERSt13basic_ostreamIT_T0_ES7_RKNSt7__cxx1112basic_stringIS4_S5_T1_EE(ptr noundef nonnull align 8 dereferenceable(8) %122, ptr noundef nonnull align 8 dereferenceable(32) %14)
          to label %125 unwind label %242, !dbg !6264

125:                                              ; preds = %123
  %126 = invoke noundef nonnull align 8 dereferenceable(8) ptr @_ZStlsISt11char_traitsIcEERSt13basic_ostreamIcT_ES5_PKc(ptr noundef nonnull align 8 dereferenceable(8) %124, ptr noundef @.str.12)
          to label %127 unwind label %242, !dbg !6264

127:                                              ; preds = %125
  %128 = invoke noundef nonnull align 8 dereferenceable(8) ptr @_ZStlsIcSt11char_traitsIcESaIcEERSt13basic_ostreamIT_T0_ES7_RKNSt7__cxx1112basic_stringIS4_S5_T1_EE(ptr noundef nonnull align 8 dereferenceable(8) %126, ptr noundef nonnull align 8 dereferenceable(32) %25)
          to label %129 unwind label %242, !dbg !6264

129:                                              ; preds = %127
  br label %130, !dbg !6264

130:                                              ; preds = %129
  %131 = invoke noundef nonnull align 8 dereferenceable(8) ptr @_ZStlsISt11char_traitsIcEERSt13basic_ostreamIcT_ES5_PKc(ptr noundef nonnull align 8 dereferenceable(8) %31, ptr noundef @.str.13)
          to label %132 unwind label %242, !dbg !6270

132:                                              ; preds = %130
  %133 = invoke noundef nonnull align 8 dereferenceable(8) ptr @_ZStlsISt11char_traitsIcEERSt13basic_ostreamIcT_ES5_PKc(ptr noundef nonnull align 8 dereferenceable(8) %131, ptr noundef @.str.14)
          to label %134 unwind label %242, !dbg !6270

134:                                              ; preds = %132
  %135 = invoke noundef nonnull align 8 dereferenceable(8) ptr @_ZStlsISt11char_traitsIcEERSt13basic_ostreamIcT_ES5_c(ptr noundef nonnull align 8 dereferenceable(8) %133, i8 noundef signext 58)
          to label %136 unwind label %242, !dbg !6270

136:                                              ; preds = %134
  %137 = invoke noundef nonnull align 8 dereferenceable(8) ptr @_ZNSolsEi(ptr noundef nonnull align 8 dereferenceable(8) %135, i32 noundef 160)
          to label %138 unwind label %242, !dbg !6270

138:                                              ; preds = %136
  %139 = invoke noundef nonnull align 8 dereferenceable(8) ptr @_ZNSo5flushEv(ptr noundef nonnull align 8 dereferenceable(8) %31)
          to label %140 unwind label %242, !dbg !6273

140:                                              ; preds = %138
  br label %141, !dbg !6273

141:                                              ; preds = %140
  br label %142, !dbg !6273

142:                                              ; preds = %141
  %143 = load ptr, ptr %29, align 8, !dbg !6264
  %144 = load ptr, ptr %29, align 8, !dbg !6264
  %145 = invoke noundef nonnull align 8 dereferenceable(32) ptr @_ZNK4Poco6Logger4nameB5cxx11Ev(ptr noundef nonnull align 8 dereferenceable(68) %144)
          to label %146 unwind label %242, !dbg !6264

146:                                              ; preds = %142
  invoke void @_ZNKSt7__cxx1119basic_ostringstreamIcSt11char_traitsIcESaIcEE3strEv(ptr sret(%"class.std::__cxx11::basic_string") align 8 %35, ptr noundef nonnull align 8 dereferenceable(112) %31)
          to label %147 unwind label %242, !dbg !6264

147:                                              ; preds = %146
  invoke void @_ZN4Poco7MessageC1ERKNSt7__cxx1112basic_stringIcSt11char_traitsIcESaIcEEES8_NS0_8PriorityE(ptr noundef nonnull align 8 dereferenceable(152) %34, ptr noundef nonnull align 8 dereferenceable(32) %145, ptr noundef nonnull align 8 dereferenceable(32) %35, i32 noundef 6)
          to label %148 unwind label %246, !dbg !6264

148:                                              ; preds = %147
  %149 = load ptr, ptr %143, align 8, !dbg !6264
  %150 = getelementptr inbounds ptr, ptr %149, i64 6, !dbg !6264
  %151 = load ptr, ptr %150, align 8, !dbg !6264
  invoke void %151(ptr noundef nonnull align 8 dereferenceable(68) %143, ptr noundef nonnull align 8 dereferenceable(152) %34)
          to label %152 unwind label %250, !dbg !6264

152:                                              ; preds = %148
  call void @_ZN4Poco7MessageD1Ev(ptr noundef nonnull align 8 dereferenceable(152) %34) #3, !dbg !6264
  call void @_ZNSt7__cxx1112basic_stringIcSt11char_traitsIcESaIcEED1Ev(ptr noundef nonnull align 8 dereferenceable(32) %35) #3, !dbg !6264
  call void @_ZNSt7__cxx1119basic_ostringstreamIcSt11char_traitsIcESaIcEED1Ev(ptr noundef nonnull align 8 dereferenceable(112) %31) #3, !dbg !6257
  br label %256, !dbg !6264

153:                                              ; preds = %64, %61, %58, %53, %48
  %154 = landingpad { ptr, i32 }
          cleanup, !dbg !6274
  %155 = extractvalue { ptr, i32 } %154, 0, !dbg !6274
  store ptr %155, ptr %6, align 8, !dbg !6274
  %156 = extractvalue { ptr, i32 } %154, 1, !dbg !6274
  store i32 %156, ptr %7, align 4, !dbg !6274
  br label %358, !dbg !6274

157:                                              ; preds = %51
  %158 = landingpad { ptr, i32 }
          cleanup, !dbg !6274
  %159 = extractvalue { ptr, i32 } %158, 0, !dbg !6274
  store ptr %159, ptr %6, align 8, !dbg !6274
  %160 = extractvalue { ptr, i32 } %158, 1, !dbg !6274
  store i32 %160, ptr %7, align 4, !dbg !6274
  br label %165, !dbg !6274

161:                                              ; preds = %52
  %162 = landingpad { ptr, i32 }
          cleanup, !dbg !6274
  %163 = extractvalue { ptr, i32 } %162, 0, !dbg !6274
  store ptr %163, ptr %6, align 8, !dbg !6274
  %164 = extractvalue { ptr, i32 } %162, 1, !dbg !6274
  store i32 %164, ptr %7, align 4, !dbg !6274
  call void @_ZNSt7__cxx1112basic_stringIcSt11char_traitsIcESaIcEED1Ev(ptr noundef nonnull align 8 dereferenceable(32) %8) #3, !dbg !6194
  br label %165, !dbg !6194

165:                                              ; preds = %161, %157
  call void @_ZNSaIcED1Ev(ptr noundef nonnull align 1 dereferenceable(1) %9) #3, !dbg !6194
  br label %358, !dbg !6194

166:                                              ; preds = %65
  %167 = landingpad { ptr, i32 }
          cleanup, !dbg !6274
  %168 = extractvalue { ptr, i32 } %167, 0, !dbg !6274
  store ptr %168, ptr %6, align 8, !dbg !6274
  %169 = extractvalue { ptr, i32 } %167, 1, !dbg !6274
  store i32 %169, ptr %7, align 4, !dbg !6274
  br label %357, !dbg !6274

170:                                              ; preds = %69, %66
  %171 = landingpad { ptr, i32 }
          cleanup, !dbg !6274
  %172 = extractvalue { ptr, i32 } %171, 0, !dbg !6274
  store ptr %172, ptr %6, align 8, !dbg !6274
  %173 = extractvalue { ptr, i32 } %171, 1, !dbg !6274
  store i32 %173, ptr %7, align 4, !dbg !6274
  br label %193, !dbg !6274

174:                                              ; preds = %70
  %175 = landingpad { ptr, i32 }
          cleanup, !dbg !6274
  %176 = extractvalue { ptr, i32 } %175, 0, !dbg !6274
  store ptr %176, ptr %6, align 8, !dbg !6274
  %177 = extractvalue { ptr, i32 } %175, 1, !dbg !6274
  store i32 %177, ptr %7, align 4, !dbg !6274
  br label %192, !dbg !6274

178:                                              ; preds = %74, %71
  %179 = landingpad { ptr, i32 }
          cleanup, !dbg !6274
  %180 = extractvalue { ptr, i32 } %179, 0, !dbg !6274
  store ptr %180, ptr %6, align 8, !dbg !6274
  %181 = extractvalue { ptr, i32 } %179, 1, !dbg !6274
  store i32 %181, ptr %7, align 4, !dbg !6274
  br label %191, !dbg !6274

182:                                              ; preds = %75
  %183 = landingpad { ptr, i32 }
          cleanup, !dbg !6274
  %184 = extractvalue { ptr, i32 } %183, 0, !dbg !6274
  store ptr %184, ptr %6, align 8, !dbg !6274
  %185 = extractvalue { ptr, i32 } %183, 1, !dbg !6274
  store i32 %185, ptr %7, align 4, !dbg !6274
  br label %190, !dbg !6274

186:                                              ; preds = %76
  %187 = landingpad { ptr, i32 }
          cleanup, !dbg !6274
  %188 = extractvalue { ptr, i32 } %187, 0, !dbg !6274
  store ptr %188, ptr %6, align 8, !dbg !6274
  %189 = extractvalue { ptr, i32 } %187, 1, !dbg !6274
  store i32 %189, ptr %7, align 4, !dbg !6274
  call void @_ZNSt7__cxx1112basic_stringIcSt11char_traitsIcESaIcEED1Ev(ptr noundef nonnull align 8 dereferenceable(32) %15) #3, !dbg !6216
  br label %190, !dbg !6216

190:                                              ; preds = %186, %182
  call void @_ZNSt7__cxx1112basic_stringIcSt11char_traitsIcESaIcEED1Ev(ptr noundef nonnull align 8 dereferenceable(32) %16) #3, !dbg !6216
  br label %191, !dbg !6216

191:                                              ; preds = %190, %178
  call void @_ZNSt7__cxx1112basic_stringIcSt11char_traitsIcESaIcEED1Ev(ptr noundef nonnull align 8 dereferenceable(32) %17) #3, !dbg !6216
  br label %192, !dbg !6216

192:                                              ; preds = %191, %174
  call void @_ZNSt7__cxx1112basic_stringIcSt11char_traitsIcESaIcEED1Ev(ptr noundef nonnull align 8 dereferenceable(32) %18) #3, !dbg !6216
  br label %193, !dbg !6216

193:                                              ; preds = %192, %170
  call void @_ZNSt7__cxx1112basic_stringIcSt11char_traitsIcESaIcEED1Ev(ptr noundef nonnull align 8 dereferenceable(32) %19) #3, !dbg !6216
  br label %357, !dbg !6216

194:                                              ; preds = %77
  %195 = landingpad { ptr, i32 }
          cleanup, !dbg !6274
  %196 = extractvalue { ptr, i32 } %195, 0, !dbg !6274
  store ptr %196, ptr %6, align 8, !dbg !6274
  %197 = extractvalue { ptr, i32 } %195, 1, !dbg !6274
  store i32 %197, ptr %7, align 4, !dbg !6274
  br label %356, !dbg !6274

198:                                              ; preds = %81, %78
  %199 = landingpad { ptr, i32 }
          cleanup, !dbg !6274
  %200 = extractvalue { ptr, i32 } %199, 0, !dbg !6274
  store ptr %200, ptr %6, align 8, !dbg !6274
  %201 = extractvalue { ptr, i32 } %199, 1, !dbg !6274
  store i32 %201, ptr %7, align 4, !dbg !6274
  br label %216, !dbg !6274

202:                                              ; preds = %82
  %203 = landingpad { ptr, i32 }
          cleanup, !dbg !6274
  %204 = extractvalue { ptr, i32 } %203, 0, !dbg !6274
  store ptr %204, ptr %6, align 8, !dbg !6274
  %205 = extractvalue { ptr, i32 } %203, 1, !dbg !6274
  store i32 %205, ptr %7, align 4, !dbg !6274
  br label %215, !dbg !6274

206:                                              ; preds = %83
  %207 = landingpad { ptr, i32 }
          cleanup, !dbg !6274
  %208 = extractvalue { ptr, i32 } %207, 0, !dbg !6274
  store ptr %208, ptr %6, align 8, !dbg !6274
  %209 = extractvalue { ptr, i32 } %207, 1, !dbg !6274
  store i32 %209, ptr %7, align 4, !dbg !6274
  br label %214, !dbg !6274

210:                                              ; preds = %84
  %211 = landingpad { ptr, i32 }
          cleanup, !dbg !6274
  %212 = extractvalue { ptr, i32 } %211, 0, !dbg !6274
  store ptr %212, ptr %6, align 8, !dbg !6274
  %213 = extractvalue { ptr, i32 } %211, 1, !dbg !6274
  store i32 %213, ptr %7, align 4, !dbg !6274
  call void @_ZNSt7__cxx1112basic_stringIcSt11char_traitsIcESaIcEED1Ev(ptr noundef nonnull align 8 dereferenceable(32) %21) #3, !dbg !6226
  br label %214, !dbg !6226

214:                                              ; preds = %210, %206
  call void @_ZNSt7__cxx1112basic_stringIcSt11char_traitsIcESaIcEED1Ev(ptr noundef nonnull align 8 dereferenceable(32) %22) #3, !dbg !6226
  br label %215, !dbg !6226

215:                                              ; preds = %214, %202
  call void @_ZNSt7__cxx1112basic_stringIcSt11char_traitsIcESaIcEED1Ev(ptr noundef nonnull align 8 dereferenceable(32) %24) #3, !dbg !6226
  br label %216, !dbg !6226

216:                                              ; preds = %215, %198
  call void @_ZNSt7__cxx1112basic_stringIcSt11char_traitsIcESaIcEED1Ev(ptr noundef nonnull align 8 dereferenceable(32) %23) #3, !dbg !6226
  br label %356, !dbg !6226

217:                                              ; preds = %85
  %218 = landingpad { ptr, i32 }
          cleanup, !dbg !6274
  %219 = extractvalue { ptr, i32 } %218, 0, !dbg !6274
  store ptr %219, ptr %6, align 8, !dbg !6274
  %220 = extractvalue { ptr, i32 } %218, 1, !dbg !6274
  store i32 %220, ptr %7, align 4, !dbg !6274
  br label %355, !dbg !6274

221:                                              ; preds = %86
  %222 = landingpad { ptr, i32 }
          cleanup, !dbg !6274
  %223 = extractvalue { ptr, i32 } %222, 0, !dbg !6274
  store ptr %223, ptr %6, align 8, !dbg !6274
  %224 = extractvalue { ptr, i32 } %222, 1, !dbg !6274
  store i32 %224, ptr %7, align 4, !dbg !6274
  br label %354, !dbg !6274

225:                                              ; preds = %271, %267, %264, %262, %114, %110, %107, %105, %103, %101, %99, %97, %94, %87
  %226 = landingpad { ptr, i32 }
          cleanup, !dbg !6274
  %227 = extractvalue { ptr, i32 } %226, 0, !dbg !6274
  store ptr %227, ptr %6, align 8, !dbg !6274
  %228 = extractvalue { ptr, i32 } %226, 1, !dbg !6274
  store i32 %228, ptr %7, align 4, !dbg !6274
  br label %353, !dbg !6274

229:                                              ; preds = %102
  %230 = landingpad { ptr, i32 }
          cleanup, !dbg !6275
  %231 = extractvalue { ptr, i32 } %230, 0, !dbg !6275
  store ptr %231, ptr %6, align 8, !dbg !6275
  %232 = extractvalue { ptr, i32 } %230, 1, !dbg !6275
  store i32 %232, ptr %7, align 4, !dbg !6275
  call void @_ZNSt7__cxx1112basic_stringIcSt11char_traitsIcESaIcEED1Ev(ptr noundef nonnull align 8 dereferenceable(32) %28) #3, !dbg !6248
  br label %353, !dbg !6248

233:                                              ; preds = %117
  %234 = landingpad { ptr, i32 }
          cleanup, !dbg !6276
  %235 = extractvalue { ptr, i32 } %234, 0, !dbg !6276
  store ptr %235, ptr %6, align 8, !dbg !6276
  %236 = extractvalue { ptr, i32 } %234, 1, !dbg !6276
  store i32 %236, ptr %7, align 4, !dbg !6276
  br label %241, !dbg !6276

237:                                              ; preds = %118
  %238 = landingpad { ptr, i32 }
          cleanup, !dbg !6276
  %239 = extractvalue { ptr, i32 } %238, 0, !dbg !6276
  store ptr %239, ptr %6, align 8, !dbg !6276
  %240 = extractvalue { ptr, i32 } %238, 1, !dbg !6276
  store i32 %240, ptr %7, align 4, !dbg !6276
  call void @_ZNSt7__cxx1112basic_stringIcSt11char_traitsIcESaIcEED1Ev(ptr noundef nonnull align 8 dereferenceable(32) %32) #3, !dbg !6264
  br label %241, !dbg !6264

241:                                              ; preds = %237, %233
  call void @_ZNSaIcED1Ev(ptr noundef nonnull align 1 dereferenceable(1) %33) #3, !dbg !6264
  br label %353, !dbg !6264

242:                                              ; preds = %146, %142, %138, %136, %134, %132, %130, %127, %125, %123, %121, %119
  %243 = landingpad { ptr, i32 }
          cleanup, !dbg !6276
  %244 = extractvalue { ptr, i32 } %243, 0, !dbg !6276
  store ptr %244, ptr %6, align 8, !dbg !6276
  %245 = extractvalue { ptr, i32 } %243, 1, !dbg !6276
  store i32 %245, ptr %7, align 4, !dbg !6276
  br label %255, !dbg !6276

246:                                              ; preds = %147
  %247 = landingpad { ptr, i32 }
          cleanup, !dbg !6276
  %248 = extractvalue { ptr, i32 } %247, 0, !dbg !6276
  store ptr %248, ptr %6, align 8, !dbg !6276
  %249 = extractvalue { ptr, i32 } %247, 1, !dbg !6276
  store i32 %249, ptr %7, align 4, !dbg !6276
  br label %254, !dbg !6276

250:                                              ; preds = %148
  %251 = landingpad { ptr, i32 }
          cleanup, !dbg !6276
  %252 = extractvalue { ptr, i32 } %251, 0, !dbg !6276
  store ptr %252, ptr %6, align 8, !dbg !6276
  %253 = extractvalue { ptr, i32 } %251, 1, !dbg !6276
  store i32 %253, ptr %7, align 4, !dbg !6276
  call void @_ZN4Poco7MessageD1Ev(ptr noundef nonnull align 8 dereferenceable(152) %34) #3, !dbg !6264
  br label %254, !dbg !6264

254:                                              ; preds = %250, %246
  call void @_ZNSt7__cxx1112basic_stringIcSt11char_traitsIcESaIcEED1Ev(ptr noundef nonnull align 8 dereferenceable(32) %35) #3, !dbg !6264
  br label %255, !dbg !6264

255:                                              ; preds = %254, %242
  call void @_ZNSt7__cxx1119basic_ostringstreamIcSt11char_traitsIcESaIcEED1Ev(ptr noundef nonnull align 8 dereferenceable(112) %31) #3, !dbg !6257
  br label %353, !dbg !6257

256:                                              ; preds = %152, %113, %109
  br label %257, !dbg !6256

257:                                              ; preds = %256
  br label %258, !dbg !6256

258:                                              ; preds = %257
  store i1 true, ptr %3, align 1, !dbg !6277
  store i32 1, ptr %36, align 4
  br label %352, !dbg !6277

259:                                              ; preds = %88
  call void @llvm.dbg.declare(metadata ptr %37, metadata !6278, metadata !DIExpression()), !dbg !6280
  %260 = call ptr @__errno_location() #19, !dbg !6281
  %261 = load i32, ptr %260, align 4, !dbg !6281
  store i32 %261, ptr %37, align 4, !dbg !6280
  br label %262, !dbg !6282

262:                                              ; preds = %259
  call void @llvm.dbg.declare(metadata ptr %38, metadata !6283, metadata !DIExpression()), !dbg !6285
  %263 = invoke noundef nonnull align 8 dereferenceable(68) ptr @_ZN3Log6loggerEv()
          to label %264 unwind label %225, !dbg !6285

264:                                              ; preds = %262
  store ptr %263, ptr %38, align 8, !dbg !6285
  %265 = invoke noundef zeroext i1 @_ZN3Log16isShutdownCalledEv()
          to label %266 unwind label %225, !dbg !6286

266:                                              ; preds = %264
  br i1 %265, label %349, label %267, !dbg !6286

267:                                              ; preds = %266
  %268 = load ptr, ptr %38, align 8, !dbg !6286
  %269 = invoke noundef zeroext i1 @_ZNK4Poco6Logger5errorEv(ptr noundef nonnull align 8 dereferenceable(68) %268)
          to label %270 unwind label %225, !dbg !6286

270:                                              ; preds = %267
  br i1 %269, label %271, label %349, !dbg !6285

271:                                              ; preds = %270
  call void @llvm.dbg.declare(metadata ptr %39, metadata !6288, metadata !DIExpression()), !dbg !6290
  call void @llvm.dbg.declare(metadata ptr %40, metadata !6291, metadata !DIExpression()), !dbg !6290
  %272 = getelementptr inbounds [1024 x i8], ptr %39, i64 0, i64 0, !dbg !6290
  %273 = invoke noundef ptr @_ZN3Log6prefixILi1023EEEPcS1_PKc(ptr noundef %272, ptr noundef @.str.15)
          to label %274 unwind label %225, !dbg !6290

274:                                              ; preds = %271
  call void @_ZNSaIcEC1Ev(ptr noundef nonnull align 1 dereferenceable(1) %42) #3, !dbg !6290
  invoke void @_ZNSt7__cxx1112basic_stringIcSt11char_traitsIcESaIcEEC2IS3_EEPKcRKS3_(ptr noundef nonnull align 8 dereferenceable(32) %41, ptr noundef %273, ptr noundef nonnull align 1 dereferenceable(1) %42)
          to label %275 unwind label %322, !dbg !6290

275:                                              ; preds = %274
  invoke void @_ZNSt7__cxx1119basic_ostringstreamIcSt11char_traitsIcESaIcEEC1ERKNS_12basic_stringIcS2_S3_EESt13_Ios_Openmode(ptr noundef nonnull align 8 dereferenceable(112) %40, ptr noundef nonnull align 8 dereferenceable(32) %41, i32 noundef 2)
          to label %276 unwind label %326, !dbg !6290

276:                                              ; preds = %275
  call void @_ZNSt7__cxx1112basic_stringIcSt11char_traitsIcESaIcEED1Ev(ptr noundef nonnull align 8 dereferenceable(32) %41) #3, !dbg !6290
  call void @_ZNSaIcED1Ev(ptr noundef nonnull align 1 dereferenceable(1) %42) #3, !dbg !6290
  %277 = invoke noundef nonnull align 8 dereferenceable(8) ptr @_ZNSolsEPFRSt8ios_baseS0_E(ptr noundef nonnull align 8 dereferenceable(8) %40, ptr noundef @_ZSt9boolalphaRSt8ios_base)
          to label %278 unwind label %331, !dbg !6290

278:                                              ; preds = %276
  %279 = invoke noundef nonnull align 8 dereferenceable(8) ptr @_ZStlsISt11char_traitsIcEERSt13basic_ostreamIcT_ES5_PKc(ptr noundef nonnull align 8 dereferenceable(8) %277, ptr noundef @.str.16)
          to label %280 unwind label %331, !dbg !6290

280:                                              ; preds = %278
  %281 = invoke noundef nonnull align 8 dereferenceable(8) ptr @_ZStlsIcSt11char_traitsIcESaIcEERSt13basic_ostreamIT_T0_ES7_RKNSt7__cxx1112basic_stringIS4_S5_T1_EE(ptr noundef nonnull align 8 dereferenceable(8) %279, ptr noundef nonnull align 8 dereferenceable(32) %14)
          to label %282 unwind label %331, !dbg !6290

282:                                              ; preds = %280
  %283 = invoke noundef nonnull align 8 dereferenceable(8) ptr @_ZStlsISt11char_traitsIcEERSt13basic_ostreamIcT_ES5_PKc(ptr noundef nonnull align 8 dereferenceable(8) %281, ptr noundef @.str.12)
          to label %284 unwind label %331, !dbg !6290

284:                                              ; preds = %282
  %285 = invoke noundef nonnull align 8 dereferenceable(8) ptr @_ZStlsIcSt11char_traitsIcESaIcEERSt13basic_ostreamIT_T0_ES7_RKNSt7__cxx1112basic_stringIS4_S5_T1_EE(ptr noundef nonnull align 8 dereferenceable(8) %283, ptr noundef nonnull align 8 dereferenceable(32) %25)
          to label %286 unwind label %331, !dbg !6290

286:                                              ; preds = %284
  %287 = invoke noundef nonnull align 8 dereferenceable(8) ptr @_ZStlsISt11char_traitsIcEERSt13basic_ostreamIcT_ES5_PKc(ptr noundef nonnull align 8 dereferenceable(8) %285, ptr noundef @.str.17)
          to label %288 unwind label %331, !dbg !6290

288:                                              ; preds = %286
  %289 = load i32, ptr %37, align 4, !dbg !6290
  invoke void @_ZN4Util13symbolicErrnoB5cxx11Ei(ptr sret(%"class.std::__cxx11::basic_string") align 8 %43, i32 noundef %289)
          to label %290 unwind label %331, !dbg !6290

290:                                              ; preds = %288
  %291 = invoke noundef nonnull align 8 dereferenceable(8) ptr @_ZStlsIcSt11char_traitsIcESaIcEERSt13basic_ostreamIT_T0_ES7_RKNSt7__cxx1112basic_stringIS4_S5_T1_EE(ptr noundef nonnull align 8 dereferenceable(8) %287, ptr noundef nonnull align 8 dereferenceable(32) %43)
          to label %292 unwind label %335, !dbg !6290

292:                                              ; preds = %290
  %293 = invoke noundef nonnull align 8 dereferenceable(8) ptr @_ZStlsISt11char_traitsIcEERSt13basic_ostreamIcT_ES5_PKc(ptr noundef nonnull align 8 dereferenceable(8) %291, ptr noundef @.str.18)
          to label %294 unwind label %335, !dbg !6290

294:                                              ; preds = %292
  %295 = load i32, ptr %37, align 4, !dbg !6290
  %296 = call ptr @strerror(i32 noundef %295) #3, !dbg !6290
  %297 = invoke noundef nonnull align 8 dereferenceable(8) ptr @_ZStlsISt11char_traitsIcEERSt13basic_ostreamIcT_ES5_PKc(ptr noundef nonnull align 8 dereferenceable(8) %293, ptr noundef %296)
          to label %298 unwind label %335, !dbg !6290

298:                                              ; preds = %294
  call void @_ZNSt7__cxx1112basic_stringIcSt11char_traitsIcESaIcEED1Ev(ptr noundef nonnull align 8 dereferenceable(32) %43) #3, !dbg !6290
  br label %299, !dbg !6290

299:                                              ; preds = %298
  %300 = invoke noundef nonnull align 8 dereferenceable(8) ptr @_ZStlsISt11char_traitsIcEERSt13basic_ostreamIcT_ES5_PKc(ptr noundef nonnull align 8 dereferenceable(8) %40, ptr noundef @.str.13)
          to label %301 unwind label %331, !dbg !6292

301:                                              ; preds = %299
  %302 = invoke noundef nonnull align 8 dereferenceable(8) ptr @_ZStlsISt11char_traitsIcEERSt13basic_ostreamIcT_ES5_PKc(ptr noundef nonnull align 8 dereferenceable(8) %300, ptr noundef @.str.14)
          to label %303 unwind label %331, !dbg !6292

303:                                              ; preds = %301
