; ModuleID = 'common/SigUtil.cpp'
source_filename = "common/SigUtil.cpp"
target datalayout = "e-m:e-p270:32:32-p271:32:32-p272:64:64-i64:64-f80:128-n8:16:32:64-S128"
target triple = "x86_64-unknown-linux-gnu"

%"class.std::ios_base::Init" = type { i8 }
%"struct.Log::_end_marker" = type { i8 }
%"struct.std::atomic" = type { %"struct.std::__atomic_base" }
%"struct.std::__atomic_base" = type { i8 }
%"struct.std::atomic.0" = type { %"struct.std::__atomic_base.1" }
%"struct.std::__atomic_base.1" = type { i32 }
%"class.std::basic_ostream" = type { ptr, %"class.std::basic_ios" }
%"class.std::basic_ios" = type { %"class.std::ios_base", ptr, i8, i8, ptr, ptr, ptr, ptr }
%"class.std::ios_base" = type { ptr, i64, i64, i32, i32, i32, ptr, %"struct.std::ios_base::_Words", [8 x %"struct.std::ios_base::_Words"], i32, ptr, %"class.std::locale" }
%"struct.std::ios_base::_Words" = type { ptr, i64 }
%"class.std::locale" = type { ptr }
%struct.sigaction = type { %union.anon, %struct.__sigset_t, i32, ptr }
%union.anon = type { ptr }
%struct.__sigset_t = type { [16 x i64] }
%"class.std::__cxx11::basic_ostringstream" = type { %"class.std::basic_ostream.base", %"class.std::__cxx11::basic_stringbuf", %"class.std::basic_ios" }
%"class.std::basic_ostream.base" = type { ptr }
%"class.std::__cxx11::basic_stringbuf" = type { %"class.std::basic_streambuf", i32, %"class.std::__cxx11::basic_string" }
%"class.std::basic_streambuf" = type { ptr, ptr, ptr, ptr, ptr, ptr, ptr, %"class.std::locale" }
%"class.std::__cxx11::basic_string" = type { %"struct.std::__cxx11::basic_string<char>::_Alloc_hider", i64, %union.anon.11 }
%"struct.std::__cxx11::basic_string<char>::_Alloc_hider" = type { ptr }
%union.anon.11 = type { i64, [8 x i8] }
%"class.std::allocator" = type { i8 }
%"class.Poco::Message" = type { %"class.std::__cxx11::basic_string", %"class.std::__cxx11::basic_string", i32, %"class.Poco::Timestamp", i64, %"class.std::__cxx11::basic_string", i64, ptr, i32, ptr }
%"class.Poco::Timestamp" = type { i64 }
%"class.Poco::Logger" = type <{ %"class.Poco::Channel.base", [4 x i8], %"class.std::__cxx11::basic_string", %"class.Poco::AutoPtr", i32, [4 x i8] }>
%"class.Poco::Channel.base" = type <{ %"class.Poco::Configurable", %"class.Poco::RefCountedObject.base" }>
%"class.Poco::Configurable" = type { ptr }
%"class.Poco::RefCountedObject.base" = type <{ ptr, %"class.Poco::AtomicCounter" }>
%"class.Poco::AtomicCounter" = type { %"struct.std::atomic.0" }
%"class.Poco::AutoPtr" = type { ptr }
%"class.Poco::LocalDateTime" = type <{ %"class.Poco::DateTime", i32, [4 x i8] }>
%"class.Poco::DateTime" = type { i64, i16, i16, i16, i16, i16, i16, i16, i16 }
%"struct.std::forward_iterator_tag" = type { i8 }
%"struct.std::random_access_iterator_tag" = type { i8 }
%"class.SigUtil::SigHandlerTrap" = type { i8 }
%"struct.std::chrono::duration" = type { i64 }
%"struct.std::chrono::duration.12" = type { i64 }
%"struct.std::chrono::duration.13" = type { i64 }
%struct.timespec = type { i64, i64 }

$_ZN3Log11_end_markerC2Ev = comdat any

$_ZNKSt6atomicIbEcvbEv = comdat any

$_ZNSt6atomicIbEaSEb = comdat any

$_ZN7SigUtil14SigHandlerTrap4waitEv = comdat any

$_ZN3Log16isShutdownCalledEv = comdat any

$_ZNK4Poco6Logger5errorEv = comdat any

$_ZN3Log6prefixILi1023EEEPcS1_PKc = comdat any

$_ZNSt7__cxx1112basic_stringIcSt11char_traitsIcESaIcEEC2IS3_EEPKcRKS3_ = comdat any

$_ZSt9boolalphaRSt8ios_base = comdat any

$_ZNK4Poco6Logger4nameB5cxx11Ev = comdat any

$_ZNK4Poco6Logger5debugEv = comdat any

$_ZN4Util13symbolicErrnoB5cxx11Ei = comdat any

$_ZNSt11this_thread9sleep_forIlSt5ratioILl1ELl1000EEEEvRKNSt6chrono8durationIT_T0_EE = comdat any

$_ZNSt6chrono8durationIlSt5ratioILl1ELl1000EEEC2IivEERKT_ = comdat any

$_ZStanSt12memory_orderSt23__memory_order_modifier = comdat any

$__clang_call_terminate = comdat any

$_ZNSt13__atomic_baseIbEaSEb = comdat any

$_ZNKSt13__atomic_baseIiEcviEv = comdat any

$_ZNSt8ios_base4setfESt13_Ios_Fmtflags = comdat any

$_ZStoRRSt13_Ios_FmtflagsS_ = comdat any

$_ZStorSt13_Ios_FmtflagsS_ = comdat any

$_ZN7SigUtil14SigHandlerTrapC2Ev = comdat any

$_ZNK7SigUtil14SigHandlerTrap11isExclusiveEv = comdat any

$_ZN7SigUtil14SigHandlerTrapD2Ev = comdat any

$_ZNSt13__atomic_baseIiEppEv = comdat any

$_ZNSt13__atomic_baseIiEmmEv = comdat any

$_ZNSt7__cxx119to_stringEi = comdat any

$_ZNSt8__detail14__to_chars_lenIjEEjT_i = comdat any

$_ZNSt7__cxx1112basic_stringIcSt11char_traitsIcESaIcEEC2IS3_EEmcRKS3_ = comdat any

$_ZNSt8__detail18__to_chars_10_implIjEEvPcjT_ = comdat any

$_ZNSt7__cxx1112basic_stringIcSt11char_traitsIcESaIcEE12_Alloc_hiderD2Ev = comdat any

$_ZNSt11char_traitsIcE6lengthEPKc = comdat any

$_ZNSt7__cxx1112basic_stringIcSt11char_traitsIcESaIcEE12_M_constructIPKcEEvT_S8_St20forward_iterator_tag = comdat any

$_ZN9__gnu_cxx11char_traitsIcE6lengthEPKc = comdat any

$_ZN9__gnu_cxx11char_traitsIcE2eqERKcS3_ = comdat any

$_ZN9__gnu_cxx17__is_null_pointerIKcEEbPT_ = comdat any

$_ZSt8distanceIPKcENSt15iterator_traitsIT_E15difference_typeES3_S3_ = comdat any

$_ZSt10__distanceIPKcENSt15iterator_traitsIT_E15difference_typeES3_S3_St26random_access_iterator_tag = comdat any

$_ZSt19__iterator_categoryIPKcENSt15iterator_traitsIT_E17iterator_categoryERKS3_ = comdat any

$_ZNSt6chronoleIlSt5ratioILl1ELl1000EElS2_EEbRKNS_8durationIT_T0_EERKNS3_IT1_T2_EE = comdat any

$_ZNSt6chrono8durationIlSt5ratioILl1ELl1000EEE4zeroEv = comdat any

$_ZNSt6chrono13duration_castINS_8durationIlSt5ratioILl1ELl1EEEElS2_ILl1ELl1000EEEENSt9enable_ifIXsr13__is_durationIT_EE5valueES7_E4typeERKNS1_IT0_T1_EE = comdat any

$_ZNSt6chrono13duration_castINS_8durationIlSt5ratioILl1ELl1000000000EEEElS2_ILl1ELl1000EEEENSt9enable_ifIXsr13__is_durationIT_EE5valueES7_E4typeERKNS1_IT0_T1_EE = comdat any

$_ZNSt6chronomiIlSt5ratioILl1ELl1000EElS1_ILl1ELl1EEEENSt11common_typeIJNS_8durationIT_T0_EENS5_IT1_T2_EEEE4typeERKS8_RKSB_ = comdat any

$_ZNKSt6chrono8durationIlSt5ratioILl1ELl1EEE5countEv = comdat any

$_ZNKSt6chrono8durationIlSt5ratioILl1ELl1000000000EEE5countEv = comdat any

$_ZNSt6chronoltIlSt5ratioILl1ELl1000EElS2_EEbRKNS_8durationIT_T0_EERKNS3_IT1_T2_EE = comdat any

$_ZNKSt6chrono8durationIlSt5ratioILl1ELl1000EEE5countEv = comdat any

$_ZNSt6chrono15duration_valuesIlE4zeroEv = comdat any

$_ZNSt6chrono8durationIlSt5ratioILl1ELl1000EEEC2IlvEERKT_ = comdat any

$_ZNSt6chrono20__duration_cast_implINS_8durationIlSt5ratioILl1ELl1EEEES2_ILl1ELl1000EElLb1ELb0EE6__castIlS5_EES4_RKNS1_IT_T0_EE = comdat any

$_ZNSt6chrono8durationIlSt5ratioILl1ELl1EEEC2IlvEERKT_ = comdat any

$_ZNSt6chrono20__duration_cast_implINS_8durationIlSt5ratioILl1ELl1000000000EEEES2_ILl1000000ELl1EElLb0ELb1EE6__castIlS2_ILl1ELl1000EEEES4_RKNS1_IT_T0_EE = comdat any

$_ZNSt6chrono8durationIlSt5ratioILl1ELl1000000000EEEC2IlvEERKT_ = comdat any

$_ZNSt6chrono8durationIlSt5ratioILl1ELl1000EEEC2IlS1_ILl1ELl1EEvEERKNS0_IT_T0_EE = comdat any

$_ZNSt6chrono13duration_castINS_8durationIlSt5ratioILl1ELl1000EEEElS2_ILl1ELl1EEEENSt9enable_ifIXsr13__is_durationIT_EE5valueES7_E4typeERKNS1_IT0_T1_EE = comdat any

$_ZNSt6chrono20__duration_cast_implINS_8durationIlSt5ratioILl1ELl1000EEEES2_ILl1000ELl1EElLb0ELb1EE6__castIlS2_ILl1ELl1EEEES4_RKNS1_IT_T0_EE = comdat any

$_ZZNSt8__detail18__to_chars_10_implIjEEvPcjT_E8__digits = comdat any

@_ZStL8__ioinit = internal global %"class.std::ios_base::Init" zeroinitializer, align 1, !dbg !0
@__dso_handle = external hidden global i8
@_ZN3LogL3endE = internal global %"struct.Log::_end_marker" zeroinitializer, align 1, !dbg !7
@_ZL19ShutdownRequestFlag = internal global %"struct.std::atomic" zeroinitializer, align 1, !dbg !18
@_ZL15TerminationFlag = internal global %"struct.std::atomic" zeroinitializer, align 1, !dbg !1860
@_ZL15DumpGlobalState = internal global %"struct.std::atomic" zeroinitializer, align 1, !dbg !1862
@_ZN7SigUtil21dumpUnoCommandsInfoFnE = dso_local global ptr null, align 8, !dbg !1697
@_ZN7SigUtil14SigHandlerTrap11SigHandlingE = dso_local global %"struct.std::atomic.0" zeroinitializer, align 4, !dbg !1702
@.str = private unnamed_addr constant [7 x i8] c"SIGHUP\00", align 1, !dbg !1704
@.str.2 = private unnamed_addr constant [7 x i8] c"SIGINT\00", align 1, !dbg !1709
@.str.3 = private unnamed_addr constant [8 x i8] c"SIGQUIT\00", align 1, !dbg !1711
@.str.4 = private unnamed_addr constant [7 x i8] c"SIGILL\00", align 1, !dbg !1716
@.str.5 = private unnamed_addr constant [8 x i8] c"SIGABRT\00", align 1, !dbg !1718
@.str.6 = private unnamed_addr constant [7 x i8] c"SIGFPE\00", align 1, !dbg !1720
@.str.7 = private unnamed_addr constant [8 x i8] c"SIGKILL\00", align 1, !dbg !1722
@.str.8 = private unnamed_addr constant [8 x i8] c"SIGSEGV\00", align 1, !dbg !1724
@.str.9 = private unnamed_addr constant [8 x i8] c"SIGPIPE\00", align 1, !dbg !1726
@.str.10 = private unnamed_addr constant [8 x i8] c"SIGALRM\00", align 1, !dbg !1728
@.str.11 = private unnamed_addr constant [8 x i8] c"SIGTERM\00", align 1, !dbg !1730
@.str.12 = private unnamed_addr constant [8 x i8] c"SIGUSR1\00", align 1, !dbg !1732
@.str.13 = private unnamed_addr constant [8 x i8] c"SIGUSR2\00", align 1, !dbg !1734
@.str.14 = private unnamed_addr constant [8 x i8] c"SIGCHLD\00", align 1, !dbg !1736
@.str.15 = private unnamed_addr constant [8 x i8] c"SIGCONT\00", align 1, !dbg !1738
@.str.16 = private unnamed_addr constant [8 x i8] c"SIGSTOP\00", align 1, !dbg !1740
@.str.17 = private unnamed_addr constant [8 x i8] c"SIGTSTP\00", align 1, !dbg !1742
@.str.18 = private unnamed_addr constant [8 x i8] c"SIGTTIN\00", align 1, !dbg !1744
@.str.19 = private unnamed_addr constant [8 x i8] c"SIGTTOU\00", align 1, !dbg !1746
@.str.20 = private unnamed_addr constant [7 x i8] c"SIGBUS\00", align 1, !dbg !1748
@.str.21 = private unnamed_addr constant [8 x i8] c"SIGPOLL\00", align 1, !dbg !1750
@.str.22 = private unnamed_addr constant [8 x i8] c"SIGPROF\00", align 1, !dbg !1752
@.str.23 = private unnamed_addr constant [7 x i8] c"SIGSYS\00", align 1, !dbg !1754
@.str.24 = private unnamed_addr constant [8 x i8] c"SIGTRAP\00", align 1, !dbg !1756
@.str.25 = private unnamed_addr constant [7 x i8] c"SIGURG\00", align 1, !dbg !1758
@.str.26 = private unnamed_addr constant [10 x i8] c"SIGVTALRM\00", align 1, !dbg !1760
@.str.27 = private unnamed_addr constant [8 x i8] c"SIGXCPU\00", align 1, !dbg !1765
@.str.28 = private unnamed_addr constant [8 x i8] c"SIGXFSZ\00", align 1, !dbg !1767
@.str.29 = private unnamed_addr constant [10 x i8] c"SIGSTKFLT\00", align 1, !dbg !1769
@.str.30 = private unnamed_addr constant [7 x i8] c"SIGPWR\00", align 1, !dbg !1771
@.str.31 = private unnamed_addr constant [9 x i8] c"SIGWINCH\00", align 1, !dbg !1773
@.str.32 = private unnamed_addr constant [8 x i8] c"unknown\00", align 1, !dbg !1778
@.str.33 = private unnamed_addr constant [12 x i8] c"\0ABacktrace \00", align 1, !dbg !1780
@_ZN7SigUtilL11VersionInfoE = internal global ptr null, align 8, !dbg !1876
@.str.34 = private unnamed_addr constant [4 x i8] c" - \00", align 1, !dbg !1785
@.str.35 = private unnamed_addr constant [3 x i8] c":\0A\00", align 1, !dbg !1790
@.str.36 = private unnamed_addr constant [11 x i8] c"COOL_DEBUG\00", align 1, !dbg !1795
@_ZN7SigUtilL14FatalGdbStringE = internal global [256 x i8] zeroinitializer, align 16, !dbg !1878
@.str.37 = private unnamed_addr constant [4 x i8] c"ERR\00", align 1, !dbg !1800
@.str.38 = private unnamed_addr constant [41 x i8] c"Sleeping 60s to allow debugging: attach \00", align 1, !dbg !1802
@.str.39 = private unnamed_addr constant [3 x i8] c"| \00", align 1, !dbg !1807
@.str.40 = private unnamed_addr constant [19 x i8] c"common/SigUtil.cpp\00", align 1, !dbg !1809
@_ZSt4cerr = external global %"class.std::basic_ostream", align 8
@.str.41 = private unnamed_addr constant [2 x i8] c"\0A\00", align 1, !dbg !1814
@.str.42 = private unnamed_addr constant [42 x i8] c"Finished sleeping to allow debugging of: \00", align 1, !dbg !1819
@.str.43 = private unnamed_addr constant [45 x i8] c"\0AERROR: Fatal signal! Attach debugger with:\0A\00", align 1, !dbg !1824
@.str.44 = private unnamed_addr constant [16 x i8] c"sudo gdb --pid=\00", align 1, !dbg !1829
@.str.45 = private unnamed_addr constant [7 x i8] c"\0A or \0A\00", align 1, !dbg !1832
@.str.46 = private unnamed_addr constant [71 x i8] c"sudo gdb --q --n --ex 'thread apply all backtrace full' --batch --pid=\00", align 1, !dbg !1834
@.str.47 = private unnamed_addr constant [4 x i8] c"DBG\00", align 1, !dbg !1839
@.str.48 = private unnamed_addr constant [14 x i8] c"Killing PID: \00", align 1, !dbg !1841
@.str.49 = private unnamed_addr constant [32 x i8] c"Error when trying to kill PID: \00", align 1, !dbg !1846
@.str.50 = private unnamed_addr constant [29 x i8] c". Will wait for termination.\00", align 1, !dbg !1851
@.str.51 = private unnamed_addr constant [3 x i8] c" (\00", align 1, !dbg !1856
@.str.52 = private unnamed_addr constant [3 x i8] c": \00", align 1, !dbg !1858
@.str.53 = private unnamed_addr constant [28 x i8] c" Shutdown signal received: \00", align 1, !dbg !1864
@.str.54 = private unnamed_addr constant [38 x i8] c" Forced-Termination signal received: \00", align 1, !dbg !1869
@.str.55 = private unnamed_addr constant [45 x i8] c" ok, ok - hard-termination signal received: \00", align 1, !dbg !1874
@_ZN3Log10IsShutdownE = external global i8, align 1
@.str.56 = private unnamed_addr constant [32 x i8] c" Fatal double signal received: \00", align 1, !dbg !1883
@.str.57 = private unnamed_addr constant [25 x i8] c" Fatal signal received: \00", align 1, !dbg !1885
@.str.58 = private unnamed_addr constant [24 x i8] c" User signal received: \00", align 1, !dbg !1890
@.str.59 = private unnamed_addr constant [6 x i8] c"EPERM\00", align 1, !dbg !1895
@.str.60 = private unnamed_addr constant [7 x i8] c"ENOENT\00", align 1, !dbg !1901
@.str.61 = private unnamed_addr constant [6 x i8] c"ESRCH\00", align 1, !dbg !1903
@.str.62 = private unnamed_addr constant [6 x i8] c"EINTR\00", align 1, !dbg !1905
@.str.63 = private unnamed_addr constant [4 x i8] c"EIO\00", align 1, !dbg !1907
@.str.64 = private unnamed_addr constant [6 x i8] c"ENXIO\00", align 1, !dbg !1909
@.str.65 = private unnamed_addr constant [6 x i8] c"E2BIG\00", align 1, !dbg !1911
@.str.66 = private unnamed_addr constant [8 x i8] c"ENOEXEC\00", align 1, !dbg !1913
@.str.67 = private unnamed_addr constant [6 x i8] c"EBADF\00", align 1, !dbg !1915
@.str.68 = private unnamed_addr constant [7 x i8] c"ECHILD\00", align 1, !dbg !1917
@.str.69 = private unnamed_addr constant [7 x i8] c"EAGAIN\00", align 1, !dbg !1919
@.str.70 = private unnamed_addr constant [7 x i8] c"ENOMEM\00", align 1, !dbg !1921
@.str.71 = private unnamed_addr constant [7 x i8] c"EACCES\00", align 1, !dbg !1923
@.str.72 = private unnamed_addr constant [7 x i8] c"EFAULT\00", align 1, !dbg !1925
@.str.73 = private unnamed_addr constant [8 x i8] c"ENOTBLK\00", align 1, !dbg !1927
@.str.74 = private unnamed_addr constant [6 x i8] c"EBUSY\00", align 1, !dbg !1929
@.str.75 = private unnamed_addr constant [7 x i8] c"EEXIST\00", align 1, !dbg !1931
@.str.76 = private unnamed_addr constant [6 x i8] c"EXDEV\00", align 1, !dbg !1933
@.str.77 = private unnamed_addr constant [7 x i8] c"ENODEV\00", align 1, !dbg !1935
@.str.78 = private unnamed_addr constant [8 x i8] c"ENOTDIR\00", align 1, !dbg !1937
@.str.79 = private unnamed_addr constant [7 x i8] c"EISDIR\00", align 1, !dbg !1939
@.str.80 = private unnamed_addr constant [7 x i8] c"EINVAL\00", align 1, !dbg !1941
@.str.81 = private unnamed_addr constant [7 x i8] c"ENFILE\00", align 1, !dbg !1943
@.str.82 = private unnamed_addr constant [7 x i8] c"EMFILE\00", align 1, !dbg !1945
@.str.83 = private unnamed_addr constant [7 x i8] c"ENOTTY\00", align 1, !dbg !1947
@.str.84 = private unnamed_addr constant [8 x i8] c"ETXTBSY\00", align 1, !dbg !1949
@.str.85 = private unnamed_addr constant [6 x i8] c"EFBIG\00", align 1, !dbg !1951
@.str.86 = private unnamed_addr constant [7 x i8] c"ENOSPC\00", align 1, !dbg !1953
@.str.87 = private unnamed_addr constant [7 x i8] c"ESPIPE\00", align 1, !dbg !1955
@.str.88 = private unnamed_addr constant [6 x i8] c"EROFS\00", align 1, !dbg !1957
@.str.89 = private unnamed_addr constant [7 x i8] c"EMLINK\00", align 1, !dbg !1959
@.str.90 = private unnamed_addr constant [6 x i8] c"EPIPE\00", align 1, !dbg !1961
@.str.91 = private unnamed_addr constant [5 x i8] c"EDOM\00", align 1, !dbg !1963
@.str.92 = private unnamed_addr constant [7 x i8] c"ERANGE\00", align 1, !dbg !1968
@.str.93 = private unnamed_addr constant [8 x i8] c"EDEADLK\00", align 1, !dbg !1970
@.str.94 = private unnamed_addr constant [13 x i8] c"ENAMETOOLONG\00", align 1, !dbg !1972
@.str.95 = private unnamed_addr constant [7 x i8] c"ENOLCK\00", align 1, !dbg !1977
@.str.96 = private unnamed_addr constant [7 x i8] c"ENOSYS\00", align 1, !dbg !1979
@.str.97 = private unnamed_addr constant [10 x i8] c"ENOTEMPTY\00", align 1, !dbg !1981
@.str.98 = private unnamed_addr constant [6 x i8] c"ELOOP\00", align 1, !dbg !1983
@.str.99 = private unnamed_addr constant [7 x i8] c"ENOMSG\00", align 1, !dbg !1985
@.str.100 = private unnamed_addr constant [6 x i8] c"EIDRM\00", align 1, !dbg !1987
@.str.101 = private unnamed_addr constant [7 x i8] c"ECHRNG\00", align 1, !dbg !1989
@.str.102 = private unnamed_addr constant [9 x i8] c"EL2NSYNC\00", align 1, !dbg !1991
@.str.103 = private unnamed_addr constant [7 x i8] c"EL3HLT\00", align 1, !dbg !1993
@.str.104 = private unnamed_addr constant [7 x i8] c"EL3RST\00", align 1, !dbg !1995
@.str.105 = private unnamed_addr constant [7 x i8] c"ELNRNG\00", align 1, !dbg !1997
@.str.106 = private unnamed_addr constant [8 x i8] c"EUNATCH\00", align 1, !dbg !1999
@.str.107 = private unnamed_addr constant [7 x i8] c"ENOCSI\00", align 1, !dbg !2001
@.str.108 = private unnamed_addr constant [7 x i8] c"EL2HLT\00", align 1, !dbg !2003
@.str.109 = private unnamed_addr constant [6 x i8] c"EBADE\00", align 1, !dbg !2005
@.str.110 = private unnamed_addr constant [6 x i8] c"EBADR\00", align 1, !dbg !2007
@.str.111 = private unnamed_addr constant [7 x i8] c"EXFULL\00", align 1, !dbg !2009
@.str.112 = private unnamed_addr constant [7 x i8] c"ENOANO\00", align 1, !dbg !2011
@.str.113 = private unnamed_addr constant [8 x i8] c"EBADRQC\00", align 1, !dbg !2013
@.str.114 = private unnamed_addr constant [8 x i8] c"EBADSLT\00", align 1, !dbg !2015
@.str.115 = private unnamed_addr constant [7 x i8] c"EBFONT\00", align 1, !dbg !2017
@.str.116 = private unnamed_addr constant [7 x i8] c"ENOSTR\00", align 1, !dbg !2019
@.str.117 = private unnamed_addr constant [8 x i8] c"ENODATA\00", align 1, !dbg !2021
@.str.118 = private unnamed_addr constant [6 x i8] c"ETIME\00", align 1, !dbg !2023
@.str.119 = private unnamed_addr constant [6 x i8] c"ENOSR\00", align 1, !dbg !2025
@.str.120 = private unnamed_addr constant [7 x i8] c"ENONET\00", align 1, !dbg !2027
@.str.121 = private unnamed_addr constant [7 x i8] c"ENOPKG\00", align 1, !dbg !2029
@.str.122 = private unnamed_addr constant [8 x i8] c"EREMOTE\00", align 1, !dbg !2031
@.str.123 = private unnamed_addr constant [8 x i8] c"ENOLINK\00", align 1, !dbg !2033
@.str.124 = private unnamed_addr constant [5 x i8] c"EADV\00", align 1, !dbg !2035
@.str.125 = private unnamed_addr constant [7 x i8] c"ESRMNT\00", align 1, !dbg !2037
@.str.126 = private unnamed_addr constant [6 x i8] c"ECOMM\00", align 1, !dbg !2039
@.str.127 = private unnamed_addr constant [7 x i8] c"EPROTO\00", align 1, !dbg !2041
@.str.128 = private unnamed_addr constant [10 x i8] c"EMULTIHOP\00", align 1, !dbg !2043
@.str.129 = private unnamed_addr constant [8 x i8] c"EDOTDOT\00", align 1, !dbg !2045
@.str.130 = private unnamed_addr constant [8 x i8] c"EBADMSG\00", align 1, !dbg !2047
@.str.131 = private unnamed_addr constant [10 x i8] c"EOVERFLOW\00", align 1, !dbg !2049
@.str.132 = private unnamed_addr constant [9 x i8] c"ENOTUNIQ\00", align 1, !dbg !2051
@.str.133 = private unnamed_addr constant [7 x i8] c"EBADFD\00", align 1, !dbg !2053
@.str.134 = private unnamed_addr constant [8 x i8] c"EREMCHG\00", align 1, !dbg !2055
@.str.135 = private unnamed_addr constant [8 x i8] c"ELIBACC\00", align 1, !dbg !2057
@.str.136 = private unnamed_addr constant [8 x i8] c"ELIBBAD\00", align 1, !dbg !2059
@.str.137 = private unnamed_addr constant [8 x i8] c"ELIBSCN\00", align 1, !dbg !2061
@.str.138 = private unnamed_addr constant [8 x i8] c"ELIBMAX\00", align 1, !dbg !2063
@.str.139 = private unnamed_addr constant [9 x i8] c"ELIBEXEC\00", align 1, !dbg !2065
@.str.140 = private unnamed_addr constant [7 x i8] c"EILSEQ\00", align 1, !dbg !2067
@.str.141 = private unnamed_addr constant [9 x i8] c"ERESTART\00", align 1, !dbg !2069
@.str.142 = private unnamed_addr constant [9 x i8] c"ESTRPIPE\00", align 1, !dbg !2071
@.str.143 = private unnamed_addr constant [7 x i8] c"EUSERS\00", align 1, !dbg !2073
@.str.144 = private unnamed_addr constant [9 x i8] c"ENOTSOCK\00", align 1, !dbg !2075
@.str.145 = private unnamed_addr constant [13 x i8] c"EDESTADDRREQ\00", align 1, !dbg !2077
@.str.146 = private unnamed_addr constant [9 x i8] c"EMSGSIZE\00", align 1, !dbg !2079
@.str.147 = private unnamed_addr constant [11 x i8] c"EPROTOTYPE\00", align 1, !dbg !2081
@.str.148 = private unnamed_addr constant [12 x i8] c"ENOPROTOOPT\00", align 1, !dbg !2083
@.str.149 = private unnamed_addr constant [16 x i8] c"EPROTONOSUPPORT\00", align 1, !dbg !2085
@.str.150 = private unnamed_addr constant [16 x i8] c"ESOCKTNOSUPPORT\00", align 1, !dbg !2087
@.str.151 = private unnamed_addr constant [11 x i8] c"EOPNOTSUPP\00", align 1, !dbg !2089
@.str.152 = private unnamed_addr constant [13 x i8] c"EPFNOSUPPORT\00", align 1, !dbg !2091
@.str.153 = private unnamed_addr constant [13 x i8] c"EAFNOSUPPORT\00", align 1, !dbg !2093
@.str.154 = private unnamed_addr constant [11 x i8] c"EADDRINUSE\00", align 1, !dbg !2095
@.str.155 = private unnamed_addr constant [14 x i8] c"EADDRNOTAVAIL\00", align 1, !dbg !2097
@.str.156 = private unnamed_addr constant [9 x i8] c"ENETDOWN\00", align 1, !dbg !2099
@.str.157 = private unnamed_addr constant [12 x i8] c"ENETUNREACH\00", align 1, !dbg !2101
@.str.158 = private unnamed_addr constant [10 x i8] c"ENETRESET\00", align 1, !dbg !2103
@.str.159 = private unnamed_addr constant [13 x i8] c"ECONNABORTED\00", align 1, !dbg !2105
@.str.160 = private unnamed_addr constant [11 x i8] c"ECONNRESET\00", align 1, !dbg !2107
@.str.161 = private unnamed_addr constant [8 x i8] c"ENOBUFS\00", align 1, !dbg !2109
@.str.162 = private unnamed_addr constant [8 x i8] c"EISCONN\00", align 1, !dbg !2111
@.str.163 = private unnamed_addr constant [9 x i8] c"ENOTCONN\00", align 1, !dbg !2113
@.str.164 = private unnamed_addr constant [10 x i8] c"ESHUTDOWN\00", align 1, !dbg !2115
@.str.165 = private unnamed_addr constant [13 x i8] c"ETOOMANYREFS\00", align 1, !dbg !2117
@.str.166 = private unnamed_addr constant [10 x i8] c"ETIMEDOUT\00", align 1, !dbg !2119
@.str.167 = private unnamed_addr constant [13 x i8] c"ECONNREFUSED\00", align 1, !dbg !2121
@.str.168 = private unnamed_addr constant [10 x i8] c"EHOSTDOWN\00", align 1, !dbg !2123
@.str.169 = private unnamed_addr constant [13 x i8] c"EHOSTUNREACH\00", align 1, !dbg !2125
@.str.170 = private unnamed_addr constant [9 x i8] c"EALREADY\00", align 1, !dbg !2127
@.str.171 = private unnamed_addr constant [12 x i8] c"EINPROGRESS\00", align 1, !dbg !2129
@.str.172 = private unnamed_addr constant [7 x i8] c"ESTALE\00", align 1, !dbg !2131
@.str.173 = private unnamed_addr constant [8 x i8] c"EUCLEAN\00", align 1, !dbg !2133
@.str.174 = private unnamed_addr constant [8 x i8] c"ENOTNAM\00", align 1, !dbg !2135
@.str.175 = private unnamed_addr constant [8 x i8] c"ENAVAIL\00", align 1, !dbg !2137
@.str.176 = private unnamed_addr constant [7 x i8] c"EISNAM\00", align 1, !dbg !2139
@.str.177 = private unnamed_addr constant [10 x i8] c"EREMOTEIO\00", align 1, !dbg !2141
@.str.178 = private unnamed_addr constant [7 x i8] c"EDQUOT\00", align 1, !dbg !2143
@.str.179 = private unnamed_addr constant [10 x i8] c"ENOMEDIUM\00", align 1, !dbg !2145
@.str.180 = private unnamed_addr constant [12 x i8] c"EMEDIUMTYPE\00", align 1, !dbg !2147
@.str.181 = private unnamed_addr constant [10 x i8] c"ECANCELED\00", align 1, !dbg !2149
@.str.182 = private unnamed_addr constant [7 x i8] c"ENOKEY\00", align 1, !dbg !2151
@.str.183 = private unnamed_addr constant [12 x i8] c"EKEYEXPIRED\00", align 1, !dbg !2153
@.str.184 = private unnamed_addr constant [12 x i8] c"EKEYREVOKED\00", align 1, !dbg !2155
@.str.185 = private unnamed_addr constant [13 x i8] c"EKEYREJECTED\00", align 1, !dbg !2157
@.str.186 = private unnamed_addr constant [11 x i8] c"EOWNERDEAD\00", align 1, !dbg !2159
@.str.187 = private unnamed_addr constant [16 x i8] c"ENOTRECOVERABLE\00", align 1, !dbg !2161
@.str.188 = private unnamed_addr constant [8 x i8] c"ERFKILL\00", align 1, !dbg !2163
@.str.189 = private unnamed_addr constant [10 x i8] c"EHWPOISON\00", align 1, !dbg !2165
@_ZZNSt8__detail18__to_chars_10_implIjEEvPcjT_E8__digits = linkonce_odr dso_local constant [201 x i8] c"00010203040506070809101112131415161718192021222324252627282930313233343536373839404142434445464748495051525354555657585960616263646566676869707172737475767778798081828384858687888990919293949596979899\00", comdat, align 16, !dbg !2167
@.str.190 = private unnamed_addr constant [42 x i8] c"basic_string::_M_construct null not valid\00", align 1, !dbg !2180
@llvm.global_ctors = appending global [1 x { i32, ptr, ptr }] [{ i32, ptr, ptr } { i32 65535, ptr @_GLOBAL__sub_I_SigUtil.cpp, ptr null }]

; Function Attrs: noinline uwtable
define internal void @__cxx_global_var_init() #0 section ".text.startup" !dbg !3207 {
  call void @_ZNSt8ios_base4InitC1Ev(ptr noundef nonnull align 1 dereferenceable(1) @_ZStL8__ioinit), !dbg !3208
  %1 = call i32 @__cxa_atexit(ptr @_ZNSt8ios_base4InitD1Ev, ptr @_ZStL8__ioinit, ptr @__dso_handle) #3, !dbg !3210
  ret void, !dbg !3208
}

declare void @_ZNSt8ios_base4InitC1Ev(ptr noundef nonnull align 1 dereferenceable(1)) unnamed_addr #1

; Function Attrs: nounwind
declare void @_ZNSt8ios_base4InitD1Ev(ptr noundef nonnull align 1 dereferenceable(1)) unnamed_addr #2

; Function Attrs: nounwind
declare i32 @__cxa_atexit(ptr, ptr, ptr) #3

; Function Attrs: noinline uwtable
define internal void @__cxx_global_var_init.1() #0 section ".text.startup" !dbg !3211 {
  call void @_ZN3Log11_end_markerC2Ev(ptr noundef nonnull align 1 dereferenceable(1) @_ZN3LogL3endE), !dbg !3212
  ret void, !dbg !3212
}

; Function Attrs: noinline nounwind uwtable
define linkonce_odr dso_local void @_ZN3Log11_end_markerC2Ev(ptr noundef nonnull align 1 dereferenceable(1) %0) unnamed_addr #4 comdat align 2 !dbg !3214 {
  %2 = alloca ptr, align 8
  store ptr %0, ptr %2, align 8
  call void @llvm.dbg.declare(metadata ptr %2, metadata !3215, metadata !DIExpression()), !dbg !3217
  %3 = load ptr, ptr %2, align 8
  ret void, !dbg !3218
}

; Function Attrs: mustprogress noinline nounwind uwtable
define dso_local noundef zeroext i1 @_ZN7SigUtil22getShutdownRequestFlagEv() #5 !dbg !3219 {
  %1 = call noundef zeroext i1 @_ZNKSt6atomicIbEcvbEv(ptr noundef nonnull align 1 dereferenceable(1) @_ZL19ShutdownRequestFlag) #3, !dbg !3220
  ret i1 %1, !dbg !3221
}

; Function Attrs: mustprogress noinline nounwind uwtable
define linkonce_odr dso_local noundef zeroext i1 @_ZNKSt6atomicIbEcvbEv(ptr noundef nonnull align 1 dereferenceable(1) %0) #5 comdat align 2 personality ptr @__gxx_personality_v0 !dbg !3222 {
  %2 = alloca ptr, align 8
  %3 = alloca i32, align 4
  %4 = alloca i32, align 4
  %5 = alloca i8, align 1
  %6 = alloca ptr, align 8
  store ptr %0, ptr %6, align 8
  call void @llvm.dbg.declare(metadata ptr %6, metadata !3223, metadata !DIExpression()), !dbg !3225
  %7 = load ptr, ptr %6, align 8
  %8 = getelementptr inbounds %"struct.std::atomic", ptr %7, i32 0, i32 0, !dbg !3226
  store ptr %8, ptr %2, align 8
  call void @llvm.dbg.declare(metadata ptr %2, metadata !3227, metadata !DIExpression()), !dbg !3230
  store i32 5, ptr %3, align 4
  call void @llvm.dbg.declare(metadata ptr %3, metadata !3232, metadata !DIExpression()), !dbg !3233
  %9 = load ptr, ptr %2, align 8
  call void @llvm.dbg.declare(metadata ptr %4, metadata !3234, metadata !DIExpression()), !dbg !3235
  %10 = load i32, ptr %3, align 4, !dbg !3236
  %11 = invoke noundef i32 @_ZStanSt12memory_orderSt23__memory_order_modifier(i32 noundef %10, i32 noundef 65535)
          to label %12 unwind label %20, !dbg !3237

12:                                               ; preds = %1
  store i32 %11, ptr %4, align 4, !dbg !3235
  %13 = load i32, ptr %3, align 4, !dbg !3238
  switch i32 %13, label %14 [
    i32 1, label %16
    i32 2, label %16
    i32 5, label %18
  ], !dbg !3239

14:                                               ; preds = %12
  %15 = load atomic i8, ptr %9 monotonic, align 1, !dbg !3239
  store i8 %15, ptr %5, align 1, !dbg !3239
  br label %23, !dbg !3239

16:                                               ; preds = %12, %12
  %17 = load atomic i8, ptr %9 acquire, align 1, !dbg !3239
  store i8 %17, ptr %5, align 1, !dbg !3239
  br label %23, !dbg !3239

18:                                               ; preds = %12
  %19 = load atomic i8, ptr %9 seq_cst, align 1, !dbg !3239
  store i8 %19, ptr %5, align 1, !dbg !3239
  br label %23, !dbg !3239

20:                                               ; preds = %1
  %21 = landingpad { ptr, i32 }
          catch ptr null, !dbg !3237
  %22 = extractvalue { ptr, i32 } %21, 0, !dbg !3237
  call void @__clang_call_terminate(ptr %22) #12, !dbg !3237
  unreachable, !dbg !3237

23:                                               ; preds = %14, %16, %18
  %24 = load i8, ptr %5, align 1, !dbg !3239
  %25 = trunc i8 %24 to i1, !dbg !3239
  ret i1 %25, !dbg !3240
}

; Function Attrs: mustprogress noinline nounwind uwtable
define dso_local noundef zeroext i1 @_ZN7SigUtil18getTerminationFlagEv() #5 !dbg !3241 {
  %1 = call noundef zeroext i1 @_ZNKSt6atomicIbEcvbEv(ptr noundef nonnull align 1 dereferenceable(1) @_ZL15TerminationFlag) #3, !dbg !3242
  ret i1 %1, !dbg !3243
}

; Function Attrs: mustprogress noinline nounwind uwtable
define dso_local void @_ZN7SigUtil18setTerminationFlagEv() #5 !dbg !3244 {
  %1 = call noundef zeroext i1 @_ZNSt6atomicIbEaSEb(ptr noundef nonnull align 1 dereferenceable(1) @_ZL15TerminationFlag, i1 noundef zeroext true) #3, !dbg !3245
  ret void, !dbg !3246
}

; Function Attrs: mustprogress noinline nounwind uwtable
define linkonce_odr dso_local noundef zeroext i1 @_ZNSt6atomicIbEaSEb(ptr noundef nonnull align 1 dereferenceable(1) %0, i1 noundef zeroext %1) #5 comdat align 2 !dbg !3247 {
  %3 = alloca ptr, align 8
  %4 = alloca i8, align 1
  store ptr %0, ptr %3, align 8
  call void @llvm.dbg.declare(metadata ptr %3, metadata !3248, metadata !DIExpression()), !dbg !3250
  %5 = zext i1 %1 to i8
  store i8 %5, ptr %4, align 1
  call void @llvm.dbg.declare(metadata ptr %4, metadata !3251, metadata !DIExpression()), !dbg !3252
  %6 = load ptr, ptr %3, align 8
  %7 = getelementptr inbounds %"struct.std::atomic", ptr %6, i32 0, i32 0, !dbg !3253
  %8 = load i8, ptr %4, align 1, !dbg !3254
  %9 = trunc i8 %8 to i1, !dbg !3254
  %10 = call noundef zeroext i1 @_ZNSt13__atomic_baseIbEaSEb(ptr noundef nonnull align 1 dereferenceable(1) %7, i1 noundef zeroext %9) #3, !dbg !3255
  ret i1 %10, !dbg !3256
}

; Function Attrs: mustprogress noinline uwtable
define dso_local void @_ZN7SigUtil20checkDumpGlobalStateEPFvvE(ptr noundef %0) #6 !dbg !3257 {
  %2 = alloca ptr, align 8
  store ptr %0, ptr %2, align 8
  call void @llvm.dbg.declare(metadata ptr %2, metadata !3261, metadata !DIExpression()), !dbg !3262
  %3 = call noundef zeroext i1 @_ZNKSt6atomicIbEcvbEv(ptr noundef nonnull align 1 dereferenceable(1) @_ZL15DumpGlobalState) #3, !dbg !3263
  br i1 %3, label %4, label %7, !dbg !3265

4:                                                ; preds = %1
  %5 = load ptr, ptr %2, align 8, !dbg !3266
  call void %5(), !dbg !3266
  %6 = call noundef zeroext i1 @_ZNSt6atomicIbEaSEb(ptr noundef nonnull align 1 dereferenceable(1) @_ZL15DumpGlobalState, i1 noundef zeroext false) #3, !dbg !3268
  br label %7, !dbg !3269

7:                                                ; preds = %4, %1
  ret void, !dbg !3270
}

; Function Attrs: nocallback nofree nosync nounwind speculatable willreturn memory(none)
declare void @llvm.dbg.declare(metadata, metadata, metadata) #7

; Function Attrs: mustprogress noinline nounwind uwtable
define dso_local void @_ZN7SigUtil29registerUnoCommandInfoHandlerEPFvvE(ptr noundef %0) #5 !dbg !3271 {
  %2 = alloca ptr, align 8
  store ptr %0, ptr %2, align 8
  call void @llvm.dbg.declare(metadata ptr %2, metadata !3274, metadata !DIExpression()), !dbg !3275
  %3 = load ptr, ptr %2, align 8, !dbg !3276
  store ptr %3, ptr @_ZN7SigUtil21dumpUnoCommandsInfoFnE, align 8, !dbg !3277
  ret void, !dbg !3278
}

; Function Attrs: mustprogress noinline uwtable
define dso_local void @_ZN7SigUtil18waitSigHandlerTrapEv() #6 !dbg !3279 {
  call void @_ZN7SigUtil14SigHandlerTrap4waitEv(), !dbg !3280
  ret void, !dbg !3281
}

; Function Attrs: mustprogress noinline uwtable
define linkonce_odr dso_local void @_ZN7SigUtil14SigHandlerTrap4waitEv() #6 comdat align 2 !dbg !3282 {
  br label %1, !dbg !3283

1:                                                ; preds = %4, %0
  %2 = call noundef i32 @_ZNKSt13__atomic_baseIiEcviEv(ptr noundef nonnull align 4 dereferenceable(4) @_ZN7SigUtil14SigHandlerTrap11SigHandlingE) #3, !dbg !3284
  %3 = icmp ne i32 %2, 0, !dbg !3284
  br i1 %3, label %4, label %6, !dbg !3283

4:                                                ; preds = %1
  %5 = call i32 @sleep(i32 noundef 1), !dbg !3285
  br label %1, !dbg !3283, !llvm.loop !3286

6:                                                ; preds = %1
  ret void, !dbg !3289
}

; Function Attrs: mustprogress noinline nounwind uwtable
define dso_local noundef ptr @_ZN7SigUtil10signalNameEi(i32 noundef %0) #5 !dbg !3290 {
  %2 = alloca ptr, align 8
  %3 = alloca i32, align 4
  store i32 %0, ptr %3, align 4
  call void @llvm.dbg.declare(metadata ptr %3, metadata !3293, metadata !DIExpression()), !dbg !3294
  %4 = load i32, ptr %3, align 4, !dbg !3295
  switch i32 %4, label %36 [
    i32 1, label %5
    i32 2, label %6
    i32 3, label %7
    i32 4, label %8
    i32 6, label %9
    i32 8, label %10
    i32 9, label %11
    i32 11, label %12
    i32 13, label %13
    i32 14, label %14
    i32 15, label %15
    i32 10, label %16
    i32 12, label %17
    i32 17, label %18
    i32 18, label %19
    i32 19, label %20
    i32 20, label %21
    i32 21, label %22
    i32 22, label %23
    i32 7, label %24
    i32 29, label %25
    i32 27, label %26
    i32 31, label %27
    i32 5, label %28
    i32 23, label %29
    i32 26, label %30
    i32 24, label %31
    i32 25, label %32
    i32 16, label %33
    i32 30, label %34
    i32 28, label %35
  ], !dbg !3296

5:                                                ; preds = %1
  store ptr @.str, ptr %2, align 8, !dbg !3297
  br label %37, !dbg !3297

6:                                                ; preds = %1
  store ptr @.str.2, ptr %2, align 8, !dbg !3299
  br label %37, !dbg !3299

7:                                                ; preds = %1
  store ptr @.str.3, ptr %2, align 8, !dbg !3300
  br label %37, !dbg !3300

8:                                                ; preds = %1
  store ptr @.str.4, ptr %2, align 8, !dbg !3301
  br label %37, !dbg !3301

9:                                                ; preds = %1
  store ptr @.str.5, ptr %2, align 8, !dbg !3302
  br label %37, !dbg !3302

10:                                               ; preds = %1
  store ptr @.str.6, ptr %2, align 8, !dbg !3303
  br label %37, !dbg !3303

11:                                               ; preds = %1
  store ptr @.str.7, ptr %2, align 8, !dbg !3304
  br label %37, !dbg !3304

12:                                               ; preds = %1
  store ptr @.str.8, ptr %2, align 8, !dbg !3305
  br label %37, !dbg !3305

13:                                               ; preds = %1
  store ptr @.str.9, ptr %2, align 8, !dbg !3306
  br label %37, !dbg !3306

14:                                               ; preds = %1
  store ptr @.str.10, ptr %2, align 8, !dbg !3307
  br label %37, !dbg !3307

15:                                               ; preds = %1
  store ptr @.str.11, ptr %2, align 8, !dbg !3308
  br label %37, !dbg !3308

16:                                               ; preds = %1
  store ptr @.str.12, ptr %2, align 8, !dbg !3309
  br label %37, !dbg !3309

17:                                               ; preds = %1
  store ptr @.str.13, ptr %2, align 8, !dbg !3310
  br label %37, !dbg !3310

18:                                               ; preds = %1
  store ptr @.str.14, ptr %2, align 8, !dbg !3311
  br label %37, !dbg !3311

19:                                               ; preds = %1
  store ptr @.str.15, ptr %2, align 8, !dbg !3312
  br label %37, !dbg !3312

20:                                               ; preds = %1
  store ptr @.str.16, ptr %2, align 8, !dbg !3313
  br label %37, !dbg !3313

21:                                               ; preds = %1
  store ptr @.str.17, ptr %2, align 8, !dbg !3314
  br label %37, !dbg !3314

22:                                               ; preds = %1
  store ptr @.str.18, ptr %2, align 8, !dbg !3315
  br label %37, !dbg !3315

23:                                               ; preds = %1
  store ptr @.str.19, ptr %2, align 8, !dbg !3316
  br label %37, !dbg !3316

24:                                               ; preds = %1
  store ptr @.str.20, ptr %2, align 8, !dbg !3317
  br label %37, !dbg !3317

25:                                               ; preds = %1
  store ptr @.str.21, ptr %2, align 8, !dbg !3318
  br label %37, !dbg !3318

26:                                               ; preds = %1
  store ptr @.str.22, ptr %2, align 8, !dbg !3319
  br label %37, !dbg !3319

27:                                               ; preds = %1
  store ptr @.str.23, ptr %2, align 8, !dbg !3320
  br label %37, !dbg !3320

28:                                               ; preds = %1
  store ptr @.str.24, ptr %2, align 8, !dbg !3321
  br label %37, !dbg !3321

29:                                               ; preds = %1
  store ptr @.str.25, ptr %2, align 8, !dbg !3322
  br label %37, !dbg !3322

30:                                               ; preds = %1
  store ptr @.str.26, ptr %2, align 8, !dbg !3323
  br label %37, !dbg !3323

31:                                               ; preds = %1
  store ptr @.str.27, ptr %2, align 8, !dbg !3324
  br label %37, !dbg !3324

32:                                               ; preds = %1
  store ptr @.str.28, ptr %2, align 8, !dbg !3325
  br label %37, !dbg !3325

33:                                               ; preds = %1
  store ptr @.str.29, ptr %2, align 8, !dbg !3326
  br label %37, !dbg !3326

34:                                               ; preds = %1
  store ptr @.str.30, ptr %2, align 8, !dbg !3327
  br label %37, !dbg !3327

35:                                               ; preds = %1
  store ptr @.str.31, ptr %2, align 8, !dbg !3328
  br label %37, !dbg !3328

36:                                               ; preds = %1
  store ptr @.str.32, ptr %2, align 8, !dbg !3329
  br label %37, !dbg !3329

37:                                               ; preds = %36, %35, %34, %33, %32, %31, %30, %29, %28, %27, %26, %25, %24, %23, %22, %21, %20, %19, %18, %17, %16, %15, %14, %13, %12, %11, %10, %9, %8, %7, %6, %5
  %38 = load ptr, ptr %2, align 8, !dbg !3330
  ret ptr %38, !dbg !3330
}

; Function Attrs: mustprogress noinline uwtable
define dso_local void @_ZN7SigUtil15requestShutdownEv() #6 !dbg !3331 {
  %1 = call noundef zeroext i1 @_ZNSt6atomicIbEaSEb(ptr noundef nonnull align 1 dereferenceable(1) @_ZL19ShutdownRequestFlag, i1 noundef zeroext true) #3, !dbg !3332
  call void @_ZN10SocketPoll11wakeupWorldEv(), !dbg !3333
  ret void, !dbg !3334
}

declare void @_ZN10SocketPoll11wakeupWorldEv() #1

; Function Attrs: mustprogress noinline nounwind uwtable
define dso_local void @_ZN7SigUtil21setTerminationSignalsEv() #5 !dbg !3335 {
  %1 = alloca %struct.sigaction, align 8
  call void @llvm.dbg.declare(metadata ptr %1, metadata !3336, metadata !DIExpression()), !dbg !3361
  %2 = getelementptr inbounds %struct.sigaction, ptr %1, i32 0, i32 1, !dbg !3362
  %3 = call i32 @sigemptyset(ptr noundef %2) #3, !dbg !3363
  %4 = getelementptr inbounds %struct.sigaction, ptr %1, i32 0, i32 2, !dbg !3364
  store i32 0, ptr %4, align 8, !dbg !3365
  %5 = getelementptr inbounds %struct.sigaction, ptr %1, i32 0, i32 0, !dbg !3366
  store ptr @_ZN7SigUtilL23handleTerminationSignalEi, ptr %5, align 8, !dbg !3367
  %6 = call i32 @sigaction(i32 noundef 2, ptr noundef %1, ptr noundef null) #3, !dbg !3368
  %7 = call i32 @sigaction(i32 noundef 15, ptr noundef %1, ptr noundef null) #3, !dbg !3369
  %8 = call i32 @sigaction(i32 noundef 3, ptr noundef %1, ptr noundef null) #3, !dbg !3370
  %9 = call i32 @sigaction(i32 noundef 1, ptr noundef %1, ptr noundef null) #3, !dbg !3371
  ret void, !dbg !3372
}

; Function Attrs: nounwind
declare i32 @sigemptyset(ptr noundef) #2

; Function Attrs: mustprogress noinline uwtable
define internal void @_ZN7SigUtilL23handleTerminationSignalEi(i32 noundef %0) #6 !dbg !3373 {
  %2 = alloca i32, align 4
  %3 = alloca i8, align 1
  %4 = alloca ptr, align 8
  store i32 %0, ptr %2, align 4
  call void @llvm.dbg.declare(metadata ptr %2, metadata !3376, metadata !DIExpression()), !dbg !3377
  call void @llvm.dbg.declare(metadata ptr %3, metadata !3378, metadata !DIExpression()), !dbg !3379
  store i8 0, ptr %3, align 1, !dbg !3379
  call void @llvm.dbg.declare(metadata ptr %4, metadata !3380, metadata !DIExpression()), !dbg !3381
  %5 = call noundef zeroext i1 @_ZNKSt6atomicIbEcvbEv(ptr noundef nonnull align 1 dereferenceable(1) @_ZL19ShutdownRequestFlag) #3, !dbg !3382
  br i1 %5, label %14, label %6, !dbg !3384

6:                                                ; preds = %1
  %7 = load i32, ptr %2, align 4, !dbg !3385
  %8 = icmp eq i32 %7, 2, !dbg !3386
  br i1 %8, label %12, label %9, !dbg !3387

9:                                                ; preds = %6
  %10 = load i32, ptr %2, align 4, !dbg !3388
  %11 = icmp eq i32 %10, 15, !dbg !3389
  br i1 %11, label %12, label %14, !dbg !3390

12:                                               ; preds = %9, %6
  store ptr @.str.53, ptr %4, align 8, !dbg !3391
  %13 = call noundef zeroext i1 @_ZNSt6atomicIbEaSEb(ptr noundef nonnull align 1 dereferenceable(1) @_ZL19ShutdownRequestFlag, i1 noundef zeroext true) #3, !dbg !3393
  br label %20, !dbg !3394

14:                                               ; preds = %9, %1
  %15 = call noundef zeroext i1 @_ZNKSt6atomicIbEcvbEv(ptr noundef nonnull align 1 dereferenceable(1) @_ZL15TerminationFlag) #3, !dbg !3395
  br i1 %15, label %18, label %16, !dbg !3397

16:                                               ; preds = %14
  store ptr @.str.54, ptr %4, align 8, !dbg !3398
  %17 = call noundef zeroext i1 @_ZNSt6atomicIbEaSEb(ptr noundef nonnull align 1 dereferenceable(1) @_ZL15TerminationFlag, i1 noundef zeroext true) #3, !dbg !3400
  br label %19, !dbg !3401

18:                                               ; preds = %14
  store ptr @.str.55, ptr %4, align 8, !dbg !3402
  store i8 1, ptr %3, align 1, !dbg !3404
  br label %19

19:                                               ; preds = %18, %16
  br label %20

20:                                               ; preds = %19, %12
  call void @_ZN3Log15signalLogPrefixEv(), !dbg !3405
  %21 = load ptr, ptr %4, align 8, !dbg !3406
  call void @_ZN3Log9signalLogEPKc(ptr noundef %21), !dbg !3407
  %22 = load i32, ptr %2, align 4, !dbg !3408
  %23 = call noundef ptr @_ZN7SigUtil10signalNameEi(i32 noundef %22), !dbg !3409
  call void @_ZN3Log9signalLogEPKc(ptr noundef %23), !dbg !3410
  call void @_ZN3Log9signalLogEPKc(ptr noundef @.str.41), !dbg !3411
  %24 = load i8, ptr %3, align 1, !dbg !3412
  %25 = trunc i8 %24 to i1, !dbg !3412
  br i1 %25, label %27, label %26, !dbg !3414

26:                                               ; preds = %20
  call void @_ZN10SocketPoll11wakeupWorldEv(), !dbg !3415
  br label %32, !dbg !3415

27:                                               ; preds = %20
  %28 = load i32, ptr %2, align 4, !dbg !3416
  %29 = call ptr @signal(i32 noundef %28, ptr noundef null) #3, !dbg !3418
  %30 = load i32, ptr %2, align 4, !dbg !3419
  %31 = call i32 @raise(i32 noundef %30) #3, !dbg !3420
  br label %32

32:                                               ; preds = %27, %26
  ret void, !dbg !3421
}

; Function Attrs: nounwind
declare i32 @sigaction(i32 noundef, ptr noundef, ptr noundef) #2

; Function Attrs: mustprogress noinline uwtable
define dso_local void @_ZN7SigUtil13dumpBacktraceEv() #6 personality ptr @__gxx_personality_v0 !dbg !3422 {
  %1 = alloca i32, align 4
  %2 = alloca [50 x ptr], align 16
  %3 = alloca i32, align 4
  %4 = alloca ptr, align 8
  %5 = alloca [1024 x i8], align 16
  %6 = alloca %"class.std::__cxx11::basic_ostringstream", align 8
  %7 = alloca %"class.std::__cxx11::basic_string", align 8
  %8 = alloca %"class.std::allocator", align 1
  %9 = alloca ptr, align 8
  %10 = alloca i32, align 4
  %11 = alloca %"class.Poco::Message", align 8
  %12 = alloca %"class.std::__cxx11::basic_string", align 8
  %13 = alloca ptr, align 8
  %14 = alloca [1024 x i8], align 16
  %15 = alloca %"class.std::__cxx11::basic_ostringstream", align 8
  %16 = alloca %"class.std::__cxx11::basic_string", align 8
  %17 = alloca %"class.std::allocator", align 1
  %18 = alloca %"class.Poco::Message", align 8
  %19 = alloca %"class.std::__cxx11::basic_string", align 8
  call void @_ZN3Log9signalLogEPKc(ptr noundef @.str.33), !dbg !3423
  %20 = call i32 @getpid() #3, !dbg !3424
  %21 = sext i32 %20 to i64, !dbg !3424
  call void @_ZN3Log15signalLogNumberEm(i64 noundef %21), !dbg !3425
  %22 = load ptr, ptr @_ZN7SigUtilL11VersionInfoE, align 8, !dbg !3426
  %23 = icmp ne ptr %22, null, !dbg !3426
  br i1 %23, label %24, label %26, !dbg !3428

24:                                               ; preds = %0
  call void @_ZN3Log9signalLogEPKc(ptr noundef @.str.34), !dbg !3429
  %25 = load ptr, ptr @_ZN7SigUtilL11VersionInfoE, align 8, !dbg !3431
  call void @_ZN3Log9signalLogEPKc(ptr noundef %25), !dbg !3432
  br label %26, !dbg !3433

26:                                               ; preds = %24, %0
  call void @_ZN3Log9signalLogEPKc(ptr noundef @.str.35), !dbg !3434
  call void @llvm.dbg.declare(metadata ptr %1, metadata !3435, metadata !DIExpression()), !dbg !3436
  store i32 50, ptr %1, align 4, !dbg !3436
  call void @llvm.dbg.declare(metadata ptr %2, metadata !3437, metadata !DIExpression()), !dbg !3441
  call void @llvm.dbg.declare(metadata ptr %3, metadata !3442, metadata !DIExpression()), !dbg !3443
  %27 = getelementptr inbounds [50 x ptr], ptr %2, i64 0, i64 0, !dbg !3444
  %28 = call i32 @backtrace(ptr noundef %27, i32 noundef 50), !dbg !3445
  store i32 %28, ptr %3, align 4, !dbg !3443
  %29 = load i32, ptr %3, align 4, !dbg !3446
  %30 = icmp sgt i32 %29, 0, !dbg !3448
  br i1 %30, label %31, label %34, !dbg !3449

31:                                               ; preds = %26
  %32 = getelementptr inbounds [50 x ptr], ptr %2, i64 0, i64 0, !dbg !3450
  %33 = load i32, ptr %3, align 4, !dbg !3452
  call void @backtrace_symbols_fd(ptr noundef %32, i32 noundef %33, i32 noundef 2) #3, !dbg !3453
  br label %34, !dbg !3454

34:                                               ; preds = %31, %26
  %35 = call ptr @getenv(ptr noundef @.str.36) #3, !dbg !3455
  %36 = icmp ne ptr %35, null, !dbg !3455
  br i1 %36, label %37, label %179, !dbg !3457

37:                                               ; preds = %34
  call void @_ZN3Log9signalLogEPKc(ptr noundef @_ZN7SigUtilL14FatalGdbStringE), !dbg !3458
  br label %38, !dbg !3460

38:                                               ; preds = %37
  call void @llvm.dbg.declare(metadata ptr %4, metadata !3461, metadata !DIExpression()), !dbg !3466
  %39 = call noundef nonnull align 8 dereferenceable(68) ptr @_ZN3Log6loggerEv(), !dbg !3466
  store ptr %39, ptr %4, align 8, !dbg !3466
  %40 = call noundef zeroext i1 @_ZN3Log16isShutdownCalledEv(), !dbg !3467
  br i1 %40, label %102, label %41, !dbg !3467

41:                                               ; preds = %38
  %42 = load ptr, ptr %4, align 8, !dbg !3467
  %43 = call noundef zeroext i1 @_ZNK4Poco6Logger5errorEv(ptr noundef nonnull align 8 dereferenceable(68) %42), !dbg !3467
  br i1 %43, label %44, label %102, !dbg !3466

44:                                               ; preds = %41
  call void @llvm.dbg.declare(metadata ptr %5, metadata !3469, metadata !DIExpression()), !dbg !3474
  call void @llvm.dbg.declare(metadata ptr %6, metadata !3475, metadata !DIExpression()), !dbg !3474
  %45 = getelementptr inbounds [1024 x i8], ptr %5, i64 0, i64 0, !dbg !3474
  %46 = call noundef ptr @_ZN3Log6prefixILi1023EEEPcS1_PKc(ptr noundef %45, ptr noundef @.str.37), !dbg !3474
  call void @_ZNSaIcEC1Ev(ptr noundef nonnull align 1 dereferenceable(1) %8) #3, !dbg !3474
  invoke void @_ZNSt7__cxx1112basic_stringIcSt11char_traitsIcESaIcEEC2IS3_EEPKcRKS3_(ptr noundef nonnull align 8 dereferenceable(32) %7, ptr noundef %46, ptr noundef nonnull align 1 dereferenceable(1) %8)
          to label %47 unwind label %79, !dbg !3474

47:                                               ; preds = %44
  invoke void @_ZNSt7__cxx1119basic_ostringstreamIcSt11char_traitsIcESaIcEEC1ERKNS_12basic_stringIcS2_S3_EESt13_Ios_Openmode(ptr noundef nonnull align 8 dereferenceable(112) %6, ptr noundef nonnull align 8 dereferenceable(32) %7, i32 noundef 2)
          to label %48 unwind label %83, !dbg !3474

48:                                               ; preds = %47
  call void @_ZNSt7__cxx1112basic_stringIcSt11char_traitsIcESaIcEED1Ev(ptr noundef nonnull align 8 dereferenceable(32) %7) #3, !dbg !3474
  call void @_ZNSaIcED1Ev(ptr noundef nonnull align 1 dereferenceable(1) %8) #3, !dbg !3474
  %49 = invoke noundef nonnull align 8 dereferenceable(8) ptr @_ZNSolsEPFRSt8ios_baseS0_E(ptr noundef nonnull align 8 dereferenceable(8) %6, ptr noundef @_ZSt9boolalphaRSt8ios_base)
          to label %50 unwind label %88, !dbg !3474

50:                                               ; preds = %48
  %51 = invoke noundef nonnull align 8 dereferenceable(8) ptr @_ZStlsISt11char_traitsIcEERSt13basic_ostreamIcT_ES5_PKc(ptr noundef nonnull align 8 dereferenceable(8) %49, ptr noundef @.str.38)
          to label %52 unwind label %88, !dbg !3474

52:                                               ; preds = %50
  %53 = call i32 @getpid() #3, !dbg !3474
  %54 = invoke noundef nonnull align 8 dereferenceable(8) ptr @_ZNSolsEi(ptr noundef nonnull align 8 dereferenceable(8) %51, i32 noundef %53)
          to label %55 unwind label %88, !dbg !3474

55:                                               ; preds = %52
  br label %56, !dbg !3474

56:                                               ; preds = %55
  %57 = invoke noundef nonnull align 8 dereferenceable(8) ptr @_ZStlsISt11char_traitsIcEERSt13basic_ostreamIcT_ES5_PKc(ptr noundef nonnull align 8 dereferenceable(8) %6, ptr noundef @.str.39)
          to label %58 unwind label %88, !dbg !3480

58:                                               ; preds = %56
  %59 = invoke noundef nonnull align 8 dereferenceable(8) ptr @_ZStlsISt11char_traitsIcEERSt13basic_ostreamIcT_ES5_PKc(ptr noundef nonnull align 8 dereferenceable(8) %57, ptr noundef @.str.40)
          to label %60 unwind label %88, !dbg !3480

60:                                               ; preds = %58
  %61 = invoke noundef nonnull align 8 dereferenceable(8) ptr @_ZStlsISt11char_traitsIcEERSt13basic_ostreamIcT_ES5_c(ptr noundef nonnull align 8 dereferenceable(8) %59, i8 noundef signext 58)
          to label %62 unwind label %88, !dbg !3480

62:                                               ; preds = %60
  %63 = invoke noundef nonnull align 8 dereferenceable(8) ptr @_ZNSolsEi(ptr noundef nonnull align 8 dereferenceable(8) %61, i32 noundef 306)
          to label %64 unwind label %88, !dbg !3480

64:                                               ; preds = %62
  %65 = invoke noundef nonnull align 8 dereferenceable(8) ptr @_ZNSo5flushEv(ptr noundef nonnull align 8 dereferenceable(8) %6)
          to label %66 unwind label %88, !dbg !3483

66:                                               ; preds = %64
  br label %67, !dbg !3483

67:                                               ; preds = %66
  br label %68, !dbg !3483

68:                                               ; preds = %67
  %69 = load ptr, ptr %4, align 8, !dbg !3474
  %70 = load ptr, ptr %4, align 8, !dbg !3474
  %71 = invoke noundef nonnull align 8 dereferenceable(32) ptr @_ZNK4Poco6Logger4nameB5cxx11Ev(ptr noundef nonnull align 8 dereferenceable(68) %70)
          to label %72 unwind label %88, !dbg !3474

72:                                               ; preds = %68
  invoke void @_ZNKSt7__cxx1119basic_ostringstreamIcSt11char_traitsIcESaIcEE3strEv(ptr sret(%"class.std::__cxx11::basic_string") align 8 %12, ptr noundef nonnull align 8 dereferenceable(112) %6)
          to label %73 unwind label %88, !dbg !3474

73:                                               ; preds = %72
  invoke void @_ZN4Poco7MessageC1ERKNSt7__cxx1112basic_stringIcSt11char_traitsIcESaIcEEES8_NS0_8PriorityE(ptr noundef nonnull align 8 dereferenceable(152) %11, ptr noundef nonnull align 8 dereferenceable(32) %71, ptr noundef nonnull align 8 dereferenceable(32) %12, i32 noundef 3)
          to label %74 unwind label %92, !dbg !3474

74:                                               ; preds = %73
  %75 = load ptr, ptr %69, align 8, !dbg !3474
  %76 = getelementptr inbounds ptr, ptr %75, i64 6, !dbg !3474
  %77 = load ptr, ptr %76, align 8, !dbg !3474
  invoke void %77(ptr noundef nonnull align 8 dereferenceable(68) %69, ptr noundef nonnull align 8 dereferenceable(152) %11)
          to label %78 unwind label %96, !dbg !3474

78:                                               ; preds = %74
  call void @_ZN4Poco7MessageD1Ev(ptr noundef nonnull align 8 dereferenceable(152) %11) #3, !dbg !3474
  call void @_ZNSt7__cxx1112basic_stringIcSt11char_traitsIcESaIcEED1Ev(ptr noundef nonnull align 8 dereferenceable(32) %12) #3, !dbg !3474
  call void @_ZNSt7__cxx1119basic_ostringstreamIcSt11char_traitsIcESaIcEED1Ev(ptr noundef nonnull align 8 dereferenceable(112) %6) #3, !dbg !3467
  br label %102, !dbg !3474

79:                                               ; preds = %44
  %80 = landingpad { ptr, i32 }
          cleanup, !dbg !3484
  %81 = extractvalue { ptr, i32 } %80, 0, !dbg !3484
  store ptr %81, ptr %9, align 8, !dbg !3484
  %82 = extractvalue { ptr, i32 } %80, 1, !dbg !3484
  store i32 %82, ptr %10, align 4, !dbg !3484
  br label %87, !dbg !3484

83:                                               ; preds = %47
  %84 = landingpad { ptr, i32 }
          cleanup, !dbg !3484
  %85 = extractvalue { ptr, i32 } %84, 0, !dbg !3484
  store ptr %85, ptr %9, align 8, !dbg !3484
  %86 = extractvalue { ptr, i32 } %84, 1, !dbg !3484
  store i32 %86, ptr %10, align 4, !dbg !3484
  call void @_ZNSt7__cxx1112basic_stringIcSt11char_traitsIcESaIcEED1Ev(ptr noundef nonnull align 8 dereferenceable(32) %7) #3, !dbg !3474
  br label %87, !dbg !3474

87:                                               ; preds = %83, %79
  call void @_ZNSaIcED1Ev(ptr noundef nonnull align 1 dereferenceable(1) %8) #3, !dbg !3474
  br label %180, !dbg !3474

88:                                               ; preds = %72, %68, %64, %62, %60, %58, %56, %52, %50, %48
  %89 = landingpad { ptr, i32 }
          cleanup, !dbg !3484
  %90 = extractvalue { ptr, i32 } %89, 0, !dbg !3484
  store ptr %90, ptr %9, align 8, !dbg !3484
  %91 = extractvalue { ptr, i32 } %89, 1, !dbg !3484
  store i32 %91, ptr %10, align 4, !dbg !3484
  br label %101, !dbg !3484

92:                                               ; preds = %73
  %93 = landingpad { ptr, i32 }
          cleanup, !dbg !3484
  %94 = extractvalue { ptr, i32 } %93, 0, !dbg !3484
  store ptr %94, ptr %9, align 8, !dbg !3484
  %95 = extractvalue { ptr, i32 } %93, 1, !dbg !3484
  store i32 %95, ptr %10, align 4, !dbg !3484
  br label %100, !dbg !3484

96:                                               ; preds = %74
  %97 = landingpad { ptr, i32 }
          cleanup, !dbg !3484
  %98 = extractvalue { ptr, i32 } %97, 0, !dbg !3484
  store ptr %98, ptr %9, align 8, !dbg !3484
  %99 = extractvalue { ptr, i32 } %97, 1, !dbg !3484
  store i32 %99, ptr %10, align 4, !dbg !3484
  call void @_ZN4Poco7MessageD1Ev(ptr noundef nonnull align 8 dereferenceable(152) %11) #3, !dbg !3474
  br label %100, !dbg !3474

100:                                              ; preds = %96, %92
  call void @_ZNSt7__cxx1112basic_stringIcSt11char_traitsIcESaIcEED1Ev(ptr noundef nonnull align 8 dereferenceable(32) %12) #3, !dbg !3474
  br label %101, !dbg !3474

101:                                              ; preds = %100, %88
  call void @_ZNSt7__cxx1119basic_ostringstreamIcSt11char_traitsIcESaIcEED1Ev(ptr noundef nonnull align 8 dereferenceable(112) %6) #3, !dbg !3467
  br label %180, !dbg !3467

102:                                              ; preds = %78, %41, %38
  br label %103, !dbg !3466

103:                                              ; preds = %102
  %104 = call noundef nonnull align 8 dereferenceable(8) ptr @_ZStlsISt11char_traitsIcEERSt13basic_ostreamIcT_ES5_PKc(ptr noundef nonnull align 8 dereferenceable(8) @_ZSt4cerr, ptr noundef @.str.38), !dbg !3485
  %105 = call i32 @getpid() #3, !dbg !3486
  %106 = call noundef nonnull align 8 dereferenceable(8) ptr @_ZNSolsEi(ptr noundef nonnull align 8 dereferenceable(8) %104, i32 noundef %105), !dbg !3487
  %107 = call noundef nonnull align 8 dereferenceable(8) ptr @_ZStlsISt11char_traitsIcEERSt13basic_ostreamIcT_ES5_PKc(ptr noundef nonnull align 8 dereferenceable(8) %106, ptr noundef @.str.41), !dbg !3488
  %108 = call i32 @sleep(i32 noundef 60), !dbg !3489
  br label %109, !dbg !3490

109:                                              ; preds = %103
  call void @llvm.dbg.declare(metadata ptr %13, metadata !3491, metadata !DIExpression()), !dbg !3493
  %110 = call noundef nonnull align 8 dereferenceable(68) ptr @_ZN3Log6loggerEv(), !dbg !3493
  store ptr %110, ptr %13, align 8, !dbg !3493
  %111 = call noundef zeroext i1 @_ZN3Log16isShutdownCalledEv(), !dbg !3494
  br i1 %111, label %173, label %112, !dbg !3494

112:                                              ; preds = %109
  %113 = load ptr, ptr %13, align 8, !dbg !3494
  %114 = call noundef zeroext i1 @_ZNK4Poco6Logger5errorEv(ptr noundef nonnull align 8 dereferenceable(68) %113), !dbg !3494
  br i1 %114, label %115, label %173, !dbg !3493

115:                                              ; preds = %112
  call void @llvm.dbg.declare(metadata ptr %14, metadata !3496, metadata !DIExpression()), !dbg !3498
  call void @llvm.dbg.declare(metadata ptr %15, metadata !3499, metadata !DIExpression()), !dbg !3498
  %116 = getelementptr inbounds [1024 x i8], ptr %14, i64 0, i64 0, !dbg !3498
  %117 = call noundef ptr @_ZN3Log6prefixILi1023EEEPcS1_PKc(ptr noundef %116, ptr noundef @.str.37), !dbg !3498
  call void @_ZNSaIcEC1Ev(ptr noundef nonnull align 1 dereferenceable(1) %17) #3, !dbg !3498
  invoke void @_ZNSt7__cxx1112basic_stringIcSt11char_traitsIcESaIcEEC2IS3_EEPKcRKS3_(ptr noundef nonnull align 8 dereferenceable(32) %16, ptr noundef %117, ptr noundef nonnull align 1 dereferenceable(1) %17)
          to label %118 unwind label %150, !dbg !3498

118:                                              ; preds = %115
  invoke void @_ZNSt7__cxx1119basic_ostringstreamIcSt11char_traitsIcESaIcEEC1ERKNS_12basic_stringIcS2_S3_EESt13_Ios_Openmode(ptr noundef nonnull align 8 dereferenceable(112) %15, ptr noundef nonnull align 8 dereferenceable(32) %16, i32 noundef 2)
          to label %119 unwind label %154, !dbg !3498

119:                                              ; preds = %118
  call void @_ZNSt7__cxx1112basic_stringIcSt11char_traitsIcESaIcEED1Ev(ptr noundef nonnull align 8 dereferenceable(32) %16) #3, !dbg !3498
  call void @_ZNSaIcED1Ev(ptr noundef nonnull align 1 dereferenceable(1) %17) #3, !dbg !3498
  %120 = invoke noundef nonnull align 8 dereferenceable(8) ptr @_ZNSolsEPFRSt8ios_baseS0_E(ptr noundef nonnull align 8 dereferenceable(8) %15, ptr noundef @_ZSt9boolalphaRSt8ios_base)
          to label %121 unwind label %159, !dbg !3498

121:                                              ; preds = %119
  %122 = invoke noundef nonnull align 8 dereferenceable(8) ptr @_ZStlsISt11char_traitsIcEERSt13basic_ostreamIcT_ES5_PKc(ptr noundef nonnull align 8 dereferenceable(8) %120, ptr noundef @.str.42)
          to label %123 unwind label %159, !dbg !3498

123:                                              ; preds = %121
  %124 = call i32 @getpid() #3, !dbg !3498
  %125 = invoke noundef nonnull align 8 dereferenceable(8) ptr @_ZNSolsEi(ptr noundef nonnull align 8 dereferenceable(8) %122, i32 noundef %124)
          to label %126 unwind label %159, !dbg !3498

126:                                              ; preds = %123
  br label %127, !dbg !3498

127:                                              ; preds = %126
  %128 = invoke noundef nonnull align 8 dereferenceable(8) ptr @_ZStlsISt11char_traitsIcEERSt13basic_ostreamIcT_ES5_PKc(ptr noundef nonnull align 8 dereferenceable(8) %15, ptr noundef @.str.39)
          to label %129 unwind label %159, !dbg !3500

129:                                              ; preds = %127
  %130 = invoke noundef nonnull align 8 dereferenceable(8) ptr @_ZStlsISt11char_traitsIcEERSt13basic_ostreamIcT_ES5_PKc(ptr noundef nonnull align 8 dereferenceable(8) %128, ptr noundef @.str.40)
          to label %131 unwind label %159, !dbg !3500

131:                                              ; preds = %129
  %132 = invoke noundef nonnull align 8 dereferenceable(8) ptr @_ZStlsISt11char_traitsIcEERSt13basic_ostreamIcT_ES5_c(ptr noundef nonnull align 8 dereferenceable(8) %130, i8 noundef signext 58)
          to label %133 unwind label %159, !dbg !3500

133:                                              ; preds = %131
  %134 = invoke noundef nonnull align 8 dereferenceable(8) ptr @_ZNSolsEi(ptr noundef nonnull align 8 dereferenceable(8) %132, i32 noundef 309)
          to label %135 unwind label %159, !dbg !3500

135:                                              ; preds = %133
  %136 = invoke noundef nonnull align 8 dereferenceable(8) ptr @_ZNSo5flushEv(ptr noundef nonnull align 8 dereferenceable(8) %15)
          to label %137 unwind label %159, !dbg !3503

137:                                              ; preds = %135
  br label %138, !dbg !3503

138:                                              ; preds = %137
  br label %139, !dbg !3503

139:                                              ; preds = %138
  %140 = load ptr, ptr %13, align 8, !dbg !3498
  %141 = load ptr, ptr %13, align 8, !dbg !3498
  %142 = invoke noundef nonnull align 8 dereferenceable(32) ptr @_ZNK4Poco6Logger4nameB5cxx11Ev(ptr noundef nonnull align 8 dereferenceable(68) %141)
          to label %143 unwind label %159, !dbg !3498

143:                                              ; preds = %139
  invoke void @_ZNKSt7__cxx1119basic_ostringstreamIcSt11char_traitsIcESaIcEE3strEv(ptr sret(%"class.std::__cxx11::basic_string") align 8 %19, ptr noundef nonnull align 8 dereferenceable(112) %15)
          to label %144 unwind label %159, !dbg !3498

144:                                              ; preds = %143
  invoke void @_ZN4Poco7MessageC1ERKNSt7__cxx1112basic_stringIcSt11char_traitsIcESaIcEEES8_NS0_8PriorityE(ptr noundef nonnull align 8 dereferenceable(152) %18, ptr noundef nonnull align 8 dereferenceable(32) %142, ptr noundef nonnull align 8 dereferenceable(32) %19, i32 noundef 3)
          to label %145 unwind label %163, !dbg !3498

145:                                              ; preds = %144
  %146 = load ptr, ptr %140, align 8, !dbg !3498
  %147 = getelementptr inbounds ptr, ptr %146, i64 6, !dbg !3498
  %148 = load ptr, ptr %147, align 8, !dbg !3498
  invoke void %148(ptr noundef nonnull align 8 dereferenceable(68) %140, ptr noundef nonnull align 8 dereferenceable(152) %18)
          to label %149 unwind label %167, !dbg !3498

149:                                              ; preds = %145
  call void @_ZN4Poco7MessageD1Ev(ptr noundef nonnull align 8 dereferenceable(152) %18) #3, !dbg !3498
  call void @_ZNSt7__cxx1112basic_stringIcSt11char_traitsIcESaIcEED1Ev(ptr noundef nonnull align 8 dereferenceable(32) %19) #3, !dbg !3498
  call void @_ZNSt7__cxx1119basic_ostringstreamIcSt11char_traitsIcESaIcEED1Ev(ptr noundef nonnull align 8 dereferenceable(112) %15) #3, !dbg !3494
  br label %173, !dbg !3498

150:                                              ; preds = %115
  %151 = landingpad { ptr, i32 }
          cleanup, !dbg !3504
  %152 = extractvalue { ptr, i32 } %151, 0, !dbg !3504
  store ptr %152, ptr %9, align 8, !dbg !3504
  %153 = extractvalue { ptr, i32 } %151, 1, !dbg !3504
  store i32 %153, ptr %10, align 4, !dbg !3504
  br label %158, !dbg !3504

154:                                              ; preds = %118
  %155 = landingpad { ptr, i32 }
          cleanup, !dbg !3504
  %156 = extractvalue { ptr, i32 } %155, 0, !dbg !3504
  store ptr %156, ptr %9, align 8, !dbg !3504
  %157 = extractvalue { ptr, i32 } %155, 1, !dbg !3504
  store i32 %157, ptr %10, align 4, !dbg !3504
  call void @_ZNSt7__cxx1112basic_stringIcSt11char_traitsIcESaIcEED1Ev(ptr noundef nonnull align 8 dereferenceable(32) %16) #3, !dbg !3498
  br label %158, !dbg !3498

158:                                              ; preds = %154, %150
  call void @_ZNSaIcED1Ev(ptr noundef nonnull align 1 dereferenceable(1) %17) #3, !dbg !3498
  br label %180, !dbg !3498

159:                                              ; preds = %143, %139, %135, %133, %131, %129, %127, %123, %121, %119
  %160 = landingpad { ptr, i32 }
          cleanup, !dbg !3504
  %161 = extractvalue { ptr, i32 } %160, 0, !dbg !3504
  store ptr %161, ptr %9, align 8, !dbg !3504
  %162 = extractvalue { ptr, i32 } %160, 1, !dbg !3504
  store i32 %162, ptr %10, align 4, !dbg !3504
  br label %172, !dbg !3504

163:                                              ; preds = %144
  %164 = landingpad { ptr, i32 }
          cleanup, !dbg !3504
  %165 = extractvalue { ptr, i32 } %164, 0, !dbg !3504
  store ptr %165, ptr %9, align 8, !dbg !3504
  %166 = extractvalue { ptr, i32 } %164, 1, !dbg !3504
  store i32 %166, ptr %10, align 4, !dbg !3504
  br label %171, !dbg !3504

167:                                              ; preds = %145
  %168 = landingpad { ptr, i32 }
          cleanup, !dbg !3504
  %169 = extractvalue { ptr, i32 } %168, 0, !dbg !3504
  store ptr %169, ptr %9, align 8, !dbg !3504
  %170 = extractvalue { ptr, i32 } %168, 1, !dbg !3504
  store i32 %170, ptr %10, align 4, !dbg !3504
  call void @_ZN4Poco7MessageD1Ev(ptr noundef nonnull align 8 dereferenceable(152) %18) #3, !dbg !3498
  br label %171, !dbg !3498

171:                                              ; preds = %167, %163
  call void @_ZNSt7__cxx1112basic_stringIcSt11char_traitsIcESaIcEED1Ev(ptr noundef nonnull align 8 dereferenceable(32) %19) #3, !dbg !3498
  br label %172, !dbg !3498

172:                                              ; preds = %171, %159
  call void @_ZNSt7__cxx1119basic_ostringstreamIcSt11char_traitsIcESaIcEED1Ev(ptr noundef nonnull align 8 dereferenceable(112) %15) #3, !dbg !3494
  br label %180, !dbg !3494

173:                                              ; preds = %149, %112, %109
  br label %174, !dbg !3493

174:                                              ; preds = %173
  %175 = call noundef nonnull align 8 dereferenceable(8) ptr @_ZStlsISt11char_traitsIcEERSt13basic_ostreamIcT_ES5_PKc(ptr noundef nonnull align 8 dereferenceable(8) @_ZSt4cerr, ptr noundef @.str.42), !dbg !3505
  %176 = call i32 @getpid() #3, !dbg !3506
  %177 = call noundef nonnull align 8 dereferenceable(8) ptr @_ZNSolsEi(ptr noundef nonnull align 8 dereferenceable(8) %175, i32 noundef %176), !dbg !3507
  %178 = call noundef nonnull align 8 dereferenceable(8) ptr @_ZStlsISt11char_traitsIcEERSt13basic_ostreamIcT_ES5_PKc(ptr noundef nonnull align 8 dereferenceable(8) %177, ptr noundef @.str.41), !dbg !3508
  br label %179, !dbg !3509

179:                                              ; preds = %174, %34
  ret void, !dbg !3510

180:                                              ; preds = %172, %158, %101, %87
  %181 = load ptr, ptr %9, align 8, !dbg !3474
  %182 = load i32, ptr %10, align 4, !dbg !3474
  %183 = insertvalue { ptr, i32 } poison, ptr %181, 0, !dbg !3474
  %184 = insertvalue { ptr, i32 } %183, i32 %182, 1, !dbg !3474
  resume { ptr, i32 } %184, !dbg !3474
}

declare void @_ZN3Log9signalLogEPKc(ptr noundef) #1

declare void @_ZN3Log15signalLogNumberEm(i64 noundef) #1

; Function Attrs: nounwind
declare i32 @getpid() #2

declare i32 @backtrace(ptr noundef, i32 noundef) #1

; Function Attrs: nounwind
declare void @backtrace_symbols_fd(ptr noundef, i32 noundef, i32 noundef) #2

; Function Attrs: nounwind
declare ptr @getenv(ptr noundef) #2

declare noundef nonnull align 8 dereferenceable(68) ptr @_ZN3Log6loggerEv() #1

; Function Attrs: mustprogress noinline nounwind uwtable
define linkonce_odr dso_local noundef zeroext i1 @_ZN3Log16isShutdownCalledEv() #5 comdat !dbg !3511 {
  %1 = load i8, ptr @_ZN3Log10IsShutdownE, align 1, !dbg !3512
  %2 = trunc i8 %1 to i1, !dbg !3512
  ret i1 %2, !dbg !3513
}

; Function Attrs: mustprogress noinline nounwind uwtable
define linkonce_odr dso_local noundef zeroext i1 @_ZNK4Poco6Logger5errorEv(ptr noundef nonnull align 8 dereferenceable(68) %0) #5 comdat align 2 !dbg !3514 {
  %2 = alloca ptr, align 8
  store ptr %0, ptr %2, align 8
  call void @llvm.dbg.declare(metadata ptr %2, metadata !3520, metadata !DIExpression()), !dbg !3522
  %3 = load ptr, ptr %2, align 8
  %4 = getelementptr inbounds %"class.Poco::Logger", ptr %3, i32 0, i32 4, !dbg !3523
  %5 = load i32, ptr %4, align 8, !dbg !3523
  %6 = icmp sge i32 %5, 3, !dbg !3524
  ret i1 %6, !dbg !3525
}

; Function Attrs: mustprogress noinline uwtable
define linkonce_odr dso_local noundef ptr @_ZN3Log6prefixILi1023EEEPcS1_PKc(ptr noundef %0, ptr noundef %1) #6 comdat personality ptr @__gxx_personality_v0 !dbg !3526 {
  %3 = alloca ptr, align 8
  %4 = alloca ptr, align 8
  %5 = alloca %"class.Poco::LocalDateTime", align 8
  %6 = alloca ptr, align 8
  %7 = alloca i32, align 4
  store ptr %0, ptr %3, align 8
  call void @llvm.dbg.declare(metadata ptr %3, metadata !3531, metadata !DIExpression()), !dbg !3532
  store ptr %1, ptr %4, align 8
  call void @llvm.dbg.declare(metadata ptr %4, metadata !3533, metadata !DIExpression()), !dbg !3534
  call void @_ZN4Poco13LocalDateTimeC1Ev(ptr noundef nonnull align 8 dereferenceable(28) %5), !dbg !3535
  %8 = load ptr, ptr %3, align 8, !dbg !3536
  %9 = load ptr, ptr %4, align 8, !dbg !3537
  %10 = invoke noundef ptr @_ZN3Log6prefixERKN4Poco13LocalDateTimeEPcPKc(ptr noundef nonnull align 8 dereferenceable(28) %5, ptr noundef %8, ptr noundef %9)
          to label %11 unwind label %12, !dbg !3538

11:                                               ; preds = %2
  call void @_ZN4Poco13LocalDateTimeD1Ev(ptr noundef nonnull align 8 dereferenceable(28) %5) #3, !dbg !3539
  ret ptr %10, !dbg !3539

12:                                               ; preds = %2
  %13 = landingpad { ptr, i32 }
          cleanup, !dbg !3540
  %14 = extractvalue { ptr, i32 } %13, 0, !dbg !3540
  store ptr %14, ptr %6, align 8, !dbg !3540
  %15 = extractvalue { ptr, i32 } %13, 1, !dbg !3540
  store i32 %15, ptr %7, align 4, !dbg !3540
  call void @_ZN4Poco13LocalDateTimeD1Ev(ptr noundef nonnull align 8 dereferenceable(28) %5) #3, !dbg !3539
  br label %16, !dbg !3539

16:                                               ; preds = %12
  %17 = load ptr, ptr %6, align 8, !dbg !3539
  %18 = load i32, ptr %7, align 4, !dbg !3539
  %19 = insertvalue { ptr, i32 } poison, ptr %17, 0, !dbg !3539
  %20 = insertvalue { ptr, i32 } %19, i32 %18, 1, !dbg !3539
  resume { ptr, i32 } %20, !dbg !3539
}

; Function Attrs: nounwind
declare void @_ZNSaIcEC1Ev(ptr noundef nonnull align 1 dereferenceable(1)) unnamed_addr #2

; Function Attrs: noinline uwtable
define linkonce_odr dso_local void @_ZNSt7__cxx1112basic_stringIcSt11char_traitsIcESaIcEEC2IS3_EEPKcRKS3_(ptr noundef nonnull align 8 dereferenceable(32) %0, ptr noundef %1, ptr noundef nonnull align 1 dereferenceable(1) %2) unnamed_addr #0 comdat align 2 personality ptr @__gxx_personality_v0 !dbg !3541 {
  %4 = alloca ptr, align 8
  %5 = alloca ptr, align 8
  %6 = alloca ptr, align 8
  %7 = alloca ptr, align 8
  %8 = alloca ptr, align 8
  %9 = alloca i32, align 4
  %10 = alloca %"struct.std::forward_iterator_tag", align 1
  %11 = alloca %"struct.std::random_access_iterator_tag", align 1
  store ptr %0, ptr %4, align 8
  call void @llvm.dbg.declare(metadata ptr %4, metadata !3547, metadata !DIExpression()), !dbg !3549
  store ptr %1, ptr %5, align 8
  call void @llvm.dbg.declare(metadata ptr %5, metadata !3550, metadata !DIExpression()), !dbg !3551
  store ptr %2, ptr %6, align 8
  call void @llvm.dbg.declare(metadata ptr %6, metadata !3552, metadata !DIExpression()), !dbg !3553
  %12 = load ptr, ptr %4, align 8
  %13 = getelementptr inbounds %"class.std::__cxx11::basic_string", ptr %12, i32 0, i32 0, !dbg !3554
  %14 = call noundef ptr @_ZNSt7__cxx1112basic_stringIcSt11char_traitsIcESaIcEE13_M_local_dataEv(ptr noundef nonnull align 8 dereferenceable(32) %12), !dbg !3555
  %15 = load ptr, ptr %6, align 8, !dbg !3556
  call void @_ZNSt7__cxx1112basic_stringIcSt11char_traitsIcESaIcEE12_Alloc_hiderC1EPcRKS3_(ptr noundef nonnull align 8 dereferenceable(8) %13, ptr noundef %14, ptr noundef nonnull align 1 dereferenceable(1) %15), !dbg !3554
  call void @llvm.dbg.declare(metadata ptr %7, metadata !3557, metadata !DIExpression()), !dbg !3559
  %16 = load ptr, ptr %5, align 8, !dbg !3560
  %17 = icmp ne ptr %16, null, !dbg !3560
  br i1 %17, label %18, label %24, !dbg !3560

18:                                               ; preds = %3
  %19 = load ptr, ptr %5, align 8, !dbg !3561
  %20 = load ptr, ptr %5, align 8, !dbg !3562
  %21 = invoke noundef i64 @_ZNSt11char_traitsIcE6lengthEPKc(ptr noundef %20)
          to label %22 unwind label %30, !dbg !3563

22:                                               ; preds = %18
  %23 = getelementptr inbounds i8, ptr %19, i64 %21, !dbg !3564
  br label %25, !dbg !3560

24:                                               ; preds = %3
  br label %25, !dbg !3560

25:                                               ; preds = %24, %22
  %26 = phi ptr [ %23, %22 ], [ inttoptr (i64 1 to ptr), %24 ], !dbg !3560
  store ptr %26, ptr %7, align 8, !dbg !3559
  %27 = load ptr, ptr %5, align 8, !dbg !3565
  %28 = load ptr, ptr %7, align 8, !dbg !3566
  invoke void @_ZNSt7__cxx1112basic_stringIcSt11char_traitsIcESaIcEE12_M_constructIPKcEEvT_S8_St20forward_iterator_tag(ptr noundef nonnull align 8 dereferenceable(32) %12, ptr noundef %27, ptr noundef %28)
          to label %29 unwind label %30, !dbg !3567

29:                                               ; preds = %25
  ret void, !dbg !3568

30:                                               ; preds = %25, %18
  %31 = landingpad { ptr, i32 }
          cleanup, !dbg !3569
  %32 = extractvalue { ptr, i32 } %31, 0, !dbg !3569
  store ptr %32, ptr %8, align 8, !dbg !3569
  %33 = extractvalue { ptr, i32 } %31, 1, !dbg !3569
  store i32 %33, ptr %9, align 4, !dbg !3569
  call void @_ZNSt7__cxx1112basic_stringIcSt11char_traitsIcESaIcEE12_Alloc_hiderD2Ev(ptr noundef nonnull align 8 dereferenceable(8) %13) #3, !dbg !3569
  br label %34, !dbg !3569

34:                                               ; preds = %30
  %35 = load ptr, ptr %8, align 8, !dbg !3569
  %36 = load i32, ptr %9, align 4, !dbg !3569
  %37 = insertvalue { ptr, i32 } poison, ptr %35, 0, !dbg !3569
  %38 = insertvalue { ptr, i32 } %37, i32 %36, 1, !dbg !3569
  resume { ptr, i32 } %38, !dbg !3569
}

declare i32 @__gxx_personality_v0(...)

declare void @_ZNSt7__cxx1119basic_ostringstreamIcSt11char_traitsIcESaIcEEC1ERKNS_12basic_stringIcS2_S3_EESt13_Ios_Openmode(ptr noundef nonnull align 8 dereferenceable(112), ptr noundef nonnull align 8 dereferenceable(32), i32 noundef) unnamed_addr #1

; Function Attrs: nounwind
declare void @_ZNSt7__cxx1112basic_stringIcSt11char_traitsIcESaIcEED1Ev(ptr noundef nonnull align 8 dereferenceable(32)) unnamed_addr #2

; Function Attrs: nounwind
declare void @_ZNSaIcED1Ev(ptr noundef nonnull align 1 dereferenceable(1)) unnamed_addr #2

declare noundef nonnull align 8 dereferenceable(8) ptr @_ZStlsISt11char_traitsIcEERSt13basic_ostreamIcT_ES5_PKc(ptr noundef nonnull align 8 dereferenceable(8), ptr noundef) #1

declare noundef nonnull align 8 dereferenceable(8) ptr @_ZNSolsEPFRSt8ios_baseS0_E(ptr noundef nonnull align 8 dereferenceable(8), ptr noundef) #1

; Function Attrs: mustprogress noinline uwtable
define linkonce_odr dso_local noundef nonnull align 8 dereferenceable(216) ptr @_ZSt9boolalphaRSt8ios_base(ptr noundef nonnull align 8 dereferenceable(216) %0) #6 comdat !dbg !3570 {
  %2 = alloca ptr, align 8
  store ptr %0, ptr %2, align 8
  call void @llvm.dbg.declare(metadata ptr %2, metadata !3574, metadata !DIExpression()), !dbg !3575
  %3 = load ptr, ptr %2, align 8, !dbg !3576
  %4 = call noundef i32 @_ZNSt8ios_base4setfESt13_Ios_Fmtflags(ptr noundef nonnull align 8 dereferenceable(216) %3, i32 noundef 1), !dbg !3577
  %5 = load ptr, ptr %2, align 8, !dbg !3578
  ret ptr %5, !dbg !3579
}

declare noundef nonnull align 8 dereferenceable(8) ptr @_ZNSolsEi(ptr noundef nonnull align 8 dereferenceable(8), i32 noundef) #1

declare noundef nonnull align 8 dereferenceable(8) ptr @_ZStlsISt11char_traitsIcEERSt13basic_ostreamIcT_ES5_c(ptr noundef nonnull align 8 dereferenceable(8), i8 noundef signext) #1

declare noundef nonnull align 8 dereferenceable(8) ptr @_ZNSo5flushEv(ptr noundef nonnull align 8 dereferenceable(8)) #1

; Function Attrs: mustprogress noinline nounwind uwtable
define linkonce_odr dso_local noundef nonnull align 8 dereferenceable(32) ptr @_ZNK4Poco6Logger4nameB5cxx11Ev(ptr noundef nonnull align 8 dereferenceable(68) %0) #5 comdat align 2 !dbg !3580 {
  %2 = alloca ptr, align 8
  store ptr %0, ptr %2, align 8
  call void @llvm.dbg.declare(metadata ptr %2, metadata !3588, metadata !DIExpression()), !dbg !3589
  %3 = load ptr, ptr %2, align 8
  %4 = getelementptr inbounds %"class.Poco::Logger", ptr %3, i32 0, i32 2, !dbg !3590
  ret ptr %4, !dbg !3591
}

declare void @_ZNKSt7__cxx1119basic_ostringstreamIcSt11char_traitsIcESaIcEE3strEv(ptr sret(%"class.std::__cxx11::basic_string") align 8, ptr noundef nonnull align 8 dereferenceable(112)) #1

declare void @_ZN4Poco7MessageC1ERKNSt7__cxx1112basic_stringIcSt11char_traitsIcESaIcEEES8_NS0_8PriorityE(ptr noundef nonnull align 8 dereferenceable(152), ptr noundef nonnull align 8 dereferenceable(32), ptr noundef nonnull align 8 dereferenceable(32), i32 noundef) unnamed_addr #1

; Function Attrs: nounwind
declare void @_ZN4Poco7MessageD1Ev(ptr noundef nonnull align 8 dereferenceable(152)) unnamed_addr #2

; Function Attrs: nounwind
declare void @_ZNSt7__cxx1119basic_ostringstreamIcSt11char_traitsIcESaIcEED1Ev(ptr noundef nonnull align 8 dereferenceable(112)) unnamed_addr #2

declare i32 @sleep(i32 noundef) #1

; Function Attrs: mustprogress noinline nounwind uwtable
define dso_local void @_ZN7SigUtil14setVersionInfoERKNSt7__cxx1112basic_stringIcSt11char_traitsIcESaIcEEE(ptr noundef nonnull align 8 dereferenceable(32) %0) #5 !dbg !3592 {
  %2 = alloca ptr, align 8
  store ptr %0, ptr %2, align 8
  call void @llvm.dbg.declare(metadata ptr %2, metadata !3595, metadata !DIExpression()), !dbg !3596
  %3 = load ptr, ptr @_ZN7SigUtilL11VersionInfoE, align 8, !dbg !3597
  %4 = icmp ne ptr %3, null, !dbg !3597
  br i1 %4, label %5, label %7, !dbg !3599

5:                                                ; preds = %1
  %6 = load ptr, ptr @_ZN7SigUtilL11VersionInfoE, align 8, !dbg !3600
  call void @free(ptr noundef %6) #3, !dbg !3601
  br label %7, !dbg !3601

7:                                                ; preds = %5, %1
  %8 = load ptr, ptr %2, align 8, !dbg !3602
  %9 = call noundef ptr @_ZNKSt7__cxx1112basic_stringIcSt11char_traitsIcESaIcEE5c_strEv(ptr noundef nonnull align 8 dereferenceable(32) %8) #3, !dbg !3603
  %10 = call noalias ptr @strdup(ptr noundef %9) #3, !dbg !3604
  store ptr %10, ptr @_ZN7SigUtilL11VersionInfoE, align 8, !dbg !3605
  ret void, !dbg !3606
}

; Function Attrs: nounwind
declare void @free(ptr noundef) #2

; Function Attrs: nounwind
declare noalias ptr @strdup(ptr noundef) #2

; Function Attrs: nounwind
declare noundef ptr @_ZNKSt7__cxx1112basic_stringIcSt11char_traitsIcESaIcEE5c_strEv(ptr noundef nonnull align 8 dereferenceable(32)) #2

; Function Attrs: mustprogress noinline uwtable
define dso_local void @_ZN7SigUtil15setFatalSignalsERKNSt7__cxx1112basic_stringIcSt11char_traitsIcESaIcEEE(ptr noundef nonnull align 8 dereferenceable(32) %0) #6 personality ptr @__gxx_personality_v0 !dbg !3607 {
  %2 = alloca ptr, align 8
  %3 = alloca %struct.sigaction, align 8
  %4 = alloca %"class.std::__cxx11::basic_ostringstream", align 8
  %5 = alloca ptr, align 8
  %6 = alloca i32, align 4
  %7 = alloca %"class.std::__cxx11::basic_string", align 8
  store ptr %0, ptr %2, align 8
  call void @llvm.dbg.declare(metadata ptr %2, metadata !3608, metadata !DIExpression()), !dbg !3609
  call void @llvm.dbg.declare(metadata ptr %3, metadata !3610, metadata !DIExpression()), !dbg !3611
  %8 = load ptr, ptr %2, align 8, !dbg !3612
  call void @_ZN7SigUtil14setVersionInfoERKNSt7__cxx1112basic_stringIcSt11char_traitsIcESaIcEEE(ptr noundef nonnull align 8 dereferenceable(32) %8), !dbg !3613
  %9 = getelementptr inbounds %struct.sigaction, ptr %3, i32 0, i32 1, !dbg !3614
  %10 = call i32 @sigemptyset(ptr noundef %9) #3, !dbg !3615
  %11 = getelementptr inbounds %struct.sigaction, ptr %3, i32 0, i32 2, !dbg !3616
  store i32 0, ptr %11, align 8, !dbg !3617
  %12 = getelementptr inbounds %struct.sigaction, ptr %3, i32 0, i32 0, !dbg !3618
  store ptr @_ZN7SigUtilL17handleFatalSignalEi, ptr %12, align 8, !dbg !3619
  %13 = call i32 @sigaction(i32 noundef 11, ptr noundef %3, ptr noundef null) #3, !dbg !3620
  %14 = call i32 @sigaction(i32 noundef 7, ptr noundef %3, ptr noundef null) #3, !dbg !3621
  %15 = call i32 @sigaction(i32 noundef 6, ptr noundef %3, ptr noundef null) #3, !dbg !3622
  %16 = call i32 @sigaction(i32 noundef 4, ptr noundef %3, ptr noundef null) #3, !dbg !3623
  %17 = call i32 @sigaction(i32 noundef 8, ptr noundef %3, ptr noundef null) #3, !dbg !3624
  call void @llvm.dbg.declare(metadata ptr %4, metadata !3625, metadata !DIExpression()), !dbg !3626
  call void @_ZNSt7__cxx1119basic_ostringstreamIcSt11char_traitsIcESaIcEEC1Ev(ptr noundef nonnull align 8 dereferenceable(112) %4), !dbg !3626
  %18 = invoke noundef nonnull align 8 dereferenceable(8) ptr @_ZStlsISt11char_traitsIcEERSt13basic_ostreamIcT_ES5_PKc(ptr noundef nonnull align 8 dereferenceable(8) %4, ptr noundef @.str.43)
          to label %19 unwind label %37, !dbg !3627

19:                                               ; preds = %1
  %20 = invoke noundef nonnull align 8 dereferenceable(8) ptr @_ZStlsISt11char_traitsIcEERSt13basic_ostreamIcT_ES5_PKc(ptr noundef nonnull align 8 dereferenceable(8) %18, ptr noundef @.str.44)
          to label %21 unwind label %37, !dbg !3628

21:                                               ; preds = %19
  %22 = call i32 @getpid() #3, !dbg !3629
  %23 = invoke noundef nonnull align 8 dereferenceable(8) ptr @_ZNSolsEi(ptr noundef nonnull align 8 dereferenceable(8) %20, i32 noundef %22)
          to label %24 unwind label %37, !dbg !3630

24:                                               ; preds = %21
  %25 = invoke noundef nonnull align 8 dereferenceable(8) ptr @_ZStlsISt11char_traitsIcEERSt13basic_ostreamIcT_ES5_PKc(ptr noundef nonnull align 8 dereferenceable(8) %23, ptr noundef @.str.45)
          to label %26 unwind label %37, !dbg !3631

26:                                               ; preds = %24
  %27 = invoke noundef nonnull align 8 dereferenceable(8) ptr @_ZStlsISt11char_traitsIcEERSt13basic_ostreamIcT_ES5_PKc(ptr noundef nonnull align 8 dereferenceable(8) %25, ptr noundef @.str.46)
          to label %28 unwind label %37, !dbg !3632

28:                                               ; preds = %26
  %29 = call i32 @getpid() #3, !dbg !3633
  %30 = invoke noundef nonnull align 8 dereferenceable(8) ptr @_ZNSolsEi(ptr noundef nonnull align 8 dereferenceable(8) %27, i32 noundef %29)
          to label %31 unwind label %37, !dbg !3634

31:                                               ; preds = %28
  %32 = invoke noundef nonnull align 8 dereferenceable(8) ptr @_ZStlsISt11char_traitsIcEERSt13basic_ostreamIcT_ES5_c(ptr noundef nonnull align 8 dereferenceable(8) %30, i8 noundef signext 10)
          to label %33 unwind label %37, !dbg !3635

33:                                               ; preds = %31
  call void @llvm.dbg.declare(metadata ptr %7, metadata !3636, metadata !DIExpression()), !dbg !3637
  invoke void @_ZNKSt7__cxx1119basic_ostringstreamIcSt11char_traitsIcESaIcEE3strEv(ptr sret(%"class.std::__cxx11::basic_string") align 8 %7, ptr noundef nonnull align 8 dereferenceable(112) %4)
          to label %34 unwind label %37, !dbg !3638

34:                                               ; preds = %33
  %35 = call noundef ptr @_ZNKSt7__cxx1112basic_stringIcSt11char_traitsIcESaIcEE5c_strEv(ptr noundef nonnull align 8 dereferenceable(32) %7) #3, !dbg !3639
  %36 = call ptr @strncpy(ptr noundef @_ZN7SigUtilL14FatalGdbStringE, ptr noundef %35, i64 noundef 255) #3, !dbg !3640
  store i8 0, ptr getelementptr inbounds ([256 x i8], ptr @_ZN7SigUtilL14FatalGdbStringE, i64 0, i64 255), align 1, !dbg !3641
  call void @_ZNSt7__cxx1112basic_stringIcSt11char_traitsIcESaIcEED1Ev(ptr noundef nonnull align 8 dereferenceable(32) %7) #3, !dbg !3642
  call void @_ZNSt7__cxx1119basic_ostringstreamIcSt11char_traitsIcESaIcEED1Ev(ptr noundef nonnull align 8 dereferenceable(112) %4) #3, !dbg !3642
  ret void, !dbg !3642

37:                                               ; preds = %33, %31, %28, %26, %24, %21, %19, %1
  %38 = landingpad { ptr, i32 }
          cleanup, !dbg !3642
  %39 = extractvalue { ptr, i32 } %38, 0, !dbg !3642
  store ptr %39, ptr %5, align 8, !dbg !3642
  %40 = extractvalue { ptr, i32 } %38, 1, !dbg !3642
  store i32 %40, ptr %6, align 4, !dbg !3642
  call void @_ZNSt7__cxx1119basic_ostringstreamIcSt11char_traitsIcESaIcEED1Ev(ptr noundef nonnull align 8 dereferenceable(112) %4) #3, !dbg !3642
  br label %41, !dbg !3642

41:                                               ; preds = %37
  %42 = load ptr, ptr %5, align 8, !dbg !3642
  %43 = load i32, ptr %6, align 4, !dbg !3642
  %44 = insertvalue { ptr, i32 } poison, ptr %42, 0, !dbg !3642
  %45 = insertvalue { ptr, i32 } %44, i32 %43, 1, !dbg !3642
  resume { ptr, i32 } %45, !dbg !3642
}

; Function Attrs: mustprogress noinline uwtable
define internal void @_ZN7SigUtilL17handleFatalSignalEi(i32 noundef %0) #6 personality ptr @__gxx_personality_v0 !dbg !3643 {
  %2 = alloca i32, align 4
  %3 = alloca %"class.SigUtil::SigHandlerTrap", align 1
  %4 = alloca i8, align 1
  %5 = alloca ptr, align 8
  %6 = alloca i32, align 4
  %7 = alloca %struct.sigaction, align 8
  store i32 %0, ptr %2, align 4
  call void @llvm.dbg.declare(metadata ptr %2, metadata !3644, metadata !DIExpression()), !dbg !3645
  call void @llvm.dbg.declare(metadata ptr %3, metadata !3646, metadata !DIExpression()), !dbg !3647
  call void @_ZN7SigUtil14SigHandlerTrapC2Ev(ptr noundef nonnull align 1 dereferenceable(1) %3), !dbg !3647
  call void @llvm.dbg.declare(metadata ptr %4, metadata !3648, metadata !DIExpression()), !dbg !3649
  %8 = invoke noundef zeroext i1 @_ZNK7SigUtil14SigHandlerTrap11isExclusiveEv(ptr noundef nonnull align 1 dereferenceable(1) %3)
          to label %9 unwind label %17, !dbg !3650

9:                                                ; preds = %1
  %10 = xor i1 %8, true, !dbg !3651
  %11 = zext i1 %10 to i8, !dbg !3649
  store i8 %11, ptr %4, align 1, !dbg !3649
  invoke void @_ZN3Log15signalLogPrefixEv()
          to label %12 unwind label %17, !dbg !3652

12:                                               ; preds = %9
  %13 = load i8, ptr %4, align 1, !dbg !3653
  %14 = trunc i8 %13 to i1, !dbg !3653
  br i1 %14, label %15, label %21, !dbg !3655

15:                                               ; preds = %12
  invoke void @_ZN3Log9signalLogEPKc(ptr noundef @.str.56)
          to label %16 unwind label %17, !dbg !3656

16:                                               ; preds = %15
  br label %23, !dbg !3656

17:                                               ; preds = %41, %29, %23, %21, %15, %9, %1
  %18 = landingpad { ptr, i32 }
          cleanup, !dbg !3657
  %19 = extractvalue { ptr, i32 } %18, 0, !dbg !3657
  store ptr %19, ptr %5, align 8, !dbg !3657
  %20 = extractvalue { ptr, i32 } %18, 1, !dbg !3657
  store i32 %20, ptr %6, align 4, !dbg !3657
  call void @_ZN7SigUtil14SigHandlerTrapD2Ev(ptr noundef nonnull align 1 dereferenceable(1) %3) #3, !dbg !3657
  br label %46, !dbg !3657

21:                                               ; preds = %12
  invoke void @_ZN3Log9signalLogEPKc(ptr noundef @.str.57)
          to label %22 unwind label %17, !dbg !3658

22:                                               ; preds = %21
  br label %23

23:                                               ; preds = %22, %16
  %24 = load i32, ptr %2, align 4, !dbg !3659
  %25 = call noundef ptr @_ZN7SigUtil10signalNameEi(i32 noundef %24), !dbg !3660
  invoke void @_ZN3Log9signalLogEPKc(ptr noundef %25)
          to label %26 unwind label %17, !dbg !3661

26:                                               ; preds = %23
  %27 = load ptr, ptr @_ZN7SigUtil21dumpUnoCommandsInfoFnE, align 8, !dbg !3662
  %28 = icmp ne ptr %27, null, !dbg !3664
  br i1 %28, label %29, label %32, !dbg !3665

29:                                               ; preds = %26
  %30 = load ptr, ptr @_ZN7SigUtil21dumpUnoCommandsInfoFnE, align 8, !dbg !3666
  invoke void %30()
          to label %31 unwind label %17, !dbg !3666

31:                                               ; preds = %29
  br label %32, !dbg !3668

32:                                               ; preds = %31, %26
  call void @llvm.dbg.declare(metadata ptr %7, metadata !3669, metadata !DIExpression()), !dbg !3670
  %33 = getelementptr inbounds %struct.sigaction, ptr %7, i32 0, i32 1, !dbg !3671
  %34 = call i32 @sigemptyset(ptr noundef %33) #3, !dbg !3672
  %35 = getelementptr inbounds %struct.sigaction, ptr %7, i32 0, i32 2, !dbg !3673
  store i32 0, ptr %35, align 8, !dbg !3674
  %36 = getelementptr inbounds %struct.sigaction, ptr %7, i32 0, i32 0, !dbg !3675
  store ptr null, ptr %36, align 8, !dbg !3676
  %37 = load i32, ptr %2, align 4, !dbg !3677
  %38 = call i32 @sigaction(i32 noundef %37, ptr noundef %7, ptr noundef null) #3, !dbg !3678
  %39 = load i8, ptr %4, align 1, !dbg !3679
  %40 = trunc i8 %39 to i1, !dbg !3679
  br i1 %40, label %43, label %41, !dbg !3681

41:                                               ; preds = %32
  invoke void @_ZN7SigUtil13dumpBacktraceEv()
          to label %42 unwind label %17, !dbg !3682

42:                                               ; preds = %41
  br label %43, !dbg !3682

43:                                               ; preds = %42, %32
  %44 = load i32, ptr %2, align 4, !dbg !3683
  %45 = call i32 @raise(i32 noundef %44) #3, !dbg !3684
  call void @_ZN7SigUtil14SigHandlerTrapD2Ev(ptr noundef nonnull align 1 dereferenceable(1) %3) #3, !dbg !3657
  ret void, !dbg !3657

46:                                               ; preds = %17
  %47 = load ptr, ptr %5, align 8, !dbg !3657
  %48 = load i32, ptr %6, align 4, !dbg !3657
  %49 = insertvalue { ptr, i32 } poison, ptr %47, 0, !dbg !3657
  %50 = insertvalue { ptr, i32 } %49, i32 %48, 1, !dbg !3657
  resume { ptr, i32 } %50, !dbg !3657
}

declare void @_ZNSt7__cxx1119basic_ostringstreamIcSt11char_traitsIcESaIcEEC1Ev(ptr noundef nonnull align 8 dereferenceable(112)) unnamed_addr #1

; Function Attrs: nounwind
declare ptr @strncpy(ptr noundef, ptr noundef, i64 noundef) #2

; Function Attrs: mustprogress noinline nounwind uwtable
define dso_local void @_ZN7SigUtil14setUserSignalsEv() #5 !dbg !3685 {
  %1 = alloca %struct.sigaction, align 8
  call void @llvm.dbg.declare(metadata ptr %1, metadata !3686, metadata !DIExpression()), !dbg !3687
  %2 = getelementptr inbounds %struct.sigaction, ptr %1, i32 0, i32 1, !dbg !3688
  %3 = call i32 @sigemptyset(ptr noundef %2) #3, !dbg !3689
  %4 = getelementptr inbounds %struct.sigaction, ptr %1, i32 0, i32 2, !dbg !3690
  store i32 0, ptr %4, align 8, !dbg !3691
  %5 = getelementptr inbounds %struct.sigaction, ptr %1, i32 0, i32 0, !dbg !3692
  store ptr @_ZN7SigUtilL16handleUserSignalEi, ptr %5, align 8, !dbg !3693
  %6 = call i32 @sigaction(i32 noundef 10, ptr noundef %1, ptr noundef null) #3, !dbg !3694
  ret void, !dbg !3695
}

; Function Attrs: mustprogress noinline uwtable
define internal void @_ZN7SigUtilL16handleUserSignalEi(i32 noundef %0) #6 !dbg !3696 {
  %2 = alloca i32, align 4
  store i32 %0, ptr %2, align 4
  call void @llvm.dbg.declare(metadata ptr %2, metadata !3697, metadata !DIExpression()), !dbg !3698
  call void @_ZN3Log15signalLogPrefixEv(), !dbg !3699
  call void @_ZN3Log9signalLogEPKc(ptr noundef @.str.58), !dbg !3700
  %3 = load i32, ptr %2, align 4, !dbg !3701
  %4 = call noundef ptr @_ZN7SigUtil10signalNameEi(i32 noundef %3), !dbg !3702
  call void @_ZN3Log9signalLogEPKc(ptr noundef %4), !dbg !3703
  call void @_ZN3Log9signalLogEPKc(ptr noundef @.str.41), !dbg !3704
  %5 = load i32, ptr %2, align 4, !dbg !3705
  %6 = icmp eq i32 %5, 10, !dbg !3707
  br i1 %6, label %7, label %9, !dbg !3708

7:                                                ; preds = %1
  %8 = call noundef zeroext i1 @_ZNSt6atomicIbEaSEb(ptr noundef nonnull align 1 dereferenceable(1) @_ZL15DumpGlobalState, i1 noundef zeroext true) #3, !dbg !3709
  call void @_ZN10SocketPoll11wakeupWorldEv(), !dbg !3711
  br label %9, !dbg !3712

9:                                                ; preds = %7, %1
  ret void, !dbg !3713
}

; Function Attrs: mustprogress noinline nounwind uwtable
define dso_local void @_ZN7SigUtil17setDebuggerSignalEv() #5 !dbg !3714 {
  %1 = alloca %struct.sigaction, align 8
  call void @llvm.dbg.declare(metadata ptr %1, metadata !3715, metadata !DIExpression()), !dbg !3716
  %2 = getelementptr inbounds %struct.sigaction, ptr %1, i32 0, i32 1, !dbg !3717
  %3 = call i32 @sigemptyset(ptr noundef %2) #3, !dbg !3718
  %4 = getelementptr inbounds %struct.sigaction, ptr %1, i32 0, i32 2, !dbg !3719
  store i32 0, ptr %4, align 8, !dbg !3720
  %5 = getelementptr inbounds %struct.sigaction, ptr %1, i32 0, i32 0, !dbg !3721
  store ptr @_ZN7SigUtilL20handleDebuggerSignalEi, ptr %5, align 8, !dbg !3722
  %6 = call i32 @sigaction(i32 noundef 10, ptr noundef %1, ptr noundef null) #3, !dbg !3723
  ret void, !dbg !3724
}

; Function Attrs: mustprogress noinline nounwind uwtable
define internal void @_ZN7SigUtilL20handleDebuggerSignalEi(i32 noundef %0) #5 !dbg !3725 {
  %2 = alloca i32, align 4
  store i32 %0, ptr %2, align 4
  call void @llvm.dbg.declare(metadata ptr %2, metadata !3726, metadata !DIExpression()), !dbg !3727
  ret void, !dbg !3728
}

; Function Attrs: mustprogress noinline uwtable
define dso_local noundef zeroext i1 @_ZN7SigUtil9killChildEii(i32 noundef %0, i32 noundef %1) #6 personality ptr @__gxx_personality_v0 !dbg !3729 {
  %3 = alloca i1, align 1
  %4 = alloca i32, align 4
  %5 = alloca i32, align 4
  %6 = alloca ptr, align 8
  %7 = alloca [1024 x i8], align 16
  %8 = alloca %"class.std::__cxx11::basic_ostringstream", align 8
  %9 = alloca %"class.std::__cxx11::basic_string", align 8
  %10 = alloca %"class.std::allocator", align 1
  %11 = alloca ptr, align 8
  %12 = alloca i32, align 4
  %13 = alloca %"class.Poco::Message", align 8
  %14 = alloca %"class.std::__cxx11::basic_string", align 8
  %15 = alloca i32, align 4
  %16 = alloca ptr, align 8
  %17 = alloca [1024 x i8], align 16
  %18 = alloca %"class.std::__cxx11::basic_ostringstream", align 8
  %19 = alloca %"class.std::__cxx11::basic_string", align 8
  %20 = alloca %"class.std::allocator", align 1
  %21 = alloca %"class.std::__cxx11::basic_string", align 8
  %22 = alloca %"class.Poco::Message", align 8
  %23 = alloca %"class.std::__cxx11::basic_string", align 8
  %24 = alloca i32, align 4
  %25 = alloca i32, align 4
  %26 = alloca i32, align 4
  %27 = alloca %"struct.std::chrono::duration", align 8
  store i32 %0, ptr %4, align 4
  call void @llvm.dbg.declare(metadata ptr %4, metadata !3732, metadata !DIExpression()), !dbg !3733
  store i32 %1, ptr %5, align 4
  call void @llvm.dbg.declare(metadata ptr %5, metadata !3734, metadata !DIExpression()), !dbg !3735
  br label %28, !dbg !3736

28:                                               ; preds = %2
  call void @llvm.dbg.declare(metadata ptr %6, metadata !3737, metadata !DIExpression()), !dbg !3739
  %29 = call noundef nonnull align 8 dereferenceable(68) ptr @_ZN3Log6loggerEv(), !dbg !3739
  store ptr %29, ptr %6, align 8, !dbg !3739
  %30 = call noundef zeroext i1 @_ZN3Log16isShutdownCalledEv(), !dbg !3740
  br i1 %30, label %92, label %31, !dbg !3740

31:                                               ; preds = %28
  %32 = load ptr, ptr %6, align 8, !dbg !3740
  %33 = call noundef zeroext i1 @_ZNK4Poco6Logger5debugEv(ptr noundef nonnull align 8 dereferenceable(68) %32), !dbg !3740
  br i1 %33, label %34, label %92, !dbg !3739

34:                                               ; preds = %31
  call void @llvm.dbg.declare(metadata ptr %7, metadata !3742, metadata !DIExpression()), !dbg !3744
  call void @llvm.dbg.declare(metadata ptr %8, metadata !3745, metadata !DIExpression()), !dbg !3744
  %35 = getelementptr inbounds [1024 x i8], ptr %7, i64 0, i64 0, !dbg !3744
  %36 = call noundef ptr @_ZN3Log6prefixILi1023EEEPcS1_PKc(ptr noundef %35, ptr noundef @.str.47), !dbg !3744
  call void @_ZNSaIcEC1Ev(ptr noundef nonnull align 1 dereferenceable(1) %10) #3, !dbg !3744
  invoke void @_ZNSt7__cxx1112basic_stringIcSt11char_traitsIcESaIcEEC2IS3_EEPKcRKS3_(ptr noundef nonnull align 8 dereferenceable(32) %9, ptr noundef %36, ptr noundef nonnull align 1 dereferenceable(1) %10)
          to label %37 unwind label %69, !dbg !3744

37:                                               ; preds = %34
  invoke void @_ZNSt7__cxx1119basic_ostringstreamIcSt11char_traitsIcESaIcEEC1ERKNS_12basic_stringIcS2_S3_EESt13_Ios_Openmode(ptr noundef nonnull align 8 dereferenceable(112) %8, ptr noundef nonnull align 8 dereferenceable(32) %9, i32 noundef 2)
          to label %38 unwind label %73, !dbg !3744

38:                                               ; preds = %37
  call void @_ZNSt7__cxx1112basic_stringIcSt11char_traitsIcESaIcEED1Ev(ptr noundef nonnull align 8 dereferenceable(32) %9) #3, !dbg !3744
  call void @_ZNSaIcED1Ev(ptr noundef nonnull align 1 dereferenceable(1) %10) #3, !dbg !3744
  %39 = invoke noundef nonnull align 8 dereferenceable(8) ptr @_ZNSolsEPFRSt8ios_baseS0_E(ptr noundef nonnull align 8 dereferenceable(8) %8, ptr noundef @_ZSt9boolalphaRSt8ios_base)
          to label %40 unwind label %78, !dbg !3744

40:                                               ; preds = %38
  %41 = invoke noundef nonnull align 8 dereferenceable(8) ptr @_ZStlsISt11char_traitsIcEERSt13basic_ostreamIcT_ES5_PKc(ptr noundef nonnull align 8 dereferenceable(8) %39, ptr noundef @.str.48)
          to label %42 unwind label %78, !dbg !3744

42:                                               ; preds = %40
  %43 = load i32, ptr %4, align 4, !dbg !3744
  %44 = invoke noundef nonnull align 8 dereferenceable(8) ptr @_ZNSolsEi(ptr noundef nonnull align 8 dereferenceable(8) %41, i32 noundef %43)
          to label %45 unwind label %78, !dbg !3744

45:                                               ; preds = %42
  br label %46, !dbg !3744

46:                                               ; preds = %45
  %47 = invoke noundef nonnull align 8 dereferenceable(8) ptr @_ZStlsISt11char_traitsIcEERSt13basic_ostreamIcT_ES5_PKc(ptr noundef nonnull align 8 dereferenceable(8) %8, ptr noundef @.str.39)
          to label %48 unwind label %78, !dbg !3746

48:                                               ; preds = %46
  %49 = invoke noundef nonnull align 8 dereferenceable(8) ptr @_ZStlsISt11char_traitsIcEERSt13basic_ostreamIcT_ES5_PKc(ptr noundef nonnull align 8 dereferenceable(8) %47, ptr noundef @.str.40)
          to label %50 unwind label %78, !dbg !3746

50:                                               ; preds = %48
  %51 = invoke noundef nonnull align 8 dereferenceable(8) ptr @_ZStlsISt11char_traitsIcEERSt13basic_ostreamIcT_ES5_c(ptr noundef nonnull align 8 dereferenceable(8) %49, i8 noundef signext 58)
          to label %52 unwind label %78, !dbg !3746

52:                                               ; preds = %50
  %53 = invoke noundef nonnull align 8 dereferenceable(8) ptr @_ZNSolsEi(ptr noundef nonnull align 8 dereferenceable(8) %51, i32 noundef 392)
          to label %54 unwind label %78, !dbg !3746

54:                                               ; preds = %52
  %55 = invoke noundef nonnull align 8 dereferenceable(8) ptr @_ZNSo5flushEv(ptr noundef nonnull align 8 dereferenceable(8) %8)
          to label %56 unwind label %78, !dbg !3749

56:                                               ; preds = %54
  br label %57, !dbg !3749

57:                                               ; preds = %56
  br label %58, !dbg !3749

58:                                               ; preds = %57
  %59 = load ptr, ptr %6, align 8, !dbg !3744
  %60 = load ptr, ptr %6, align 8, !dbg !3744
  %61 = invoke noundef nonnull align 8 dereferenceable(32) ptr @_ZNK4Poco6Logger4nameB5cxx11Ev(ptr noundef nonnull align 8 dereferenceable(68) %60)
          to label %62 unwind label %78, !dbg !3744

62:                                               ; preds = %58
  invoke void @_ZNKSt7__cxx1119basic_ostringstreamIcSt11char_traitsIcESaIcEE3strEv(ptr sret(%"class.std::__cxx11::basic_string") align 8 %14, ptr noundef nonnull align 8 dereferenceable(112) %8)
          to label %63 unwind label %78, !dbg !3744

63:                                               ; preds = %62
  invoke void @_ZN4Poco7MessageC1ERKNSt7__cxx1112basic_stringIcSt11char_traitsIcESaIcEEES8_NS0_8PriorityE(ptr noundef nonnull align 8 dereferenceable(152) %13, ptr noundef nonnull align 8 dereferenceable(32) %61, ptr noundef nonnull align 8 dereferenceable(32) %14, i32 noundef 7)
          to label %64 unwind label %82, !dbg !3744

64:                                               ; preds = %63
  %65 = load ptr, ptr %59, align 8, !dbg !3744
  %66 = getelementptr inbounds ptr, ptr %65, i64 6, !dbg !3744
  %67 = load ptr, ptr %66, align 8, !dbg !3744
  invoke void %67(ptr noundef nonnull align 8 dereferenceable(68) %59, ptr noundef nonnull align 8 dereferenceable(152) %13)
          to label %68 unwind label %86, !dbg !3744

68:                                               ; preds = %64
  call void @_ZN4Poco7MessageD1Ev(ptr noundef nonnull align 8 dereferenceable(152) %13) #3, !dbg !3744
  call void @_ZNSt7__cxx1112basic_stringIcSt11char_traitsIcESaIcEED1Ev(ptr noundef nonnull align 8 dereferenceable(32) %14) #3, !dbg !3744
  call void @_ZNSt7__cxx1119basic_ostringstreamIcSt11char_traitsIcESaIcEED1Ev(ptr noundef nonnull align 8 dereferenceable(112) %8) #3, !dbg !3740
  br label %92, !dbg !3744

69:                                               ; preds = %34
  %70 = landingpad { ptr, i32 }
          cleanup, !dbg !3750
  %71 = extractvalue { ptr, i32 } %70, 0, !dbg !3750
  store ptr %71, ptr %11, align 8, !dbg !3750
  %72 = extractvalue { ptr, i32 } %70, 1, !dbg !3750
  store i32 %72, ptr %12, align 4, !dbg !3750
  br label %77, !dbg !3750

73:                                               ; preds = %37
  %74 = landingpad { ptr, i32 }
          cleanup, !dbg !3750
  %75 = extractvalue { ptr, i32 } %74, 0, !dbg !3750
  store ptr %75, ptr %11, align 8, !dbg !3750
  %76 = extractvalue { ptr, i32 } %74, 1, !dbg !3750
  store i32 %76, ptr %12, align 4, !dbg !3750
  call void @_ZNSt7__cxx1112basic_stringIcSt11char_traitsIcESaIcEED1Ev(ptr noundef nonnull align 8 dereferenceable(32) %9) #3, !dbg !3744
  br label %77, !dbg !3744

77:                                               ; preds = %73, %69
  call void @_ZNSaIcED1Ev(ptr noundef nonnull align 1 dereferenceable(1) %10) #3, !dbg !3744
  br label %215, !dbg !3744

78:                                               ; preds = %62, %58, %54, %52, %50, %48, %46, %42, %40, %38
  %79 = landingpad { ptr, i32 }
          cleanup, !dbg !3750
  %80 = extractvalue { ptr, i32 } %79, 0, !dbg !3750
  store ptr %80, ptr %11, align 8, !dbg !3750
  %81 = extractvalue { ptr, i32 } %79, 1, !dbg !3750
  store i32 %81, ptr %12, align 4, !dbg !3750
  br label %91, !dbg !3750

82:                                               ; preds = %63
  %83 = landingpad { ptr, i32 }
          cleanup, !dbg !3750
  %84 = extractvalue { ptr, i32 } %83, 0, !dbg !3750
  store ptr %84, ptr %11, align 8, !dbg !3750
  %85 = extractvalue { ptr, i32 } %83, 1, !dbg !3750
  store i32 %85, ptr %12, align 4, !dbg !3750
  br label %90, !dbg !3750

86:                                               ; preds = %64
  %87 = landingpad { ptr, i32 }
          cleanup, !dbg !3750
  %88 = extractvalue { ptr, i32 } %87, 0, !dbg !3750
  store ptr %88, ptr %11, align 8, !dbg !3750
  %89 = extractvalue { ptr, i32 } %87, 1, !dbg !3750
  store i32 %89, ptr %12, align 4, !dbg !3750
  call void @_ZN4Poco7MessageD1Ev(ptr noundef nonnull align 8 dereferenceable(152) %13) #3, !dbg !3744
  br label %90, !dbg !3744

90:                                               ; preds = %86, %82
  call void @_ZNSt7__cxx1112basic_stringIcSt11char_traitsIcESaIcEED1Ev(ptr noundef nonnull align 8 dereferenceable(32) %14) #3, !dbg !3744
  br label %91, !dbg !3744

91:                                               ; preds = %90, %78
  call void @_ZNSt7__cxx1119basic_ostringstreamIcSt11char_traitsIcESaIcEED1Ev(ptr noundef nonnull align 8 dereferenceable(112) %8) #3, !dbg !3740
  br label %215, !dbg !3740

92:                                               ; preds = %68, %31, %28
  br label %93, !dbg !3739

93:                                               ; preds = %92
  %94 = call noundef zeroext i1 @_ZN4Util9isFuzzingEv(), !dbg !3751
  br i1 %94, label %104, label %95, !dbg !3753

95:                                               ; preds = %93
  %96 = load i32, ptr %4, align 4, !dbg !3754
  %97 = load i32, ptr %5, align 4, !dbg !3755
  %98 = call i32 @kill(i32 noundef %96, i32 noundef %97) #3, !dbg !3756
  %99 = icmp eq i32 %98, 0, !dbg !3757
  br i1 %99, label %104, label %100, !dbg !3758

100:                                              ; preds = %95
  %101 = call ptr @__errno_location() #13, !dbg !3759
  %102 = load i32, ptr %101, align 4, !dbg !3759
  %103 = icmp eq i32 %102, 3, !dbg !3760
  br i1 %103, label %104, label %105, !dbg !3761

104:                                              ; preds = %100, %95, %93
  store i1 true, ptr %3, align 1, !dbg !3762
  br label %213, !dbg !3762

105:                                              ; preds = %100
  br label %106, !dbg !3764

106:                                              ; preds = %105
  call void @llvm.dbg.declare(metadata ptr %15, metadata !3765, metadata !DIExpression()), !dbg !3767
  %107 = call ptr @__errno_location() #13, !dbg !3767
  %108 = load i32, ptr %107, align 4, !dbg !3767
  store i32 %108, ptr %15, align 4, !dbg !3767
  br label %109, !dbg !3767

109:                                              ; preds = %106
  call void @llvm.dbg.declare(metadata ptr %16, metadata !3768, metadata !DIExpression()), !dbg !3770
  %110 = call noundef nonnull align 8 dereferenceable(68) ptr @_ZN3Log6loggerEv(), !dbg !3770
  store ptr %110, ptr %16, align 8, !dbg !3770
  %111 = call noundef zeroext i1 @_ZN3Log16isShutdownCalledEv(), !dbg !3771
  br i1 %111, label %193, label %112, !dbg !3771

112:                                              ; preds = %109
  %113 = load ptr, ptr %16, align 8, !dbg !3771
  %114 = call noundef zeroext i1 @_ZNK4Poco6Logger5errorEv(ptr noundef nonnull align 8 dereferenceable(68) %113), !dbg !3771
  br i1 %114, label %115, label %193, !dbg !3770

115:                                              ; preds = %112
  call void @llvm.dbg.declare(metadata ptr %17, metadata !3773, metadata !DIExpression()), !dbg !3775
  call void @llvm.dbg.declare(metadata ptr %18, metadata !3776, metadata !DIExpression()), !dbg !3775
  %116 = getelementptr inbounds [1024 x i8], ptr %17, i64 0, i64 0, !dbg !3775
  %117 = call noundef ptr @_ZN3Log6prefixILi1023EEEPcS1_PKc(ptr noundef %116, ptr noundef @.str.37), !dbg !3775
  call void @_ZNSaIcEC1Ev(ptr noundef nonnull align 1 dereferenceable(1) %20) #3, !dbg !3775
  invoke void @_ZNSt7__cxx1112basic_stringIcSt11char_traitsIcESaIcEEC2IS3_EEPKcRKS3_(ptr noundef nonnull align 8 dereferenceable(32) %19, ptr noundef %117, ptr noundef nonnull align 1 dereferenceable(1) %20)
          to label %118 unwind label %166, !dbg !3775

118:                                              ; preds = %115
  invoke void @_ZNSt7__cxx1119basic_ostringstreamIcSt11char_traitsIcESaIcEEC1ERKNS_12basic_stringIcS2_S3_EESt13_Ios_Openmode(ptr noundef nonnull align 8 dereferenceable(112) %18, ptr noundef nonnull align 8 dereferenceable(32) %19, i32 noundef 2)
          to label %119 unwind label %170, !dbg !3775

119:                                              ; preds = %118
  call void @_ZNSt7__cxx1112basic_stringIcSt11char_traitsIcESaIcEED1Ev(ptr noundef nonnull align 8 dereferenceable(32) %19) #3, !dbg !3775
  call void @_ZNSaIcED1Ev(ptr noundef nonnull align 1 dereferenceable(1) %20) #3, !dbg !3775
  %120 = invoke noundef nonnull align 8 dereferenceable(8) ptr @_ZNSolsEPFRSt8ios_baseS0_E(ptr noundef nonnull align 8 dereferenceable(8) %18, ptr noundef @_ZSt9boolalphaRSt8ios_base)
          to label %121 unwind label %175, !dbg !3775

121:                                              ; preds = %119
  %122 = invoke noundef nonnull align 8 dereferenceable(8) ptr @_ZStlsISt11char_traitsIcEERSt13basic_ostreamIcT_ES5_PKc(ptr noundef nonnull align 8 dereferenceable(8) %120, ptr noundef @.str.49)
          to label %123 unwind label %175, !dbg !3775

123:                                              ; preds = %121
  %124 = load i32, ptr %4, align 4, !dbg !3775
  %125 = invoke noundef nonnull align 8 dereferenceable(8) ptr @_ZNSolsEi(ptr noundef nonnull align 8 dereferenceable(8) %122, i32 noundef %124)
          to label %126 unwind label %175, !dbg !3775

126:                                              ; preds = %123
  %127 = invoke noundef nonnull align 8 dereferenceable(8) ptr @_ZStlsISt11char_traitsIcEERSt13basic_ostreamIcT_ES5_PKc(ptr noundef nonnull align 8 dereferenceable(8) %125, ptr noundef @.str.50)
          to label %128 unwind label %175, !dbg !3775

128:                                              ; preds = %126
  %129 = invoke noundef nonnull align 8 dereferenceable(8) ptr @_ZStlsISt11char_traitsIcEERSt13basic_ostreamIcT_ES5_PKc(ptr noundef nonnull align 8 dereferenceable(8) %127, ptr noundef @.str.51)
          to label %130 unwind label %175, !dbg !3775

130:                                              ; preds = %128
  %131 = load i32, ptr %15, align 4, !dbg !3775
  invoke void @_ZN4Util13symbolicErrnoB5cxx11Ei(ptr sret(%"class.std::__cxx11::basic_string") align 8 %21, i32 noundef %131)
          to label %132 unwind label %175, !dbg !3775

132:                                              ; preds = %130
  %133 = invoke noundef nonnull align 8 dereferenceable(8) ptr @_ZStlsIcSt11char_traitsIcESaIcEERSt13basic_ostreamIT_T0_ES7_RKNSt7__cxx1112basic_stringIS4_S5_T1_EE(ptr noundef nonnull align 8 dereferenceable(8) %129, ptr noundef nonnull align 8 dereferenceable(32) %21)
          to label %134 unwind label %179, !dbg !3775

134:                                              ; preds = %132
  %135 = invoke noundef nonnull align 8 dereferenceable(8) ptr @_ZStlsISt11char_traitsIcEERSt13basic_ostreamIcT_ES5_PKc(ptr noundef nonnull align 8 dereferenceable(8) %133, ptr noundef @.str.52)
          to label %136 unwind label %179, !dbg !3775

136:                                              ; preds = %134
  %137 = load i32, ptr %15, align 4, !dbg !3775
  %138 = call ptr @strerror(i32 noundef %137) #3, !dbg !3775
  %139 = invoke noundef nonnull align 8 dereferenceable(8) ptr @_ZStlsISt11char_traitsIcEERSt13basic_ostreamIcT_ES5_PKc(ptr noundef nonnull align 8 dereferenceable(8) %135, ptr noundef %138)
          to label %140 unwind label %179, !dbg !3775

140:                                              ; preds = %136
  %141 = invoke noundef nonnull align 8 dereferenceable(8) ptr @_ZStlsISt11char_traitsIcEERSt13basic_ostreamIcT_ES5_c(ptr noundef nonnull align 8 dereferenceable(8) %139, i8 noundef signext 41)
          to label %142 unwind label %179, !dbg !3775

142:                                              ; preds = %140
  call void @_ZNSt7__cxx1112basic_stringIcSt11char_traitsIcESaIcEED1Ev(ptr noundef nonnull align 8 dereferenceable(32) %21) #3, !dbg !3775
  br label %143, !dbg !3775

143:                                              ; preds = %142
  %144 = invoke noundef nonnull align 8 dereferenceable(8) ptr @_ZStlsISt11char_traitsIcEERSt13basic_ostreamIcT_ES5_PKc(ptr noundef nonnull align 8 dereferenceable(8) %18, ptr noundef @.str.39)
          to label %145 unwind label %175, !dbg !3777

145:                                              ; preds = %143
  %146 = invoke noundef nonnull align 8 dereferenceable(8) ptr @_ZStlsISt11char_traitsIcEERSt13basic_ostreamIcT_ES5_PKc(ptr noundef nonnull align 8 dereferenceable(8) %144, ptr noundef @.str.40)
          to label %147 unwind label %175, !dbg !3777

147:                                              ; preds = %145
  %148 = invoke noundef nonnull align 8 dereferenceable(8) ptr @_ZStlsISt11char_traitsIcEERSt13basic_ostreamIcT_ES5_c(ptr noundef nonnull align 8 dereferenceable(8) %146, i8 noundef signext 58)
          to label %149 unwind label %175, !dbg !3777

149:                                              ; preds = %147
  %150 = invoke noundef nonnull align 8 dereferenceable(8) ptr @_ZNSolsEi(ptr noundef nonnull align 8 dereferenceable(8) %148, i32 noundef 401)
          to label %151 unwind label %175, !dbg !3777

151:                                              ; preds = %149
  %152 = invoke noundef nonnull align 8 dereferenceable(8) ptr @_ZNSo5flushEv(ptr noundef nonnull align 8 dereferenceable(8) %18)
          to label %153 unwind label %175, !dbg !3780

153:                                              ; preds = %151
  br label %154, !dbg !3780

154:                                              ; preds = %153
  br label %155, !dbg !3780

155:                                              ; preds = %154
  %156 = load ptr, ptr %16, align 8, !dbg !3775
  %157 = load ptr, ptr %16, align 8, !dbg !3775
  %158 = invoke noundef nonnull align 8 dereferenceable(32) ptr @_ZNK4Poco6Logger4nameB5cxx11Ev(ptr noundef nonnull align 8 dereferenceable(68) %157)
          to label %159 unwind label %175, !dbg !3775

159:                                              ; preds = %155
  invoke void @_ZNKSt7__cxx1119basic_ostringstreamIcSt11char_traitsIcESaIcEE3strEv(ptr sret(%"class.std::__cxx11::basic_string") align 8 %23, ptr noundef nonnull align 8 dereferenceable(112) %18)
          to label %160 unwind label %175, !dbg !3775

160:                                              ; preds = %159
  invoke void @_ZN4Poco7MessageC1ERKNSt7__cxx1112basic_stringIcSt11char_traitsIcESaIcEEES8_NS0_8PriorityE(ptr noundef nonnull align 8 dereferenceable(152) %22, ptr noundef nonnull align 8 dereferenceable(32) %158, ptr noundef nonnull align 8 dereferenceable(32) %23, i32 noundef 3)
          to label %161 unwind label %183, !dbg !3775

161:                                              ; preds = %160
  %162 = load ptr, ptr %156, align 8, !dbg !3775
  %163 = getelementptr inbounds ptr, ptr %162, i64 6, !dbg !3775
  %164 = load ptr, ptr %163, align 8, !dbg !3775
  invoke void %164(ptr noundef nonnull align 8 dereferenceable(68) %156, ptr noundef nonnull align 8 dereferenceable(152) %22)
          to label %165 unwind label %187, !dbg !3775

165:                                              ; preds = %161
  call void @_ZN4Poco7MessageD1Ev(ptr noundef nonnull align 8 dereferenceable(152) %22) #3, !dbg !3775
  call void @_ZNSt7__cxx1112basic_stringIcSt11char_traitsIcESaIcEED1Ev(ptr noundef nonnull align 8 dereferenceable(32) %23) #3, !dbg !3775
  call void @_ZNSt7__cxx1119basic_ostringstreamIcSt11char_traitsIcESaIcEED1Ev(ptr noundef nonnull align 8 dereferenceable(112) %18) #3, !dbg !3771
  br label %193, !dbg !3775

166:                                              ; preds = %115
  %167 = landingpad { ptr, i32 }
          cleanup, !dbg !3781
  %168 = extractvalue { ptr, i32 } %167, 0, !dbg !3781
  store ptr %168, ptr %11, align 8, !dbg !3781
  %169 = extractvalue { ptr, i32 } %167, 1, !dbg !3781
  store i32 %169, ptr %12, align 4, !dbg !3781
  br label %174, !dbg !3781

170:                                              ; preds = %118
  %171 = landingpad { ptr, i32 }
          cleanup, !dbg !3781
  %172 = extractvalue { ptr, i32 } %171, 0, !dbg !3781
  store ptr %172, ptr %11, align 8, !dbg !3781
  %173 = extractvalue { ptr, i32 } %171, 1, !dbg !3781
  store i32 %173, ptr %12, align 4, !dbg !3781
  call void @_ZNSt7__cxx1112basic_stringIcSt11char_traitsIcESaIcEED1Ev(ptr noundef nonnull align 8 dereferenceable(32) %19) #3, !dbg !3775
  br label %174, !dbg !3775

174:                                              ; preds = %170, %166
  call void @_ZNSaIcED1Ev(ptr noundef nonnull align 1 dereferenceable(1) %20) #3, !dbg !3775
  br label %215, !dbg !3775

175:                                              ; preds = %159, %155, %151, %149, %147, %145, %143, %130, %128, %126, %123, %121, %119
  %176 = landingpad { ptr, i32 }
          cleanup, !dbg !3781
  %177 = extractvalue { ptr, i32 } %176, 0, !dbg !3781
  store ptr %177, ptr %11, align 8, !dbg !3781
  %178 = extractvalue { ptr, i32 } %176, 1, !dbg !3781
  store i32 %178, ptr %12, align 4, !dbg !3781
  br label %192, !dbg !3781

179:                                              ; preds = %140, %136, %134, %132
  %180 = landingpad { ptr, i32 }
          cleanup, !dbg !3781
  %181 = extractvalue { ptr, i32 } %180, 0, !dbg !3781
  store ptr %181, ptr %11, align 8, !dbg !3781
  %182 = extractvalue { ptr, i32 } %180, 1, !dbg !3781
  store i32 %182, ptr %12, align 4, !dbg !3781
  call void @_ZNSt7__cxx1112basic_stringIcSt11char_traitsIcESaIcEED1Ev(ptr noundef nonnull align 8 dereferenceable(32) %21) #3, !dbg !3775
  br label %192, !dbg !3775

183:                                              ; preds = %160
  %184 = landingpad { ptr, i32 }
          cleanup, !dbg !3781
  %185 = extractvalue { ptr, i32 } %184, 0, !dbg !3781
  store ptr %185, ptr %11, align 8, !dbg !3781
  %186 = extractvalue { ptr, i32 } %184, 1, !dbg !3781
  store i32 %186, ptr %12, align 4, !dbg !3781
  br label %191, !dbg !3781

187:                                              ; preds = %161
  %188 = landingpad { ptr, i32 }
          cleanup, !dbg !3781
  %189 = extractvalue { ptr, i32 } %188, 0, !dbg !3781
  store ptr %189, ptr %11, align 8, !dbg !3781
  %190 = extractvalue { ptr, i32 } %188, 1, !dbg !3781
  store i32 %190, ptr %12, align 4, !dbg !3781
  call void @_ZN4Poco7MessageD1Ev(ptr noundef nonnull align 8 dereferenceable(152) %22) #3, !dbg !3775
  br label %191, !dbg !3775

191:                                              ; preds = %187, %183
  call void @_ZNSt7__cxx1112basic_stringIcSt11char_traitsIcESaIcEED1Ev(ptr noundef nonnull align 8 dereferenceable(32) %23) #3, !dbg !3775
  br label %192, !dbg !3775

192:                                              ; preds = %191, %179, %175
  call void @_ZNSt7__cxx1119basic_ostringstreamIcSt11char_traitsIcESaIcEED1Ev(ptr noundef nonnull align 8 dereferenceable(112) %18) #3, !dbg !3771
  br label %215, !dbg !3771

193:                                              ; preds = %165, %112, %109
  br label %194, !dbg !3770

194:                                              ; preds = %193
  br label %195, !dbg !3767

195:                                              ; preds = %194
  call void @llvm.dbg.declare(metadata ptr %24, metadata !3782, metadata !DIExpression()), !dbg !3783
  store i32 50, ptr %24, align 4, !dbg !3783
  call void @llvm.dbg.declare(metadata ptr %25, metadata !3784, metadata !DIExpression()), !dbg !3785
  store i32 10, ptr %25, align 4, !dbg !3785
  call void @llvm.dbg.declare(metadata ptr %26, metadata !3786, metadata !DIExpression()), !dbg !3788
  store i32 0, ptr %26, align 4, !dbg !3788
  br label %196, !dbg !3789

196:                                              ; preds = %209, %195
  %197 = load i32, ptr %26, align 4, !dbg !3790
  %198 = icmp slt i32 %197, 10, !dbg !3792
  br i1 %198, label %199, label %212, !dbg !3793

199:                                              ; preds = %196
  %200 = load i32, ptr %4, align 4, !dbg !3794
  %201 = call i32 @kill(i32 noundef %200, i32 noundef 0) #3, !dbg !3797
  %202 = icmp eq i32 %201, 0, !dbg !3798
  br i1 %202, label %207, label %203, !dbg !3799

203:                                              ; preds = %199
  %204 = call ptr @__errno_location() #13, !dbg !3800
  %205 = load i32, ptr %204, align 4, !dbg !3800
  %206 = icmp eq i32 %205, 3, !dbg !3801
  br i1 %206, label %207, label %208, !dbg !3802

207:                                              ; preds = %203, %199
  store i1 true, ptr %3, align 1, !dbg !3803
  br label %213, !dbg !3803

208:                                              ; preds = %203
  call void @_ZNSt6chrono8durationIlSt5ratioILl1ELl1000EEEC2IivEERKT_(ptr noundef nonnull align 8 dereferenceable(8) %27, ptr noundef nonnull align 4 dereferenceable(4) %24), !dbg !3805
  call void @_ZNSt11this_thread9sleep_forIlSt5ratioILl1ELl1000EEEEvRKNSt6chrono8durationIT_T0_EE(ptr noundef nonnull align 8 dereferenceable(8) %27), !dbg !3806
  br label %209, !dbg !3807

209:                                              ; preds = %208
  %210 = load i32, ptr %26, align 4, !dbg !3808
  %211 = add nsw i32 %210, 1, !dbg !3808
  store i32 %211, ptr %26, align 4, !dbg !3808
  br label %196, !dbg !3809, !llvm.loop !3810

212:                                              ; preds = %196
  store i1 false, ptr %3, align 1, !dbg !3812
  br label %213, !dbg !3812

213:                                              ; preds = %212, %207, %104
  %214 = load i1, ptr %3, align 1, !dbg !3813
  ret i1 %214, !dbg !3813

215:                                              ; preds = %192, %174, %91, %77
  %216 = load ptr, ptr %11, align 8, !dbg !3744
  %217 = load i32, ptr %12, align 4, !dbg !3744
  %218 = insertvalue { ptr, i32 } poison, ptr %216, 0, !dbg !3744
  %219 = insertvalue { ptr, i32 } %218, i32 %217, 1, !dbg !3744
  resume { ptr, i32 } %219, !dbg !3744
}

; Function Attrs: mustprogress noinline nounwind uwtable
define linkonce_odr dso_local noundef zeroext i1 @_ZNK4Poco6Logger5debugEv(ptr noundef nonnull align 8 dereferenceable(68) %0) #5 comdat align 2 !dbg !3814 {
  %2 = alloca ptr, align 8
  store ptr %0, ptr %2, align 8
  call void @llvm.dbg.declare(metadata ptr %2, metadata !3816, metadata !DIExpression()), !dbg !3817
  %3 = load ptr, ptr %2, align 8
  %4 = getelementptr inbounds %"class.Poco::Logger", ptr %3, i32 0, i32 4, !dbg !3818
  %5 = load i32, ptr %4, align 8, !dbg !3818
  %6 = icmp sge i32 %5, 7, !dbg !3819
  ret i1 %6, !dbg !3820
}

declare noundef zeroext i1 @_ZN4Util9isFuzzingEv() #1

; Function Attrs: nounwind
declare i32 @kill(i32 noundef, i32 noundef) #2

; Function Attrs: nounwind willreturn memory(none)
declare ptr @__errno_location() #8

declare noundef nonnull align 8 dereferenceable(8) ptr @_ZStlsIcSt11char_traitsIcESaIcEERSt13basic_ostreamIT_T0_ES7_RKNSt7__cxx1112basic_stringIS4_S5_T1_EE(ptr noundef nonnull align 8 dereferenceable(8), ptr noundef nonnull align 8 dereferenceable(32)) #1

; Function Attrs: mustprogress noinline uwtable
define linkonce_odr dso_local void @_ZN4Util13symbolicErrnoB5cxx11Ei(ptr noalias sret(%"class.std::__cxx11::basic_string") align 8 %0, i32 noundef %1) #6 comdat personality ptr @__gxx_personality_v0 !dbg !3821 {
  %3 = alloca ptr, align 8
  %4 = alloca i32, align 4
  %5 = alloca %"class.std::allocator", align 1
  %6 = alloca ptr, align 8
  %7 = alloca i32, align 4
  %8 = alloca %"class.std::allocator", align 1
  %9 = alloca %"class.std::allocator", align 1
  %10 = alloca %"class.std::allocator", align 1
  %11 = alloca %"class.std::allocator", align 1
  %12 = alloca %"class.std::allocator", align 1
  %13 = alloca %"class.std::allocator", align 1
  %14 = alloca %"class.std::allocator", align 1
  %15 = alloca %"class.std::allocator", align 1
  %16 = alloca %"class.std::allocator", align 1
  %17 = alloca %"class.std::allocator", align 1
  %18 = alloca %"class.std::allocator", align 1
  %19 = alloca %"class.std::allocator", align 1
  %20 = alloca %"class.std::allocator", align 1
  %21 = alloca %"class.std::allocator", align 1
  %22 = alloca %"class.std::allocator", align 1
  %23 = alloca %"class.std::allocator", align 1
  %24 = alloca %"class.std::allocator", align 1
  %25 = alloca %"class.std::allocator", align 1
  %26 = alloca %"class.std::allocator", align 1
  %27 = alloca %"class.std::allocator", align 1
  %28 = alloca %"class.std::allocator", align 1
  %29 = alloca %"class.std::allocator", align 1
  %30 = alloca %"class.std::allocator", align 1
  %31 = alloca %"class.std::allocator", align 1
  %32 = alloca %"class.std::allocator", align 1
  %33 = alloca %"class.std::allocator", align 1
  %34 = alloca %"class.std::allocator", align 1
  %35 = alloca %"class.std::allocator", align 1
  %36 = alloca %"class.std::allocator", align 1
  %37 = alloca %"class.std::allocator", align 1
  %38 = alloca %"class.std::allocator", align 1
  %39 = alloca %"class.std::allocator", align 1
  %40 = alloca %"class.std::allocator", align 1
  %41 = alloca %"class.std::allocator", align 1
  %42 = alloca %"class.std::allocator", align 1
  %43 = alloca %"class.std::allocator", align 1
  %44 = alloca %"class.std::allocator", align 1
  %45 = alloca %"class.std::allocator", align 1
  %46 = alloca %"class.std::allocator", align 1
  %47 = alloca %"class.std::allocator", align 1
  %48 = alloca %"class.std::allocator", align 1
  %49 = alloca %"class.std::allocator", align 1
  %50 = alloca %"class.std::allocator", align 1
  %51 = alloca %"class.std::allocator", align 1
  %52 = alloca %"class.std::allocator", align 1
  %53 = alloca %"class.std::allocator", align 1
  %54 = alloca %"class.std::allocator", align 1
  %55 = alloca %"class.std::allocator", align 1
  %56 = alloca %"class.std::allocator", align 1
  %57 = alloca %"class.std::allocator", align 1
  %58 = alloca %"class.std::allocator", align 1
  %59 = alloca %"class.std::allocator", align 1
  %60 = alloca %"class.std::allocator", align 1
  %61 = alloca %"class.std::allocator", align 1
  %62 = alloca %"class.std::allocator", align 1
  %63 = alloca %"class.std::allocator", align 1
  %64 = alloca %"class.std::allocator", align 1
  %65 = alloca %"class.std::allocator", align 1
  %66 = alloca %"class.std::allocator", align 1
  %67 = alloca %"class.std::allocator", align 1
  %68 = alloca %"class.std::allocator", align 1
  %69 = alloca %"class.std::allocator", align 1
  %70 = alloca %"class.std::allocator", align 1
  %71 = alloca %"class.std::allocator", align 1
  %72 = alloca %"class.std::allocator", align 1
  %73 = alloca %"class.std::allocator", align 1
  %74 = alloca %"class.std::allocator", align 1
  %75 = alloca %"class.std::allocator", align 1
  %76 = alloca %"class.std::allocator", align 1
  %77 = alloca %"class.std::allocator", align 1
  %78 = alloca %"class.std::allocator", align 1
  %79 = alloca %"class.std::allocator", align 1
  %80 = alloca %"class.std::allocator", align 1
  %81 = alloca %"class.std::allocator", align 1
  %82 = alloca %"class.std::allocator", align 1
  %83 = alloca %"class.std::allocator", align 1
  %84 = alloca %"class.std::allocator", align 1
  %85 = alloca %"class.std::allocator", align 1
  %86 = alloca %"class.std::allocator", align 1
  %87 = alloca %"class.std::allocator", align 1
  %88 = alloca %"class.std::allocator", align 1
  %89 = alloca %"class.std::allocator", align 1
  %90 = alloca %"class.std::allocator", align 1
  %91 = alloca %"class.std::allocator", align 1
  %92 = alloca %"class.std::allocator", align 1
  %93 = alloca %"class.std::allocator", align 1
  %94 = alloca %"class.std::allocator", align 1
  %95 = alloca %"class.std::allocator", align 1
  %96 = alloca %"class.std::allocator", align 1
  %97 = alloca %"class.std::allocator", align 1
  %98 = alloca %"class.std::allocator", align 1
  %99 = alloca %"class.std::allocator", align 1
  %100 = alloca %"class.std::allocator", align 1
  %101 = alloca %"class.std::allocator", align 1
  %102 = alloca %"class.std::allocator", align 1
  %103 = alloca %"class.std::allocator", align 1
  %104 = alloca %"class.std::allocator", align 1
  %105 = alloca %"class.std::allocator", align 1
  %106 = alloca %"class.std::allocator", align 1
  %107 = alloca %"class.std::allocator", align 1
  %108 = alloca %"class.std::allocator", align 1
  %109 = alloca %"class.std::allocator", align 1
  %110 = alloca %"class.std::allocator", align 1
  %111 = alloca %"class.std::allocator", align 1
  %112 = alloca %"class.std::allocator", align 1
  %113 = alloca %"class.std::allocator", align 1
  %114 = alloca %"class.std::allocator", align 1
  %115 = alloca %"class.std::allocator", align 1
  %116 = alloca %"class.std::allocator", align 1
  %117 = alloca %"class.std::allocator", align 1
  %118 = alloca %"class.std::allocator", align 1
  %119 = alloca %"class.std::allocator", align 1
  %120 = alloca %"class.std::allocator", align 1
  %121 = alloca %"class.std::allocator", align 1
  %122 = alloca %"class.std::allocator", align 1
  %123 = alloca %"class.std::allocator", align 1
  %124 = alloca %"class.std::allocator", align 1
  %125 = alloca %"class.std::allocator", align 1
  %126 = alloca %"class.std::allocator", align 1
  %127 = alloca %"class.std::allocator", align 1
  %128 = alloca %"class.std::allocator", align 1
  %129 = alloca %"class.std::allocator", align 1
  %130 = alloca %"class.std::allocator", align 1
  %131 = alloca %"class.std::allocator", align 1
  %132 = alloca %"class.std::allocator", align 1
  %133 = alloca %"class.std::allocator", align 1
  %134 = alloca %"class.std::allocator", align 1
  %135 = alloca %"class.std::allocator", align 1
  %136 = alloca %"class.std::allocator", align 1
  %137 = alloca %"class.std::allocator", align 1
  store ptr %0, ptr %3, align 8
  store i32 %1, ptr %4, align 4
  call void @llvm.dbg.declare(metadata ptr %4, metadata !3825, metadata !DIExpression()), !dbg !3826
  %138 = load i32, ptr %4, align 4, !dbg !3827
  switch i32 %138, label %925 [
    i32 1, label %139
    i32 2, label %145
    i32 3, label %151
    i32 4, label %157
    i32 5, label %163
    i32 6, label %169
    i32 7, label %175
    i32 8, label %181
    i32 9, label %187
    i32 10, label %193
    i32 11, label %199
    i32 12, label %205
    i32 13, label %211
    i32 14, label %217
    i32 15, label %223
    i32 16, label %229
    i32 17, label %235
    i32 18, label %241
    i32 19, label %247
    i32 20, label %253
    i32 21, label %259
    i32 22, label %265
    i32 23, label %271
    i32 24, label %277
    i32 25, label %283
    i32 26, label %289
    i32 27, label %295
    i32 28, label %301
    i32 29, label %307
    i32 30, label %313
    i32 31, label %319
    i32 32, label %325
    i32 33, label %331
    i32 34, label %337
    i32 35, label %343
    i32 36, label %349
    i32 37, label %355
    i32 38, label %361
    i32 39, label %367
    i32 40, label %373
    i32 42, label %379
    i32 43, label %385
    i32 44, label %391
    i32 45, label %397
    i32 46, label %403
    i32 47, label %409
    i32 48, label %415
    i32 49, label %421
    i32 50, label %427
    i32 51, label %433
    i32 52, label %439
    i32 53, label %445
    i32 54, label %451
    i32 55, label %457
    i32 56, label %463
    i32 57, label %469
    i32 59, label %475
    i32 60, label %481
    i32 61, label %487
    i32 62, label %493
    i32 63, label %499
    i32 64, label %505
    i32 65, label %511
    i32 66, label %517
    i32 67, label %523
    i32 68, label %529
    i32 69, label %535
    i32 70, label %541
    i32 71, label %547
    i32 72, label %553
    i32 73, label %559
    i32 74, label %565
    i32 75, label %571
    i32 76, label %577
    i32 77, label %583
    i32 78, label %589
    i32 79, label %595
    i32 80, label %601
    i32 81, label %607
    i32 82, label %613
    i32 83, label %619
    i32 84, label %625
    i32 85, label %631
    i32 86, label %637
    i32 87, label %643
    i32 88, label %649
    i32 89, label %655
    i32 90, label %661
    i32 91, label %667
    i32 92, label %673
    i32 93, label %679
    i32 94, label %685
    i32 95, label %691
    i32 96, label %697
    i32 97, label %703
    i32 98, label %709
    i32 99, label %715
    i32 100, label %721
    i32 101, label %727
    i32 102, label %733
    i32 103, label %739
    i32 104, label %745
    i32 105, label %751
    i32 106, label %757
    i32 107, label %763
    i32 108, label %769
    i32 109, label %775
    i32 110, label %781
    i32 111, label %787
    i32 112, label %793
    i32 113, label %799
    i32 114, label %805
    i32 115, label %811
    i32 116, label %817
    i32 117, label %823
    i32 118, label %829
    i32 119, label %835
    i32 120, label %841
    i32 121, label %847
    i32 122, label %853
    i32 123, label %859
    i32 124, label %865
    i32 125, label %871
    i32 126, label %877
    i32 127, label %883
    i32 128, label %889
    i32 129, label %895
    i32 130, label %901
    i32 131, label %907
    i32 132, label %913
    i32 133, label %919
  ], !dbg !3828

139:                                              ; preds = %2
  call void @_ZNSaIcEC1Ev(ptr noundef nonnull align 1 dereferenceable(1) %5) #3, !dbg !3829
  invoke void @_ZNSt7__cxx1112basic_stringIcSt11char_traitsIcESaIcEEC2IS3_EEPKcRKS3_(ptr noundef nonnull align 8 dereferenceable(32) %0, ptr noundef @.str.59, ptr noundef nonnull align 1 dereferenceable(1) %5)
          to label %140 unwind label %141, !dbg !3829

140:                                              ; preds = %139
  call void @_ZNSaIcED1Ev(ptr noundef nonnull align 1 dereferenceable(1) %5) #3, !dbg !3831
  br label %927, !dbg !3831

141:                                              ; preds = %139
  %142 = landingpad { ptr, i32 }
          cleanup, !dbg !3832
  %143 = extractvalue { ptr, i32 } %142, 0, !dbg !3832
  store ptr %143, ptr %6, align 8, !dbg !3832
  %144 = extractvalue { ptr, i32 } %142, 1, !dbg !3832
  store i32 %144, ptr %7, align 4, !dbg !3832
  call void @_ZNSaIcED1Ev(ptr noundef nonnull align 1 dereferenceable(1) %5) #3, !dbg !3831
  br label %928, !dbg !3831

145:                                              ; preds = %2
  call void @_ZNSaIcEC1Ev(ptr noundef nonnull align 1 dereferenceable(1) %8) #3, !dbg !3833
  invoke void @_ZNSt7__cxx1112basic_stringIcSt11char_traitsIcESaIcEEC2IS3_EEPKcRKS3_(ptr noundef nonnull align 8 dereferenceable(32) %0, ptr noundef @.str.60, ptr noundef nonnull align 1 dereferenceable(1) %8)
          to label %146 unwind label %147, !dbg !3833

146:                                              ; preds = %145
  call void @_ZNSaIcED1Ev(ptr noundef nonnull align 1 dereferenceable(1) %8) #3, !dbg !3834
  br label %927, !dbg !3834

147:                                              ; preds = %145
  %148 = landingpad { ptr, i32 }
          cleanup, !dbg !3832
  %149 = extractvalue { ptr, i32 } %148, 0, !dbg !3832
  store ptr %149, ptr %6, align 8, !dbg !3832
  %150 = extractvalue { ptr, i32 } %148, 1, !dbg !3832
  store i32 %150, ptr %7, align 4, !dbg !3832
  call void @_ZNSaIcED1Ev(ptr noundef nonnull align 1 dereferenceable(1) %8) #3, !dbg !3834
  br label %928, !dbg !3834

151:                                              ; preds = %2
  call void @_ZNSaIcEC1Ev(ptr noundef nonnull align 1 dereferenceable(1) %9) #3, !dbg !3835
  invoke void @_ZNSt7__cxx1112basic_stringIcSt11char_traitsIcESaIcEEC2IS3_EEPKcRKS3_(ptr noundef nonnull align 8 dereferenceable(32) %0, ptr noundef @.str.61, ptr noundef nonnull align 1 dereferenceable(1) %9)
          to label %152 unwind label %153, !dbg !3835

152:                                              ; preds = %151
  call void @_ZNSaIcED1Ev(ptr noundef nonnull align 1 dereferenceable(1) %9) #3, !dbg !3836
  br label %927, !dbg !3836

153:                                              ; preds = %151
  %154 = landingpad { ptr, i32 }
          cleanup, !dbg !3832
  %155 = extractvalue { ptr, i32 } %154, 0, !dbg !3832
  store ptr %155, ptr %6, align 8, !dbg !3832
  %156 = extractvalue { ptr, i32 } %154, 1, !dbg !3832
  store i32 %156, ptr %7, align 4, !dbg !3832
  call void @_ZNSaIcED1Ev(ptr noundef nonnull align 1 dereferenceable(1) %9) #3, !dbg !3836
  br label %928, !dbg !3836

157:                                              ; preds = %2
  call void @_ZNSaIcEC1Ev(ptr noundef nonnull align 1 dereferenceable(1) %10) #3, !dbg !3837
  invoke void @_ZNSt7__cxx1112basic_stringIcSt11char_traitsIcESaIcEEC2IS3_EEPKcRKS3_(ptr noundef nonnull align 8 dereferenceable(32) %0, ptr noundef @.str.62, ptr noundef nonnull align 1 dereferenceable(1) %10)
          to label %158 unwind label %159, !dbg !3837

158:                                              ; preds = %157
  call void @_ZNSaIcED1Ev(ptr noundef nonnull align 1 dereferenceable(1) %10) #3, !dbg !3838
  br label %927, !dbg !3838

159:                                              ; preds = %157
  %160 = landingpad { ptr, i32 }
          cleanup, !dbg !3832
  %161 = extractvalue { ptr, i32 } %160, 0, !dbg !3832
  store ptr %161, ptr %6, align 8, !dbg !3832
  %162 = extractvalue { ptr, i32 } %160, 1, !dbg !3832
  store i32 %162, ptr %7, align 4, !dbg !3832
  call void @_ZNSaIcED1Ev(ptr noundef nonnull align 1 dereferenceable(1) %10) #3, !dbg !3838
  br label %928, !dbg !3838

163:                                              ; preds = %2
  call void @_ZNSaIcEC1Ev(ptr noundef nonnull align 1 dereferenceable(1) %11) #3, !dbg !3839
  invoke void @_ZNSt7__cxx1112basic_stringIcSt11char_traitsIcESaIcEEC2IS3_EEPKcRKS3_(ptr noundef nonnull align 8 dereferenceable(32) %0, ptr noundef @.str.63, ptr noundef nonnull align 1 dereferenceable(1) %11)
          to label %164 unwind label %165, !dbg !3839

164:                                              ; preds = %163
  call void @_ZNSaIcED1Ev(ptr noundef nonnull align 1 dereferenceable(1) %11) #3, !dbg !3840
  br label %927, !dbg !3840

165:                                              ; preds = %163
  %166 = landingpad { ptr, i32 }
          cleanup, !dbg !3832
  %167 = extractvalue { ptr, i32 } %166, 0, !dbg !3832
  store ptr %167, ptr %6, align 8, !dbg !3832
  %168 = extractvalue { ptr, i32 } %166, 1, !dbg !3832
  store i32 %168, ptr %7, align 4, !dbg !3832
  call void @_ZNSaIcED1Ev(ptr noundef nonnull align 1 dereferenceable(1) %11) #3, !dbg !3840
  br label %928, !dbg !3840

169:                                              ; preds = %2
  call void @_ZNSaIcEC1Ev(ptr noundef nonnull align 1 dereferenceable(1) %12) #3, !dbg !3841
  invoke void @_ZNSt7__cxx1112basic_stringIcSt11char_traitsIcESaIcEEC2IS3_EEPKcRKS3_(ptr noundef nonnull align 8 dereferenceable(32) %0, ptr noundef @.str.64, ptr noundef nonnull align 1 dereferenceable(1) %12)
          to label %170 unwind label %171, !dbg !3841

170:                                              ; preds = %169
  call void @_ZNSaIcED1Ev(ptr noundef nonnull align 1 dereferenceable(1) %12) #3, !dbg !3842
  br label %927, !dbg !3842

171:                                              ; preds = %169
  %172 = landingpad { ptr, i32 }
          cleanup, !dbg !3832
  %173 = extractvalue { ptr, i32 } %172, 0, !dbg !3832
  store ptr %173, ptr %6, align 8, !dbg !3832
  %174 = extractvalue { ptr, i32 } %172, 1, !dbg !3832
  store i32 %174, ptr %7, align 4, !dbg !3832
  call void @_ZNSaIcED1Ev(ptr noundef nonnull align 1 dereferenceable(1) %12) #3, !dbg !3842
  br label %928, !dbg !3842

175:                                              ; preds = %2
  call void @_ZNSaIcEC1Ev(ptr noundef nonnull align 1 dereferenceable(1) %13) #3, !dbg !3843
  invoke void @_ZNSt7__cxx1112basic_stringIcSt11char_traitsIcESaIcEEC2IS3_EEPKcRKS3_(ptr noundef nonnull align 8 dereferenceable(32) %0, ptr noundef @.str.65, ptr noundef nonnull align 1 dereferenceable(1) %13)
          to label %176 unwind label %177, !dbg !3843

176:                                              ; preds = %175
  call void @_ZNSaIcED1Ev(ptr noundef nonnull align 1 dereferenceable(1) %13) #3, !dbg !3844
  br label %927, !dbg !3844

177:                                              ; preds = %175
  %178 = landingpad { ptr, i32 }
          cleanup, !dbg !3832
  %179 = extractvalue { ptr, i32 } %178, 0, !dbg !3832
  store ptr %179, ptr %6, align 8, !dbg !3832
  %180 = extractvalue { ptr, i32 } %178, 1, !dbg !3832
  store i32 %180, ptr %7, align 4, !dbg !3832
  call void @_ZNSaIcED1Ev(ptr noundef nonnull align 1 dereferenceable(1) %13) #3, !dbg !3844
  br label %928, !dbg !3844

181:                                              ; preds = %2
  call void @_ZNSaIcEC1Ev(ptr noundef nonnull align 1 dereferenceable(1) %14) #3, !dbg !3845
  invoke void @_ZNSt7__cxx1112basic_stringIcSt11char_traitsIcESaIcEEC2IS3_EEPKcRKS3_(ptr noundef nonnull align 8 dereferenceable(32) %0, ptr noundef @.str.66, ptr noundef nonnull align 1 dereferenceable(1) %14)
          to label %182 unwind label %183, !dbg !3845

182:                                              ; preds = %181
  call void @_ZNSaIcED1Ev(ptr noundef nonnull align 1 dereferenceable(1) %14) #3, !dbg !3846
  br label %927, !dbg !3846

183:                                              ; preds = %181
  %184 = landingpad { ptr, i32 }
          cleanup, !dbg !3832
  %185 = extractvalue { ptr, i32 } %184, 0, !dbg !3832
  store ptr %185, ptr %6, align 8, !dbg !3832
  %186 = extractvalue { ptr, i32 } %184, 1, !dbg !3832
  store i32 %186, ptr %7, align 4, !dbg !3832
  call void @_ZNSaIcED1Ev(ptr noundef nonnull align 1 dereferenceable(1) %14) #3, !dbg !3846
  br label %928, !dbg !3846

187:                                              ; preds = %2
  call void @_ZNSaIcEC1Ev(ptr noundef nonnull align 1 dereferenceable(1) %15) #3, !dbg !3847
  invoke void @_ZNSt7__cxx1112basic_stringIcSt11char_traitsIcESaIcEEC2IS3_EEPKcRKS3_(ptr noundef nonnull align 8 dereferenceable(32) %0, ptr noundef @.str.67, ptr noundef nonnull align 1 dereferenceable(1) %15)
          to label %188 unwind label %189, !dbg !3847

188:                                              ; preds = %187
  call void @_ZNSaIcED1Ev(ptr noundef nonnull align 1 dereferenceable(1) %15) #3, !dbg !3848
  br label %927, !dbg !3848

189:                                              ; preds = %187
  %190 = landingpad { ptr, i32 }
          cleanup, !dbg !3832
  %191 = extractvalue { ptr, i32 } %190, 0, !dbg !3832
  store ptr %191, ptr %6, align 8, !dbg !3832
  %192 = extractvalue { ptr, i32 } %190, 1, !dbg !3832
  store i32 %192, ptr %7, align 4, !dbg !3832
  call void @_ZNSaIcED1Ev(ptr noundef nonnull align 1 dereferenceable(1) %15) #3, !dbg !3848
  br label %928, !dbg !3848

193:                                              ; preds = %2
  call void @_ZNSaIcEC1Ev(ptr noundef nonnull align 1 dereferenceable(1) %16) #3, !dbg !3849
  invoke void @_ZNSt7__cxx1112basic_stringIcSt11char_traitsIcESaIcEEC2IS3_EEPKcRKS3_(ptr noundef nonnull align 8 dereferenceable(32) %0, ptr noundef @.str.68, ptr noundef nonnull align 1 dereferenceable(1) %16)
          to label %194 unwind label %195, !dbg !3849

194:                                              ; preds = %193
  call void @_ZNSaIcED1Ev(ptr noundef nonnull align 1 dereferenceable(1) %16) #3, !dbg !3850
  br label %927, !dbg !3850

195:                                              ; preds = %193
  %196 = landingpad { ptr, i32 }
          cleanup, !dbg !3832
  %197 = extractvalue { ptr, i32 } %196, 0, !dbg !3832
  store ptr %197, ptr %6, align 8, !dbg !3832
  %198 = extractvalue { ptr, i32 } %196, 1, !dbg !3832
  store i32 %198, ptr %7, align 4, !dbg !3832
  call void @_ZNSaIcED1Ev(ptr noundef nonnull align 1 dereferenceable(1) %16) #3, !dbg !3850
  br label %928, !dbg !3850

199:                                              ; preds = %2
  call void @_ZNSaIcEC1Ev(ptr noundef nonnull align 1 dereferenceable(1) %17) #3, !dbg !3851
  invoke void @_ZNSt7__cxx1112basic_stringIcSt11char_traitsIcESaIcEEC2IS3_EEPKcRKS3_(ptr noundef nonnull align 8 dereferenceable(32) %0, ptr noundef @.str.69, ptr noundef nonnull align 1 dereferenceable(1) %17)
          to label %200 unwind label %201, !dbg !3851

200:                                              ; preds = %199
  call void @_ZNSaIcED1Ev(ptr noundef nonnull align 1 dereferenceable(1) %17) #3, !dbg !3852
  br label %927, !dbg !3852

201:                                              ; preds = %199
  %202 = landingpad { ptr, i32 }
          cleanup, !dbg !3832
  %203 = extractvalue { ptr, i32 } %202, 0, !dbg !3832
  store ptr %203, ptr %6, align 8, !dbg !3832
  %204 = extractvalue { ptr, i32 } %202, 1, !dbg !3832
  store i32 %204, ptr %7, align 4, !dbg !3832
  call void @_ZNSaIcED1Ev(ptr noundef nonnull align 1 dereferenceable(1) %17) #3, !dbg !3852
  br label %928, !dbg !3852

205:                                              ; preds = %2
  call void @_ZNSaIcEC1Ev(ptr noundef nonnull align 1 dereferenceable(1) %18) #3, !dbg !3853
  invoke void @_ZNSt7__cxx1112basic_stringIcSt11char_traitsIcESaIcEEC2IS3_EEPKcRKS3_(ptr noundef nonnull align 8 dereferenceable(32) %0, ptr noundef @.str.70, ptr noundef nonnull align 1 dereferenceable(1) %18)
          to label %206 unwind label %207, !dbg !3853

206:                                              ; preds = %205
  call void @_ZNSaIcED1Ev(ptr noundef nonnull align 1 dereferenceable(1) %18) #3, !dbg !3854
  br label %927, !dbg !3854

207:                                              ; preds = %205
  %208 = landingpad { ptr, i32 }
          cleanup, !dbg !3832
  %209 = extractvalue { ptr, i32 } %208, 0, !dbg !3832
  store ptr %209, ptr %6, align 8, !dbg !3832
  %210 = extractvalue { ptr, i32 } %208, 1, !dbg !3832
  store i32 %210, ptr %7, align 4, !dbg !3832
  call void @_ZNSaIcED1Ev(ptr noundef nonnull align 1 dereferenceable(1) %18) #3, !dbg !3854
  br label %928, !dbg !3854

211:                                              ; preds = %2
  call void @_ZNSaIcEC1Ev(ptr noundef nonnull align 1 dereferenceable(1) %19) #3, !dbg !3855
  invoke void @_ZNSt7__cxx1112basic_stringIcSt11char_traitsIcESaIcEEC2IS3_EEPKcRKS3_(ptr noundef nonnull align 8 dereferenceable(32) %0, ptr noundef @.str.71, ptr noundef nonnull align 1 dereferenceable(1) %19)
          to label %212 unwind label %213, !dbg !3855

212:                                              ; preds = %211
  call void @_ZNSaIcED1Ev(ptr noundef nonnull align 1 dereferenceable(1) %19) #3, !dbg !3856
  br label %927, !dbg !3856

213:                                              ; preds = %211
  %214 = landingpad { ptr, i32 }
          cleanup, !dbg !3832
  %215 = extractvalue { ptr, i32 } %214, 0, !dbg !3832
  store ptr %215, ptr %6, align 8, !dbg !3832
  %216 = extractvalue { ptr, i32 } %214, 1, !dbg !3832
  store i32 %216, ptr %7, align 4, !dbg !3832
  call void @_ZNSaIcED1Ev(ptr noundef nonnull align 1 dereferenceable(1) %19) #3, !dbg !3856
  br label %928, !dbg !3856

217:                                              ; preds = %2
  call void @_ZNSaIcEC1Ev(ptr noundef nonnull align 1 dereferenceable(1) %20) #3, !dbg !3857
  invoke void @_ZNSt7__cxx1112basic_stringIcSt11char_traitsIcESaIcEEC2IS3_EEPKcRKS3_(ptr noundef nonnull align 8 dereferenceable(32) %0, ptr noundef @.str.72, ptr noundef nonnull align 1 dereferenceable(1) %20)
          to label %218 unwind label %219, !dbg !3857

218:                                              ; preds = %217
  call void @_ZNSaIcED1Ev(ptr noundef nonnull align 1 dereferenceable(1) %20) #3, !dbg !3858
  br label %927, !dbg !3858

219:                                              ; preds = %217
  %220 = landingpad { ptr, i32 }
          cleanup, !dbg !3832
  %221 = extractvalue { ptr, i32 } %220, 0, !dbg !3832
  store ptr %221, ptr %6, align 8, !dbg !3832
  %222 = extractvalue { ptr, i32 } %220, 1, !dbg !3832
  store i32 %222, ptr %7, align 4, !dbg !3832
  call void @_ZNSaIcED1Ev(ptr noundef nonnull align 1 dereferenceable(1) %20) #3, !dbg !3858
  br label %928, !dbg !3858

223:                                              ; preds = %2
  call void @_ZNSaIcEC1Ev(ptr noundef nonnull align 1 dereferenceable(1) %21) #3, !dbg !3859
  invoke void @_ZNSt7__cxx1112basic_stringIcSt11char_traitsIcESaIcEEC2IS3_EEPKcRKS3_(ptr noundef nonnull align 8 dereferenceable(32) %0, ptr noundef @.str.73, ptr noundef nonnull align 1 dereferenceable(1) %21)
          to label %224 unwind label %225, !dbg !3859

224:                                              ; preds = %223
  call void @_ZNSaIcED1Ev(ptr noundef nonnull align 1 dereferenceable(1) %21) #3, !dbg !3860
  br label %927, !dbg !3860

225:                                              ; preds = %223
  %226 = landingpad { ptr, i32 }
          cleanup, !dbg !3832
  %227 = extractvalue { ptr, i32 } %226, 0, !dbg !3832
  store ptr %227, ptr %6, align 8, !dbg !3832
  %228 = extractvalue { ptr, i32 } %226, 1, !dbg !3832
  store i32 %228, ptr %7, align 4, !dbg !3832
  call void @_ZNSaIcED1Ev(ptr noundef nonnull align 1 dereferenceable(1) %21) #3, !dbg !3860
  br label %928, !dbg !3860

229:                                              ; preds = %2
  call void @_ZNSaIcEC1Ev(ptr noundef nonnull align 1 dereferenceable(1) %22) #3, !dbg !3861
  invoke void @_ZNSt7__cxx1112basic_stringIcSt11char_traitsIcESaIcEEC2IS3_EEPKcRKS3_(ptr noundef nonnull align 8 dereferenceable(32) %0, ptr noundef @.str.74, ptr noundef nonnull align 1 dereferenceable(1) %22)
          to label %230 unwind label %231, !dbg !3861

230:                                              ; preds = %229
  call void @_ZNSaIcED1Ev(ptr noundef nonnull align 1 dereferenceable(1) %22) #3, !dbg !3862
  br label %927, !dbg !3862

231:                                              ; preds = %229
  %232 = landingpad { ptr, i32 }
          cleanup, !dbg !3832
  %233 = extractvalue { ptr, i32 } %232, 0, !dbg !3832
  store ptr %233, ptr %6, align 8, !dbg !3832
  %234 = extractvalue { ptr, i32 } %232, 1, !dbg !3832
  store i32 %234, ptr %7, align 4, !dbg !3832
  call void @_ZNSaIcED1Ev(ptr noundef nonnull align 1 dereferenceable(1) %22) #3, !dbg !3862
  br label %928, !dbg !3862

235:                                              ; preds = %2
  call void @_ZNSaIcEC1Ev(ptr noundef nonnull align 1 dereferenceable(1) %23) #3, !dbg !3863
  invoke void @_ZNSt7__cxx1112basic_stringIcSt11char_traitsIcESaIcEEC2IS3_EEPKcRKS3_(ptr noundef nonnull align 8 dereferenceable(32) %0, ptr noundef @.str.75, ptr noundef nonnull align 1 dereferenceable(1) %23)
          to label %236 unwind label %237, !dbg !3863

236:                                              ; preds = %235
  call void @_ZNSaIcED1Ev(ptr noundef nonnull align 1 dereferenceable(1) %23) #3, !dbg !3864
  br label %927, !dbg !3864

237:                                              ; preds = %235
  %238 = landingpad { ptr, i32 }
          cleanup, !dbg !3832
  %239 = extractvalue { ptr, i32 } %238, 0, !dbg !3832
  store ptr %239, ptr %6, align 8, !dbg !3832
  %240 = extractvalue { ptr, i32 } %238, 1, !dbg !3832
  store i32 %240, ptr %7, align 4, !dbg !3832
  call void @_ZNSaIcED1Ev(ptr noundef nonnull align 1 dereferenceable(1) %23) #3, !dbg !3864
  br label %928, !dbg !3864

241:                                              ; preds = %2
  call void @_ZNSaIcEC1Ev(ptr noundef nonnull align 1 dereferenceable(1) %24) #3, !dbg !3865
  invoke void @_ZNSt7__cxx1112basic_stringIcSt11char_traitsIcESaIcEEC2IS3_EEPKcRKS3_(ptr noundef nonnull align 8 dereferenceable(32) %0, ptr noundef @.str.76, ptr noundef nonnull align 1 dereferenceable(1) %24)
          to label %242 unwind label %243, !dbg !3865

242:                                              ; preds = %241
  call void @_ZNSaIcED1Ev(ptr noundef nonnull align 1 dereferenceable(1) %24) #3, !dbg !3866
  br label %927, !dbg !3866

243:                                              ; preds = %241
  %244 = landingpad { ptr, i32 }
          cleanup, !dbg !3832
  %245 = extractvalue { ptr, i32 } %244, 0, !dbg !3832
  store ptr %245, ptr %6, align 8, !dbg !3832
  %246 = extractvalue { ptr, i32 } %244, 1, !dbg !3832
  store i32 %246, ptr %7, align 4, !dbg !3832
  call void @_ZNSaIcED1Ev(ptr noundef nonnull align 1 dereferenceable(1) %24) #3, !dbg !3866
  br label %928, !dbg !3866

247:                                              ; preds = %2
  call void @_ZNSaIcEC1Ev(ptr noundef nonnull align 1 dereferenceable(1) %25) #3, !dbg !3867
  invoke void @_ZNSt7__cxx1112basic_stringIcSt11char_traitsIcESaIcEEC2IS3_EEPKcRKS3_(ptr noundef nonnull align 8 dereferenceable(32) %0, ptr noundef @.str.77, ptr noundef nonnull align 1 dereferenceable(1) %25)
          to label %248 unwind label %249, !dbg !3867

248:                                              ; preds = %247
  call void @_ZNSaIcED1Ev(ptr noundef nonnull align 1 dereferenceable(1) %25) #3, !dbg !3868
  br label %927, !dbg !3868

249:                                              ; preds = %247
  %250 = landingpad { ptr, i32 }
          cleanup, !dbg !3832
  %251 = extractvalue { ptr, i32 } %250, 0, !dbg !3832
  store ptr %251, ptr %6, align 8, !dbg !3832
  %252 = extractvalue { ptr, i32 } %250, 1, !dbg !3832
  store i32 %252, ptr %7, align 4, !dbg !3832
  call void @_ZNSaIcED1Ev(ptr noundef nonnull align 1 dereferenceable(1) %25) #3, !dbg !3868
  br label %928, !dbg !3868

253:                                              ; preds = %2
  call void @_ZNSaIcEC1Ev(ptr noundef nonnull align 1 dereferenceable(1) %26) #3, !dbg !3869
  invoke void @_ZNSt7__cxx1112basic_stringIcSt11char_traitsIcESaIcEEC2IS3_EEPKcRKS3_(ptr noundef nonnull align 8 dereferenceable(32) %0, ptr noundef @.str.78, ptr noundef nonnull align 1 dereferenceable(1) %26)
          to label %254 unwind label %255, !dbg !3869

254:                                              ; preds = %253
  call void @_ZNSaIcED1Ev(ptr noundef nonnull align 1 dereferenceable(1) %26) #3, !dbg !3870
  br label %927, !dbg !3870

255:                                              ; preds = %253
  %256 = landingpad { ptr, i32 }
          cleanup, !dbg !3832
  %257 = extractvalue { ptr, i32 } %256, 0, !dbg !3832
  store ptr %257, ptr %6, align 8, !dbg !3832
  %258 = extractvalue { ptr, i32 } %256, 1, !dbg !3832
  store i32 %258, ptr %7, align 4, !dbg !3832
  call void @_ZNSaIcED1Ev(ptr noundef nonnull align 1 dereferenceable(1) %26) #3, !dbg !3870
  br label %928, !dbg !3870

259:                                              ; preds = %2
  call void @_ZNSaIcEC1Ev(ptr noundef nonnull align 1 dereferenceable(1) %27) #3, !dbg !3871
  invoke void @_ZNSt7__cxx1112basic_stringIcSt11char_traitsIcESaIcEEC2IS3_EEPKcRKS3_(ptr noundef nonnull align 8 dereferenceable(32) %0, ptr noundef @.str.79, ptr noundef nonnull align 1 dereferenceable(1) %27)
          to label %260 unwind label %261, !dbg !3871

260:                                              ; preds = %259
  call void @_ZNSaIcED1Ev(ptr noundef nonnull align 1 dereferenceable(1) %27) #3, !dbg !3872
  br label %927, !dbg !3872

261:                                              ; preds = %259
  %262 = landingpad { ptr, i32 }
          cleanup, !dbg !3832
  %263 = extractvalue { ptr, i32 } %262, 0, !dbg !3832
  store ptr %263, ptr %6, align 8, !dbg !3832
  %264 = extractvalue { ptr, i32 } %262, 1, !dbg !3832
  store i32 %264, ptr %7, align 4, !dbg !3832
  call void @_ZNSaIcED1Ev(ptr noundef nonnull align 1 dereferenceable(1) %27) #3, !dbg !3872
  br label %928, !dbg !3872

265:                                              ; preds = %2
  call void @_ZNSaIcEC1Ev(ptr noundef nonnull align 1 dereferenceable(1) %28) #3, !dbg !3873
  invoke void @_ZNSt7__cxx1112basic_stringIcSt11char_traitsIcESaIcEEC2IS3_EEPKcRKS3_(ptr noundef nonnull align 8 dereferenceable(32) %0, ptr noundef @.str.80, ptr noundef nonnull align 1 dereferenceable(1) %28)
          to label %266 unwind label %267, !dbg !3873

266:                                              ; preds = %265
  call void @_ZNSaIcED1Ev(ptr noundef nonnull align 1 dereferenceable(1) %28) #3, !dbg !3874
  br label %927, !dbg !3874

267:                                              ; preds = %265
  %268 = landingpad { ptr, i32 }
          cleanup, !dbg !3832
  %269 = extractvalue { ptr, i32 } %268, 0, !dbg !3832
  store ptr %269, ptr %6, align 8, !dbg !3832
  %270 = extractvalue { ptr, i32 } %268, 1, !dbg !3832
  store i32 %270, ptr %7, align 4, !dbg !3832
  call void @_ZNSaIcED1Ev(ptr noundef nonnull align 1 dereferenceable(1) %28) #3, !dbg !3874
  br label %928, !dbg !3874

271:                                              ; preds = %2
  call void @_ZNSaIcEC1Ev(ptr noundef nonnull align 1 dereferenceable(1) %29) #3, !dbg !3875
  invoke void @_ZNSt7__cxx1112basic_stringIcSt11char_traitsIcESaIcEEC2IS3_EEPKcRKS3_(ptr noundef nonnull align 8 dereferenceable(32) %0, ptr noundef @.str.81, ptr noundef nonnull align 1 dereferenceable(1) %29)
          to label %272 unwind label %273, !dbg !3875

272:                                              ; preds = %271
  call void @_ZNSaIcED1Ev(ptr noundef nonnull align 1 dereferenceable(1) %29) #3, !dbg !3876
  br label %927, !dbg !3876

273:                                              ; preds = %271
  %274 = landingpad { ptr, i32 }
          cleanup, !dbg !3832
  %275 = extractvalue { ptr, i32 } %274, 0, !dbg !3832
  store ptr %275, ptr %6, align 8, !dbg !3832
  %276 = extractvalue { ptr, i32 } %274, 1, !dbg !3832
  store i32 %276, ptr %7, align 4, !dbg !3832
  call void @_ZNSaIcED1Ev(ptr noundef nonnull align 1 dereferenceable(1) %29) #3, !dbg !3876
  br label %928, !dbg !3876

277:                                              ; preds = %2
  call void @_ZNSaIcEC1Ev(ptr noundef nonnull align 1 dereferenceable(1) %30) #3, !dbg !3877
  invoke void @_ZNSt7__cxx1112basic_stringIcSt11char_traitsIcESaIcEEC2IS3_EEPKcRKS3_(ptr noundef nonnull align 8 dereferenceable(32) %0, ptr noundef @.str.82, ptr noundef nonnull align 1 dereferenceable(1) %30)
          to label %278 unwind label %279, !dbg !3877

278:                                              ; preds = %277
  call void @_ZNSaIcED1Ev(ptr noundef nonnull align 1 dereferenceable(1) %30) #3, !dbg !3878
  br label %927, !dbg !3878

279:                                              ; preds = %277
  %280 = landingpad { ptr, i32 }
          cleanup, !dbg !3832
  %281 = extractvalue { ptr, i32 } %280, 0, !dbg !3832
  store ptr %281, ptr %6, align 8, !dbg !3832
  %282 = extractvalue { ptr, i32 } %280, 1, !dbg !3832
  store i32 %282, ptr %7, align 4, !dbg !3832
  call void @_ZNSaIcED1Ev(ptr noundef nonnull align 1 dereferenceable(1) %30) #3, !dbg !3878
  br label %928, !dbg !3878

283:                                              ; preds = %2
  call void @_ZNSaIcEC1Ev(ptr noundef nonnull align 1 dereferenceable(1) %31) #3, !dbg !3879
  invoke void @_ZNSt7__cxx1112basic_stringIcSt11char_traitsIcESaIcEEC2IS3_EEPKcRKS3_(ptr noundef nonnull align 8 dereferenceable(32) %0, ptr noundef @.str.83, ptr noundef nonnull align 1 dereferenceable(1) %31)
          to label %284 unwind label %285, !dbg !3879

284:                                              ; preds = %283
  call void @_ZNSaIcED1Ev(ptr noundef nonnull align 1 dereferenceable(1) %31) #3, !dbg !3880
  br label %927, !dbg !3880

285:                                              ; preds = %283
  %286 = landingpad { ptr, i32 }
          cleanup, !dbg !3832
  %287 = extractvalue { ptr, i32 } %286, 0, !dbg !3832
  store ptr %287, ptr %6, align 8, !dbg !3832
  %288 = extractvalue { ptr, i32 } %286, 1, !dbg !3832
  store i32 %288, ptr %7, align 4, !dbg !3832
  call void @_ZNSaIcED1Ev(ptr noundef nonnull align 1 dereferenceable(1) %31) #3, !dbg !3880
  br label %928, !dbg !3880

289:                                              ; preds = %2
  call void @_ZNSaIcEC1Ev(ptr noundef nonnull align 1 dereferenceable(1) %32) #3, !dbg !3881
  invoke void @_ZNSt7__cxx1112basic_stringIcSt11char_traitsIcESaIcEEC2IS3_EEPKcRKS3_(ptr noundef nonnull align 8 dereferenceable(32) %0, ptr noundef @.str.84, ptr noundef nonnull align 1 dereferenceable(1) %32)
          to label %290 unwind label %291, !dbg !3881

290:                                              ; preds = %289
  call void @_ZNSaIcED1Ev(ptr noundef nonnull align 1 dereferenceable(1) %32) #3, !dbg !3882
  br label %927, !dbg !3882

291:                                              ; preds = %289
  %292 = landingpad { ptr, i32 }
          cleanup, !dbg !3832
  %293 = extractvalue { ptr, i32 } %292, 0, !dbg !3832
  store ptr %293, ptr %6, align 8, !dbg !3832
  %294 = extractvalue { ptr, i32 } %292, 1, !dbg !3832
  store i32 %294, ptr %7, align 4, !dbg !3832
  call void @_ZNSaIcED1Ev(ptr noundef nonnull align 1 dereferenceable(1) %32) #3, !dbg !3882
  br label %928, !dbg !3882

295:                                              ; preds = %2
  call void @_ZNSaIcEC1Ev(ptr noundef nonnull align 1 dereferenceable(1) %33) #3, !dbg !3883
  invoke void @_ZNSt7__cxx1112basic_stringIcSt11char_traitsIcESaIcEEC2IS3_EEPKcRKS3_(ptr noundef nonnull align 8 dereferenceable(32) %0, ptr noundef @.str.85, ptr noundef nonnull align 1 dereferenceable(1) %33)
          to label %296 unwind label %297, !dbg !3883

296:                                              ; preds = %295
  call void @_ZNSaIcED1Ev(ptr noundef nonnull align 1 dereferenceable(1) %33) #3, !dbg !3884
  br label %927, !dbg !3884

297:                                              ; preds = %295
  %298 = landingpad { ptr, i32 }
          cleanup, !dbg !3832
  %299 = extractvalue { ptr, i32 } %298, 0, !dbg !3832
  store ptr %299, ptr %6, align 8, !dbg !3832
  %300 = extractvalue { ptr, i32 } %298, 1, !dbg !3832
  store i32 %300, ptr %7, align 4, !dbg !3832
  call void @_ZNSaIcED1Ev(ptr noundef nonnull align 1 dereferenceable(1) %33) #3, !dbg !3884
  br label %928, !dbg !3884

301:                                              ; preds = %2
  call void @_ZNSaIcEC1Ev(ptr noundef nonnull align 1 dereferenceable(1) %34) #3, !dbg !3885
  invoke void @_ZNSt7__cxx1112basic_stringIcSt11char_traitsIcESaIcEEC2IS3_EEPKcRKS3_(ptr noundef nonnull align 8 dereferenceable(32) %0, ptr noundef @.str.86, ptr noundef nonnull align 1 dereferenceable(1) %34)
          to label %302 unwind label %303, !dbg !3885

302:                                              ; preds = %301
  call void @_ZNSaIcED1Ev(ptr noundef nonnull align 1 dereferenceable(1) %34) #3, !dbg !3886
  br label %927, !dbg !3886

303:                                              ; preds = %301
  %304 = landingpad { ptr, i32 }
          cleanup, !dbg !3832
  %305 = extractvalue { ptr, i32 } %304, 0, !dbg !3832
  store ptr %305, ptr %6, align 8, !dbg !3832
  %306 = extractvalue { ptr, i32 } %304, 1, !dbg !3832
  store i32 %306, ptr %7, align 4, !dbg !3832
  call void @_ZNSaIcED1Ev(ptr noundef nonnull align 1 dereferenceable(1) %34) #3, !dbg !3886
  br label %928, !dbg !3886

307:                                              ; preds = %2
  call void @_ZNSaIcEC1Ev(ptr noundef nonnull align 1 dereferenceable(1) %35) #3, !dbg !3887
  invoke void @_ZNSt7__cxx1112basic_stringIcSt11char_traitsIcESaIcEEC2IS3_EEPKcRKS3_(ptr noundef nonnull align 8 dereferenceable(32) %0, ptr noundef @.str.87, ptr noundef nonnull align 1 dereferenceable(1) %35)
          to label %308 unwind label %309, !dbg !3887

308:                                              ; preds = %307
  call void @_ZNSaIcED1Ev(ptr noundef nonnull align 1 dereferenceable(1) %35) #3, !dbg !3888
  br label %927, !dbg !3888

309:                                              ; preds = %307
  %310 = landingpad { ptr, i32 }
          cleanup, !dbg !3832
  %311 = extractvalue { ptr, i32 } %310, 0, !dbg !3832
  store ptr %311, ptr %6, align 8, !dbg !3832
  %312 = extractvalue { ptr, i32 } %310, 1, !dbg !3832
  store i32 %312, ptr %7, align 4, !dbg !3832
  call void @_ZNSaIcED1Ev(ptr noundef nonnull align 1 dereferenceable(1) %35) #3, !dbg !3888
  br label %928, !dbg !3888

313:                                              ; preds = %2
  call void @_ZNSaIcEC1Ev(ptr noundef nonnull align 1 dereferenceable(1) %36) #3, !dbg !3889
  invoke void @_ZNSt7__cxx1112basic_stringIcSt11char_traitsIcESaIcEEC2IS3_EEPKcRKS3_(ptr noundef nonnull align 8 dereferenceable(32) %0, ptr noundef @.str.88, ptr noundef nonnull align 1 dereferenceable(1) %36)
          to label %314 unwind label %315, !dbg !3889

314:                                              ; preds = %313
  call void @_ZNSaIcED1Ev(ptr noundef nonnull align 1 dereferenceable(1) %36) #3, !dbg !3890
  br label %927, !dbg !3890

315:                                              ; preds = %313
  %316 = landingpad { ptr, i32 }
          cleanup, !dbg !3832
  %317 = extractvalue { ptr, i32 } %316, 0, !dbg !3832
  store ptr %317, ptr %6, align 8, !dbg !3832
  %318 = extractvalue { ptr, i32 } %316, 1, !dbg !3832
  store i32 %318, ptr %7, align 4, !dbg !3832
  call void @_ZNSaIcED1Ev(ptr noundef nonnull align 1 dereferenceable(1) %36) #3, !dbg !3890
  br label %928, !dbg !3890

319:                                              ; preds = %2
  call void @_ZNSaIcEC1Ev(ptr noundef nonnull align 1 dereferenceable(1) %37) #3, !dbg !3891
  invoke void @_ZNSt7__cxx1112basic_stringIcSt11char_traitsIcESaIcEEC2IS3_EEPKcRKS3_(ptr noundef nonnull align 8 dereferenceable(32) %0, ptr noundef @.str.89, ptr noundef nonnull align 1 dereferenceable(1) %37)
          to label %320 unwind label %321, !dbg !3891

320:                                              ; preds = %319
  call void @_ZNSaIcED1Ev(ptr noundef nonnull align 1 dereferenceable(1) %37) #3, !dbg !3892
  br label %927, !dbg !3892

321:                                              ; preds = %319
  %322 = landingpad { ptr, i32 }
          cleanup, !dbg !3832
  %323 = extractvalue { ptr, i32 } %322, 0, !dbg !3832
  store ptr %323, ptr %6, align 8, !dbg !3832
  %324 = extractvalue { ptr, i32 } %322, 1, !dbg !3832
  store i32 %324, ptr %7, align 4, !dbg !3832
  call void @_ZNSaIcED1Ev(ptr noundef nonnull align 1 dereferenceable(1) %37) #3, !dbg !3892
  br label %928, !dbg !3892

325:                                              ; preds = %2
  call void @_ZNSaIcEC1Ev(ptr noundef nonnull align 1 dereferenceable(1) %38) #3, !dbg !3893
  invoke void @_ZNSt7__cxx1112basic_stringIcSt11char_traitsIcESaIcEEC2IS3_EEPKcRKS3_(ptr noundef nonnull align 8 dereferenceable(32) %0, ptr noundef @.str.90, ptr noundef nonnull align 1 dereferenceable(1) %38)
          to label %326 unwind label %327, !dbg !3893

326:                                              ; preds = %325
  call void @_ZNSaIcED1Ev(ptr noundef nonnull align 1 dereferenceable(1) %38) #3, !dbg !3894
  br label %927, !dbg !3894

327:                                              ; preds = %325
  %328 = landingpad { ptr, i32 }
          cleanup, !dbg !3832
  %329 = extractvalue { ptr, i32 } %328, 0, !dbg !3832
  store ptr %329, ptr %6, align 8, !dbg !3832
  %330 = extractvalue { ptr, i32 } %328, 1, !dbg !3832
  store i32 %330, ptr %7, align 4, !dbg !3832
  call void @_ZNSaIcED1Ev(ptr noundef nonnull align 1 dereferenceable(1) %38) #3, !dbg !3894
  br label %928, !dbg !3894

331:                                              ; preds = %2
  call void @_ZNSaIcEC1Ev(ptr noundef nonnull align 1 dereferenceable(1) %39) #3, !dbg !3895
  invoke void @_ZNSt7__cxx1112basic_stringIcSt11char_traitsIcESaIcEEC2IS3_EEPKcRKS3_(ptr noundef nonnull align 8 dereferenceable(32) %0, ptr noundef @.str.91, ptr noundef nonnull align 1 dereferenceable(1) %39)
          to label %332 unwind label %333, !dbg !3895

332:                                              ; preds = %331
  call void @_ZNSaIcED1Ev(ptr noundef nonnull align 1 dereferenceable(1) %39) #3, !dbg !3896
  br label %927, !dbg !3896

333:                                              ; preds = %331
  %334 = landingpad { ptr, i32 }
          cleanup, !dbg !3832
  %335 = extractvalue { ptr, i32 } %334, 0, !dbg !3832
  store ptr %335, ptr %6, align 8, !dbg !3832
  %336 = extractvalue { ptr, i32 } %334, 1, !dbg !3832
  store i32 %336, ptr %7, align 4, !dbg !3832
  call void @_ZNSaIcED1Ev(ptr noundef nonnull align 1 dereferenceable(1) %39) #3, !dbg !3896
  br label %928, !dbg !3896

337:                                              ; preds = %2
  call void @_ZNSaIcEC1Ev(ptr noundef nonnull align 1 dereferenceable(1) %40) #3, !dbg !3897
  invoke void @_ZNSt7__cxx1112basic_stringIcSt11char_traitsIcESaIcEEC2IS3_EEPKcRKS3_(ptr noundef nonnull align 8 dereferenceable(32) %0, ptr noundef @.str.92, ptr noundef nonnull align 1 dereferenceable(1) %40)
          to label %338 unwind label %339, !dbg !3897

338:                                              ; preds = %337
  call void @_ZNSaIcED1Ev(ptr noundef nonnull align 1 dereferenceable(1) %40) #3, !dbg !3898
  br label %927, !dbg !3898

339:                                              ; preds = %337
  %340 = landingpad { ptr, i32 }
          cleanup, !dbg !3832
  %341 = extractvalue { ptr, i32 } %340, 0, !dbg !3832
  store ptr %341, ptr %6, align 8, !dbg !3832
  %342 = extractvalue { ptr, i32 } %340, 1, !dbg !3832
  store i32 %342, ptr %7, align 4, !dbg !3832
  call void @_ZNSaIcED1Ev(ptr noundef nonnull align 1 dereferenceable(1) %40) #3, !dbg !3898
  br label %928, !dbg !3898

343:                                              ; preds = %2
  call void @_ZNSaIcEC1Ev(ptr noundef nonnull align 1 dereferenceable(1) %41) #3, !dbg !3899
  invoke void @_ZNSt7__cxx1112basic_stringIcSt11char_traitsIcESaIcEEC2IS3_EEPKcRKS3_(ptr noundef nonnull align 8 dereferenceable(32) %0, ptr noundef @.str.93, ptr noundef nonnull align 1 dereferenceable(1) %41)
          to label %344 unwind label %345, !dbg !3899

344:                                              ; preds = %343
  call void @_ZNSaIcED1Ev(ptr noundef nonnull align 1 dereferenceable(1) %41) #3, !dbg !3900
  br label %927, !dbg !3900

345:                                              ; preds = %343
  %346 = landingpad { ptr, i32 }
          cleanup, !dbg !3832
  %347 = extractvalue { ptr, i32 } %346, 0, !dbg !3832
  store ptr %347, ptr %6, align 8, !dbg !3832
  %348 = extractvalue { ptr, i32 } %346, 1, !dbg !3832
  store i32 %348, ptr %7, align 4, !dbg !3832
  call void @_ZNSaIcED1Ev(ptr noundef nonnull align 1 dereferenceable(1) %41) #3, !dbg !3900
  br label %928, !dbg !3900

349:                                              ; preds = %2
  call void @_ZNSaIcEC1Ev(ptr noundef nonnull align 1 dereferenceable(1) %42) #3, !dbg !3901
  invoke void @_ZNSt7__cxx1112basic_stringIcSt11char_traitsIcESaIcEEC2IS3_EEPKcRKS3_(ptr noundef nonnull align 8 dereferenceable(32) %0, ptr noundef @.str.94, ptr noundef nonnull align 1 dereferenceable(1) %42)
          to label %350 unwind label %351, !dbg !3901

350:                                              ; preds = %349
  call void @_ZNSaIcED1Ev(ptr noundef nonnull align 1 dereferenceable(1) %42) #3, !dbg !3902
  br label %927, !dbg !3902

351:                                              ; preds = %349
  %352 = landingpad { ptr, i32 }
          cleanup, !dbg !3832
  %353 = extractvalue { ptr, i32 } %352, 0, !dbg !3832
  store ptr %353, ptr %6, align 8, !dbg !3832
  %354 = extractvalue { ptr, i32 } %352, 1, !dbg !3832
  store i32 %354, ptr %7, align 4, !dbg !3832
  call void @_ZNSaIcED1Ev(ptr noundef nonnull align 1 dereferenceable(1) %42) #3, !dbg !3902
  br label %928, !dbg !3902

355:                                              ; preds = %2
  call void @_ZNSaIcEC1Ev(ptr noundef nonnull align 1 dereferenceable(1) %43) #3, !dbg !3903
  invoke void @_ZNSt7__cxx1112basic_stringIcSt11char_traitsIcESaIcEEC2IS3_EEPKcRKS3_(ptr noundef nonnull align 8 dereferenceable(32) %0, ptr noundef @.str.95, ptr noundef nonnull align 1 dereferenceable(1) %43)
          to label %356 unwind label %357, !dbg !3903

356:                                              ; preds = %355
  call void @_ZNSaIcED1Ev(ptr noundef nonnull align 1 dereferenceable(1) %43) #3, !dbg !3904
  br label %927, !dbg !3904

357:                                              ; preds = %355
  %358 = landingpad { ptr, i32 }
          cleanup, !dbg !3832
  %359 = extractvalue { ptr, i32 } %358, 0, !dbg !3832
  store ptr %359, ptr %6, align 8, !dbg !3832
  %360 = extractvalue { ptr, i32 } %358, 1, !dbg !3832
  store i32 %360, ptr %7, align 4, !dbg !3832
  call void @_ZNSaIcED1Ev(ptr noundef nonnull align 1 dereferenceable(1) %43) #3, !dbg !3904
  br label %928, !dbg !3904

361:                                              ; preds = %2
  call void @_ZNSaIcEC1Ev(ptr noundef nonnull align 1 dereferenceable(1) %44) #3, !dbg !3905
  invoke void @_ZNSt7__cxx1112basic_stringIcSt11char_traitsIcESaIcEEC2IS3_EEPKcRKS3_(ptr noundef nonnull align 8 dereferenceable(32) %0, ptr noundef @.str.96, ptr noundef nonnull align 1 dereferenceable(1) %44)
          to label %362 unwind label %363, !dbg !3905

362:                                              ; preds = %361
  call void @_ZNSaIcED1Ev(ptr noundef nonnull align 1 dereferenceable(1) %44) #3, !dbg !3906
  br label %927, !dbg !3906

363:                                              ; preds = %361
  %364 = landingpad { ptr, i32 }
          cleanup, !dbg !3832
  %365 = extractvalue { ptr, i32 } %364, 0, !dbg !3832
  store ptr %365, ptr %6, align 8, !dbg !3832
  %366 = extractvalue { ptr, i32 } %364, 1, !dbg !3832
  store i32 %366, ptr %7, align 4, !dbg !3832
  call void @_ZNSaIcED1Ev(ptr noundef nonnull align 1 dereferenceable(1) %44) #3, !dbg !3906
  br label %928, !dbg !3906

367:                                              ; preds = %2
  call void @_ZNSaIcEC1Ev(ptr noundef nonnull align 1 dereferenceable(1) %45) #3, !dbg !3907
  invoke void @_ZNSt7__cxx1112basic_stringIcSt11char_traitsIcESaIcEEC2IS3_EEPKcRKS3_(ptr noundef nonnull align 8 dereferenceable(32) %0, ptr noundef @.str.97, ptr noundef nonnull align 1 dereferenceable(1) %45)
          to label %368 unwind label %369, !dbg !3907

368:                                              ; preds = %367
  call void @_ZNSaIcED1Ev(ptr noundef nonnull align 1 dereferenceable(1) %45) #3, !dbg !3908
  br label %927, !dbg !3908

369:                                              ; preds = %367
  %370 = landingpad { ptr, i32 }
          cleanup, !dbg !3832
  %371 = extractvalue { ptr, i32 } %370, 0, !dbg !3832
  store ptr %371, ptr %6, align 8, !dbg !3832
  %372 = extractvalue { ptr, i32 } %370, 1, !dbg !3832
  store i32 %372, ptr %7, align 4, !dbg !3832
  call void @_ZNSaIcED1Ev(ptr noundef nonnull align 1 dereferenceable(1) %45) #3, !dbg !3908
  br label %928, !dbg !3908

373:                                              ; preds = %2
  call void @_ZNSaIcEC1Ev(ptr noundef nonnull align 1 dereferenceable(1) %46) #3, !dbg !3909
  invoke void @_ZNSt7__cxx1112basic_stringIcSt11char_traitsIcESaIcEEC2IS3_EEPKcRKS3_(ptr noundef nonnull align 8 dereferenceable(32) %0, ptr noundef @.str.98, ptr noundef nonnull align 1 dereferenceable(1) %46)
          to label %374 unwind label %375, !dbg !3909

374:                                              ; preds = %373
  call void @_ZNSaIcED1Ev(ptr noundef nonnull align 1 dereferenceable(1) %46) #3, !dbg !3910
  br label %927, !dbg !3910

375:                                              ; preds = %373
  %376 = landingpad { ptr, i32 }
          cleanup, !dbg !3832
  %377 = extractvalue { ptr, i32 } %376, 0, !dbg !3832
  store ptr %377, ptr %6, align 8, !dbg !3832
  %378 = extractvalue { ptr, i32 } %376, 1, !dbg !3832
  store i32 %378, ptr %7, align 4, !dbg !3832
  call void @_ZNSaIcED1Ev(ptr noundef nonnull align 1 dereferenceable(1) %46) #3, !dbg !3910
  br label %928, !dbg !3910

379:                                              ; preds = %2
  call void @_ZNSaIcEC1Ev(ptr noundef nonnull align 1 dereferenceable(1) %47) #3, !dbg !3911
  invoke void @_ZNSt7__cxx1112basic_stringIcSt11char_traitsIcESaIcEEC2IS3_EEPKcRKS3_(ptr noundef nonnull align 8 dereferenceable(32) %0, ptr noundef @.str.99, ptr noundef nonnull align 1 dereferenceable(1) %47)
          to label %380 unwind label %381, !dbg !3911

380:                                              ; preds = %379
  call void @_ZNSaIcED1Ev(ptr noundef nonnull align 1 dereferenceable(1) %47) #3, !dbg !3912
  br label %927, !dbg !3912

381:                                              ; preds = %379
  %382 = landingpad { ptr, i32 }
          cleanup, !dbg !3832
  %383 = extractvalue { ptr, i32 } %382, 0, !dbg !3832
  store ptr %383, ptr %6, align 8, !dbg !3832
  %384 = extractvalue { ptr, i32 } %382, 1, !dbg !3832
  store i32 %384, ptr %7, align 4, !dbg !3832
  call void @_ZNSaIcED1Ev(ptr noundef nonnull align 1 dereferenceable(1) %47) #3, !dbg !3912
  br label %928, !dbg !3912

385:                                              ; preds = %2
  call void @_ZNSaIcEC1Ev(ptr noundef nonnull align 1 dereferenceable(1) %48) #3, !dbg !3913
  invoke void @_ZNSt7__cxx1112basic_stringIcSt11char_traitsIcESaIcEEC2IS3_EEPKcRKS3_(ptr noundef nonnull align 8 dereferenceable(32) %0, ptr noundef @.str.100, ptr noundef nonnull align 1 dereferenceable(1) %48)
          to label %386 unwind label %387, !dbg !3913

386:                                              ; preds = %385
  call void @_ZNSaIcED1Ev(ptr noundef nonnull align 1 dereferenceable(1) %48) #3, !dbg !3914
  br label %927, !dbg !3914

387:                                              ; preds = %385
  %388 = landingpad { ptr, i32 }
          cleanup, !dbg !3832
  %389 = extractvalue { ptr, i32 } %388, 0, !dbg !3832
  store ptr %389, ptr %6, align 8, !dbg !3832
  %390 = extractvalue { ptr, i32 } %388, 1, !dbg !3832
  store i32 %390, ptr %7, align 4, !dbg !3832
  call void @_ZNSaIcED1Ev(ptr noundef nonnull align 1 dereferenceable(1) %48) #3, !dbg !3914
  br label %928, !dbg !3914

391:                                              ; preds = %2
  call void @_ZNSaIcEC1Ev(ptr noundef nonnull align 1 dereferenceable(1) %49) #3, !dbg !3915
  invoke void @_ZNSt7__cxx1112basic_stringIcSt11char_traitsIcESaIcEEC2IS3_EEPKcRKS3_(ptr noundef nonnull align 8 dereferenceable(32) %0, ptr noundef @.str.101, ptr noundef nonnull align 1 dereferenceable(1) %49)
          to label %392 unwind label %393, !dbg !3915

392:                                              ; preds = %391
  call void @_ZNSaIcED1Ev(ptr noundef nonnull align 1 dereferenceable(1) %49) #3, !dbg !3916
  br label %927, !dbg !3916

393:                                              ; preds = %391
  %394 = landingpad { ptr, i32 }
          cleanup, !dbg !3832
  %395 = extractvalue { ptr, i32 } %394, 0, !dbg !3832
  store ptr %395, ptr %6, align 8, !dbg !3832
  %396 = extractvalue { ptr, i32 } %394, 1, !dbg !3832
  store i32 %396, ptr %7, align 4, !dbg !3832
  call void @_ZNSaIcED1Ev(ptr noundef nonnull align 1 dereferenceable(1) %49) #3, !dbg !3916
  br label %928, !dbg !3916

397:                                              ; preds = %2
  call void @_ZNSaIcEC1Ev(ptr noundef nonnull align 1 dereferenceable(1) %50) #3, !dbg !3917
  invoke void @_ZNSt7__cxx1112basic_stringIcSt11char_traitsIcESaIcEEC2IS3_EEPKcRKS3_(ptr noundef nonnull align 8 dereferenceable(32) %0, ptr noundef @.str.102, ptr noundef nonnull align 1 dereferenceable(1) %50)
          to label %398 unwind label %399, !dbg !3917

398:                                              ; preds = %397
  call void @_ZNSaIcED1Ev(ptr noundef nonnull align 1 dereferenceable(1) %50) #3, !dbg !3918
  br label %927, !dbg !3918

399:                                              ; preds = %397
  %400 = landingpad { ptr, i32 }
          cleanup, !dbg !3832
  %401 = extractvalue { ptr, i32 } %400, 0, !dbg !3832
  store ptr %401, ptr %6, align 8, !dbg !3832
  %402 = extractvalue { ptr, i32 } %400, 1, !dbg !3832
  store i32 %402, ptr %7, align 4, !dbg !3832
  call void @_ZNSaIcED1Ev(ptr noundef nonnull align 1 dereferenceable(1) %50) #3, !dbg !3918
  br label %928, !dbg !3918

403:                                              ; preds = %2
  call void @_ZNSaIcEC1Ev(ptr noundef nonnull align 1 dereferenceable(1) %51) #3, !dbg !3919
  invoke void @_ZNSt7__cxx1112basic_stringIcSt11char_traitsIcESaIcEEC2IS3_EEPKcRKS3_(ptr noundef nonnull align 8 dereferenceable(32) %0, ptr noundef @.str.103, ptr noundef nonnull align 1 dereferenceable(1) %51)
          to label %404 unwind label %405, !dbg !3919

404:                                              ; preds = %403
  call void @_ZNSaIcED1Ev(ptr noundef nonnull align 1 dereferenceable(1) %51) #3, !dbg !3920
  br label %927, !dbg !3920

405:                                              ; preds = %403
  %406 = landingpad { ptr, i32 }
          cleanup, !dbg !3832
  %407 = extractvalue { ptr, i32 } %406, 0, !dbg !3832
  store ptr %407, ptr %6, align 8, !dbg !3832
  %408 = extractvalue { ptr, i32 } %406, 1, !dbg !3832
  store i32 %408, ptr %7, align 4, !dbg !3832
  call void @_ZNSaIcED1Ev(ptr noundef nonnull align 1 dereferenceable(1) %51) #3, !dbg !3920
  br label %928, !dbg !3920

409:                                              ; preds = %2
  call void @_ZNSaIcEC1Ev(ptr noundef nonnull align 1 dereferenceable(1) %52) #3, !dbg !3921
  invoke void @_ZNSt7__cxx1112basic_stringIcSt11char_traitsIcESaIcEEC2IS3_EEPKcRKS3_(ptr noundef nonnull align 8 dereferenceable(32) %0, ptr noundef @.str.104, ptr noundef nonnull align 1 dereferenceable(1) %52)
          to label %410 unwind label %411, !dbg !3921

410:                                              ; preds = %409
  call void @_ZNSaIcED1Ev(ptr noundef nonnull align 1 dereferenceable(1) %52) #3, !dbg !3922
  br label %927, !dbg !3922

411:                                              ; preds = %409
  %412 = landingpad { ptr, i32 }
          cleanup, !dbg !3832
  %413 = extractvalue { ptr, i32 } %412, 0, !dbg !3832
  store ptr %413, ptr %6, align 8, !dbg !3832
  %414 = extractvalue { ptr, i32 } %412, 1, !dbg !3832
  store i32 %414, ptr %7, align 4, !dbg !3832
  call void @_ZNSaIcED1Ev(ptr noundef nonnull align 1 dereferenceable(1) %52) #3, !dbg !3922
  br label %928, !dbg !3922

415:                                              ; preds = %2
  call void @_ZNSaIcEC1Ev(ptr noundef nonnull align 1 dereferenceable(1) %53) #3, !dbg !3923
  invoke void @_ZNSt7__cxx1112basic_stringIcSt11char_traitsIcESaIcEEC2IS3_EEPKcRKS3_(ptr noundef nonnull align 8 dereferenceable(32) %0, ptr noundef @.str.105, ptr noundef nonnull align 1 dereferenceable(1) %53)
          to label %416 unwind label %417, !dbg !3923

416:                                              ; preds = %415
  call void @_ZNSaIcED1Ev(ptr noundef nonnull align 1 dereferenceable(1) %53) #3, !dbg !3924
  br label %927, !dbg !3924

417:                                              ; preds = %415
  %418 = landingpad { ptr, i32 }
          cleanup, !dbg !3832
  %419 = extractvalue { ptr, i32 } %418, 0, !dbg !3832
  store ptr %419, ptr %6, align 8, !dbg !3832
  %420 = extractvalue { ptr, i32 } %418, 1, !dbg !3832
  store i32 %420, ptr %7, align 4, !dbg !3832
  call void @_ZNSaIcED1Ev(ptr noundef nonnull align 1 dereferenceable(1) %53) #3, !dbg !3924
  br label %928, !dbg !3924

421:                                              ; preds = %2
  call void @_ZNSaIcEC1Ev(ptr noundef nonnull align 1 dereferenceable(1) %54) #3, !dbg !3925
  invoke void @_ZNSt7__cxx1112basic_stringIcSt11char_traitsIcESaIcEEC2IS3_EEPKcRKS3_(ptr noundef nonnull align 8 dereferenceable(32) %0, ptr noundef @.str.106, ptr noundef nonnull align 1 dereferenceable(1) %54)
          to label %422 unwind label %423, !dbg !3925

422:                                              ; preds = %421
  call void @_ZNSaIcED1Ev(ptr noundef nonnull align 1 dereferenceable(1) %54) #3, !dbg !3926
  br label %927, !dbg !3926

423:                                              ; preds = %421
  %424 = landingpad { ptr, i32 }
          cleanup, !dbg !3832
  %425 = extractvalue { ptr, i32 } %424, 0, !dbg !3832
  store ptr %425, ptr %6, align 8, !dbg !3832
  %426 = extractvalue { ptr, i32 } %424, 1, !dbg !3832
  store i32 %426, ptr %7, align 4, !dbg !3832
  call void @_ZNSaIcED1Ev(ptr noundef nonnull align 1 dereferenceable(1) %54) #3, !dbg !3926
  br label %928, !dbg !3926

427:                                              ; preds = %2
  call void @_ZNSaIcEC1Ev(ptr noundef nonnull align 1 dereferenceable(1) %55) #3, !dbg !3927
  invoke void @_ZNSt7__cxx1112basic_stringIcSt11char_traitsIcESaIcEEC2IS3_EEPKcRKS3_(ptr noundef nonnull align 8 dereferenceable(32) %0, ptr noundef @.str.107, ptr noundef nonnull align 1 dereferenceable(1) %55)
          to label %428 unwind label %429, !dbg !3927

428:                                              ; preds = %427
  call void @_ZNSaIcED1Ev(ptr noundef nonnull align 1 dereferenceable(1) %55) #3, !dbg !3928
  br label %927, !dbg !3928

429:                                              ; preds = %427
  %430 = landingpad { ptr, i32 }
          cleanup, !dbg !3832
  %431 = extractvalue { ptr, i32 } %430, 0, !dbg !3832
  store ptr %431, ptr %6, align 8, !dbg !3832
  %432 = extractvalue { ptr, i32 } %430, 1, !dbg !3832
  store i32 %432, ptr %7, align 4, !dbg !3832
  call void @_ZNSaIcED1Ev(ptr noundef nonnull align 1 dereferenceable(1) %55) #3, !dbg !3928
  br label %928, !dbg !3928

433:                                              ; preds = %2
  call void @_ZNSaIcEC1Ev(ptr noundef nonnull align 1 dereferenceable(1) %56) #3, !dbg !3929
  invoke void @_ZNSt7__cxx1112basic_stringIcSt11char_traitsIcESaIcEEC2IS3_EEPKcRKS3_(ptr noundef nonnull align 8 dereferenceable(32) %0, ptr noundef @.str.108, ptr noundef nonnull align 1 dereferenceable(1) %56)
          to label %434 unwind label %435, !dbg !3929

434:                                              ; preds = %433
  call void @_ZNSaIcED1Ev(ptr noundef nonnull align 1 dereferenceable(1) %56) #3, !dbg !3930
  br label %927, !dbg !3930

435:                                              ; preds = %433
  %436 = landingpad { ptr, i32 }
          cleanup, !dbg !3832
  %437 = extractvalue { ptr, i32 } %436, 0, !dbg !3832
  store ptr %437, ptr %6, align 8, !dbg !3832
  %438 = extractvalue { ptr, i32 } %436, 1, !dbg !3832
  store i32 %438, ptr %7, align 4, !dbg !3832
  call void @_ZNSaIcED1Ev(ptr noundef nonnull align 1 dereferenceable(1) %56) #3, !dbg !3930
  br label %928, !dbg !3930

439:                                              ; preds = %2
  call void @_ZNSaIcEC1Ev(ptr noundef nonnull align 1 dereferenceable(1) %57) #3, !dbg !3931
  invoke void @_ZNSt7__cxx1112basic_stringIcSt11char_traitsIcESaIcEEC2IS3_EEPKcRKS3_(ptr noundef nonnull align 8 dereferenceable(32) %0, ptr noundef @.str.109, ptr noundef nonnull align 1 dereferenceable(1) %57)
          to label %440 unwind label %441, !dbg !3931

440:                                              ; preds = %439
  call void @_ZNSaIcED1Ev(ptr noundef nonnull align 1 dereferenceable(1) %57) #3, !dbg !3932
  br label %927, !dbg !3932

441:                                              ; preds = %439
  %442 = landingpad { ptr, i32 }
          cleanup, !dbg !3832
  %443 = extractvalue { ptr, i32 } %442, 0, !dbg !3832
  store ptr %443, ptr %6, align 8, !dbg !3832
  %444 = extractvalue { ptr, i32 } %442, 1, !dbg !3832
  store i32 %444, ptr %7, align 4, !dbg !3832
  call void @_ZNSaIcED1Ev(ptr noundef nonnull align 1 dereferenceable(1) %57) #3, !dbg !3932
  br label %928, !dbg !3932

445:                                              ; preds = %2
  call void @_ZNSaIcEC1Ev(ptr noundef nonnull align 1 dereferenceable(1) %58) #3, !dbg !3933
  invoke void @_ZNSt7__cxx1112basic_stringIcSt11char_traitsIcESaIcEEC2IS3_EEPKcRKS3_(ptr noundef nonnull align 8 dereferenceable(32) %0, ptr noundef @.str.110, ptr noundef nonnull align 1 dereferenceable(1) %58)
          to label %446 unwind label %447, !dbg !3933

446:                                              ; preds = %445
  call void @_ZNSaIcED1Ev(ptr noundef nonnull align 1 dereferenceable(1) %58) #3, !dbg !3934
  br label %927, !dbg !3934

447:                                              ; preds = %445
  %448 = landingpad { ptr, i32 }
          cleanup, !dbg !3832
  %449 = extractvalue { ptr, i32 } %448, 0, !dbg !3832
  store ptr %449, ptr %6, align 8, !dbg !3832
  %450 = extractvalue { ptr, i32 } %448, 1, !dbg !3832
  store i32 %450, ptr %7, align 4, !dbg !3832
  call void @_ZNSaIcED1Ev(ptr noundef nonnull align 1 dereferenceable(1) %58) #3, !dbg !3934
  br label %928, !dbg !3934

451:                                              ; preds = %2
  call void @_ZNSaIcEC1Ev(ptr noundef nonnull align 1 dereferenceable(1) %59) #3, !dbg !3935
  invoke void @_ZNSt7__cxx1112basic_stringIcSt11char_traitsIcESaIcEEC2IS3_EEPKcRKS3_(ptr noundef nonnull align 8 dereferenceable(32) %0, ptr noundef @.str.111, ptr noundef nonnull align 1 dereferenceable(1) %59)
          to label %452 unwind label %453, !dbg !3935

452:                                              ; preds = %451
  call void @_ZNSaIcED1Ev(ptr noundef nonnull align 1 dereferenceable(1) %59) #3, !dbg !3936
  br label %927, !dbg !3936

453:                                              ; preds = %451
  %454 = landingpad { ptr, i32 }
          cleanup, !dbg !3832
  %455 = extractvalue { ptr, i32 } %454, 0, !dbg !3832
  store ptr %455, ptr %6, align 8, !dbg !3832
  %456 = extractvalue { ptr, i32 } %454, 1, !dbg !3832
  store i32 %456, ptr %7, align 4, !dbg !3832
  call void @_ZNSaIcED1Ev(ptr noundef nonnull align 1 dereferenceable(1) %59) #3, !dbg !3936
  br label %928, !dbg !3936

457:                                              ; preds = %2
  call void @_ZNSaIcEC1Ev(ptr noundef nonnull align 1 dereferenceable(1) %60) #3, !dbg !3937
  invoke void @_ZNSt7__cxx1112basic_stringIcSt11char_traitsIcESaIcEEC2IS3_EEPKcRKS3_(ptr noundef nonnull align 8 dereferenceable(32) %0, ptr noundef @.str.112, ptr noundef nonnull align 1 dereferenceable(1) %60)
          to label %458 unwind label %459, !dbg !3937

458:                                              ; preds = %457
  call void @_ZNSaIcED1Ev(ptr noundef nonnull align 1 dereferenceable(1) %60) #3, !dbg !3938
  br label %927, !dbg !3938

459:                                              ; preds = %457
  %460 = landingpad { ptr, i32 }
          cleanup, !dbg !3832
  %461 = extractvalue { ptr, i32 } %460, 0, !dbg !3832
  store ptr %461, ptr %6, align 8, !dbg !3832
  %462 = extractvalue { ptr, i32 } %460, 1, !dbg !3832
  store i32 %462, ptr %7, align 4, !dbg !3832
  call void @_ZNSaIcED1Ev(ptr noundef nonnull align 1 dereferenceable(1) %60) #3, !dbg !3938
  br label %928, !dbg !3938

463:                                              ; preds = %2
  call void @_ZNSaIcEC1Ev(ptr noundef nonnull align 1 dereferenceable(1) %61) #3, !dbg !3939
  invoke void @_ZNSt7__cxx1112basic_stringIcSt11char_traitsIcESaIcEEC2IS3_EEPKcRKS3_(ptr noundef nonnull align 8 dereferenceable(32) %0, ptr noundef @.str.113, ptr noundef nonnull align 1 dereferenceable(1) %61)
          to label %464 unwind label %465, !dbg !3939

464:                                              ; preds = %463
  call void @_ZNSaIcED1Ev(ptr noundef nonnull align 1 dereferenceable(1) %61) #3, !dbg !3940
  br label %927, !dbg !3940

465:                                              ; preds = %463
  %466 = landingpad { ptr, i32 }
          cleanup, !dbg !3832
  %467 = extractvalue { ptr, i32 } %466, 0, !dbg !3832
  store ptr %467, ptr %6, align 8, !dbg !3832
  %468 = extractvalue { ptr, i32 } %466, 1, !dbg !3832
  store i32 %468, ptr %7, align 4, !dbg !3832
  call void @_ZNSaIcED1Ev(ptr noundef nonnull align 1 dereferenceable(1) %61) #3, !dbg !3940
  br label %928, !dbg !3940

469:                                              ; preds = %2
  call void @_ZNSaIcEC1Ev(ptr noundef nonnull align 1 dereferenceable(1) %62) #3, !dbg !3941
  invoke void @_ZNSt7__cxx1112basic_stringIcSt11char_traitsIcESaIcEEC2IS3_EEPKcRKS3_(ptr noundef nonnull align 8 dereferenceable(32) %0, ptr noundef @.str.114, ptr noundef nonnull align 1 dereferenceable(1) %62)
          to label %470 unwind label %471, !dbg !3941

470:                                              ; preds = %469
  call void @_ZNSaIcED1Ev(ptr noundef nonnull align 1 dereferenceable(1) %62) #3, !dbg !3942
  br label %927, !dbg !3942

471:                                              ; preds = %469
  %472 = landingpad { ptr, i32 }
          cleanup, !dbg !3832
  %473 = extractvalue { ptr, i32 } %472, 0, !dbg !3832
  store ptr %473, ptr %6, align 8, !dbg !3832
  %474 = extractvalue { ptr, i32 } %472, 1, !dbg !3832
  store i32 %474, ptr %7, align 4, !dbg !3832
  call void @_ZNSaIcED1Ev(ptr noundef nonnull align 1 dereferenceable(1) %62) #3, !dbg !3942
  br label %928, !dbg !3942

475:                                              ; preds = %2
  call void @_ZNSaIcEC1Ev(ptr noundef nonnull align 1 dereferenceable(1) %63) #3, !dbg !3943
  invoke void @_ZNSt7__cxx1112basic_stringIcSt11char_traitsIcESaIcEEC2IS3_EEPKcRKS3_(ptr noundef nonnull align 8 dereferenceable(32) %0, ptr noundef @.str.115, ptr noundef nonnull align 1 dereferenceable(1) %63)
          to label %476 unwind label %477, !dbg !3943

476:                                              ; preds = %475
  call void @_ZNSaIcED1Ev(ptr noundef nonnull align 1 dereferenceable(1) %63) #3, !dbg !3944
  br label %927, !dbg !3944

477:                                              ; preds = %475
  %478 = landingpad { ptr, i32 }
          cleanup, !dbg !3832
  %479 = extractvalue { ptr, i32 } %478, 0, !dbg !3832
  store ptr %479, ptr %6, align 8, !dbg !3832
  %480 = extractvalue { ptr, i32 } %478, 1, !dbg !3832
  store i32 %480, ptr %7, align 4, !dbg !3832
  call void @_ZNSaIcED1Ev(ptr noundef nonnull align 1 dereferenceable(1) %63) #3, !dbg !3944
  br label %928, !dbg !3944

481:                                              ; preds = %2
  call void @_ZNSaIcEC1Ev(ptr noundef nonnull align 1 dereferenceable(1) %64) #3, !dbg !3945
  invoke void @_ZNSt7__cxx1112basic_stringIcSt11char_traitsIcESaIcEEC2IS3_EEPKcRKS3_(ptr noundef nonnull align 8 dereferenceable(32) %0, ptr noundef @.str.116, ptr noundef nonnull align 1 dereferenceable(1) %64)
          to label %482 unwind label %483, !dbg !3945

482:                                              ; preds = %481
  call void @_ZNSaIcED1Ev(ptr noundef nonnull align 1 dereferenceable(1) %64) #3, !dbg !3946
  br label %927, !dbg !3946

483:                                              ; preds = %481
  %484 = landingpad { ptr, i32 }
          cleanup, !dbg !3832
  %485 = extractvalue { ptr, i32 } %484, 0, !dbg !3832
  store ptr %485, ptr %6, align 8, !dbg !3832
  %486 = extractvalue { ptr, i32 } %484, 1, !dbg !3832
  store i32 %486, ptr %7, align 4, !dbg !3832
  call void @_ZNSaIcED1Ev(ptr noundef nonnull align 1 dereferenceable(1) %64) #3, !dbg !3946
  br label %928, !dbg !3946

487:                                              ; preds = %2
  call void @_ZNSaIcEC1Ev(ptr noundef nonnull align 1 dereferenceable(1) %65) #3, !dbg !3947
  invoke void @_ZNSt7__cxx1112basic_stringIcSt11char_traitsIcESaIcEEC2IS3_EEPKcRKS3_(ptr noundef nonnull align 8 dereferenceable(32) %0, ptr noundef @.str.117, ptr noundef nonnull align 1 dereferenceable(1) %65)
          to label %488 unwind label %489, !dbg !3947

488:                                              ; preds = %487
  call void @_ZNSaIcED1Ev(ptr noundef nonnull align 1 dereferenceable(1) %65) #3, !dbg !3948
  br label %927, !dbg !3948

489:                                              ; preds = %487
  %490 = landingpad { ptr, i32 }
          cleanup, !dbg !3832
  %491 = extractvalue { ptr, i32 } %490, 0, !dbg !3832
  store ptr %491, ptr %6, align 8, !dbg !3832
  %492 = extractvalue { ptr, i32 } %490, 1, !dbg !3832
  store i32 %492, ptr %7, align 4, !dbg !3832
  call void @_ZNSaIcED1Ev(ptr noundef nonnull align 1 dereferenceable(1) %65) #3, !dbg !3948
  br label %928, !dbg !3948

493:                                              ; preds = %2
  call void @_ZNSaIcEC1Ev(ptr noundef nonnull align 1 dereferenceable(1) %66) #3, !dbg !3949
  invoke void @_ZNSt7__cxx1112basic_stringIcSt11char_traitsIcESaIcEEC2IS3_EEPKcRKS3_(ptr noundef nonnull align 8 dereferenceable(32) %0, ptr noundef @.str.118, ptr noundef nonnull align 1 dereferenceable(1) %66)
          to label %494 unwind label %495, !dbg !3949

494:                                              ; preds = %493
  call void @_ZNSaIcED1Ev(ptr noundef nonnull align 1 dereferenceable(1) %66) #3, !dbg !3950
  br label %927, !dbg !3950

495:                                              ; preds = %493
  %496 = landingpad { ptr, i32 }
          cleanup, !dbg !3832
  %497 = extractvalue { ptr, i32 } %496, 0, !dbg !3832
  store ptr %497, ptr %6, align 8, !dbg !3832
  %498 = extractvalue { ptr, i32 } %496, 1, !dbg !3832
  store i32 %498, ptr %7, align 4, !dbg !3832
  call void @_ZNSaIcED1Ev(ptr noundef nonnull align 1 dereferenceable(1) %66) #3, !dbg !3950
  br label %928, !dbg !3950

499:                                              ; preds = %2
  call void @_ZNSaIcEC1Ev(ptr noundef nonnull align 1 dereferenceable(1) %67) #3, !dbg !3951
  invoke void @_ZNSt7__cxx1112basic_stringIcSt11char_traitsIcESaIcEEC2IS3_EEPKcRKS3_(ptr noundef nonnull align 8 dereferenceable(32) %0, ptr noundef @.str.119, ptr noundef nonnull align 1 dereferenceable(1) %67)
          to label %500 unwind label %501, !dbg !3951

500:                                              ; preds = %499
  call void @_ZNSaIcED1Ev(ptr noundef nonnull align 1 dereferenceable(1) %67) #3, !dbg !3952
  br label %927, !dbg !3952

501:                                              ; preds = %499
  %502 = landingpad { ptr, i32 }
          cleanup, !dbg !3832
  %503 = extractvalue { ptr, i32 } %502, 0, !dbg !3832
  store ptr %503, ptr %6, align 8, !dbg !3832
  %504 = extractvalue { ptr, i32 } %502, 1, !dbg !3832
  store i32 %504, ptr %7, align 4, !dbg !3832
  call void @_ZNSaIcED1Ev(ptr noundef nonnull align 1 dereferenceable(1) %67) #3, !dbg !3952
  br label %928, !dbg !3952

505:                                              ; preds = %2
  call void @_ZNSaIcEC1Ev(ptr noundef nonnull align 1 dereferenceable(1) %68) #3, !dbg !3953
  invoke void @_ZNSt7__cxx1112basic_stringIcSt11char_traitsIcESaIcEEC2IS3_EEPKcRKS3_(ptr noundef nonnull align 8 dereferenceable(32) %0, ptr noundef @.str.120, ptr noundef nonnull align 1 dereferenceable(1) %68)
          to label %506 unwind label %507, !dbg !3953

506:                                              ; preds = %505
  call void @_ZNSaIcED1Ev(ptr noundef nonnull align 1 dereferenceable(1) %68) #3, !dbg !3954
  br label %927, !dbg !3954

507:                                              ; preds = %505
  %508 = landingpad { ptr, i32 }
          cleanup, !dbg !3832
  %509 = extractvalue { ptr, i32 } %508, 0, !dbg !3832
  store ptr %509, ptr %6, align 8, !dbg !3832
  %510 = extractvalue { ptr, i32 } %508, 1, !dbg !3832
  store i32 %510, ptr %7, align 4, !dbg !3832
  call void @_ZNSaIcED1Ev(ptr noundef nonnull align 1 dereferenceable(1) %68) #3, !dbg !3954
  br label %928, !dbg !3954

511:                                              ; preds = %2
  call void @_ZNSaIcEC1Ev(ptr noundef nonnull align 1 dereferenceable(1) %69) #3, !dbg !3955
  invoke void @_ZNSt7__cxx1112basic_stringIcSt11char_traitsIcESaIcEEC2IS3_EEPKcRKS3_(ptr noundef nonnull align 8 dereferenceable(32) %0, ptr noundef @.str.121, ptr noundef nonnull align 1 dereferenceable(1) %69)
          to label %512 unwind label %513, !dbg !3955

512:                                              ; preds = %511
  call void @_ZNSaIcED1Ev(ptr noundef nonnull align 1 dereferenceable(1) %69) #3, !dbg !3956
  br label %927, !dbg !3956

513:                                              ; preds = %511
  %514 = landingpad { ptr, i32 }
          cleanup, !dbg !3832
  %515 = extractvalue { ptr, i32 } %514, 0, !dbg !3832
  store ptr %515, ptr %6, align 8, !dbg !3832
  %516 = extractvalue { ptr, i32 } %514, 1, !dbg !3832
  store i32 %516, ptr %7, align 4, !dbg !3832
  call void @_ZNSaIcED1Ev(ptr noundef nonnull align 1 dereferenceable(1) %69) #3, !dbg !3956
  br label %928, !dbg !3956

517:                                              ; preds = %2
  call void @_ZNSaIcEC1Ev(ptr noundef nonnull align 1 dereferenceable(1) %70) #3, !dbg !3957
  invoke void @_ZNSt7__cxx1112basic_stringIcSt11char_traitsIcESaIcEEC2IS3_EEPKcRKS3_(ptr noundef nonnull align 8 dereferenceable(32) %0, ptr noundef @.str.122, ptr noundef nonnull align 1 dereferenceable(1) %70)
          to label %518 unwind label %519, !dbg !3957

518:                                              ; preds = %517
  call void @_ZNSaIcED1Ev(ptr noundef nonnull align 1 dereferenceable(1) %70) #3, !dbg !3958
  br label %927, !dbg !3958

519:                                              ; preds = %517
  %520 = landingpad { ptr, i32 }
          cleanup, !dbg !3832
  %521 = extractvalue { ptr, i32 } %520, 0, !dbg !3832
  store ptr %521, ptr %6, align 8, !dbg !3832
  %522 = extractvalue { ptr, i32 } %520, 1, !dbg !3832
  store i32 %522, ptr %7, align 4, !dbg !3832
  call void @_ZNSaIcED1Ev(ptr noundef nonnull align 1 dereferenceable(1) %70) #3, !dbg !3958
  br label %928, !dbg !3958

523:                                              ; preds = %2
  call void @_ZNSaIcEC1Ev(ptr noundef nonnull align 1 dereferenceable(1) %71) #3, !dbg !3959
  invoke void @_ZNSt7__cxx1112basic_stringIcSt11char_traitsIcESaIcEEC2IS3_EEPKcRKS3_(ptr noundef nonnull align 8 dereferenceable(32) %0, ptr noundef @.str.123, ptr noundef nonnull align 1 dereferenceable(1) %71)
          to label %524 unwind label %525, !dbg !3959

524:                                              ; preds = %523
  call void @_ZNSaIcED1Ev(ptr noundef nonnull align 1 dereferenceable(1) %71) #3, !dbg !3960
  br label %927, !dbg !3960

525:                                              ; preds = %523
  %526 = landingpad { ptr, i32 }
          cleanup, !dbg !3832
  %527 = extractvalue { ptr, i32 } %526, 0, !dbg !3832
  store ptr %527, ptr %6, align 8, !dbg !3832
  %528 = extractvalue { ptr, i32 } %526, 1, !dbg !3832
  store i32 %528, ptr %7, align 4, !dbg !3832
  call void @_ZNSaIcED1Ev(ptr noundef nonnull align 1 dereferenceable(1) %71) #3, !dbg !3960
  br label %928, !dbg !3960

529:                                              ; preds = %2
  call void @_ZNSaIcEC1Ev(ptr noundef nonnull align 1 dereferenceable(1) %72) #3, !dbg !3961
  invoke void @_ZNSt7__cxx1112basic_stringIcSt11char_traitsIcESaIcEEC2IS3_EEPKcRKS3_(ptr noundef nonnull align 8 dereferenceable(32) %0, ptr noundef @.str.124, ptr noundef nonnull align 1 dereferenceable(1) %72)
          to label %530 unwind label %531, !dbg !3961

530:                                              ; preds = %529
  call void @_ZNSaIcED1Ev(ptr noundef nonnull align 1 dereferenceable(1) %72) #3, !dbg !3962
  br label %927, !dbg !3962

531:                                              ; preds = %529
  %532 = landingpad { ptr, i32 }
          cleanup, !dbg !3832
  %533 = extractvalue { ptr, i32 } %532, 0, !dbg !3832
  store ptr %533, ptr %6, align 8, !dbg !3832
  %534 = extractvalue { ptr, i32 } %532, 1, !dbg !3832
  store i32 %534, ptr %7, align 4, !dbg !3832
  call void @_ZNSaIcED1Ev(ptr noundef nonnull align 1 dereferenceable(1) %72) #3, !dbg !3962
  br label %928, !dbg !3962

535:                                              ; preds = %2
  call void @_ZNSaIcEC1Ev(ptr noundef nonnull align 1 dereferenceable(1) %73) #3, !dbg !3963
  invoke void @_ZNSt7__cxx1112basic_stringIcSt11char_traitsIcESaIcEEC2IS3_EEPKcRKS3_(ptr noundef nonnull align 8 dereferenceable(32) %0, ptr noundef @.str.125, ptr noundef nonnull align 1 dereferenceable(1) %73)
          to label %536 unwind label %537, !dbg !3963

536:                                              ; preds = %535
  call void @_ZNSaIcED1Ev(ptr noundef nonnull align 1 dereferenceable(1) %73) #3, !dbg !3964
  br label %927, !dbg !3964

537:                                              ; preds = %535
  %538 = landingpad { ptr, i32 }
          cleanup, !dbg !3832
  %539 = extractvalue { ptr, i32 } %538, 0, !dbg !3832
  store ptr %539, ptr %6, align 8, !dbg !3832
  %540 = extractvalue { ptr, i32 } %538, 1, !dbg !3832
  store i32 %540, ptr %7, align 4, !dbg !3832
  call void @_ZNSaIcED1Ev(ptr noundef nonnull align 1 dereferenceable(1) %73) #3, !dbg !3964
  br label %928, !dbg !3964

541:                                              ; preds = %2
  call void @_ZNSaIcEC1Ev(ptr noundef nonnull align 1 dereferenceable(1) %74) #3, !dbg !3965
  invoke void @_ZNSt7__cxx1112basic_stringIcSt11char_traitsIcESaIcEEC2IS3_EEPKcRKS3_(ptr noundef nonnull align 8 dereferenceable(32) %0, ptr noundef @.str.126, ptr noundef nonnull align 1 dereferenceable(1) %74)
          to label %542 unwind label %543, !dbg !3965

542:                                              ; preds = %541
  call void @_ZNSaIcED1Ev(ptr noundef nonnull align 1 dereferenceable(1) %74) #3, !dbg !3966
  br label %927, !dbg !3966

543:                                              ; preds = %541
  %544 = landingpad { ptr, i32 }
          cleanup, !dbg !3832
  %545 = extractvalue { ptr, i32 } %544, 0, !dbg !3832
  store ptr %545, ptr %6, align 8, !dbg !3832
  %546 = extractvalue { ptr, i32 } %544, 1, !dbg !3832
  store i32 %546, ptr %7, align 4, !dbg !3832
  call void @_ZNSaIcED1Ev(ptr noundef nonnull align 1 dereferenceable(1) %74) #3, !dbg !3966
  br label %928, !dbg !3966

547:                                              ; preds = %2
  call void @_ZNSaIcEC1Ev(ptr noundef nonnull align 1 dereferenceable(1) %75) #3, !dbg !3967
  invoke void @_ZNSt7__cxx1112basic_stringIcSt11char_traitsIcESaIcEEC2IS3_EEPKcRKS3_(ptr noundef nonnull align 8 dereferenceable(32) %0, ptr noundef @.str.127, ptr noundef nonnull align 1 dereferenceable(1) %75)
          to label %548 unwind label %549, !dbg !3967

548:                                              ; preds = %547
  call void @_ZNSaIcED1Ev(ptr noundef nonnull align 1 dereferenceable(1) %75) #3, !dbg !3968
  br label %927, !dbg !3968

549:                                              ; preds = %547
  %550 = landingpad { ptr, i32 }
          cleanup, !dbg !3832
  %551 = extractvalue { ptr, i32 } %550, 0, !dbg !3832
  store ptr %551, ptr %6, align 8, !dbg !3832
  %552 = extractvalue { ptr, i32 } %550, 1, !dbg !3832
  store i32 %552, ptr %7, align 4, !dbg !3832
  call void @_ZNSaIcED1Ev(ptr noundef nonnull align 1 dereferenceable(1) %75) #3, !dbg !3968
  br label %928, !dbg !3968

553:                                              ; preds = %2
  call void @_ZNSaIcEC1Ev(ptr noundef nonnull align 1 dereferenceable(1) %76) #3, !dbg !3969
  invoke void @_ZNSt7__cxx1112basic_stringIcSt11char_traitsIcESaIcEEC2IS3_EEPKcRKS3_(ptr noundef nonnull align 8 dereferenceable(32) %0, ptr noundef @.str.128, ptr noundef nonnull align 1 dereferenceable(1) %76)
          to label %554 unwind label %555, !dbg !3969

554:                                              ; preds = %553
  call void @_ZNSaIcED1Ev(ptr noundef nonnull align 1 dereferenceable(1) %76) #3, !dbg !3970
  br label %927, !dbg !3970

555:                                              ; preds = %553
  %556 = landingpad { ptr, i32 }
          cleanup, !dbg !3832
  %557 = extractvalue { ptr, i32 } %556, 0, !dbg !3832
  store ptr %557, ptr %6, align 8, !dbg !3832
  %558 = extractvalue { ptr, i32 } %556, 1, !dbg !3832
  store i32 %558, ptr %7, align 4, !dbg !3832
  call void @_ZNSaIcED1Ev(ptr noundef nonnull align 1 dereferenceable(1) %76) #3, !dbg !3970
  br label %928, !dbg !3970

559:                                              ; preds = %2
  call void @_ZNSaIcEC1Ev(ptr noundef nonnull align 1 dereferenceable(1) %77) #3, !dbg !3971
  invoke void @_ZNSt7__cxx1112basic_stringIcSt11char_traitsIcESaIcEEC2IS3_EEPKcRKS3_(ptr noundef nonnull align 8 dereferenceable(32) %0, ptr noundef @.str.129, ptr noundef nonnull align 1 dereferenceable(1) %77)
          to label %560 unwind label %561, !dbg !3971

560:                                              ; preds = %559
  call void @_ZNSaIcED1Ev(ptr noundef nonnull align 1 dereferenceable(1) %77) #3, !dbg !3972
  br label %927, !dbg !3972

561:                                              ; preds = %559
  %562 = landingpad { ptr, i32 }
          cleanup, !dbg !3832
  %563 = extractvalue { ptr, i32 } %562, 0, !dbg !3832
  store ptr %563, ptr %6, align 8, !dbg !3832
  %564 = extractvalue { ptr, i32 } %562, 1, !dbg !3832
  store i32 %564, ptr %7, align 4, !dbg !3832
  call void @_ZNSaIcED1Ev(ptr noundef nonnull align 1 dereferenceable(1) %77) #3, !dbg !3972
  br label %928, !dbg !3972

565:                                              ; preds = %2
  call void @_ZNSaIcEC1Ev(ptr noundef nonnull align 1 dereferenceable(1) %78) #3, !dbg !3973
  invoke void @_ZNSt7__cxx1112basic_stringIcSt11char_traitsIcESaIcEEC2IS3_EEPKcRKS3_(ptr noundef nonnull align 8 dereferenceable(32) %0, ptr noundef @.str.130, ptr noundef nonnull align 1 dereferenceable(1) %78)
          to label %566 unwind label %567, !dbg !3973

566:                                              ; preds = %565
  call void @_ZNSaIcED1Ev(ptr noundef nonnull align 1 dereferenceable(1) %78) #3, !dbg !3974
  br label %927, !dbg !3974

567:                                              ; preds = %565
  %568 = landingpad { ptr, i32 }
          cleanup, !dbg !3832
  %569 = extractvalue { ptr, i32 } %568, 0, !dbg !3832
  store ptr %569, ptr %6, align 8, !dbg !3832
  %570 = extractvalue { ptr, i32 } %568, 1, !dbg !3832
  store i32 %570, ptr %7, align 4, !dbg !3832
  call void @_ZNSaIcED1Ev(ptr noundef nonnull align 1 dereferenceable(1) %78) #3, !dbg !3974
  br label %928, !dbg !3974

571:                                              ; preds = %2
  call void @_ZNSaIcEC1Ev(ptr noundef nonnull align 1 dereferenceable(1) %79) #3, !dbg !3975
  invoke void @_ZNSt7__cxx1112basic_stringIcSt11char_traitsIcESaIcEEC2IS3_EEPKcRKS3_(ptr noundef nonnull align 8 dereferenceable(32) %0, ptr noundef @.str.131, ptr noundef nonnull align 1 dereferenceable(1) %79)
          to label %572 unwind label %573, !dbg !3975

572:                                              ; preds = %571
  call void @_ZNSaIcED1Ev(ptr noundef nonnull align 1 dereferenceable(1) %79) #3, !dbg !3976
  br label %927, !dbg !3976

573:                                              ; preds = %571
  %574 = landingpad { ptr, i32 }
          cleanup, !dbg !3832
  %575 = extractvalue { ptr, i32 } %574, 0, !dbg !3832
  store ptr %575, ptr %6, align 8, !dbg !3832
  %576 = extractvalue { ptr, i32 } %574, 1, !dbg !3832
  store i32 %576, ptr %7, align 4, !dbg !3832
  call void @_ZNSaIcED1Ev(ptr noundef nonnull align 1 dereferenceable(1) %79) #3, !dbg !3976
  br label %928, !dbg !3976

577:                                              ; preds = %2
  call void @_ZNSaIcEC1Ev(ptr noundef nonnull align 1 dereferenceable(1) %80) #3, !dbg !3977
  invoke void @_ZNSt7__cxx1112basic_stringIcSt11char_traitsIcESaIcEEC2IS3_EEPKcRKS3_(ptr noundef nonnull align 8 dereferenceable(32) %0, ptr noundef @.str.132, ptr noundef nonnull align 1 dereferenceable(1) %80)
          to label %578 unwind label %579, !dbg !3977

578:                                              ; preds = %577
  call void @_ZNSaIcED1Ev(ptr noundef nonnull align 1 dereferenceable(1) %80) #3, !dbg !3978
  br label %927, !dbg !3978

579:                                              ; preds = %577
  %580 = landingpad { ptr, i32 }
          cleanup, !dbg !3832
  %581 = extractvalue { ptr, i32 } %580, 0, !dbg !3832
  store ptr %581, ptr %6, align 8, !dbg !3832
  %582 = extractvalue { ptr, i32 } %580, 1, !dbg !3832
  store i32 %582, ptr %7, align 4, !dbg !3832
  call void @_ZNSaIcED1Ev(ptr noundef nonnull align 1 dereferenceable(1) %80) #3, !dbg !3978
  br label %928, !dbg !3978

583:                                              ; preds = %2
  call void @_ZNSaIcEC1Ev(ptr noundef nonnull align 1 dereferenceable(1) %81) #3, !dbg !3979
  invoke void @_ZNSt7__cxx1112basic_stringIcSt11char_traitsIcESaIcEEC2IS3_EEPKcRKS3_(ptr noundef nonnull align 8 dereferenceable(32) %0, ptr noundef @.str.133, ptr noundef nonnull align 1 dereferenceable(1) %81)
          to label %584 unwind label %585, !dbg !3979

584:                                              ; preds = %583
  call void @_ZNSaIcED1Ev(ptr noundef nonnull align 1 dereferenceable(1) %81) #3, !dbg !3980
  br label %927, !dbg !3980

585:                                              ; preds = %583
  %586 = landingpad { ptr, i32 }
          cleanup, !dbg !3832
  %587 = extractvalue { ptr, i32 } %586, 0, !dbg !3832
  store ptr %587, ptr %6, align 8, !dbg !3832
  %588 = extractvalue { ptr, i32 } %586, 1, !dbg !3832
  store i32 %588, ptr %7, align 4, !dbg !3832
  call void @_ZNSaIcED1Ev(ptr noundef nonnull align 1 dereferenceable(1) %81) #3, !dbg !3980
  br label %928, !dbg !3980

589:                                              ; preds = %2
  call void @_ZNSaIcEC1Ev(ptr noundef nonnull align 1 dereferenceable(1) %82) #3, !dbg !3981
  invoke void @_ZNSt7__cxx1112basic_stringIcSt11char_traitsIcESaIcEEC2IS3_EEPKcRKS3_(ptr noundef nonnull align 8 dereferenceable(32) %0, ptr noundef @.str.134, ptr noundef nonnull align 1 dereferenceable(1) %82)
          to label %590 unwind label %591, !dbg !3981

590:                                              ; preds = %589
  call void @_ZNSaIcED1Ev(ptr noundef nonnull align 1 dereferenceable(1) %82) #3, !dbg !3982
  br label %927, !dbg !3982

591:                                              ; preds = %589
  %592 = landingpad { ptr, i32 }
          cleanup, !dbg !3832
  %593 = extractvalue { ptr, i32 } %592, 0, !dbg !3832
  store ptr %593, ptr %6, align 8, !dbg !3832
  %594 = extractvalue { ptr, i32 } %592, 1, !dbg !3832
  store i32 %594, ptr %7, align 4, !dbg !3832
  call void @_ZNSaIcED1Ev(ptr noundef nonnull align 1 dereferenceable(1) %82) #3, !dbg !3982
  br label %928, !dbg !3982

595:                                              ; preds = %2
  call void @_ZNSaIcEC1Ev(ptr noundef nonnull align 1 dereferenceable(1) %83) #3, !dbg !3983
  invoke void @_ZNSt7__cxx1112basic_stringIcSt11char_traitsIcESaIcEEC2IS3_EEPKcRKS3_(ptr noundef nonnull align 8 dereferenceable(32) %0, ptr noundef @.str.135, ptr noundef nonnull align 1 dereferenceable(1) %83)
          to label %596 unwind label %597, !dbg !3983

596:                                              ; preds = %595
  call void @_ZNSaIcED1Ev(ptr noundef nonnull align 1 dereferenceable(1) %83) #3, !dbg !3984
  br label %927, !dbg !3984

597:                                              ; preds = %595
  %598 = landingpad { ptr, i32 }
          cleanup, !dbg !3832
  %599 = extractvalue { ptr, i32 } %598, 0, !dbg !3832
  store ptr %599, ptr %6, align 8, !dbg !3832
  %600 = extractvalue { ptr, i32 } %598, 1, !dbg !3832
  store i32 %600, ptr %7, align 4, !dbg !3832
  call void @_ZNSaIcED1Ev(ptr noundef nonnull align 1 dereferenceable(1) %83) #3, !dbg !3984
  br label %928, !dbg !3984

601:                                              ; preds = %2
  call void @_ZNSaIcEC1Ev(ptr noundef nonnull align 1 dereferenceable(1) %84) #3, !dbg !3985
  invoke void @_ZNSt7__cxx1112basic_stringIcSt11char_traitsIcESaIcEEC2IS3_EEPKcRKS3_(ptr noundef nonnull align 8 dereferenceable(32) %0, ptr noundef @.str.136, ptr noundef nonnull align 1 dereferenceable(1) %84)
          to label %602 unwind label %603, !dbg !3985

602:                                              ; preds = %601
  call void @_ZNSaIcED1Ev(ptr noundef nonnull align 1 dereferenceable(1) %84) #3, !dbg !3986
  br label %927, !dbg !3986

603:                                              ; preds = %601
  %604 = landingpad { ptr, i32 }
          cleanup, !dbg !3832
  %605 = extractvalue { ptr, i32 } %604, 0, !dbg !3832
  store ptr %605, ptr %6, align 8, !dbg !3832
  %606 = extractvalue { ptr, i32 } %604, 1, !dbg !3832
  store i32 %606, ptr %7, align 4, !dbg !3832
  call void @_ZNSaIcED1Ev(ptr noundef nonnull align 1 dereferenceable(1) %84) #3, !dbg !3986
  br label %928, !dbg !3986

607:                                              ; preds = %2
  call void @_ZNSaIcEC1Ev(ptr noundef nonnull align 1 dereferenceable(1) %85) #3, !dbg !3987
  invoke void @_ZNSt7__cxx1112basic_stringIcSt11char_traitsIcESaIcEEC2IS3_EEPKcRKS3_(ptr noundef nonnull align 8 dereferenceable(32) %0, ptr noundef @.str.137, ptr noundef nonnull align 1 dereferenceable(1) %85)
          to label %608 unwind label %609, !dbg !3987

608:                                              ; preds = %607
  call void @_ZNSaIcED1Ev(ptr noundef nonnull align 1 dereferenceable(1) %85) #3, !dbg !3988
  br label %927, !dbg !3988

609:                                              ; preds = %607
  %610 = landingpad { ptr, i32 }
          cleanup, !dbg !3832
  %611 = extractvalue { ptr, i32 } %610, 0, !dbg !3832
  store ptr %611, ptr %6, align 8, !dbg !3832
  %612 = extractvalue { ptr, i32 } %610, 1, !dbg !3832
  store i32 %612, ptr %7, align 4, !dbg !3832
  call void @_ZNSaIcED1Ev(ptr noundef nonnull align 1 dereferenceable(1) %85) #3, !dbg !3988
  br label %928, !dbg !3988

613:                                              ; preds = %2
  call void @_ZNSaIcEC1Ev(ptr noundef nonnull align 1 dereferenceable(1) %86) #3, !dbg !3989
  invoke void @_ZNSt7__cxx1112basic_stringIcSt11char_traitsIcESaIcEEC2IS3_EEPKcRKS3_(ptr noundef nonnull align 8 dereferenceable(32) %0, ptr noundef @.str.138, ptr noundef nonnull align 1 dereferenceable(1) %86)
          to label %614 unwind label %615, !dbg !3989

614:                                              ; preds = %613
  call void @_ZNSaIcED1Ev(ptr noundef nonnull align 1 dereferenceable(1) %86) #3, !dbg !3990
  br label %927, !dbg !3990

615:                                              ; preds = %613
  %616 = landingpad { ptr, i32 }
          cleanup, !dbg !3832
  %617 = extractvalue { ptr, i32 } %616, 0, !dbg !3832
  store ptr %617, ptr %6, align 8, !dbg !3832
  %618 = extractvalue { ptr, i32 } %616, 1, !dbg !3832
  store i32 %618, ptr %7, align 4, !dbg !3832
  call void @_ZNSaIcED1Ev(ptr noundef nonnull align 1 dereferenceable(1) %86) #3, !dbg !3990
  br label %928, !dbg !3990

619:                                              ; preds = %2
  call void @_ZNSaIcEC1Ev(ptr noundef nonnull align 1 dereferenceable(1) %87) #3, !dbg !3991
  invoke void @_ZNSt7__cxx1112basic_stringIcSt11char_traitsIcESaIcEEC2IS3_EEPKcRKS3_(ptr noundef nonnull align 8 dereferenceable(32) %0, ptr noundef @.str.139, ptr noundef nonnull align 1 dereferenceable(1) %87)
          to label %620 unwind label %621, !dbg !3991

620:                                              ; preds = %619
  call void @_ZNSaIcED1Ev(ptr noundef nonnull align 1 dereferenceable(1) %87) #3, !dbg !3992
  br label %927, !dbg !3992

621:                                              ; preds = %619
  %622 = landingpad { ptr, i32 }
          cleanup, !dbg !3832
  %623 = extractvalue { ptr, i32 } %622, 0, !dbg !3832
  store ptr %623, ptr %6, align 8, !dbg !3832
  %624 = extractvalue { ptr, i32 } %622, 1, !dbg !3832
  store i32 %624, ptr %7, align 4, !dbg !3832
  call void @_ZNSaIcED1Ev(ptr noundef nonnull align 1 dereferenceable(1) %87) #3, !dbg !3992
  br label %928, !dbg !3992

625:                                              ; preds = %2
  call void @_ZNSaIcEC1Ev(ptr noundef nonnull align 1 dereferenceable(1) %88) #3, !dbg !3993
  invoke void @_ZNSt7__cxx1112basic_stringIcSt11char_traitsIcESaIcEEC2IS3_EEPKcRKS3_(ptr noundef nonnull align 8 dereferenceable(32) %0, ptr noundef @.str.140, ptr noundef nonnull align 1 dereferenceable(1) %88)
          to label %626 unwind label %627, !dbg !3993

626:                                              ; preds = %625
  call void @_ZNSaIcED1Ev(ptr noundef nonnull align 1 dereferenceable(1) %88) #3, !dbg !3994
  br label %927, !dbg !3994

627:                                              ; preds = %625
  %628 = landingpad { ptr, i32 }
          cleanup, !dbg !3832
  %629 = extractvalue { ptr, i32 } %628, 0, !dbg !3832
  store ptr %629, ptr %6, align 8, !dbg !3832
  %630 = extractvalue { ptr, i32 } %628, 1, !dbg !3832
  store i32 %630, ptr %7, align 4, !dbg !3832
  call void @_ZNSaIcED1Ev(ptr noundef nonnull align 1 dereferenceable(1) %88) #3, !dbg !3994
  br label %928, !dbg !3994

631:                                              ; preds = %2
  call void @_ZNSaIcEC1Ev(ptr noundef nonnull align 1 dereferenceable(1) %89) #3, !dbg !3995
  invoke void @_ZNSt7__cxx1112basic_stringIcSt11char_traitsIcESaIcEEC2IS3_EEPKcRKS3_(ptr noundef nonnull align 8 dereferenceable(32) %0, ptr noundef @.str.141, ptr noundef nonnull align 1 dereferenceable(1) %89)
          to label %632 unwind label %633, !dbg !3995

632:                                              ; preds = %631
  call void @_ZNSaIcED1Ev(ptr noundef nonnull align 1 dereferenceable(1) %89) #3, !dbg !3996
  br label %927, !dbg !3996

633:                                              ; preds = %631
  %634 = landingpad { ptr, i32 }
          cleanup, !dbg !3832
  %635 = extractvalue { ptr, i32 } %634, 0, !dbg !3832
  store ptr %635, ptr %6, align 8, !dbg !3832
  %636 = extractvalue { ptr, i32 } %634, 1, !dbg !3832
  store i32 %636, ptr %7, align 4, !dbg !3832
  call void @_ZNSaIcED1Ev(ptr noundef nonnull align 1 dereferenceable(1) %89) #3, !dbg !3996
  br label %928, !dbg !3996

637:                                              ; preds = %2
  call void @_ZNSaIcEC1Ev(ptr noundef nonnull align 1 dereferenceable(1) %90) #3, !dbg !3997
  invoke void @_ZNSt7__cxx1112basic_stringIcSt11char_traitsIcESaIcEEC2IS3_EEPKcRKS3_(ptr noundef nonnull align 8 dereferenceable(32) %0, ptr noundef @.str.142, ptr noundef nonnull align 1 dereferenceable(1) %90)
          to label %638 unwind label %639, !dbg !3997

638:                                              ; preds = %637
  call void @_ZNSaIcED1Ev(ptr noundef nonnull align 1 dereferenceable(1) %90) #3, !dbg !3998
  br label %927, !dbg !3998

639:                                              ; preds = %637
  %640 = landingpad { ptr, i32 }
          cleanup, !dbg !3832
  %641 = extractvalue { ptr, i32 } %640, 0, !dbg !3832
  store ptr %641, ptr %6, align 8, !dbg !3832
  %642 = extractvalue { ptr, i32 } %640, 1, !dbg !3832
  store i32 %642, ptr %7, align 4, !dbg !3832
  call void @_ZNSaIcED1Ev(ptr noundef nonnull align 1 dereferenceable(1) %90) #3, !dbg !3998
  br label %928, !dbg !3998

643:                                              ; preds = %2
  call void @_ZNSaIcEC1Ev(ptr noundef nonnull align 1 dereferenceable(1) %91) #3, !dbg !3999
  invoke void @_ZNSt7__cxx1112basic_stringIcSt11char_traitsIcESaIcEEC2IS3_EEPKcRKS3_(ptr noundef nonnull align 8 dereferenceable(32) %0, ptr noundef @.str.143, ptr noundef nonnull align 1 dereferenceable(1) %91)
          to label %644 unwind label %645, !dbg !3999

644:                                              ; preds = %643
  call void @_ZNSaIcED1Ev(ptr noundef nonnull align 1 dereferenceable(1) %91) #3, !dbg !4000
  br label %927, !dbg !4000

645:                                              ; preds = %643
  %646 = landingpad { ptr, i32 }
          cleanup, !dbg !3832
  %647 = extractvalue { ptr, i32 } %646, 0, !dbg !3832
  store ptr %647, ptr %6, align 8, !dbg !3832
  %648 = extractvalue { ptr, i32 } %646, 1, !dbg !3832
  store i32 %648, ptr %7, align 4, !dbg !3832
  call void @_ZNSaIcED1Ev(ptr noundef nonnull align 1 dereferenceable(1) %91) #3, !dbg !4000
  br label %928, !dbg !4000

649:                                              ; preds = %2
  call void @_ZNSaIcEC1Ev(ptr noundef nonnull align 1 dereferenceable(1) %92) #3, !dbg !4001
  invoke void @_ZNSt7__cxx1112basic_stringIcSt11char_traitsIcESaIcEEC2IS3_EEPKcRKS3_(ptr noundef nonnull align 8 dereferenceable(32) %0, ptr noundef @.str.144, ptr noundef nonnull align 1 dereferenceable(1) %92)
          to label %650 unwind label %651, !dbg !4001

650:                                              ; preds = %649
  call void @_ZNSaIcED1Ev(ptr noundef nonnull align 1 dereferenceable(1) %92) #3, !dbg !4002
  br label %927, !dbg !4002

651:                                              ; preds = %649
  %652 = landingpad { ptr, i32 }
          cleanup, !dbg !3832
  %653 = extractvalue { ptr, i32 } %652, 0, !dbg !3832
  store ptr %653, ptr %6, align 8, !dbg !3832
  %654 = extractvalue { ptr, i32 } %652, 1, !dbg !3832
  store i32 %654, ptr %7, align 4, !dbg !3832
  call void @_ZNSaIcED1Ev(ptr noundef nonnull align 1 dereferenceable(1) %92) #3, !dbg !4002
  br label %928, !dbg !4002

655:                                              ; preds = %2
  call void @_ZNSaIcEC1Ev(ptr noundef nonnull align 1 dereferenceable(1) %93) #3, !dbg !4003
  invoke void @_ZNSt7__cxx1112basic_stringIcSt11char_traitsIcESaIcEEC2IS3_EEPKcRKS3_(ptr noundef nonnull align 8 dereferenceable(32) %0, ptr noundef @.str.145, ptr noundef nonnull align 1 dereferenceable(1) %93)
          to label %656 unwind label %657, !dbg !4003

656:                                              ; preds = %655
  call void @_ZNSaIcED1Ev(ptr noundef nonnull align 1 dereferenceable(1) %93) #3, !dbg !4004
  br label %927, !dbg !4004

657:                                              ; preds = %655
  %658 = landingpad { ptr, i32 }
          cleanup, !dbg !3832
  %659 = extractvalue { ptr, i32 } %658, 0, !dbg !3832
  store ptr %659, ptr %6, align 8, !dbg !3832
  %660 = extractvalue { ptr, i32 } %658, 1, !dbg !3832
  store i32 %660, ptr %7, align 4, !dbg !3832
  call void @_ZNSaIcED1Ev(ptr noundef nonnull align 1 dereferenceable(1) %93) #3, !dbg !4004
  br label %928, !dbg !4004

661:                                              ; preds = %2
  call void @_ZNSaIcEC1Ev(ptr noundef nonnull align 1 dereferenceable(1) %94) #3, !dbg !4005
  invoke void @_ZNSt7__cxx1112basic_stringIcSt11char_traitsIcESaIcEEC2IS3_EEPKcRKS3_(ptr noundef nonnull align 8 dereferenceable(32) %0, ptr noundef @.str.146, ptr noundef nonnull align 1 dereferenceable(1) %94)
          to label %662 unwind label %663, !dbg !4005

662:                                              ; preds = %661
  call void @_ZNSaIcED1Ev(ptr noundef nonnull align 1 dereferenceable(1) %94) #3, !dbg !4006
  br label %927, !dbg !4006

663:                                              ; preds = %661
  %664 = landingpad { ptr, i32 }
          cleanup, !dbg !3832
  %665 = extractvalue { ptr, i32 } %664, 0, !dbg !3832
  store ptr %665, ptr %6, align 8, !dbg !3832
  %666 = extractvalue { ptr, i32 } %664, 1, !dbg !3832
  store i32 %666, ptr %7, align 4, !dbg !3832
  call void @_ZNSaIcED1Ev(ptr noundef nonnull align 1 dereferenceable(1) %94) #3, !dbg !4006
  br label %928, !dbg !4006

667:                                              ; preds = %2
  call void @_ZNSaIcEC1Ev(ptr noundef nonnull align 1 dereferenceable(1) %95) #3, !dbg !4007
  invoke void @_ZNSt7__cxx1112basic_stringIcSt11char_traitsIcESaIcEEC2IS3_EEPKcRKS3_(ptr noundef nonnull align 8 dereferenceable(32) %0, ptr noundef @.str.147, ptr noundef nonnull align 1 dereferenceable(1) %95)
          to label %668 unwind label %669, !dbg !4007

668:                                              ; preds = %667
  call void @_ZNSaIcED1Ev(ptr noundef nonnull align 1 dereferenceable(1) %95) #3, !dbg !4008
  br label %927, !dbg !4008

669:                                              ; preds = %667
  %670 = landingpad { ptr, i32 }
          cleanup, !dbg !3832
  %671 = extractvalue { ptr, i32 } %670, 0, !dbg !3832
  store ptr %671, ptr %6, align 8, !dbg !3832
  %672 = extractvalue { ptr, i32 } %670, 1, !dbg !3832
  store i32 %672, ptr %7, align 4, !dbg !3832
  call void @_ZNSaIcED1Ev(ptr noundef nonnull align 1 dereferenceable(1) %95) #3, !dbg !4008
  br label %928, !dbg !4008

673:                                              ; preds = %2
  call void @_ZNSaIcEC1Ev(ptr noundef nonnull align 1 dereferenceable(1) %96) #3, !dbg !4009
  invoke void @_ZNSt7__cxx1112basic_stringIcSt11char_traitsIcESaIcEEC2IS3_EEPKcRKS3_(ptr noundef nonnull align 8 dereferenceable(32) %0, ptr noundef @.str.148, ptr noundef nonnull align 1 dereferenceable(1) %96)
          to label %674 unwind label %675, !dbg !4009

674:                                              ; preds = %673
  call void @_ZNSaIcED1Ev(ptr noundef nonnull align 1 dereferenceable(1) %96) #3, !dbg !4010
  br label %927, !dbg !4010

675:                                              ; preds = %673
  %676 = landingpad { ptr, i32 }
          cleanup, !dbg !3832
  %677 = extractvalue { ptr, i32 } %676, 0, !dbg !3832
  store ptr %677, ptr %6, align 8, !dbg !3832
  %678 = extractvalue { ptr, i32 } %676, 1, !dbg !3832
  store i32 %678, ptr %7, align 4, !dbg !3832
  call void @_ZNSaIcED1Ev(ptr noundef nonnull align 1 dereferenceable(1) %96) #3, !dbg !4010
  br label %928, !dbg !4010

679:                                              ; preds = %2
  call void @_ZNSaIcEC1Ev(ptr noundef nonnull align 1 dereferenceable(1) %97) #3, !dbg !4011
  invoke void @_ZNSt7__cxx1112basic_stringIcSt11char_traitsIcESaIcEEC2IS3_EEPKcRKS3_(ptr noundef nonnull align 8 dereferenceable(32) %0, ptr noundef @.str.149, ptr noundef nonnull align 1 dereferenceable(1) %97)
          to label %680 unwind label %681, !dbg !4011

680:                                              ; preds = %679
  call void @_ZNSaIcED1Ev(ptr noundef nonnull align 1 dereferenceable(1) %97) #3, !dbg !4012
  br label %927, !dbg !4012

681:                                              ; preds = %679
  %682 = landingpad { ptr, i32 }
          cleanup, !dbg !3832
  %683 = extractvalue { ptr, i32 } %682, 0, !dbg !3832
  store ptr %683, ptr %6, align 8, !dbg !3832
  %684 = extractvalue { ptr, i32 } %682, 1, !dbg !3832
  store i32 %684, ptr %7, align 4, !dbg !3832
  call void @_ZNSaIcED1Ev(ptr noundef nonnull align 1 dereferenceable(1) %97) #3, !dbg !4012
  br label %928, !dbg !4012

685:                                              ; preds = %2
  call void @_ZNSaIcEC1Ev(ptr noundef nonnull align 1 dereferenceable(1) %98) #3, !dbg !4013
  invoke void @_ZNSt7__cxx1112basic_stringIcSt11char_traitsIcESaIcEEC2IS3_EEPKcRKS3_(ptr noundef nonnull align 8 dereferenceable(32) %0, ptr noundef @.str.150, ptr noundef nonnull align 1 dereferenceable(1) %98)
          to label %686 unwind label %687, !dbg !4013

686:                                              ; preds = %685
  call void @_ZNSaIcED1Ev(ptr noundef nonnull align 1 dereferenceable(1) %98) #3, !dbg !4014
  br label %927, !dbg !4014

687:                                              ; preds = %685
  %688 = landingpad { ptr, i32 }
          cleanup, !dbg !3832
  %689 = extractvalue { ptr, i32 } %688, 0, !dbg !3832
  store ptr %689, ptr %6, align 8, !dbg !3832
  %690 = extractvalue { ptr, i32 } %688, 1, !dbg !3832
  store i32 %690, ptr %7, align 4, !dbg !3832
  call void @_ZNSaIcED1Ev(ptr noundef nonnull align 1 dereferenceable(1) %98) #3, !dbg !4014
  br label %928, !dbg !4014

691:                                              ; preds = %2
  call void @_ZNSaIcEC1Ev(ptr noundef nonnull align 1 dereferenceable(1) %99) #3, !dbg !4015
  invoke void @_ZNSt7__cxx1112basic_stringIcSt11char_traitsIcESaIcEEC2IS3_EEPKcRKS3_(ptr noundef nonnull align 8 dereferenceable(32) %0, ptr noundef @.str.151, ptr noundef nonnull align 1 dereferenceable(1) %99)
          to label %692 unwind label %693, !dbg !4015

692:                                              ; preds = %691
  call void @_ZNSaIcED1Ev(ptr noundef nonnull align 1 dereferenceable(1) %99) #3, !dbg !4016
  br label %927, !dbg !4016

693:                                              ; preds = %691
  %694 = landingpad { ptr, i32 }
          cleanup, !dbg !3832
  %695 = extractvalue { ptr, i32 } %694, 0, !dbg !3832
  store ptr %695, ptr %6, align 8, !dbg !3832
  %696 = extractvalue { ptr, i32 } %694, 1, !dbg !3832
  store i32 %696, ptr %7, align 4, !dbg !3832
  call void @_ZNSaIcED1Ev(ptr noundef nonnull align 1 dereferenceable(1) %99) #3, !dbg !4016
  br label %928, !dbg !4016

697:                                              ; preds = %2
  call void @_ZNSaIcEC1Ev(ptr noundef nonnull align 1 dereferenceable(1) %100) #3, !dbg !4017
  invoke void @_ZNSt7__cxx1112basic_stringIcSt11char_traitsIcESaIcEEC2IS3_EEPKcRKS3_(ptr noundef nonnull align 8 dereferenceable(32) %0, ptr noundef @.str.152, ptr noundef nonnull align 1 dereferenceable(1) %100)
          to label %698 unwind label %699, !dbg !4017

698:                                              ; preds = %697
  call void @_ZNSaIcED1Ev(ptr noundef nonnull align 1 dereferenceable(1) %100) #3, !dbg !4018
  br label %927, !dbg !4018

699:                                              ; preds = %697
  %700 = landingpad { ptr, i32 }
          cleanup, !dbg !3832
  %701 = extractvalue { ptr, i32 } %700, 0, !dbg !3832
  store ptr %701, ptr %6, align 8, !dbg !3832
  %702 = extractvalue { ptr, i32 } %700, 1, !dbg !3832
  store i32 %702, ptr %7, align 4, !dbg !3832
  call void @_ZNSaIcED1Ev(ptr noundef nonnull align 1 dereferenceable(1) %100) #3, !dbg !4018
  br label %928, !dbg !4018

703:                                              ; preds = %2
  call void @_ZNSaIcEC1Ev(ptr noundef nonnull align 1 dereferenceable(1) %101) #3, !dbg !4019
  invoke void @_ZNSt7__cxx1112basic_stringIcSt11char_traitsIcESaIcEEC2IS3_EEPKcRKS3_(ptr noundef nonnull align 8 dereferenceable(32) %0, ptr noundef @.str.153, ptr noundef nonnull align 1 dereferenceable(1) %101)
          to label %704 unwind label %705, !dbg !4019

704:                                              ; preds = %703
  call void @_ZNSaIcED1Ev(ptr noundef nonnull align 1 dereferenceable(1) %101) #3, !dbg !4020
  br label %927, !dbg !4020

705:                                              ; preds = %703
  %706 = landingpad { ptr, i32 }
          cleanup, !dbg !3832
  %707 = extractvalue { ptr, i32 } %706, 0, !dbg !3832
  store ptr %707, ptr %6, align 8, !dbg !3832
  %708 = extractvalue { ptr, i32 } %706, 1, !dbg !3832
  store i32 %708, ptr %7, align 4, !dbg !3832
  call void @_ZNSaIcED1Ev(ptr noundef nonnull align 1 dereferenceable(1) %101) #3, !dbg !4020
  br label %928, !dbg !4020

709:                                              ; preds = %2
  call void @_ZNSaIcEC1Ev(ptr noundef nonnull align 1 dereferenceable(1) %102) #3, !dbg !4021
  invoke void @_ZNSt7__cxx1112basic_stringIcSt11char_traitsIcESaIcEEC2IS3_EEPKcRKS3_(ptr noundef nonnull align 8 dereferenceable(32) %0, ptr noundef @.str.154, ptr noundef nonnull align 1 dereferenceable(1) %102)
          to label %710 unwind label %711, !dbg !4021

710:                                              ; preds = %709
  call void @_ZNSaIcED1Ev(ptr noundef nonnull align 1 dereferenceable(1) %102) #3, !dbg !4022
  br label %927, !dbg !4022

711:                                              ; preds = %709
  %712 = landingpad { ptr, i32 }
          cleanup, !dbg !3832
  %713 = extractvalue { ptr, i32 } %712, 0, !dbg !3832
  store ptr %713, ptr %6, align 8, !dbg !3832
  %714 = extractvalue { ptr, i32 } %712, 1, !dbg !3832
  store i32 %714, ptr %7, align 4, !dbg !3832
  call void @_ZNSaIcED1Ev(ptr noundef nonnull align 1 dereferenceable(1) %102) #3, !dbg !4022
  br label %928, !dbg !4022

715:                                              ; preds = %2
  call void @_ZNSaIcEC1Ev(ptr noundef nonnull align 1 dereferenceable(1) %103) #3, !dbg !4023
  invoke void @_ZNSt7__cxx1112basic_stringIcSt11char_traitsIcESaIcEEC2IS3_EEPKcRKS3_(ptr noundef nonnull align 8 dereferenceable(32) %0, ptr noundef @.str.155, ptr noundef nonnull align 1 dereferenceable(1) %103)
          to label %716 unwind label %717, !dbg !4023

716:                                              ; preds = %715
  call void @_ZNSaIcED1Ev(ptr noundef nonnull align 1 dereferenceable(1) %103) #3, !dbg !4024
  br label %927, !dbg !4024

717:                                              ; preds = %715
  %718 = landingpad { ptr, i32 }
          cleanup, !dbg !3832
  %719 = extractvalue { ptr, i32 } %718, 0, !dbg !3832
  store ptr %719, ptr %6, align 8, !dbg !3832
  %720 = extractvalue { ptr, i32 } %718, 1, !dbg !3832
  store i32 %720, ptr %7, align 4, !dbg !3832
  call void @_ZNSaIcED1Ev(ptr noundef nonnull align 1 dereferenceable(1) %103) #3, !dbg !4024
  br label %928, !dbg !4024

721:                                              ; preds = %2
  call void @_ZNSaIcEC1Ev(ptr noundef nonnull align 1 dereferenceable(1) %104) #3, !dbg !4025
  invoke void @_ZNSt7__cxx1112basic_stringIcSt11char_traitsIcESaIcEEC2IS3_EEPKcRKS3_(ptr noundef nonnull align 8 dereferenceable(32) %0, ptr noundef @.str.156, ptr noundef nonnull align 1 dereferenceable(1) %104)
          to label %722 unwind label %723, !dbg !4025

722:                                              ; preds = %721
  call void @_ZNSaIcED1Ev(ptr noundef nonnull align 1 dereferenceable(1) %104) #3, !dbg !4026
  br label %927, !dbg !4026

723:                                              ; preds = %721
  %724 = landingpad { ptr, i32 }
          cleanup, !dbg !3832
  %725 = extractvalue { ptr, i32 } %724, 0, !dbg !3832
  store ptr %725, ptr %6, align 8, !dbg !3832
  %726 = extractvalue { ptr, i32 } %724, 1, !dbg !3832
  store i32 %726, ptr %7, align 4, !dbg !3832
  call void @_ZNSaIcED1Ev(ptr noundef nonnull align 1 dereferenceable(1) %104) #3, !dbg !4026
  br label %928, !dbg !4026

727:                                              ; preds = %2
  call void @_ZNSaIcEC1Ev(ptr noundef nonnull align 1 dereferenceable(1) %105) #3, !dbg !4027
  invoke void @_ZNSt7__cxx1112basic_stringIcSt11char_traitsIcESaIcEEC2IS3_EEPKcRKS3_(ptr noundef nonnull align 8 dereferenceable(32) %0, ptr noundef @.str.157, ptr noundef nonnull align 1 dereferenceable(1) %105)
          to label %728 unwind label %729, !dbg !4027

728:                                              ; preds = %727
  call void @_ZNSaIcED1Ev(ptr noundef nonnull align 1 dereferenceable(1) %105) #3, !dbg !4028
  br label %927, !dbg !4028

729:                                              ; preds = %727
  %730 = landingpad { ptr, i32 }
          cleanup, !dbg !3832
  %731 = extractvalue { ptr, i32 } %730, 0, !dbg !3832
  store ptr %731, ptr %6, align 8, !dbg !3832
  %732 = extractvalue { ptr, i32 } %730, 1, !dbg !3832
  store i32 %732, ptr %7, align 4, !dbg !3832
  call void @_ZNSaIcED1Ev(ptr noundef nonnull align 1 dereferenceable(1) %105) #3, !dbg !4028
  br label %928, !dbg !4028

733:                                              ; preds = %2
  call void @_ZNSaIcEC1Ev(ptr noundef nonnull align 1 dereferenceable(1) %106) #3, !dbg !4029
  invoke void @_ZNSt7__cxx1112basic_stringIcSt11char_traitsIcESaIcEEC2IS3_EEPKcRKS3_(ptr noundef nonnull align 8 dereferenceable(32) %0, ptr noundef @.str.158, ptr noundef nonnull align 1 dereferenceable(1) %106)
          to label %734 unwind label %735, !dbg !4029

734:                                              ; preds = %733
  call void @_ZNSaIcED1Ev(ptr noundef nonnull align 1 dereferenceable(1) %106) #3, !dbg !4030
  br label %927, !dbg !4030

735:                                              ; preds = %733
  %736 = landingpad { ptr, i32 }
          cleanup, !dbg !3832
  %737 = extractvalue { ptr, i32 } %736, 0, !dbg !3832
  store ptr %737, ptr %6, align 8, !dbg !3832
  %738 = extractvalue { ptr, i32 } %736, 1, !dbg !3832
  store i32 %738, ptr %7, align 4, !dbg !3832
  call void @_ZNSaIcED1Ev(ptr noundef nonnull align 1 dereferenceable(1) %106) #3, !dbg !4030
  br label %928, !dbg !4030

739:                                              ; preds = %2
  call void @_ZNSaIcEC1Ev(ptr noundef nonnull align 1 dereferenceable(1) %107) #3, !dbg !4031
  invoke void @_ZNSt7__cxx1112basic_stringIcSt11char_traitsIcESaIcEEC2IS3_EEPKcRKS3_(ptr noundef nonnull align 8 dereferenceable(32) %0, ptr noundef @.str.159, ptr noundef nonnull align 1 dereferenceable(1) %107)
          to label %740 unwind label %741, !dbg !4031

740:                                              ; preds = %739
  call void @_ZNSaIcED1Ev(ptr noundef nonnull align 1 dereferenceable(1) %107) #3, !dbg !4032
  br label %927, !dbg !4032

741:                                              ; preds = %739
  %742 = landingpad { ptr, i32 }
          cleanup, !dbg !3832
  %743 = extractvalue { ptr, i32 } %742, 0, !dbg !3832
  store ptr %743, ptr %6, align 8, !dbg !3832
  %744 = extractvalue { ptr, i32 } %742, 1, !dbg !3832
  store i32 %744, ptr %7, align 4, !dbg !3832
  call void @_ZNSaIcED1Ev(ptr noundef nonnull align 1 dereferenceable(1) %107) #3, !dbg !4032
  br label %928, !dbg !4032

745:                                              ; preds = %2
  call void @_ZNSaIcEC1Ev(ptr noundef nonnull align 1 dereferenceable(1) %108) #3, !dbg !4033
  invoke void @_ZNSt7__cxx1112basic_stringIcSt11char_traitsIcESaIcEEC2IS3_EEPKcRKS3_(ptr noundef nonnull align 8 dereferenceable(32) %0, ptr noundef @.str.160, ptr noundef nonnull align 1 dereferenceable(1) %108)
          to label %746 unwind label %747, !dbg !4033

746:                                              ; preds = %745
  call void @_ZNSaIcED1Ev(ptr noundef nonnull align 1 dereferenceable(1) %108) #3, !dbg !4034
  br label %927, !dbg !4034

747:                                              ; preds = %745
  %748 = landingpad { ptr, i32 }
          cleanup, !dbg !3832
  %749 = extractvalue { ptr, i32 } %748, 0, !dbg !3832
  store ptr %749, ptr %6, align 8, !dbg !3832
  %750 = extractvalue { ptr, i32 } %748, 1, !dbg !3832
  store i32 %750, ptr %7, align 4, !dbg !3832
  call void @_ZNSaIcED1Ev(ptr noundef nonnull align 1 dereferenceable(1) %108) #3, !dbg !4034
  br label %928, !dbg !4034

751:                                              ; preds = %2
  call void @_ZNSaIcEC1Ev(ptr noundef nonnull align 1 dereferenceable(1) %109) #3, !dbg !4035
  invoke void @_ZNSt7__cxx1112basic_stringIcSt11char_traitsIcESaIcEEC2IS3_EEPKcRKS3_(ptr noundef nonnull align 8 dereferenceable(32) %0, ptr noundef @.str.161, ptr noundef nonnull align 1 dereferenceable(1) %109)
          to label %752 unwind label %753, !dbg !4035

752:                                              ; preds = %751
  call void @_ZNSaIcED1Ev(ptr noundef nonnull align 1 dereferenceable(1) %109) #3, !dbg !4036
  br label %927, !dbg !4036

753:                                              ; preds = %751
  %754 = landingpad { ptr, i32 }
          cleanup, !dbg !3832
  %755 = extractvalue { ptr, i32 } %754, 0, !dbg !3832
  store ptr %755, ptr %6, align 8, !dbg !3832
  %756 = extractvalue { ptr, i32 } %754, 1, !dbg !3832
  store i32 %756, ptr %7, align 4, !dbg !3832
  call void @_ZNSaIcED1Ev(ptr noundef nonnull align 1 dereferenceable(1) %109) #3, !dbg !4036
  br label %928, !dbg !4036

757:                                              ; preds = %2
  call void @_ZNSaIcEC1Ev(ptr noundef nonnull align 1 dereferenceable(1) %110) #3, !dbg !4037
  invoke void @_ZNSt7__cxx1112basic_stringIcSt11char_traitsIcESaIcEEC2IS3_EEPKcRKS3_(ptr noundef nonnull align 8 dereferenceable(32) %0, ptr noundef @.str.162, ptr noundef nonnull align 1 dereferenceable(1) %110)
          to label %758 unwind label %759, !dbg !4037

758:                                              ; preds = %757
  call void @_ZNSaIcED1Ev(ptr noundef nonnull align 1 dereferenceable(1) %110) #3, !dbg !4038
  br label %927, !dbg !4038

759:                                              ; preds = %757
  %760 = landingpad { ptr, i32 }
          cleanup, !dbg !3832
  %761 = extractvalue { ptr, i32 } %760, 0, !dbg !3832
  store ptr %761, ptr %6, align 8, !dbg !3832
  %762 = extractvalue { ptr, i32 } %760, 1, !dbg !3832
  store i32 %762, ptr %7, align 4, !dbg !3832
  call void @_ZNSaIcED1Ev(ptr noundef nonnull align 1 dereferenceable(1) %110) #3, !dbg !4038
  br label %928, !dbg !4038

763:                                              ; preds = %2
  call void @_ZNSaIcEC1Ev(ptr noundef nonnull align 1 dereferenceable(1) %111) #3, !dbg !4039
  invoke void @_ZNSt7__cxx1112basic_stringIcSt11char_traitsIcESaIcEEC2IS3_EEPKcRKS3_(ptr noundef nonnull align 8 dereferenceable(32) %0, ptr noundef @.str.163, ptr noundef nonnull align 1 dereferenceable(1) %111)
          to label %764 unwind label %765, !dbg !4039

764:                                              ; preds = %763
  call void @_ZNSaIcED1Ev(ptr noundef nonnull align 1 dereferenceable(1) %111) #3, !dbg !4040
  br label %927, !dbg !4040

765:                                              ; preds = %763
  %766 = landingpad { ptr, i32 }
          cleanup, !dbg !3832
  %767 = extractvalue { ptr, i32 } %766, 0, !dbg !3832
  store ptr %767, ptr %6, align 8, !dbg !3832
  %768 = extractvalue { ptr, i32 } %766, 1, !dbg !3832
  store i32 %768, ptr %7, align 4, !dbg !3832
  call void @_ZNSaIcED1Ev(ptr noundef nonnull align 1 dereferenceable(1) %111) #3, !dbg !4040
  br label %928, !dbg !4040

769:                                              ; preds = %2
  call void @_ZNSaIcEC1Ev(ptr noundef nonnull align 1 dereferenceable(1) %112) #3, !dbg !4041
  invoke void @_ZNSt7__cxx1112basic_stringIcSt11char_traitsIcESaIcEEC2IS3_EEPKcRKS3_(ptr noundef nonnull align 8 dereferenceable(32) %0, ptr noundef @.str.164, ptr noundef nonnull align 1 dereferenceable(1) %112)
          to label %770 unwind label %771, !dbg !4041

770:                                              ; preds = %769
  call void @_ZNSaIcED1Ev(ptr noundef nonnull align 1 dereferenceable(1) %112) #3, !dbg !4042
  br label %927, !dbg !4042

771:                                              ; preds = %769
  %772 = landingpad { ptr, i32 }
          cleanup, !dbg !3832
  %773 = extractvalue { ptr, i32 } %772, 0, !dbg !3832
  store ptr %773, ptr %6, align 8, !dbg !3832
  %774 = extractvalue { ptr, i32 } %772, 1, !dbg !3832
  store i32 %774, ptr %7, align 4, !dbg !3832
  call void @_ZNSaIcED1Ev(ptr noundef nonnull align 1 dereferenceable(1) %112) #3, !dbg !4042
  br label %928, !dbg !4042

775:                                              ; preds = %2
  call void @_ZNSaIcEC1Ev(ptr noundef nonnull align 1 dereferenceable(1) %113) #3, !dbg !4043
  invoke void @_ZNSt7__cxx1112basic_stringIcSt11char_traitsIcESaIcEEC2IS3_EEPKcRKS3_(ptr noundef nonnull align 8 dereferenceable(32) %0, ptr noundef @.str.165, ptr noundef nonnull align 1 dereferenceable(1) %113)
          to label %776 unwind label %777, !dbg !4043

776:                                              ; preds = %775
  call void @_ZNSaIcED1Ev(ptr noundef nonnull align 1 dereferenceable(1) %113) #3, !dbg !4044
  br label %927, !dbg !4044

777:                                              ; preds = %775
  %778 = landingpad { ptr, i32 }
          cleanup, !dbg !3832
  %779 = extractvalue { ptr, i32 } %778, 0, !dbg !3832
  store ptr %779, ptr %6, align 8, !dbg !3832
  %780 = extractvalue { ptr, i32 } %778, 1, !dbg !3832
  store i32 %780, ptr %7, align 4, !dbg !3832
  call void @_ZNSaIcED1Ev(ptr noundef nonnull align 1 dereferenceable(1) %113) #3, !dbg !4044
  br label %928, !dbg !4044

781:                                              ; preds = %2
  call void @_ZNSaIcEC1Ev(ptr noundef nonnull align 1 dereferenceable(1) %114) #3, !dbg !4045
  invoke void @_ZNSt7__cxx1112basic_stringIcSt11char_traitsIcESaIcEEC2IS3_EEPKcRKS3_(ptr noundef nonnull align 8 dereferenceable(32) %0, ptr noundef @.str.166, ptr noundef nonnull align 1 dereferenceable(1) %114)
          to label %782 unwind label %783, !dbg !4045

782:                                              ; preds = %781
  call void @_ZNSaIcED1Ev(ptr noundef nonnull align 1 dereferenceable(1) %114) #3, !dbg !4046
  br label %927, !dbg !4046

783:                                              ; preds = %781
  %784 = landingpad { ptr, i32 }
          cleanup, !dbg !3832
  %785 = extractvalue { ptr, i32 } %784, 0, !dbg !3832
  store ptr %785, ptr %6, align 8, !dbg !3832
  %786 = extractvalue { ptr, i32 } %784, 1, !dbg !3832
  store i32 %786, ptr %7, align 4, !dbg !3832
  call void @_ZNSaIcED1Ev(ptr noundef nonnull align 1 dereferenceable(1) %114) #3, !dbg !4046
  br label %928, !dbg !4046

787:                                              ; preds = %2
  call void @_ZNSaIcEC1Ev(ptr noundef nonnull align 1 dereferenceable(1) %115) #3, !dbg !4047
