; ModuleID = 'tools/Tool.cpp'
source_filename = "tools/Tool.cpp"
target datalayout = "e-m:e-p270:32:32-p271:32:32-p272:64:64-i64:64-f80:128-n8:16:32:64-S128"
target triple = "x86_64-unknown-linux-gnu"

%"class.std::ios_base::Init" = type { i8 }
%"class.std::basic_ostream" = type { ptr, %"class.std::basic_ios" }
%"class.std::basic_ios" = type { %"class.std::ios_base", ptr, i8, i8, ptr, ptr, ptr, ptr }
%"class.std::ios_base" = type { ptr, i64, i64, i32, i32, i32, ptr, %"struct.std::ios_base::_Words", [8 x %"struct.std::ios_base::_Words"], i32, ptr, %"class.std::locale" }
%"struct.std::ios_base::_Words" = type { ptr, i64 }
%"class.std::locale" = type { ptr }
%"class.std::__cxx11::basic_string" = type { %"struct.std::__cxx11::basic_string<char>::_Alloc_hider", i64, %union.anon.35 }
%"struct.std::__cxx11::basic_string<char>::_Alloc_hider" = type { ptr }
%union.anon.35 = type { i64, [8 x i8] }
%"class.Poco::Net::IPAddress" = type { %"class.Poco::AutoPtr" }
%"class.Poco::AutoPtr" = type { ptr }
%"class.Poco::Net::Impl::IPv4SocketAddressImpl" = type { %"class.Poco::Net::Impl::SocketAddressImpl.base", %struct.sockaddr_in, [4 x i8] }
%"class.Poco::Net::Impl::SocketAddressImpl.base" = type { %"class.Poco::RefCountedObject.base" }
%"class.Poco::RefCountedObject.base" = type <{ ptr, %"class.Poco::AtomicCounter" }>
%"class.Poco::AtomicCounter" = type { %"struct.std::atomic" }
%"struct.std::atomic" = type { %"struct.std::__atomic_base" }
%"struct.std::__atomic_base" = type { i32 }
%struct.sockaddr_in = type { i16, i16, %struct.in_addr, [8 x i8] }
%struct.in_addr = type { i32 }
%"class.Poco::Net::Impl::IPv6SocketAddressImpl" = type { %"class.Poco::Net::Impl::SocketAddressImpl.base", %struct.sockaddr_in6 }
%struct.sockaddr_in6 = type { i16, i16, i32, %struct.in6_addr, i32 }
%struct.in6_addr = type { %union.anon }
%union.anon = type { [4 x i32] }
%"class.std::allocator.32" = type { i8 }
%class.Tool = type { %"class.Poco::Util::Application", i32, %"class.std::__cxx11::basic_string", %"class.std::__cxx11::basic_string", %"class.std::__cxx11::basic_string" }
%"class.Poco::Util::Application" = type { %"class.Poco::Util::Subsystem.base", %"class.Poco::AutoPtr.0", %"class.std::vector.26", i8, %"class.std::__cxx11::basic_string", %"class.std::vector.36", %"class.std::vector.36", %"class.Poco::Util::OptionSet", i8, ptr, %"class.Poco::Timestamp", i8, %"class.std::__cxx11::basic_string" }
%"class.Poco::Util::Subsystem.base" = type { %"class.Poco::RefCountedObject.base" }
%"class.Poco::AutoPtr.0" = type { ptr }
%"class.std::vector.26" = type { %"struct.std::_Vector_base.27" }
%"struct.std::_Vector_base.27" = type { %"struct.std::_Vector_base<Poco::AutoPtr<Poco::Util::Subsystem>, std::allocator<Poco::AutoPtr<Poco::Util::Subsystem>>>::_Vector_impl" }
%"struct.std::_Vector_base<Poco::AutoPtr<Poco::Util::Subsystem>, std::allocator<Poco::AutoPtr<Poco::Util::Subsystem>>>::_Vector_impl" = type { %"struct.std::_Vector_base<Poco::AutoPtr<Poco::Util::Subsystem>, std::allocator<Poco::AutoPtr<Poco::Util::Subsystem>>>::_Vector_impl_data" }
%"struct.std::_Vector_base<Poco::AutoPtr<Poco::Util::Subsystem>, std::allocator<Poco::AutoPtr<Poco::Util::Subsystem>>>::_Vector_impl_data" = type { ptr, ptr, ptr }
%"class.std::vector.36" = type { %"struct.std::_Vector_base.37" }
%"struct.std::_Vector_base.37" = type { %"struct.std::_Vector_base<std::__cxx11::basic_string<char>, std::allocator<std::__cxx11::basic_string<char>>>::_Vector_impl" }
%"struct.std::_Vector_base<std::__cxx11::basic_string<char>, std::allocator<std::__cxx11::basic_string<char>>>::_Vector_impl" = type { %"struct.std::_Vector_base<std::__cxx11::basic_string<char>, std::allocator<std::__cxx11::basic_string<char>>>::_Vector_impl_data" }
%"struct.std::_Vector_base<std::__cxx11::basic_string<char>, std::allocator<std::__cxx11::basic_string<char>>>::_Vector_impl_data" = type { ptr, ptr, ptr }
%"class.Poco::Util::OptionSet" = type { %"class.std::vector.41" }
%"class.std::vector.41" = type { %"struct.std::_Vector_base.42" }
%"struct.std::_Vector_base.42" = type { %"struct.std::_Vector_base<Poco::Util::Option, std::allocator<Poco::Util::Option>>::_Vector_impl" }
%"struct.std::_Vector_base<Poco::Util::Option, std::allocator<Poco::Util::Option>>::_Vector_impl" = type { %"struct.std::_Vector_base<Poco::Util::Option, std::allocator<Poco::Util::Option>>::_Vector_impl_data" }
%"struct.std::_Vector_base<Poco::Util::Option, std::allocator<Poco::Util::Option>>::_Vector_impl_data" = type { ptr, ptr, ptr }
%"class.Poco::Timestamp" = type { i64 }
%"struct.std::forward_iterator_tag" = type { i8 }
%"struct.std::random_access_iterator_tag" = type { i8 }
%"class.Poco::SharedPtr.48" = type { ptr, ptr }
%"class.Poco::SharedPtr.49" = type { ptr, ptr }
%"class.Poco::AutoPtr.50" = type { ptr }
%class.Worker = type { %"class.Poco::Runnable", ptr, %"class.std::vector.36" }
%"class.Poco::Runnable" = type { ptr }
%struct.ThreadData = type { ptr, ptr }
%"class.__gnu_cxx::__normal_iterator" = type { ptr }
%"class.__gnu_cxx::__normal_iterator.81" = type { ptr }
%"class.std::vector.82" = type { %"struct.std::_Vector_base.83" }
%"struct.std::_Vector_base.83" = type { %"struct.std::_Vector_base<unsigned long, std::allocator<unsigned long>>::_Vector_impl" }
%"struct.std::_Vector_base<unsigned long, std::allocator<unsigned long>>::_Vector_impl" = type { %"struct.std::_Vector_base<unsigned long, std::allocator<unsigned long>>::_Vector_impl_data" }
%"struct.std::_Vector_base<unsigned long, std::allocator<unsigned long>>::_Vector_impl_data" = type { ptr, ptr, ptr }
%"class.std::allocator.84" = type { i8 }
%"class.std::allocator.38" = type { i8 }
%"class.__gnu_cxx::__normal_iterator.87" = type { ptr }
%"class.Poco::AutoPtr.88" = type { ptr }
%struct._Save_errno = type { i32 }
%"struct.std::integral_constant" = type { i8 }
%"struct.std::is_same" = type { i8 }
%"class.Poco::URI" = type { %"class.std::__cxx11::basic_string", %"class.std::__cxx11::basic_string", %"class.std::__cxx11::basic_string", i16, %"class.std::__cxx11::basic_string", %"class.std::__cxx11::basic_string", %"class.std::__cxx11::basic_string" }
%"class.Poco::Net::HTTPRequest" = type { %"class.Poco::Net::HTTPMessage", %"class.std::__cxx11::basic_string", %"class.std::__cxx11::basic_string" }
%"class.Poco::Net::HTTPMessage" = type { %"class.Poco::Net::MessageHeader.base", %"class.std::__cxx11::basic_string" }
%"class.Poco::Net::MessageHeader.base" = type <{ %"class.Poco::Net::NameValueCollection", i32 }>
%"class.Poco::Net::NameValueCollection" = type { ptr, %"class.Poco::ListMap" }
%"class.Poco::ListMap" = type { %"class.std::vector.91" }
%"class.std::vector.91" = type { %"struct.std::_Vector_base.92" }
%"struct.std::_Vector_base.92" = type { %"struct.std::_Vector_base<std::pair<std::__cxx11::basic_string<char>, std::__cxx11::basic_string<char>>, std::allocator<std::pair<std::__cxx11::basic_string<char>, std::__cxx11::basic_string<char>>>>::_Vector_impl" }
%"struct.std::_Vector_base<std::pair<std::__cxx11::basic_string<char>, std::__cxx11::basic_string<char>>, std::allocator<std::pair<std::__cxx11::basic_string<char>, std::__cxx11::basic_string<char>>>>::_Vector_impl" = type { %"struct.std::_Vector_base<std::pair<std::__cxx11::basic_string<char>, std::__cxx11::basic_string<char>>, std::allocator<std::pair<std::__cxx11::basic_string<char>, std::__cxx11::basic_string<char>>>>::_Vector_impl_data" }
%"struct.std::_Vector_base<std::pair<std::__cxx11::basic_string<char>, std::__cxx11::basic_string<char>>, std::allocator<std::pair<std::__cxx11::basic_string<char>, std::__cxx11::basic_string<char>>>>::_Vector_impl_data" = type { ptr, ptr, ptr }
%"class.Poco::Net::HTMLForm" = type { %"class.Poco::Net::NameValueCollection", i32, i32, %"class.std::__cxx11::basic_string", %"class.std::__cxx11::basic_string", %"class.std::vector.103" }
%"class.std::vector.103" = type { %"struct.std::_Vector_base.104" }
%"struct.std::_Vector_base.104" = type { %"struct.std::_Vector_base<Poco::Net::HTMLForm::Part, std::allocator<Poco::Net::HTMLForm::Part>>::_Vector_impl" }
%"struct.std::_Vector_base<Poco::Net::HTMLForm::Part, std::allocator<Poco::Net::HTMLForm::Part>>::_Vector_impl" = type { %"struct.std::_Vector_base<Poco::Net::HTMLForm::Part, std::allocator<Poco::Net::HTMLForm::Part>>::_Vector_impl_data" }
%"struct.std::_Vector_base<Poco::Net::HTMLForm::Part, std::allocator<Poco::Net::HTMLForm::Part>>::_Vector_impl_data" = type { ptr, ptr, ptr }
%"class.Poco::Net::HTTPResponse" = type { %"class.Poco::Net::HTTPMessage", i32, %"class.std::__cxx11::basic_string" }
%"class.Poco::Path" = type <{ %"class.std::__cxx11::basic_string", %"class.std::__cxx11::basic_string", %"class.std::__cxx11::basic_string", %"class.std::__cxx11::basic_string", %"class.std::vector.36", i8, [7 x i8] }>
%"class.std::basic_ofstream" = type { %"class.std::basic_ostream.base", %"class.std::basic_filebuf", %"class.std::basic_ios" }
%"class.std::basic_ostream.base" = type { ptr }
%"class.std::basic_filebuf" = type { %"class.std::basic_streambuf", %union.pthread_mutex_t, %"class.std::__basic_file", i32, %struct.__mbstate_t, %struct.__mbstate_t, %struct.__mbstate_t, ptr, i64, i8, i8, i8, i8, ptr, ptr, i8, ptr, ptr, i64, ptr, ptr }
%"class.std::basic_streambuf" = type { ptr, ptr, ptr, ptr, ptr, ptr, ptr, %"class.std::locale" }
%union.pthread_mutex_t = type { %struct.__pthread_mutex_s }
%struct.__pthread_mutex_s = type { i32, i32, i32, i32, i32, i16, i16, %struct.__pthread_internal_list }
%struct.__pthread_internal_list = type { ptr, ptr }
%"class.std::__basic_file" = type <{ ptr, i8, [7 x i8] }>
%struct.__mbstate_t = type { i32, %union.anon.108 }
%union.anon.108 = type { i32 }
%"class.Poco::Exception" = type <{ %"class.std::exception", %"class.std::__cxx11::basic_string", ptr, i32, [4 x i8] }>
%"class.std::exception" = type { ptr }
%"class.Poco::ReferenceCounter" = type { %"class.Poco::AtomicCounter" }
%"class.Poco::RefCountedObject" = type <{ ptr, %"class.Poco::AtomicCounter", [4 x i8] }>

$_ZNK4Poco3Net4Impl21IPv4SocketAddressImpl4hostEv = comdat any

$_ZNK4Poco3Net4Impl21IPv6SocketAddressImpl4hostEv = comdat any

$_ZStplIcSt11char_traitsIcESaIcEENSt7__cxx1112basic_stringIT_T0_T1_EEPKS5_OS8_ = comdat any

$_ZNSt7__cxx119to_stringEi = comdat any

$_ZNSt7__cxx1112basic_stringIcSt11char_traitsIcESaIcEEC2IS3_EEPKcRKS3_ = comdat any

$_ZSteqIcSt11char_traitsIcESaIcEEbRKNSt7__cxx1112basic_stringIT_T0_T1_EEPKS5_ = comdat any

$_ZSt3maxIiERKT_S2_S2_ = comdat any

$_ZNSt7__cxx114stoiERKNS_12basic_stringIcSt11char_traitsIcESaIcEEEPmi = comdat any

$_ZN4Poco9SharedPtrINS_3Net27PrivateKeyPassphraseHandlerENS_16ReferenceCounterENS_13ReleasePolicyIS2_EEEC2EPS2_ = comdat any

$_ZN4Poco9SharedPtrINS_3Net25InvalidCertificateHandlerENS_16ReferenceCounterENS_13ReleasePolicyIS2_EEEC2EPS2_ = comdat any

$_ZN4Poco7AutoPtrINS_3Net7ContextEEC2EPS2_ = comdat any

$_ZN4Poco9SharedPtrINS_3Net27PrivateKeyPassphraseHandlerENS_16ReferenceCounterENS_13ReleasePolicyIS2_EEEC2ERKS6_ = comdat any

$_ZN4Poco9SharedPtrINS_3Net25InvalidCertificateHandlerENS_16ReferenceCounterENS_13ReleasePolicyIS2_EEEC2ERKS6_ = comdat any

$_ZN4Poco7AutoPtrINS_3Net7ContextEEC2ERKS3_ = comdat any

$_ZN4Poco7AutoPtrINS_3Net7ContextEED2Ev = comdat any

$_ZN4Poco9SharedPtrINS_3Net25InvalidCertificateHandlerENS_16ReferenceCounterENS_13ReleasePolicyIS2_EEED2Ev = comdat any

$_ZN4Poco9SharedPtrINS_3Net27PrivateKeyPassphraseHandlerENS_16ReferenceCounterENS_13ReleasePolicyIS2_EEED2Ev = comdat any

$_ZN6WorkerC2ER4ToolRKSt6vectorINSt7__cxx1112basic_stringIcSt11char_traitsIcESaIcEEESaIS8_EE = comdat any

$_ZN6Worker3runEv = comdat any

$_ZN6WorkerD2Ev = comdat any

$_ZNSt6vectorINSt7__cxx1112basic_stringIcSt11char_traitsIcESaIcEEESaIS5_EEC2ERKS7_ = comdat any

$_ZNKSt6vectorINSt7__cxx1112basic_stringIcSt11char_traitsIcESaIcEEESaIS5_EE4sizeEv = comdat any

$_ZNKSt6vectorINSt7__cxx1112basic_stringIcSt11char_traitsIcESaIcEEESaIS5_EEixEm = comdat any

$_ZNSt6vectorINSt7__cxx1112basic_stringIcSt11char_traitsIcESaIcEEESaIS5_EE5eraseEN9__gnu_cxx17__normal_iteratorIPKS5_S7_EE = comdat any

$_ZNSt6vectorINSt7__cxx1112basic_stringIcSt11char_traitsIcESaIcEEESaIS5_EE5beginEv = comdat any

$_ZN9__gnu_cxx17__normal_iteratorIPKNSt7__cxx1112basic_stringIcSt11char_traitsIcESaIcEEESt6vectorIS6_SaIS6_EEEC2IPS6_EERKNS0_IT_NS_11__enable_ifIXsr3std10__are_sameISF_SE_EE7__valueESB_E6__typeEEE = comdat any

$_ZNKSt6vectorINSt7__cxx1112basic_stringIcSt11char_traitsIcESaIcEEESaIS5_EE5emptyEv = comdat any

$_ZNSaImEC2Ev = comdat any

$_ZNSt6vectorImSaImEEC2EmRKS0_ = comdat any

$_ZNSaImED2Ev = comdat any

$_ZNSt6vectorImSaImEE7reserveEm = comdat any

$_ZSt3minImERKT_S2_S2_ = comdat any

$_ZNSaINSt7__cxx1112basic_stringIcSt11char_traitsIcESaIcEEEEC2Ev = comdat any

$_ZNSt6vectorINSt7__cxx1112basic_stringIcSt11char_traitsIcESaIcEEESaIS5_EEC2EmRKS6_ = comdat any

$_ZNSaINSt7__cxx1112basic_stringIcSt11char_traitsIcESaIcEEEED2Ev = comdat any

$_ZSt4copyIN9__gnu_cxx17__normal_iteratorIPNSt7__cxx1112basic_stringIcSt11char_traitsIcESaIcEEESt6vectorIS7_SaIS7_EEEESC_ET0_T_SE_SD_ = comdat any

$_ZNK9__gnu_cxx17__normal_iteratorIPNSt7__cxx1112basic_stringIcSt11char_traitsIcESaIcEEESt6vectorIS6_SaIS6_EEEplEl = comdat any

$_ZNSt6vectorImSaImEEixEm = comdat any

$_ZNSt6vectorINSt7__cxx1112basic_stringIcSt11char_traitsIcESaIcEEESaIS5_EED2Ev = comdat any

$_ZNSt6vectorImSaImEE5beginEv = comdat any

$_ZNSt6vectorImSaImEE3endEv = comdat any

$_ZN9__gnu_cxxneIPmSt6vectorImSaImEEEEbRKNS_17__normal_iteratorIT_T0_EESA_ = comdat any

$_ZNK9__gnu_cxx17__normal_iteratorIPmSt6vectorImSaImEEEdeEv = comdat any

$_ZN9__gnu_cxx17__normal_iteratorIPmSt6vectorImSaImEEEppEv = comdat any

$_ZNSt6vectorImSaImEED2Ev = comdat any

$_ZN4Poco7AutoPtrI4ToolEC2EPS1_ = comdat any

$_ZN4Poco7AutoPtrI4ToolEptEv = comdat any

$_ZNK4Poco4Util11Application6loggerEv = comdat any

$__clang_call_terminate = comdat any

$_ZN4Poco7AutoPtrI4ToolED2Ev = comdat any

$_ZN4Poco3Net4Impl21IPv4SocketAddressImplD2Ev = comdat any

$_ZN4Poco3Net4Impl21IPv4SocketAddressImplD0Ev = comdat any

$_ZNK4Poco3Net4Impl21IPv4SocketAddressImpl4portEv = comdat any

$_ZNK4Poco3Net4Impl21IPv4SocketAddressImpl6lengthEv = comdat any

$_ZNK4Poco3Net4Impl21IPv4SocketAddressImpl4addrEv = comdat any

$_ZNK4Poco3Net4Impl21IPv4SocketAddressImpl2afEv = comdat any

$_ZNK4Poco3Net4Impl21IPv4SocketAddressImpl6familyEv = comdat any

$_ZN4Poco3Net4Impl21IPv6SocketAddressImplD2Ev = comdat any

$_ZN4Poco3Net4Impl21IPv6SocketAddressImplD0Ev = comdat any

$_ZNK4Poco3Net4Impl21IPv6SocketAddressImpl4portEv = comdat any

$_ZNK4Poco3Net4Impl21IPv6SocketAddressImpl6lengthEv = comdat any

$_ZNK4Poco3Net4Impl21IPv6SocketAddressImpl4addrEv = comdat any

$_ZNK4Poco3Net4Impl21IPv6SocketAddressImpl2afEv = comdat any

$_ZNK4Poco3Net4Impl21IPv6SocketAddressImpl6familyEv = comdat any

$_ZN4ToolD2Ev = comdat any

$_ZN4ToolD0Ev = comdat any

$_ZNSt8__detail14__to_chars_lenIjEEjT_i = comdat any

$_ZNSt7__cxx1112basic_stringIcSt11char_traitsIcESaIcEEC2IS3_EEmcRKS3_ = comdat any

$_ZNSt8__detail18__to_chars_10_implIjEEvPcjT_ = comdat any

$_ZNSt7__cxx1112basic_stringIcSt11char_traitsIcESaIcEE12_Alloc_hiderD2Ev = comdat any

$_ZN9__gnu_cxx6__stoaIlicJiEEET0_PFT_PKT1_PPS3_DpT2_EPKcS5_PmS9_ = comdat any

$_ZZN9__gnu_cxx6__stoaIlicJiEEET0_PFT_PKT1_PPS3_DpT2_EPKcS5_PmS9_EN11_Save_errnoC2Ev = comdat any

$_ZZN9__gnu_cxx6__stoaIlicJiEEET0_PFT_PKT1_PPS3_DpT2_EPKcS5_PmS9_EN10_Range_chk6_S_chkElSt17integral_constantIbLb1EE = comdat any

$_ZZN9__gnu_cxx6__stoaIlicJiEEET0_PFT_PKT1_PPS3_DpT2_EPKcS5_PmS9_EN11_Save_errnoD2Ev = comdat any

$_ZN6WorkerD0Ev = comdat any

$_ZNSt6vectorINSt7__cxx1112basic_stringIcSt11char_traitsIcESaIcEEESaIS5_EE3endEv = comdat any

$_ZN9__gnu_cxxneIPNSt7__cxx1112basic_stringIcSt11char_traitsIcESaIcEEESt6vectorIS6_SaIS6_EEEEbRKNS_17__normal_iteratorIT_T0_EESG_ = comdat any

$_ZNK9__gnu_cxx17__normal_iteratorIPNSt7__cxx1112basic_stringIcSt11char_traitsIcESaIcEEESt6vectorIS6_SaIS6_EEEdeEv = comdat any

$_ZN6Worker11convertFileERKNSt7__cxx1112basic_stringIcSt11char_traitsIcESaIcEEE = comdat any

$_ZN9__gnu_cxx17__normal_iteratorIPNSt7__cxx1112basic_stringIcSt11char_traitsIcESaIcEEESt6vectorIS6_SaIS6_EEEppEv = comdat any

$_ZN9__gnu_cxx17__normal_iteratorIPNSt7__cxx1112basic_stringIcSt11char_traitsIcESaIcEEESt6vectorIS6_SaIS6_EEEC2ERKS7_ = comdat any

$_ZNK9__gnu_cxx17__normal_iteratorIPNSt7__cxx1112basic_stringIcSt11char_traitsIcESaIcEEESt6vectorIS6_SaIS6_EEE4baseEv = comdat any

$_ZNK4Tool12getServerURIB5cxx11Ev = comdat any

$_ZNK4Poco3URI7getHostB5cxx11Ev = comdat any

$_ZNK4Tool20getDestinationFormatB5cxx11Ev = comdat any

$_ZNK4Poco9Exception7messageB5cxx11Ev = comdat any

$_ZStplIcSt11char_traitsIcESaIcEENSt7__cxx1112basic_stringIT_T0_T1_EEOS8_RKS8_ = comdat any

$_ZStplIcSt11char_traitsIcESaIcEENSt7__cxx1112basic_stringIT_T0_T1_EEOS8_S5_ = comdat any

$_ZStplIcSt11char_traitsIcESaIcEENSt7__cxx1112basic_stringIT_T0_T1_EEOS8_S9_ = comdat any

$_ZStplIcSt11char_traitsIcESaIcEENSt7__cxx1112basic_stringIT_T0_T1_EERKS8_S5_ = comdat any

$_ZNK4Tool17getDestinationDirB5cxx11Ev = comdat any

$_ZNSt11char_traitsIcE6lengthEPKc = comdat any

$_ZNSt7__cxx1112basic_stringIcSt11char_traitsIcESaIcEE12_M_constructIPKcEEvT_S8_St20forward_iterator_tag = comdat any

$_ZN9__gnu_cxx11char_traitsIcE6lengthEPKc = comdat any

$_ZN9__gnu_cxx11char_traitsIcE2eqERKcS3_ = comdat any

$_ZN9__gnu_cxx17__is_null_pointerIKcEEbPT_ = comdat any

$_ZSt8distanceIPKcENSt15iterator_traitsIT_E15difference_typeES3_S3_ = comdat any

$_ZSt10__distanceIPKcENSt15iterator_traitsIT_E15difference_typeES3_S3_St26random_access_iterator_tag = comdat any

$_ZSt19__iterator_categoryIPKcENSt15iterator_traitsIT_E17iterator_categoryERKS3_ = comdat any

$_ZN4Poco16ReferenceCounter9duplicateEv = comdat any

$_ZN4Poco13AtomicCounterppEv = comdat any

$_ZNSt13__atomic_baseIiEppEv = comdat any

$_ZNK4Poco16RefCountedObject9duplicateEv = comdat any

$_ZN9__gnu_cxx13new_allocatorImED2Ev = comdat any

$_ZSt8_DestroyIPmmEvT_S1_RSaIT0_E = comdat any

$_ZNSt12_Vector_baseImSaImEE19_M_get_Tp_allocatorEv = comdat any

$_ZNSt12_Vector_baseImSaImEED2Ev = comdat any

$_ZSt8_DestroyIPmEvT_S1_ = comdat any

$_ZNSt12_Destroy_auxILb1EE9__destroyIPmEEvT_S3_ = comdat any

$_ZNSt12_Vector_baseImSaImEE13_M_deallocateEPmm = comdat any

$_ZNSt12_Vector_baseImSaImEE12_Vector_implD2Ev = comdat any

$_ZNSt16allocator_traitsISaImEE10deallocateERS0_Pmm = comdat any

$_ZN9__gnu_cxx13new_allocatorImE10deallocateEPmm = comdat any

$_ZN9__gnu_cxx13new_allocatorINSt7__cxx1112basic_stringIcSt11char_traitsIcESaIcEEEEC2Ev = comdat any

$_ZN9__gnu_cxx13new_allocatorINSt7__cxx1112basic_stringIcSt11char_traitsIcESaIcEEEED2Ev = comdat any

$_ZSt8_DestroyIPNSt7__cxx1112basic_stringIcSt11char_traitsIcESaIcEEES5_EvT_S7_RSaIT0_E = comdat any

$_ZNSt12_Vector_baseINSt7__cxx1112basic_stringIcSt11char_traitsIcESaIcEEESaIS5_EE19_M_get_Tp_allocatorEv = comdat any

$_ZNSt12_Vector_baseINSt7__cxx1112basic_stringIcSt11char_traitsIcESaIcEEESaIS5_EED2Ev = comdat any

$_ZSt8_DestroyIPNSt7__cxx1112basic_stringIcSt11char_traitsIcESaIcEEEEvT_S7_ = comdat any

$_ZNSt12_Destroy_auxILb0EE9__destroyIPNSt7__cxx1112basic_stringIcSt11char_traitsIcESaIcEEEEEvT_S9_ = comdat any

$_ZSt8_DestroyINSt7__cxx1112basic_stringIcSt11char_traitsIcESaIcEEEEvPT_ = comdat any

$_ZNSt12_Vector_baseINSt7__cxx1112basic_stringIcSt11char_traitsIcESaIcEEESaIS5_EE13_M_deallocateEPS5_m = comdat any

$_ZNSt12_Vector_baseINSt7__cxx1112basic_stringIcSt11char_traitsIcESaIcEEESaIS5_EE12_Vector_implD2Ev = comdat any

$_ZNSt16allocator_traitsISaINSt7__cxx1112basic_stringIcSt11char_traitsIcESaIcEEEEE10deallocateERS6_PS5_m = comdat any

$_ZN9__gnu_cxx13new_allocatorINSt7__cxx1112basic_stringIcSt11char_traitsIcESaIcEEEE10deallocateEPS6_m = comdat any

$_ZN9__gnu_cxx14__alloc_traitsISaINSt7__cxx1112basic_stringIcSt11char_traitsIcESaIcEEEES6_E17_S_select_on_copyERKS7_ = comdat any

$_ZNKSt12_Vector_baseINSt7__cxx1112basic_stringIcSt11char_traitsIcESaIcEEESaIS5_EE19_M_get_Tp_allocatorEv = comdat any

$_ZNSt12_Vector_baseINSt7__cxx1112basic_stringIcSt11char_traitsIcESaIcEEESaIS5_EEC2EmRKS6_ = comdat any

$_ZSt22__uninitialized_copy_aIN9__gnu_cxx17__normal_iteratorIPKNSt7__cxx1112basic_stringIcSt11char_traitsIcESaIcEEESt6vectorIS7_SaIS7_EEEEPS7_S7_ET0_T_SG_SF_RSaIT1_E = comdat any

$_ZNKSt6vectorINSt7__cxx1112basic_stringIcSt11char_traitsIcESaIcEEESaIS5_EE5beginEv = comdat any

$_ZNKSt6vectorINSt7__cxx1112basic_stringIcSt11char_traitsIcESaIcEEESaIS5_EE3endEv = comdat any

$_ZNSt16allocator_traitsISaINSt7__cxx1112basic_stringIcSt11char_traitsIcESaIcEEEEE37select_on_container_copy_constructionERKS6_ = comdat any

$_ZNSaINSt7__cxx1112basic_stringIcSt11char_traitsIcESaIcEEEEC2ERKS5_ = comdat any

$_ZN9__gnu_cxx13new_allocatorINSt7__cxx1112basic_stringIcSt11char_traitsIcESaIcEEEEC2ERKS7_ = comdat any

$_ZNSt12_Vector_baseINSt7__cxx1112basic_stringIcSt11char_traitsIcESaIcEEESaIS5_EE12_Vector_implC2ERKS6_ = comdat any

$_ZNSt12_Vector_baseINSt7__cxx1112basic_stringIcSt11char_traitsIcESaIcEEESaIS5_EE17_M_create_storageEm = comdat any

$_ZNSt12_Vector_baseINSt7__cxx1112basic_stringIcSt11char_traitsIcESaIcEEESaIS5_EE17_Vector_impl_dataC2Ev = comdat any

$_ZNSt12_Vector_baseINSt7__cxx1112basic_stringIcSt11char_traitsIcESaIcEEESaIS5_EE11_M_allocateEm = comdat any

$_ZNSt16allocator_traitsISaINSt7__cxx1112basic_stringIcSt11char_traitsIcESaIcEEEEE8allocateERS6_m = comdat any

$_ZN9__gnu_cxx13new_allocatorINSt7__cxx1112basic_stringIcSt11char_traitsIcESaIcEEEE8allocateEmPKv = comdat any

$_ZNK9__gnu_cxx13new_allocatorINSt7__cxx1112basic_stringIcSt11char_traitsIcESaIcEEEE11_M_max_sizeEv = comdat any

$_ZSt18uninitialized_copyIN9__gnu_cxx17__normal_iteratorIPKNSt7__cxx1112basic_stringIcSt11char_traitsIcESaIcEEESt6vectorIS7_SaIS7_EEEEPS7_ET0_T_SG_SF_ = comdat any

$_ZNSt20__uninitialized_copyILb0EE13__uninit_copyIN9__gnu_cxx17__normal_iteratorIPKNSt7__cxx1112basic_stringIcSt11char_traitsIcESaIcEEESt6vectorIS9_SaIS9_EEEEPS9_EET0_T_SI_SH_ = comdat any

$_ZN9__gnu_cxxneIPKNSt7__cxx1112basic_stringIcSt11char_traitsIcESaIcEEESt6vectorIS6_SaIS6_EEEEbRKNS_17__normal_iteratorIT_T0_EESH_ = comdat any

$_ZSt10_ConstructINSt7__cxx1112basic_stringIcSt11char_traitsIcESaIcEEEJRKS5_EEvPT_DpOT0_ = comdat any

$_ZNK9__gnu_cxx17__normal_iteratorIPKNSt7__cxx1112basic_stringIcSt11char_traitsIcESaIcEEESt6vectorIS6_SaIS6_EEEdeEv = comdat any

$_ZN9__gnu_cxx17__normal_iteratorIPKNSt7__cxx1112basic_stringIcSt11char_traitsIcESaIcEEESt6vectorIS6_SaIS6_EEEppEv = comdat any

$_ZNK9__gnu_cxx17__normal_iteratorIPKNSt7__cxx1112basic_stringIcSt11char_traitsIcESaIcEEESt6vectorIS6_SaIS6_EEE4baseEv = comdat any

$_ZN9__gnu_cxx17__normal_iteratorIPKNSt7__cxx1112basic_stringIcSt11char_traitsIcESaIcEEESt6vectorIS6_SaIS6_EEEC2ERKS8_ = comdat any

$_ZN4Poco16ReferenceCounterC2Ev = comdat any

$_ZN4Poco13ReleasePolicyINS_3Net27PrivateKeyPassphraseHandlerEE7releaseEPS2_ = comdat any

$_ZN4Poco9SharedPtrINS_3Net27PrivateKeyPassphraseHandlerENS_16ReferenceCounterENS_13ReleasePolicyIS2_EEE7releaseEv = comdat any

$_ZN4Poco16ReferenceCounter7releaseEv = comdat any

$_ZN4Poco16ReferenceCounterD2Ev = comdat any

$_ZN4Poco13AtomicCountermmEv = comdat any

$_ZNSt13__atomic_baseIiEmmEv = comdat any

$_ZN4Poco13ReleasePolicyINS_3Net25InvalidCertificateHandlerEE7releaseEPS2_ = comdat any

$_ZN4Poco9SharedPtrINS_3Net25InvalidCertificateHandlerENS_16ReferenceCounterENS_13ReleasePolicyIS2_EEE7releaseEv = comdat any

$_ZNK4Poco16RefCountedObject7releaseEv = comdat any

$_ZNSt6vectorINSt7__cxx1112basic_stringIcSt11char_traitsIcESaIcEEESaIS5_EE8_M_eraseEN9__gnu_cxx17__normal_iteratorIPS5_S7_EE = comdat any

$_ZN9__gnu_cxxmiIPKNSt7__cxx1112basic_stringIcSt11char_traitsIcESaIcEEESt6vectorIS6_SaIS6_EEEENS_17__normal_iteratorIT_T0_E15difference_typeERKSF_SI_ = comdat any

$_ZNKSt6vectorINSt7__cxx1112basic_stringIcSt11char_traitsIcESaIcEEESaIS5_EE6cbeginEv = comdat any

$_ZSt4moveIN9__gnu_cxx17__normal_iteratorIPNSt7__cxx1112basic_stringIcSt11char_traitsIcESaIcEEESt6vectorIS7_SaIS7_EEEESC_ET0_T_SE_SD_ = comdat any

$_ZNSt16allocator_traitsISaINSt7__cxx1112basic_stringIcSt11char_traitsIcESaIcEEEEE7destroyIS5_EEvRS6_PT_ = comdat any

$_ZSt13__copy_move_aILb1EN9__gnu_cxx17__normal_iteratorIPNSt7__cxx1112basic_stringIcSt11char_traitsIcESaIcEEESt6vectorIS7_SaIS7_EEEESC_ET1_T0_SE_SD_ = comdat any

$_ZSt12__miter_baseIN9__gnu_cxx17__normal_iteratorIPNSt7__cxx1112basic_stringIcSt11char_traitsIcESaIcEEESt6vectorIS7_SaIS7_EEEEET_SD_ = comdat any

$_ZSt12__niter_wrapIN9__gnu_cxx17__normal_iteratorIPNSt7__cxx1112basic_stringIcSt11char_traitsIcESaIcEEESt6vectorIS7_SaIS7_EEEES8_ET_SD_T0_ = comdat any

$_ZSt14__copy_move_a1ILb1EPNSt7__cxx1112basic_stringIcSt11char_traitsIcESaIcEEES6_ET1_T0_S8_S7_ = comdat any

$_ZSt12__niter_baseIPNSt7__cxx1112basic_stringIcSt11char_traitsIcESaIcEEESt6vectorIS5_SaIS5_EEET_N9__gnu_cxx17__normal_iteratorISA_T0_EE = comdat any

$_ZSt14__copy_move_a2ILb1EPNSt7__cxx1112basic_stringIcSt11char_traitsIcESaIcEEES6_ET1_T0_S8_S7_ = comdat any

$_ZNSt11__copy_moveILb1ELb0ESt26random_access_iterator_tagE8__copy_mIPNSt7__cxx1112basic_stringIcSt11char_traitsIcESaIcEEES9_EET0_T_SB_SA_ = comdat any

$_ZN9__gnu_cxx13new_allocatorINSt7__cxx1112basic_stringIcSt11char_traitsIcESaIcEEEE7destroyIS6_EEvPT_ = comdat any

$_ZN9__gnu_cxxeqIPKNSt7__cxx1112basic_stringIcSt11char_traitsIcESaIcEEESt6vectorIS6_SaIS6_EEEEbRKNS_17__normal_iteratorIT_T0_EESH_ = comdat any

$_ZN9__gnu_cxx13new_allocatorImEC2Ev = comdat any

$_ZNSt6vectorImSaImEE17_S_check_init_lenEmRKS0_ = comdat any

$_ZNSt12_Vector_baseImSaImEEC2EmRKS0_ = comdat any

$_ZNSt6vectorImSaImEE21_M_default_initializeEm = comdat any

$_ZNSt6vectorImSaImEE11_S_max_sizeERKS0_ = comdat any

$_ZNSaImEC2ERKS_ = comdat any

$_ZNSt16allocator_traitsISaImEE8max_sizeERKS0_ = comdat any

$_ZNK9__gnu_cxx13new_allocatorImE8max_sizeEv = comdat any

$_ZNK9__gnu_cxx13new_allocatorImE11_M_max_sizeEv = comdat any

$_ZN9__gnu_cxx13new_allocatorImEC2ERKS1_ = comdat any

$_ZNSt12_Vector_baseImSaImEE12_Vector_implC2ERKS0_ = comdat any

$_ZNSt12_Vector_baseImSaImEE17_M_create_storageEm = comdat any

$_ZNSt12_Vector_baseImSaImEE17_Vector_impl_dataC2Ev = comdat any

$_ZNSt12_Vector_baseImSaImEE11_M_allocateEm = comdat any

$_ZNSt16allocator_traitsISaImEE8allocateERS0_m = comdat any

$_ZN9__gnu_cxx13new_allocatorImE8allocateEmPKv = comdat any

$_ZSt27__uninitialized_default_n_aIPmmmET_S1_T0_RSaIT1_E = comdat any

$_ZSt25__uninitialized_default_nIPmmET_S1_T0_ = comdat any

$_ZNSt27__uninitialized_default_n_1ILb1EE18__uninit_default_nIPmmEET_S3_T0_ = comdat any

$_ZSt10_ConstructImJEEvPT_DpOT0_ = comdat any

$_ZSt6fill_nIPmmmET_S1_T0_RKT1_ = comdat any

$_ZSt10__fill_n_aIPmmmET_S1_T0_RKT1_St26random_access_iterator_tag = comdat any

$_ZSt17__size_to_integerm = comdat any

$_ZSt19__iterator_categoryIPmENSt15iterator_traitsIT_E17iterator_categoryERKS2_ = comdat any

$_ZSt8__fill_aIPmmEvT_S1_RKT0_ = comdat any

$_ZSt9__fill_a1IPmmEN9__gnu_cxx11__enable_ifIXsr11__is_scalarIT0_EE7__valueEvE6__typeET_S6_RKS3_ = comdat any

$_ZNKSt6vectorImSaImEE8max_sizeEv = comdat any

$_ZNKSt6vectorImSaImEE8capacityEv = comdat any

$_ZNKSt6vectorImSaImEE4sizeEv = comdat any

$_ZNSt6vectorImSaImEE11_S_relocateEPmS2_S2_RS0_ = comdat any

$_ZNKSt12_Vector_baseImSaImEE19_M_get_Tp_allocatorEv = comdat any

$_ZNSt6vectorImSaImEE14_S_do_relocateEPmS2_S2_RS0_St17integral_constantIbLb1EE = comdat any

$_ZSt12__relocate_aIPmS0_SaImEET0_T_S3_S2_RT1_ = comdat any

$_ZSt14__relocate_a_1ImmENSt9enable_ifIXsr3std24__is_bitwise_relocatableIT_EE5valueEPS1_E4typeES2_S2_S2_RSaIT0_E = comdat any

$_ZSt12__niter_baseIPmET_S1_ = comdat any

$_ZNSt6vectorINSt7__cxx1112basic_stringIcSt11char_traitsIcESaIcEEESaIS5_EE17_S_check_init_lenEmRKS6_ = comdat any

$_ZNSt6vectorINSt7__cxx1112basic_stringIcSt11char_traitsIcESaIcEEESaIS5_EE21_M_default_initializeEm = comdat any

$_ZNSt6vectorINSt7__cxx1112basic_stringIcSt11char_traitsIcESaIcEEESaIS5_EE11_S_max_sizeERKS6_ = comdat any

$_ZNSt16allocator_traitsISaINSt7__cxx1112basic_stringIcSt11char_traitsIcESaIcEEEEE8max_sizeERKS6_ = comdat any

$_ZNK9__gnu_cxx13new_allocatorINSt7__cxx1112basic_stringIcSt11char_traitsIcESaIcEEEE8max_sizeEv = comdat any

$_ZSt27__uninitialized_default_n_aIPNSt7__cxx1112basic_stringIcSt11char_traitsIcESaIcEEEmS5_ET_S7_T0_RSaIT1_E = comdat any

$_ZSt25__uninitialized_default_nIPNSt7__cxx1112basic_stringIcSt11char_traitsIcESaIcEEEmET_S7_T0_ = comdat any

$_ZNSt27__uninitialized_default_n_1ILb0EE18__uninit_default_nIPNSt7__cxx1112basic_stringIcSt11char_traitsIcESaIcEEEmEET_S9_T0_ = comdat any

$_ZSt10_ConstructINSt7__cxx1112basic_stringIcSt11char_traitsIcESaIcEEEJEEvPT_DpOT0_ = comdat any

$_ZSt13__copy_move_aILb0EN9__gnu_cxx17__normal_iteratorIPNSt7__cxx1112basic_stringIcSt11char_traitsIcESaIcEEESt6vectorIS7_SaIS7_EEEESC_ET1_T0_SE_SD_ = comdat any

$_ZSt14__copy_move_a1ILb0EPNSt7__cxx1112basic_stringIcSt11char_traitsIcESaIcEEES6_ET1_T0_S8_S7_ = comdat any

$_ZSt14__copy_move_a2ILb0EPNSt7__cxx1112basic_stringIcSt11char_traitsIcESaIcEEES6_ET1_T0_S8_S7_ = comdat any

$_ZNSt11__copy_moveILb0ELb0ESt26random_access_iterator_tagE8__copy_mIPNSt7__cxx1112basic_stringIcSt11char_traitsIcESaIcEEES9_EET0_T_SB_SA_ = comdat any

$_ZN9__gnu_cxx17__normal_iteratorIPmSt6vectorImSaImEEEC2ERKS1_ = comdat any

$_ZNK9__gnu_cxx17__normal_iteratorIPmSt6vectorImSaImEEE4baseEv = comdat any

$_ZTVN4Poco3Net4Impl21IPv4SocketAddressImplE = comdat any

$_ZTSN4Poco3Net4Impl21IPv4SocketAddressImplE = comdat any

$_ZTIN4Poco3Net4Impl21IPv4SocketAddressImplE = comdat any

$_ZTVN4Poco3Net4Impl21IPv6SocketAddressImplE = comdat any

$_ZTSN4Poco3Net4Impl21IPv6SocketAddressImplE = comdat any

$_ZTIN4Poco3Net4Impl21IPv6SocketAddressImplE = comdat any

$_ZZNSt8__detail18__to_chars_10_implIjEEvPcjT_E8__digits = comdat any

$_ZTV6Worker = comdat any

$_ZTS6Worker = comdat any

$_ZTI6Worker = comdat any

@_ZStL8__ioinit = internal global %"class.std::ios_base::Init" zeroinitializer, align 1, !dbg !0
@__dso_handle = external hidden global i8
@_ZTV4Tool = dso_local unnamed_addr constant { [12 x ptr] } { [12 x ptr] [ptr null, ptr @_ZTI4Tool, ptr @_ZN4ToolD2Ev, ptr @_ZN4ToolD0Ev, ptr @_ZNK4Poco4Util11Application4nameEv, ptr @_ZN4Poco4Util11Application10initializeERS1_, ptr @_ZN4Poco4Util11Application12uninitializeEv, ptr @_ZN4Poco4Util11Application12reinitializeERS1_, ptr @_ZN4Tool13defineOptionsERN4Poco4Util9OptionSetE, ptr @_ZN4Poco4Util11Application3runEv, ptr @_ZN4Tool12handleOptionERKNSt7__cxx1112basic_stringIcSt11char_traitsIcESaIcEEES7_, ptr @_ZN4Tool4mainERKSt6vectorINSt7__cxx1112basic_stringIcSt11char_traitsIcESaIcEEESaIS6_EE] }, align 8
@.str = private unnamed_addr constant [19 x i8] c"https://127.0.0.1:\00", align 1, !dbg !7
@.str.1 = private unnamed_addr constant [4 x i8] c"txt\00", align 1, !dbg !15
@_ZSt4cout = external global %"class.std::basic_ostream", align 8
@.str.2 = private unnamed_addr constant [43 x i8] c"Collabora Online document converter tool.\0A\00", align 1, !dbg !20
@.str.3 = private unnamed_addr constant [8 x i8] c"Usage: \00", align 1, !dbg !25
@.str.4 = private unnamed_addr constant [20 x i8] c" [options] file...\0A\00", align 1, !dbg !30
@.str.5 = private unnamed_addr constant [14 x i8] c"Options are:\0A\00", align 1, !dbg !35
@.str.6 = private unnamed_addr constant [46 x i8] c"  --help                      Show this text\0A\00", align 1, !dbg !40
@.str.7 = private unnamed_addr constant [57 x i8] c"  --extension=format          File format to convert to\0A\00", align 1, !dbg !45
@.str.8 = private unnamed_addr constant [68 x i8] c"  --outdir=directory          Output directory for converted files\0A\00", align 1, !dbg !50
@.str.9 = private unnamed_addr constant [69 x i8] c"  --parallelism=threads       Number of simultaneous threads to use\0A\00", align 1, !dbg !55
@.str.10 = private unnamed_addr constant [50 x i8] c"  --server=uri                URI of COOL server\0A\00", align 1, !dbg !60
@.str.11 = private unnamed_addr constant [67 x i8] c"  --no-check-certificate      Disable checking of SSL certificate\0A\00", align 1, !dbg !65
@.str.12 = private unnamed_addr constant [80 x i8] c"In addition, the options taken by the libreoffice command for its --convert-to\0A\00", align 1, !dbg !70
@.str.13 = private unnamed_addr constant [75 x i8] c"functionality can be used (but are ignored if irrelevant to this command).\00", align 1, !dbg !75
@.str.14 = private unnamed_addr constant [5 x i8] c"help\00", align 1, !dbg !80
@.str.15 = private unnamed_addr constant [10 x i8] c"extension\00", align 1, !dbg !85
@.str.16 = private unnamed_addr constant [11 x i8] c"convert-to\00", align 1, !dbg !90
@.str.17 = private unnamed_addr constant [7 x i8] c"outdir\00", align 1, !dbg !95
@.str.18 = private unnamed_addr constant [12 x i8] c"parallelism\00", align 1, !dbg !100
@.str.19 = private unnamed_addr constant [7 x i8] c"server\00", align 1, !dbg !105
@.str.20 = private unnamed_addr constant [21 x i8] c"no-check-certificate\00", align 1, !dbg !107
@.str.21 = private unnamed_addr constant [1 x i8] zeroinitializer, align 1, !dbg !112
@.str.22 = private unnamed_addr constant [34 x i8] c"ALL:!ADH:!LOW:!EXP:!MD5:@STRENGTH\00", align 1, !dbg !117
@_ZSt4cerr = external global %"class.std::basic_ostream", align 8
@.str.23 = private unnamed_addr constant [15 x i8] c"Nothing to do.\00", align 1, !dbg !123
@.str.24 = private unnamed_addr constant [33 x i8] c"Error: Unable to create thread, \00", align 1, !dbg !128
@_ZTIN4Poco9ExceptionE = external constant ptr
@_ZTVN4Poco3Net4Impl21IPv4SocketAddressImplE = linkonce_odr dso_local unnamed_addr constant { [11 x ptr] } { [11 x ptr] [ptr null, ptr @_ZTIN4Poco3Net4Impl21IPv4SocketAddressImplE, ptr @_ZN4Poco3Net4Impl21IPv4SocketAddressImplD2Ev, ptr @_ZN4Poco3Net4Impl21IPv4SocketAddressImplD0Ev, ptr @_ZNK4Poco3Net4Impl21IPv4SocketAddressImpl4hostEv, ptr @_ZNK4Poco3Net4Impl21IPv4SocketAddressImpl4portEv, ptr @_ZNK4Poco3Net4Impl21IPv4SocketAddressImpl6lengthEv, ptr @_ZNK4Poco3Net4Impl21IPv4SocketAddressImpl4addrEv, ptr @_ZNK4Poco3Net4Impl21IPv4SocketAddressImpl2afEv, ptr @_ZNK4Poco3Net4Impl21IPv4SocketAddressImpl6familyEv, ptr @_ZNK4Poco3Net4Impl21IPv4SocketAddressImpl8toStringB5cxx11Ev] }, comdat, align 8
@_ZTVN10__cxxabiv120__si_class_type_infoE = external global ptr
@_ZTSN4Poco3Net4Impl21IPv4SocketAddressImplE = linkonce_odr dso_local constant [40 x i8] c"N4Poco3Net4Impl21IPv4SocketAddressImplE\00", comdat, align 1
@_ZTIN4Poco3Net4Impl17SocketAddressImplE = external constant ptr
@_ZTIN4Poco3Net4Impl21IPv4SocketAddressImplE = linkonce_odr dso_local constant { ptr, ptr, ptr } { ptr getelementptr inbounds (ptr, ptr @_ZTVN10__cxxabiv120__si_class_type_infoE, i64 2), ptr @_ZTSN4Poco3Net4Impl21IPv4SocketAddressImplE, ptr @_ZTIN4Poco3Net4Impl17SocketAddressImplE }, comdat, align 8
@_ZTVN4Poco3Net4Impl21IPv6SocketAddressImplE = linkonce_odr dso_local unnamed_addr constant { [11 x ptr] } { [11 x ptr] [ptr null, ptr @_ZTIN4Poco3Net4Impl21IPv6SocketAddressImplE, ptr @_ZN4Poco3Net4Impl21IPv6SocketAddressImplD2Ev, ptr @_ZN4Poco3Net4Impl21IPv6SocketAddressImplD0Ev, ptr @_ZNK4Poco3Net4Impl21IPv6SocketAddressImpl4hostEv, ptr @_ZNK4Poco3Net4Impl21IPv6SocketAddressImpl4portEv, ptr @_ZNK4Poco3Net4Impl21IPv6SocketAddressImpl6lengthEv, ptr @_ZNK4Poco3Net4Impl21IPv6SocketAddressImpl4addrEv, ptr @_ZNK4Poco3Net4Impl21IPv6SocketAddressImpl2afEv, ptr @_ZNK4Poco3Net4Impl21IPv6SocketAddressImpl6familyEv, ptr @_ZNK4Poco3Net4Impl21IPv6SocketAddressImpl8toStringB5cxx11Ev] }, comdat, align 8
@_ZTSN4Poco3Net4Impl21IPv6SocketAddressImplE = linkonce_odr dso_local constant [40 x i8] c"N4Poco3Net4Impl21IPv6SocketAddressImplE\00", comdat, align 1
@_ZTIN4Poco3Net4Impl21IPv6SocketAddressImplE = linkonce_odr dso_local constant { ptr, ptr, ptr } { ptr getelementptr inbounds (ptr, ptr @_ZTVN10__cxxabiv120__si_class_type_infoE, i64 2), ptr @_ZTSN4Poco3Net4Impl21IPv6SocketAddressImplE, ptr @_ZTIN4Poco3Net4Impl17SocketAddressImplE }, comdat, align 8
@_ZTS4Tool = dso_local constant [6 x i8] c"4Tool\00", align 1
@_ZTIN4Poco4Util11ApplicationE = external constant ptr
@_ZTI4Tool = dso_local constant { ptr, ptr, ptr } { ptr getelementptr inbounds (ptr, ptr @_ZTVN10__cxxabiv120__si_class_type_infoE, i64 2), ptr @_ZTS4Tool, ptr @_ZTIN4Poco4Util11ApplicationE }, align 8
@_ZZNSt8__detail18__to_chars_10_implIjEEvPcjT_E8__digits = linkonce_odr dso_local constant [201 x i8] c"00010203040506070809101112131415161718192021222324252627282930313233343536373839404142434445464748495051525354555657585960616263646566676869707172737475767778798081828384858687888990919293949596979899\00", comdat, align 16, !dbg !133
@.str.25 = private unnamed_addr constant [5 x i8] c"stoi\00", align 1, !dbg !2943
@_ZTV6Worker = linkonce_odr dso_local unnamed_addr constant { [5 x ptr] } { [5 x ptr] [ptr null, ptr @_ZTI6Worker, ptr @_ZN6WorkerD2Ev, ptr @_ZN6WorkerD0Ev, ptr @_ZN6Worker3runEv] }, comdat, align 8
@_ZTS6Worker = linkonce_odr dso_local constant [8 x i8] c"6Worker\00", comdat, align 1
@_ZTIN4Poco8RunnableE = external constant ptr
@_ZTI6Worker = linkonce_odr dso_local constant { ptr, ptr, ptr } { ptr getelementptr inbounds (ptr, ptr @_ZTVN10__cxxabiv120__si_class_type_infoE, i64 2), ptr @_ZTS6Worker, ptr @_ZTIN4Poco8RunnableE }, comdat, align 8
@.str.26 = private unnamed_addr constant [6 x i8] c"https\00", align 1, !dbg !2945
@_ZN4Poco3Net11HTTPRequest9HTTP_POSTB5cxx11E = external global %"class.std::__cxx11::basic_string", align 8
@.str.27 = private unnamed_addr constant [17 x i8] c"/cool/convert-to\00", align 1, !dbg !2950
@_ZN4Poco3Net8HTMLForm18ENCODING_MULTIPARTB5cxx11E = external global %"class.std::__cxx11::basic_string", align 8
@.str.28 = private unnamed_addr constant [7 x i8] c"format\00", align 1, !dbg !2955
@.str.29 = private unnamed_addr constant [5 x i8] c"data\00", align 1, !dbg !2957
@.str.30 = private unnamed_addr constant [23 x i8] c"Failed to write data: \00", align 1, !dbg !2959
@.str.31 = private unnamed_addr constant [23 x i8] c"Exception converting: \00", align 1, !dbg !2964
@.str.32 = private unnamed_addr constant [9 x i8] c"_pLogger\00", align 1, !dbg !2966
@.str.33 = private unnamed_addr constant [37 x i8] c"/usr/include/Poco/Util/Application.h\00", align 1, !dbg !2971
@.str.34 = private unnamed_addr constant [42 x i8] c"basic_string::_M_construct null not valid\00", align 1, !dbg !2976
@.str.35 = private unnamed_addr constant [49 x i8] c"cannot create std::vector larger than max_size()\00", align 1, !dbg !2981
@.str.36 = private unnamed_addr constant [16 x i8] c"vector::reserve\00", align 1, !dbg !2986
@_ZTIN4Poco20NullPointerExceptionE = external constant ptr
@llvm.global_ctors = appending global [1 x { i32, ptr, ptr }] [{ i32, ptr, ptr } { i32 65535, ptr @_GLOBAL__sub_I_Tool.cpp, ptr null }]

@_ZN4ToolC1Ev = dso_local unnamed_addr alias void (ptr), ptr @_ZN4ToolC2Ev

; Function Attrs: noinline uwtable
define internal void @__cxx_global_var_init() #0 section ".text.startup" !dbg !4079 {
  call void @_ZNSt8ios_base4InitC1Ev(ptr noundef nonnull align 1 dereferenceable(1) @_ZStL8__ioinit), !dbg !4080
  %1 = call i32 @__cxa_atexit(ptr @_ZNSt8ios_base4InitD1Ev, ptr @_ZStL8__ioinit, ptr @__dso_handle) #3, !dbg !4082
  ret void, !dbg !4080
}

declare void @_ZNSt8ios_base4InitC1Ev(ptr noundef nonnull align 1 dereferenceable(1)) unnamed_addr #1

; Function Attrs: nounwind
declare void @_ZNSt8ios_base4InitD1Ev(ptr noundef nonnull align 1 dereferenceable(1)) unnamed_addr #2

; Function Attrs: nounwind
declare i32 @__cxa_atexit(ptr, ptr, ptr) #3

; Function Attrs: mustprogress noinline optnone uwtable
define linkonce_odr dso_local void @_ZNK4Poco3Net4Impl21IPv4SocketAddressImpl4hostEv(ptr noalias sret(%"class.Poco::Net::IPAddress") align 8 %0, ptr noundef nonnull align 8 dereferenceable(28) %1) unnamed_addr #4 comdat align 2 !dbg !4083 {
  %3 = alloca ptr, align 8
  %4 = alloca ptr, align 8
  store ptr %0, ptr %3, align 8
  store ptr %1, ptr %4, align 8
  call void @llvm.dbg.declare(metadata ptr %4, metadata !4146, metadata !DIExpression()), !dbg !4148
  %5 = load ptr, ptr %4, align 8
  %6 = getelementptr inbounds %"class.Poco::Net::Impl::IPv4SocketAddressImpl", ptr %5, i32 0, i32 1, !dbg !4149
  %7 = getelementptr inbounds %struct.sockaddr_in, ptr %6, i32 0, i32 2, !dbg !4150
  call void @_ZN4Poco3Net9IPAddressC1EPKvj(ptr noundef nonnull align 8 dereferenceable(8) %0, ptr noundef %7, i32 noundef 4), !dbg !4151
  ret void, !dbg !4152
}

; Function Attrs: nocallback nofree nosync nounwind speculatable willreturn memory(none)
declare void @llvm.dbg.declare(metadata, metadata, metadata) #5

declare void @_ZN4Poco3Net9IPAddressC1EPKvj(ptr noundef nonnull align 8 dereferenceable(8), ptr noundef, i32 noundef) unnamed_addr #1

; Function Attrs: mustprogress noinline optnone uwtable
define linkonce_odr dso_local void @_ZNK4Poco3Net4Impl21IPv6SocketAddressImpl4hostEv(ptr noalias sret(%"class.Poco::Net::IPAddress") align 8 %0, ptr noundef nonnull align 8 dereferenceable(40) %1) unnamed_addr #4 comdat align 2 !dbg !4153 {
  %3 = alloca ptr, align 8
  %4 = alloca ptr, align 8
  store ptr %0, ptr %3, align 8
  store ptr %1, ptr %4, align 8
  call void @llvm.dbg.declare(metadata ptr %4, metadata !4212, metadata !DIExpression()), !dbg !4214
  %5 = load ptr, ptr %4, align 8
  %6 = getelementptr inbounds %"class.Poco::Net::Impl::IPv6SocketAddressImpl", ptr %5, i32 0, i32 1, !dbg !4215
  %7 = getelementptr inbounds %struct.sockaddr_in6, ptr %6, i32 0, i32 3, !dbg !4216
  %8 = getelementptr inbounds %"class.Poco::Net::Impl::IPv6SocketAddressImpl", ptr %5, i32 0, i32 1, !dbg !4217
  %9 = getelementptr inbounds %struct.sockaddr_in6, ptr %8, i32 0, i32 4, !dbg !4218
  %10 = load i32, ptr %9, align 4, !dbg !4218
  call void @_ZN4Poco3Net9IPAddressC1EPKvjj(ptr noundef nonnull align 8 dereferenceable(8) %0, ptr noundef %7, i32 noundef 16, i32 noundef %10), !dbg !4219
  ret void, !dbg !4220
}

declare void @_ZN4Poco3Net9IPAddressC1EPKvjj(ptr noundef nonnull align 8 dereferenceable(8), ptr noundef, i32 noundef, i32 noundef) unnamed_addr #1

; Function Attrs: noinline optnone uwtable
define dso_local void @_ZN4ToolC2Ev(ptr noundef nonnull align 8 dereferenceable(328) %0) unnamed_addr #6 align 2 personality ptr @__gxx_personality_v0 !dbg !4221 {
  %2 = alloca ptr, align 8
  %3 = alloca %"class.std::__cxx11::basic_string", align 8
  %4 = alloca ptr, align 8
  %5 = alloca i32, align 4
  %6 = alloca %"class.std::allocator.32", align 1
  store ptr %0, ptr %2, align 8
  call void @llvm.dbg.declare(metadata ptr %2, metadata !4222, metadata !DIExpression()), !dbg !4223
  %7 = load ptr, ptr %2, align 8
  call void @_ZN4Poco4Util11ApplicationC2Ev(ptr noundef nonnull align 8 dereferenceable(224) %7), !dbg !4224
  store ptr getelementptr inbounds ({ [12 x ptr] }, ptr @_ZTV4Tool, i32 0, inrange i32 0, i32 2), ptr %7, align 8, !dbg !4225
  %8 = getelementptr inbounds %class.Tool, ptr %7, i32 0, i32 1, !dbg !4226
  store i32 4, ptr %8, align 8, !dbg !4226
  %9 = getelementptr inbounds %class.Tool, ptr %7, i32 0, i32 2, !dbg !4227
  invoke void @_ZNSt7__cxx119to_stringEi(ptr sret(%"class.std::__cxx11::basic_string") align 8 %3, i32 noundef 9980)
          to label %10 unwind label %15, !dbg !4228

10:                                               ; preds = %1
  invoke void @_ZStplIcSt11char_traitsIcESaIcEENSt7__cxx1112basic_stringIT_T0_T1_EEPKS5_OS8_(ptr sret(%"class.std::__cxx11::basic_string") align 8 %9, ptr noundef @.str, ptr noundef nonnull align 8 dereferenceable(32) %3)
          to label %11 unwind label %19, !dbg !4229

11:                                               ; preds = %10
  call void @_ZNSt7__cxx1112basic_stringIcSt11char_traitsIcESaIcEED1Ev(ptr noundef nonnull align 8 dereferenceable(32) %3) #3, !dbg !4230
  %12 = getelementptr inbounds %class.Tool, ptr %7, i32 0, i32 3, !dbg !4231
  call void @_ZNSaIcEC1Ev(ptr noundef nonnull align 1 dereferenceable(1) %6) #3, !dbg !4231
  invoke void @_ZNSt7__cxx1112basic_stringIcSt11char_traitsIcESaIcEEC2IS3_EEPKcRKS3_(ptr noundef nonnull align 8 dereferenceable(32) %12, ptr noundef @.str.1, ptr noundef nonnull align 1 dereferenceable(1) %6)
          to label %13 unwind label %23, !dbg !4231

13:                                               ; preds = %11
  call void @_ZNSaIcED1Ev(ptr noundef nonnull align 1 dereferenceable(1) %6) #3, !dbg !4231
  %14 = getelementptr inbounds %class.Tool, ptr %7, i32 0, i32 4, !dbg !4224
  call void @_ZNSt7__cxx1112basic_stringIcSt11char_traitsIcESaIcEEC1Ev(ptr noundef nonnull align 8 dereferenceable(32) %14) #3, !dbg !4224
  ret void, !dbg !4232

15:                                               ; preds = %1
  %16 = landingpad { ptr, i32 }
          cleanup, !dbg !4232
  %17 = extractvalue { ptr, i32 } %16, 0, !dbg !4232
  store ptr %17, ptr %4, align 8, !dbg !4232
  %18 = extractvalue { ptr, i32 } %16, 1, !dbg !4232
  store i32 %18, ptr %5, align 4, !dbg !4232
  br label %27, !dbg !4232

19:                                               ; preds = %10
  %20 = landingpad { ptr, i32 }
          cleanup, !dbg !4232
  %21 = extractvalue { ptr, i32 } %20, 0, !dbg !4232
  store ptr %21, ptr %4, align 8, !dbg !4232
  %22 = extractvalue { ptr, i32 } %20, 1, !dbg !4232
  store i32 %22, ptr %5, align 4, !dbg !4232
  call void @_ZNSt7__cxx1112basic_stringIcSt11char_traitsIcESaIcEED1Ev(ptr noundef nonnull align 8 dereferenceable(32) %3) #3, !dbg !4230
  br label %27, !dbg !4230

23:                                               ; preds = %11
  %24 = landingpad { ptr, i32 }
          cleanup, !dbg !4232
  %25 = extractvalue { ptr, i32 } %24, 0, !dbg !4232
  store ptr %25, ptr %4, align 8, !dbg !4232
  %26 = extractvalue { ptr, i32 } %24, 1, !dbg !4232
  store i32 %26, ptr %5, align 4, !dbg !4232
  call void @_ZNSaIcED1Ev(ptr noundef nonnull align 1 dereferenceable(1) %6) #3, !dbg !4231
  call void @_ZNSt7__cxx1112basic_stringIcSt11char_traitsIcESaIcEED1Ev(ptr noundef nonnull align 8 dereferenceable(32) %9) #3, !dbg !4233
  br label %27, !dbg !4233

27:                                               ; preds = %23, %19, %15
  call void @_ZN4Poco4Util11ApplicationD2Ev(ptr noundef nonnull align 8 dereferenceable(224) %7) #3, !dbg !4233
  br label %28, !dbg !4233

28:                                               ; preds = %27
  %29 = load ptr, ptr %4, align 8, !dbg !4233
  %30 = load i32, ptr %5, align 4, !dbg !4233
  %31 = insertvalue { ptr, i32 } poison, ptr %29, 0, !dbg !4233
  %32 = insertvalue { ptr, i32 } %31, i32 %30, 1, !dbg !4233
  resume { ptr, i32 } %32, !dbg !4233
}

declare void @_ZN4Poco4Util11ApplicationC2Ev(ptr noundef nonnull align 8 dereferenceable(224)) unnamed_addr #1

; Function Attrs: mustprogress noinline optnone uwtable
define linkonce_odr dso_local void @_ZStplIcSt11char_traitsIcESaIcEENSt7__cxx1112basic_stringIT_T0_T1_EEPKS5_OS8_(ptr noalias sret(%"class.std::__cxx11::basic_string") align 8 %0, ptr noundef %1, ptr noundef nonnull align 8 dereferenceable(32) %2) #4 comdat !dbg !4235 {
  %4 = alloca ptr, align 8
  %5 = alloca ptr, align 8
  %6 = alloca ptr, align 8
  store ptr %0, ptr %4, align 8
  store ptr %1, ptr %5, align 8
  call void @llvm.dbg.declare(metadata ptr %5, metadata !4238, metadata !DIExpression()), !dbg !4239
  store ptr %2, ptr %6, align 8
  call void @llvm.dbg.declare(metadata ptr %6, metadata !4240, metadata !DIExpression()), !dbg !4241
  %7 = load ptr, ptr %6, align 8, !dbg !4242
  %8 = load ptr, ptr %5, align 8, !dbg !4243
  %9 = call noundef nonnull align 8 dereferenceable(32) ptr @_ZNSt7__cxx1112basic_stringIcSt11char_traitsIcESaIcEE6insertEmPKc(ptr noundef nonnull align 8 dereferenceable(32) %7, i64 noundef 0, ptr noundef %8), !dbg !4244
  call void @_ZNSt7__cxx1112basic_stringIcSt11char_traitsIcESaIcEEC1EOS4_(ptr noundef nonnull align 8 dereferenceable(32) %0, ptr noundef nonnull align 8 dereferenceable(32) %9) #3, !dbg !4245
  ret void, !dbg !4246
}

; Function Attrs: mustprogress noinline optnone uwtable
define linkonce_odr dso_local void @_ZNSt7__cxx119to_stringEi(ptr noalias sret(%"class.std::__cxx11::basic_string") align 8 %0, i32 noundef %1) #4 comdat personality ptr @__gxx_personality_v0 !dbg !4247 {
  %3 = alloca ptr, align 8
  %4 = alloca i32, align 4
  %5 = alloca i8, align 1
  %6 = alloca i32, align 4
  %7 = alloca i32, align 4
  %8 = alloca i1, align 1
  %9 = alloca %"class.std::allocator.32", align 1
  %10 = alloca ptr, align 8
  %11 = alloca i32, align 4
  store ptr %0, ptr %3, align 8
  store i32 %1, ptr %4, align 4
  call void @llvm.dbg.declare(metadata ptr %4, metadata !4250, metadata !DIExpression()), !dbg !4251
  call void @llvm.dbg.declare(metadata ptr %5, metadata !4252, metadata !DIExpression()), !dbg !4253
  %12 = load i32, ptr %4, align 4, !dbg !4254
  %13 = icmp slt i32 %12, 0, !dbg !4255
  %14 = zext i1 %13 to i8, !dbg !4253
  store i8 %14, ptr %5, align 1, !dbg !4253
  call void @llvm.dbg.declare(metadata ptr %6, metadata !4256, metadata !DIExpression()), !dbg !4258
  %15 = load i8, ptr %5, align 1, !dbg !4259
  %16 = trunc i8 %15 to i1, !dbg !4259
  br i1 %16, label %17, label %21, !dbg !4259

17:                                               ; preds = %2
  %18 = load i32, ptr %4, align 4, !dbg !4260
  %19 = xor i32 %18, -1, !dbg !4261
  %20 = add i32 %19, 1, !dbg !4262
  br label %23, !dbg !4259

21:                                               ; preds = %2
  %22 = load i32, ptr %4, align 4, !dbg !4263
  br label %23, !dbg !4259

23:                                               ; preds = %21, %17
  %24 = phi i32 [ %20, %17 ], [ %22, %21 ], !dbg !4259
  store i32 %24, ptr %6, align 4, !dbg !4258
  call void @llvm.dbg.declare(metadata ptr %7, metadata !4264, metadata !DIExpression()), !dbg !4265
  %25 = load i32, ptr %6, align 4, !dbg !4266
  %26 = call noundef i32 @_ZNSt8__detail14__to_chars_lenIjEEjT_i(i32 noundef %25, i32 noundef 10) #3, !dbg !4267
  store i32 %26, ptr %7, align 4, !dbg !4265
  store i1 false, ptr %8, align 1, !dbg !4268
  call void @llvm.dbg.declare(metadata ptr %3, metadata !4269, metadata !DIExpression(DW_OP_deref)), !dbg !4270
  %27 = load i8, ptr %5, align 1, !dbg !4271
  %28 = trunc i8 %27 to i1, !dbg !4271
  %29 = zext i1 %28 to i32, !dbg !4271
  %30 = load i32, ptr %7, align 4, !dbg !4272
  %31 = add i32 %29, %30, !dbg !4273
  %32 = zext i32 %31 to i64, !dbg !4271
  call void @_ZNSaIcEC1Ev(ptr noundef nonnull align 1 dereferenceable(1) %9) #3, !dbg !4270
  invoke void @_ZNSt7__cxx1112basic_stringIcSt11char_traitsIcESaIcEEC2IS3_EEmcRKS3_(ptr noundef nonnull align 8 dereferenceable(32) %0, i64 noundef %32, i8 noundef signext 45, ptr noundef nonnull align 1 dereferenceable(1) %9)
          to label %33 unwind label %42, !dbg !4270

33:                                               ; preds = %23
  call void @_ZNSaIcED1Ev(ptr noundef nonnull align 1 dereferenceable(1) %9) #3, !dbg !4270
  %34 = load i8, ptr %5, align 1, !dbg !4274
  %35 = trunc i8 %34 to i1, !dbg !4274
  %36 = zext i1 %35 to i64, !dbg !4274
  %37 = invoke noundef nonnull align 1 dereferenceable(1) ptr @_ZNSt7__cxx1112basic_stringIcSt11char_traitsIcESaIcEEixEm(ptr noundef nonnull align 8 dereferenceable(32) %0, i64 noundef %36)
          to label %38 unwind label %46, !dbg !4275

38:                                               ; preds = %33
  %39 = load i32, ptr %7, align 4, !dbg !4276
  %40 = load i32, ptr %6, align 4, !dbg !4277
  call void @_ZNSt8__detail18__to_chars_10_implIjEEvPcjT_(ptr noundef %37, i32 noundef %39, i32 noundef %40) #3, !dbg !4278
  store i1 true, ptr %8, align 1, !dbg !4279
  %41 = load i1, ptr %8, align 1, !dbg !4280
  br i1 %41, label %51, label %50, !dbg !4280

42:                                               ; preds = %23
  %43 = landingpad { ptr, i32 }
          cleanup, !dbg !4280
  %44 = extractvalue { ptr, i32 } %43, 0, !dbg !4280
  store ptr %44, ptr %10, align 8, !dbg !4280
  %45 = extractvalue { ptr, i32 } %43, 1, !dbg !4280
  store i32 %45, ptr %11, align 4, !dbg !4280
  call void @_ZNSaIcED1Ev(ptr noundef nonnull align 1 dereferenceable(1) %9) #3, !dbg !4270
  br label %52, !dbg !4270

46:                                               ; preds = %33
  %47 = landingpad { ptr, i32 }
          cleanup, !dbg !4280
  %48 = extractvalue { ptr, i32 } %47, 0, !dbg !4280
  store ptr %48, ptr %10, align 8, !dbg !4280
  %49 = extractvalue { ptr, i32 } %47, 1, !dbg !4280
  store i32 %49, ptr %11, align 4, !dbg !4280
  call void @_ZNSt7__cxx1112basic_stringIcSt11char_traitsIcESaIcEED1Ev(ptr noundef nonnull align 8 dereferenceable(32) %0) #3, !dbg !4280
  br label %52, !dbg !4280

50:                                               ; preds = %38
  call void @_ZNSt7__cxx1112basic_stringIcSt11char_traitsIcESaIcEED1Ev(ptr noundef nonnull align 8 dereferenceable(32) %0) #3, !dbg !4280
  br label %51, !dbg !4280

51:                                               ; preds = %50, %38
  ret void, !dbg !4280

52:                                               ; preds = %46, %42
  %53 = load ptr, ptr %10, align 8, !dbg !4270
  %54 = load i32, ptr %11, align 4, !dbg !4270
  %55 = insertvalue { ptr, i32 } poison, ptr %53, 0, !dbg !4270
  %56 = insertvalue { ptr, i32 } %55, i32 %54, 1, !dbg !4270
  resume { ptr, i32 } %56, !dbg !4270
}

declare i32 @__gxx_personality_v0(...)

; Function Attrs: nounwind
declare void @_ZNSt7__cxx1112basic_stringIcSt11char_traitsIcESaIcEED1Ev(ptr noundef nonnull align 8 dereferenceable(32)) unnamed_addr #2

; Function Attrs: nounwind
declare void @_ZNSaIcEC1Ev(ptr noundef nonnull align 1 dereferenceable(1)) unnamed_addr #2

; Function Attrs: noinline optnone uwtable
define linkonce_odr dso_local void @_ZNSt7__cxx1112basic_stringIcSt11char_traitsIcESaIcEEC2IS3_EEPKcRKS3_(ptr noundef nonnull align 8 dereferenceable(32) %0, ptr noundef %1, ptr noundef nonnull align 1 dereferenceable(1) %2) unnamed_addr #6 comdat align 2 personality ptr @__gxx_personality_v0 !dbg !4281 {
  %4 = alloca ptr, align 8
  %5 = alloca ptr, align 8
  %6 = alloca ptr, align 8
  %7 = alloca ptr, align 8
  %8 = alloca ptr, align 8
  %9 = alloca i32, align 4
  %10 = alloca %"struct.std::forward_iterator_tag", align 1
  %11 = alloca %"struct.std::random_access_iterator_tag", align 1
  store ptr %0, ptr %4, align 8
  call void @llvm.dbg.declare(metadata ptr %4, metadata !4287, metadata !DIExpression()), !dbg !4288
  store ptr %1, ptr %5, align 8
  call void @llvm.dbg.declare(metadata ptr %5, metadata !4289, metadata !DIExpression()), !dbg !4290
  store ptr %2, ptr %6, align 8
  call void @llvm.dbg.declare(metadata ptr %6, metadata !4291, metadata !DIExpression()), !dbg !4292
  %12 = load ptr, ptr %4, align 8
  %13 = getelementptr inbounds %"class.std::__cxx11::basic_string", ptr %12, i32 0, i32 0, !dbg !4293
  %14 = call noundef ptr @_ZNSt7__cxx1112basic_stringIcSt11char_traitsIcESaIcEE13_M_local_dataEv(ptr noundef nonnull align 8 dereferenceable(32) %12), !dbg !4294
  %15 = load ptr, ptr %6, align 8, !dbg !4295
  call void @_ZNSt7__cxx1112basic_stringIcSt11char_traitsIcESaIcEE12_Alloc_hiderC1EPcRKS3_(ptr noundef nonnull align 8 dereferenceable(8) %13, ptr noundef %14, ptr noundef nonnull align 1 dereferenceable(1) %15), !dbg !4293
  call void @llvm.dbg.declare(metadata ptr %7, metadata !4296, metadata !DIExpression()), !dbg !4298
  %16 = load ptr, ptr %5, align 8, !dbg !4299
  %17 = icmp ne ptr %16, null, !dbg !4299
  br i1 %17, label %18, label %24, !dbg !4299

18:                                               ; preds = %3
  %19 = load ptr, ptr %5, align 8, !dbg !4300
  %20 = load ptr, ptr %5, align 8, !dbg !4301
  %21 = invoke noundef i64 @_ZNSt11char_traitsIcE6lengthEPKc(ptr noundef %20)
          to label %22 unwind label %30, !dbg !4302

22:                                               ; preds = %18
  %23 = getelementptr inbounds i8, ptr %19, i64 %21, !dbg !4303
  br label %25, !dbg !4299

24:                                               ; preds = %3
  br label %25, !dbg !4299

25:                                               ; preds = %24, %22
  %26 = phi ptr [ %23, %22 ], [ inttoptr (i64 1 to ptr), %24 ], !dbg !4299
  store ptr %26, ptr %7, align 8, !dbg !4298
  %27 = load ptr, ptr %5, align 8, !dbg !4304
  %28 = load ptr, ptr %7, align 8, !dbg !4305
  invoke void @_ZNSt7__cxx1112basic_stringIcSt11char_traitsIcESaIcEE12_M_constructIPKcEEvT_S8_St20forward_iterator_tag(ptr noundef nonnull align 8 dereferenceable(32) %12, ptr noundef %27, ptr noundef %28)
          to label %29 unwind label %30, !dbg !4306

29:                                               ; preds = %25
  ret void, !dbg !4307

30:                                               ; preds = %25, %18
  %31 = landingpad { ptr, i32 }
          cleanup, !dbg !4308
  %32 = extractvalue { ptr, i32 } %31, 0, !dbg !4308
  store ptr %32, ptr %8, align 8, !dbg !4308
  %33 = extractvalue { ptr, i32 } %31, 1, !dbg !4308
  store i32 %33, ptr %9, align 4, !dbg !4308
  call void @_ZNSt7__cxx1112basic_stringIcSt11char_traitsIcESaIcEE12_Alloc_hiderD2Ev(ptr noundef nonnull align 8 dereferenceable(8) %13) #3, !dbg !4308
  br label %34, !dbg !4308

34:                                               ; preds = %30
  %35 = load ptr, ptr %8, align 8, !dbg !4308
  %36 = load i32, ptr %9, align 4, !dbg !4308
  %37 = insertvalue { ptr, i32 } poison, ptr %35, 0, !dbg !4308
  %38 = insertvalue { ptr, i32 } %37, i32 %36, 1, !dbg !4308
  resume { ptr, i32 } %38, !dbg !4308
}

; Function Attrs: nounwind
declare void @_ZNSaIcED1Ev(ptr noundef nonnull align 1 dereferenceable(1)) unnamed_addr #2

; Function Attrs: nounwind
declare void @_ZNSt7__cxx1112basic_stringIcSt11char_traitsIcESaIcEEC1Ev(ptr noundef nonnull align 8 dereferenceable(32)) unnamed_addr #2

; Function Attrs: nounwind
declare void @_ZN4Poco4Util11ApplicationD2Ev(ptr noundef nonnull align 8 dereferenceable(224)) unnamed_addr #2

; Function Attrs: mustprogress noinline optnone uwtable
define dso_local void @_ZN4Tool11displayHelpEv(ptr noundef nonnull align 8 dereferenceable(328) %0) #4 align 2 personality ptr @__gxx_personality_v0 !dbg !4309 {
  %2 = alloca ptr, align 8
  %3 = alloca %"class.std::__cxx11::basic_string", align 8
  %4 = alloca ptr, align 8
  %5 = alloca i32, align 4
  store ptr %0, ptr %2, align 8
  call void @llvm.dbg.declare(metadata ptr %2, metadata !4310, metadata !DIExpression()), !dbg !4311
  %6 = load ptr, ptr %2, align 8
  %7 = call noundef nonnull align 8 dereferenceable(8) ptr @_ZStlsISt11char_traitsIcEERSt13basic_ostreamIcT_ES5_PKc(ptr noundef nonnull align 8 dereferenceable(8) @_ZSt4cout, ptr noundef @.str.2), !dbg !4312
  %8 = call noundef nonnull align 8 dereferenceable(8) ptr @_ZStlsISt11char_traitsIcEERSt13basic_ostreamIcT_ES5_PKc(ptr noundef nonnull align 8 dereferenceable(8) %7, ptr noundef @.str.3), !dbg !4313
  call void @_ZNK4Poco4Util11Application11commandNameB5cxx11Ev(ptr sret(%"class.std::__cxx11::basic_string") align 8 %3, ptr noundef nonnull align 8 dereferenceable(224) %6), !dbg !4314
  %9 = invoke noundef nonnull align 8 dereferenceable(8) ptr @_ZStlsIcSt11char_traitsIcESaIcEERSt13basic_ostreamIT_T0_ES7_RKNSt7__cxx1112basic_stringIS4_S5_T1_EE(ptr noundef nonnull align 8 dereferenceable(8) %8, ptr noundef nonnull align 8 dereferenceable(32) %3)
          to label %10 unwind label %33, !dbg !4315

10:                                               ; preds = %1
  %11 = invoke noundef nonnull align 8 dereferenceable(8) ptr @_ZStlsISt11char_traitsIcEERSt13basic_ostreamIcT_ES5_PKc(ptr noundef nonnull align 8 dereferenceable(8) %9, ptr noundef @.str.4)
          to label %12 unwind label %33, !dbg !4316

12:                                               ; preds = %10
  %13 = invoke noundef nonnull align 8 dereferenceable(8) ptr @_ZStlsISt11char_traitsIcEERSt13basic_ostreamIcT_ES5_PKc(ptr noundef nonnull align 8 dereferenceable(8) %11, ptr noundef @.str.5)
          to label %14 unwind label %33, !dbg !4317

14:                                               ; preds = %12
  %15 = invoke noundef nonnull align 8 dereferenceable(8) ptr @_ZStlsISt11char_traitsIcEERSt13basic_ostreamIcT_ES5_PKc(ptr noundef nonnull align 8 dereferenceable(8) %13, ptr noundef @.str.6)
          to label %16 unwind label %33, !dbg !4318

16:                                               ; preds = %14
  %17 = invoke noundef nonnull align 8 dereferenceable(8) ptr @_ZStlsISt11char_traitsIcEERSt13basic_ostreamIcT_ES5_PKc(ptr noundef nonnull align 8 dereferenceable(8) %15, ptr noundef @.str.7)
          to label %18 unwind label %33, !dbg !4319

18:                                               ; preds = %16
  %19 = invoke noundef nonnull align 8 dereferenceable(8) ptr @_ZStlsISt11char_traitsIcEERSt13basic_ostreamIcT_ES5_PKc(ptr noundef nonnull align 8 dereferenceable(8) %17, ptr noundef @.str.8)
          to label %20 unwind label %33, !dbg !4320

20:                                               ; preds = %18
  %21 = invoke noundef nonnull align 8 dereferenceable(8) ptr @_ZStlsISt11char_traitsIcEERSt13basic_ostreamIcT_ES5_PKc(ptr noundef nonnull align 8 dereferenceable(8) %19, ptr noundef @.str.9)
          to label %22 unwind label %33, !dbg !4321

22:                                               ; preds = %20
  %23 = invoke noundef nonnull align 8 dereferenceable(8) ptr @_ZStlsISt11char_traitsIcEERSt13basic_ostreamIcT_ES5_PKc(ptr noundef nonnull align 8 dereferenceable(8) %21, ptr noundef @.str.10)
          to label %24 unwind label %33, !dbg !4322

24:                                               ; preds = %22
  %25 = invoke noundef nonnull align 8 dereferenceable(8) ptr @_ZStlsISt11char_traitsIcEERSt13basic_ostreamIcT_ES5_PKc(ptr noundef nonnull align 8 dereferenceable(8) %23, ptr noundef @.str.11)
          to label %26 unwind label %33, !dbg !4323

26:                                               ; preds = %24
  %27 = invoke noundef nonnull align 8 dereferenceable(8) ptr @_ZStlsISt11char_traitsIcEERSt13basic_ostreamIcT_ES5_PKc(ptr noundef nonnull align 8 dereferenceable(8) %25, ptr noundef @.str.12)
          to label %28 unwind label %33, !dbg !4324

28:                                               ; preds = %26
  %29 = invoke noundef nonnull align 8 dereferenceable(8) ptr @_ZStlsISt11char_traitsIcEERSt13basic_ostreamIcT_ES5_PKc(ptr noundef nonnull align 8 dereferenceable(8) %27, ptr noundef @.str.13)
          to label %30 unwind label %33, !dbg !4325

30:                                               ; preds = %28
  %31 = invoke noundef nonnull align 8 dereferenceable(8) ptr @_ZNSolsEPFRSoS_E(ptr noundef nonnull align 8 dereferenceable(8) %29, ptr noundef @_ZSt4endlIcSt11char_traitsIcEERSt13basic_ostreamIT_T0_ES6_)
          to label %32 unwind label %33, !dbg !4326

32:                                               ; preds = %30
  call void @_ZNSt7__cxx1112basic_stringIcSt11char_traitsIcESaIcEED1Ev(ptr noundef nonnull align 8 dereferenceable(32) %3) #3, !dbg !4327
  ret void, !dbg !4328

33:                                               ; preds = %30, %28, %26, %24, %22, %20, %18, %16, %14, %12, %10, %1
  %34 = landingpad { ptr, i32 }
          cleanup, !dbg !4328
  %35 = extractvalue { ptr, i32 } %34, 0, !dbg !4328
  store ptr %35, ptr %4, align 8, !dbg !4328
  %36 = extractvalue { ptr, i32 } %34, 1, !dbg !4328
  store i32 %36, ptr %5, align 4, !dbg !4328
  call void @_ZNSt7__cxx1112basic_stringIcSt11char_traitsIcESaIcEED1Ev(ptr noundef nonnull align 8 dereferenceable(32) %3) #3, !dbg !4327
  br label %37, !dbg !4327

37:                                               ; preds = %33
  %38 = load ptr, ptr %4, align 8, !dbg !4327
  %39 = load i32, ptr %5, align 4, !dbg !4327
  %40 = insertvalue { ptr, i32 } poison, ptr %38, 0, !dbg !4327
  %41 = insertvalue { ptr, i32 } %40, i32 %39, 1, !dbg !4327
  resume { ptr, i32 } %41, !dbg !4327
}

declare noundef nonnull align 8 dereferenceable(8) ptr @_ZStlsISt11char_traitsIcEERSt13basic_ostreamIcT_ES5_PKc(ptr noundef nonnull align 8 dereferenceable(8), ptr noundef) #1

declare noundef nonnull align 8 dereferenceable(8) ptr @_ZStlsIcSt11char_traitsIcESaIcEERSt13basic_ostreamIT_T0_ES7_RKNSt7__cxx1112basic_stringIS4_S5_T1_EE(ptr noundef nonnull align 8 dereferenceable(8), ptr noundef nonnull align 8 dereferenceable(32)) #1

declare void @_ZNK4Poco4Util11Application11commandNameB5cxx11Ev(ptr sret(%"class.std::__cxx11::basic_string") align 8, ptr noundef nonnull align 8 dereferenceable(224)) #1

declare noundef nonnull align 8 dereferenceable(8) ptr @_ZNSolsEPFRSoS_E(ptr noundef nonnull align 8 dereferenceable(8), ptr noundef) #1

declare noundef nonnull align 8 dereferenceable(8) ptr @_ZSt4endlIcSt11char_traitsIcEERSt13basic_ostreamIT_T0_ES6_(ptr noundef nonnull align 8 dereferenceable(8)) #1

; Function Attrs: mustprogress noinline optnone uwtable
define dso_local void @_ZN4Tool13defineOptionsERN4Poco4Util9OptionSetE(ptr noundef nonnull align 8 dereferenceable(328) %0, ptr noundef nonnull align 8 dereferenceable(24) %1) unnamed_addr #4 align 2 !dbg !4329 {
  %3 = alloca ptr, align 8
  %4 = alloca ptr, align 8
  store ptr %0, ptr %3, align 8
  call void @llvm.dbg.declare(metadata ptr %3, metadata !4330, metadata !DIExpression()), !dbg !4331
  store ptr %1, ptr %4, align 8
  call void @llvm.dbg.declare(metadata ptr %4, metadata !4332, metadata !DIExpression()), !dbg !4333
  %5 = load ptr, ptr %3, align 8
  call void @_ZN4Poco4Util11Application21stopOptionsProcessingEv(ptr noundef nonnull align 8 dereferenceable(224) %5), !dbg !4334
  ret void, !dbg !4335
}

declare void @_ZN4Poco4Util11Application21stopOptionsProcessingEv(ptr noundef nonnull align 8 dereferenceable(224)) #1

; Function Attrs: mustprogress noinline optnone uwtable
define dso_local void @_ZN4Tool12handleOptionERKNSt7__cxx1112basic_stringIcSt11char_traitsIcESaIcEEES7_(ptr noundef nonnull align 8 dereferenceable(328) %0, ptr noundef nonnull align 8 dereferenceable(32) %1, ptr noundef nonnull align 8 dereferenceable(32) %2) unnamed_addr #4 align 2 personality ptr @__gxx_personality_v0 !dbg !4336 {
  %4 = alloca ptr, align 8
  %5 = alloca ptr, align 8
  %6 = alloca ptr, align 8
  %7 = alloca i32, align 4
  %8 = alloca i32, align 4
  %9 = alloca %"class.Poco::SharedPtr.48", align 8
  %10 = alloca ptr, align 8
  %11 = alloca i32, align 4
  %12 = alloca %"class.Poco::SharedPtr.49", align 8
  %13 = alloca %"class.Poco::AutoPtr.50", align 8
  %14 = alloca %"class.std::__cxx11::basic_string", align 8
  %15 = alloca %"class.std::allocator.32", align 1
  %16 = alloca %"class.std::__cxx11::basic_string", align 8
  %17 = alloca %"class.std::allocator.32", align 1
  %18 = alloca i1, align 1
  %19 = alloca %"class.Poco::SharedPtr.48", align 8
  %20 = alloca %"class.Poco::SharedPtr.49", align 8
  %21 = alloca %"class.Poco::AutoPtr.50", align 8
  store ptr %0, ptr %4, align 8
  call void @llvm.dbg.declare(metadata ptr %4, metadata !4337, metadata !DIExpression()), !dbg !4338
  store ptr %1, ptr %5, align 8
  call void @llvm.dbg.declare(metadata ptr %5, metadata !4339, metadata !DIExpression()), !dbg !4340
  store ptr %2, ptr %6, align 8
  call void @llvm.dbg.declare(metadata ptr %6, metadata !4341, metadata !DIExpression()), !dbg !4342
  %22 = load ptr, ptr %4, align 8
  %23 = load ptr, ptr %5, align 8, !dbg !4343
  %24 = call noundef zeroext i1 @_ZSteqIcSt11char_traitsIcESaIcEEbRKNSt7__cxx1112basic_stringIT_T0_T1_EEPKS5_(ptr noundef nonnull align 8 dereferenceable(32) %23, ptr noundef @.str.14), !dbg !4345
  br i1 %24, label %25, label %26, !dbg !4346

25:                                               ; preds = %3
  call void @_ZN4Tool11displayHelpEv(ptr noundef nonnull align 8 dereferenceable(328) %22), !dbg !4347
  call void @exit(i32 noundef 0) #19, !dbg !4349
  unreachable, !dbg !4349

26:                                               ; preds = %3
  %27 = load ptr, ptr %5, align 8, !dbg !4350
  %28 = call noundef zeroext i1 @_ZSteqIcSt11char_traitsIcESaIcEEbRKNSt7__cxx1112basic_stringIT_T0_T1_EEPKS5_(ptr noundef nonnull align 8 dereferenceable(32) %27, ptr noundef @.str.15), !dbg !4352
  br i1 %28, label %32, label %29, !dbg !4353

29:                                               ; preds = %26
  %30 = load ptr, ptr %5, align 8, !dbg !4354
  %31 = call noundef zeroext i1 @_ZSteqIcSt11char_traitsIcESaIcEEbRKNSt7__cxx1112basic_stringIT_T0_T1_EEPKS5_(ptr noundef nonnull align 8 dereferenceable(32) %30, ptr noundef @.str.16), !dbg !4355
  br i1 %31, label %32, label %36, !dbg !4356

32:                                               ; preds = %29, %26
  %33 = load ptr, ptr %6, align 8, !dbg !4357
  %34 = getelementptr inbounds %class.Tool, ptr %22, i32 0, i32 3, !dbg !4358
  %35 = call noundef nonnull align 8 dereferenceable(32) ptr @_ZNSt7__cxx1112basic_stringIcSt11char_traitsIcESaIcEEaSERKS4_(ptr noundef nonnull align 8 dereferenceable(32) %34, ptr noundef nonnull align 8 dereferenceable(32) %33), !dbg !4359
  br label %139, !dbg !4358

36:                                               ; preds = %29
  %37 = load ptr, ptr %5, align 8, !dbg !4360
  %38 = call noundef zeroext i1 @_ZSteqIcSt11char_traitsIcESaIcEEbRKNSt7__cxx1112basic_stringIT_T0_T1_EEPKS5_(ptr noundef nonnull align 8 dereferenceable(32) %37, ptr noundef @.str.17), !dbg !4362
  br i1 %38, label %39, label %43, !dbg !4363

39:                                               ; preds = %36
  %40 = load ptr, ptr %6, align 8, !dbg !4364
  %41 = getelementptr inbounds %class.Tool, ptr %22, i32 0, i32 4, !dbg !4365
  %42 = call noundef nonnull align 8 dereferenceable(32) ptr @_ZNSt7__cxx1112basic_stringIcSt11char_traitsIcESaIcEEaSERKS4_(ptr noundef nonnull align 8 dereferenceable(32) %41, ptr noundef nonnull align 8 dereferenceable(32) %40), !dbg !4366
  br label %138, !dbg !4365

43:                                               ; preds = %36
  %44 = load ptr, ptr %5, align 8, !dbg !4367
  %45 = call noundef zeroext i1 @_ZSteqIcSt11char_traitsIcESaIcEEbRKNSt7__cxx1112basic_stringIT_T0_T1_EEPKS5_(ptr noundef nonnull align 8 dereferenceable(32) %44, ptr noundef @.str.18), !dbg !4369
  br i1 %45, label %46, label %52, !dbg !4370

46:                                               ; preds = %43
  %47 = load ptr, ptr %6, align 8, !dbg !4371
  %48 = call noundef i32 @_ZNSt7__cxx114stoiERKNS_12basic_stringIcSt11char_traitsIcESaIcEEEPmi(ptr noundef nonnull align 8 dereferenceable(32) %47, ptr noundef null, i32 noundef 10), !dbg !4372
  store i32 %48, ptr %7, align 4, !dbg !4372
  store i32 1, ptr %8, align 4, !dbg !4373
  %49 = call noundef nonnull align 4 dereferenceable(4) ptr @_ZSt3maxIiERKT_S2_S2_(ptr noundef nonnull align 4 dereferenceable(4) %7, ptr noundef nonnull align 4 dereferenceable(4) %8), !dbg !4374
  %50 = load i32, ptr %49, align 4, !dbg !4374
  %51 = getelementptr inbounds %class.Tool, ptr %22, i32 0, i32 1, !dbg !4375
  store i32 %50, ptr %51, align 8, !dbg !4376
  br label %137, !dbg !4375

52:                                               ; preds = %43
  %53 = load ptr, ptr %5, align 8, !dbg !4377
  %54 = call noundef zeroext i1 @_ZSteqIcSt11char_traitsIcESaIcEEbRKNSt7__cxx1112basic_stringIT_T0_T1_EEPKS5_(ptr noundef nonnull align 8 dereferenceable(32) %53, ptr noundef @.str.19), !dbg !4379
  br i1 %54, label %55, label %59, !dbg !4380

55:                                               ; preds = %52
  %56 = load ptr, ptr %6, align 8, !dbg !4381
  %57 = getelementptr inbounds %class.Tool, ptr %22, i32 0, i32 2, !dbg !4382
  %58 = call noundef nonnull align 8 dereferenceable(32) ptr @_ZNSt7__cxx1112basic_stringIcSt11char_traitsIcESaIcEEaSERKS4_(ptr noundef nonnull align 8 dereferenceable(32) %57, ptr noundef nonnull align 8 dereferenceable(32) %56), !dbg !4383
  br label %136, !dbg !4382

59:                                               ; preds = %52
  %60 = load ptr, ptr %5, align 8, !dbg !4384
  %61 = call noundef zeroext i1 @_ZSteqIcSt11char_traitsIcESaIcEEbRKNSt7__cxx1112basic_stringIT_T0_T1_EEPKS5_(ptr noundef nonnull align 8 dereferenceable(32) %60, ptr noundef @.str.20), !dbg !4386
  br i1 %61, label %62, label %135, !dbg !4387

62:                                               ; preds = %59
  call void @llvm.dbg.declare(metadata ptr %9, metadata !4388, metadata !DIExpression()), !dbg !4390
  %63 = call noalias noundef nonnull ptr @_Znwm(i64 noundef 16) #20, !dbg !4391, !heapallocsite !4392
  invoke void @_ZN4Poco3Net17KeyConsoleHandlerC1Eb(ptr noundef nonnull align 8 dereferenceable(9) %63, i1 noundef zeroext false)
          to label %64 unwind label %81, !dbg !4394

64:                                               ; preds = %62
  call void @_ZN4Poco9SharedPtrINS_3Net27PrivateKeyPassphraseHandlerENS_16ReferenceCounterENS_13ReleasePolicyIS2_EEEC2EPS2_(ptr noundef nonnull align 8 dereferenceable(16) %9, ptr noundef %63), !dbg !4391
  call void @llvm.dbg.declare(metadata ptr %12, metadata !4395, metadata !DIExpression()), !dbg !4396
  %65 = invoke noalias noundef nonnull ptr @_Znwm(i64 noundef 16) #20
          to label %66 unwind label %85, !dbg !4397, !heapallocsite !4398

66:                                               ; preds = %64
  invoke void @_ZN4Poco3Net24AcceptCertificateHandlerC1Eb(ptr noundef nonnull align 8 dereferenceable(9) %65, i1 noundef zeroext false)
          to label %67 unwind label %89, !dbg !4400

67:                                               ; preds = %66
  invoke void @_ZN4Poco9SharedPtrINS_3Net25InvalidCertificateHandlerENS_16ReferenceCounterENS_13ReleasePolicyIS2_EEEC2EPS2_(ptr noundef nonnull align 8 dereferenceable(16) %12, ptr noundef %65)
          to label %68 unwind label %85, !dbg !4397

68:                                               ; preds = %67
  call void @llvm.dbg.declare(metadata ptr %13, metadata !4401, metadata !DIExpression()), !dbg !4403
  %69 = invoke noalias noundef nonnull ptr @_Znwm(i64 noundef 56) #20
          to label %70 unwind label %93, !dbg !4404, !heapallocsite !152

70:                                               ; preds = %68
  store i1 true, ptr %18, align 1
  call void @_ZNSaIcEC1Ev(ptr noundef nonnull align 1 dereferenceable(1) %15) #3, !dbg !4405
  invoke void @_ZNSt7__cxx1112basic_stringIcSt11char_traitsIcESaIcEEC2IS3_EEPKcRKS3_(ptr noundef nonnull align 8 dereferenceable(32) %14, ptr noundef @.str.21, ptr noundef nonnull align 1 dereferenceable(1) %15)
          to label %71 unwind label %97, !dbg !4405

71:                                               ; preds = %70
  call void @_ZNSaIcEC1Ev(ptr noundef nonnull align 1 dereferenceable(1) %17) #3, !dbg !4406
  invoke void @_ZNSt7__cxx1112basic_stringIcSt11char_traitsIcESaIcEEC2IS3_EEPKcRKS3_(ptr noundef nonnull align 8 dereferenceable(32) %16, ptr noundef @.str.22, ptr noundef nonnull align 1 dereferenceable(1) %17)
          to label %72 unwind label %101, !dbg !4406

72:                                               ; preds = %71
  invoke void @_ZN4Poco3Net7ContextC1ENS1_5UsageERKNSt7__cxx1112basic_stringIcSt11char_traitsIcESaIcEEENS1_16VerificationModeEibSA_(ptr noundef nonnull align 8 dereferenceable(56) %69, i32 noundef 2, ptr noundef nonnull align 8 dereferenceable(32) %14, i32 noundef 1, i32 noundef 9, i1 noundef zeroext false, ptr noundef nonnull align 8 dereferenceable(32) %16)
          to label %73 unwind label %105, !dbg !4406

73:                                               ; preds = %72
  store i1 false, ptr %18, align 1, !dbg !4404
  invoke void @_ZN4Poco7AutoPtrINS_3Net7ContextEEC2EPS2_(ptr noundef nonnull align 8 dereferenceable(8) %13, ptr noundef %69)
          to label %74 unwind label %105, !dbg !4404

74:                                               ; preds = %73
  call void @_ZNSt7__cxx1112basic_stringIcSt11char_traitsIcESaIcEED1Ev(ptr noundef nonnull align 8 dereferenceable(32) %16) #3, !dbg !4404
  call void @_ZNSaIcED1Ev(ptr noundef nonnull align 1 dereferenceable(1) %17) #3, !dbg !4404
  call void @_ZNSt7__cxx1112basic_stringIcSt11char_traitsIcESaIcEED1Ev(ptr noundef nonnull align 8 dereferenceable(32) %14) #3, !dbg !4404
  call void @_ZNSaIcED1Ev(ptr noundef nonnull align 1 dereferenceable(1) %15) #3, !dbg !4404
  %75 = invoke noundef nonnull align 8 dereferenceable(560) ptr @_ZN4Poco3Net10SSLManager8instanceEv()
          to label %76 unwind label %114, !dbg !4407

76:                                               ; preds = %74
  invoke void @_ZN4Poco9SharedPtrINS_3Net27PrivateKeyPassphraseHandlerENS_16ReferenceCounterENS_13ReleasePolicyIS2_EEEC2ERKS6_(ptr noundef nonnull align 8 dereferenceable(16) %19, ptr noundef nonnull align 8 dereferenceable(16) %9)
          to label %77 unwind label %114, !dbg !4408

77:                                               ; preds = %76
  invoke void @_ZN4Poco9SharedPtrINS_3Net25InvalidCertificateHandlerENS_16ReferenceCounterENS_13ReleasePolicyIS2_EEEC2ERKS6_(ptr noundef nonnull align 8 dereferenceable(16) %20, ptr noundef nonnull align 8 dereferenceable(16) %12)
          to label %78 unwind label %118, !dbg !4409

78:                                               ; preds = %77
  invoke void @_ZN4Poco7AutoPtrINS_3Net7ContextEEC2ERKS3_(ptr noundef nonnull align 8 dereferenceable(8) %21, ptr noundef nonnull align 8 dereferenceable(8) %13)
          to label %79 unwind label %122, !dbg !4410

79:                                               ; preds = %78
  invoke void @_ZN4Poco3Net10SSLManager16initializeClientENS_9SharedPtrINS0_27PrivateKeyPassphraseHandlerENS_16ReferenceCounterENS_13ReleasePolicyIS3_EEEENS2_INS0_25InvalidCertificateHandlerES4_NS5_IS8_EEEENS_7AutoPtrINS0_7ContextEEE(ptr noundef nonnull align 8 dereferenceable(560) %75, ptr noundef %19, ptr noundef %20, ptr noundef %21)
          to label %80 unwind label %126, !dbg !4411

80:                                               ; preds = %79
  call void @_ZN4Poco7AutoPtrINS_3Net7ContextEED2Ev(ptr noundef nonnull align 8 dereferenceable(8) %21) #3, !dbg !4407
  call void @_ZN4Poco9SharedPtrINS_3Net25InvalidCertificateHandlerENS_16ReferenceCounterENS_13ReleasePolicyIS2_EEED2Ev(ptr noundef nonnull align 8 dereferenceable(16) %20) #3, !dbg !4407
  call void @_ZN4Poco9SharedPtrINS_3Net27PrivateKeyPassphraseHandlerENS_16ReferenceCounterENS_13ReleasePolicyIS2_EEED2Ev(ptr noundef nonnull align 8 dereferenceable(16) %19) #3, !dbg !4407
  call void @_ZN4Poco7AutoPtrINS_3Net7ContextEED2Ev(ptr noundef nonnull align 8 dereferenceable(8) %13) #3, !dbg !4412
  call void @_ZN4Poco9SharedPtrINS_3Net25InvalidCertificateHandlerENS_16ReferenceCounterENS_13ReleasePolicyIS2_EEED2Ev(ptr noundef nonnull align 8 dereferenceable(16) %12) #3, !dbg !4412
  call void @_ZN4Poco9SharedPtrINS_3Net27PrivateKeyPassphraseHandlerENS_16ReferenceCounterENS_13ReleasePolicyIS2_EEED2Ev(ptr noundef nonnull align 8 dereferenceable(16) %9) #3, !dbg !4412
  br label %135, !dbg !4413

81:                                               ; preds = %62
  %82 = landingpad { ptr, i32 }
          cleanup, !dbg !4414
  %83 = extractvalue { ptr, i32 } %82, 0, !dbg !4414
  store ptr %83, ptr %10, align 8, !dbg !4414
  %84 = extractvalue { ptr, i32 } %82, 1, !dbg !4414
  store i32 %84, ptr %11, align 4, !dbg !4414
  call void @_ZdlPv(ptr noundef %63) #21, !dbg !4391
  br label %141, !dbg !4391

85:                                               ; preds = %67, %64
  %86 = landingpad { ptr, i32 }
          cleanup, !dbg !4414
  %87 = extractvalue { ptr, i32 } %86, 0, !dbg !4414
  store ptr %87, ptr %10, align 8, !dbg !4414
  %88 = extractvalue { ptr, i32 } %86, 1, !dbg !4414
  store i32 %88, ptr %11, align 4, !dbg !4414
  br label %134, !dbg !4414

89:                                               ; preds = %66
  %90 = landingpad { ptr, i32 }
          cleanup, !dbg !4414
  %91 = extractvalue { ptr, i32 } %90, 0, !dbg !4414
  store ptr %91, ptr %10, align 8, !dbg !4414
  %92 = extractvalue { ptr, i32 } %90, 1, !dbg !4414
  store i32 %92, ptr %11, align 4, !dbg !4414
  call void @_ZdlPv(ptr noundef %65) #21, !dbg !4397
  br label %134, !dbg !4397

93:                                               ; preds = %68
  %94 = landingpad { ptr, i32 }
          cleanup, !dbg !4414
  %95 = extractvalue { ptr, i32 } %94, 0, !dbg !4414
  store ptr %95, ptr %10, align 8, !dbg !4414
  %96 = extractvalue { ptr, i32 } %94, 1, !dbg !4414
  store i32 %96, ptr %11, align 4, !dbg !4414
  br label %133, !dbg !4414

97:                                               ; preds = %70
  %98 = landingpad { ptr, i32 }
          cleanup, !dbg !4414
  %99 = extractvalue { ptr, i32 } %98, 0, !dbg !4414
  store ptr %99, ptr %10, align 8, !dbg !4414
  %100 = extractvalue { ptr, i32 } %98, 1, !dbg !4414
  store i32 %100, ptr %11, align 4, !dbg !4414
  br label %110, !dbg !4414

101:                                              ; preds = %71
  %102 = landingpad { ptr, i32 }
          cleanup, !dbg !4406
  %103 = extractvalue { ptr, i32 } %102, 0, !dbg !4406
  store ptr %103, ptr %10, align 8, !dbg !4406
  %104 = extractvalue { ptr, i32 } %102, 1, !dbg !4406
  store i32 %104, ptr %11, align 4, !dbg !4406
  br label %109, !dbg !4406

105:                                              ; preds = %73, %72
  %106 = landingpad { ptr, i32 }
          cleanup, !dbg !4414
  %107 = extractvalue { ptr, i32 } %106, 0, !dbg !4414
  store ptr %107, ptr %10, align 8, !dbg !4414
  %108 = extractvalue { ptr, i32 } %106, 1, !dbg !4414
  store i32 %108, ptr %11, align 4, !dbg !4414
  call void @_ZNSt7__cxx1112basic_stringIcSt11char_traitsIcESaIcEED1Ev(ptr noundef nonnull align 8 dereferenceable(32) %16) #3, !dbg !4404
  br label %109, !dbg !4404

109:                                              ; preds = %105, %101
  call void @_ZNSaIcED1Ev(ptr noundef nonnull align 1 dereferenceable(1) %17) #3, !dbg !4404
  call void @_ZNSt7__cxx1112basic_stringIcSt11char_traitsIcESaIcEED1Ev(ptr noundef nonnull align 8 dereferenceable(32) %14) #3, !dbg !4404
  br label %110, !dbg !4404

110:                                              ; preds = %109, %97
  call void @_ZNSaIcED1Ev(ptr noundef nonnull align 1 dereferenceable(1) %15) #3, !dbg !4404
  %111 = load i1, ptr %18, align 1, !dbg !4404
  br i1 %111, label %112, label %113, !dbg !4404

112:                                              ; preds = %110
  call void @_ZdlPv(ptr noundef %69) #21, !dbg !4404
  br label %113, !dbg !4404

113:                                              ; preds = %112, %110
  br label %133, !dbg !4404

114:                                              ; preds = %76, %74
  %115 = landingpad { ptr, i32 }
          cleanup, !dbg !4414
  %116 = extractvalue { ptr, i32 } %115, 0, !dbg !4414
  store ptr %116, ptr %10, align 8, !dbg !4414
  %117 = extractvalue { ptr, i32 } %115, 1, !dbg !4414
  store i32 %117, ptr %11, align 4, !dbg !4414
  br label %132, !dbg !4414

118:                                              ; preds = %77
  %119 = landingpad { ptr, i32 }
          cleanup, !dbg !4414
  %120 = extractvalue { ptr, i32 } %119, 0, !dbg !4414
  store ptr %120, ptr %10, align 8, !dbg !4414
  %121 = extractvalue { ptr, i32 } %119, 1, !dbg !4414
  store i32 %121, ptr %11, align 4, !dbg !4414
  br label %131, !dbg !4414

122:                                              ; preds = %78
  %123 = landingpad { ptr, i32 }
          cleanup, !dbg !4414
  %124 = extractvalue { ptr, i32 } %123, 0, !dbg !4414
  store ptr %124, ptr %10, align 8, !dbg !4414
  %125 = extractvalue { ptr, i32 } %123, 1, !dbg !4414
  store i32 %125, ptr %11, align 4, !dbg !4414
  br label %130, !dbg !4414

126:                                              ; preds = %79
  %127 = landingpad { ptr, i32 }
          cleanup, !dbg !4414
  %128 = extractvalue { ptr, i32 } %127, 0, !dbg !4414
  store ptr %128, ptr %10, align 8, !dbg !4414
  %129 = extractvalue { ptr, i32 } %127, 1, !dbg !4414
  store i32 %129, ptr %11, align 4, !dbg !4414
  call void @_ZN4Poco7AutoPtrINS_3Net7ContextEED2Ev(ptr noundef nonnull align 8 dereferenceable(8) %21) #3, !dbg !4407
  br label %130, !dbg !4407

130:                                              ; preds = %126, %122
  call void @_ZN4Poco9SharedPtrINS_3Net25InvalidCertificateHandlerENS_16ReferenceCounterENS_13ReleasePolicyIS2_EEED2Ev(ptr noundef nonnull align 8 dereferenceable(16) %20) #3, !dbg !4407
  br label %131, !dbg !4407

131:                                              ; preds = %130, %118
  call void @_ZN4Poco9SharedPtrINS_3Net27PrivateKeyPassphraseHandlerENS_16ReferenceCounterENS_13ReleasePolicyIS2_EEED2Ev(ptr noundef nonnull align 8 dereferenceable(16) %19) #3, !dbg !4407
  br label %132, !dbg !4407

132:                                              ; preds = %131, %114
  call void @_ZN4Poco7AutoPtrINS_3Net7ContextEED2Ev(ptr noundef nonnull align 8 dereferenceable(8) %13) #3, !dbg !4412
  br label %133, !dbg !4412

133:                                              ; preds = %132, %113, %93
  call void @_ZN4Poco9SharedPtrINS_3Net25InvalidCertificateHandlerENS_16ReferenceCounterENS_13ReleasePolicyIS2_EEED2Ev(ptr noundef nonnull align 8 dereferenceable(16) %12) #3, !dbg !4412
  br label %134, !dbg !4412

134:                                              ; preds = %133, %89, %85
  call void @_ZN4Poco9SharedPtrINS_3Net27PrivateKeyPassphraseHandlerENS_16ReferenceCounterENS_13ReleasePolicyIS2_EEED2Ev(ptr noundef nonnull align 8 dereferenceable(16) %9) #3, !dbg !4412
  br label %141, !dbg !4412

135:                                              ; preds = %80, %59
  br label %136

136:                                              ; preds = %135, %55
  br label %137

137:                                              ; preds = %136, %46
  br label %138

138:                                              ; preds = %137, %39
  br label %139

139:                                              ; preds = %138, %32
  br label %140

140:                                              ; preds = %139
  ret void, !dbg !4415

141:                                              ; preds = %134, %81
  %142 = load ptr, ptr %10, align 8, !dbg !4391
  %143 = load i32, ptr %11, align 4, !dbg !4391
  %144 = insertvalue { ptr, i32 } poison, ptr %142, 0, !dbg !4391
  %145 = insertvalue { ptr, i32 } %144, i32 %143, 1, !dbg !4391
  resume { ptr, i32 } %145, !dbg !4391
}

; Function Attrs: mustprogress noinline nounwind optnone uwtable
define linkonce_odr dso_local noundef zeroext i1 @_ZSteqIcSt11char_traitsIcESaIcEEbRKNSt7__cxx1112basic_stringIT_T0_T1_EEPKS5_(ptr noundef nonnull align 8 dereferenceable(32) %0, ptr noundef %1) #7 comdat !dbg !4416 {
  %3 = alloca ptr, align 8
  %4 = alloca ptr, align 8
  store ptr %0, ptr %3, align 8
  call void @llvm.dbg.declare(metadata ptr %3, metadata !4419, metadata !DIExpression()), !dbg !4420
  store ptr %1, ptr %4, align 8
  call void @llvm.dbg.declare(metadata ptr %4, metadata !4421, metadata !DIExpression()), !dbg !4422
  %5 = load ptr, ptr %3, align 8, !dbg !4423
  %6 = load ptr, ptr %4, align 8, !dbg !4424
  %7 = call noundef i32 @_ZNKSt7__cxx1112basic_stringIcSt11char_traitsIcESaIcEE7compareEPKc(ptr noundef nonnull align 8 dereferenceable(32) %5, ptr noundef %6) #3, !dbg !4425
  %8 = icmp eq i32 %7, 0, !dbg !4426
  ret i1 %8, !dbg !4427
}

; Function Attrs: noreturn nounwind
declare void @exit(i32 noundef) #8

declare noundef nonnull align 8 dereferenceable(32) ptr @_ZNSt7__cxx1112basic_stringIcSt11char_traitsIcESaIcEEaSERKS4_(ptr noundef nonnull align 8 dereferenceable(32), ptr noundef nonnull align 8 dereferenceable(32)) #1

; Function Attrs: mustprogress noinline nounwind optnone uwtable
define linkonce_odr dso_local noundef nonnull align 4 dereferenceable(4) ptr @_ZSt3maxIiERKT_S2_S2_(ptr noundef nonnull align 4 dereferenceable(4) %0, ptr noundef nonnull align 4 dereferenceable(4) %1) #7 comdat !dbg !4428 {
  %3 = alloca ptr, align 8
  %4 = alloca ptr, align 8
  %5 = alloca ptr, align 8
  store ptr %0, ptr %4, align 8
  call void @llvm.dbg.declare(metadata ptr %4, metadata !4435, metadata !DIExpression()), !dbg !4437
  store ptr %1, ptr %5, align 8
  call void @llvm.dbg.declare(metadata ptr %5, metadata !4438, metadata !DIExpression()), !dbg !4439
  %6 = load ptr, ptr %4, align 8, !dbg !4440
  %7 = load i32, ptr %6, align 4, !dbg !4440
  %8 = load ptr, ptr %5, align 8, !dbg !4442
  %9 = load i32, ptr %8, align 4, !dbg !4442
  %10 = icmp slt i32 %7, %9, !dbg !4443
  br i1 %10, label %11, label %13, !dbg !4444

11:                                               ; preds = %2
  %12 = load ptr, ptr %5, align 8, !dbg !4445
  store ptr %12, ptr %3, align 8, !dbg !4446
  br label %15, !dbg !4446

13:                                               ; preds = %2
  %14 = load ptr, ptr %4, align 8, !dbg !4447
  store ptr %14, ptr %3, align 8, !dbg !4448
  br label %15, !dbg !4448

15:                                               ; preds = %13, %11
  %16 = load ptr, ptr %3, align 8, !dbg !4449
  ret ptr %16, !dbg !4449
}

; Function Attrs: mustprogress noinline optnone uwtable
define linkonce_odr dso_local noundef i32 @_ZNSt7__cxx114stoiERKNS_12basic_stringIcSt11char_traitsIcESaIcEEEPmi(ptr noundef nonnull align 8 dereferenceable(32) %0, ptr noundef %1, i32 noundef %2) #4 comdat !dbg !4450 {
  %4 = alloca ptr, align 8
  %5 = alloca ptr, align 8
  %6 = alloca i32, align 4
  store ptr %0, ptr %4, align 8
  call void @llvm.dbg.declare(metadata ptr %4, metadata !4453, metadata !DIExpression()), !dbg !4454
  store ptr %1, ptr %5, align 8
  call void @llvm.dbg.declare(metadata ptr %5, metadata !4455, metadata !DIExpression()), !dbg !4456
  store i32 %2, ptr %6, align 4
  call void @llvm.dbg.declare(metadata ptr %6, metadata !4457, metadata !DIExpression()), !dbg !4458
  %7 = load ptr, ptr %4, align 8, !dbg !4459
  %8 = call noundef ptr @_ZNKSt7__cxx1112basic_stringIcSt11char_traitsIcESaIcEE5c_strEv(ptr noundef nonnull align 8 dereferenceable(32) %7) #3, !dbg !4460
  %9 = load ptr, ptr %5, align 8, !dbg !4461
  %10 = load i32, ptr %6, align 4, !dbg !4462
  %11 = call noundef i32 @_ZN9__gnu_cxx6__stoaIlicJiEEET0_PFT_PKT1_PPS3_DpT2_EPKcS5_PmS9_(ptr noundef @strtol, ptr noundef @.str.25, ptr noundef %8, ptr noundef %9, i32 noundef %10), !dbg !4463
  ret i32 %11, !dbg !4464
}

; Function Attrs: nobuiltin allocsize(0)
declare noundef nonnull ptr @_Znwm(i64 noundef) #9

declare void @_ZN4Poco3Net17KeyConsoleHandlerC1Eb(ptr noundef nonnull align 8 dereferenceable(9), i1 noundef zeroext) unnamed_addr #1

; Function Attrs: nobuiltin nounwind
declare void @_ZdlPv(ptr noundef) #10

; Function Attrs: noinline optnone uwtable
define linkonce_odr dso_local void @_ZN4Poco9SharedPtrINS_3Net27PrivateKeyPassphraseHandlerENS_16ReferenceCounterENS_13ReleasePolicyIS2_EEEC2EPS2_(ptr noundef nonnull align 8 dereferenceable(16) %0, ptr noundef %1) unnamed_addr #6 comdat align 2 personality ptr @__gxx_personality_v0 !dbg !4465 {
  %3 = alloca ptr, align 8
  %4 = alloca ptr, align 8
  %5 = alloca ptr, align 8
  %6 = alloca i32, align 4
  %7 = alloca ptr, align 8
  %8 = alloca i1, align 1
  store ptr %0, ptr %3, align 8
  call void @llvm.dbg.declare(metadata ptr %3, metadata !4466, metadata !DIExpression()), !dbg !4468
  store ptr %1, ptr %4, align 8
  call void @llvm.dbg.declare(metadata ptr %4, metadata !4469, metadata !DIExpression()), !dbg !4470
  %9 = load ptr, ptr %3, align 8
  %10 = getelementptr inbounds %"class.Poco::SharedPtr.48", ptr %9, i32 0, i32 0, !dbg !4471
  %11 = load ptr, ptr %4, align 8, !dbg !4472
  %12 = icmp ne ptr %11, null, !dbg !4472
  store i1 false, ptr %8, align 1
  br i1 %12, label %13, label %17, !dbg !4472

13:                                               ; preds = %2
  %14 = invoke noalias noundef nonnull ptr @_Znwm(i64 noundef 4) #20
          to label %15 unwind label %22, !dbg !4473, !heapallocsite !2368

15:                                               ; preds = %13
  store ptr %14, ptr %7, align 8, !dbg !4473
  store i1 true, ptr %8, align 1, !dbg !4473
  invoke void @_ZN4Poco16ReferenceCounterC2Ev(ptr noundef nonnull align 4 dereferenceable(4) %14)
          to label %16 unwind label %26, !dbg !4474

16:                                               ; preds = %15
  br label %18, !dbg !4472

17:                                               ; preds = %2
  br label %18, !dbg !4472

18:                                               ; preds = %17, %16
  %19 = phi ptr [ %14, %16 ], [ null, %17 ], !dbg !4472
  store ptr %19, ptr %10, align 8, !dbg !4471
  %20 = getelementptr inbounds %"class.Poco::SharedPtr.48", ptr %9, i32 0, i32 1, !dbg !4475
  %21 = load ptr, ptr %4, align 8, !dbg !4476
  store ptr %21, ptr %20, align 8, !dbg !4475
  br label %44, !dbg !4477

22:                                               ; preds = %13
  %23 = landingpad { ptr, i32 }
          catch ptr null, !dbg !4479
  %24 = extractvalue { ptr, i32 } %23, 0, !dbg !4479
  store ptr %24, ptr %5, align 8, !dbg !4479
  %25 = extractvalue { ptr, i32 } %23, 1, !dbg !4479
  store i32 %25, ptr %6, align 4, !dbg !4479
  br label %34, !dbg !4479

26:                                               ; preds = %15
  %27 = landingpad { ptr, i32 }
          catch ptr null, !dbg !4479
  %28 = extractvalue { ptr, i32 } %27, 0, !dbg !4479
  store ptr %28, ptr %5, align 8, !dbg !4479
  %29 = extractvalue { ptr, i32 } %27, 1, !dbg !4479
  store i32 %29, ptr %6, align 4, !dbg !4479
  %30 = load i1, ptr %8, align 1, !dbg !4473
  br i1 %30, label %31, label %33, !dbg !4473

31:                                               ; preds = %26
  %32 = load ptr, ptr %7, align 8, !dbg !4473
  call void @_ZdlPv(ptr noundef %32) #21, !dbg !4473
  br label %33, !dbg !4473

33:                                               ; preds = %31, %26
  br label %34, !dbg !4473

34:                                               ; preds = %33, %22
  %35 = load ptr, ptr %5, align 8, !dbg !4477
  %36 = call ptr @__cxa_begin_catch(ptr %35) #3, !dbg !4477
  %37 = load ptr, ptr %4, align 8, !dbg !4480
  call void @_ZN4Poco13ReleasePolicyINS_3Net27PrivateKeyPassphraseHandlerEE7releaseEPS2_(ptr noundef %37) #3, !dbg !4482
  invoke void @__cxa_rethrow()
          to label %38 unwind label %39, !dbg !4483

38:                                               ; preds = %34
  unreachable, !dbg !4483

39:                                               ; preds = %34
  %40 = landingpad { ptr, i32 }
          cleanup, !dbg !4479
  %41 = extractvalue { ptr, i32 } %40, 0, !dbg !4479
  store ptr %41, ptr %5, align 8, !dbg !4479
  %42 = extractvalue { ptr, i32 } %40, 1, !dbg !4479
  store i32 %42, ptr %6, align 4, !dbg !4479
  invoke void @__cxa_end_catch()
          to label %43 unwind label %50, !dbg !4483

43:                                               ; preds = %39
  br label %45, !dbg !4483

44:                                               ; preds = %18
  ret void, !dbg !4479

45:                                               ; preds = %43
  %46 = load ptr, ptr %5, align 8, !dbg !4483
  %47 = load i32, ptr %6, align 4, !dbg !4483
  %48 = insertvalue { ptr, i32 } poison, ptr %46, 0, !dbg !4483
  %49 = insertvalue { ptr, i32 } %48, i32 %47, 1, !dbg !4483
  resume { ptr, i32 } %49, !dbg !4483

50:                                               ; preds = %39
  %51 = landingpad { ptr, i32 }
          catch ptr null, !dbg !4483
  %52 = extractvalue { ptr, i32 } %51, 0, !dbg !4483
  call void @__clang_call_terminate(ptr %52) #19, !dbg !4483
  unreachable, !dbg !4483
}

declare void @_ZN4Poco3Net24AcceptCertificateHandlerC1Eb(ptr noundef nonnull align 8 dereferenceable(9), i1 noundef zeroext) unnamed_addr #1

; Function Attrs: noinline optnone uwtable
define linkonce_odr dso_local void @_ZN4Poco9SharedPtrINS_3Net25InvalidCertificateHandlerENS_16ReferenceCounterENS_13ReleasePolicyIS2_EEEC2EPS2_(ptr noundef nonnull align 8 dereferenceable(16) %0, ptr noundef %1) unnamed_addr #6 comdat align 2 personality ptr @__gxx_personality_v0 !dbg !4484 {
  %3 = alloca ptr, align 8
  %4 = alloca ptr, align 8
  %5 = alloca ptr, align 8
  %6 = alloca i32, align 4
  %7 = alloca ptr, align 8
  %8 = alloca i1, align 1
  store ptr %0, ptr %3, align 8
  call void @llvm.dbg.declare(metadata ptr %3, metadata !4485, metadata !DIExpression()), !dbg !4487
  store ptr %1, ptr %4, align 8
  call void @llvm.dbg.declare(metadata ptr %4, metadata !4488, metadata !DIExpression()), !dbg !4489
  %9 = load ptr, ptr %3, align 8
  %10 = getelementptr inbounds %"class.Poco::SharedPtr.49", ptr %9, i32 0, i32 0, !dbg !4490
  %11 = load ptr, ptr %4, align 8, !dbg !4491
  %12 = icmp ne ptr %11, null, !dbg !4491
  store i1 false, ptr %8, align 1
  br i1 %12, label %13, label %17, !dbg !4491

13:                                               ; preds = %2
  %14 = invoke noalias noundef nonnull ptr @_Znwm(i64 noundef 4) #20
          to label %15 unwind label %22, !dbg !4492, !heapallocsite !2368

15:                                               ; preds = %13
  store ptr %14, ptr %7, align 8, !dbg !4492
  store i1 true, ptr %8, align 1, !dbg !4492
  invoke void @_ZN4Poco16ReferenceCounterC2Ev(ptr noundef nonnull align 4 dereferenceable(4) %14)
          to label %16 unwind label %26, !dbg !4493

16:                                               ; preds = %15
  br label %18, !dbg !4491

17:                                               ; preds = %2
  br label %18, !dbg !4491

18:                                               ; preds = %17, %16
  %19 = phi ptr [ %14, %16 ], [ null, %17 ], !dbg !4491
  store ptr %19, ptr %10, align 8, !dbg !4490
  %20 = getelementptr inbounds %"class.Poco::SharedPtr.49", ptr %9, i32 0, i32 1, !dbg !4494
  %21 = load ptr, ptr %4, align 8, !dbg !4495
  store ptr %21, ptr %20, align 8, !dbg !4494
  br label %44, !dbg !4496

22:                                               ; preds = %13
  %23 = landingpad { ptr, i32 }
          catch ptr null, !dbg !4498
  %24 = extractvalue { ptr, i32 } %23, 0, !dbg !4498
  store ptr %24, ptr %5, align 8, !dbg !4498
  %25 = extractvalue { ptr, i32 } %23, 1, !dbg !4498
  store i32 %25, ptr %6, align 4, !dbg !4498
  br label %34, !dbg !4498

26:                                               ; preds = %15
  %27 = landingpad { ptr, i32 }
          catch ptr null, !dbg !4498
  %28 = extractvalue { ptr, i32 } %27, 0, !dbg !4498
  store ptr %28, ptr %5, align 8, !dbg !4498
  %29 = extractvalue { ptr, i32 } %27, 1, !dbg !4498
  store i32 %29, ptr %6, align 4, !dbg !4498
  %30 = load i1, ptr %8, align 1, !dbg !4492
  br i1 %30, label %31, label %33, !dbg !4492

31:                                               ; preds = %26
  %32 = load ptr, ptr %7, align 8, !dbg !4492
  call void @_ZdlPv(ptr noundef %32) #21, !dbg !4492
  br label %33, !dbg !4492

33:                                               ; preds = %31, %26
  br label %34, !dbg !4492

34:                                               ; preds = %33, %22
  %35 = load ptr, ptr %5, align 8, !dbg !4496
  %36 = call ptr @__cxa_begin_catch(ptr %35) #3, !dbg !4496
  %37 = load ptr, ptr %4, align 8, !dbg !4499
  call void @_ZN4Poco13ReleasePolicyINS_3Net25InvalidCertificateHandlerEE7releaseEPS2_(ptr noundef %37) #3, !dbg !4501
  invoke void @__cxa_rethrow()
          to label %38 unwind label %39, !dbg !4502

38:                                               ; preds = %34
  unreachable, !dbg !4502

39:                                               ; preds = %34
  %40 = landingpad { ptr, i32 }
          cleanup, !dbg !4498
  %41 = extractvalue { ptr, i32 } %40, 0, !dbg !4498
  store ptr %41, ptr %5, align 8, !dbg !4498
  %42 = extractvalue { ptr, i32 } %40, 1, !dbg !4498
  store i32 %42, ptr %6, align 4, !dbg !4498
  invoke void @__cxa_end_catch()
          to label %43 unwind label %50, !dbg !4502

43:                                               ; preds = %39
  br label %45, !dbg !4502

44:                                               ; preds = %18
  ret void, !dbg !4498

45:                                               ; preds = %43
  %46 = load ptr, ptr %5, align 8, !dbg !4502
  %47 = load i32, ptr %6, align 4, !dbg !4502
  %48 = insertvalue { ptr, i32 } poison, ptr %46, 0, !dbg !4502
  %49 = insertvalue { ptr, i32 } %48, i32 %47, 1, !dbg !4502
  resume { ptr, i32 } %49, !dbg !4502

50:                                               ; preds = %39
  %51 = landingpad { ptr, i32 }
          catch ptr null, !dbg !4502
  %52 = extractvalue { ptr, i32 } %51, 0, !dbg !4502
  call void @__clang_call_terminate(ptr %52) #19, !dbg !4502
  unreachable, !dbg !4502
}

declare void @_ZN4Poco3Net7ContextC1ENS1_5UsageERKNSt7__cxx1112basic_stringIcSt11char_traitsIcESaIcEEENS1_16VerificationModeEibSA_(ptr noundef nonnull align 8 dereferenceable(56), i32 noundef, ptr noundef nonnull align 8 dereferenceable(32), i32 noundef, i32 noundef, i1 noundef zeroext, ptr noundef nonnull align 8 dereferenceable(32)) unnamed_addr #1

; Function Attrs: noinline nounwind optnone uwtable
define linkonce_odr dso_local void @_ZN4Poco7AutoPtrINS_3Net7ContextEEC2EPS2_(ptr noundef nonnull align 8 dereferenceable(8) %0, ptr noundef %1) unnamed_addr #11 comdat align 2 !dbg !4503 {
  %3 = alloca ptr, align 8
  %4 = alloca ptr, align 8
  store ptr %0, ptr %3, align 8
  call void @llvm.dbg.declare(metadata ptr %3, metadata !4504, metadata !DIExpression()), !dbg !4506
  store ptr %1, ptr %4, align 8
  call void @llvm.dbg.declare(metadata ptr %4, metadata !4507, metadata !DIExpression()), !dbg !4508
  %5 = load ptr, ptr %3, align 8
  %6 = getelementptr inbounds %"class.Poco::AutoPtr.50", ptr %5, i32 0, i32 0, !dbg !4509
  %7 = load ptr, ptr %4, align 8, !dbg !4510
  store ptr %7, ptr %6, align 8, !dbg !4509
  ret void, !dbg !4511
}

declare noundef nonnull align 8 dereferenceable(560) ptr @_ZN4Poco3Net10SSLManager8instanceEv() #1

declare void @_ZN4Poco3Net10SSLManager16initializeClientENS_9SharedPtrINS0_27PrivateKeyPassphraseHandlerENS_16ReferenceCounterENS_13ReleasePolicyIS3_EEEENS2_INS0_25InvalidCertificateHandlerES4_NS5_IS8_EEEENS_7AutoPtrINS0_7ContextEEE(ptr noundef nonnull align 8 dereferenceable(560), ptr noundef, ptr noundef, ptr noundef) #1

; Function Attrs: noinline optnone uwtable
define linkonce_odr dso_local void @_ZN4Poco9SharedPtrINS_3Net27PrivateKeyPassphraseHandlerENS_16ReferenceCounterENS_13ReleasePolicyIS2_EEEC2ERKS6_(ptr noundef nonnull align 8 dereferenceable(16) %0, ptr noundef nonnull align 8 dereferenceable(16) %1) unnamed_addr #6 comdat align 2 !dbg !4512 {
  %3 = alloca ptr, align 8
  %4 = alloca ptr, align 8
  store ptr %0, ptr %3, align 8
  call void @llvm.dbg.declare(metadata ptr %3, metadata !4513, metadata !DIExpression()), !dbg !4514
  store ptr %1, ptr %4, align 8
  call void @llvm.dbg.declare(metadata ptr %4, metadata !4515, metadata !DIExpression()), !dbg !4516
  %5 = load ptr, ptr %3, align 8
  %6 = getelementptr inbounds %"class.Poco::SharedPtr.48", ptr %5, i32 0, i32 0, !dbg !4517
  %7 = load ptr, ptr %4, align 8, !dbg !4518
  %8 = getelementptr inbounds %"class.Poco::SharedPtr.48", ptr %7, i32 0, i32 0, !dbg !4519
  %9 = load ptr, ptr %8, align 8, !dbg !4519
  store ptr %9, ptr %6, align 8, !dbg !4517
  %10 = getelementptr inbounds %"class.Poco::SharedPtr.48", ptr %5, i32 0, i32 1, !dbg !4520
  %11 = load ptr, ptr %4, align 8, !dbg !4521
  %12 = getelementptr inbounds %"class.Poco::SharedPtr.48", ptr %11, i32 0, i32 1, !dbg !4522
  %13 = load ptr, ptr %12, align 8, !dbg !4522
  store ptr %13, ptr %10, align 8, !dbg !4520
  %14 = getelementptr inbounds %"class.Poco::SharedPtr.48", ptr %5, i32 0, i32 0, !dbg !4523
  %15 = load ptr, ptr %14, align 8, !dbg !4523
  %16 = icmp ne ptr %15, null, !dbg !4523
  br i1 %16, label %17, label %20, !dbg !4526

17:                                               ; preds = %2
  %18 = getelementptr inbounds %"class.Poco::SharedPtr.48", ptr %5, i32 0, i32 0, !dbg !4527
  %19 = load ptr, ptr %18, align 8, !dbg !4527
  call void @_ZN4Poco16ReferenceCounter9duplicateEv(ptr noundef nonnull align 4 dereferenceable(4) %19), !dbg !4528
  br label %20, !dbg !4527

20:                                               ; preds = %17, %2
  ret void, !dbg !4529
}

; Function Attrs: noinline optnone uwtable
define linkonce_odr dso_local void @_ZN4Poco9SharedPtrINS_3Net25InvalidCertificateHandlerENS_16ReferenceCounterENS_13ReleasePolicyIS2_EEEC2ERKS6_(ptr noundef nonnull align 8 dereferenceable(16) %0, ptr noundef nonnull align 8 dereferenceable(16) %1) unnamed_addr #6 comdat align 2 !dbg !4530 {
  %3 = alloca ptr, align 8
  %4 = alloca ptr, align 8
  store ptr %0, ptr %3, align 8
  call void @llvm.dbg.declare(metadata ptr %3, metadata !4531, metadata !DIExpression()), !dbg !4532
  store ptr %1, ptr %4, align 8
  call void @llvm.dbg.declare(metadata ptr %4, metadata !4533, metadata !DIExpression()), !dbg !4534
  %5 = load ptr, ptr %3, align 8
  %6 = getelementptr inbounds %"class.Poco::SharedPtr.49", ptr %5, i32 0, i32 0, !dbg !4535
  %7 = load ptr, ptr %4, align 8, !dbg !4536
  %8 = getelementptr inbounds %"class.Poco::SharedPtr.49", ptr %7, i32 0, i32 0, !dbg !4537
  %9 = load ptr, ptr %8, align 8, !dbg !4537
  store ptr %9, ptr %6, align 8, !dbg !4535
  %10 = getelementptr inbounds %"class.Poco::SharedPtr.49", ptr %5, i32 0, i32 1, !dbg !4538
  %11 = load ptr, ptr %4, align 8, !dbg !4539
  %12 = getelementptr inbounds %"class.Poco::SharedPtr.49", ptr %11, i32 0, i32 1, !dbg !4540
  %13 = load ptr, ptr %12, align 8, !dbg !4540
  store ptr %13, ptr %10, align 8, !dbg !4538
  %14 = getelementptr inbounds %"class.Poco::SharedPtr.49", ptr %5, i32 0, i32 0, !dbg !4541
  %15 = load ptr, ptr %14, align 8, !dbg !4541
  %16 = icmp ne ptr %15, null, !dbg !4541
  br i1 %16, label %17, label %20, !dbg !4544

17:                                               ; preds = %2
  %18 = getelementptr inbounds %"class.Poco::SharedPtr.49", ptr %5, i32 0, i32 0, !dbg !4545
  %19 = load ptr, ptr %18, align 8, !dbg !4545
  call void @_ZN4Poco16ReferenceCounter9duplicateEv(ptr noundef nonnull align 4 dereferenceable(4) %19), !dbg !4546
  br label %20, !dbg !4545

20:                                               ; preds = %17, %2
  ret void, !dbg !4547
}

; Function Attrs: noinline optnone uwtable
define linkonce_odr dso_local void @_ZN4Poco7AutoPtrINS_3Net7ContextEEC2ERKS3_(ptr noundef nonnull align 8 dereferenceable(8) %0, ptr noundef nonnull align 8 dereferenceable(8) %1) unnamed_addr #6 comdat align 2 !dbg !4548 {
  %3 = alloca ptr, align 8
  %4 = alloca ptr, align 8
  store ptr %0, ptr %3, align 8
  call void @llvm.dbg.declare(metadata ptr %3, metadata !4549, metadata !DIExpression()), !dbg !4550
  store ptr %1, ptr %4, align 8
  call void @llvm.dbg.declare(metadata ptr %4, metadata !4551, metadata !DIExpression()), !dbg !4552
  %5 = load ptr, ptr %3, align 8
  %6 = getelementptr inbounds %"class.Poco::AutoPtr.50", ptr %5, i32 0, i32 0, !dbg !4553
  %7 = load ptr, ptr %4, align 8, !dbg !4554
  %8 = getelementptr inbounds %"class.Poco::AutoPtr.50", ptr %7, i32 0, i32 0, !dbg !4555
  %9 = load ptr, ptr %8, align 8, !dbg !4555
  store ptr %9, ptr %6, align 8, !dbg !4553
  %10 = getelementptr inbounds %"class.Poco::AutoPtr.50", ptr %5, i32 0, i32 0, !dbg !4556
  %11 = load ptr, ptr %10, align 8, !dbg !4556
  %12 = icmp ne ptr %11, null, !dbg !4556
  br i1 %12, label %13, label %16, !dbg !4559

13:                                               ; preds = %2
  %14 = getelementptr inbounds %"class.Poco::AutoPtr.50", ptr %5, i32 0, i32 0, !dbg !4560
  %15 = load ptr, ptr %14, align 8, !dbg !4560
  call void @_ZNK4Poco16RefCountedObject9duplicateEv(ptr noundef nonnull align 8 dereferenceable(12) %15), !dbg !4561
  br label %16, !dbg !4560

16:                                               ; preds = %13, %2
  ret void, !dbg !4562
}

; Function Attrs: noinline nounwind optnone uwtable
define linkonce_odr dso_local void @_ZN4Poco7AutoPtrINS_3Net7ContextEED2Ev(ptr noundef nonnull align 8 dereferenceable(8) %0) unnamed_addr #11 comdat align 2 !dbg !4563 {
  %2 = alloca ptr, align 8
  store ptr %0, ptr %2, align 8
  call void @llvm.dbg.declare(metadata ptr %2, metadata !4564, metadata !DIExpression()), !dbg !4565
  %3 = load ptr, ptr %2, align 8
  %4 = getelementptr inbounds %"class.Poco::AutoPtr.50", ptr %3, i32 0, i32 0, !dbg !4566
  %5 = load ptr, ptr %4, align 8, !dbg !4566
  %6 = icmp ne ptr %5, null, !dbg !4566
  br i1 %6, label %7, label %10, !dbg !4569

7:                                                ; preds = %1
  %8 = getelementptr inbounds %"class.Poco::AutoPtr.50", ptr %3, i32 0, i32 0, !dbg !4570
  %9 = load ptr, ptr %8, align 8, !dbg !4570
  call void @_ZNK4Poco16RefCountedObject7releaseEv(ptr noundef nonnull align 8 dereferenceable(12) %9) #3, !dbg !4571
  br label %10, !dbg !4570

10:                                               ; preds = %7, %1
  ret void, !dbg !4572
}

; Function Attrs: noinline nounwind optnone uwtable
define linkonce_odr dso_local void @_ZN4Poco9SharedPtrINS_3Net25InvalidCertificateHandlerENS_16ReferenceCounterENS_13ReleasePolicyIS2_EEED2Ev(ptr noundef nonnull align 8 dereferenceable(16) %0) unnamed_addr #11 comdat align 2 !dbg !4573 {
  %2 = alloca ptr, align 8
  store ptr %0, ptr %2, align 8
  call void @llvm.dbg.declare(metadata ptr %2, metadata !4574, metadata !DIExpression()), !dbg !4575
  %3 = load ptr, ptr %2, align 8
  call void @_ZN4Poco9SharedPtrINS_3Net25InvalidCertificateHandlerENS_16ReferenceCounterENS_13ReleasePolicyIS2_EEE7releaseEv(ptr noundef nonnull align 8 dereferenceable(16) %3) #3, !dbg !4576
  ret void, !dbg !4578
}

; Function Attrs: noinline nounwind optnone uwtable
define linkonce_odr dso_local void @_ZN4Poco9SharedPtrINS_3Net27PrivateKeyPassphraseHandlerENS_16ReferenceCounterENS_13ReleasePolicyIS2_EEED2Ev(ptr noundef nonnull align 8 dereferenceable(16) %0) unnamed_addr #11 comdat align 2 !dbg !4579 {
  %2 = alloca ptr, align 8
  store ptr %0, ptr %2, align 8
  call void @llvm.dbg.declare(metadata ptr %2, metadata !4580, metadata !DIExpression()), !dbg !4581
  %3 = load ptr, ptr %2, align 8
  call void @_ZN4Poco9SharedPtrINS_3Net27PrivateKeyPassphraseHandlerENS_16ReferenceCounterENS_13ReleasePolicyIS2_EEE7releaseEv(ptr noundef nonnull align 8 dereferenceable(16) %3) #3, !dbg !4582
  ret void, !dbg !4584
}

; Function Attrs: mustprogress noinline optnone uwtable
define dso_local noundef ptr @_Z12workerThreadPv(ptr noundef %0) #4 personality ptr @__gxx_personality_v0 !dbg !4585 {
  %2 = alloca ptr, align 8
  %3 = alloca ptr, align 8
  %4 = alloca %class.Worker, align 8
  %5 = alloca ptr, align 8
  %6 = alloca i32, align 4
  store ptr %0, ptr %2, align 8
  call void @llvm.dbg.declare(metadata ptr %2, metadata !4588, metadata !DIExpression()), !dbg !4589
  call void @llvm.dbg.declare(metadata ptr %3, metadata !4590, metadata !DIExpression()), !dbg !4591
  %7 = load ptr, ptr %2, align 8, !dbg !4592
  store ptr %7, ptr %3, align 8, !dbg !4591
  call void @llvm.dbg.declare(metadata ptr %4, metadata !4593, metadata !DIExpression()), !dbg !4609
  %8 = load ptr, ptr %3, align 8, !dbg !4610
  %9 = getelementptr inbounds %struct.ThreadData, ptr %8, i32 0, i32 0, !dbg !4611
  %10 = load ptr, ptr %9, align 8, !dbg !4611
  %11 = load ptr, ptr %3, align 8, !dbg !4612
  %12 = getelementptr inbounds %struct.ThreadData, ptr %11, i32 0, i32 1, !dbg !4613
  %13 = load ptr, ptr %12, align 8, !dbg !4613
  call void @_ZN6WorkerC2ER4ToolRKSt6vectorINSt7__cxx1112basic_stringIcSt11char_traitsIcESaIcEEESaIS8_EE(ptr noundef nonnull align 8 dereferenceable(40) %4, ptr noundef nonnull align 8 dereferenceable(328) %10, ptr noundef nonnull align 8 dereferenceable(24) %13), !dbg !4609
  invoke void @_ZN6Worker3runEv(ptr noundef nonnull align 8 dereferenceable(40) %4)
          to label %14 unwind label %19, !dbg !4614

14:                                               ; preds = %1
  %15 = load ptr, ptr %3, align 8, !dbg !4615
  %16 = icmp eq ptr %15, null, !dbg !4616
  br i1 %16, label %18, label %17, !dbg !4616

17:                                               ; preds = %14
  call void @_ZdlPv(ptr noundef %15) #21, !dbg !4616
  br label %18, !dbg !4616

18:                                               ; preds = %17, %14
  call void @_ZN6WorkerD2Ev(ptr noundef nonnull align 8 dereferenceable(40) %4) #3, !dbg !4617
  ret ptr null, !dbg !4617

19:                                               ; preds = %1
  %20 = landingpad { ptr, i32 }
          cleanup, !dbg !4617
  %21 = extractvalue { ptr, i32 } %20, 0, !dbg !4617
  store ptr %21, ptr %5, align 8, !dbg !4617
  %22 = extractvalue { ptr, i32 } %20, 1, !dbg !4617
  store i32 %22, ptr %6, align 4, !dbg !4617
  call void @_ZN6WorkerD2Ev(ptr noundef nonnull align 8 dereferenceable(40) %4) #3, !dbg !4617
  br label %23, !dbg !4617

23:                                               ; preds = %19
  %24 = load ptr, ptr %5, align 8, !dbg !4617
  %25 = load i32, ptr %6, align 4, !dbg !4617
  %26 = insertvalue { ptr, i32 } poison, ptr %24, 0, !dbg !4617
  %27 = insertvalue { ptr, i32 } %26, i32 %25, 1, !dbg !4617
  resume { ptr, i32 } %27, !dbg !4617
}

; Function Attrs: noinline optnone uwtable
define linkonce_odr dso_local void @_ZN6WorkerC2ER4ToolRKSt6vectorINSt7__cxx1112basic_stringIcSt11char_traitsIcESaIcEEESaIS8_EE(ptr noundef nonnull align 8 dereferenceable(40) %0, ptr noundef nonnull align 8 dereferenceable(328) %1, ptr noundef nonnull align 8 dereferenceable(24) %2) unnamed_addr #6 comdat align 2 personality ptr @__gxx_personality_v0 !dbg !4618 {
  %4 = alloca ptr, align 8
  %5 = alloca ptr, align 8
  %6 = alloca ptr, align 8
  %7 = alloca ptr, align 8
  %8 = alloca i32, align 4
  store ptr %0, ptr %4, align 8
  call void @llvm.dbg.declare(metadata ptr %4, metadata !4619, metadata !DIExpression()), !dbg !4621
  store ptr %1, ptr %5, align 8
  call void @llvm.dbg.declare(metadata ptr %5, metadata !4622, metadata !DIExpression()), !dbg !4623
  store ptr %2, ptr %6, align 8
  call void @llvm.dbg.declare(metadata ptr %6, metadata !4624, metadata !DIExpression()), !dbg !4625
  %9 = load ptr, ptr %4, align 8
  call void @_ZN4Poco8RunnableC2Ev(ptr noundef nonnull align 8 dereferenceable(8) %9), !dbg !4626
  store ptr getelementptr inbounds ({ [5 x ptr] }, ptr @_ZTV6Worker, i32 0, inrange i32 0, i32 2), ptr %9, align 8, !dbg !4627
  %10 = getelementptr inbounds %class.Worker, ptr %9, i32 0, i32 1, !dbg !4628
  %11 = load ptr, ptr %5, align 8, !dbg !4629
  store ptr %11, ptr %10, align 8, !dbg !4628
  %12 = getelementptr inbounds %class.Worker, ptr %9, i32 0, i32 2, !dbg !4630
  %13 = load ptr, ptr %6, align 8, !dbg !4631
  invoke void @_ZNSt6vectorINSt7__cxx1112basic_stringIcSt11char_traitsIcESaIcEEESaIS5_EEC2ERKS7_(ptr noundef nonnull align 8 dereferenceable(24) %12, ptr noundef nonnull align 8 dereferenceable(24) %13)
          to label %14 unwind label %15, !dbg !4630

14:                                               ; preds = %3
  ret void, !dbg !4632

15:                                               ; preds = %3
  %16 = landingpad { ptr, i32 }
          cleanup, !dbg !4632
  %17 = extractvalue { ptr, i32 } %16, 0, !dbg !4632
  store ptr %17, ptr %7, align 8, !dbg !4632
  %18 = extractvalue { ptr, i32 } %16, 1, !dbg !4632
  store i32 %18, ptr %8, align 4, !dbg !4632
  call void @_ZN4Poco8RunnableD2Ev(ptr noundef nonnull align 8 dereferenceable(8) %9) #3, !dbg !4633
  br label %19, !dbg !4633

19:                                               ; preds = %15
  %20 = load ptr, ptr %7, align 8, !dbg !4633
  %21 = load i32, ptr %8, align 4, !dbg !4633
  %22 = insertvalue { ptr, i32 } poison, ptr %20, 0, !dbg !4633
  %23 = insertvalue { ptr, i32 } %22, i32 %21, 1, !dbg !4633
  resume { ptr, i32 } %23, !dbg !4633
}

; Function Attrs: mustprogress noinline optnone uwtable
define linkonce_odr dso_local void @_ZN6Worker3runEv(ptr noundef nonnull align 8 dereferenceable(40) %0) unnamed_addr #4 comdat align 2 !dbg !4635 {
  %2 = alloca ptr, align 8
  %3 = alloca ptr, align 8
  %4 = alloca %"class.__gnu_cxx::__normal_iterator", align 8
  %5 = alloca %"class.__gnu_cxx::__normal_iterator", align 8
  %6 = alloca ptr, align 8
  store ptr %0, ptr %2, align 8
  call void @llvm.dbg.declare(metadata ptr %2, metadata !4636, metadata !DIExpression()), !dbg !4637
  %7 = load ptr, ptr %2, align 8
  call void @llvm.dbg.declare(metadata ptr %3, metadata !4638, metadata !DIExpression()), !dbg !4640
  %8 = getelementptr inbounds %class.Worker, ptr %7, i32 0, i32 2, !dbg !4641
  store ptr %8, ptr %3, align 8, !dbg !4641
  call void @llvm.dbg.declare(metadata ptr %4, metadata !4642, metadata !DIExpression()), !dbg !4640
  %9 = load ptr, ptr %3, align 8, !dbg !4643
  %10 = call ptr @_ZNSt6vectorINSt7__cxx1112basic_stringIcSt11char_traitsIcESaIcEEESaIS5_EE5beginEv(ptr noundef nonnull align 8 dereferenceable(24) %9) #3, !dbg !4643
  %11 = getelementptr inbounds %"class.__gnu_cxx::__normal_iterator", ptr %4, i32 0, i32 0, !dbg !4643
  store ptr %10, ptr %11, align 8, !dbg !4643
  call void @llvm.dbg.declare(metadata ptr %5, metadata !4644, metadata !DIExpression()), !dbg !4640
  %12 = load ptr, ptr %3, align 8, !dbg !4643
  %13 = call ptr @_ZNSt6vectorINSt7__cxx1112basic_stringIcSt11char_traitsIcESaIcEEESaIS5_EE3endEv(ptr noundef nonnull align 8 dereferenceable(24) %12) #3, !dbg !4643
  %14 = getelementptr inbounds %"class.__gnu_cxx::__normal_iterator", ptr %5, i32 0, i32 0, !dbg !4643
  store ptr %13, ptr %14, align 8, !dbg !4643
  br label %15, !dbg !4643

15:                                               ; preds = %20, %1
  %16 = call noundef zeroext i1 @_ZN9__gnu_cxxneIPNSt7__cxx1112basic_stringIcSt11char_traitsIcESaIcEEESt6vectorIS6_SaIS6_EEEEbRKNS_17__normal_iteratorIT_T0_EESG_(ptr noundef nonnull align 8 dereferenceable(8) %4, ptr noundef nonnull align 8 dereferenceable(8) %5) #3, !dbg !4643
  br i1 %16, label %17, label %22, !dbg !4643

17:                                               ; preds = %15
  call void @llvm.dbg.declare(metadata ptr %6, metadata !4645, metadata !DIExpression()), !dbg !4647
  %18 = call noundef nonnull align 8 dereferenceable(32) ptr @_ZNK9__gnu_cxx17__normal_iteratorIPNSt7__cxx1112basic_stringIcSt11char_traitsIcESaIcEEESt6vectorIS6_SaIS6_EEEdeEv(ptr noundef nonnull align 8 dereferenceable(8) %4) #3, !dbg !4648
  store ptr %18, ptr %6, align 8, !dbg !4647
  %19 = load ptr, ptr %6, align 8, !dbg !4649
  call void @_ZN6Worker11convertFileERKNSt7__cxx1112basic_stringIcSt11char_traitsIcESaIcEEE(ptr noundef nonnull align 8 dereferenceable(40) %7, ptr noundef nonnull align 8 dereferenceable(32) %19), !dbg !4650
  br label %20, !dbg !4651

20:                                               ; preds = %17
  %21 = call noundef nonnull align 8 dereferenceable(8) ptr @_ZN9__gnu_cxx17__normal_iteratorIPNSt7__cxx1112basic_stringIcSt11char_traitsIcESaIcEEESt6vectorIS6_SaIS6_EEEppEv(ptr noundef nonnull align 8 dereferenceable(8) %4) #3, !dbg !4643
  br label %15, !dbg !4643, !llvm.loop !4652

22:                                               ; preds = %15
  ret void, !dbg !4654
}

; Function Attrs: noinline nounwind optnone uwtable
define linkonce_odr dso_local void @_ZN6WorkerD2Ev(ptr noundef nonnull align 8 dereferenceable(40) %0) unnamed_addr #11 comdat align 2 !dbg !4655 {
  %2 = alloca ptr, align 8
  store ptr %0, ptr %2, align 8
  call void @llvm.dbg.declare(metadata ptr %2, metadata !4657, metadata !DIExpression()), !dbg !4658
  %3 = load ptr, ptr %2, align 8
  store ptr getelementptr inbounds ({ [5 x ptr] }, ptr @_ZTV6Worker, i32 0, inrange i32 0, i32 2), ptr %3, align 8, !dbg !4659
  %4 = getelementptr inbounds %class.Worker, ptr %3, i32 0, i32 2, !dbg !4660
  call void @_ZNSt6vectorINSt7__cxx1112basic_stringIcSt11char_traitsIcESaIcEEESaIS5_EED2Ev(ptr noundef nonnull align 8 dereferenceable(24) %4) #3, !dbg !4660
  call void @_ZN4Poco8RunnableD2Ev(ptr noundef nonnull align 8 dereferenceable(8) %3) #3, !dbg !4660
  ret void, !dbg !4659
}

; Function Attrs: mustprogress noinline optnone uwtable
define dso_local noundef i32 @_ZN4Tool4mainERKSt6vectorINSt7__cxx1112basic_stringIcSt11char_traitsIcESaIcEEESaIS6_EE(ptr noundef nonnull align 8 dereferenceable(328) %0, ptr noundef nonnull align 8 dereferenceable(24) %1) unnamed_addr #4 align 2 personality ptr @__gxx_personality_v0 !dbg !4662 {
  %3 = alloca i32, align 4
  %4 = alloca ptr, align 8
  %5 = alloca ptr, align 8
  %6 = alloca %"class.std::vector.36", align 8
  %7 = alloca i32, align 4
  %8 = alloca %"class.__gnu_cxx::__normal_iterator.81", align 8
  %9 = alloca %"class.__gnu_cxx::__normal_iterator", align 8
  %10 = alloca ptr, align 8
  %11 = alloca i32, align 4
  %12 = alloca %"class.__gnu_cxx::__normal_iterator", align 8
  %13 = alloca %"class.std::__cxx11::basic_string", align 8
  %14 = alloca %"class.std::__cxx11::basic_string", align 8
  %15 = alloca %"class.std::__cxx11::basic_string", align 8
  %16 = alloca %"class.std::__cxx11::basic_string", align 8
  %17 = alloca i32, align 4
  %18 = alloca i64, align 8
  %19 = alloca %"class.__gnu_cxx::__normal_iterator.81", align 8
  %20 = alloca %"class.__gnu_cxx::__normal_iterator", align 8
  %21 = alloca %"class.__gnu_cxx::__normal_iterator", align 8
  %22 = alloca %"class.std::__cxx11::basic_string", align 8
  %23 = alloca %"class.std::__cxx11::basic_string", align 8
  %24 = alloca %"class.std::vector.82", align 8
  %25 = alloca %"class.std::allocator.84", align 1
  %26 = alloca i64, align 8
  %27 = alloca i64, align 8
  %28 = alloca i32, align 4
  %29 = alloca i64, align 8
  %30 = alloca i64, align 8
  %31 = alloca %"class.std::vector.36", align 8
  %32 = alloca %"class.std::allocator.38", align 1
  %33 = alloca %"class.__gnu_cxx::__normal_iterator", align 8
  %34 = alloca %"class.__gnu_cxx::__normal_iterator", align 8
  %35 = alloca %"class.__gnu_cxx::__normal_iterator", align 8
  %36 = alloca %"class.__gnu_cxx::__normal_iterator", align 8
  %37 = alloca %"class.__gnu_cxx::__normal_iterator", align 8
  %38 = alloca %"class.__gnu_cxx::__normal_iterator", align 8
  %39 = alloca %"class.__gnu_cxx::__normal_iterator", align 8
  %40 = alloca ptr, align 8
  %41 = alloca i32, align 4
  %42 = alloca ptr, align 8
  %43 = alloca %"class.__gnu_cxx::__normal_iterator.87", align 8
  %44 = alloca %"class.__gnu_cxx::__normal_iterator.87", align 8
  %45 = alloca ptr, align 8
  store ptr %0, ptr %4, align 8
  call void @llvm.dbg.declare(metadata ptr %4, metadata !4663, metadata !DIExpression()), !dbg !4664
  store ptr %1, ptr %5, align 8
  call void @llvm.dbg.declare(metadata ptr %5, metadata !4665, metadata !DIExpression()), !dbg !4666
  %46 = load ptr, ptr %4, align 8
  call void @llvm.dbg.declare(metadata ptr %6, metadata !4667, metadata !DIExpression()), !dbg !4668
  %47 = load ptr, ptr %5, align 8, !dbg !4669
  call void @_ZNSt6vectorINSt7__cxx1112basic_stringIcSt11char_traitsIcESaIcEEESaIS5_EEC2ERKS7_(ptr noundef nonnull align 8 dereferenceable(24) %6, ptr noundef nonnull align 8 dereferenceable(24) %47), !dbg !4669
  call void @llvm.dbg.declare(metadata ptr %7, metadata !4670, metadata !DIExpression()), !dbg !4672
  store i32 0, ptr %7, align 4, !dbg !4672
  br label %48, !dbg !4673

48:                                               ; preds = %188, %2
  %49 = load i32, ptr %7, align 4, !dbg !4674
  %50 = zext i32 %49 to i64, !dbg !4674
  %51 = load ptr, ptr %5, align 8, !dbg !4676
  %52 = call noundef i64 @_ZNKSt6vectorINSt7__cxx1112basic_stringIcSt11char_traitsIcESaIcEEESaIS5_EE4sizeEv(ptr noundef nonnull align 8 dereferenceable(24) %51) #3, !dbg !4677
  %53 = icmp ult i64 %50, %52, !dbg !4678
  br i1 %53, label %54, label %191, !dbg !4679

54:                                               ; preds = %48
  %55 = load ptr, ptr %5, align 8, !dbg !4680
  %56 = load i32, ptr %7, align 4, !dbg !4683
  %57 = zext i32 %56 to i64, !dbg !4683
  %58 = call noundef nonnull align 8 dereferenceable(32) ptr @_ZNKSt6vectorINSt7__cxx1112basic_stringIcSt11char_traitsIcESaIcEEESaIS5_EEixEm(ptr noundef nonnull align 8 dereferenceable(24) %55, i64 noundef %57) #3, !dbg !4680
  %59 = call noundef i64 @_ZNKSt7__cxx1112basic_stringIcSt11char_traitsIcESaIcEE6lengthEv(ptr noundef nonnull align 8 dereferenceable(32) %58) #3, !dbg !4684
  %60 = icmp ugt i64 %59, 0, !dbg !4685
  br i1 %60, label %61, label %71, !dbg !4686

61:                                               ; preds = %54
  %62 = load ptr, ptr %5, align 8, !dbg !4687
  %63 = load i32, ptr %7, align 4, !dbg !4688
  %64 = zext i32 %63 to i64, !dbg !4688
  %65 = call noundef nonnull align 8 dereferenceable(32) ptr @_ZNKSt6vectorINSt7__cxx1112basic_stringIcSt11char_traitsIcESaIcEEESaIS5_EEixEm(ptr noundef nonnull align 8 dereferenceable(24) %62, i64 noundef %64) #3, !dbg !4687
  %66 = call noundef nonnull align 1 dereferenceable(1) ptr @_ZNKSt7__cxx1112basic_stringIcSt11char_traitsIcESaIcEEixEm(ptr noundef nonnull align 8 dereferenceable(32) %65, i64 noundef 0) #3, !dbg !4687
  %67 = load i8, ptr %66, align 1, !dbg !4687
  %68 = sext i8 %67 to i32, !dbg !4687
  %69 = icmp ne i32 %68, 45, !dbg !4689
  br i1 %69, label %70, label %71, !dbg !4690

70:                                               ; preds = %61
  br label %191, !dbg !4691

71:                                               ; preds = %61, %54
  %72 = call ptr @_ZNSt6vectorINSt7__cxx1112basic_stringIcSt11char_traitsIcESaIcEEESaIS5_EE5beginEv(ptr noundef nonnull align 8 dereferenceable(24) %6) #3, !dbg !4692
  %73 = getelementptr inbounds %"class.__gnu_cxx::__normal_iterator", ptr %9, i32 0, i32 0, !dbg !4692
  store ptr %72, ptr %73, align 8, !dbg !4692
  call void @_ZN9__gnu_cxx17__normal_iteratorIPKNSt7__cxx1112basic_stringIcSt11char_traitsIcESaIcEEESt6vectorIS6_SaIS6_EEEC2IPS6_EERKNS0_IT_NS_11__enable_ifIXsr3std10__are_sameISF_SE_EE7__valueESB_E6__typeEEE(ptr noundef nonnull align 8 dereferenceable(8) %8, ptr noundef nonnull align 8 dereferenceable(8) %9) #3, !dbg !4693
  %74 = getelementptr inbounds %"class.__gnu_cxx::__normal_iterator.81", ptr %8, i32 0, i32 0, !dbg !4694
  %75 = load ptr, ptr %74, align 8, !dbg !4694
  %76 = invoke ptr @_ZNSt6vectorINSt7__cxx1112basic_stringIcSt11char_traitsIcESaIcEEESaIS5_EE5eraseEN9__gnu_cxx17__normal_iteratorIPKS5_S7_EE(ptr noundef nonnull align 8 dereferenceable(24) %6, ptr %75)
          to label %77 unwind label %101, !dbg !4694

77:                                               ; preds = %71
  %78 = getelementptr inbounds %"class.__gnu_cxx::__normal_iterator", ptr %12, i32 0, i32 0, !dbg !4694
  store ptr %76, ptr %78, align 8, !dbg !4694
  call void @llvm.dbg.declare(metadata ptr %13, metadata !4695, metadata !DIExpression()), !dbg !4696
  call void @_ZNSt7__cxx1112basic_stringIcSt11char_traitsIcESaIcEEC1Ev(ptr noundef nonnull align 8 dereferenceable(32) %13) #3, !dbg !4696
  call void @llvm.dbg.declare(metadata ptr %14, metadata !4697, metadata !DIExpression()), !dbg !4698
  call void @_ZNSt7__cxx1112basic_stringIcSt11char_traitsIcESaIcEEC1Ev(ptr noundef nonnull align 8 dereferenceable(32) %14) #3, !dbg !4698
  %79 = load ptr, ptr %5, align 8, !dbg !4699
  %80 = load i32, ptr %7, align 4, !dbg !4701
  %81 = zext i32 %80 to i64, !dbg !4701
  %82 = call noundef nonnull align 8 dereferenceable(32) ptr @_ZNKSt6vectorINSt7__cxx1112basic_stringIcSt11char_traitsIcESaIcEEESaIS5_EEixEm(ptr noundef nonnull align 8 dereferenceable(24) %79, i64 noundef %81) #3, !dbg !4699
  %83 = call noundef i64 @_ZNKSt7__cxx1112basic_stringIcSt11char_traitsIcESaIcEE6lengthEv(ptr noundef nonnull align 8 dereferenceable(32) %82) #3, !dbg !4702
  %84 = icmp ugt i64 %83, 1, !dbg !4703
  br i1 %84, label %85, label %109, !dbg !4704

85:                                               ; preds = %77
  %86 = load ptr, ptr %5, align 8, !dbg !4705
  %87 = load i32, ptr %7, align 4, !dbg !4706
  %88 = zext i32 %87 to i64, !dbg !4706
  %89 = call noundef nonnull align 8 dereferenceable(32) ptr @_ZNKSt6vectorINSt7__cxx1112basic_stringIcSt11char_traitsIcESaIcEEESaIS5_EEixEm(ptr noundef nonnull align 8 dereferenceable(24) %86, i64 noundef %88) #3, !dbg !4705
  %90 = call noundef nonnull align 1 dereferenceable(1) ptr @_ZNKSt7__cxx1112basic_stringIcSt11char_traitsIcESaIcEEixEm(ptr noundef nonnull align 8 dereferenceable(32) %89, i64 noundef 1) #3, !dbg !4705
  %91 = load i8, ptr %90, align 1, !dbg !4705
  %92 = sext i8 %91 to i32, !dbg !4705
  %93 = icmp ne i32 %92, 45, !dbg !4707
  br i1 %93, label %94, label %109, !dbg !4708

94:                                               ; preds = %85
  %95 = load ptr, ptr %5, align 8, !dbg !4709
  %96 = load i32, ptr %7, align 4, !dbg !4710
  %97 = zext i32 %96 to i64, !dbg !4710
  %98 = call noundef nonnull align 8 dereferenceable(32) ptr @_ZNKSt6vectorINSt7__cxx1112basic_stringIcSt11char_traitsIcESaIcEEESaIS5_EEixEm(ptr noundef nonnull align 8 dereferenceable(24) %95, i64 noundef %97) #3, !dbg !4709
  invoke void @_ZNKSt7__cxx1112basic_stringIcSt11char_traitsIcESaIcEE6substrEmm(ptr sret(%"class.std::__cxx11::basic_string") align 8 %15, ptr noundef nonnull align 8 dereferenceable(32) %98, i64 noundef 1, i64 noundef -1)
          to label %99 unwind label %105, !dbg !4711

99:                                               ; preds = %94
  %100 = call noundef nonnull align 8 dereferenceable(32) ptr @_ZNSt7__cxx1112basic_stringIcSt11char_traitsIcESaIcEEaSEOS4_(ptr noundef nonnull align 8 dereferenceable(32) %13, ptr noundef nonnull align 8 dereferenceable(32) %15) #3, !dbg !4712
  call void @_ZNSt7__cxx1112basic_stringIcSt11char_traitsIcESaIcEED1Ev(ptr noundef nonnull align 8 dereferenceable(32) %15) #3, !dbg !4713
  br label %134, !dbg !4713

101:                                              ; preds = %197, %195, %193, %71
  %102 = landingpad { ptr, i32 }
          cleanup, !dbg !4714
  %103 = extractvalue { ptr, i32 } %102, 0, !dbg !4714
  store ptr %103, ptr %10, align 8, !dbg !4714
  %104 = extractvalue { ptr, i32 } %102, 1, !dbg !4714
  store i32 %104, ptr %11, align 4, !dbg !4714
  br label %327, !dbg !4714

105:                                              ; preds = %180, %174, %171, %158, %151, %141, %138, %125, %94
  %106 = landingpad { ptr, i32 }
          cleanup, !dbg !4715
  %107 = extractvalue { ptr, i32 } %106, 0, !dbg !4715
  store ptr %107, ptr %10, align 8, !dbg !4715
  %108 = extractvalue { ptr, i32 } %106, 1, !dbg !4715
  store i32 %108, ptr %11, align 4, !dbg !4715
  call void @_ZNSt7__cxx1112basic_stringIcSt11char_traitsIcESaIcEED1Ev(ptr noundef nonnull align 8 dereferenceable(32) %14) #3, !dbg !4716
  call void @_ZNSt7__cxx1112basic_stringIcSt11char_traitsIcESaIcEED1Ev(ptr noundef nonnull align 8 dereferenceable(32) %13) #3, !dbg !4716
  br label %327, !dbg !4716

109:                                              ; preds = %85, %77
  %110 = load ptr, ptr %5, align 8, !dbg !4717
  %111 = load i32, ptr %7, align 4, !dbg !4719
  %112 = zext i32 %111 to i64, !dbg !4719
  %113 = call noundef nonnull align 8 dereferenceable(32) ptr @_ZNKSt6vectorINSt7__cxx1112basic_stringIcSt11char_traitsIcESaIcEEESaIS5_EEixEm(ptr noundef nonnull align 8 dereferenceable(24) %110, i64 noundef %112) #3, !dbg !4717
  %114 = call noundef i64 @_ZNKSt7__cxx1112basic_stringIcSt11char_traitsIcESaIcEE6lengthEv(ptr noundef nonnull align 8 dereferenceable(32) %113) #3, !dbg !4720
  %115 = icmp ugt i64 %114, 1, !dbg !4721
  br i1 %115, label %116, label %132, !dbg !4722

116:                                              ; preds = %109
  %117 = load ptr, ptr %5, align 8, !dbg !4723
  %118 = load i32, ptr %7, align 4, !dbg !4724
  %119 = zext i32 %118 to i64, !dbg !4724
  %120 = call noundef nonnull align 8 dereferenceable(32) ptr @_ZNKSt6vectorINSt7__cxx1112basic_stringIcSt11char_traitsIcESaIcEEESaIS5_EEixEm(ptr noundef nonnull align 8 dereferenceable(24) %117, i64 noundef %119) #3, !dbg !4723
  %121 = call noundef nonnull align 1 dereferenceable(1) ptr @_ZNKSt7__cxx1112basic_stringIcSt11char_traitsIcESaIcEEixEm(ptr noundef nonnull align 8 dereferenceable(32) %120, i64 noundef 1) #3, !dbg !4723
  %122 = load i8, ptr %121, align 1, !dbg !4723
  %123 = sext i8 %122 to i32, !dbg !4723
  %124 = icmp eq i32 %123, 45, !dbg !4725
  br i1 %124, label %125, label %132, !dbg !4726

125:                                              ; preds = %116
  %126 = load ptr, ptr %5, align 8, !dbg !4727
  %127 = load i32, ptr %7, align 4, !dbg !4728
  %128 = zext i32 %127 to i64, !dbg !4728
  %129 = call noundef nonnull align 8 dereferenceable(32) ptr @_ZNKSt6vectorINSt7__cxx1112basic_stringIcSt11char_traitsIcESaIcEEESaIS5_EEixEm(ptr noundef nonnull align 8 dereferenceable(24) %126, i64 noundef %128) #3, !dbg !4727
  invoke void @_ZNKSt7__cxx1112basic_stringIcSt11char_traitsIcESaIcEE6substrEmm(ptr sret(%"class.std::__cxx11::basic_string") align 8 %16, ptr noundef nonnull align 8 dereferenceable(32) %129, i64 noundef 2, i64 noundef -1)
          to label %130 unwind label %105, !dbg !4729

130:                                              ; preds = %125
  %131 = call noundef nonnull align 8 dereferenceable(32) ptr @_ZNSt7__cxx1112basic_stringIcSt11char_traitsIcESaIcEEaSEOS4_(ptr noundef nonnull align 8 dereferenceable(32) %13, ptr noundef nonnull align 8 dereferenceable(32) %16) #3, !dbg !4730
  call void @_ZNSt7__cxx1112basic_stringIcSt11char_traitsIcESaIcEED1Ev(ptr noundef nonnull align 8 dereferenceable(32) %16) #3, !dbg !4731
  br label %133, !dbg !4731

132:                                              ; preds = %116, %109
  store i32 2, ptr %17, align 4
  br label %185, !dbg !4732

133:                                              ; preds = %130
  br label %134

134:                                              ; preds = %133, %99
  call void @llvm.dbg.declare(metadata ptr %18, metadata !4733, metadata !DIExpression()), !dbg !4734
  %135 = call noundef i64 @_ZNKSt7__cxx1112basic_stringIcSt11char_traitsIcESaIcEE4findEcm(ptr noundef nonnull align 8 dereferenceable(32) %13, i8 noundef signext 61, i64 noundef 0) #3, !dbg !4735
  store i64 %135, ptr %18, align 8, !dbg !4734
  %136 = load i64, ptr %18, align 8, !dbg !4736
  %137 = icmp eq i64 %136, -1, !dbg !4738
  br i1 %137, label %138, label %168, !dbg !4739

138:                                              ; preds = %134
  %139 = invoke noundef zeroext i1 @_ZSteqIcSt11char_traitsIcESaIcEEbRKNSt7__cxx1112basic_stringIT_T0_T1_EEPKS5_(ptr noundef nonnull align 8 dereferenceable(32) %13, ptr noundef @.str.16)
          to label %140 unwind label %105, !dbg !4740

140:                                              ; preds = %138
  br i1 %139, label %144, label %141, !dbg !4741

141:                                              ; preds = %140
  %142 = invoke noundef zeroext i1 @_ZSteqIcSt11char_traitsIcESaIcEEbRKNSt7__cxx1112basic_stringIT_T0_T1_EEPKS5_(ptr noundef nonnull align 8 dereferenceable(32) %13, ptr noundef @.str.17)
          to label %143 unwind label %105, !dbg !4742

143:                                              ; preds = %141
  br i1 %142, label %144, label %168, !dbg !4743

144:                                              ; preds = %143, %140
  %145 = load i32, ptr %7, align 4, !dbg !4744
  %146 = zext i32 %145 to i64, !dbg !4744
  %147 = load ptr, ptr %5, align 8, !dbg !4745
  %148 = call noundef i64 @_ZNKSt6vectorINSt7__cxx1112basic_stringIcSt11char_traitsIcESaIcEEESaIS5_EE4sizeEv(ptr noundef nonnull align 8 dereferenceable(24) %147) #3, !dbg !4746
  %149 = sub i64 %148, 1, !dbg !4747
  %150 = icmp ult i64 %146, %149, !dbg !4748
  br i1 %150, label %151, label %168, !dbg !4749

151:                                              ; preds = %144
  %152 = load ptr, ptr %5, align 8, !dbg !4750
  %153 = load i32, ptr %7, align 4, !dbg !4752
  %154 = add i32 %153, 1, !dbg !4753
  %155 = zext i32 %154 to i64, !dbg !4752
  %156 = call noundef nonnull align 8 dereferenceable(32) ptr @_ZNKSt6vectorINSt7__cxx1112basic_stringIcSt11char_traitsIcESaIcEEESaIS5_EEixEm(ptr noundef nonnull align 8 dereferenceable(24) %152, i64 noundef %155) #3, !dbg !4750
  %157 = invoke noundef nonnull align 8 dereferenceable(32) ptr @_ZNSt7__cxx1112basic_stringIcSt11char_traitsIcESaIcEEaSERKS4_(ptr noundef nonnull align 8 dereferenceable(32) %14, ptr noundef nonnull align 8 dereferenceable(32) %156)
          to label %158 unwind label %105, !dbg !4754

158:                                              ; preds = %151
  %159 = call ptr @_ZNSt6vectorINSt7__cxx1112basic_stringIcSt11char_traitsIcESaIcEEESaIS5_EE5beginEv(ptr noundef nonnull align 8 dereferenceable(24) %6) #3, !dbg !4755
  %160 = getelementptr inbounds %"class.__gnu_cxx::__normal_iterator", ptr %20, i32 0, i32 0, !dbg !4755
  store ptr %159, ptr %160, align 8, !dbg !4755
  call void @_ZN9__gnu_cxx17__normal_iteratorIPKNSt7__cxx1112basic_stringIcSt11char_traitsIcESaIcEEESt6vectorIS6_SaIS6_EEEC2IPS6_EERKNS0_IT_NS_11__enable_ifIXsr3std10__are_sameISF_SE_EE7__valueESB_E6__typeEEE(ptr noundef nonnull align 8 dereferenceable(8) %19, ptr noundef nonnull align 8 dereferenceable(8) %20) #3, !dbg !4756
  %161 = getelementptr inbounds %"class.__gnu_cxx::__normal_iterator.81", ptr %19, i32 0, i32 0, !dbg !4757
  %162 = load ptr, ptr %161, align 8, !dbg !4757
  %163 = invoke ptr @_ZNSt6vectorINSt7__cxx1112basic_stringIcSt11char_traitsIcESaIcEEESaIS5_EE5eraseEN9__gnu_cxx17__normal_iteratorIPKS5_S7_EE(ptr noundef nonnull align 8 dereferenceable(24) %6, ptr %162)
          to label %164 unwind label %105, !dbg !4757

164:                                              ; preds = %158
  %165 = getelementptr inbounds %"class.__gnu_cxx::__normal_iterator", ptr %21, i32 0, i32 0, !dbg !4757
  store ptr %163, ptr %165, align 8, !dbg !4757
  %166 = load i32, ptr %7, align 4, !dbg !4758
  %167 = add i32 %166, 1, !dbg !4758
  store i32 %167, ptr %7, align 4, !dbg !4758
  br label %180, !dbg !4759

168:                                              ; preds = %144, %143, %134
  %169 = load i64, ptr %18, align 8, !dbg !4760
  %170 = icmp ne i64 %169, -1, !dbg !4762
  br i1 %170, label %171, label %179, !dbg !4763

171:                                              ; preds = %168
  %172 = load i64, ptr %18, align 8, !dbg !4764
  %173 = add i64 %172, 1, !dbg !4766
  invoke void @_ZNKSt7__cxx1112basic_stringIcSt11char_traitsIcESaIcEE6substrEmm(ptr sret(%"class.std::__cxx11::basic_string") align 8 %22, ptr noundef nonnull align 8 dereferenceable(32) %13, i64 noundef %173, i64 noundef -1)
          to label %174 unwind label %105, !dbg !4767

174:                                              ; preds = %171
  %175 = call noundef nonnull align 8 dereferenceable(32) ptr @_ZNSt7__cxx1112basic_stringIcSt11char_traitsIcESaIcEEaSEOS4_(ptr noundef nonnull align 8 dereferenceable(32) %14, ptr noundef nonnull align 8 dereferenceable(32) %22) #3, !dbg !4768
  call void @_ZNSt7__cxx1112basic_stringIcSt11char_traitsIcESaIcEED1Ev(ptr noundef nonnull align 8 dereferenceable(32) %22) #3, !dbg !4769
  %176 = load i64, ptr %18, align 8, !dbg !4770
  invoke void @_ZNKSt7__cxx1112basic_stringIcSt11char_traitsIcESaIcEE6substrEmm(ptr sret(%"class.std::__cxx11::basic_string") align 8 %23, ptr noundef nonnull align 8 dereferenceable(32) %13, i64 noundef 0, i64 noundef %176)
          to label %177 unwind label %105, !dbg !4771

177:                                              ; preds = %174
  %178 = call noundef nonnull align 8 dereferenceable(32) ptr @_ZNSt7__cxx1112basic_stringIcSt11char_traitsIcESaIcEEaSEOS4_(ptr noundef nonnull align 8 dereferenceable(32) %13, ptr noundef nonnull align 8 dereferenceable(32) %23) #3, !dbg !4772
  call void @_ZNSt7__cxx1112basic_stringIcSt11char_traitsIcESaIcEED1Ev(ptr noundef nonnull align 8 dereferenceable(32) %23) #3, !dbg !4773
  br label %179, !dbg !4774

179:                                              ; preds = %177, %168
  br label %180

180:                                              ; preds = %179, %164
  %181 = load ptr, ptr %46, align 8, !dbg !4775
  %182 = getelementptr inbounds ptr, ptr %181, i64 8, !dbg !4775
  %183 = load ptr, ptr %182, align 8, !dbg !4775
  invoke void %183(ptr noundef nonnull align 8 dereferenceable(328) %46, ptr noundef nonnull align 8 dereferenceable(32) %13, ptr noundef nonnull align 8 dereferenceable(32) %14)
          to label %184 unwind label %105, !dbg !4775

184:                                              ; preds = %180
  store i32 0, ptr %17, align 4, !dbg !4716
  br label %185, !dbg !4716

185:                                              ; preds = %184, %132
  call void @_ZNSt7__cxx1112basic_stringIcSt11char_traitsIcESaIcEED1Ev(ptr noundef nonnull align 8 dereferenceable(32) %14) #3, !dbg !4716
  call void @_ZNSt7__cxx1112basic_stringIcSt11char_traitsIcESaIcEED1Ev(ptr noundef nonnull align 8 dereferenceable(32) %13) #3, !dbg !4716
  %186 = load i32, ptr %17, align 4
  switch i32 %186, label %333 [
    i32 0, label %187
    i32 2, label %191
  ]

187:                                              ; preds = %185
  br label %188, !dbg !4776

188:                                              ; preds = %187
  %189 = load i32, ptr %7, align 4, !dbg !4777
  %190 = add i32 %189, 1, !dbg !4777
  store i32 %190, ptr %7, align 4, !dbg !4777
  br label %48, !dbg !4778, !llvm.loop !4779

191:                                              ; preds = %185, %70, %48
  %192 = call noundef zeroext i1 @_ZNKSt6vectorINSt7__cxx1112basic_stringIcSt11char_traitsIcESaIcEEESaIS5_EE5emptyEv(ptr noundef nonnull align 8 dereferenceable(24) %6) #3, !dbg !4782
  br i1 %192, label %193, label %199, !dbg !4784

193:                                              ; preds = %191
  %194 = invoke noundef nonnull align 8 dereferenceable(8) ptr @_ZStlsISt11char_traitsIcEERSt13basic_ostreamIcT_ES5_PKc(ptr noundef nonnull align 8 dereferenceable(8) @_ZSt4cerr, ptr noundef @.str.23)
          to label %195 unwind label %101, !dbg !4785

195:                                              ; preds = %193
  %196 = invoke noundef nonnull align 8 dereferenceable(8) ptr @_ZNSolsEPFRSoS_E(ptr noundef nonnull align 8 dereferenceable(8) %194, ptr noundef @_ZSt4endlIcSt11char_traitsIcEERSt13basic_ostreamIT_T0_ES6_)
          to label %197 unwind label %101, !dbg !4787

197:                                              ; preds = %195
  invoke void @_ZN4Tool11displayHelpEv(ptr noundef nonnull align 8 dereferenceable(328) %46)
          to label %198 unwind label %101, !dbg !4788

198:                                              ; preds = %197
  store i32 66, ptr %3, align 4, !dbg !4789
  store i32 1, ptr %17, align 4
  br label %325, !dbg !4789

199:                                              ; preds = %191
  call void @llvm.dbg.declare(metadata ptr %24, metadata !4790, metadata !DIExpression()), !dbg !4791
  %200 = getelementptr inbounds %class.Tool, ptr %46, i32 0, i32 1, !dbg !4792
  %201 = load i32, ptr %200, align 8, !dbg !4792
  %202 = zext i32 %201 to i64, !dbg !4792
  call void @_ZNSaImEC2Ev(ptr noundef nonnull align 1 dereferenceable(1) %25) #3, !dbg !4791
  invoke void @_ZNSt6vectorImSaImEEC2EmRKS0_(ptr noundef nonnull align 8 dereferenceable(24) %24, i64 noundef %202, ptr noundef nonnull align 1 dereferenceable(1) %25)
          to label %203 unwind label %285, !dbg !4791

203:                                              ; preds = %199
  call void @_ZNSaImED2Ev(ptr noundef nonnull align 1 dereferenceable(1) %25) #3, !dbg !4791
  %204 = getelementptr inbounds %class.Tool, ptr %46, i32 0, i32 1, !dbg !4793
  %205 = load i32, ptr %204, align 8, !dbg !4793
  %206 = zext i32 %205 to i64, !dbg !4793
  invoke void @_ZNSt6vectorImSaImEE7reserveEm(ptr noundef nonnull align 8 dereferenceable(24) %24, i64 noundef %206)
          to label %207 unwind label %289, !dbg !4794

207:                                              ; preds = %203
  call void @llvm.dbg.declare(metadata ptr %26, metadata !4795, metadata !DIExpression()), !dbg !4796
  %208 = call noundef i64 @_ZNKSt6vectorINSt7__cxx1112basic_stringIcSt11char_traitsIcESaIcEEESaIS5_EE4sizeEv(ptr noundef nonnull align 8 dereferenceable(24) %6) #3, !dbg !4797
  %209 = getelementptr inbounds %class.Tool, ptr %46, i32 0, i32 1, !dbg !4798
  %210 = load i32, ptr %209, align 8, !dbg !4798
  %211 = zext i32 %210 to i64, !dbg !4798
  %212 = add i64 %208, %211, !dbg !4799
  %213 = sub i64 %212, 1, !dbg !4800
  %214 = getelementptr inbounds %class.Tool, ptr %46, i32 0, i32 1, !dbg !4801
  %215 = load i32, ptr %214, align 8, !dbg !4801
  %216 = zext i32 %215 to i64, !dbg !4801
  %217 = udiv i64 %213, %216, !dbg !4802
  store i64 %217, ptr %26, align 8, !dbg !4796
  call void @llvm.dbg.declare(metadata ptr %27, metadata !4803, metadata !DIExpression()), !dbg !4804
  store i64 0, ptr %27, align 8, !dbg !4804
  call void @llvm.dbg.declare(metadata ptr %28, metadata !4805, metadata !DIExpression()), !dbg !4807
  store i32 0, ptr %28, align 4, !dbg !4807
  br label %218, !dbg !4808

218:                                              ; preds = %303, %207
  %219 = load i32, ptr %28, align 4, !dbg !4809
  %220 = getelementptr inbounds %class.Tool, ptr %46, i32 0, i32 1, !dbg !4811
  %221 = load i32, ptr %220, align 8, !dbg !4811
  %222 = icmp ult i32 %219, %221, !dbg !4812
  br i1 %222, label %223, label %306, !dbg !4813

223:                                              ; preds = %218
  call void @llvm.dbg.declare(metadata ptr %29, metadata !4814, metadata !DIExpression()), !dbg !4816
  %224 = call noundef i64 @_ZNKSt6vectorINSt7__cxx1112basic_stringIcSt11char_traitsIcESaIcEEESaIS5_EE4sizeEv(ptr noundef nonnull align 8 dereferenceable(24) %6) #3, !dbg !4817
  %225 = load i64, ptr %27, align 8, !dbg !4818
  %226 = sub i64 %224, %225, !dbg !4819
  store i64 %226, ptr %30, align 8, !dbg !4820
  %227 = invoke noundef nonnull align 8 dereferenceable(8) ptr @_ZSt3minImERKT_S2_S2_(ptr noundef nonnull align 8 dereferenceable(8) %30, ptr noundef nonnull align 8 dereferenceable(8) %26)
          to label %228 unwind label %289, !dbg !4821

228:                                              ; preds = %223
  %229 = load i64, ptr %227, align 8, !dbg !4821
  store i64 %229, ptr %29, align 8, !dbg !4816
  %230 = load i64, ptr %29, align 8, !dbg !4822
  %231 = icmp ugt i64 %230, 0, !dbg !4824
  br i1 %231, label %232, label %302, !dbg !4825

232:                                              ; preds = %228
  call void @llvm.dbg.declare(metadata ptr %31, metadata !4826, metadata !DIExpression()), !dbg !4828
  %233 = load i64, ptr %29, align 8, !dbg !4829
  call void @_ZNSaINSt7__cxx1112basic_stringIcSt11char_traitsIcESaIcEEEEC2Ev(ptr noundef nonnull align 1 dereferenceable(1) %32) #3, !dbg !4828
  invoke void @_ZNSt6vectorINSt7__cxx1112basic_stringIcSt11char_traitsIcESaIcEEESaIS5_EEC2EmRKS6_(ptr noundef nonnull align 8 dereferenceable(24) %31, i64 noundef %233, ptr noundef nonnull align 1 dereferenceable(1) %32)
          to label %234 unwind label %293, !dbg !4828

234:                                              ; preds = %232
  call void @_ZNSaINSt7__cxx1112basic_stringIcSt11char_traitsIcESaIcEEEED2Ev(ptr noundef nonnull align 1 dereferenceable(1) %32) #3, !dbg !4828
  %235 = call ptr @_ZNSt6vectorINSt7__cxx1112basic_stringIcSt11char_traitsIcESaIcEEESaIS5_EE5beginEv(ptr noundef nonnull align 8 dereferenceable(24) %6) #3, !dbg !4830
  %236 = getelementptr inbounds %"class.__gnu_cxx::__normal_iterator", ptr %34, i32 0, i32 0, !dbg !4830
  store ptr %235, ptr %236, align 8, !dbg !4830
  %237 = load i64, ptr %27, align 8, !dbg !4831
  %238 = call ptr @_ZNK9__gnu_cxx17__normal_iteratorIPNSt7__cxx1112basic_stringIcSt11char_traitsIcESaIcEEESt6vectorIS6_SaIS6_EEEplEl(ptr noundef nonnull align 8 dereferenceable(8) %34, i64 noundef %237) #3, !dbg !4832
  %239 = getelementptr inbounds %"class.__gnu_cxx::__normal_iterator", ptr %33, i32 0, i32 0, !dbg !4832
  store ptr %238, ptr %239, align 8, !dbg !4832
  %240 = call ptr @_ZNSt6vectorINSt7__cxx1112basic_stringIcSt11char_traitsIcESaIcEEESaIS5_EE5beginEv(ptr noundef nonnull align 8 dereferenceable(24) %6) #3, !dbg !4833
  %241 = getelementptr inbounds %"class.__gnu_cxx::__normal_iterator", ptr %37, i32 0, i32 0, !dbg !4833
  store ptr %240, ptr %241, align 8, !dbg !4833
  %242 = load i64, ptr %27, align 8, !dbg !4834
  %243 = call ptr @_ZNK9__gnu_cxx17__normal_iteratorIPNSt7__cxx1112basic_stringIcSt11char_traitsIcESaIcEEESt6vectorIS6_SaIS6_EEEplEl(ptr noundef nonnull align 8 dereferenceable(8) %37, i64 noundef %242) #3, !dbg !4835
  %244 = getelementptr inbounds %"class.__gnu_cxx::__normal_iterator", ptr %36, i32 0, i32 0, !dbg !4835
  store ptr %243, ptr %244, align 8, !dbg !4835
  %245 = load i64, ptr %29, align 8, !dbg !4836
  %246 = call ptr @_ZNK9__gnu_cxx17__normal_iteratorIPNSt7__cxx1112basic_stringIcSt11char_traitsIcESaIcEEESt6vectorIS6_SaIS6_EEEplEl(ptr noundef nonnull align 8 dereferenceable(8) %36, i64 noundef %245) #3, !dbg !4837
  %247 = getelementptr inbounds %"class.__gnu_cxx::__normal_iterator", ptr %35, i32 0, i32 0, !dbg !4837
  store ptr %246, ptr %247, align 8, !dbg !4837
  %248 = call ptr @_ZNSt6vectorINSt7__cxx1112basic_stringIcSt11char_traitsIcESaIcEEESaIS5_EE5beginEv(ptr noundef nonnull align 8 dereferenceable(24) %31) #3, !dbg !4838
  %249 = getelementptr inbounds %"class.__gnu_cxx::__normal_iterator", ptr %38, i32 0, i32 0, !dbg !4838
  store ptr %248, ptr %249, align 8, !dbg !4838
  %250 = getelementptr inbounds %"class.__gnu_cxx::__normal_iterator", ptr %33, i32 0, i32 0, !dbg !4839
  %251 = load ptr, ptr %250, align 8, !dbg !4839
  %252 = getelementptr inbounds %"class.__gnu_cxx::__normal_iterator", ptr %35, i32 0, i32 0, !dbg !4839
  %253 = load ptr, ptr %252, align 8, !dbg !4839
  %254 = getelementptr inbounds %"class.__gnu_cxx::__normal_iterator", ptr %38, i32 0, i32 0, !dbg !4839
  %255 = load ptr, ptr %254, align 8, !dbg !4839
  %256 = invoke ptr @_ZSt4copyIN9__gnu_cxx17__normal_iteratorIPNSt7__cxx1112basic_stringIcSt11char_traitsIcESaIcEEESt6vectorIS7_SaIS7_EEEESC_ET0_T_SE_SD_(ptr %251, ptr %253, ptr %255)
          to label %257 unwind label %297, !dbg !4839

257:                                              ; preds = %234
  %258 = getelementptr inbounds %"class.__gnu_cxx::__normal_iterator", ptr %39, i32 0, i32 0, !dbg !4839
  store ptr %256, ptr %258, align 8, !dbg !4839
  %259 = load i64, ptr %29, align 8, !dbg !4840
  %260 = load i64, ptr %27, align 8, !dbg !4841
  %261 = add i64 %260, %259, !dbg !4841
  store i64 %261, ptr %27, align 8, !dbg !4841
  call void @llvm.dbg.declare(metadata ptr %40, metadata !4842, metadata !DIExpression()), !dbg !4843
  %262 = invoke noalias noundef nonnull ptr @_Znwm(i64 noundef 16) #20
          to label %263 unwind label %297, !dbg !4844, !heapallocsite !1187

263:                                              ; preds = %257
  %264 = getelementptr inbounds %struct.ThreadData, ptr %262, i32 0, i32 0, !dbg !4845
  store ptr %46, ptr %264, align 16, !dbg !4845
  %265 = getelementptr inbounds %struct.ThreadData, ptr %262, i32 0, i32 1, !dbg !4845
  store ptr %31, ptr %265, align 8, !dbg !4845
  store ptr %262, ptr %40, align 8, !dbg !4843
  call void @llvm.dbg.declare(metadata ptr %41, metadata !4846, metadata !DIExpression()), !dbg !4847
  %266 = load i32, ptr %28, align 4, !dbg !4848
  %267 = zext i32 %266 to i64, !dbg !4848
  %268 = call noundef nonnull align 8 dereferenceable(8) ptr @_ZNSt6vectorImSaImEEixEm(ptr noundef nonnull align 8 dereferenceable(24) %24, i64 noundef %267) #3, !dbg !4849
  %269 = load ptr, ptr %40, align 8, !dbg !4850
  %270 = call i32 @pthread_create(ptr noundef %268, ptr noundef null, ptr noundef @_Z12workerThreadPv, ptr noundef %269) #3, !dbg !4851
  store i32 %270, ptr %41, align 4, !dbg !4847
  %271 = load i32, ptr %41, align 4, !dbg !4852
  %272 = icmp ne i32 %271, 0, !dbg !4852
  br i1 %272, label %273, label %301, !dbg !4854

273:                                              ; preds = %263
  %274 = invoke noundef nonnull align 8 dereferenceable(8) ptr @_ZStlsISt11char_traitsIcEERSt13basic_ostreamIcT_ES5_PKc(ptr noundef nonnull align 8 dereferenceable(8) @_ZSt4cerr, ptr noundef @.str.24)
          to label %275 unwind label %297, !dbg !4855

275:                                              ; preds = %273
  %276 = load i32, ptr %41, align 4, !dbg !4857
  %277 = invoke noundef nonnull align 8 dereferenceable(8) ptr @_ZNSolsEi(ptr noundef nonnull align 8 dereferenceable(8) %274, i32 noundef %276)
          to label %278 unwind label %297, !dbg !4858

278:                                              ; preds = %275
  %279 = invoke noundef nonnull align 8 dereferenceable(8) ptr @_ZNSolsEPFRSoS_E(ptr noundef nonnull align 8 dereferenceable(8) %277, ptr noundef @_ZSt4endlIcSt11char_traitsIcEERSt13basic_ostreamIT_T0_ES6_)
          to label %280 unwind label %297, !dbg !4859

280:                                              ; preds = %278
  %281 = load ptr, ptr %40, align 8, !dbg !4860
  %282 = icmp eq ptr %281, null, !dbg !4861
  br i1 %282, label %284, label %283, !dbg !4861

283:                                              ; preds = %280
  call void @_ZdlPv(ptr noundef %281) #21, !dbg !4861
  br label %284, !dbg !4861

284:                                              ; preds = %283, %280
  br label %301, !dbg !4862

285:                                              ; preds = %199
  %286 = landingpad { ptr, i32 }
          cleanup, !dbg !4863
  %287 = extractvalue { ptr, i32 } %286, 0, !dbg !4863
  store ptr %287, ptr %10, align 8, !dbg !4863
  %288 = extractvalue { ptr, i32 } %286, 1, !dbg !4863
  store i32 %288, ptr %11, align 4, !dbg !4863
  call void @_ZNSaImED2Ev(ptr noundef nonnull align 1 dereferenceable(1) %25) #3, !dbg !4791
  br label %327, !dbg !4791

289:                                              ; preds = %315, %223, %203
  %290 = landingpad { ptr, i32 }
          cleanup, !dbg !4863
  %291 = extractvalue { ptr, i32 } %290, 0, !dbg !4863
  store ptr %291, ptr %10, align 8, !dbg !4863
  %292 = extractvalue { ptr, i32 } %290, 1, !dbg !4863
  store i32 %292, ptr %11, align 4, !dbg !4863
  br label %324, !dbg !4863

293:                                              ; preds = %232
  %294 = landingpad { ptr, i32 }
          cleanup, !dbg !4864
  %295 = extractvalue { ptr, i32 } %294, 0, !dbg !4864
  store ptr %295, ptr %10, align 8, !dbg !4864
  %296 = extractvalue { ptr, i32 } %294, 1, !dbg !4864
  store i32 %296, ptr %11, align 4, !dbg !4864
  call void @_ZNSaINSt7__cxx1112basic_stringIcSt11char_traitsIcESaIcEEEED2Ev(ptr noundef nonnull align 1 dereferenceable(1) %32) #3, !dbg !4828
  br label %324, !dbg !4828

297:                                              ; preds = %278, %275, %273, %257, %234
  %298 = landingpad { ptr, i32 }
          cleanup, !dbg !4864
  %299 = extractvalue { ptr, i32 } %298, 0, !dbg !4864
  store ptr %299, ptr %10, align 8, !dbg !4864
  %300 = extractvalue { ptr, i32 } %298, 1, !dbg !4864
  store i32 %300, ptr %11, align 4, !dbg !4864
  call void @_ZNSt6vectorINSt7__cxx1112basic_stringIcSt11char_traitsIcESaIcEEESaIS5_EED2Ev(ptr noundef nonnull align 8 dereferenceable(24) %31) #3, !dbg !4865
  br label %324, !dbg !4865

301:                                              ; preds = %284, %263
  call void @_ZNSt6vectorINSt7__cxx1112basic_stringIcSt11char_traitsIcESaIcEEESaIS5_EED2Ev(ptr noundef nonnull align 8 dereferenceable(24) %31) #3, !dbg !4865
  br label %302, !dbg !4866

302:                                              ; preds = %301, %228
  br label %303, !dbg !4867

303:                                              ; preds = %302
  %304 = load i32, ptr %28, align 4, !dbg !4868
  %305 = add i32 %304, 1, !dbg !4868
  store i32 %305, ptr %28, align 4, !dbg !4868
  br label %218, !dbg !4869, !llvm.loop !4870

306:                                              ; preds = %218
  call void @llvm.dbg.declare(metadata ptr %42, metadata !4872, metadata !DIExpression()), !dbg !4874
  store ptr %24, ptr %42, align 8, !dbg !4875
  call void @llvm.dbg.declare(metadata ptr %43, metadata !4876, metadata !DIExpression()), !dbg !4874
  %307 = load ptr, ptr %42, align 8, !dbg !4877
  %308 = call ptr @_ZNSt6vectorImSaImEE5beginEv(ptr noundef nonnull align 8 dereferenceable(24) %307) #3, !dbg !4877
  %309 = getelementptr inbounds %"class.__gnu_cxx::__normal_iterator.87", ptr %43, i32 0, i32 0, !dbg !4877
  store ptr %308, ptr %309, align 8, !dbg !4877
  call void @llvm.dbg.declare(metadata ptr %44, metadata !4878, metadata !DIExpression()), !dbg !4874
  %310 = load ptr, ptr %42, align 8, !dbg !4877
  %311 = call ptr @_ZNSt6vectorImSaImEE3endEv(ptr noundef nonnull align 8 dereferenceable(24) %310) #3, !dbg !4877
  %312 = getelementptr inbounds %"class.__gnu_cxx::__normal_iterator.87", ptr %44, i32 0, i32 0, !dbg !4877
  store ptr %311, ptr %312, align 8, !dbg !4877
  br label %313, !dbg !4877

313:                                              ; preds = %321, %306
  %314 = call noundef zeroext i1 @_ZN9__gnu_cxxneIPmSt6vectorImSaImEEEEbRKNS_17__normal_iteratorIT_T0_EESA_(ptr noundef nonnull align 8 dereferenceable(8) %43, ptr noundef nonnull align 8 dereferenceable(8) %44) #3, !dbg !4877
  br i1 %314, label %315, label %323, !dbg !4877

315:                                              ; preds = %313
  call void @llvm.dbg.declare(metadata ptr %45, metadata !4879, metadata !DIExpression()), !dbg !4881
  %316 = call noundef nonnull align 8 dereferenceable(8) ptr @_ZNK9__gnu_cxx17__normal_iteratorIPmSt6vectorImSaImEEEdeEv(ptr noundef nonnull align 8 dereferenceable(8) %43) #3, !dbg !4882
  store ptr %316, ptr %45, align 8, !dbg !4881
  %317 = load ptr, ptr %45, align 8, !dbg !4883
  %318 = load i64, ptr %317, align 8, !dbg !4883
  %319 = invoke i32 @pthread_join(i64 noundef %318, ptr noundef null)
          to label %320 unwind label %289, !dbg !4885

320:                                              ; preds = %315
  br label %321, !dbg !4886

321:                                              ; preds = %320
  %322 = call noundef nonnull align 8 dereferenceable(8) ptr @_ZN9__gnu_cxx17__normal_iteratorIPmSt6vectorImSaImEEEppEv(ptr noundef nonnull align 8 dereferenceable(8) %43) #3, !dbg !4877
  br label %313, !dbg !4877, !llvm.loop !4887

323:                                              ; preds = %313
  store i32 0, ptr %3, align 4, !dbg !4889
  store i32 1, ptr %17, align 4
  call void @_ZNSt6vectorImSaImEED2Ev(ptr noundef nonnull align 8 dereferenceable(24) %24) #3, !dbg !4863
  br label %325

324:                                              ; preds = %297, %293, %289
  call void @_ZNSt6vectorImSaImEED2Ev(ptr noundef nonnull align 8 dereferenceable(24) %24) #3, !dbg !4863
  br label %327, !dbg !4863

325:                                              ; preds = %323, %198
  call void @_ZNSt6vectorINSt7__cxx1112basic_stringIcSt11char_traitsIcESaIcEEESaIS5_EED2Ev(ptr noundef nonnull align 8 dereferenceable(24) %6) #3, !dbg !4863
  %326 = load i32, ptr %3, align 4, !dbg !4863
  ret i32 %326, !dbg !4863

327:                                              ; preds = %324, %285, %105, %101
  call void @_ZNSt6vectorINSt7__cxx1112basic_stringIcSt11char_traitsIcESaIcEEESaIS5_EED2Ev(ptr noundef nonnull align 8 dereferenceable(24) %6) #3, !dbg !4863
  br label %328, !dbg !4863

328:                                              ; preds = %327
  %329 = load ptr, ptr %10, align 8, !dbg !4863
  %330 = load i32, ptr %11, align 4, !dbg !4863
  %331 = insertvalue { ptr, i32 } poison, ptr %329, 0, !dbg !4863
  %332 = insertvalue { ptr, i32 } %331, i32 %330, 1, !dbg !4863
  resume { ptr, i32 } %332, !dbg !4863

333:                                              ; preds = %185
  unreachable
}

; Function Attrs: noinline optnone uwtable
define linkonce_odr dso_local void @_ZNSt6vectorINSt7__cxx1112basic_stringIcSt11char_traitsIcESaIcEEESaIS5_EEC2ERKS7_(ptr noundef nonnull align 8 dereferenceable(24) %0, ptr noundef nonnull align 8 dereferenceable(24) %1) unnamed_addr #6 comdat align 2 personality ptr @__gxx_personality_v0 !dbg !4890 {
  %3 = alloca ptr, align 8
  %4 = alloca ptr, align 8
  %5 = alloca %"class.std::allocator.38", align 1
  %6 = alloca ptr, align 8
  %7 = alloca i32, align 4
  %8 = alloca %"class.__gnu_cxx::__normal_iterator.81", align 8
  %9 = alloca %"class.__gnu_cxx::__normal_iterator.81", align 8
  store ptr %0, ptr %3, align 8
  call void @llvm.dbg.declare(metadata ptr %3, metadata !4891, metadata !DIExpression()), !dbg !4892
  store ptr %1, ptr %4, align 8
  call void @llvm.dbg.declare(metadata ptr %4, metadata !4893, metadata !DIExpression()), !dbg !4894
  %10 = load ptr, ptr %3, align 8
  %11 = load ptr, ptr %4, align 8, !dbg !4895
  %12 = call noundef i64 @_ZNKSt6vectorINSt7__cxx1112basic_stringIcSt11char_traitsIcESaIcEEESaIS5_EE4sizeEv(ptr noundef nonnull align 8 dereferenceable(24) %11) #3, !dbg !4896
  %13 = load ptr, ptr %4, align 8, !dbg !4897
  %14 = call noundef nonnull align 1 dereferenceable(1) ptr @_ZNKSt12_Vector_baseINSt7__cxx1112basic_stringIcSt11char_traitsIcESaIcEEESaIS5_EE19_M_get_Tp_allocatorEv(ptr noundef nonnull align 8 dereferenceable(24) %13) #3, !dbg !4898
  call void @_ZN9__gnu_cxx14__alloc_traitsISaINSt7__cxx1112basic_stringIcSt11char_traitsIcESaIcEEEES6_E17_S_select_on_copyERKS7_(ptr sret(%"class.std::allocator.38") align 1 %5, ptr noundef nonnull align 1 dereferenceable(1) %14), !dbg !4899
  invoke void @_ZNSt12_Vector_baseINSt7__cxx1112basic_stringIcSt11char_traitsIcESaIcEEESaIS5_EEC2EmRKS6_(ptr noundef nonnull align 8 dereferenceable(24) %10, i64 noundef %12, ptr noundef nonnull align 1 dereferenceable(1) %5)
          to label %15 unwind label %34, !dbg !4900

15:                                               ; preds = %2
  call void @_ZNSaINSt7__cxx1112basic_stringIcSt11char_traitsIcESaIcEEEED2Ev(ptr noundef nonnull align 1 dereferenceable(1) %5) #3, !dbg !4900
  %16 = load ptr, ptr %4, align 8, !dbg !4901
  %17 = call ptr @_ZNKSt6vectorINSt7__cxx1112basic_stringIcSt11char_traitsIcESaIcEEESaIS5_EE5beginEv(ptr noundef nonnull align 8 dereferenceable(24) %16) #3, !dbg !4903
  %18 = getelementptr inbounds %"class.__gnu_cxx::__normal_iterator.81", ptr %8, i32 0, i32 0, !dbg !4903
  store ptr %17, ptr %18, align 8, !dbg !4903
  %19 = load ptr, ptr %4, align 8, !dbg !4904
  %20 = call ptr @_ZNKSt6vectorINSt7__cxx1112basic_stringIcSt11char_traitsIcESaIcEEESaIS5_EE3endEv(ptr noundef nonnull align 8 dereferenceable(24) %19) #3, !dbg !4905
  %21 = getelementptr inbounds %"class.__gnu_cxx::__normal_iterator.81", ptr %9, i32 0, i32 0, !dbg !4905
  store ptr %20, ptr %21, align 8, !dbg !4905
  %22 = getelementptr inbounds %"struct.std::_Vector_base.37", ptr %10, i32 0, i32 0, !dbg !4906
  %23 = getelementptr inbounds %"struct.std::_Vector_base<std::__cxx11::basic_string<char>, std::allocator<std::__cxx11::basic_string<char>>>::_Vector_impl_data", ptr %22, i32 0, i32 0, !dbg !4907
  %24 = load ptr, ptr %23, align 8, !dbg !4907
  %25 = call noundef nonnull align 1 dereferenceable(1) ptr @_ZNSt12_Vector_baseINSt7__cxx1112basic_stringIcSt11char_traitsIcESaIcEEESaIS5_EE19_M_get_Tp_allocatorEv(ptr noundef nonnull align 8 dereferenceable(24) %10) #3, !dbg !4908
  %26 = getelementptr inbounds %"class.__gnu_cxx::__normal_iterator.81", ptr %8, i32 0, i32 0, !dbg !4909
  %27 = load ptr, ptr %26, align 8, !dbg !4909
  %28 = getelementptr inbounds %"class.__gnu_cxx::__normal_iterator.81", ptr %9, i32 0, i32 0, !dbg !4909
  %29 = load ptr, ptr %28, align 8, !dbg !4909
  %30 = invoke noundef ptr @_ZSt22__uninitialized_copy_aIN9__gnu_cxx17__normal_iteratorIPKNSt7__cxx1112basic_stringIcSt11char_traitsIcESaIcEEESt6vectorIS7_SaIS7_EEEEPS7_S7_ET0_T_SG_SF_RSaIT1_E(ptr %27, ptr %29, ptr noundef %24, ptr noundef nonnull align 1 dereferenceable(1) %25)
          to label %31 unwind label %38, !dbg !4909

31:                                               ; preds = %15
  %32 = getelementptr inbounds %"struct.std::_Vector_base.37", ptr %10, i32 0, i32 0, !dbg !4910
  %33 = getelementptr inbounds %"struct.std::_Vector_base<std::__cxx11::basic_string<char>, std::allocator<std::__cxx11::basic_string<char>>>::_Vector_impl_data", ptr %32, i32 0, i32 1, !dbg !4911
  store ptr %30, ptr %33, align 8, !dbg !4912
  ret void, !dbg !4913

34:                                               ; preds = %2
  %35 = landingpad { ptr, i32 }
          cleanup, !dbg !4913
  %36 = extractvalue { ptr, i32 } %35, 0, !dbg !4913
  store ptr %36, ptr %6, align 8, !dbg !4913
  %37 = extractvalue { ptr, i32 } %35, 1, !dbg !4913
  store i32 %37, ptr %7, align 4, !dbg !4913
  call void @_ZNSaINSt7__cxx1112basic_stringIcSt11char_traitsIcESaIcEEEED2Ev(ptr noundef nonnull align 1 dereferenceable(1) %5) #3, !dbg !4900
  br label %42, !dbg !4900

38:                                               ; preds = %15
  %39 = landingpad { ptr, i32 }
          cleanup, !dbg !4914
  %40 = extractvalue { ptr, i32 } %39, 0, !dbg !4914
  store ptr %40, ptr %6, align 8, !dbg !4914
  %41 = extractvalue { ptr, i32 } %39, 1, !dbg !4914
  store i32 %41, ptr %7, align 4, !dbg !4914
  call void @_ZNSt12_Vector_baseINSt7__cxx1112basic_stringIcSt11char_traitsIcESaIcEEESaIS5_EED2Ev(ptr noundef nonnull align 8 dereferenceable(24) %10) #3, !dbg !4914
  br label %42, !dbg !4914

42:                                               ; preds = %38, %34
  %43 = load ptr, ptr %6, align 8, !dbg !4900
  %44 = load i32, ptr %7, align 4, !dbg !4900
  %45 = insertvalue { ptr, i32 } poison, ptr %43, 0, !dbg !4900
  %46 = insertvalue { ptr, i32 } %45, i32 %44, 1, !dbg !4900
  resume { ptr, i32 } %46, !dbg !4900
}

; Function Attrs: mustprogress noinline nounwind optnone uwtable
define linkonce_odr dso_local noundef i64 @_ZNKSt6vectorINSt7__cxx1112basic_stringIcSt11char_traitsIcESaIcEEESaIS5_EE4sizeEv(ptr noundef nonnull align 8 dereferenceable(24) %0) #7 comdat align 2 !dbg !4915 {
  %2 = alloca ptr, align 8
  store ptr %0, ptr %2, align 8
  call void @llvm.dbg.declare(metadata ptr %2, metadata !4916, metadata !DIExpression()), !dbg !4918
  %3 = load ptr, ptr %2, align 8
  %4 = getelementptr inbounds %"struct.std::_Vector_base.37", ptr %3, i32 0, i32 0, !dbg !4919
  %5 = getelementptr inbounds %"struct.std::_Vector_base<std::__cxx11::basic_string<char>, std::allocator<std::__cxx11::basic_string<char>>>::_Vector_impl_data", ptr %4, i32 0, i32 1, !dbg !4920
  %6 = load ptr, ptr %5, align 8, !dbg !4920
  %7 = getelementptr inbounds %"struct.std::_Vector_base.37", ptr %3, i32 0, i32 0, !dbg !4921
  %8 = getelementptr inbounds %"struct.std::_Vector_base<std::__cxx11::basic_string<char>, std::allocator<std::__cxx11::basic_string<char>>>::_Vector_impl_data", ptr %7, i32 0, i32 0, !dbg !4922
  %9 = load ptr, ptr %8, align 8, !dbg !4922
  %10 = ptrtoint ptr %6 to i64, !dbg !4923
  %11 = ptrtoint ptr %9 to i64, !dbg !4923
  %12 = sub i64 %10, %11, !dbg !4923
  %13 = sdiv exact i64 %12, 32, !dbg !4923
  ret i64 %13, !dbg !4924
}

; Function Attrs: mustprogress noinline nounwind optnone uwtable
define linkonce_odr dso_local noundef nonnull align 8 dereferenceable(32) ptr @_ZNKSt6vectorINSt7__cxx1112basic_stringIcSt11char_traitsIcESaIcEEESaIS5_EEixEm(ptr noundef nonnull align 8 dereferenceable(24) %0, i64 noundef %1) #7 comdat align 2 !dbg !4925 {
  %3 = alloca ptr, align 8
  %4 = alloca i64, align 8
  store ptr %0, ptr %3, align 8
  call void @llvm.dbg.declare(metadata ptr %3, metadata !4926, metadata !DIExpression()), !dbg !4927
  store i64 %1, ptr %4, align 8
  call void @llvm.dbg.declare(metadata ptr %4, metadata !4928, metadata !DIExpression()), !dbg !4929
  %5 = load ptr, ptr %3, align 8
  %6 = getelementptr inbounds %"struct.std::_Vector_base.37", ptr %5, i32 0, i32 0, !dbg !4930
  %7 = getelementptr inbounds %"struct.std::_Vector_base<std::__cxx11::basic_string<char>, std::allocator<std::__cxx11::basic_string<char>>>::_Vector_impl_data", ptr %6, i32 0, i32 0, !dbg !4931
  %8 = load ptr, ptr %7, align 8, !dbg !4931
  %9 = load i64, ptr %4, align 8, !dbg !4932
  %10 = getelementptr inbounds %"class.std::__cxx11::basic_string", ptr %8, i64 %9, !dbg !4933
  ret ptr %10, !dbg !4934
}

; Function Attrs: nounwind
declare noundef i64 @_ZNKSt7__cxx1112basic_stringIcSt11char_traitsIcESaIcEE6lengthEv(ptr noundef nonnull align 8 dereferenceable(32)) #2

; Function Attrs: nounwind
declare noundef nonnull align 1 dereferenceable(1) ptr @_ZNKSt7__cxx1112basic_stringIcSt11char_traitsIcESaIcEEixEm(ptr noundef nonnull align 8 dereferenceable(32), i64 noundef) #2

; Function Attrs: mustprogress noinline optnone uwtable
define linkonce_odr dso_local ptr @_ZNSt6vectorINSt7__cxx1112basic_stringIcSt11char_traitsIcESaIcEEESaIS5_EE5eraseEN9__gnu_cxx17__normal_iteratorIPKS5_S7_EE(ptr noundef nonnull align 8 dereferenceable(24) %0, ptr %1) #4 comdat align 2 !dbg !4935 {
  %3 = alloca %"class.__gnu_cxx::__normal_iterator", align 8
  %4 = alloca %"class.__gnu_cxx::__normal_iterator.81", align 8
  %5 = alloca ptr, align 8
  %6 = alloca %"class.__gnu_cxx::__normal_iterator", align 8
  %7 = alloca %"class.__gnu_cxx::__normal_iterator", align 8
  %8 = alloca %"class.__gnu_cxx::__normal_iterator.81", align 8
  %9 = getelementptr inbounds %"class.__gnu_cxx::__normal_iterator.81", ptr %4, i32 0, i32 0
  store ptr %1, ptr %9, align 8
  store ptr %0, ptr %5, align 8
  call void @llvm.dbg.declare(metadata ptr %5, metadata !4936, metadata !DIExpression()), !dbg !4937
  call void @llvm.dbg.declare(metadata ptr %4, metadata !4938, metadata !DIExpression()), !dbg !4939
  %10 = load ptr, ptr %5, align 8
  %11 = call ptr @_ZNSt6vectorINSt7__cxx1112basic_stringIcSt11char_traitsIcESaIcEEESaIS5_EE5beginEv(ptr noundef nonnull align 8 dereferenceable(24) %10) #3, !dbg !4940
  %12 = getelementptr inbounds %"class.__gnu_cxx::__normal_iterator", ptr %7, i32 0, i32 0, !dbg !4940
  store ptr %11, ptr %12, align 8, !dbg !4940
  %13 = call ptr @_ZNKSt6vectorINSt7__cxx1112basic_stringIcSt11char_traitsIcESaIcEEESaIS5_EE6cbeginEv(ptr noundef nonnull align 8 dereferenceable(24) %10) #3, !dbg !4941
  %14 = getelementptr inbounds %"class.__gnu_cxx::__normal_iterator.81", ptr %8, i32 0, i32 0, !dbg !4941
  store ptr %13, ptr %14, align 8, !dbg !4941
  %15 = call noundef i64 @_ZN9__gnu_cxxmiIPKNSt7__cxx1112basic_stringIcSt11char_traitsIcESaIcEEESt6vectorIS6_SaIS6_EEEENS_17__normal_iteratorIT_T0_E15difference_typeERKSF_SI_(ptr noundef nonnull align 8 dereferenceable(8) %4, ptr noundef nonnull align 8 dereferenceable(8) %8) #3, !dbg !4942
  %16 = call ptr @_ZNK9__gnu_cxx17__normal_iteratorIPNSt7__cxx1112basic_stringIcSt11char_traitsIcESaIcEEESt6vectorIS6_SaIS6_EEEplEl(ptr noundef nonnull align 8 dereferenceable(8) %7, i64 noundef %15) #3, !dbg !4943
  %17 = getelementptr inbounds %"class.__gnu_cxx::__normal_iterator", ptr %6, i32 0, i32 0, !dbg !4943
  store ptr %16, ptr %17, align 8, !dbg !4943
  %18 = getelementptr inbounds %"class.__gnu_cxx::__normal_iterator", ptr %6, i32 0, i32 0, !dbg !4944
  %19 = load ptr, ptr %18, align 8, !dbg !4944
  %20 = call ptr @_ZNSt6vectorINSt7__cxx1112basic_stringIcSt11char_traitsIcESaIcEEESaIS5_EE8_M_eraseEN9__gnu_cxx17__normal_iteratorIPS5_S7_EE(ptr noundef nonnull align 8 dereferenceable(24) %10, ptr %19), !dbg !4944
  %21 = getelementptr inbounds %"class.__gnu_cxx::__normal_iterator", ptr %3, i32 0, i32 0, !dbg !4944
  store ptr %20, ptr %21, align 8, !dbg !4944
  %22 = getelementptr inbounds %"class.__gnu_cxx::__normal_iterator", ptr %3, i32 0, i32 0, !dbg !4945
  %23 = load ptr, ptr %22, align 8, !dbg !4945
  ret ptr %23, !dbg !4945
}

; Function Attrs: mustprogress noinline nounwind optnone uwtable
define linkonce_odr dso_local ptr @_ZNSt6vectorINSt7__cxx1112basic_stringIcSt11char_traitsIcESaIcEEESaIS5_EE5beginEv(ptr noundef nonnull align 8 dereferenceable(24) %0) #7 comdat align 2 !dbg !4946 {
  %2 = alloca %"class.__gnu_cxx::__normal_iterator", align 8
  %3 = alloca ptr, align 8
  store ptr %0, ptr %3, align 8
  call void @llvm.dbg.declare(metadata ptr %3, metadata !4947, metadata !DIExpression()), !dbg !4948
  %4 = load ptr, ptr %3, align 8
  %5 = getelementptr inbounds %"struct.std::_Vector_base.37", ptr %4, i32 0, i32 0, !dbg !4949
  %6 = getelementptr inbounds %"struct.std::_Vector_base<std::__cxx11::basic_string<char>, std::allocator<std::__cxx11::basic_string<char>>>::_Vector_impl_data", ptr %5, i32 0, i32 0, !dbg !4950
  call void @_ZN9__gnu_cxx17__normal_iteratorIPNSt7__cxx1112basic_stringIcSt11char_traitsIcESaIcEEESt6vectorIS6_SaIS6_EEEC2ERKS7_(ptr noundef nonnull align 8 dereferenceable(8) %2, ptr noundef nonnull align 8 dereferenceable(8) %6) #3, !dbg !4951
  %7 = getelementptr inbounds %"class.__gnu_cxx::__normal_iterator", ptr %2, i32 0, i32 0, !dbg !4952
  %8 = load ptr, ptr %7, align 8, !dbg !4952
  ret ptr %8, !dbg !4952
}

; Function Attrs: noinline nounwind optnone uwtable
define linkonce_odr dso_local void @_ZN9__gnu_cxx17__normal_iteratorIPKNSt7__cxx1112basic_stringIcSt11char_traitsIcESaIcEEESt6vectorIS6_SaIS6_EEEC2IPS6_EERKNS0_IT_NS_11__enable_ifIXsr3std10__are_sameISF_SE_EE7__valueESB_E6__typeEEE(ptr noundef nonnull align 8 dereferenceable(8) %0, ptr noundef nonnull align 8 dereferenceable(8) %1) unnamed_addr #11 comdat align 2 !dbg !4953 {
  %3 = alloca ptr, align 8
  %4 = alloca ptr, align 8
  store ptr %0, ptr %3, align 8
  call void @llvm.dbg.declare(metadata ptr %3, metadata !4960, metadata !DIExpression()), !dbg !4962
  store ptr %1, ptr %4, align 8
  call void @llvm.dbg.declare(metadata ptr %4, metadata !4963, metadata !DIExpression()), !dbg !4964
  %5 = load ptr, ptr %3, align 8
  %6 = getelementptr inbounds %"class.__gnu_cxx::__normal_iterator.81", ptr %5, i32 0, i32 0, !dbg !4965
  %7 = load ptr, ptr %4, align 8, !dbg !4966
  %8 = call noundef nonnull align 8 dereferenceable(8) ptr @_ZNK9__gnu_cxx17__normal_iteratorIPNSt7__cxx1112basic_stringIcSt11char_traitsIcESaIcEEESt6vectorIS6_SaIS6_EEE4baseEv(ptr noundef nonnull align 8 dereferenceable(8) %7) #3, !dbg !4967
  %9 = load ptr, ptr %8, align 8, !dbg !4967
  store ptr %9, ptr %6, align 8, !dbg !4965
  ret void, !dbg !4968
}

declare void @_ZNKSt7__cxx1112basic_stringIcSt11char_traitsIcESaIcEE6substrEmm(ptr sret(%"class.std::__cxx11::basic_string") align 8, ptr noundef nonnull align 8 dereferenceable(32), i64 noundef, i64 noundef) #1

; Function Attrs: nounwind
declare noundef nonnull align 8 dereferenceable(32) ptr @_ZNSt7__cxx1112basic_stringIcSt11char_traitsIcESaIcEEaSEOS4_(ptr noundef nonnull align 8 dereferenceable(32), ptr noundef nonnull align 8 dereferenceable(32)) #2

; Function Attrs: nounwind
declare noundef i64 @_ZNKSt7__cxx1112basic_stringIcSt11char_traitsIcESaIcEE4findEcm(ptr noundef nonnull align 8 dereferenceable(32), i8 noundef signext, i64 noundef) #2

; Function Attrs: mustprogress noinline nounwind optnone uwtable
define linkonce_odr dso_local noundef zeroext i1 @_ZNKSt6vectorINSt7__cxx1112basic_stringIcSt11char_traitsIcESaIcEEESaIS5_EE5emptyEv(ptr noundef nonnull align 8 dereferenceable(24) %0) #7 comdat align 2 !dbg !4969 {
  %2 = alloca ptr, align 8
  %3 = alloca %"class.__gnu_cxx::__normal_iterator.81", align 8
  %4 = alloca %"class.__gnu_cxx::__normal_iterator.81", align 8
  store ptr %0, ptr %2, align 8
  call void @llvm.dbg.declare(metadata ptr %2, metadata !4970, metadata !DIExpression()), !dbg !4971
  %5 = load ptr, ptr %2, align 8
  %6 = call ptr @_ZNKSt6vectorINSt7__cxx1112basic_stringIcSt11char_traitsIcESaIcEEESaIS5_EE5beginEv(ptr noundef nonnull align 8 dereferenceable(24) %5) #3, !dbg !4972
  %7 = getelementptr inbounds %"class.__gnu_cxx::__normal_iterator.81", ptr %3, i32 0, i32 0, !dbg !4972
  store ptr %6, ptr %7, align 8, !dbg !4972
  %8 = call ptr @_ZNKSt6vectorINSt7__cxx1112basic_stringIcSt11char_traitsIcESaIcEEESaIS5_EE3endEv(ptr noundef nonnull align 8 dereferenceable(24) %5) #3, !dbg !4973
  %9 = getelementptr inbounds %"class.__gnu_cxx::__normal_iterator.81", ptr %4, i32 0, i32 0, !dbg !4973
  store ptr %8, ptr %9, align 8, !dbg !4973
  %10 = call noundef zeroext i1 @_ZN9__gnu_cxxeqIPKNSt7__cxx1112basic_stringIcSt11char_traitsIcESaIcEEESt6vectorIS6_SaIS6_EEEEbRKNS_17__normal_iteratorIT_T0_EESH_(ptr noundef nonnull align 8 dereferenceable(8) %3, ptr noundef nonnull align 8 dereferenceable(8) %4) #3, !dbg !4974
  ret i1 %10, !dbg !4975
}

; Function Attrs: noinline nounwind optnone uwtable
define linkonce_odr dso_local void @_ZNSaImEC2Ev(ptr noundef nonnull align 1 dereferenceable(1) %0) unnamed_addr #11 comdat align 2 !dbg !4976 {
  %2 = alloca ptr, align 8
  store ptr %0, ptr %2, align 8
  call void @llvm.dbg.declare(metadata ptr %2, metadata !4977, metadata !DIExpression()), !dbg !4979
  %3 = load ptr, ptr %2, align 8
  call void @_ZN9__gnu_cxx13new_allocatorImEC2Ev(ptr noundef nonnull align 1 dereferenceable(1) %3) #3, !dbg !4980
  ret void, !dbg !4981
}

; Function Attrs: noinline optnone uwtable
define linkonce_odr dso_local void @_ZNSt6vectorImSaImEEC2EmRKS0_(ptr noundef nonnull align 8 dereferenceable(24) %0, i64 noundef %1, ptr noundef nonnull align 1 dereferenceable(1) %2) unnamed_addr #6 comdat align 2 personality ptr @__gxx_personality_v0 !dbg !4982 {
  %4 = alloca ptr, align 8
  %5 = alloca i64, align 8
  %6 = alloca ptr, align 8
  %7 = alloca ptr, align 8
  %8 = alloca i32, align 4
  store ptr %0, ptr %4, align 8
  call void @llvm.dbg.declare(metadata ptr %4, metadata !4983, metadata !DIExpression()), !dbg !4985
  store i64 %1, ptr %5, align 8
  call void @llvm.dbg.declare(metadata ptr %5, metadata !4986, metadata !DIExpression()), !dbg !4987
  store ptr %2, ptr %6, align 8
  call void @llvm.dbg.declare(metadata ptr %6, metadata !4988, metadata !DIExpression()), !dbg !4989
  %9 = load ptr, ptr %4, align 8
  %10 = load i64, ptr %5, align 8, !dbg !4990
  %11 = load ptr, ptr %6, align 8, !dbg !4991
  %12 = call noundef i64 @_ZNSt6vectorImSaImEE17_S_check_init_lenEmRKS0_(i64 noundef %10, ptr noundef nonnull align 1 dereferenceable(1) %11), !dbg !4992
  %13 = load ptr, ptr %6, align 8, !dbg !4993
  call void @_ZNSt12_Vector_baseImSaImEEC2EmRKS0_(ptr noundef nonnull align 8 dereferenceable(24) %9, i64 noundef %12, ptr noundef nonnull align 1 dereferenceable(1) %13), !dbg !4994
  %14 = load i64, ptr %5, align 8, !dbg !4995
  invoke void @_ZNSt6vectorImSaImEE21_M_default_initializeEm(ptr noundef nonnull align 8 dereferenceable(24) %9, i64 noundef %14)
          to label %15 unwind label %16, !dbg !4997

15:                                               ; preds = %3
  ret void, !dbg !4998

16:                                               ; preds = %3
  %17 = landingpad { ptr, i32 }
          cleanup, !dbg !4999
  %18 = extractvalue { ptr, i32 } %17, 0, !dbg !4999
  store ptr %18, ptr %7, align 8, !dbg !4999
  %19 = extractvalue { ptr, i32 } %17, 1, !dbg !4999
  store i32 %19, ptr %8, align 4, !dbg !4999
  call void @_ZNSt12_Vector_baseImSaImEED2Ev(ptr noundef nonnull align 8 dereferenceable(24) %9) #3, !dbg !4999
  br label %20, !dbg !4999

20:                                               ; preds = %16
  %21 = load ptr, ptr %7, align 8, !dbg !4999
  %22 = load i32, ptr %8, align 4, !dbg !4999
  %23 = insertvalue { ptr, i32 } poison, ptr %21, 0, !dbg !4999
  %24 = insertvalue { ptr, i32 } %23, i32 %22, 1, !dbg !4999
  resume { ptr, i32 } %24, !dbg !4999
}

; Function Attrs: noinline nounwind optnone uwtable
define linkonce_odr dso_local void @_ZNSaImED2Ev(ptr noundef nonnull align 1 dereferenceable(1) %0) unnamed_addr #11 comdat align 2 !dbg !5000 {
  %2 = alloca ptr, align 8
  store ptr %0, ptr %2, align 8
  call void @llvm.dbg.declare(metadata ptr %2, metadata !5001, metadata !DIExpression()), !dbg !5002
  %3 = load ptr, ptr %2, align 8
  call void @_ZN9__gnu_cxx13new_allocatorImED2Ev(ptr noundef nonnull align 1 dereferenceable(1) %3) #3, !dbg !5003
  ret void, !dbg !5005
}

; Function Attrs: mustprogress noinline optnone uwtable
define linkonce_odr dso_local void @_ZNSt6vectorImSaImEE7reserveEm(ptr noundef nonnull align 8 dereferenceable(24) %0, i64 noundef %1) #4 comdat align 2 !dbg !5006 {
  %3 = alloca ptr, align 8
  %4 = alloca i64, align 8
  %5 = alloca i64, align 8
  %6 = alloca ptr, align 8
  store ptr %0, ptr %3, align 8
  call void @llvm.dbg.declare(metadata ptr %3, metadata !5007, metadata !DIExpression()), !dbg !5008
  store i64 %1, ptr %4, align 8
  call void @llvm.dbg.declare(metadata ptr %4, metadata !5009, metadata !DIExpression()), !dbg !5010
  %7 = load ptr, ptr %3, align 8
  %8 = load i64, ptr %4, align 8, !dbg !5011
  %9 = call noundef i64 @_ZNKSt6vectorImSaImEE8max_sizeEv(ptr noundef nonnull align 8 dereferenceable(24) %7) #3, !dbg !5013
  %10 = icmp ugt i64 %8, %9, !dbg !5014
  br i1 %10, label %11, label %12, !dbg !5015

11:                                               ; preds = %2
  call void @_ZSt20__throw_length_errorPKc(ptr noundef @.str.36) #22, !dbg !5016
  unreachable, !dbg !5016

12:                                               ; preds = %2
  %13 = call noundef i64 @_ZNKSt6vectorImSaImEE8capacityEv(ptr noundef nonnull align 8 dereferenceable(24) %7) #3, !dbg !5017
  %14 = load i64, ptr %4, align 8, !dbg !5019
  %15 = icmp ult i64 %13, %14, !dbg !5020
  br i1 %15, label %16, label %57, !dbg !5021

16:                                               ; preds = %12
  call void @llvm.dbg.declare(metadata ptr %5, metadata !5022, metadata !DIExpression()), !dbg !5025
  %17 = call noundef i64 @_ZNKSt6vectorImSaImEE4sizeEv(ptr noundef nonnull align 8 dereferenceable(24) %7) #3, !dbg !5026
  store i64 %17, ptr %5, align 8, !dbg !5025
  call void @llvm.dbg.declare(metadata ptr %6, metadata !5027, metadata !DIExpression()), !dbg !5028
  %18 = load i64, ptr %4, align 8, !dbg !5029
  %19 = call noundef ptr @_ZNSt12_Vector_baseImSaImEE11_M_allocateEm(ptr noundef nonnull align 8 dereferenceable(24) %7, i64 noundef %18), !dbg !5032
  store ptr %19, ptr %6, align 8, !dbg !5033
  %20 = getelementptr inbounds %"struct.std::_Vector_base.83", ptr %7, i32 0, i32 0, !dbg !5034
  %21 = getelementptr inbounds %"struct.std::_Vector_base<unsigned long, std::allocator<unsigned long>>::_Vector_impl_data", ptr %20, i32 0, i32 0, !dbg !5035
  %22 = load ptr, ptr %21, align 8, !dbg !5035
  %23 = getelementptr inbounds %"struct.std::_Vector_base.83", ptr %7, i32 0, i32 0, !dbg !5036
  %24 = getelementptr inbounds %"struct.std::_Vector_base<unsigned long, std::allocator<unsigned long>>::_Vector_impl_data", ptr %23, i32 0, i32 1, !dbg !5037
  %25 = load ptr, ptr %24, align 8, !dbg !5037
  %26 = load ptr, ptr %6, align 8, !dbg !5038
  %27 = call noundef nonnull align 1 dereferenceable(1) ptr @_ZNSt12_Vector_baseImSaImEE19_M_get_Tp_allocatorEv(ptr noundef nonnull align 8 dereferenceable(24) %7) #3, !dbg !5039
  %28 = call noundef ptr @_ZNSt6vectorImSaImEE11_S_relocateEPmS2_S2_RS0_(ptr noundef %22, ptr noundef %25, ptr noundef %26, ptr noundef nonnull align 1 dereferenceable(1) %27) #3, !dbg !5040
  %29 = getelementptr inbounds %"struct.std::_Vector_base.83", ptr %7, i32 0, i32 0, !dbg !5041
  %30 = getelementptr inbounds %"struct.std::_Vector_base<unsigned long, std::allocator<unsigned long>>::_Vector_impl_data", ptr %29, i32 0, i32 0, !dbg !5042
  %31 = load ptr, ptr %30, align 8, !dbg !5042
  %32 = getelementptr inbounds %"struct.std::_Vector_base.83", ptr %7, i32 0, i32 0, !dbg !5043
  %33 = getelementptr inbounds %"struct.std::_Vector_base<unsigned long, std::allocator<unsigned long>>::_Vector_impl_data", ptr %32, i32 0, i32 2, !dbg !5044
  %34 = load ptr, ptr %33, align 8, !dbg !5044
  %35 = getelementptr inbounds %"struct.std::_Vector_base.83", ptr %7, i32 0, i32 0, !dbg !5045
  %36 = getelementptr inbounds %"struct.std::_Vector_base<unsigned long, std::allocator<unsigned long>>::_Vector_impl_data", ptr %35, i32 0, i32 0, !dbg !5046
  %37 = load ptr, ptr %36, align 8, !dbg !5046
  %38 = ptrtoint ptr %34 to i64, !dbg !5047
  %39 = ptrtoint ptr %37 to i64, !dbg !5047
  %40 = sub i64 %38, %39, !dbg !5047
  %41 = sdiv exact i64 %40, 8, !dbg !5047
  call void @_ZNSt12_Vector_baseImSaImEE13_M_deallocateEPmm(ptr noundef nonnull align 8 dereferenceable(24) %7, ptr noundef %31, i64 noundef %41), !dbg !5048
  %42 = load ptr, ptr %6, align 8, !dbg !5049
  %43 = getelementptr inbounds %"struct.std::_Vector_base.83", ptr %7, i32 0, i32 0, !dbg !5050
  %44 = getelementptr inbounds %"struct.std::_Vector_base<unsigned long, std::allocator<unsigned long>>::_Vector_impl_data", ptr %43, i32 0, i32 0, !dbg !5051
  store ptr %42, ptr %44, align 8, !dbg !5052
  %45 = load ptr, ptr %6, align 8, !dbg !5053
  %46 = load i64, ptr %5, align 8, !dbg !5054
  %47 = getelementptr inbounds i64, ptr %45, i64 %46, !dbg !5055
  %48 = getelementptr inbounds %"struct.std::_Vector_base.83", ptr %7, i32 0, i32 0, !dbg !5056
  %49 = getelementptr inbounds %"struct.std::_Vector_base<unsigned long, std::allocator<unsigned long>>::_Vector_impl_data", ptr %48, i32 0, i32 1, !dbg !5057
  store ptr %47, ptr %49, align 8, !dbg !5058
  %50 = getelementptr inbounds %"struct.std::_Vector_base.83", ptr %7, i32 0, i32 0, !dbg !5059
  %51 = getelementptr inbounds %"struct.std::_Vector_base<unsigned long, std::allocator<unsigned long>>::_Vector_impl_data", ptr %50, i32 0, i32 0, !dbg !5060
  %52 = load ptr, ptr %51, align 8, !dbg !5060
  %53 = load i64, ptr %4, align 8, !dbg !5061
  %54 = getelementptr inbounds i64, ptr %52, i64 %53, !dbg !5062
  %55 = getelementptr inbounds %"struct.std::_Vector_base.83", ptr %7, i32 0, i32 0, !dbg !5063
  %56 = getelementptr inbounds %"struct.std::_Vector_base<unsigned long, std::allocator<unsigned long>>::_Vector_impl_data", ptr %55, i32 0, i32 2, !dbg !5064
  store ptr %54, ptr %56, align 8, !dbg !5065
  br label %57, !dbg !5066

57:                                               ; preds = %16, %12
  ret void, !dbg !5067
}

; Function Attrs: mustprogress noinline nounwind optnone uwtable
define linkonce_odr dso_local noundef nonnull align 8 dereferenceable(8) ptr @_ZSt3minImERKT_S2_S2_(ptr noundef nonnull align 8 dereferenceable(8) %0, ptr noundef nonnull align 8 dereferenceable(8) %1) #7 comdat !dbg !5068 {
  %3 = alloca ptr, align 8
  %4 = alloca ptr, align 8
  %5 = alloca ptr, align 8
  store ptr %0, ptr %4, align 8
  call void @llvm.dbg.declare(metadata ptr %4, metadata !5071, metadata !DIExpression()), !dbg !5072
  store ptr %1, ptr %5, align 8
  call void @llvm.dbg.declare(metadata ptr %5, metadata !5073, metadata !DIExpression()), !dbg !5074
  %6 = load ptr, ptr %5, align 8, !dbg !5075
  %7 = load i64, ptr %6, align 8, !dbg !5075
  %8 = load ptr, ptr %4, align 8, !dbg !5077
  %9 = load i64, ptr %8, align 8, !dbg !5077
  %10 = icmp ult i64 %7, %9, !dbg !5078
  br i1 %10, label %11, label %13, !dbg !5079

11:                                               ; preds = %2
  %12 = load ptr, ptr %5, align 8, !dbg !5080
  store ptr %12, ptr %3, align 8, !dbg !5081
  br label %15, !dbg !5081

13:                                               ; preds = %2
  %14 = load ptr, ptr %4, align 8, !dbg !5082
  store ptr %14, ptr %3, align 8, !dbg !5083
  br label %15, !dbg !5083

15:                                               ; preds = %13, %11
  %16 = load ptr, ptr %3, align 8, !dbg !5084
  ret ptr %16, !dbg !5084
}

; Function Attrs: noinline nounwind optnone uwtable
define linkonce_odr dso_local void @_ZNSaINSt7__cxx1112basic_stringIcSt11char_traitsIcESaIcEEEEC2Ev(ptr noundef nonnull align 1 dereferenceable(1) %0) unnamed_addr #11 comdat align 2 !dbg !5085 {
  %2 = alloca ptr, align 8
  store ptr %0, ptr %2, align 8
  call void @llvm.dbg.declare(metadata ptr %2, metadata !5086, metadata !DIExpression()), !dbg !5088
  %3 = load ptr, ptr %2, align 8
  call void @_ZN9__gnu_cxx13new_allocatorINSt7__cxx1112basic_stringIcSt11char_traitsIcESaIcEEEEC2Ev(ptr noundef nonnull align 1 dereferenceable(1) %3) #3, !dbg !5089
  ret void, !dbg !5090
}

; Function Attrs: noinline optnone uwtable
define linkonce_odr dso_local void @_ZNSt6vectorINSt7__cxx1112basic_stringIcSt11char_traitsIcESaIcEEESaIS5_EEC2EmRKS6_(ptr noundef nonnull align 8 dereferenceable(24) %0, i64 noundef %1, ptr noundef nonnull align 1 dereferenceable(1) %2) unnamed_addr #6 comdat align 2 personality ptr @__gxx_personality_v0 !dbg !5091 {
  %4 = alloca ptr, align 8
  %5 = alloca i64, align 8
  %6 = alloca ptr, align 8
  %7 = alloca ptr, align 8
  %8 = alloca i32, align 4
  store ptr %0, ptr %4, align 8
  call void @llvm.dbg.declare(metadata ptr %4, metadata !5092, metadata !DIExpression()), !dbg !5093
  store i64 %1, ptr %5, align 8
  call void @llvm.dbg.declare(metadata ptr %5, metadata !5094, metadata !DIExpression()), !dbg !5095
  store ptr %2, ptr %6, align 8
  call void @llvm.dbg.declare(metadata ptr %6, metadata !5096, metadata !DIExpression()), !dbg !5097
  %9 = load ptr, ptr %4, align 8
  %10 = load i64, ptr %5, align 8, !dbg !5098
  %11 = load ptr, ptr %6, align 8, !dbg !5099
  %12 = call noundef i64 @_ZNSt6vectorINSt7__cxx1112basic_stringIcSt11char_traitsIcESaIcEEESaIS5_EE17_S_check_init_lenEmRKS6_(i64 noundef %10, ptr noundef nonnull align 1 dereferenceable(1) %11), !dbg !5100
  %13 = load ptr, ptr %6, align 8, !dbg !5101
  call void @_ZNSt12_Vector_baseINSt7__cxx1112basic_stringIcSt11char_traitsIcESaIcEEESaIS5_EEC2EmRKS6_(ptr noundef nonnull align 8 dereferenceable(24) %9, i64 noundef %12, ptr noundef nonnull align 1 dereferenceable(1) %13), !dbg !5102
  %14 = load i64, ptr %5, align 8, !dbg !5103
  invoke void @_ZNSt6vectorINSt7__cxx1112basic_stringIcSt11char_traitsIcESaIcEEESaIS5_EE21_M_default_initializeEm(ptr noundef nonnull align 8 dereferenceable(24) %9, i64 noundef %14)
          to label %15 unwind label %16, !dbg !5105

15:                                               ; preds = %3
  ret void, !dbg !5106

16:                                               ; preds = %3
  %17 = landingpad { ptr, i32 }
          cleanup, !dbg !5107
  %18 = extractvalue { ptr, i32 } %17, 0, !dbg !5107
  store ptr %18, ptr %7, align 8, !dbg !5107
  %19 = extractvalue { ptr, i32 } %17, 1, !dbg !5107
  store i32 %19, ptr %8, align 4, !dbg !5107
  call void @_ZNSt12_Vector_baseINSt7__cxx1112basic_stringIcSt11char_traitsIcESaIcEEESaIS5_EED2Ev(ptr noundef nonnull align 8 dereferenceable(24) %9) #3, !dbg !5107
  br label %20, !dbg !5107

20:                                               ; preds = %16
  %21 = load ptr, ptr %7, align 8, !dbg !5107
  %22 = load i32, ptr %8, align 4, !dbg !5107
  %23 = insertvalue { ptr, i32 } poison, ptr %21, 0, !dbg !5107
  %24 = insertvalue { ptr, i32 } %23, i32 %22, 1, !dbg !5107
  resume { ptr, i32 } %24, !dbg !5107
}

; Function Attrs: noinline nounwind optnone uwtable
define linkonce_odr dso_local void @_ZNSaINSt7__cxx1112basic_stringIcSt11char_traitsIcESaIcEEEED2Ev(ptr noundef nonnull align 1 dereferenceable(1) %0) unnamed_addr #11 comdat align 2 !dbg !5108 {
  %2 = alloca ptr, align 8
  store ptr %0, ptr %2, align 8
  call void @llvm.dbg.declare(metadata ptr %2, metadata !5109, metadata !DIExpression()), !dbg !5110
  %3 = load ptr, ptr %2, align 8
  call void @_ZN9__gnu_cxx13new_allocatorINSt7__cxx1112basic_stringIcSt11char_traitsIcESaIcEEEED2Ev(ptr noundef nonnull align 1 dereferenceable(1) %3) #3, !dbg !5111
  ret void, !dbg !5113
}

; Function Attrs: mustprogress noinline optnone uwtable
define linkonce_odr dso_local ptr @_ZSt4copyIN9__gnu_cxx17__normal_iteratorIPNSt7__cxx1112basic_stringIcSt11char_traitsIcESaIcEEESt6vectorIS7_SaIS7_EEEESC_ET0_T_SE_SD_(ptr %0, ptr %1, ptr %2) #4 comdat !dbg !5114 {
  %4 = alloca %"class.__gnu_cxx::__normal_iterator", align 8
  %5 = alloca %"class.__gnu_cxx::__normal_iterator", align 8
  %6 = alloca %"class.__gnu_cxx::__normal_iterator", align 8
  %7 = alloca %"class.__gnu_cxx::__normal_iterator", align 8
  %8 = alloca %"class.__gnu_cxx::__normal_iterator", align 8
  %9 = alloca %"class.__gnu_cxx::__normal_iterator", align 8
  %10 = alloca %"class.__gnu_cxx::__normal_iterator", align 8
  %11 = alloca %"class.__gnu_cxx::__normal_iterator", align 8
  %12 = alloca %"class.__gnu_cxx::__normal_iterator", align 8
  %13 = getelementptr inbounds %"class.__gnu_cxx::__normal_iterator", ptr %5, i32 0, i32 0
  store ptr %0, ptr %13, align 8
  %14 = getelementptr inbounds %"class.__gnu_cxx::__normal_iterator", ptr %6, i32 0, i32 0
  store ptr %1, ptr %14, align 8
  %15 = getelementptr inbounds %"class.__gnu_cxx::__normal_iterator", ptr %7, i32 0, i32 0
  store ptr %2, ptr %15, align 8
  call void @llvm.dbg.declare(metadata ptr %5, metadata !5120, metadata !DIExpression()), !dbg !5121
  call void @llvm.dbg.declare(metadata ptr %6, metadata !5122, metadata !DIExpression()), !dbg !5123
  call void @llvm.dbg.declare(metadata ptr %7, metadata !5124, metadata !DIExpression()), !dbg !5125
  call void @llvm.memcpy.p0.p0.i64(ptr align 8 %9, ptr align 8 %5, i64 8, i1 false), !dbg !5126
  %16 = getelementptr inbounds %"class.__gnu_cxx::__normal_iterator", ptr %9, i32 0, i32 0, !dbg !5127
  %17 = load ptr, ptr %16, align 8, !dbg !5127
  %18 = call ptr @_ZSt12__miter_baseIN9__gnu_cxx17__normal_iteratorIPNSt7__cxx1112basic_stringIcSt11char_traitsIcESaIcEEESt6vectorIS7_SaIS7_EEEEET_SD_(ptr %17), !dbg !5127
  %19 = getelementptr inbounds %"class.__gnu_cxx::__normal_iterator", ptr %8, i32 0, i32 0, !dbg !5127
  store ptr %18, ptr %19, align 8, !dbg !5127
  call void @llvm.memcpy.p0.p0.i64(ptr align 8 %11, ptr align 8 %6, i64 8, i1 false), !dbg !5128
  %20 = getelementptr inbounds %"class.__gnu_cxx::__normal_iterator", ptr %11, i32 0, i32 0, !dbg !5129
  %21 = load ptr, ptr %20, align 8, !dbg !5129
  %22 = call ptr @_ZSt12__miter_baseIN9__gnu_cxx17__normal_iteratorIPNSt7__cxx1112basic_stringIcSt11char_traitsIcESaIcEEESt6vectorIS7_SaIS7_EEEEET_SD_(ptr %21), !dbg !5129
  %23 = getelementptr inbounds %"class.__gnu_cxx::__normal_iterator", ptr %10, i32 0, i32 0, !dbg !5129
  store ptr %22, ptr %23, align 8, !dbg !5129
  call void @llvm.memcpy.p0.p0.i64(ptr align 8 %12, ptr align 8 %7, i64 8, i1 false), !dbg !5130
  %24 = getelementptr inbounds %"class.__gnu_cxx::__normal_iterator", ptr %8, i32 0, i32 0, !dbg !5131
  %25 = load ptr, ptr %24, align 8, !dbg !5131
  %26 = getelementptr inbounds %"class.__gnu_cxx::__normal_iterator", ptr %10, i32 0, i32 0, !dbg !5131
  %27 = load ptr, ptr %26, align 8, !dbg !5131
  %28 = getelementptr inbounds %"class.__gnu_cxx::__normal_iterator", ptr %12, i32 0, i32 0, !dbg !5131
  %29 = load ptr, ptr %28, align 8, !dbg !5131
  %30 = call ptr @_ZSt13__copy_move_aILb0EN9__gnu_cxx17__normal_iteratorIPNSt7__cxx1112basic_stringIcSt11char_traitsIcESaIcEEESt6vectorIS7_SaIS7_EEEESC_ET1_T0_SE_SD_(ptr %25, ptr %27, ptr %29), !dbg !5131
  %31 = getelementptr inbounds %"class.__gnu_cxx::__normal_iterator", ptr %4, i32 0, i32 0, !dbg !5131
  store ptr %30, ptr %31, align 8, !dbg !5131
  %32 = getelementptr inbounds %"class.__gnu_cxx::__normal_iterator", ptr %4, i32 0, i32 0, !dbg !5132
  %33 = load ptr, ptr %32, align 8, !dbg !5132
  ret ptr %33, !dbg !5132
}

; Function Attrs: mustprogress noinline nounwind optnone uwtable
define linkonce_odr dso_local ptr @_ZNK9__gnu_cxx17__normal_iteratorIPNSt7__cxx1112basic_stringIcSt11char_traitsIcESaIcEEESt6vectorIS6_SaIS6_EEEplEl(ptr noundef nonnull align 8 dereferenceable(8) %0, i64 noundef %1) #7 comdat align 2 !dbg !5133 {
  %3 = alloca %"class.__gnu_cxx::__normal_iterator", align 8
  %4 = alloca ptr, align 8
  %5 = alloca i64, align 8
  %6 = alloca ptr, align 8
  store ptr %0, ptr %4, align 8
  call void @llvm.dbg.declare(metadata ptr %4, metadata !5134, metadata !DIExpression()), !dbg !5136
  store i64 %1, ptr %5, align 8
  call void @llvm.dbg.declare(metadata ptr %5, metadata !5137, metadata !DIExpression()), !dbg !5138
  %7 = load ptr, ptr %4, align 8
  %8 = getelementptr inbounds %"class.__gnu_cxx::__normal_iterator", ptr %7, i32 0, i32 0, !dbg !5139
  %9 = load ptr, ptr %8, align 8, !dbg !5139
  %10 = load i64, ptr %5, align 8, !dbg !5140
  %11 = getelementptr inbounds %"class.std::__cxx11::basic_string", ptr %9, i64 %10, !dbg !5141
  store ptr %11, ptr %6, align 8, !dbg !5139
  call void @_ZN9__gnu_cxx17__normal_iteratorIPNSt7__cxx1112basic_stringIcSt11char_traitsIcESaIcEEESt6vectorIS6_SaIS6_EEEC2ERKS7_(ptr noundef nonnull align 8 dereferenceable(8) %3, ptr noundef nonnull align 8 dereferenceable(8) %6) #3, !dbg !5142
  %12 = getelementptr inbounds %"class.__gnu_cxx::__normal_iterator", ptr %3, i32 0, i32 0, !dbg !5143
  %13 = load ptr, ptr %12, align 8, !dbg !5143
  ret ptr %13, !dbg !5143
}

; Function Attrs: nounwind
declare i32 @pthread_create(ptr noundef, ptr noundef, ptr noundef, ptr noundef) #2

; Function Attrs: mustprogress noinline nounwind optnone uwtable
define linkonce_odr dso_local noundef nonnull align 8 dereferenceable(8) ptr @_ZNSt6vectorImSaImEEixEm(ptr noundef nonnull align 8 dereferenceable(24) %0, i64 noundef %1) #7 comdat align 2 !dbg !5144 {
  %3 = alloca ptr, align 8
  %4 = alloca i64, align 8
  store ptr %0, ptr %3, align 8
  call void @llvm.dbg.declare(metadata ptr %3, metadata !5145, metadata !DIExpression()), !dbg !5146
  store i64 %1, ptr %4, align 8
  call void @llvm.dbg.declare(metadata ptr %4, metadata !5147, metadata !DIExpression()), !dbg !5148
  %5 = load ptr, ptr %3, align 8
  %6 = getelementptr inbounds %"struct.std::_Vector_base.83", ptr %5, i32 0, i32 0, !dbg !5149
  %7 = getelementptr inbounds %"struct.std::_Vector_base<unsigned long, std::allocator<unsigned long>>::_Vector_impl_data", ptr %6, i32 0, i32 0, !dbg !5150
  %8 = load ptr, ptr %7, align 8, !dbg !5150
  %9 = load i64, ptr %4, align 8, !dbg !5151
  %10 = getelementptr inbounds i64, ptr %8, i64 %9, !dbg !5152
  ret ptr %10, !dbg !5153
}

declare noundef nonnull align 8 dereferenceable(8) ptr @_ZNSolsEi(ptr noundef nonnull align 8 dereferenceable(8), i32 noundef) #1

; Function Attrs: noinline nounwind optnone uwtable
define linkonce_odr dso_local void @_ZNSt6vectorINSt7__cxx1112basic_stringIcSt11char_traitsIcESaIcEEESaIS5_EED2Ev(ptr noundef nonnull align 8 dereferenceable(24) %0) unnamed_addr #11 comdat align 2 personality ptr @__gxx_personality_v0 !dbg !5154 {
  %2 = alloca ptr, align 8
  store ptr %0, ptr %2, align 8
  call void @llvm.dbg.declare(metadata ptr %2, metadata !5155, metadata !DIExpression()), !dbg !5156
  %3 = load ptr, ptr %2, align 8
  %4 = getelementptr inbounds %"struct.std::_Vector_base.37", ptr %3, i32 0, i32 0, !dbg !5157
  %5 = getelementptr inbounds %"struct.std::_Vector_base<std::__cxx11::basic_string<char>, std::allocator<std::__cxx11::basic_string<char>>>::_Vector_impl_data", ptr %4, i32 0, i32 0, !dbg !5159
  %6 = load ptr, ptr %5, align 8, !dbg !5159
  %7 = getelementptr inbounds %"struct.std::_Vector_base.37", ptr %3, i32 0, i32 0, !dbg !5160
  %8 = getelementptr inbounds %"struct.std::_Vector_base<std::__cxx11::basic_string<char>, std::allocator<std::__cxx11::basic_string<char>>>::_Vector_impl_data", ptr %7, i32 0, i32 1, !dbg !5161
  %9 = load ptr, ptr %8, align 8, !dbg !5161
  %10 = call noundef nonnull align 1 dereferenceable(1) ptr @_ZNSt12_Vector_baseINSt7__cxx1112basic_stringIcSt11char_traitsIcESaIcEEESaIS5_EE19_M_get_Tp_allocatorEv(ptr noundef nonnull align 8 dereferenceable(24) %3) #3, !dbg !5162
  invoke void @_ZSt8_DestroyIPNSt7__cxx1112basic_stringIcSt11char_traitsIcESaIcEEES5_EvT_S7_RSaIT0_E(ptr noundef %6, ptr noundef %9, ptr noundef nonnull align 1 dereferenceable(1) %10)
          to label %11 unwind label %12, !dbg !5163

11:                                               ; preds = %1
  call void @_ZNSt12_Vector_baseINSt7__cxx1112basic_stringIcSt11char_traitsIcESaIcEEESaIS5_EED2Ev(ptr noundef nonnull align 8 dereferenceable(24) %3) #3, !dbg !5164
  ret void, !dbg !5165

12:                                               ; preds = %1
  %13 = landingpad { ptr, i32 }
          catch ptr null, !dbg !5163
  %14 = extractvalue { ptr, i32 } %13, 0, !dbg !5163
  call void @__clang_call_terminate(ptr %14) #19, !dbg !5163
  unreachable, !dbg !5163
}

; Function Attrs: mustprogress noinline nounwind optnone uwtable
define linkonce_odr dso_local ptr @_ZNSt6vectorImSaImEE5beginEv(ptr noundef nonnull align 8 dereferenceable(24) %0) #7 comdat align 2 !dbg !5166 {
  %2 = alloca %"class.__gnu_cxx::__normal_iterator.87", align 8
  %3 = alloca ptr, align 8
  store ptr %0, ptr %3, align 8
  call void @llvm.dbg.declare(metadata ptr %3, metadata !5167, metadata !DIExpression()), !dbg !5168
  %4 = load ptr, ptr %3, align 8
  %5 = getelementptr inbounds %"struct.std::_Vector_base.83", ptr %4, i32 0, i32 0, !dbg !5169
  %6 = getelementptr inbounds %"struct.std::_Vector_base<unsigned long, std::allocator<unsigned long>>::_Vector_impl_data", ptr %5, i32 0, i32 0, !dbg !5170
  call void @_ZN9__gnu_cxx17__normal_iteratorIPmSt6vectorImSaImEEEC2ERKS1_(ptr noundef nonnull align 8 dereferenceable(8) %2, ptr noundef nonnull align 8 dereferenceable(8) %6) #3, !dbg !5171
  %7 = getelementptr inbounds %"class.__gnu_cxx::__normal_iterator.87", ptr %2, i32 0, i32 0, !dbg !5172
  %8 = load ptr, ptr %7, align 8, !dbg !5172
  ret ptr %8, !dbg !5172
}

; Function Attrs: mustprogress noinline nounwind optnone uwtable
define linkonce_odr dso_local ptr @_ZNSt6vectorImSaImEE3endEv(ptr noundef nonnull align 8 dereferenceable(24) %0) #7 comdat align 2 !dbg !5173 {
  %2 = alloca %"class.__gnu_cxx::__normal_iterator.87", align 8
  %3 = alloca ptr, align 8
  store ptr %0, ptr %3, align 8
  call void @llvm.dbg.declare(metadata ptr %3, metadata !5174, metadata !DIExpression()), !dbg !5175
  %4 = load ptr, ptr %3, align 8
  %5 = getelementptr inbounds %"struct.std::_Vector_base.83", ptr %4, i32 0, i32 0, !dbg !5176
  %6 = getelementptr inbounds %"struct.std::_Vector_base<unsigned long, std::allocator<unsigned long>>::_Vector_impl_data", ptr %5, i32 0, i32 1, !dbg !5177
  call void @_ZN9__gnu_cxx17__normal_iteratorIPmSt6vectorImSaImEEEC2ERKS1_(ptr noundef nonnull align 8 dereferenceable(8) %2, ptr noundef nonnull align 8 dereferenceable(8) %6) #3, !dbg !5178
  %7 = getelementptr inbounds %"class.__gnu_cxx::__normal_iterator.87", ptr %2, i32 0, i32 0, !dbg !5179
  %8 = load ptr, ptr %7, align 8, !dbg !5179
  ret ptr %8, !dbg !5179
}

; Function Attrs: mustprogress noinline nounwind optnone uwtable
define linkonce_odr dso_local noundef zeroext i1 @_ZN9__gnu_cxxneIPmSt6vectorImSaImEEEEbRKNS_17__normal_iteratorIT_T0_EESA_(ptr noundef nonnull align 8 dereferenceable(8) %0, ptr noundef nonnull align 8 dereferenceable(8) %1) #7 comdat !dbg !5180 {
  %3 = alloca ptr, align 8
  %4 = alloca ptr, align 8
  store ptr %0, ptr %3, align 8
  call void @llvm.dbg.declare(metadata ptr %3, metadata !5184, metadata !DIExpression()), !dbg !5185
  store ptr %1, ptr %4, align 8
  call void @llvm.dbg.declare(metadata ptr %4, metadata !5186, metadata !DIExpression()), !dbg !5187
  %5 = load ptr, ptr %3, align 8, !dbg !5188
  %6 = call noundef nonnull align 8 dereferenceable(8) ptr @_ZNK9__gnu_cxx17__normal_iteratorIPmSt6vectorImSaImEEE4baseEv(ptr noundef nonnull align 8 dereferenceable(8) %5) #3, !dbg !5189
  %7 = load ptr, ptr %6, align 8, !dbg !5189
  %8 = load ptr, ptr %4, align 8, !dbg !5190
  %9 = call noundef nonnull align 8 dereferenceable(8) ptr @_ZNK9__gnu_cxx17__normal_iteratorIPmSt6vectorImSaImEEE4baseEv(ptr noundef nonnull align 8 dereferenceable(8) %8) #3, !dbg !5191
  %10 = load ptr, ptr %9, align 8, !dbg !5191
  %11 = icmp ne ptr %7, %10, !dbg !5192
  ret i1 %11, !dbg !5193
}

; Function Attrs: mustprogress noinline nounwind optnone uwtable
define linkonce_odr dso_local noundef nonnull align 8 dereferenceable(8) ptr @_ZNK9__gnu_cxx17__normal_iteratorIPmSt6vectorImSaImEEEdeEv(ptr noundef nonnull align 8 dereferenceable(8) %0) #7 comdat align 2 !dbg !5194 {
  %2 = alloca ptr, align 8
  store ptr %0, ptr %2, align 8
  call void @llvm.dbg.declare(metadata ptr %2, metadata !5195, metadata !DIExpression()), !dbg !5197
  %3 = load ptr, ptr %2, align 8
  %4 = getelementptr inbounds %"class.__gnu_cxx::__normal_iterator.87", ptr %3, i32 0, i32 0, !dbg !5198
  %5 = load ptr, ptr %4, align 8, !dbg !5198
  ret ptr %5, !dbg !5199
}

declare i32 @pthread_join(i64 noundef, ptr noundef) #1

; Function Attrs: mustprogress noinline nounwind optnone uwtable
define linkonce_odr dso_local noundef nonnull align 8 dereferenceable(8) ptr @_ZN9__gnu_cxx17__normal_iteratorIPmSt6vectorImSaImEEEppEv(ptr noundef nonnull align 8 dereferenceable(8) %0) #7 comdat align 2 !dbg !5200 {
  %2 = alloca ptr, align 8
  store ptr %0, ptr %2, align 8
  call void @llvm.dbg.declare(metadata ptr %2, metadata !5201, metadata !DIExpression()), !dbg !5203
  %3 = load ptr, ptr %2, align 8
  %4 = getelementptr inbounds %"class.__gnu_cxx::__normal_iterator.87", ptr %3, i32 0, i32 0, !dbg !5204
  %5 = load ptr, ptr %4, align 8, !dbg !5205
  %6 = getelementptr inbounds i64, ptr %5, i32 1, !dbg !5205
  store ptr %6, ptr %4, align 8, !dbg !5205
  ret ptr %3, !dbg !5206
}

; Function Attrs: noinline nounwind optnone uwtable
define linkonce_odr dso_local void @_ZNSt6vectorImSaImEED2Ev(ptr noundef nonnull align 8 dereferenceable(24) %0) unnamed_addr #11 comdat align 2 personality ptr @__gxx_personality_v0 !dbg !5207 {
  %2 = alloca ptr, align 8
  store ptr %0, ptr %2, align 8
  call void @llvm.dbg.declare(metadata ptr %2, metadata !5208, metadata !DIExpression()), !dbg !5209
  %3 = load ptr, ptr %2, align 8
  %4 = getelementptr inbounds %"struct.std::_Vector_base.83", ptr %3, i32 0, i32 0, !dbg !5210
  %5 = getelementptr inbounds %"struct.std::_Vector_base<unsigned long, std::allocator<unsigned long>>::_Vector_impl_data", ptr %4, i32 0, i32 0, !dbg !5212
  %6 = load ptr, ptr %5, align 8, !dbg !5212
  %7 = getelementptr inbounds %"struct.std::_Vector_base.83", ptr %3, i32 0, i32 0, !dbg !5213
  %8 = getelementptr inbounds %"struct.std::_Vector_base<unsigned long, std::allocator<unsigned long>>::_Vector_impl_data", ptr %7, i32 0, i32 1, !dbg !5214
  %9 = load ptr, ptr %8, align 8, !dbg !5214
  %10 = call noundef nonnull align 1 dereferenceable(1) ptr @_ZNSt12_Vector_baseImSaImEE19_M_get_Tp_allocatorEv(ptr noundef nonnull align 8 dereferenceable(24) %3) #3, !dbg !5215
  invoke void @_ZSt8_DestroyIPmmEvT_S1_RSaIT0_E(ptr noundef %6, ptr noundef %9, ptr noundef nonnull align 1 dereferenceable(1) %10)
          to label %11 unwind label %12, !dbg !5216

11:                                               ; preds = %1
  call void @_ZNSt12_Vector_baseImSaImEED2Ev(ptr noundef nonnull align 8 dereferenceable(24) %3) #3, !dbg !5217
  ret void, !dbg !5218

12:                                               ; preds = %1
  %13 = landingpad { ptr, i32 }
          catch ptr null, !dbg !5216
  %14 = extractvalue { ptr, i32 } %13, 0, !dbg !5216
  call void @__clang_call_terminate(ptr %14) #19, !dbg !5216
  unreachable, !dbg !5216
}

; Function Attrs: mustprogress noinline norecurse optnone uwtable
define dso_local noundef i32 @main(i32 noundef %0, ptr noundef %1) #12 personality ptr @__gxx_personality_v0 !dbg !5219 {
  %3 = alloca i32, align 4
  %4 = alloca i32, align 4
  %5 = alloca ptr, align 8
  %6 = alloca %"class.Poco::AutoPtr.88", align 8
  %7 = alloca ptr, align 8
  %8 = alloca i32, align 4
  %9 = alloca ptr, align 8
  %10 = alloca i32, align 4
  store i32 0, ptr %3, align 4
  store i32 %0, ptr %4, align 4
  call void @llvm.dbg.declare(metadata ptr %4, metadata !5222, metadata !DIExpression()), !dbg !5223
  store ptr %1, ptr %5, align 8
  call void @llvm.dbg.declare(metadata ptr %5, metadata !5224, metadata !DIExpression()), !dbg !5223
  call void @llvm.dbg.declare(metadata ptr %6, metadata !5225, metadata !DIExpression()), !dbg !5223
  %11 = call noalias noundef nonnull ptr @_Znwm(i64 noundef 328) #20, !dbg !5223, !heapallocsite !1191
  invoke void @_ZN4ToolC1Ev(ptr noundef nonnull align 8 dereferenceable(328) %11)
          to label %12 unwind label %18, !dbg !5223

12:                                               ; preds = %2
  call void @_ZN4Poco7AutoPtrI4ToolEC2EPS1_(ptr noundef nonnull align 8 dereferenceable(8) %6, ptr noundef %11), !dbg !5223
  %13 = invoke noundef ptr @_ZN4Poco7AutoPtrI4ToolEptEv(ptr noundef nonnull align 8 dereferenceable(8) %6)
          to label %14 unwind label %22, !dbg !5226

14:                                               ; preds = %12
  %15 = load i32, ptr %4, align 4, !dbg !5226
  %16 = load ptr, ptr %5, align 8, !dbg !5226
  invoke void @_ZN4Poco4Util11Application4initEiPPc(ptr noundef nonnull align 8 dereferenceable(224) %13, i32 noundef %15, ptr noundef %16)
          to label %17 unwind label %22, !dbg !5226

17:                                               ; preds = %14
  br label %49, !dbg !5226

18:                                               ; preds = %2
  %19 = landingpad { ptr, i32 }
          cleanup, !dbg !5223
  %20 = extractvalue { ptr, i32 } %19, 0, !dbg !5223
  store ptr %20, ptr %7, align 8, !dbg !5223
  %21 = extractvalue { ptr, i32 } %19, 1, !dbg !5223
  store i32 %21, ptr %8, align 4, !dbg !5223
  call void @_ZdlPv(ptr noundef %11) #21, !dbg !5223
  br label %60, !dbg !5223

22:                                               ; preds = %14, %12
  %23 = landingpad { ptr, i32 }
          cleanup
          catch ptr @_ZTIN4Poco9ExceptionE, !dbg !5226
  %24 = extractvalue { ptr, i32 } %23, 0, !dbg !5226
  store ptr %24, ptr %7, align 8, !dbg !5226
  %25 = extractvalue { ptr, i32 } %23, 1, !dbg !5226
  store i32 %25, ptr %8, align 4, !dbg !5226
  br label %26, !dbg !5226

26:                                               ; preds = %22
  %27 = load i32, ptr %8, align 4, !dbg !5226
  %28 = call i32 @llvm.eh.typeid.for(ptr @_ZTIN4Poco9ExceptionE) #3, !dbg !5226
  %29 = icmp eq i32 %27, %28, !dbg !5226
  br i1 %29, label %30, label %59, !dbg !5226

30:                                               ; preds = %26
  call void @llvm.dbg.declare(metadata ptr %9, metadata !5228, metadata !DIExpression()), !dbg !5223
  %31 = load ptr, ptr %7, align 8, !dbg !5226
  %32 = call ptr @__cxa_begin_catch(ptr %31) #3, !dbg !5226
  store ptr %32, ptr %9, align 8, !dbg !5226
  %33 = invoke noundef ptr @_ZN4Poco7AutoPtrI4ToolEptEv(ptr noundef nonnull align 8 dereferenceable(8) %6)
          to label %34 unwind label %39, !dbg !5232

34:                                               ; preds = %30
  %35 = invoke noundef nonnull align 8 dereferenceable(68) ptr @_ZNK4Poco4Util11Application6loggerEv(ptr noundef nonnull align 8 dereferenceable(224) %33)
          to label %36 unwind label %39, !dbg !5232

36:                                               ; preds = %34
  %37 = load ptr, ptr %9, align 8, !dbg !5232
  invoke void @_ZN4Poco6Logger3logERKNS_9ExceptionE(ptr noundef nonnull align 8 dereferenceable(68) %35, ptr noundef nonnull align 8 dereferenceable(52) %37)
          to label %38 unwind label %39, !dbg !5232

38:                                               ; preds = %36
  store i32 78, ptr %3, align 4, !dbg !5232
  store i32 1, ptr %10, align 4
  invoke void @__cxa_end_catch()
          to label %43 unwind label %44, !dbg !5232

39:                                               ; preds = %36, %34, %30
  %40 = landingpad { ptr, i32 }
          cleanup, !dbg !5232
  %41 = extractvalue { ptr, i32 } %40, 0, !dbg !5232
  store ptr %41, ptr %7, align 8, !dbg !5232
  %42 = extractvalue { ptr, i32 } %40, 1, !dbg !5232
  store i32 %42, ptr %8, align 4, !dbg !5232
  invoke void @__cxa_end_catch()
          to label %48 unwind label %65, !dbg !5232

43:                                               ; preds = %38
  br label %57

44:                                               ; preds = %51, %49, %38
  %45 = landingpad { ptr, i32 }
          cleanup, !dbg !5223
  %46 = extractvalue { ptr, i32 } %45, 0, !dbg !5223
  store ptr %46, ptr %7, align 8, !dbg !5223
  %47 = extractvalue { ptr, i32 } %45, 1, !dbg !5223
  store i32 %47, ptr %8, align 4, !dbg !5223
  br label %59, !dbg !5223

48:                                               ; preds = %39
  br label %59, !dbg !5232

49:                                               ; preds = %17
  %50 = invoke noundef ptr @_ZN4Poco7AutoPtrI4ToolEptEv(ptr noundef nonnull align 8 dereferenceable(8) %6)
          to label %51 unwind label %44, !dbg !5223

51:                                               ; preds = %49
  %52 = load ptr, ptr %50, align 8, !dbg !5223
  %53 = getelementptr inbounds ptr, ptr %52, i64 7, !dbg !5223
  %54 = load ptr, ptr %53, align 8, !dbg !5223
  %55 = invoke noundef i32 %54(ptr noundef nonnull align 8 dereferenceable(224) %50)
          to label %56 unwind label %44, !dbg !5223

56:                                               ; preds = %51
  store i32 %55, ptr %3, align 4, !dbg !5223
  store i32 1, ptr %10, align 4
  br label %57, !dbg !5223

57:                                               ; preds = %56, %43
  call void @_ZN4Poco7AutoPtrI4ToolED2Ev(ptr noundef nonnull align 8 dereferenceable(8) %6) #3, !dbg !5223
  %58 = load i32, ptr %3, align 4, !dbg !5223
  ret i32 %58, !dbg !5223

59:                                               ; preds = %48, %44, %26
  call void @_ZN4Poco7AutoPtrI4ToolED2Ev(ptr noundef nonnull align 8 dereferenceable(8) %6) #3, !dbg !5223
  br label %60, !dbg !5223

60:                                               ; preds = %59, %18
  %61 = load ptr, ptr %7, align 8, !dbg !5223
  %62 = load i32, ptr %8, align 4, !dbg !5223
  %63 = insertvalue { ptr, i32 } poison, ptr %61, 0, !dbg !5223
  %64 = insertvalue { ptr, i32 } %63, i32 %62, 1, !dbg !5223
  resume { ptr, i32 } %64, !dbg !5223

65:                                               ; preds = %39
  %66 = landingpad { ptr, i32 }
          catch ptr null, !dbg !5232
  %67 = extractvalue { ptr, i32 } %66, 0, !dbg !5232
  call void @__clang_call_terminate(ptr %67) #19, !dbg !5232
  unreachable, !dbg !5232
}

; Function Attrs: noinline nounwind optnone uwtable
define linkonce_odr dso_local void @_ZN4Poco7AutoPtrI4ToolEC2EPS1_(ptr noundef nonnull align 8 dereferenceable(8) %0, ptr noundef %1) unnamed_addr #11 comdat align 2 !dbg !5234 {
  %3 = alloca ptr, align 8
  %4 = alloca ptr, align 8
  store ptr %0, ptr %3, align 8
  call void @llvm.dbg.declare(metadata ptr %3, metadata !5235, metadata !DIExpression()), !dbg !5237
  store ptr %1, ptr %4, align 8
  call void @llvm.dbg.declare(metadata ptr %4, metadata !5238, metadata !DIExpression()), !dbg !5239
  %5 = load ptr, ptr %3, align 8
  %6 = getelementptr inbounds %"class.Poco::AutoPtr.88", ptr %5, i32 0, i32 0, !dbg !5240
  %7 = load ptr, ptr %4, align 8, !dbg !5241
  store ptr %7, ptr %6, align 8, !dbg !5240
  ret void, !dbg !5242
}

; Function Attrs: mustprogress noinline optnone uwtable
define linkonce_odr dso_local noundef ptr @_ZN4Poco7AutoPtrI4ToolEptEv(ptr noundef nonnull align 8 dereferenceable(8) %0) #4 comdat align 2 personality ptr @__gxx_personality_v0 !dbg !5243 {
  %2 = alloca ptr, align 8
  %3 = alloca ptr, align 8
  %4 = alloca i32, align 4
  store ptr %0, ptr %2, align 8
  call void @llvm.dbg.declare(metadata ptr %2, metadata !5244, metadata !DIExpression()), !dbg !5245
  %5 = load ptr, ptr %2, align 8
  %6 = getelementptr inbounds %"class.Poco::AutoPtr.88", ptr %5, i32 0, i32 0, !dbg !5246
  %7 = load ptr, ptr %6, align 8, !dbg !5246
  %8 = icmp ne ptr %7, null, !dbg !5246
  br i1 %8, label %9, label %12, !dbg !5248

9:                                                ; preds = %1
  %10 = getelementptr inbounds %"class.Poco::AutoPtr.88", ptr %5, i32 0, i32 0, !dbg !5249
  %11 = load ptr, ptr %10, align 8, !dbg !5249
  ret ptr %11, !dbg !5250

12:                                               ; preds = %1
  %13 = call ptr @__cxa_allocate_exception(i64 56) #3, !dbg !5251
  invoke void @_ZN4Poco20NullPointerExceptionC1Ei(ptr noundef nonnull align 8 dereferenceable(52) %13, i32 noundef 0)
          to label %14 unwind label %15, !dbg !5252

14:                                               ; preds = %12
  call void @__cxa_throw(ptr %13, ptr @_ZTIN4Poco20NullPointerExceptionE, ptr @_ZN4Poco20NullPointerExceptionD1Ev) #22, !dbg !5251
  unreachable, !dbg !5251

15:                                               ; preds = %12
  %16 = landingpad { ptr, i32 }
          cleanup, !dbg !5253
  %17 = extractvalue { ptr, i32 } %16, 0, !dbg !5253
  store ptr %17, ptr %3, align 8, !dbg !5253
  %18 = extractvalue { ptr, i32 } %16, 1, !dbg !5253
  store i32 %18, ptr %4, align 4, !dbg !5253
  call void @__cxa_free_exception(ptr %13) #3, !dbg !5251
  br label %19, !dbg !5251

19:                                               ; preds = %15
  %20 = load ptr, ptr %3, align 8, !dbg !5251
  %21 = load i32, ptr %4, align 4, !dbg !5251
  %22 = insertvalue { ptr, i32 } poison, ptr %20, 0, !dbg !5251
  %23 = insertvalue { ptr, i32 } %22, i32 %21, 1, !dbg !5251
  resume { ptr, i32 } %23, !dbg !5251
}

declare void @_ZN4Poco4Util11Application4initEiPPc(ptr noundef nonnull align 8 dereferenceable(224), i32 noundef, ptr noundef) #1

; Function Attrs: nounwind memory(none)
declare i32 @llvm.eh.typeid.for(ptr) #13

declare ptr @__cxa_begin_catch(ptr)

; Function Attrs: mustprogress noinline optnone uwtable
define linkonce_odr dso_local noundef nonnull align 8 dereferenceable(68) ptr @_ZNK4Poco4Util11Application6loggerEv(ptr noundef nonnull align 8 dereferenceable(224) %0) #4 comdat align 2 !dbg !5254 {
  %2 = alloca ptr, align 8
  store ptr %0, ptr %2, align 8
  call void @llvm.dbg.declare(metadata ptr %2, metadata !5263, metadata !DIExpression()), !dbg !5265
  %3 = load ptr, ptr %2, align 8
  %4 = getelementptr inbounds %"class.Poco::Util::Application", ptr %3, i32 0, i32 9, !dbg !5266
  %5 = load ptr, ptr %4, align 8, !dbg !5266
  %6 = icmp ne ptr %5, null, !dbg !5266
  br i1 %6, label %8, label %7, !dbg !5268

7:                                                ; preds = %1
  call void @_ZN4Poco8Bugcheck11nullPointerEPKcS2_i(ptr noundef @.str.32, ptr noundef @.str.33, i32 noundef 462), !dbg !5266
  br label %9, !dbg !5266

8:                                                ; preds = %1
  br label %9

9:                                                ; preds = %8, %7
  %10 = getelementptr inbounds %"class.Poco::Util::Application", ptr %3, i32 0, i32 9, !dbg !5269
  %11 = load ptr, ptr %10, align 8, !dbg !5269
  ret ptr %11, !dbg !5270
}

declare void @_ZN4Poco6Logger3logERKNS_9ExceptionE(ptr noundef nonnull align 8 dereferenceable(68), ptr noundef nonnull align 8 dereferenceable(52)) #1

declare void @__cxa_end_catch()

; Function Attrs: noinline noreturn nounwind
define linkonce_odr hidden void @__clang_call_terminate(ptr noundef %0) #14 comdat {
  %2 = call ptr @__cxa_begin_catch(ptr %0) #3
  call void @_ZSt9terminatev() #19
  unreachable
}

declare void @_ZSt9terminatev()

; Function Attrs: noinline nounwind optnone uwtable
define linkonce_odr dso_local void @_ZN4Poco7AutoPtrI4ToolED2Ev(ptr noundef nonnull align 8 dereferenceable(8) %0) unnamed_addr #11 comdat align 2 !dbg !5271 {
  %2 = alloca ptr, align 8
  store ptr %0, ptr %2, align 8
  call void @llvm.dbg.declare(metadata ptr %2, metadata !5272, metadata !DIExpression()), !dbg !5273
  %3 = load ptr, ptr %2, align 8
  %4 = getelementptr inbounds %"class.Poco::AutoPtr.88", ptr %3, i32 0, i32 0, !dbg !5274
  %5 = load ptr, ptr %4, align 8, !dbg !5274
  %6 = icmp ne ptr %5, null, !dbg !5274
  br i1 %6, label %7, label %10, !dbg !5277

7:                                                ; preds = %1
  %8 = getelementptr inbounds %"class.Poco::AutoPtr.88", ptr %3, i32 0, i32 0, !dbg !5278
  %9 = load ptr, ptr %8, align 8, !dbg !5278
  call void @_ZNK4Poco16RefCountedObject7releaseEv(ptr noundef nonnull align 8 dereferenceable(12) %9) #3, !dbg !5279
  br label %10, !dbg !5278

10:                                               ; preds = %7, %1
  ret void, !dbg !5280
}

; Function Attrs: noinline nounwind optnone uwtable
define linkonce_odr dso_local void @_ZN4Poco3Net4Impl21IPv4SocketAddressImplD2Ev(ptr noundef nonnull align 8 dereferenceable(28) %0) unnamed_addr #11 comdat align 2 !dbg !5281 {
  %2 = alloca ptr, align 8
  store ptr %0, ptr %2, align 8
  call void @llvm.dbg.declare(metadata ptr %2, metadata !5283, metadata !DIExpression()), !dbg !5285
  %3 = load ptr, ptr %2, align 8
  call void @_ZN4Poco3Net4Impl17SocketAddressImplD2Ev(ptr noundef nonnull align 8 dereferenceable(12) %3) #3, !dbg !5286
  ret void, !dbg !5288
}

; Function Attrs: noinline nounwind optnone uwtable
define linkonce_odr dso_local void @_ZN4Poco3Net4Impl21IPv4SocketAddressImplD0Ev(ptr noundef nonnull align 8 dereferenceable(28) %0) unnamed_addr #11 comdat align 2 !dbg !5289 {
  %2 = alloca ptr, align 8
  store ptr %0, ptr %2, align 8
  call void @llvm.dbg.declare(metadata ptr %2, metadata !5290, metadata !DIExpression()), !dbg !5291
  %3 = load ptr, ptr %2, align 8
  call void @_ZN4Poco3Net4Impl21IPv4SocketAddressImplD2Ev(ptr noundef nonnull align 8 dereferenceable(28) %3) #3, !dbg !5292
  call void @_ZdlPv(ptr noundef %3) #21, !dbg !5292
  ret void, !dbg !5292
}

; Function Attrs: mustprogress noinline nounwind optnone uwtable
define linkonce_odr dso_local noundef zeroext i16 @_ZNK4Poco3Net4Impl21IPv4SocketAddressImpl4portEv(ptr noundef nonnull align 8 dereferenceable(28) %0) unnamed_addr #7 comdat align 2 !dbg !5293 {
  %2 = alloca ptr, align 8
  store ptr %0, ptr %2, align 8
  call void @llvm.dbg.declare(metadata ptr %2, metadata !5294, metadata !DIExpression()), !dbg !5295
  %3 = load ptr, ptr %2, align 8
  %4 = getelementptr inbounds %"class.Poco::Net::Impl::IPv4SocketAddressImpl", ptr %3, i32 0, i32 1, !dbg !5296
  %5 = getelementptr inbounds %struct.sockaddr_in, ptr %4, i32 0, i32 1, !dbg !5297
  %6 = load i16, ptr %5, align 2, !dbg !5297
  ret i16 %6, !dbg !5298
}

; Function Attrs: mustprogress noinline nounwind optnone uwtable
define linkonce_odr dso_local noundef i32 @_ZNK4Poco3Net4Impl21IPv4SocketAddressImpl6lengthEv(ptr noundef nonnull align 8 dereferenceable(28) %0) unnamed_addr #7 comdat align 2 !dbg !5299 {
  %2 = alloca ptr, align 8
  store ptr %0, ptr %2, align 8
  call void @llvm.dbg.declare(metadata ptr %2, metadata !5300, metadata !DIExpression()), !dbg !5301
  %3 = load ptr, ptr %2, align 8
  ret i32 16, !dbg !5302
}

; Function Attrs: mustprogress noinline nounwind optnone uwtable
define linkonce_odr dso_local noundef ptr @_ZNK4Poco3Net4Impl21IPv4SocketAddressImpl4addrEv(ptr noundef nonnull align 8 dereferenceable(28) %0) unnamed_addr #7 comdat align 2 !dbg !5303 {
  %2 = alloca ptr, align 8
  store ptr %0, ptr %2, align 8
  call void @llvm.dbg.declare(metadata ptr %2, metadata !5304, metadata !DIExpression()), !dbg !5305
  %3 = load ptr, ptr %2, align 8
  %4 = getelementptr inbounds %"class.Poco::Net::Impl::IPv4SocketAddressImpl", ptr %3, i32 0, i32 1, !dbg !5306
  ret ptr %4, !dbg !5307
}

; Function Attrs: mustprogress noinline nounwind optnone uwtable
define linkonce_odr dso_local noundef i32 @_ZNK4Poco3Net4Impl21IPv4SocketAddressImpl2afEv(ptr noundef nonnull align 8 dereferenceable(28) %0) unnamed_addr #7 comdat align 2 !dbg !5308 {
  %2 = alloca ptr, align 8
  store ptr %0, ptr %2, align 8
  call void @llvm.dbg.declare(metadata ptr %2, metadata !5309, metadata !DIExpression()), !dbg !5310
  %3 = load ptr, ptr %2, align 8
  %4 = getelementptr inbounds %"class.Poco::Net::Impl::IPv4SocketAddressImpl", ptr %3, i32 0, i32 1, !dbg !5311
  %5 = getelementptr inbounds %struct.sockaddr_in, ptr %4, i32 0, i32 0, !dbg !5312
  %6 = load i16, ptr %5, align 4, !dbg !5312
  %7 = zext i16 %6 to i32, !dbg !5311
  ret i32 %7, !dbg !5313
}

; Function Attrs: mustprogress noinline nounwind optnone uwtable
define linkonce_odr dso_local noundef i32 @_ZNK4Poco3Net4Impl21IPv4SocketAddressImpl6familyEv(ptr noundef nonnull align 8 dereferenceable(28) %0) unnamed_addr #7 comdat align 2 !dbg !5314 {
  %2 = alloca ptr, align 8
  store ptr %0, ptr %2, align 8
  call void @llvm.dbg.declare(metadata ptr %2, metadata !5315, metadata !DIExpression()), !dbg !5316
  %3 = load ptr, ptr %2, align 8
  ret i32 0, !dbg !5317
}

declare void @_ZNK4Poco3Net4Impl21IPv4SocketAddressImpl8toStringB5cxx11Ev(ptr sret(%"class.std::__cxx11::basic_string") align 8, ptr noundef nonnull align 8 dereferenceable(28)) unnamed_addr #1

; Function Attrs: noinline nounwind optnone uwtable
define linkonce_odr dso_local void @_ZN4Poco3Net4Impl21IPv6SocketAddressImplD2Ev(ptr noundef nonnull align 8 dereferenceable(40) %0) unnamed_addr #11 comdat align 2 !dbg !5318 {
  %2 = alloca ptr, align 8
  store ptr %0, ptr %2, align 8
  call void @llvm.dbg.declare(metadata ptr %2, metadata !5322, metadata !DIExpression()), !dbg !5324
  %3 = load ptr, ptr %2, align 8
  call void @_ZN4Poco3Net4Impl17SocketAddressImplD2Ev(ptr noundef nonnull align 8 dereferenceable(12) %3) #3, !dbg !5325
  ret void, !dbg !5327
}

; Function Attrs: noinline nounwind optnone uwtable
define linkonce_odr dso_local void @_ZN4Poco3Net4Impl21IPv6SocketAddressImplD0Ev(ptr noundef nonnull align 8 dereferenceable(40) %0) unnamed_addr #11 comdat align 2 !dbg !5328 {
  %2 = alloca ptr, align 8
  store ptr %0, ptr %2, align 8
  call void @llvm.dbg.declare(metadata ptr %2, metadata !5329, metadata !DIExpression()), !dbg !5330
  %3 = load ptr, ptr %2, align 8
  call void @_ZN4Poco3Net4Impl21IPv6SocketAddressImplD2Ev(ptr noundef nonnull align 8 dereferenceable(40) %3) #3, !dbg !5331
  call void @_ZdlPv(ptr noundef %3) #21, !dbg !5331
  ret void, !dbg !5331
}

; Function Attrs: mustprogress noinline nounwind optnone uwtable
define linkonce_odr dso_local noundef zeroext i16 @_ZNK4Poco3Net4Impl21IPv6SocketAddressImpl4portEv(ptr noundef nonnull align 8 dereferenceable(40) %0) unnamed_addr #7 comdat align 2 !dbg !5332 {
  %2 = alloca ptr, align 8
  store ptr %0, ptr %2, align 8
  call void @llvm.dbg.declare(metadata ptr %2, metadata !5333, metadata !DIExpression()), !dbg !5334
  %3 = load ptr, ptr %2, align 8
  %4 = getelementptr inbounds %"class.Poco::Net::Impl::IPv6SocketAddressImpl", ptr %3, i32 0, i32 1, !dbg !5335
  %5 = getelementptr inbounds %struct.sockaddr_in6, ptr %4, i32 0, i32 1, !dbg !5336
  %6 = load i16, ptr %5, align 2, !dbg !5336
  ret i16 %6, !dbg !5337
}

; Function Attrs: mustprogress noinline nounwind optnone uwtable
define linkonce_odr dso_local noundef i32 @_ZNK4Poco3Net4Impl21IPv6SocketAddressImpl6lengthEv(ptr noundef nonnull align 8 dereferenceable(40) %0) unnamed_addr #7 comdat align 2 !dbg !5338 {
  %2 = alloca ptr, align 8
  store ptr %0, ptr %2, align 8
  call void @llvm.dbg.declare(metadata ptr %2, metadata !5339, metadata !DIExpression()), !dbg !5340
  %3 = load ptr, ptr %2, align 8
  ret i32 28, !dbg !5341
}

; Function Attrs: mustprogress noinline nounwind optnone uwtable
define linkonce_odr dso_local noundef ptr @_ZNK4Poco3Net4Impl21IPv6SocketAddressImpl4addrEv(ptr noundef nonnull align 8 dereferenceable(40) %0) unnamed_addr #7 comdat align 2 !dbg !5342 {
  %2 = alloca ptr, align 8
  store ptr %0, ptr %2, align 8
  call void @llvm.dbg.declare(metadata ptr %2, metadata !5343, metadata !DIExpression()), !dbg !5344
  %3 = load ptr, ptr %2, align 8
  %4 = getelementptr inbounds %"class.Poco::Net::Impl::IPv6SocketAddressImpl", ptr %3, i32 0, i32 1, !dbg !5345
  ret ptr %4, !dbg !5346
}

; Function Attrs: mustprogress noinline nounwind optnone uwtable
define linkonce_odr dso_local noundef i32 @_ZNK4Poco3Net4Impl21IPv6SocketAddressImpl2afEv(ptr noundef nonnull align 8 dereferenceable(40) %0) unnamed_addr #7 comdat align 2 !dbg !5347 {
  %2 = alloca ptr, align 8
  store ptr %0, ptr %2, align 8
  call void @llvm.dbg.declare(metadata ptr %2, metadata !5348, metadata !DIExpression()), !dbg !5349
  %3 = load ptr, ptr %2, align 8
  %4 = getelementptr inbounds %"class.Poco::Net::Impl::IPv6SocketAddressImpl", ptr %3, i32 0, i32 1, !dbg !5350
  %5 = getelementptr inbounds %struct.sockaddr_in6, ptr %4, i32 0, i32 0, !dbg !5351
  %6 = load i16, ptr %5, align 4, !dbg !5351
  %7 = zext i16 %6 to i32, !dbg !5350
  ret i32 %7, !dbg !5352
}

; Function Attrs: mustprogress noinline nounwind optnone uwtable
define linkonce_odr dso_local noundef i32 @_ZNK4Poco3Net4Impl21IPv6SocketAddressImpl6familyEv(ptr noundef nonnull align 8 dereferenceable(40) %0) unnamed_addr #7 comdat align 2 !dbg !5353 {
  %2 = alloca ptr, align 8
  store ptr %0, ptr %2, align 8
  call void @llvm.dbg.declare(metadata ptr %2, metadata !5354, metadata !DIExpression()), !dbg !5355
  %3 = load ptr, ptr %2, align 8
  ret i32 1, !dbg !5356
}

declare void @_ZNK4Poco3Net4Impl21IPv6SocketAddressImpl8toStringB5cxx11Ev(ptr sret(%"class.std::__cxx11::basic_string") align 8, ptr noundef nonnull align 8 dereferenceable(40)) unnamed_addr #1

; Function Attrs: noinline nounwind optnone uwtable
define linkonce_odr dso_local void @_ZN4ToolD2Ev(ptr noundef nonnull align 8 dereferenceable(328) %0) unnamed_addr #11 comdat align 2 !dbg !5357 {
  %2 = alloca ptr, align 8
  store ptr %0, ptr %2, align 8
  call void @llvm.dbg.declare(metadata ptr %2, metadata !5359, metadata !DIExpression()), !dbg !5360
  %3 = load ptr, ptr %2, align 8
  store ptr getelementptr inbounds ({ [12 x ptr] }, ptr @_ZTV4Tool, i32 0, inrange i32 0, i32 2), ptr %3, align 8, !dbg !5361
  %4 = getelementptr inbounds %class.Tool, ptr %3, i32 0, i32 4, !dbg !5362
  call void @_ZNSt7__cxx1112basic_stringIcSt11char_traitsIcESaIcEED1Ev(ptr noundef nonnull align 8 dereferenceable(32) %4) #3, !dbg !5362
  %5 = getelementptr inbounds %class.Tool, ptr %3, i32 0, i32 3, !dbg !5362
  call void @_ZNSt7__cxx1112basic_stringIcSt11char_traitsIcESaIcEED1Ev(ptr noundef nonnull align 8 dereferenceable(32) %5) #3, !dbg !5362
  %6 = getelementptr inbounds %class.Tool, ptr %3, i32 0, i32 2, !dbg !5362
  call void @_ZNSt7__cxx1112basic_stringIcSt11char_traitsIcESaIcEED1Ev(ptr noundef nonnull align 8 dereferenceable(32) %6) #3, !dbg !5362
  call void @_ZN4Poco4Util11ApplicationD2Ev(ptr noundef nonnull align 8 dereferenceable(224) %3) #3, !dbg !5362
  ret void, !dbg !5361
}

; Function Attrs: noinline nounwind optnone uwtable
define linkonce_odr dso_local void @_ZN4ToolD0Ev(ptr noundef nonnull align 8 dereferenceable(328) %0) unnamed_addr #11 comdat align 2 !dbg !5364 {
  %2 = alloca ptr, align 8
  store ptr %0, ptr %2, align 8
  call void @llvm.dbg.declare(metadata ptr %2, metadata !5365, metadata !DIExpression()), !dbg !5366
  %3 = load ptr, ptr %2, align 8
  call void @_ZN4ToolD2Ev(ptr noundef nonnull align 8 dereferenceable(328) %3) #3, !dbg !5367
  call void @_ZdlPv(ptr noundef %3) #21, !dbg !5367
  ret void, !dbg !5367
}

declare noundef ptr @_ZNK4Poco4Util11Application4nameEv(ptr noundef nonnull align 8 dereferenceable(224)) unnamed_addr #1

declare void @_ZN4Poco4Util11Application10initializeERS1_(ptr noundef nonnull align 8 dereferenceable(224), ptr noundef nonnull align 8 dereferenceable(224)) unnamed_addr #1

declare void @_ZN4Poco4Util11Application12uninitializeEv(ptr noundef nonnull align 8 dereferenceable(224)) unnamed_addr #1

declare void @_ZN4Poco4Util11Application12reinitializeERS1_(ptr noundef nonnull align 8 dereferenceable(224), ptr noundef nonnull align 8 dereferenceable(224)) unnamed_addr #1

declare noundef i32 @_ZN4Poco4Util11Application3runEv(ptr noundef nonnull align 8 dereferenceable(224)) unnamed_addr #1

; Function Attrs: mustprogress noinline nounwind optnone uwtable
define linkonce_odr dso_local noundef i32 @_ZNSt8__detail14__to_chars_lenIjEEjT_i(i32 noundef %0, i32 noundef %1) #7 comdat !dbg !5368 {
  %3 = alloca i32, align 4
  %4 = alloca i32, align 4
  %5 = alloca i32, align 4
  %6 = alloca i32, align 4
  %7 = alloca i32, align 4
  %8 = alloca i32, align 4
  %9 = alloca i64, align 8
  store i32 %0, ptr %4, align 4
  call void @llvm.dbg.declare(metadata ptr %4, metadata !5371, metadata !DIExpression()), !dbg !5372
  store i32 %1, ptr %5, align 4
  call void @llvm.dbg.declare(metadata ptr %5, metadata !5373, metadata !DIExpression()), !dbg !5374
  call void @llvm.dbg.declare(metadata ptr %6, metadata !5375, metadata !DIExpression()), !dbg !5376
  store i32 1, ptr %6, align 4, !dbg !5376
  call void @llvm.dbg.declare(metadata ptr %7, metadata !5377, metadata !DIExpression()), !dbg !5378
  %10 = load i32, ptr %5, align 4, !dbg !5379
  %11 = load i32, ptr %5, align 4, !dbg !5380
  %12 = mul nsw i32 %10, %11, !dbg !5381
  store i32 %12, ptr %7, align 4, !dbg !5378
  call void @llvm.dbg.declare(metadata ptr %8, metadata !5382, metadata !DIExpression()), !dbg !5383
  %13 = load i32, ptr %7, align 4, !dbg !5384
  %14 = load i32, ptr %5, align 4, !dbg !5385
  %15 = mul i32 %13, %14, !dbg !5386
  store i32 %15, ptr %8, align 4, !dbg !5383
  call void @llvm.dbg.declare(metadata ptr %9, metadata !5387, metadata !DIExpression()), !dbg !5388
  %16 = load i32, ptr %8, align 4, !dbg !5389
  %17 = load i32, ptr %5, align 4, !dbg !5390
  %18 = mul i32 %16, %17, !dbg !5391
  %19 = zext i32 %18 to i64, !dbg !5389
  store i64 %19, ptr %9, align 8, !dbg !5388
  br label %20, !dbg !5392

20:                                               ; preds = %48, %2
  %21 = load i32, ptr %4, align 4, !dbg !5393
  %22 = load i32, ptr %5, align 4, !dbg !5398
  %23 = icmp ult i32 %21, %22, !dbg !5399
  br i1 %23, label %24, label %26, !dbg !5400

24:                                               ; preds = %20
  %25 = load i32, ptr %6, align 4, !dbg !5401
  store i32 %25, ptr %3, align 4, !dbg !5402
  br label %56, !dbg !5402

26:                                               ; preds = %20
  %27 = load i32, ptr %4, align 4, !dbg !5403
  %28 = load i32, ptr %7, align 4, !dbg !5405
  %29 = icmp ult i32 %27, %28, !dbg !5406
  br i1 %29, label %30, label %33, !dbg !5407

30:                                               ; preds = %26
  %31 = load i32, ptr %6, align 4, !dbg !5408
  %32 = add i32 %31, 1, !dbg !5409
  store i32 %32, ptr %3, align 4, !dbg !5410
  br label %56, !dbg !5410

33:                                               ; preds = %26
  %34 = load i32, ptr %4, align 4, !dbg !5411
  %35 = load i32, ptr %8, align 4, !dbg !5413
  %36 = icmp ult i32 %34, %35, !dbg !5414
  br i1 %36, label %37, label %40, !dbg !5415

37:                                               ; preds = %33
  %38 = load i32, ptr %6, align 4, !dbg !5416
  %39 = add i32 %38, 2, !dbg !5417
  store i32 %39, ptr %3, align 4, !dbg !5418
  br label %56, !dbg !5418

40:                                               ; preds = %33
  %41 = load i32, ptr %4, align 4, !dbg !5419
  %42 = zext i32 %41 to i64, !dbg !5419
  %43 = load i64, ptr %9, align 8, !dbg !5421
  %44 = icmp ult i64 %42, %43, !dbg !5422
  br i1 %44, label %45, label %48, !dbg !5423

45:                                               ; preds = %40
  %46 = load i32, ptr %6, align 4, !dbg !5424
  %47 = add i32 %46, 3, !dbg !5425
  store i32 %47, ptr %3, align 4, !dbg !5426
  br label %56, !dbg !5426

48:                                               ; preds = %40
  %49 = load i64, ptr %9, align 8, !dbg !5427
  %50 = load i32, ptr %4, align 4, !dbg !5428
  %51 = zext i32 %50 to i64, !dbg !5428
  %52 = udiv i64 %51, %49, !dbg !5428
  %53 = trunc i64 %52 to i32, !dbg !5428
  store i32 %53, ptr %4, align 4, !dbg !5428
  %54 = load i32, ptr %6, align 4, !dbg !5429
  %55 = add i32 %54, 4, !dbg !5429
  store i32 %55, ptr %6, align 4, !dbg !5429
  br label %20, !dbg !5430, !llvm.loop !5431

56:                                               ; preds = %45, %37, %30, %24
  %57 = load i32, ptr %3, align 4, !dbg !5434
  ret i32 %57, !dbg !5434
}

; Function Attrs: noinline optnone uwtable
define linkonce_odr dso_local void @_ZNSt7__cxx1112basic_stringIcSt11char_traitsIcESaIcEEC2IS3_EEmcRKS3_(ptr noundef nonnull align 8 dereferenceable(32) %0, i64 noundef %1, i8 noundef signext %2, ptr noundef nonnull align 1 dereferenceable(1) %3) unnamed_addr #6 comdat align 2 personality ptr @__gxx_personality_v0 !dbg !5435 {
  %5 = alloca ptr, align 8
  %6 = alloca i64, align 8
  %7 = alloca i8, align 1
  %8 = alloca ptr, align 8
  %9 = alloca ptr, align 8
  %10 = alloca i32, align 4
  store ptr %0, ptr %5, align 8
  call void @llvm.dbg.declare(metadata ptr %5, metadata !5439, metadata !DIExpression()), !dbg !5440
  store i64 %1, ptr %6, align 8
  call void @llvm.dbg.declare(metadata ptr %6, metadata !5441, metadata !DIExpression()), !dbg !5442
  store i8 %2, ptr %7, align 1
  call void @llvm.dbg.declare(metadata ptr %7, metadata !5443, metadata !DIExpression()), !dbg !5444
  store ptr %3, ptr %8, align 8
  call void @llvm.dbg.declare(metadata ptr %8, metadata !5445, metadata !DIExpression()), !dbg !5446
  %11 = load ptr, ptr %5, align 8
  %12 = getelementptr inbounds %"class.std::__cxx11::basic_string", ptr %11, i32 0, i32 0, !dbg !5447
  %13 = call noundef ptr @_ZNSt7__cxx1112basic_stringIcSt11char_traitsIcESaIcEE13_M_local_dataEv(ptr noundef nonnull align 8 dereferenceable(32) %11), !dbg !5448
  %14 = load ptr, ptr %8, align 8, !dbg !5449
  call void @_ZNSt7__cxx1112basic_stringIcSt11char_traitsIcESaIcEE12_Alloc_hiderC1EPcRKS3_(ptr noundef nonnull align 8 dereferenceable(8) %12, ptr noundef %13, ptr noundef nonnull align 1 dereferenceable(1) %14), !dbg !5447
  %15 = load i64, ptr %6, align 8, !dbg !5450
  %16 = load i8, ptr %7, align 1, !dbg !5452
  invoke void @_ZNSt7__cxx1112basic_stringIcSt11char_traitsIcESaIcEE12_M_constructEmc(ptr noundef nonnull align 8 dereferenceable(32) %11, i64 noundef %15, i8 noundef signext %16)
          to label %17 unwind label %18, !dbg !5453

17:                                               ; preds = %4
  ret void, !dbg !5454

18:                                               ; preds = %4
  %19 = landingpad { ptr, i32 }
          cleanup, !dbg !5455
  %20 = extractvalue { ptr, i32 } %19, 0, !dbg !5455
  store ptr %20, ptr %9, align 8, !dbg !5455
  %21 = extractvalue { ptr, i32 } %19, 1, !dbg !5455
  store i32 %21, ptr %10, align 4, !dbg !5455
  call void @_ZNSt7__cxx1112basic_stringIcSt11char_traitsIcESaIcEE12_Alloc_hiderD2Ev(ptr noundef nonnull align 8 dereferenceable(8) %12) #3, !dbg !5455
  br label %22, !dbg !5455

22:                                               ; preds = %18
  %23 = load ptr, ptr %9, align 8, !dbg !5455
  %24 = load i32, ptr %10, align 4, !dbg !5455
  %25 = insertvalue { ptr, i32 } poison, ptr %23, 0, !dbg !5455
  %26 = insertvalue { ptr, i32 } %25, i32 %24, 1, !dbg !5455
  resume { ptr, i32 } %26, !dbg !5455
}

; Function Attrs: mustprogress noinline nounwind optnone uwtable
define linkonce_odr dso_local void @_ZNSt8__detail18__to_chars_10_implIjEEvPcjT_(ptr noundef %0, i32 noundef %1, i32 noundef %2) #7 comdat !dbg !135 {
  %4 = alloca ptr, align 8
  %5 = alloca i32, align 4
  %6 = alloca i32, align 4
  %7 = alloca i32, align 4
  %8 = alloca i32, align 4
  %9 = alloca i32, align 4
  store ptr %0, ptr %4, align 8
  call void @llvm.dbg.declare(metadata ptr %4, metadata !5456, metadata !DIExpression()), !dbg !5457
  store i32 %1, ptr %5, align 4
  call void @llvm.dbg.declare(metadata ptr %5, metadata !5458, metadata !DIExpression()), !dbg !5459
  store i32 %2, ptr %6, align 4
  call void @llvm.dbg.declare(metadata ptr %6, metadata !5460, metadata !DIExpression()), !dbg !5461
  call void @llvm.dbg.declare(metadata ptr %7, metadata !5462, metadata !DIExpression()), !dbg !5463
  %10 = load i32, ptr %5, align 4, !dbg !5464
  %11 = sub i32 %10, 1, !dbg !5465
  store i32 %11, ptr %7, align 4, !dbg !5463
  br label %12, !dbg !5466

12:                                               ; preds = %15, %3
  %13 = load i32, ptr %6, align 4, !dbg !5467
  %14 = icmp uge i32 %13, 100, !dbg !5468
  br i1 %14, label %15, label %41, !dbg !5466

15:                                               ; preds = %12
  call void @llvm.dbg.declare(metadata ptr %8, metadata !5469, metadata !DIExpression()), !dbg !5471
  %16 = load i32, ptr %6, align 4, !dbg !5472
  %17 = urem i32 %16, 100, !dbg !5473
  %18 = mul i32 %17, 2, !dbg !5474
  store i32 %18, ptr %8, align 4, !dbg !5471
  %19 = load i32, ptr %6, align 4, !dbg !5475
  %20 = udiv i32 %19, 100, !dbg !5475
  store i32 %20, ptr %6, align 4, !dbg !5475
  %21 = load i32, ptr %8, align 4, !dbg !5476
  %22 = add i32 %21, 1, !dbg !5477
  %23 = zext i32 %22 to i64, !dbg !5478
  %24 = getelementptr inbounds [201 x i8], ptr @_ZZNSt8__detail18__to_chars_10_implIjEEvPcjT_E8__digits, i64 0, i64 %23, !dbg !5478
  %25 = load i8, ptr %24, align 1, !dbg !5478
  %26 = load ptr, ptr %4, align 8, !dbg !5479
  %27 = load i32, ptr %7, align 4, !dbg !5480
  %28 = zext i32 %27 to i64, !dbg !5479
  %29 = getelementptr inbounds i8, ptr %26, i64 %28, !dbg !5479
  store i8 %25, ptr %29, align 1, !dbg !5481
  %30 = load i32, ptr %8, align 4, !dbg !5482
  %31 = zext i32 %30 to i64, !dbg !5483
  %32 = getelementptr inbounds [201 x i8], ptr @_ZZNSt8__detail18__to_chars_10_implIjEEvPcjT_E8__digits, i64 0, i64 %31, !dbg !5483
  %33 = load i8, ptr %32, align 1, !dbg !5483
  %34 = load ptr, ptr %4, align 8, !dbg !5484
  %35 = load i32, ptr %7, align 4, !dbg !5485
  %36 = sub i32 %35, 1, !dbg !5486
  %37 = zext i32 %36 to i64, !dbg !5484
  %38 = getelementptr inbounds i8, ptr %34, i64 %37, !dbg !5484
  store i8 %33, ptr %38, align 1, !dbg !5487
  %39 = load i32, ptr %7, align 4, !dbg !5488
  %40 = sub i32 %39, 2, !dbg !5488
  store i32 %40, ptr %7, align 4, !dbg !5488
  br label %12, !dbg !5466, !llvm.loop !5489

41:                                               ; preds = %12
  %42 = load i32, ptr %6, align 4, !dbg !5491
  %43 = icmp uge i32 %42, 10, !dbg !5493
  br i1 %43, label %44, label %60, !dbg !5494

44:                                               ; preds = %41
  call void @llvm.dbg.declare(metadata ptr %9, metadata !5495, metadata !DIExpression()), !dbg !5497
  %45 = load i32, ptr %6, align 4, !dbg !5498
  %46 = mul i32 %45, 2, !dbg !5499
  store i32 %46, ptr %9, align 4, !dbg !5497
  %47 = load i32, ptr %9, align 4, !dbg !5500
  %48 = add i32 %47, 1, !dbg !5501
  %49 = zext i32 %48 to i64, !dbg !5502
  %50 = getelementptr inbounds [201 x i8], ptr @_ZZNSt8__detail18__to_chars_10_implIjEEvPcjT_E8__digits, i64 0, i64 %49, !dbg !5502
  %51 = load i8, ptr %50, align 1, !dbg !5502
  %52 = load ptr, ptr %4, align 8, !dbg !5503
  %53 = getelementptr inbounds i8, ptr %52, i64 1, !dbg !5503
  store i8 %51, ptr %53, align 1, !dbg !5504
  %54 = load i32, ptr %9, align 4, !dbg !5505
  %55 = zext i32 %54 to i64, !dbg !5506
  %56 = getelementptr inbounds [201 x i8], ptr @_ZZNSt8__detail18__to_chars_10_implIjEEvPcjT_E8__digits, i64 0, i64 %55, !dbg !5506
  %57 = load i8, ptr %56, align 1, !dbg !5506
  %58 = load ptr, ptr %4, align 8, !dbg !5507
  %59 = getelementptr inbounds i8, ptr %58, i64 0, !dbg !5507
  store i8 %57, ptr %59, align 1, !dbg !5508
  br label %66, !dbg !5509

60:                                               ; preds = %41
  %61 = load i32, ptr %6, align 4, !dbg !5510
  %62 = add i32 48, %61, !dbg !5511
  %63 = trunc i32 %62 to i8, !dbg !5512
  %64 = load ptr, ptr %4, align 8, !dbg !5513
  %65 = getelementptr inbounds i8, ptr %64, i64 0, !dbg !5513
  store i8 %63, ptr %65, align 1, !dbg !5514
  br label %66

66:                                               ; preds = %60, %44
  ret void, !dbg !5515
}

declare noundef nonnull align 1 dereferenceable(1) ptr @_ZNSt7__cxx1112basic_stringIcSt11char_traitsIcESaIcEEixEm(ptr noundef nonnull align 8 dereferenceable(32), i64 noundef) #1

declare noundef ptr @_ZNSt7__cxx1112basic_stringIcSt11char_traitsIcESaIcEE13_M_local_dataEv(ptr noundef nonnull align 8 dereferenceable(32)) #1

declare void @_ZNSt7__cxx1112basic_stringIcSt11char_traitsIcESaIcEE12_Alloc_hiderC1EPcRKS3_(ptr noundef nonnull align 8 dereferenceable(8), ptr noundef, ptr noundef nonnull align 1 dereferenceable(1)) unnamed_addr #1

declare void @_ZNSt7__cxx1112basic_stringIcSt11char_traitsIcESaIcEE12_M_constructEmc(ptr noundef nonnull align 8 dereferenceable(32), i64 noundef, i8 noundef signext) #1

; Function Attrs: noinline nounwind optnone uwtable
define linkonce_odr dso_local void @_ZNSt7__cxx1112basic_stringIcSt11char_traitsIcESaIcEE12_Alloc_hiderD2Ev(ptr noundef nonnull align 8 dereferenceable(8) %0) unnamed_addr #11 comdat align 2 !dbg !5516 {
  %2 = alloca ptr, align 8
  store ptr %0, ptr %2, align 8
  call void @llvm.dbg.declare(metadata ptr %2, metadata !5521, metadata !DIExpression()), !dbg !5523
  %3 = load ptr, ptr %2, align 8
  call void @_ZNSaIcED2Ev(ptr noundef nonnull align 1 dereferenceable(1) %3) #3, !dbg !5524
  ret void, !dbg !5526
}

; Function Attrs: nounwind
declare void @_ZNSaIcED2Ev(ptr noundef nonnull align 1 dereferenceable(1)) unnamed_addr #2

; Function Attrs: mustprogress noinline optnone uwtable
define linkonce_odr dso_local noundef i32 @_ZN9__gnu_cxx6__stoaIlicJiEEET0_PFT_PKT1_PPS3_DpT2_EPKcS5_PmS9_(ptr noundef %0, ptr noundef %1, ptr noundef %2, ptr noundef %3, i32 noundef %4) #4 comdat personality ptr @__gxx_personality_v0 !dbg !2332 {
  %6 = alloca ptr, align 8
  %7 = alloca ptr, align 8
  %8 = alloca ptr, align 8
  %9 = alloca ptr, align 8
  %10 = alloca i32, align 4
  %11 = alloca i32, align 4
  %12 = alloca ptr, align 8
  %13 = alloca %struct._Save_errno, align 4
  %14 = alloca i64, align 8
  %15 = alloca ptr, align 8
  %16 = alloca i32, align 4
  %17 = alloca %"struct.std::integral_constant", align 1
  %18 = alloca %"struct.std::is_same", align 1
  store ptr %0, ptr %6, align 8
  call void @llvm.dbg.declare(metadata ptr %6, metadata !5527, metadata !DIExpression()), !dbg !5528
  store ptr %1, ptr %7, align 8
  call void @llvm.dbg.declare(metadata ptr %7, metadata !5529, metadata !DIExpression()), !dbg !5530
  store ptr %2, ptr %8, align 8
  call void @llvm.dbg.declare(metadata ptr %8, metadata !5531, metadata !DIExpression()), !dbg !5532
  store ptr %3, ptr %9, align 8
  call void @llvm.dbg.declare(metadata ptr %9, metadata !5533, metadata !DIExpression()), !dbg !5534
  store i32 %4, ptr %10, align 4
  call void @llvm.dbg.declare(metadata ptr %10, metadata !5535, metadata !DIExpression()), !dbg !5536
  call void @llvm.dbg.declare(metadata ptr %11, metadata !5537, metadata !DIExpression()), !dbg !5538
  call void @llvm.dbg.declare(metadata ptr %12, metadata !5539, metadata !DIExpression()), !dbg !5540
  call void @llvm.dbg.declare(metadata ptr %13, metadata !5541, metadata !DIExpression()), !dbg !5543
  call void @_ZZN9__gnu_cxx6__stoaIlicJiEEET0_PFT_PKT1_PPS3_DpT2_EPKcS5_PmS9_EN11_Save_errnoC2Ev(ptr noundef nonnull align 4 dereferenceable(4) %13), !dbg !5543
  call void @llvm.dbg.declare(metadata ptr %14, metadata !5544, metadata !DIExpression()), !dbg !5546
  %19 = load ptr, ptr %6, align 8, !dbg !5547
  %20 = load ptr, ptr %8, align 8, !dbg !5548
  %21 = load i32, ptr %10, align 4, !dbg !5549
  %22 = invoke noundef i64 %19(ptr noundef %20, ptr noundef %12, i32 noundef %21)
          to label %23 unwind label %30, !dbg !5547

23:                                               ; preds = %5
  store i64 %22, ptr %14, align 8, !dbg !5546
  %24 = load ptr, ptr %12, align 8, !dbg !5550
  %25 = load ptr, ptr %8, align 8, !dbg !5552
  %26 = icmp eq ptr %24, %25, !dbg !5553
  br i1 %26, label %27, label %34, !dbg !5554

27:                                               ; preds = %23
  %28 = load ptr, ptr %7, align 8, !dbg !5555
  invoke void @_ZSt24__throw_invalid_argumentPKc(ptr noundef %28) #22
          to label %29 unwind label %30, !dbg !5556

29:                                               ; preds = %27
  unreachable, !dbg !5556

30:                                               ; preds = %44, %38, %27, %5
  %31 = landingpad { ptr, i32 }
          cleanup, !dbg !5557
  %32 = extractvalue { ptr, i32 } %31, 0, !dbg !5557
  store ptr %32, ptr %15, align 8, !dbg !5557
  %33 = extractvalue { ptr, i32 } %31, 1, !dbg !5557
  store i32 %33, ptr %16, align 4, !dbg !5557
  call void @_ZZN9__gnu_cxx6__stoaIlicJiEEET0_PFT_PKT1_PPS3_DpT2_EPKcS5_PmS9_EN11_Save_errnoD2Ev(ptr noundef nonnull align 4 dereferenceable(4) %13) #3, !dbg !5557
  br label %63, !dbg !5557

34:                                               ; preds = %23
  %35 = call ptr @__errno_location() #23, !dbg !5558
  %36 = load i32, ptr %35, align 4, !dbg !5558
  %37 = icmp eq i32 %36, 34, !dbg !5560
  br i1 %37, label %42, label %38, !dbg !5561

38:                                               ; preds = %34
  %39 = load i64, ptr %14, align 8, !dbg !5562
  %40 = invoke noundef zeroext i1 @_ZZN9__gnu_cxx6__stoaIlicJiEEET0_PFT_PKT1_PPS3_DpT2_EPKcS5_PmS9_EN10_Range_chk6_S_chkElSt17integral_constantIbLb1EE(i64 noundef %39)
          to label %41 unwind label %30, !dbg !5563

41:                                               ; preds = %38
  br label %42, !dbg !5561

42:                                               ; preds = %41, %34
  %43 = phi i1 [ true, %34 ], [ %40, %41 ]
  br i1 %43, label %44, label %47, !dbg !5564

44:                                               ; preds = %42
  %45 = load ptr, ptr %7, align 8, !dbg !5565
  invoke void @_ZSt20__throw_out_of_rangePKc(ptr noundef %45) #22
          to label %46 unwind label %30, !dbg !5566

46:                                               ; preds = %44
  unreachable, !dbg !5566

47:                                               ; preds = %42
  %48 = load i64, ptr %14, align 8, !dbg !5567
  %49 = trunc i64 %48 to i32, !dbg !5567
  store i32 %49, ptr %11, align 4, !dbg !5568
  br label %50

50:                                               ; preds = %47
  br label %51

51:                                               ; preds = %50
  %52 = load ptr, ptr %9, align 8, !dbg !5569
  %53 = icmp ne ptr %52, null, !dbg !5569
  br i1 %53, label %54, label %61, !dbg !5571

54:                                               ; preds = %51
  %55 = load ptr, ptr %12, align 8, !dbg !5572
  %56 = load ptr, ptr %8, align 8, !dbg !5573
  %57 = ptrtoint ptr %55 to i64, !dbg !5574
  %58 = ptrtoint ptr %56 to i64, !dbg !5574
  %59 = sub i64 %57, %58, !dbg !5574
  %60 = load ptr, ptr %9, align 8, !dbg !5575
  store i64 %59, ptr %60, align 8, !dbg !5576
  br label %61, !dbg !5577

61:                                               ; preds = %54, %51
  %62 = load i32, ptr %11, align 4, !dbg !5578
  call void @_ZZN9__gnu_cxx6__stoaIlicJiEEET0_PFT_PKT1_PPS3_DpT2_EPKcS5_PmS9_EN11_Save_errnoD2Ev(ptr noundef nonnull align 4 dereferenceable(4) %13) #3, !dbg !5557
  ret i32 %62, !dbg !5557

63:                                               ; preds = %30
  %64 = load ptr, ptr %15, align 8, !dbg !5557
  %65 = load i32, ptr %16, align 4, !dbg !5557
  %66 = insertvalue { ptr, i32 } poison, ptr %64, 0, !dbg !5557
  %67 = insertvalue { ptr, i32 } %66, i32 %65, 1, !dbg !5557
  resume { ptr, i32 } %67, !dbg !5557
}

; Function Attrs: nounwind
declare i64 @strtol(ptr noundef, ptr noundef, i32 noundef) #2

; Function Attrs: nounwind
declare noundef ptr @_ZNKSt7__cxx1112basic_stringIcSt11char_traitsIcESaIcEE5c_strEv(ptr noundef nonnull align 8 dereferenceable(32)) #2

; Function Attrs: noinline nounwind optnone uwtable
define linkonce_odr dso_local void @_ZZN9__gnu_cxx6__stoaIlicJiEEET0_PFT_PKT1_PPS3_DpT2_EPKcS5_PmS9_EN11_Save_errnoC2Ev(ptr noundef nonnull align 4 dereferenceable(4) %0) unnamed_addr #11 comdat align 2 !dbg !5579 {
  %2 = alloca ptr, align 8
  store ptr %0, ptr %2, align 8
  call void @llvm.dbg.declare(metadata ptr %2, metadata !5580, metadata !DIExpression()), !dbg !5582
  %3 = load ptr, ptr %2, align 8
