; ModuleID = '../TrackingBenchmark/AsyncIO.cpp'
source_filename = "../TrackingBenchmark/AsyncIO.cpp"
target datalayout = "e-m:e-p270:32:32-p271:32:32-p272:64:64-i64:64-f80:128-n8:16:32:64-S128"
target triple = "x86_64-unknown-linux-gnu"

%"class.std::ios_base::Init" = type { i8 }
%"class.std::basic_ostream" = type { ptr, %"class.std::basic_ios" }
%"class.std::basic_ios" = type { %"class.std::ios_base", ptr, i8, i8, ptr, ptr, ptr, ptr }
%"class.std::ios_base" = type { ptr, i64, i64, i32, i32, i32, ptr, %"struct.std::ios_base::_Words", [8 x %"struct.std::ios_base::_Words"], i32, ptr, %"class.std::locale" }
%"struct.std::ios_base::_Words" = type { ptr, i64 }
%"class.std::locale" = type { ptr }
%class.FlexImage = type <{ ptr, ptr, i32, i32, %class.FISize, i32, [4 x i8] }>
%class.FISize = type { i32, i32 }
%class.AsyncImageLoader = type <{ %"class.threads::Runnable", %"class.std::deque", %"class.std::deque.3", i32, i32, %"class.std::__cxx11::basic_string", %"class.threads::Mutex", %"class.threads::Mutex", %"class.threads::Mutex", %"class.threads::Condition", %"class.threads::Condition", i8, [3 x i8], i32, i32, [4 x i8] }>
%"class.threads::Runnable" = type { ptr }
%"class.std::deque" = type { %"class.std::_Deque_base" }
%"class.std::_Deque_base" = type { %"struct.std::_Deque_base<std::vector<FlexImage<unsigned char, 1>>, std::allocator<std::vector<FlexImage<unsigned char, 1>>>>::_Deque_impl" }
%"struct.std::_Deque_base<std::vector<FlexImage<unsigned char, 1>>, std::allocator<std::vector<FlexImage<unsigned char, 1>>>>::_Deque_impl" = type { %"struct.std::_Deque_base<std::vector<FlexImage<unsigned char, 1>>, std::allocator<std::vector<FlexImage<unsigned char, 1>>>>::_Deque_impl_data" }
%"struct.std::_Deque_base<std::vector<FlexImage<unsigned char, 1>>, std::allocator<std::vector<FlexImage<unsigned char, 1>>>>::_Deque_impl_data" = type { ptr, i64, %"struct.std::_Deque_iterator", %"struct.std::_Deque_iterator" }
%"struct.std::_Deque_iterator" = type { ptr, ptr, ptr, ptr }
%"class.std::deque.3" = type { %"class.std::_Deque_base.4" }
%"class.std::_Deque_base.4" = type { %"struct.std::_Deque_base<std::vector<BinaryImage>, std::allocator<std::vector<BinaryImage>>>::_Deque_impl" }
%"struct.std::_Deque_base<std::vector<BinaryImage>, std::allocator<std::vector<BinaryImage>>>::_Deque_impl" = type { %"struct.std::_Deque_base<std::vector<BinaryImage>, std::allocator<std::vector<BinaryImage>>>::_Deque_impl_data" }
%"struct.std::_Deque_base<std::vector<BinaryImage>, std::allocator<std::vector<BinaryImage>>>::_Deque_impl_data" = type { ptr, i64, %"struct.std::_Deque_iterator.13", %"struct.std::_Deque_iterator.13" }
%"struct.std::_Deque_iterator.13" = type { ptr, ptr, ptr, ptr }
%"class.std::__cxx11::basic_string" = type { %"struct.std::__cxx11::basic_string<char>::_Alloc_hider", i64, %union.anon }
%"struct.std::__cxx11::basic_string<char>::_Alloc_hider" = type { ptr }
%union.anon = type { i64, [8 x i8] }
%"class.threads::Mutex" = type { %"class.threads::LockType", %union.pthread_mutex_t }
%"class.threads::LockType" = type { ptr }
%union.pthread_mutex_t = type { %struct.__pthread_mutex_s }
%struct.__pthread_mutex_s = type { i32, i32, i32, i32, i32, i16, i16, %struct.__pthread_internal_list }
%struct.__pthread_internal_list = type { ptr, ptr }
%"class.threads::Condition" = type { ptr, i32, i32, %union.pthread_cond_t }
%union.pthread_cond_t = type { %struct.__pthread_cond_s }
%struct.__pthread_cond_s = type { %union.__atomic_wide_counter, %union.__atomic_wide_counter, [2 x i32], [2 x i32], i32, i32, [2 x i32] }
%union.__atomic_wide_counter = type { i64 }
%"struct.std::_Vector_base.18" = type { %"struct.std::_Vector_base<std::__cxx11::basic_string<char>, std::allocator<std::__cxx11::basic_string<char>>>::_Vector_impl" }
%"struct.std::_Vector_base<std::__cxx11::basic_string<char>, std::allocator<std::__cxx11::basic_string<char>>>::_Vector_impl" = type { %"struct.std::_Vector_base<std::__cxx11::basic_string<char>, std::allocator<std::__cxx11::basic_string<char>>>::_Vector_impl_data" }
%"struct.std::_Vector_base<std::__cxx11::basic_string<char>, std::allocator<std::__cxx11::basic_string<char>>>::_Vector_impl_data" = type { ptr, ptr, ptr }
%"struct.std::_Vector_base.9" = type { %"struct.std::_Vector_base<BinaryImage, std::allocator<BinaryImage>>::_Vector_impl" }
%"struct.std::_Vector_base<BinaryImage, std::allocator<BinaryImage>>::_Vector_impl" = type { %"struct.std::_Vector_base<BinaryImage, std::allocator<BinaryImage>>::_Vector_impl_data" }
%"struct.std::_Vector_base<BinaryImage, std::allocator<BinaryImage>>::_Vector_impl_data" = type { ptr, ptr, ptr }
%class.BinaryImage = type { ptr, ptr, i32, i32 }
%"struct.std::_Vector_base" = type { %"struct.std::_Vector_base<FlexImage<unsigned char, 1>, std::allocator<FlexImage<unsigned char, 1>>>::_Vector_impl" }
%"struct.std::_Vector_base<FlexImage<unsigned char, 1>, std::allocator<FlexImage<unsigned char, 1>>>::_Vector_impl" = type { %"struct.std::_Vector_base<FlexImage<unsigned char, 1>, std::allocator<FlexImage<unsigned char, 1>>>::_Vector_impl_data" }
%"struct.std::_Vector_base<FlexImage<unsigned char, 1>, std::allocator<FlexImage<unsigned char, 1>>>::_Vector_impl_data" = type { ptr, ptr, ptr }
%"class.std::vector" = type { %"struct.std::_Vector_base" }
%"class.std::allocator.0" = type { i8 }
%"class.std::vector.8" = type { %"struct.std::_Vector_base.9" }
%"class.std::allocator.10" = type { i8 }
%"class.std::vector.17" = type { %"struct.std::_Vector_base.18" }
%"class.std::allocator.19" = type { i8 }
%"class.std::__cxx11::basic_stringstream" = type { %"class.std::basic_iostream.base", %"class.std::__cxx11::basic_stringbuf", %"class.std::basic_ios" }
%"class.std::basic_iostream.base" = type { %"class.std::basic_istream.base", %"class.std::basic_ostream.base" }
%"class.std::basic_istream.base" = type { ptr, i64 }
%"class.std::basic_ostream.base" = type { ptr }
%"class.std::__cxx11::basic_stringbuf" = type { %"class.std::basic_streambuf", i32, %"class.std::__cxx11::basic_string" }
%"class.std::basic_streambuf" = type { ptr, ptr, ptr, ptr, ptr, ptr, ptr, %"class.std::locale" }
%"struct.std::_Setw" = type { i32 }
%"struct.std::_Setfill" = type { i8 }
%"class.__gnu_cxx::__normal_iterator" = type { ptr }
%"class.__gnu_cxx::__normal_iterator.29" = type { ptr }
%"class.__gnu_cxx::__normal_iterator.28" = type { ptr }
%"class.__gnu_cxx::__normal_iterator.30" = type { ptr }
%class.FlexImageStore = type <{ i32, [4 x i8], ptr, %class.FISize, i32, [4 x i8] }>
%"class.std::allocator.22" = type { i8 }
%"class.std::allocator.25" = type { i8 }

$_ZNKSt6vectorINSt7__cxx1112basic_stringIcSt11char_traitsIcESaIcEEESaIS5_EE4sizeEv = comdat any

$_Z11FlexLoadBMPIhLi1EEbPKcR9FlexImageIT_XT0_EE = comdat any

$_ZNSt6vectorINSt7__cxx1112basic_stringIcSt11char_traitsIcESaIcEEESaIS5_EEixEm = comdat any

$_ZNSt6vectorI11BinaryImageSaIS0_EEixEm = comdat any

$_ZN11BinaryImage15ConvertToBinaryERK9FlexImageIhLi1EE = comdat any

$_ZNSt6vectorI9FlexImageIhLi1EESaIS1_EEixEm = comdat any

$_ZNSaI9FlexImageIhLi1EEEC2Ev = comdat any

$_ZNSt6vectorI9FlexImageIhLi1EESaIS1_EEC2EmRKS2_ = comdat any

$_ZNSaI9FlexImageIhLi1EEED2Ev = comdat any

$_ZNSaI11BinaryImageEC2Ev = comdat any

$_ZNSt6vectorI11BinaryImageSaIS0_EEC2EmRKS1_ = comdat any

$_ZNSaI11BinaryImageED2Ev = comdat any

$_ZNSaINSt7__cxx1112basic_stringIcSt11char_traitsIcESaIcEEEEC2Ev = comdat any

$_ZNSt6vectorINSt7__cxx1112basic_stringIcSt11char_traitsIcESaIcEEESaIS5_EEC2EmRKS6_ = comdat any

$_ZNSaINSt7__cxx1112basic_stringIcSt11char_traitsIcESaIcEEEED2Ev = comdat any

$_ZStplIcSt11char_traitsIcESaIcEENSt7__cxx1112basic_stringIT_T0_T1_EEOS8_PKS5_ = comdat any

$_ZStplIcSt11char_traitsIcESaIcEENSt7__cxx1112basic_stringIT_T0_T1_EEOS8_S9_ = comdat any

$_ZStplIcSt11char_traitsIcESaIcEENSt7__cxx1112basic_stringIT_T0_T1_EERKS8_PKS5_ = comdat any

$_Z3strIjENSt7__cxx1112basic_stringIcSt11char_traitsIcESaIcEEET_ic = comdat any

$_ZNSt5dequeISt6vectorI9FlexImageIhLi1EESaIS2_EESaIS4_EE9push_backERKS4_ = comdat any

$_ZNSt5dequeISt6vectorI11BinaryImageSaIS1_EESaIS3_EE9push_backERKS3_ = comdat any

$_ZNKSt5dequeISt6vectorI9FlexImageIhLi1EESaIS2_EESaIS4_EE4sizeEv = comdat any

$_ZNSt6vectorINSt7__cxx1112basic_stringIcSt11char_traitsIcESaIcEEESaIS5_EED2Ev = comdat any

$_ZNSt6vectorI11BinaryImageSaIS0_EED2Ev = comdat any

$_ZNSt6vectorI9FlexImageIhLi1EESaIS1_EED2Ev = comdat any

$_ZNSt5dequeISt6vectorI9FlexImageIhLi1EESaIS2_EESaIS4_EEixEm = comdat any

$_ZNSt6vectorI9FlexImageIhLi1EESaIS1_EEaSERKS3_ = comdat any

$_ZNSt5dequeISt6vectorI9FlexImageIhLi1EESaIS2_EESaIS4_EE9pop_frontEv = comdat any

$_ZNSt5dequeISt6vectorI11BinaryImageSaIS1_EESaIS3_EEixEm = comdat any

$_ZNSt6vectorI11BinaryImageSaIS0_EEaSERKS2_ = comdat any

$_ZNSt5dequeISt6vectorI11BinaryImageSaIS1_EESaIS3_EE9pop_frontEv = comdat any

$_ZN16AsyncImageLoaderD2Ev = comdat any

$_ZN16AsyncImageLoaderD0Ev = comdat any

$_ZN11BinaryImage10ReallocateEii = comdat any

$_ZNK9FlexImageIhLi1EE5WidthEv = comdat any

$_ZNK9FlexImageIhLi1EE6HeightEv = comdat any

$_ZN11BinaryImage5ClearEv = comdat any

$_ZNK9FlexImageIhLi1EEclEii = comdat any

$_ZN11BinaryImage8AllocateEv = comdat any

$_ZN11BinaryImage12DecReferenceEv = comdat any

$_ZN14FlexImageStoreIhLi1EEC2Eii = comdat any

$_ZN14FlexImageStoreIhLi1EE4DataEv = comdat any

$_ZN14FlexImageStoreIhLi1EE3ErrEv = comdat any

$_ZN14FlexImageStoreIhLi1EE13DecReferencesEv = comdat any

$_ZN14FlexImageStoreIhLi1EED2Ev = comdat any

$_ZN14FlexImageStoreIhLi1EE7SetSizeEii = comdat any

$_ZN14FlexImageStoreIhLi1EE8AllocateEv = comdat any

$_ZN14FlexImageStoreIhLi1EE10FlexMallocEiiRi = comdat any

$_ZNK9FlexImageIhLi1EEclEiii = comdat any

$_ZNSt5dequeISt6vectorI11BinaryImageSaIS1_EESaIS3_EED2Ev = comdat any

$_ZNSt5dequeISt6vectorI9FlexImageIhLi1EESaIS2_EESaIS4_EED2Ev = comdat any

$_ZN7threads8RunnableD2Ev = comdat any

$_ZNSt5dequeISt6vectorI11BinaryImageSaIS1_EESaIS3_EE15_M_destroy_dataESt15_Deque_iteratorIS3_RS3_PS3_ES9_RKS4_ = comdat any

$_ZNSt5dequeISt6vectorI11BinaryImageSaIS1_EESaIS3_EE5beginEv = comdat any

$_ZNSt5dequeISt6vectorI11BinaryImageSaIS1_EESaIS3_EE3endEv = comdat any

$_ZNSt11_Deque_baseISt6vectorI11BinaryImageSaIS1_EESaIS3_EE19_M_get_Tp_allocatorEv = comdat any

$__clang_call_terminate = comdat any

$_ZNSt11_Deque_baseISt6vectorI11BinaryImageSaIS1_EESaIS3_EED2Ev = comdat any

$_ZNSt5dequeISt6vectorI11BinaryImageSaIS1_EESaIS3_EE19_M_destroy_data_auxESt15_Deque_iteratorIS3_RS3_PS3_ES9_ = comdat any

$_ZNSt15_Deque_iteratorISt6vectorI11BinaryImageSaIS1_EERS3_PS3_EC2ERKS6_ = comdat any

$_ZSt8_DestroyIPSt6vectorI11BinaryImageSaIS1_EES3_EvT_S5_RSaIT0_E = comdat any

$_ZNSt5dequeISt6vectorI11BinaryImageSaIS1_EESaIS3_EE14_S_buffer_sizeEv = comdat any

$_ZSt8_DestroyIPSt6vectorI11BinaryImageSaIS1_EEEvT_S5_ = comdat any

$_ZNSt12_Destroy_auxILb0EE9__destroyIPSt6vectorI11BinaryImageSaIS3_EEEEvT_S7_ = comdat any

$_ZSt8_DestroyISt6vectorI11BinaryImageSaIS1_EEEvPT_ = comdat any

$_ZSt16__deque_buf_sizem = comdat any

$_ZNSt11_Deque_baseISt6vectorI11BinaryImageSaIS1_EESaIS3_EE16_M_destroy_nodesEPPS3_S7_ = comdat any

$_ZNSt11_Deque_baseISt6vectorI11BinaryImageSaIS1_EESaIS3_EE17_M_deallocate_mapEPPS3_m = comdat any

$_ZNSt11_Deque_baseISt6vectorI11BinaryImageSaIS1_EESaIS3_EE11_Deque_implD2Ev = comdat any

$_ZNSt11_Deque_baseISt6vectorI11BinaryImageSaIS1_EESaIS3_EE18_M_deallocate_nodeEPS3_ = comdat any

$_ZNSt16allocator_traitsISaISt6vectorI11BinaryImageSaIS1_EEEE10deallocateERS4_PS3_m = comdat any

$_ZN9__gnu_cxx13new_allocatorISt6vectorI11BinaryImageSaIS2_EEE10deallocateEPS4_m = comdat any

$_ZNKSt11_Deque_baseISt6vectorI11BinaryImageSaIS1_EESaIS3_EE20_M_get_map_allocatorEv = comdat any

$_ZNSt16allocator_traitsISaIPSt6vectorI11BinaryImageSaIS1_EEEE10deallocateERS5_PS4_m = comdat any

$_ZNSaIPSt6vectorI11BinaryImageSaIS0_EEED2Ev = comdat any

$_ZNKSt11_Deque_baseISt6vectorI11BinaryImageSaIS1_EESaIS3_EE19_M_get_Tp_allocatorEv = comdat any

$_ZNSaIPSt6vectorI11BinaryImageSaIS0_EEEC2IS2_EERKSaIT_E = comdat any

$_ZN9__gnu_cxx13new_allocatorIPSt6vectorI11BinaryImageSaIS2_EEEC2Ev = comdat any

$_ZN9__gnu_cxx13new_allocatorIPSt6vectorI11BinaryImageSaIS2_EEE10deallocateEPS5_m = comdat any

$_ZN9__gnu_cxx13new_allocatorIPSt6vectorI11BinaryImageSaIS2_EEED2Ev = comdat any

$_ZNSaISt6vectorI11BinaryImageSaIS0_EEED2Ev = comdat any

$_ZN9__gnu_cxx13new_allocatorISt6vectorI11BinaryImageSaIS2_EEED2Ev = comdat any

$_ZNSt5dequeISt6vectorI9FlexImageIhLi1EESaIS2_EESaIS4_EE15_M_destroy_dataESt15_Deque_iteratorIS4_RS4_PS4_ESA_RKS5_ = comdat any

$_ZNSt5dequeISt6vectorI9FlexImageIhLi1EESaIS2_EESaIS4_EE5beginEv = comdat any

$_ZNSt5dequeISt6vectorI9FlexImageIhLi1EESaIS2_EESaIS4_EE3endEv = comdat any

$_ZNSt11_Deque_baseISt6vectorI9FlexImageIhLi1EESaIS2_EESaIS4_EE19_M_get_Tp_allocatorEv = comdat any

$_ZNSt11_Deque_baseISt6vectorI9FlexImageIhLi1EESaIS2_EESaIS4_EED2Ev = comdat any

$_ZNSt5dequeISt6vectorI9FlexImageIhLi1EESaIS2_EESaIS4_EE19_M_destroy_data_auxESt15_Deque_iteratorIS4_RS4_PS4_ESA_ = comdat any

$_ZNSt15_Deque_iteratorISt6vectorI9FlexImageIhLi1EESaIS2_EERS4_PS4_EC2ERKS7_ = comdat any

$_ZSt8_DestroyIPSt6vectorI9FlexImageIhLi1EESaIS2_EES4_EvT_S6_RSaIT0_E = comdat any

$_ZNSt5dequeISt6vectorI9FlexImageIhLi1EESaIS2_EESaIS4_EE14_S_buffer_sizeEv = comdat any

$_ZSt8_DestroyIPSt6vectorI9FlexImageIhLi1EESaIS2_EEEvT_S6_ = comdat any

$_ZNSt12_Destroy_auxILb0EE9__destroyIPSt6vectorI9FlexImageIhLi1EESaIS4_EEEEvT_S8_ = comdat any

$_ZSt8_DestroyISt6vectorI9FlexImageIhLi1EESaIS2_EEEvPT_ = comdat any

$_ZNSt11_Deque_baseISt6vectorI9FlexImageIhLi1EESaIS2_EESaIS4_EE16_M_destroy_nodesEPPS4_S8_ = comdat any

$_ZNSt11_Deque_baseISt6vectorI9FlexImageIhLi1EESaIS2_EESaIS4_EE17_M_deallocate_mapEPPS4_m = comdat any

$_ZNSt11_Deque_baseISt6vectorI9FlexImageIhLi1EESaIS2_EESaIS4_EE11_Deque_implD2Ev = comdat any

$_ZNSt11_Deque_baseISt6vectorI9FlexImageIhLi1EESaIS2_EESaIS4_EE18_M_deallocate_nodeEPS4_ = comdat any

$_ZNSt16allocator_traitsISaISt6vectorI9FlexImageIhLi1EESaIS2_EEEE10deallocateERS5_PS4_m = comdat any

$_ZN9__gnu_cxx13new_allocatorISt6vectorI9FlexImageIhLi1EESaIS3_EEE10deallocateEPS5_m = comdat any

$_ZNKSt11_Deque_baseISt6vectorI9FlexImageIhLi1EESaIS2_EESaIS4_EE20_M_get_map_allocatorEv = comdat any

$_ZNSt16allocator_traitsISaIPSt6vectorI9FlexImageIhLi1EESaIS2_EEEE10deallocateERS6_PS5_m = comdat any

$_ZNSaIPSt6vectorI9FlexImageIhLi1EESaIS1_EEED2Ev = comdat any

$_ZNKSt11_Deque_baseISt6vectorI9FlexImageIhLi1EESaIS2_EESaIS4_EE19_M_get_Tp_allocatorEv = comdat any

$_ZNSaIPSt6vectorI9FlexImageIhLi1EESaIS1_EEEC2IS3_EERKSaIT_E = comdat any

$_ZN9__gnu_cxx13new_allocatorIPSt6vectorI9FlexImageIhLi1EESaIS3_EEEC2Ev = comdat any

$_ZN9__gnu_cxx13new_allocatorIPSt6vectorI9FlexImageIhLi1EESaIS3_EEE10deallocateEPS6_m = comdat any

$_ZN9__gnu_cxx13new_allocatorIPSt6vectorI9FlexImageIhLi1EESaIS3_EEED2Ev = comdat any

$_ZNSaISt6vectorI9FlexImageIhLi1EESaIS1_EEED2Ev = comdat any

$_ZN9__gnu_cxx13new_allocatorISt6vectorI9FlexImageIhLi1EESaIS3_EEED2Ev = comdat any

$_ZN9FlexImageIhLi1EE11ConvertFromIhEEiRKS_IT_Li1EEb = comdat any

$_Z11FlexConvertIhhLi1EEiRK9FlexImageIT_XT1_EERS0_IT0_XT1_EEb = comdat any

$_ZNK9FlexImageIhLi1EE4SizeEv = comdat any

$_ZNK9FlexImageIhLi1EE4DataEv = comdat any

$_ZN9FlexImageIhLi1EE4DataEv = comdat any

$_ZNK9FlexImageIhLi1EE9StepBytesEv = comdat any

$_ZN9__gnu_cxx13new_allocatorI9FlexImageIhLi1EEEC2Ev = comdat any

$_ZN9__gnu_cxx13new_allocatorI9FlexImageIhLi1EEED2Ev = comdat any

$_ZNSt6vectorI9FlexImageIhLi1EESaIS1_EE17_S_check_init_lenEmRKS2_ = comdat any

$_ZNSt12_Vector_baseI9FlexImageIhLi1EESaIS1_EEC2EmRKS2_ = comdat any

$_ZNSt6vectorI9FlexImageIhLi1EESaIS1_EE21_M_default_initializeEm = comdat any

$_ZNSt12_Vector_baseI9FlexImageIhLi1EESaIS1_EED2Ev = comdat any

$_ZNSt6vectorI9FlexImageIhLi1EESaIS1_EE11_S_max_sizeERKS2_ = comdat any

$_ZNSaI9FlexImageIhLi1EEEC2ERKS1_ = comdat any

$_ZNSt16allocator_traitsISaI9FlexImageIhLi1EEEE8max_sizeERKS2_ = comdat any

$_ZSt3minImERKT_S2_S2_ = comdat any

$_ZNK9__gnu_cxx13new_allocatorI9FlexImageIhLi1EEE8max_sizeEv = comdat any

$_ZNK9__gnu_cxx13new_allocatorI9FlexImageIhLi1EEE11_M_max_sizeEv = comdat any

$_ZN9__gnu_cxx13new_allocatorI9FlexImageIhLi1EEEC2ERKS3_ = comdat any

$_ZNSt12_Vector_baseI9FlexImageIhLi1EESaIS1_EE12_Vector_implC2ERKS2_ = comdat any

$_ZNSt12_Vector_baseI9FlexImageIhLi1EESaIS1_EE17_M_create_storageEm = comdat any

$_ZNSt12_Vector_baseI9FlexImageIhLi1EESaIS1_EE12_Vector_implD2Ev = comdat any

$_ZNSt12_Vector_baseI9FlexImageIhLi1EESaIS1_EE17_Vector_impl_dataC2Ev = comdat any

$_ZNSt12_Vector_baseI9FlexImageIhLi1EESaIS1_EE11_M_allocateEm = comdat any

$_ZNSt16allocator_traitsISaI9FlexImageIhLi1EEEE8allocateERS2_m = comdat any

$_ZN9__gnu_cxx13new_allocatorI9FlexImageIhLi1EEE8allocateEmPKv = comdat any

$_ZSt27__uninitialized_default_n_aIP9FlexImageIhLi1EEmS1_ET_S3_T0_RSaIT1_E = comdat any

$_ZNSt12_Vector_baseI9FlexImageIhLi1EESaIS1_EE19_M_get_Tp_allocatorEv = comdat any

$_ZSt25__uninitialized_default_nIP9FlexImageIhLi1EEmET_S3_T0_ = comdat any

$_ZNSt27__uninitialized_default_n_1ILb0EE18__uninit_default_nIP9FlexImageIhLi1EEmEET_S5_T0_ = comdat any

$_ZSt10_ConstructI9FlexImageIhLi1EEJEEvPT_DpOT0_ = comdat any

$_ZSt8_DestroyIP9FlexImageIhLi1EEEvT_S3_ = comdat any

$_ZNSt12_Destroy_auxILb0EE9__destroyIP9FlexImageIhLi1EEEEvT_S5_ = comdat any

$_ZSt8_DestroyI9FlexImageIhLi1EEEvPT_ = comdat any

$_ZNSt12_Vector_baseI9FlexImageIhLi1EESaIS1_EE13_M_deallocateEPS1_m = comdat any

$_ZNSt16allocator_traitsISaI9FlexImageIhLi1EEEE10deallocateERS2_PS1_m = comdat any

$_ZN9__gnu_cxx13new_allocatorI9FlexImageIhLi1EEE10deallocateEPS2_m = comdat any

$_ZSt8_DestroyIP9FlexImageIhLi1EES1_EvT_S3_RSaIT0_E = comdat any

$_ZN9__gnu_cxx13new_allocatorI11BinaryImageEC2Ev = comdat any

$_ZN9__gnu_cxx13new_allocatorI11BinaryImageED2Ev = comdat any

$_ZNSt6vectorI11BinaryImageSaIS0_EE17_S_check_init_lenEmRKS1_ = comdat any

$_ZNSt12_Vector_baseI11BinaryImageSaIS0_EEC2EmRKS1_ = comdat any

$_ZNSt6vectorI11BinaryImageSaIS0_EE21_M_default_initializeEm = comdat any

$_ZNSt12_Vector_baseI11BinaryImageSaIS0_EED2Ev = comdat any

$_ZNSt6vectorI11BinaryImageSaIS0_EE11_S_max_sizeERKS1_ = comdat any

$_ZNSaI11BinaryImageEC2ERKS0_ = comdat any

$_ZNSt16allocator_traitsISaI11BinaryImageEE8max_sizeERKS1_ = comdat any

$_ZNK9__gnu_cxx13new_allocatorI11BinaryImageE8max_sizeEv = comdat any

$_ZNK9__gnu_cxx13new_allocatorI11BinaryImageE11_M_max_sizeEv = comdat any

$_ZN9__gnu_cxx13new_allocatorI11BinaryImageEC2ERKS2_ = comdat any

$_ZNSt12_Vector_baseI11BinaryImageSaIS0_EE12_Vector_implC2ERKS1_ = comdat any

$_ZNSt12_Vector_baseI11BinaryImageSaIS0_EE17_M_create_storageEm = comdat any

$_ZNSt12_Vector_baseI11BinaryImageSaIS0_EE12_Vector_implD2Ev = comdat any

$_ZNSt12_Vector_baseI11BinaryImageSaIS0_EE17_Vector_impl_dataC2Ev = comdat any

$_ZNSt12_Vector_baseI11BinaryImageSaIS0_EE11_M_allocateEm = comdat any

$_ZNSt16allocator_traitsISaI11BinaryImageEE8allocateERS1_m = comdat any

$_ZN9__gnu_cxx13new_allocatorI11BinaryImageE8allocateEmPKv = comdat any

$_ZSt27__uninitialized_default_n_aIP11BinaryImagemS0_ET_S2_T0_RSaIT1_E = comdat any

$_ZNSt12_Vector_baseI11BinaryImageSaIS0_EE19_M_get_Tp_allocatorEv = comdat any

$_ZSt25__uninitialized_default_nIP11BinaryImagemET_S2_T0_ = comdat any

$_ZNSt27__uninitialized_default_n_1ILb0EE18__uninit_default_nIP11BinaryImagemEET_S4_T0_ = comdat any

$_ZSt10_ConstructI11BinaryImageJEEvPT_DpOT0_ = comdat any

$_ZSt8_DestroyIP11BinaryImageEvT_S2_ = comdat any

$_ZN11BinaryImageC2Ev = comdat any

$_ZNSt12_Destroy_auxILb0EE9__destroyIP11BinaryImageEEvT_S4_ = comdat any

$_ZSt8_DestroyI11BinaryImageEvPT_ = comdat any

$_ZN11BinaryImageD2Ev = comdat any

$_ZNSt12_Vector_baseI11BinaryImageSaIS0_EE13_M_deallocateEPS0_m = comdat any

$_ZNSt16allocator_traitsISaI11BinaryImageEE10deallocateERS1_PS0_m = comdat any

$_ZN9__gnu_cxx13new_allocatorI11BinaryImageE10deallocateEPS1_m = comdat any

$_ZSt8_DestroyIP11BinaryImageS0_EvT_S2_RSaIT0_E = comdat any

$_ZN9__gnu_cxx13new_allocatorINSt7__cxx1112basic_stringIcSt11char_traitsIcESaIcEEEEC2Ev = comdat any

$_ZN9__gnu_cxx13new_allocatorINSt7__cxx1112basic_stringIcSt11char_traitsIcESaIcEEEED2Ev = comdat any

$_ZNSt6vectorINSt7__cxx1112basic_stringIcSt11char_traitsIcESaIcEEESaIS5_EE17_S_check_init_lenEmRKS6_ = comdat any

$_ZNSt12_Vector_baseINSt7__cxx1112basic_stringIcSt11char_traitsIcESaIcEEESaIS5_EEC2EmRKS6_ = comdat any

$_ZNSt6vectorINSt7__cxx1112basic_stringIcSt11char_traitsIcESaIcEEESaIS5_EE21_M_default_initializeEm = comdat any

$_ZNSt12_Vector_baseINSt7__cxx1112basic_stringIcSt11char_traitsIcESaIcEEESaIS5_EED2Ev = comdat any

$_ZNSt6vectorINSt7__cxx1112basic_stringIcSt11char_traitsIcESaIcEEESaIS5_EE11_S_max_sizeERKS6_ = comdat any

$_ZNSaINSt7__cxx1112basic_stringIcSt11char_traitsIcESaIcEEEEC2ERKS5_ = comdat any

$_ZNSt16allocator_traitsISaINSt7__cxx1112basic_stringIcSt11char_traitsIcESaIcEEEEE8max_sizeERKS6_ = comdat any

$_ZNK9__gnu_cxx13new_allocatorINSt7__cxx1112basic_stringIcSt11char_traitsIcESaIcEEEE8max_sizeEv = comdat any

$_ZNK9__gnu_cxx13new_allocatorINSt7__cxx1112basic_stringIcSt11char_traitsIcESaIcEEEE11_M_max_sizeEv = comdat any

$_ZN9__gnu_cxx13new_allocatorINSt7__cxx1112basic_stringIcSt11char_traitsIcESaIcEEEEC2ERKS7_ = comdat any

$_ZNSt12_Vector_baseINSt7__cxx1112basic_stringIcSt11char_traitsIcESaIcEEESaIS5_EE12_Vector_implC2ERKS6_ = comdat any

$_ZNSt12_Vector_baseINSt7__cxx1112basic_stringIcSt11char_traitsIcESaIcEEESaIS5_EE17_M_create_storageEm = comdat any

$_ZNSt12_Vector_baseINSt7__cxx1112basic_stringIcSt11char_traitsIcESaIcEEESaIS5_EE12_Vector_implD2Ev = comdat any

$_ZNSt12_Vector_baseINSt7__cxx1112basic_stringIcSt11char_traitsIcESaIcEEESaIS5_EE17_Vector_impl_dataC2Ev = comdat any

$_ZNSt12_Vector_baseINSt7__cxx1112basic_stringIcSt11char_traitsIcESaIcEEESaIS5_EE11_M_allocateEm = comdat any

$_ZNSt16allocator_traitsISaINSt7__cxx1112basic_stringIcSt11char_traitsIcESaIcEEEEE8allocateERS6_m = comdat any

$_ZN9__gnu_cxx13new_allocatorINSt7__cxx1112basic_stringIcSt11char_traitsIcESaIcEEEE8allocateEmPKv = comdat any

$_ZSt27__uninitialized_default_n_aIPNSt7__cxx1112basic_stringIcSt11char_traitsIcESaIcEEEmS5_ET_S7_T0_RSaIT1_E = comdat any

$_ZNSt12_Vector_baseINSt7__cxx1112basic_stringIcSt11char_traitsIcESaIcEEESaIS5_EE19_M_get_Tp_allocatorEv = comdat any

$_ZSt25__uninitialized_default_nIPNSt7__cxx1112basic_stringIcSt11char_traitsIcESaIcEEEmET_S7_T0_ = comdat any

$_ZNSt27__uninitialized_default_n_1ILb0EE18__uninit_default_nIPNSt7__cxx1112basic_stringIcSt11char_traitsIcESaIcEEEmEET_S9_T0_ = comdat any

$_ZSt10_ConstructINSt7__cxx1112basic_stringIcSt11char_traitsIcESaIcEEEJEEvPT_DpOT0_ = comdat any

$_ZSt8_DestroyIPNSt7__cxx1112basic_stringIcSt11char_traitsIcESaIcEEEEvT_S7_ = comdat any

$_ZNSt12_Destroy_auxILb0EE9__destroyIPNSt7__cxx1112basic_stringIcSt11char_traitsIcESaIcEEEEEvT_S9_ = comdat any

$_ZSt8_DestroyINSt7__cxx1112basic_stringIcSt11char_traitsIcESaIcEEEEvPT_ = comdat any

$_ZNSt12_Vector_baseINSt7__cxx1112basic_stringIcSt11char_traitsIcESaIcEEESaIS5_EE13_M_deallocateEPS5_m = comdat any

$_ZNSt16allocator_traitsISaINSt7__cxx1112basic_stringIcSt11char_traitsIcESaIcEEEEE10deallocateERS6_PS5_m = comdat any

$_ZN9__gnu_cxx13new_allocatorINSt7__cxx1112basic_stringIcSt11char_traitsIcESaIcEEEE10deallocateEPS6_m = comdat any

$_ZSt8_DestroyIPNSt7__cxx1112basic_stringIcSt11char_traitsIcESaIcEEES5_EvT_S7_RSaIT0_E = comdat any

$_ZSt4setwi = comdat any

$_ZSt7setfillIcESt8_SetfillIT_ES1_ = comdat any

$_ZNSt16allocator_traitsISaISt6vectorI9FlexImageIhLi1EESaIS2_EEEE9constructIS4_JRKS4_EEEvRS5_PT_DpOT0_ = comdat any

$_ZNSt5dequeISt6vectorI9FlexImageIhLi1EESaIS2_EESaIS4_EE16_M_push_back_auxIJRKS4_EEEvDpOT_ = comdat any

$_ZN9__gnu_cxx13new_allocatorISt6vectorI9FlexImageIhLi1EESaIS3_EEE9constructIS5_JRKS5_EEEvPT_DpOT0_ = comdat any

$_ZNSt6vectorI9FlexImageIhLi1EESaIS1_EEC2ERKS3_ = comdat any

$_ZNKSt6vectorI9FlexImageIhLi1EESaIS1_EE4sizeEv = comdat any

$_ZN9__gnu_cxx14__alloc_traitsISaI9FlexImageIhLi1EEES2_E17_S_select_on_copyERKS3_ = comdat any

$_ZNKSt12_Vector_baseI9FlexImageIhLi1EESaIS1_EE19_M_get_Tp_allocatorEv = comdat any

$_ZSt22__uninitialized_copy_aIN9__gnu_cxx17__normal_iteratorIPK9FlexImageIhLi1EESt6vectorIS3_SaIS3_EEEEPS3_S3_ET0_T_SC_SB_RSaIT1_E = comdat any

$_ZNKSt6vectorI9FlexImageIhLi1EESaIS1_EE5beginEv = comdat any

$_ZNKSt6vectorI9FlexImageIhLi1EESaIS1_EE3endEv = comdat any

$_ZNSt16allocator_traitsISaI9FlexImageIhLi1EEEE37select_on_container_copy_constructionERKS2_ = comdat any

$_ZSt18uninitialized_copyIN9__gnu_cxx17__normal_iteratorIPK9FlexImageIhLi1EESt6vectorIS3_SaIS3_EEEEPS3_ET0_T_SC_SB_ = comdat any

$_ZNSt20__uninitialized_copyILb0EE13__uninit_copyIN9__gnu_cxx17__normal_iteratorIPK9FlexImageIhLi1EESt6vectorIS5_SaIS5_EEEEPS5_EET0_T_SE_SD_ = comdat any

$_ZN9__gnu_cxxneIPK9FlexImageIhLi1EESt6vectorIS2_SaIS2_EEEEbRKNS_17__normal_iteratorIT_T0_EESD_ = comdat any

$_ZSt10_ConstructI9FlexImageIhLi1EEJRKS1_EEvPT_DpOT0_ = comdat any

$_ZNK9__gnu_cxx17__normal_iteratorIPK9FlexImageIhLi1EESt6vectorIS2_SaIS2_EEEdeEv = comdat any

$_ZN9__gnu_cxx17__normal_iteratorIPK9FlexImageIhLi1EESt6vectorIS2_SaIS2_EEEppEv = comdat any

$_ZNK9__gnu_cxx17__normal_iteratorIPK9FlexImageIhLi1EESt6vectorIS2_SaIS2_EEE4baseEv = comdat any

$_ZN9__gnu_cxx17__normal_iteratorIPK9FlexImageIhLi1EESt6vectorIS2_SaIS2_EEEC2ERKS4_ = comdat any

$_ZNKSt5dequeISt6vectorI9FlexImageIhLi1EESaIS2_EESaIS4_EE8max_sizeEv = comdat any

$_ZNSt5dequeISt6vectorI9FlexImageIhLi1EESaIS2_EESaIS4_EE22_M_reserve_map_at_backEm = comdat any

$_ZNSt11_Deque_baseISt6vectorI9FlexImageIhLi1EESaIS2_EESaIS4_EE16_M_allocate_nodeEv = comdat any

$_ZNSt15_Deque_iteratorISt6vectorI9FlexImageIhLi1EESaIS2_EERS4_PS4_E11_M_set_nodeEPS6_ = comdat any

$_ZNSt5dequeISt6vectorI9FlexImageIhLi1EESaIS2_EESaIS4_EE11_S_max_sizeERKS5_ = comdat any

$_ZNSt16allocator_traitsISaISt6vectorI9FlexImageIhLi1EESaIS2_EEEE8max_sizeERKS5_ = comdat any

$_ZNK9__gnu_cxx13new_allocatorISt6vectorI9FlexImageIhLi1EESaIS3_EEE8max_sizeEv = comdat any

$_ZNK9__gnu_cxx13new_allocatorISt6vectorI9FlexImageIhLi1EESaIS3_EEE11_M_max_sizeEv = comdat any

$_ZNSt5dequeISt6vectorI9FlexImageIhLi1EESaIS2_EESaIS4_EE17_M_reallocate_mapEmb = comdat any

$_ZSt4copyIPPSt6vectorI9FlexImageIhLi1EESaIS2_EES6_ET0_T_S8_S7_ = comdat any

$_ZSt13copy_backwardIPPSt6vectorI9FlexImageIhLi1EESaIS2_EES6_ET0_T_S8_S7_ = comdat any

$_ZSt3maxImERKT_S2_S2_ = comdat any

$_ZNSt11_Deque_baseISt6vectorI9FlexImageIhLi1EESaIS2_EESaIS4_EE15_M_allocate_mapEm = comdat any

$_ZSt13__copy_move_aILb0EPPSt6vectorI9FlexImageIhLi1EESaIS2_EES6_ET1_T0_S8_S7_ = comdat any

$_ZSt12__miter_baseIPPSt6vectorI9FlexImageIhLi1EESaIS2_EEET_S7_ = comdat any

$_ZSt12__niter_wrapIPPSt6vectorI9FlexImageIhLi1EESaIS2_EEET_RKS7_S7_ = comdat any

$_ZSt14__copy_move_a1ILb0EPPSt6vectorI9FlexImageIhLi1EESaIS2_EES6_ET1_T0_S8_S7_ = comdat any

$_ZSt12__niter_baseIPPSt6vectorI9FlexImageIhLi1EESaIS2_EEET_S7_ = comdat any

$_ZSt14__copy_move_a2ILb0EPPSt6vectorI9FlexImageIhLi1EESaIS2_EES6_ET1_T0_S8_S7_ = comdat any

$_ZNSt11__copy_moveILb0ELb1ESt26random_access_iterator_tagE8__copy_mIPSt6vectorI9FlexImageIhLi1EESaIS5_EEEEPT_PKS9_SC_SA_ = comdat any

$_ZSt22__copy_move_backward_aILb0EPPSt6vectorI9FlexImageIhLi1EESaIS2_EES6_ET1_T0_S8_S7_ = comdat any

$_ZSt23__copy_move_backward_a1ILb0EPPSt6vectorI9FlexImageIhLi1EESaIS2_EES6_ET1_T0_S8_S7_ = comdat any

$_ZSt23__copy_move_backward_a2ILb0EPPSt6vectorI9FlexImageIhLi1EESaIS2_EES6_ET1_T0_S8_S7_ = comdat any

$_ZNSt20__copy_move_backwardILb0ELb1ESt26random_access_iterator_tagE13__copy_move_bIPSt6vectorI9FlexImageIhLi1EESaIS5_EEEEPT_PKS9_SC_SA_ = comdat any

$_ZNSt16allocator_traitsISaIPSt6vectorI9FlexImageIhLi1EESaIS2_EEEE8allocateERS6_m = comdat any

$_ZN9__gnu_cxx13new_allocatorIPSt6vectorI9FlexImageIhLi1EESaIS3_EEE8allocateEmPKv = comdat any

$_ZNK9__gnu_cxx13new_allocatorIPSt6vectorI9FlexImageIhLi1EESaIS3_EEE11_M_max_sizeEv = comdat any

$_ZNSt16allocator_traitsISaISt6vectorI9FlexImageIhLi1EESaIS2_EEEE8allocateERS5_m = comdat any

$_ZN9__gnu_cxx13new_allocatorISt6vectorI9FlexImageIhLi1EESaIS3_EEE8allocateEmPKv = comdat any

$_ZNSt15_Deque_iteratorISt6vectorI9FlexImageIhLi1EESaIS2_EERS4_PS4_E14_S_buffer_sizeEv = comdat any

$_ZNSt16allocator_traitsISaISt6vectorI11BinaryImageSaIS1_EEEE9constructIS3_JRKS3_EEEvRS4_PT_DpOT0_ = comdat any

$_ZNSt5dequeISt6vectorI11BinaryImageSaIS1_EESaIS3_EE16_M_push_back_auxIJRKS3_EEEvDpOT_ = comdat any

$_ZN9__gnu_cxx13new_allocatorISt6vectorI11BinaryImageSaIS2_EEE9constructIS4_JRKS4_EEEvPT_DpOT0_ = comdat any

$_ZNSt6vectorI11BinaryImageSaIS0_EEC2ERKS2_ = comdat any

$_ZNKSt6vectorI11BinaryImageSaIS0_EE4sizeEv = comdat any

$_ZN9__gnu_cxx14__alloc_traitsISaI11BinaryImageES1_E17_S_select_on_copyERKS2_ = comdat any

$_ZNKSt12_Vector_baseI11BinaryImageSaIS0_EE19_M_get_Tp_allocatorEv = comdat any

$_ZSt22__uninitialized_copy_aIN9__gnu_cxx17__normal_iteratorIPK11BinaryImageSt6vectorIS2_SaIS2_EEEEPS2_S2_ET0_T_SB_SA_RSaIT1_E = comdat any

$_ZNKSt6vectorI11BinaryImageSaIS0_EE5beginEv = comdat any

$_ZNKSt6vectorI11BinaryImageSaIS0_EE3endEv = comdat any

$_ZNSt16allocator_traitsISaI11BinaryImageEE37select_on_container_copy_constructionERKS1_ = comdat any

$_ZSt18uninitialized_copyIN9__gnu_cxx17__normal_iteratorIPK11BinaryImageSt6vectorIS2_SaIS2_EEEEPS2_ET0_T_SB_SA_ = comdat any

$_ZNSt20__uninitialized_copyILb0EE13__uninit_copyIN9__gnu_cxx17__normal_iteratorIPK11BinaryImageSt6vectorIS4_SaIS4_EEEEPS4_EET0_T_SD_SC_ = comdat any

$_ZN9__gnu_cxxneIPK11BinaryImageSt6vectorIS1_SaIS1_EEEEbRKNS_17__normal_iteratorIT_T0_EESC_ = comdat any

$_ZSt10_ConstructI11BinaryImageJRKS0_EEvPT_DpOT0_ = comdat any

$_ZNK9__gnu_cxx17__normal_iteratorIPK11BinaryImageSt6vectorIS1_SaIS1_EEEdeEv = comdat any

$_ZN9__gnu_cxx17__normal_iteratorIPK11BinaryImageSt6vectorIS1_SaIS1_EEEppEv = comdat any

$_ZNK9__gnu_cxx17__normal_iteratorIPK11BinaryImageSt6vectorIS1_SaIS1_EEE4baseEv = comdat any

$_ZN11BinaryImageC2ERKS_ = comdat any

$_ZN11BinaryImageaSERKS_ = comdat any

$_ZNK11BinaryImage5WidthEv = comdat any

$_ZNK11BinaryImage6HeightEv = comdat any

$_ZNK11BinaryImage10ImageStoreEv = comdat any

$_ZN14FlexImageStoreIhLi1EE13IncReferencesEv = comdat any

$_ZN9__gnu_cxx17__normal_iteratorIPK11BinaryImageSt6vectorIS1_SaIS1_EEEC2ERKS3_ = comdat any

$_ZNKSt5dequeISt6vectorI11BinaryImageSaIS1_EESaIS3_EE4sizeEv = comdat any

$_ZNKSt5dequeISt6vectorI11BinaryImageSaIS1_EESaIS3_EE8max_sizeEv = comdat any

$_ZNSt5dequeISt6vectorI11BinaryImageSaIS1_EESaIS3_EE22_M_reserve_map_at_backEm = comdat any

$_ZNSt11_Deque_baseISt6vectorI11BinaryImageSaIS1_EESaIS3_EE16_M_allocate_nodeEv = comdat any

$_ZNSt15_Deque_iteratorISt6vectorI11BinaryImageSaIS1_EERS3_PS3_E11_M_set_nodeEPS5_ = comdat any

$_ZStmiRKSt15_Deque_iteratorISt6vectorI11BinaryImageSaIS1_EERS3_PS3_ES8_ = comdat any

$_ZNSt15_Deque_iteratorISt6vectorI11BinaryImageSaIS1_EERS3_PS3_E14_S_buffer_sizeEv = comdat any

$_ZNSt5dequeISt6vectorI11BinaryImageSaIS1_EESaIS3_EE11_S_max_sizeERKS4_ = comdat any

$_ZNSt16allocator_traitsISaISt6vectorI11BinaryImageSaIS1_EEEE8max_sizeERKS4_ = comdat any

$_ZNK9__gnu_cxx13new_allocatorISt6vectorI11BinaryImageSaIS2_EEE8max_sizeEv = comdat any

$_ZNK9__gnu_cxx13new_allocatorISt6vectorI11BinaryImageSaIS2_EEE11_M_max_sizeEv = comdat any

$_ZNSt5dequeISt6vectorI11BinaryImageSaIS1_EESaIS3_EE17_M_reallocate_mapEmb = comdat any

$_ZSt4copyIPPSt6vectorI11BinaryImageSaIS1_EES5_ET0_T_S7_S6_ = comdat any

$_ZSt13copy_backwardIPPSt6vectorI11BinaryImageSaIS1_EES5_ET0_T_S7_S6_ = comdat any

$_ZNSt11_Deque_baseISt6vectorI11BinaryImageSaIS1_EESaIS3_EE15_M_allocate_mapEm = comdat any

$_ZSt13__copy_move_aILb0EPPSt6vectorI11BinaryImageSaIS1_EES5_ET1_T0_S7_S6_ = comdat any

$_ZSt12__miter_baseIPPSt6vectorI11BinaryImageSaIS1_EEET_S6_ = comdat any

$_ZSt12__niter_wrapIPPSt6vectorI11BinaryImageSaIS1_EEET_RKS6_S6_ = comdat any

$_ZSt14__copy_move_a1ILb0EPPSt6vectorI11BinaryImageSaIS1_EES5_ET1_T0_S7_S6_ = comdat any

$_ZSt12__niter_baseIPPSt6vectorI11BinaryImageSaIS1_EEET_S6_ = comdat any

$_ZSt14__copy_move_a2ILb0EPPSt6vectorI11BinaryImageSaIS1_EES5_ET1_T0_S7_S6_ = comdat any

$_ZNSt11__copy_moveILb0ELb1ESt26random_access_iterator_tagE8__copy_mIPSt6vectorI11BinaryImageSaIS4_EEEEPT_PKS8_SB_S9_ = comdat any

$_ZSt22__copy_move_backward_aILb0EPPSt6vectorI11BinaryImageSaIS1_EES5_ET1_T0_S7_S6_ = comdat any

$_ZSt23__copy_move_backward_a1ILb0EPPSt6vectorI11BinaryImageSaIS1_EES5_ET1_T0_S7_S6_ = comdat any

$_ZSt23__copy_move_backward_a2ILb0EPPSt6vectorI11BinaryImageSaIS1_EES5_ET1_T0_S7_S6_ = comdat any

$_ZNSt20__copy_move_backwardILb0ELb1ESt26random_access_iterator_tagE13__copy_move_bIPSt6vectorI11BinaryImageSaIS4_EEEEPT_PKS8_SB_S9_ = comdat any

$_ZNSt16allocator_traitsISaIPSt6vectorI11BinaryImageSaIS1_EEEE8allocateERS5_m = comdat any

$_ZN9__gnu_cxx13new_allocatorIPSt6vectorI11BinaryImageSaIS2_EEE8allocateEmPKv = comdat any

$_ZNK9__gnu_cxx13new_allocatorIPSt6vectorI11BinaryImageSaIS2_EEE11_M_max_sizeEv = comdat any

$_ZNSt16allocator_traitsISaISt6vectorI11BinaryImageSaIS1_EEEE8allocateERS4_m = comdat any

$_ZN9__gnu_cxx13new_allocatorISt6vectorI11BinaryImageSaIS2_EEE8allocateEmPKv = comdat any

$_ZStmiRKSt15_Deque_iteratorISt6vectorI9FlexImageIhLi1EESaIS2_EERS4_PS4_ES9_ = comdat any

$_ZNKSt15_Deque_iteratorISt6vectorI9FlexImageIhLi1EESaIS2_EERS4_PS4_EixEl = comdat any

$_ZStplRKSt15_Deque_iteratorISt6vectorI9FlexImageIhLi1EESaIS2_EERS4_PS4_El = comdat any

$_ZNKSt15_Deque_iteratorISt6vectorI9FlexImageIhLi1EESaIS2_EERS4_PS4_EdeEv = comdat any

$_ZNSt15_Deque_iteratorISt6vectorI9FlexImageIhLi1EESaIS2_EERS4_PS4_EpLEl = comdat any

$_ZNKSt6vectorI9FlexImageIhLi1EESaIS1_EE8capacityEv = comdat any

$_ZNSt6vectorI9FlexImageIhLi1EESaIS1_EE20_M_allocate_and_copyIN9__gnu_cxx17__normal_iteratorIPKS1_S3_EEEEPS1_mT_SB_ = comdat any

$_ZSt8_DestroyIN9__gnu_cxx17__normal_iteratorIP9FlexImageIhLi1EESt6vectorIS3_SaIS3_EEEES3_EvT_S9_RSaIT0_E = comdat any

$_ZSt4copyIN9__gnu_cxx17__normal_iteratorIPK9FlexImageIhLi1EESt6vectorIS3_SaIS3_EEEENS1_IPS3_S8_EEET0_T_SD_SC_ = comdat any

$_ZNSt6vectorI9FlexImageIhLi1EESaIS1_EE5beginEv = comdat any

$_ZNSt6vectorI9FlexImageIhLi1EESaIS1_EE3endEv = comdat any

$_ZSt4copyIP9FlexImageIhLi1EES2_ET0_T_S4_S3_ = comdat any

$_ZSt22__uninitialized_copy_aIP9FlexImageIhLi1EES2_S1_ET0_T_S4_S3_RSaIT1_E = comdat any

$_ZSt8_DestroyIN9__gnu_cxx17__normal_iteratorIP9FlexImageIhLi1EESt6vectorIS3_SaIS3_EEEEEvT_S9_ = comdat any

$_ZNSt12_Destroy_auxILb0EE9__destroyIN9__gnu_cxx17__normal_iteratorIP9FlexImageIhLi1EESt6vectorIS5_SaIS5_EEEEEEvT_SB_ = comdat any

$_ZN9__gnu_cxxneIP9FlexImageIhLi1EESt6vectorIS2_SaIS2_EEEEbRKNS_17__normal_iteratorIT_T0_EESC_ = comdat any

$_ZNK9__gnu_cxx17__normal_iteratorIP9FlexImageIhLi1EESt6vectorIS2_SaIS2_EEEdeEv = comdat any

$_ZN9__gnu_cxx17__normal_iteratorIP9FlexImageIhLi1EESt6vectorIS2_SaIS2_EEEppEv = comdat any

$_ZNK9__gnu_cxx17__normal_iteratorIP9FlexImageIhLi1EESt6vectorIS2_SaIS2_EEE4baseEv = comdat any

$_ZSt13__copy_move_aILb0EN9__gnu_cxx17__normal_iteratorIPK9FlexImageIhLi1EESt6vectorIS3_SaIS3_EEEENS1_IPS3_S8_EEET1_T0_SD_SC_ = comdat any

$_ZSt12__miter_baseIN9__gnu_cxx17__normal_iteratorIPK9FlexImageIhLi1EESt6vectorIS3_SaIS3_EEEEET_SA_ = comdat any

$_ZSt12__niter_wrapIN9__gnu_cxx17__normal_iteratorIP9FlexImageIhLi1EESt6vectorIS3_SaIS3_EEEES4_ET_S9_T0_ = comdat any

$_ZSt14__copy_move_a1ILb0EPK9FlexImageIhLi1EEPS1_ET1_T0_S6_S5_ = comdat any

$_ZSt12__niter_baseIPK9FlexImageIhLi1EESt6vectorIS1_SaIS1_EEET_N9__gnu_cxx17__normal_iteratorIS7_T0_EE = comdat any

$_ZSt12__niter_baseIP9FlexImageIhLi1EESt6vectorIS1_SaIS1_EEET_N9__gnu_cxx17__normal_iteratorIS6_T0_EE = comdat any

$_ZNK9__gnu_cxx17__normal_iteratorIP9FlexImageIhLi1EESt6vectorIS2_SaIS2_EEEplEl = comdat any

$_ZN9__gnu_cxx17__normal_iteratorIP9FlexImageIhLi1EESt6vectorIS2_SaIS2_EEEC2ERKS3_ = comdat any

$_ZSt14__copy_move_a2ILb0EPK9FlexImageIhLi1EEPS1_ET1_T0_S6_S5_ = comdat any

$_ZNSt11__copy_moveILb0ELb0ESt26random_access_iterator_tagE8__copy_mIPK9FlexImageIhLi1EEPS4_EET0_T_S9_S8_ = comdat any

$_ZSt13__copy_move_aILb0EP9FlexImageIhLi1EES2_ET1_T0_S4_S3_ = comdat any

$_ZSt12__miter_baseIP9FlexImageIhLi1EEET_S3_ = comdat any

$_ZSt12__niter_wrapIP9FlexImageIhLi1EEET_RKS3_S3_ = comdat any

$_ZSt14__copy_move_a1ILb0EP9FlexImageIhLi1EES2_ET1_T0_S4_S3_ = comdat any

$_ZSt12__niter_baseIP9FlexImageIhLi1EEET_S3_ = comdat any

$_ZSt14__copy_move_a2ILb0EP9FlexImageIhLi1EES2_ET1_T0_S4_S3_ = comdat any

$_ZNSt11__copy_moveILb0ELb0ESt26random_access_iterator_tagE8__copy_mIP9FlexImageIhLi1EES5_EET0_T_S7_S6_ = comdat any

$_ZSt18uninitialized_copyIP9FlexImageIhLi1EES2_ET0_T_S4_S3_ = comdat any

$_ZNSt20__uninitialized_copyILb0EE13__uninit_copyIP9FlexImageIhLi1EES4_EET0_T_S6_S5_ = comdat any

$_ZSt10_ConstructI9FlexImageIhLi1EEJRS1_EEvPT_DpOT0_ = comdat any

$_ZNSt16allocator_traitsISaISt6vectorI9FlexImageIhLi1EESaIS2_EEEE7destroyIS4_EEvRS5_PT_ = comdat any

$_ZNSt5dequeISt6vectorI9FlexImageIhLi1EESaIS2_EESaIS4_EE16_M_pop_front_auxEv = comdat any

$_ZN9__gnu_cxx13new_allocatorISt6vectorI9FlexImageIhLi1EESaIS3_EEE7destroyIS5_EEvPT_ = comdat any

$_ZNKSt15_Deque_iteratorISt6vectorI11BinaryImageSaIS1_EERS3_PS3_EixEl = comdat any

$_ZStplRKSt15_Deque_iteratorISt6vectorI11BinaryImageSaIS1_EERS3_PS3_El = comdat any

$_ZNKSt15_Deque_iteratorISt6vectorI11BinaryImageSaIS1_EERS3_PS3_EdeEv = comdat any

$_ZNSt15_Deque_iteratorISt6vectorI11BinaryImageSaIS1_EERS3_PS3_EpLEl = comdat any

$_ZNKSt6vectorI11BinaryImageSaIS0_EE8capacityEv = comdat any

$_ZNSt6vectorI11BinaryImageSaIS0_EE20_M_allocate_and_copyIN9__gnu_cxx17__normal_iteratorIPKS0_S2_EEEEPS0_mT_SA_ = comdat any

$_ZSt8_DestroyIN9__gnu_cxx17__normal_iteratorIP11BinaryImageSt6vectorIS2_SaIS2_EEEES2_EvT_S8_RSaIT0_E = comdat any

$_ZSt4copyIN9__gnu_cxx17__normal_iteratorIPK11BinaryImageSt6vectorIS2_SaIS2_EEEENS1_IPS2_S7_EEET0_T_SC_SB_ = comdat any

$_ZNSt6vectorI11BinaryImageSaIS0_EE5beginEv = comdat any

$_ZNSt6vectorI11BinaryImageSaIS0_EE3endEv = comdat any

$_ZSt4copyIP11BinaryImageS1_ET0_T_S3_S2_ = comdat any

$_ZSt22__uninitialized_copy_aIP11BinaryImageS1_S0_ET0_T_S3_S2_RSaIT1_E = comdat any

$_ZSt8_DestroyIN9__gnu_cxx17__normal_iteratorIP11BinaryImageSt6vectorIS2_SaIS2_EEEEEvT_S8_ = comdat any

$_ZNSt12_Destroy_auxILb0EE9__destroyIN9__gnu_cxx17__normal_iteratorIP11BinaryImageSt6vectorIS4_SaIS4_EEEEEEvT_SA_ = comdat any

$_ZN9__gnu_cxxneIP11BinaryImageSt6vectorIS1_SaIS1_EEEEbRKNS_17__normal_iteratorIT_T0_EESB_ = comdat any

$_ZNK9__gnu_cxx17__normal_iteratorIP11BinaryImageSt6vectorIS1_SaIS1_EEEdeEv = comdat any

$_ZN9__gnu_cxx17__normal_iteratorIP11BinaryImageSt6vectorIS1_SaIS1_EEEppEv = comdat any

$_ZNK9__gnu_cxx17__normal_iteratorIP11BinaryImageSt6vectorIS1_SaIS1_EEE4baseEv = comdat any

$_ZSt13__copy_move_aILb0EN9__gnu_cxx17__normal_iteratorIPK11BinaryImageSt6vectorIS2_SaIS2_EEEENS1_IPS2_S7_EEET1_T0_SC_SB_ = comdat any

$_ZSt12__miter_baseIN9__gnu_cxx17__normal_iteratorIPK11BinaryImageSt6vectorIS2_SaIS2_EEEEET_S9_ = comdat any

$_ZSt12__niter_wrapIN9__gnu_cxx17__normal_iteratorIP11BinaryImageSt6vectorIS2_SaIS2_EEEES3_ET_S8_T0_ = comdat any

$_ZSt14__copy_move_a1ILb0EPK11BinaryImagePS0_ET1_T0_S5_S4_ = comdat any

$_ZSt12__niter_baseIPK11BinaryImageSt6vectorIS0_SaIS0_EEET_N9__gnu_cxx17__normal_iteratorIS6_T0_EE = comdat any

$_ZSt12__niter_baseIP11BinaryImageSt6vectorIS0_SaIS0_EEET_N9__gnu_cxx17__normal_iteratorIS5_T0_EE = comdat any

$_ZNK9__gnu_cxx17__normal_iteratorIP11BinaryImageSt6vectorIS1_SaIS1_EEEplEl = comdat any

$_ZN9__gnu_cxx17__normal_iteratorIP11BinaryImageSt6vectorIS1_SaIS1_EEEC2ERKS2_ = comdat any

$_ZSt14__copy_move_a2ILb0EPK11BinaryImagePS0_ET1_T0_S5_S4_ = comdat any

$_ZNSt11__copy_moveILb0ELb0ESt26random_access_iterator_tagE8__copy_mIPK11BinaryImagePS3_EET0_T_S8_S7_ = comdat any

$_ZSt13__copy_move_aILb0EP11BinaryImageS1_ET1_T0_S3_S2_ = comdat any

$_ZSt12__miter_baseIP11BinaryImageET_S2_ = comdat any

$_ZSt12__niter_wrapIP11BinaryImageET_RKS2_S2_ = comdat any

$_ZSt14__copy_move_a1ILb0EP11BinaryImageS1_ET1_T0_S3_S2_ = comdat any

$_ZSt12__niter_baseIP11BinaryImageET_S2_ = comdat any

$_ZSt14__copy_move_a2ILb0EP11BinaryImageS1_ET1_T0_S3_S2_ = comdat any

$_ZNSt11__copy_moveILb0ELb0ESt26random_access_iterator_tagE8__copy_mIP11BinaryImageS4_EET0_T_S6_S5_ = comdat any

$_ZSt18uninitialized_copyIP11BinaryImageS1_ET0_T_S3_S2_ = comdat any

$_ZNSt20__uninitialized_copyILb0EE13__uninit_copyIP11BinaryImageS3_EET0_T_S5_S4_ = comdat any

$_ZSt10_ConstructI11BinaryImageJRS0_EEvPT_DpOT0_ = comdat any

$_ZNSt16allocator_traitsISaISt6vectorI11BinaryImageSaIS1_EEEE7destroyIS3_EEvRS4_PT_ = comdat any

$_ZNSt5dequeISt6vectorI11BinaryImageSaIS1_EESaIS3_EE16_M_pop_front_auxEv = comdat any

$_ZN9__gnu_cxx13new_allocatorISt6vectorI11BinaryImageSaIS2_EEE7destroyIS4_EEvPT_ = comdat any

$_ZTSN7threads8RunnableE = comdat any

$_ZTIN7threads8RunnableE = comdat any

@_ZStL8__ioinit = internal global %"class.std::ios_base::Init" zeroinitializer, align 1, !dbg !0
@__dso_handle = external hidden global i8
@_ZSt4cout = external global %"class.std::basic_ostream", align 8
@.str = private unnamed_addr constant [23 x i8] c"Unable to load image: \00", align 1, !dbg !7
@.str.1 = private unnamed_addr constant [3 x i8] c"FG\00", align 1, !dbg !15
@.str.2 = private unnamed_addr constant [2 x i8] c"/\00", align 1, !dbg !20
@.str.3 = private unnamed_addr constant [6 x i8] c"image\00", align 1, !dbg !25
@.str.4 = private unnamed_addr constant [5 x i8] c".bmp\00", align 1, !dbg !30
@.str.5 = private unnamed_addr constant [4 x i8] c"CAM\00", align 1, !dbg !35
@_ZTV16AsyncImageLoader = dso_local unnamed_addr constant { [5 x ptr] } { [5 x ptr] [ptr null, ptr @_ZTI16AsyncImageLoader, ptr @_ZN16AsyncImageLoaderD2Ev, ptr @_ZN16AsyncImageLoaderD0Ev, ptr @_ZN16AsyncImageLoader3RunEv] }, align 8
@_ZTVN10__cxxabiv120__si_class_type_infoE = external global ptr
@_ZTS16AsyncImageLoader = dso_local constant [19 x i8] c"16AsyncImageLoader\00", align 1
@_ZTVN10__cxxabiv117__class_type_infoE = external global ptr
@_ZTSN7threads8RunnableE = linkonce_odr dso_local constant [20 x i8] c"N7threads8RunnableE\00", comdat, align 1
@_ZTIN7threads8RunnableE = linkonce_odr dso_local constant { ptr, ptr } { ptr getelementptr inbounds (ptr, ptr @_ZTVN10__cxxabiv117__class_type_infoE, i64 2), ptr @_ZTSN7threads8RunnableE }, comdat, align 8
@_ZTI16AsyncImageLoader = dso_local constant { ptr, ptr, ptr } { ptr getelementptr inbounds (ptr, ptr @_ZTVN10__cxxabiv120__si_class_type_infoE, i64 2), ptr @_ZTS16AsyncImageLoader, ptr @_ZTIN7threads8RunnableE }, align 8
@.str.6 = private unnamed_addr constant [33 x i8] c"Unable to allocate binary image.\00", align 1, !dbg !40
@.str.7 = private unnamed_addr constant [49 x i8] c"cannot create std::vector larger than max_size()\00", align 1, !dbg !46
@.str.8 = private unnamed_addr constant [48 x i8] c"cannot create std::deque larger than max_size()\00", align 1, !dbg !52
@llvm.global_ctors = appending global [1 x { i32, ptr, ptr }] [{ i32, ptr, ptr } { i32 65535, ptr @_GLOBAL__sub_I_AsyncIO.cpp, ptr null }]

; Function Attrs: noinline uwtable
define internal void @__cxx_global_var_init() #0 section ".text.startup" !dbg !3115 {
  call void @_ZNSt8ios_base4InitC1Ev(ptr noundef nonnull align 1 dereferenceable(1) @_ZStL8__ioinit), !dbg !3116
  %1 = call i32 @__cxa_atexit(ptr @_ZNSt8ios_base4InitD1Ev, ptr @_ZStL8__ioinit, ptr @__dso_handle) #3, !dbg !3118
  ret void, !dbg !3116
}

declare void @_ZNSt8ios_base4InitC1Ev(ptr noundef nonnull align 1 dereferenceable(1)) unnamed_addr #1

; Function Attrs: nounwind
declare void @_ZNSt8ios_base4InitD1Ev(ptr noundef nonnull align 1 dereferenceable(1)) unnamed_addr #2

; Function Attrs: nounwind
declare i32 @__cxa_atexit(ptr, ptr, ptr) #3

; Function Attrs: mustprogress noinline optnone uwtable
define dso_local void @_ZN16AsyncImageLoader7LoadSetERSt6vectorINSt7__cxx1112basic_stringIcSt11char_traitsIcESaIcEEESaIS6_EERS0_I11BinaryImageSaISA_EES9_RS0_I9FlexImageIhLi1EESaISF_EE(ptr noundef nonnull align 8 dereferenceable(492) %0, ptr noundef nonnull align 8 dereferenceable(24) %1, ptr noundef nonnull align 8 dereferenceable(24) %2, ptr noundef nonnull align 8 dereferenceable(24) %3, ptr noundef nonnull align 8 dereferenceable(24) %4) #4 align 2 personality ptr @__gxx_personality_v0 !dbg !3119 {
  %6 = alloca ptr, align 8
  %7 = alloca ptr, align 8
  %8 = alloca ptr, align 8
  %9 = alloca ptr, align 8
  %10 = alloca ptr, align 8
  %11 = alloca %class.FlexImage, align 8
  %12 = alloca i32, align 4
  %13 = alloca ptr, align 8
  %14 = alloca i32, align 4
  store ptr %0, ptr %6, align 8
  call void @llvm.dbg.declare(metadata ptr %6, metadata !3173, metadata !DIExpression()), !dbg !3175
  store ptr %1, ptr %7, align 8
  call void @llvm.dbg.declare(metadata ptr %7, metadata !3176, metadata !DIExpression()), !dbg !3177
  store ptr %2, ptr %8, align 8
  call void @llvm.dbg.declare(metadata ptr %8, metadata !3178, metadata !DIExpression()), !dbg !3179
  store ptr %3, ptr %9, align 8
  call void @llvm.dbg.declare(metadata ptr %9, metadata !3180, metadata !DIExpression()), !dbg !3181
  store ptr %4, ptr %10, align 8
  call void @llvm.dbg.declare(metadata ptr %10, metadata !3182, metadata !DIExpression()), !dbg !3183
  %15 = load ptr, ptr %6, align 8
  call void @llvm.dbg.declare(metadata ptr %11, metadata !3184, metadata !DIExpression()), !dbg !3185
  call void @_ZN9FlexImageIhLi1EEC1Ev(ptr noundef nonnull align 8 dereferenceable(36) %11), !dbg !3185
  call void @llvm.dbg.declare(metadata ptr %12, metadata !3186, metadata !DIExpression()), !dbg !3188
  store i32 0, ptr %12, align 4, !dbg !3188
  br label %16, !dbg !3189

16:                                               ; preds = %78, %5
  %17 = load i32, ptr %12, align 4, !dbg !3190
  %18 = zext i32 %17 to i64, !dbg !3190
  %19 = load ptr, ptr %7, align 8, !dbg !3192
  %20 = call noundef i64 @_ZNKSt6vectorINSt7__cxx1112basic_stringIcSt11char_traitsIcESaIcEEESaIS5_EE4sizeEv(ptr noundef nonnull align 8 dereferenceable(24) %19) #3, !dbg !3193
  %21 = icmp ult i64 %18, %20, !dbg !3194
  br i1 %21, label %22, label %81, !dbg !3195

22:                                               ; preds = %16
  %23 = load ptr, ptr %7, align 8, !dbg !3196
  %24 = load i32, ptr %12, align 4, !dbg !3199
  %25 = zext i32 %24 to i64, !dbg !3199
  %26 = call noundef nonnull align 8 dereferenceable(32) ptr @_ZNSt6vectorINSt7__cxx1112basic_stringIcSt11char_traitsIcESaIcEEESaIS5_EEixEm(ptr noundef nonnull align 8 dereferenceable(24) %23, i64 noundef %25) #3, !dbg !3196
  %27 = call noundef ptr @_ZNKSt7__cxx1112basic_stringIcSt11char_traitsIcESaIcEE5c_strEv(ptr noundef nonnull align 8 dereferenceable(32) %26) #3, !dbg !3200
  %28 = invoke noundef zeroext i1 @_Z11FlexLoadBMPIhLi1EEbPKcR9FlexImageIT_XT0_EE(ptr noundef %27, ptr noundef nonnull align 8 dereferenceable(36) %11)
          to label %29 unwind label %43, !dbg !3201

29:                                               ; preds = %22
  br i1 %28, label %47, label %30, !dbg !3202

30:                                               ; preds = %29
  %31 = invoke noundef nonnull align 8 dereferenceable(8) ptr @_ZStlsISt11char_traitsIcEERSt13basic_ostreamIcT_ES5_PKc(ptr noundef nonnull align 8 dereferenceable(8) @_ZSt4cout, ptr noundef @.str)
          to label %32 unwind label %43, !dbg !3203

32:                                               ; preds = %30
  %33 = load ptr, ptr %7, align 8, !dbg !3205
  %34 = load i32, ptr %12, align 4, !dbg !3206
  %35 = zext i32 %34 to i64, !dbg !3206
  %36 = call noundef nonnull align 8 dereferenceable(32) ptr @_ZNSt6vectorINSt7__cxx1112basic_stringIcSt11char_traitsIcESaIcEEESaIS5_EEixEm(ptr noundef nonnull align 8 dereferenceable(24) %33, i64 noundef %35) #3, !dbg !3205
  %37 = call noundef ptr @_ZNKSt7__cxx1112basic_stringIcSt11char_traitsIcESaIcEE5c_strEv(ptr noundef nonnull align 8 dereferenceable(32) %36) #3, !dbg !3207
  %38 = invoke noundef nonnull align 8 dereferenceable(8) ptr @_ZStlsISt11char_traitsIcEERSt13basic_ostreamIcT_ES5_PKc(ptr noundef nonnull align 8 dereferenceable(8) %31, ptr noundef %37)
          to label %39 unwind label %43, !dbg !3208

39:                                               ; preds = %32
  %40 = invoke noundef nonnull align 8 dereferenceable(8) ptr @_ZNSolsEPFRSoS_E(ptr noundef nonnull align 8 dereferenceable(8) %38, ptr noundef @_ZSt4endlIcSt11char_traitsIcEERSt13basic_ostreamIT_T0_ES6_)
          to label %41 unwind label %43, !dbg !3209

41:                                               ; preds = %39
  %42 = getelementptr inbounds %class.AsyncImageLoader, ptr %15, i32 0, i32 11, !dbg !3210
  store i8 1, ptr %42, align 8, !dbg !3211
  br label %47, !dbg !3212

43:                                               ; preds = %73, %66, %64, %52, %47, %39, %32, %30, %22
  %44 = landingpad { ptr, i32 }
          cleanup, !dbg !3213
  %45 = extractvalue { ptr, i32 } %44, 0, !dbg !3213
  store ptr %45, ptr %13, align 8, !dbg !3213
  %46 = extractvalue { ptr, i32 } %44, 1, !dbg !3213
  store i32 %46, ptr %14, align 4, !dbg !3213
  call void @_ZN9FlexImageIhLi1EED1Ev(ptr noundef nonnull align 8 dereferenceable(36) %11) #3, !dbg !3214
  br label %82, !dbg !3214

47:                                               ; preds = %41, %29
  %48 = load ptr, ptr %8, align 8, !dbg !3215
  %49 = load i32, ptr %12, align 4, !dbg !3216
  %50 = zext i32 %49 to i64, !dbg !3216
  %51 = call noundef nonnull align 8 dereferenceable(24) ptr @_ZNSt6vectorI11BinaryImageSaIS0_EEixEm(ptr noundef nonnull align 8 dereferenceable(24) %48, i64 noundef %50) #3, !dbg !3215
  invoke void @_ZN11BinaryImage15ConvertToBinaryERK9FlexImageIhLi1EE(ptr noundef nonnull align 8 dereferenceable(24) %51, ptr noundef nonnull align 8 dereferenceable(36) %11)
          to label %52 unwind label %43, !dbg !3217

52:                                               ; preds = %47
  %53 = load ptr, ptr %9, align 8, !dbg !3218
  %54 = load i32, ptr %12, align 4, !dbg !3220
  %55 = zext i32 %54 to i64, !dbg !3220
  %56 = call noundef nonnull align 8 dereferenceable(32) ptr @_ZNSt6vectorINSt7__cxx1112basic_stringIcSt11char_traitsIcESaIcEEESaIS5_EEixEm(ptr noundef nonnull align 8 dereferenceable(24) %53, i64 noundef %55) #3, !dbg !3218
  %57 = call noundef ptr @_ZNKSt7__cxx1112basic_stringIcSt11char_traitsIcESaIcEE5c_strEv(ptr noundef nonnull align 8 dereferenceable(32) %56) #3, !dbg !3221
  %58 = load ptr, ptr %10, align 8, !dbg !3222
  %59 = load i32, ptr %12, align 4, !dbg !3223
  %60 = zext i32 %59 to i64, !dbg !3223
  %61 = call noundef nonnull align 8 dereferenceable(36) ptr @_ZNSt6vectorI9FlexImageIhLi1EESaIS1_EEixEm(ptr noundef nonnull align 8 dereferenceable(24) %58, i64 noundef %60) #3, !dbg !3222
  %62 = invoke noundef zeroext i1 @_Z11FlexLoadBMPIhLi1EEbPKcR9FlexImageIT_XT0_EE(ptr noundef %57, ptr noundef nonnull align 8 dereferenceable(36) %61)
          to label %63 unwind label %43, !dbg !3224

63:                                               ; preds = %52
  br i1 %62, label %77, label %64, !dbg !3225

64:                                               ; preds = %63
  %65 = invoke noundef nonnull align 8 dereferenceable(8) ptr @_ZStlsISt11char_traitsIcEERSt13basic_ostreamIcT_ES5_PKc(ptr noundef nonnull align 8 dereferenceable(8) @_ZSt4cout, ptr noundef @.str)
          to label %66 unwind label %43, !dbg !3226

66:                                               ; preds = %64
  %67 = load ptr, ptr %9, align 8, !dbg !3228
  %68 = load i32, ptr %12, align 4, !dbg !3229
  %69 = zext i32 %68 to i64, !dbg !3229
  %70 = call noundef nonnull align 8 dereferenceable(32) ptr @_ZNSt6vectorINSt7__cxx1112basic_stringIcSt11char_traitsIcESaIcEEESaIS5_EEixEm(ptr noundef nonnull align 8 dereferenceable(24) %67, i64 noundef %69) #3, !dbg !3228
  %71 = call noundef ptr @_ZNKSt7__cxx1112basic_stringIcSt11char_traitsIcESaIcEE5c_strEv(ptr noundef nonnull align 8 dereferenceable(32) %70) #3, !dbg !3230
  %72 = invoke noundef nonnull align 8 dereferenceable(8) ptr @_ZStlsISt11char_traitsIcEERSt13basic_ostreamIcT_ES5_PKc(ptr noundef nonnull align 8 dereferenceable(8) %65, ptr noundef %71)
          to label %73 unwind label %43, !dbg !3231

73:                                               ; preds = %66
  %74 = invoke noundef nonnull align 8 dereferenceable(8) ptr @_ZNSolsEPFRSoS_E(ptr noundef nonnull align 8 dereferenceable(8) %72, ptr noundef @_ZSt4endlIcSt11char_traitsIcEERSt13basic_ostreamIT_T0_ES6_)
          to label %75 unwind label %43, !dbg !3232

75:                                               ; preds = %73
  %76 = getelementptr inbounds %class.AsyncImageLoader, ptr %15, i32 0, i32 11, !dbg !3233
  store i8 1, ptr %76, align 8, !dbg !3234
  br label %77, !dbg !3235

77:                                               ; preds = %75, %63
  br label %78, !dbg !3236

78:                                               ; preds = %77
  %79 = load i32, ptr %12, align 4, !dbg !3237
  %80 = add i32 %79, 1, !dbg !3237
  store i32 %80, ptr %12, align 4, !dbg !3237
  br label %16, !dbg !3238, !llvm.loop !3239

81:                                               ; preds = %16
  call void @_ZN9FlexImageIhLi1EED1Ev(ptr noundef nonnull align 8 dereferenceable(36) %11) #3, !dbg !3214
  ret void, !dbg !3214

82:                                               ; preds = %43
  %83 = load ptr, ptr %13, align 8, !dbg !3214
  %84 = load i32, ptr %14, align 4, !dbg !3214
  %85 = insertvalue { ptr, i32 } poison, ptr %83, 0, !dbg !3214
  %86 = insertvalue { ptr, i32 } %85, i32 %84, 1, !dbg !3214
  resume { ptr, i32 } %86, !dbg !3214
}

; Function Attrs: nocallback nofree nosync nounwind speculatable willreturn memory(none)
declare void @llvm.dbg.declare(metadata, metadata, metadata) #5

declare void @_ZN9FlexImageIhLi1EEC1Ev(ptr noundef nonnull align 8 dereferenceable(36)) unnamed_addr #1

; Function Attrs: mustprogress noinline nounwind optnone uwtable
define linkonce_odr dso_local noundef i64 @_ZNKSt6vectorINSt7__cxx1112basic_stringIcSt11char_traitsIcESaIcEEESaIS5_EE4sizeEv(ptr noundef nonnull align 8 dereferenceable(24) %0) #6 comdat align 2 !dbg !3242 {
  %2 = alloca ptr, align 8
  store ptr %0, ptr %2, align 8
  call void @llvm.dbg.declare(metadata ptr %2, metadata !3243, metadata !DIExpression()), !dbg !3245
  %3 = load ptr, ptr %2, align 8
  %4 = getelementptr inbounds %"struct.std::_Vector_base.18", ptr %3, i32 0, i32 0, !dbg !3246
  %5 = getelementptr inbounds %"struct.std::_Vector_base<std::__cxx11::basic_string<char>, std::allocator<std::__cxx11::basic_string<char>>>::_Vector_impl_data", ptr %4, i32 0, i32 1, !dbg !3247
  %6 = load ptr, ptr %5, align 8, !dbg !3247
  %7 = getelementptr inbounds %"struct.std::_Vector_base.18", ptr %3, i32 0, i32 0, !dbg !3248
  %8 = getelementptr inbounds %"struct.std::_Vector_base<std::__cxx11::basic_string<char>, std::allocator<std::__cxx11::basic_string<char>>>::_Vector_impl_data", ptr %7, i32 0, i32 0, !dbg !3249
  %9 = load ptr, ptr %8, align 8, !dbg !3249
  %10 = ptrtoint ptr %6 to i64, !dbg !3250
  %11 = ptrtoint ptr %9 to i64, !dbg !3250
  %12 = sub i64 %10, %11, !dbg !3250
  %13 = sdiv exact i64 %12, 32, !dbg !3250
  ret i64 %13, !dbg !3251
}

; Function Attrs: mustprogress noinline optnone uwtable
define linkonce_odr dso_local noundef zeroext i1 @_Z11FlexLoadBMPIhLi1EEbPKcR9FlexImageIT_XT0_EE(ptr noundef %0, ptr noundef nonnull align 8 dereferenceable(36) %1) #4 comdat personality ptr @__gxx_personality_v0 !dbg !3252 {
  %3 = alloca ptr, align 8
  %4 = alloca ptr, align 8
  %5 = alloca %class.FlexImage, align 8
  %6 = alloca i8, align 1
  %7 = alloca ptr, align 8
  %8 = alloca i32, align 4
  store ptr %0, ptr %3, align 8
  call void @llvm.dbg.declare(metadata ptr %3, metadata !3256, metadata !DIExpression()), !dbg !3257
  store ptr %1, ptr %4, align 8
  call void @llvm.dbg.declare(metadata ptr %4, metadata !3258, metadata !DIExpression()), !dbg !3259
  call void @llvm.dbg.declare(metadata ptr %5, metadata !3260, metadata !DIExpression()), !dbg !3261
  call void @_ZN9FlexImageIhLi1EEC1Ev(ptr noundef nonnull align 8 dereferenceable(36) %5), !dbg !3261
  call void @llvm.dbg.declare(metadata ptr %6, metadata !3262, metadata !DIExpression()), !dbg !3263
  %9 = load ptr, ptr %3, align 8, !dbg !3264
  %10 = invoke noundef zeroext i1 @_Z13FlexLoadBMP8uPKcR9FlexImageIhLi1EE(ptr noundef %9, ptr noundef nonnull align 8 dereferenceable(36) %5)
          to label %11 unwind label %18, !dbg !3265

11:                                               ; preds = %2
  %12 = zext i1 %10 to i8, !dbg !3263
  store i8 %12, ptr %6, align 1, !dbg !3263
  %13 = load ptr, ptr %4, align 8, !dbg !3266
  %14 = invoke noundef i32 @_ZN9FlexImageIhLi1EE11ConvertFromIhEEiRKS_IT_Li1EEb(ptr noundef nonnull align 8 dereferenceable(36) %13, ptr noundef nonnull align 8 dereferenceable(36) %5, i1 noundef zeroext true)
          to label %15 unwind label %18, !dbg !3267

15:                                               ; preds = %11
  %16 = load i8, ptr %6, align 1, !dbg !3268
  %17 = trunc i8 %16 to i1, !dbg !3268
  call void @_ZN9FlexImageIhLi1EED1Ev(ptr noundef nonnull align 8 dereferenceable(36) %5) #3, !dbg !3269
  ret i1 %17, !dbg !3269

18:                                               ; preds = %11, %2
  %19 = landingpad { ptr, i32 }
          cleanup, !dbg !3269
  %20 = extractvalue { ptr, i32 } %19, 0, !dbg !3269
  store ptr %20, ptr %7, align 8, !dbg !3269
  %21 = extractvalue { ptr, i32 } %19, 1, !dbg !3269
  store i32 %21, ptr %8, align 4, !dbg !3269
  call void @_ZN9FlexImageIhLi1EED1Ev(ptr noundef nonnull align 8 dereferenceable(36) %5) #3, !dbg !3269
  br label %22, !dbg !3269

22:                                               ; preds = %18
  %23 = load ptr, ptr %7, align 8, !dbg !3269
  %24 = load i32, ptr %8, align 4, !dbg !3269
  %25 = insertvalue { ptr, i32 } poison, ptr %23, 0, !dbg !3269
  %26 = insertvalue { ptr, i32 } %25, i32 %24, 1, !dbg !3269
  resume { ptr, i32 } %26, !dbg !3269
}

; Function Attrs: mustprogress noinline nounwind optnone uwtable
define linkonce_odr dso_local noundef nonnull align 8 dereferenceable(32) ptr @_ZNSt6vectorINSt7__cxx1112basic_stringIcSt11char_traitsIcESaIcEEESaIS5_EEixEm(ptr noundef nonnull align 8 dereferenceable(24) %0, i64 noundef %1) #6 comdat align 2 !dbg !3270 {
  %3 = alloca ptr, align 8
  %4 = alloca i64, align 8
  store ptr %0, ptr %3, align 8
  call void @llvm.dbg.declare(metadata ptr %3, metadata !3271, metadata !DIExpression()), !dbg !3273
  store i64 %1, ptr %4, align 8
  call void @llvm.dbg.declare(metadata ptr %4, metadata !3274, metadata !DIExpression()), !dbg !3275
  %5 = load ptr, ptr %3, align 8
  %6 = getelementptr inbounds %"struct.std::_Vector_base.18", ptr %5, i32 0, i32 0, !dbg !3276
  %7 = getelementptr inbounds %"struct.std::_Vector_base<std::__cxx11::basic_string<char>, std::allocator<std::__cxx11::basic_string<char>>>::_Vector_impl_data", ptr %6, i32 0, i32 0, !dbg !3277
  %8 = load ptr, ptr %7, align 8, !dbg !3277
  %9 = load i64, ptr %4, align 8, !dbg !3278
  %10 = getelementptr inbounds %"class.std::__cxx11::basic_string", ptr %8, i64 %9, !dbg !3279
  ret ptr %10, !dbg !3280
}

; Function Attrs: nounwind
declare noundef ptr @_ZNKSt7__cxx1112basic_stringIcSt11char_traitsIcESaIcEE5c_strEv(ptr noundef nonnull align 8 dereferenceable(32)) #2

declare i32 @__gxx_personality_v0(...)

declare noundef nonnull align 8 dereferenceable(8) ptr @_ZStlsISt11char_traitsIcEERSt13basic_ostreamIcT_ES5_PKc(ptr noundef nonnull align 8 dereferenceable(8), ptr noundef) #1

declare noundef nonnull align 8 dereferenceable(8) ptr @_ZNSolsEPFRSoS_E(ptr noundef nonnull align 8 dereferenceable(8), ptr noundef) #1

declare noundef nonnull align 8 dereferenceable(8) ptr @_ZSt4endlIcSt11char_traitsIcEERSt13basic_ostreamIT_T0_ES6_(ptr noundef nonnull align 8 dereferenceable(8)) #1

; Function Attrs: mustprogress noinline nounwind optnone uwtable
define linkonce_odr dso_local noundef nonnull align 8 dereferenceable(24) ptr @_ZNSt6vectorI11BinaryImageSaIS0_EEixEm(ptr noundef nonnull align 8 dereferenceable(24) %0, i64 noundef %1) #6 comdat align 2 !dbg !3281 {
  %3 = alloca ptr, align 8
  %4 = alloca i64, align 8
  store ptr %0, ptr %3, align 8
  call void @llvm.dbg.declare(metadata ptr %3, metadata !3282, metadata !DIExpression()), !dbg !3283
  store i64 %1, ptr %4, align 8
  call void @llvm.dbg.declare(metadata ptr %4, metadata !3284, metadata !DIExpression()), !dbg !3285
  %5 = load ptr, ptr %3, align 8
  %6 = getelementptr inbounds %"struct.std::_Vector_base.9", ptr %5, i32 0, i32 0, !dbg !3286
  %7 = getelementptr inbounds %"struct.std::_Vector_base<BinaryImage, std::allocator<BinaryImage>>::_Vector_impl_data", ptr %6, i32 0, i32 0, !dbg !3287
  %8 = load ptr, ptr %7, align 8, !dbg !3287
  %9 = load i64, ptr %4, align 8, !dbg !3288
  %10 = getelementptr inbounds %class.BinaryImage, ptr %8, i64 %9, !dbg !3289
  ret ptr %10, !dbg !3290
}

; Function Attrs: mustprogress noinline optnone uwtable
define linkonce_odr dso_local void @_ZN11BinaryImage15ConvertToBinaryERK9FlexImageIhLi1EE(ptr noundef nonnull align 8 dereferenceable(24) %0, ptr noundef nonnull align 8 dereferenceable(36) %1) #4 comdat align 2 !dbg !3291 {
  %3 = alloca ptr, align 8
  %4 = alloca ptr, align 8
  %5 = alloca i32, align 4
  %6 = alloca i32, align 4
  %7 = alloca i32, align 4
  %8 = alloca ptr, align 8
  %9 = alloca i32, align 4
  %10 = alloca i8, align 1
  store ptr %0, ptr %3, align 8
  call void @llvm.dbg.declare(metadata ptr %3, metadata !3292, metadata !DIExpression()), !dbg !3293
  store ptr %1, ptr %4, align 8
  call void @llvm.dbg.declare(metadata ptr %4, metadata !3294, metadata !DIExpression()), !dbg !3295
  %11 = load ptr, ptr %3, align 8
  %12 = load ptr, ptr %4, align 8, !dbg !3296
  %13 = call noundef i32 @_ZNK9FlexImageIhLi1EE5WidthEv(ptr noundef nonnull align 8 dereferenceable(36) %12), !dbg !3297
  %14 = load ptr, ptr %4, align 8, !dbg !3298
  %15 = call noundef i32 @_ZNK9FlexImageIhLi1EE6HeightEv(ptr noundef nonnull align 8 dereferenceable(36) %14), !dbg !3299
  call void @_ZN11BinaryImage10ReallocateEii(ptr noundef nonnull align 8 dereferenceable(24) %11, i32 noundef %13, i32 noundef %15), !dbg !3300
  call void @_ZN11BinaryImage5ClearEv(ptr noundef nonnull align 8 dereferenceable(24) %11), !dbg !3301
  call void @llvm.dbg.declare(metadata ptr %5, metadata !3302, metadata !DIExpression()), !dbg !3303
  store i32 0, ptr %5, align 4, !dbg !3303
  call void @llvm.dbg.declare(metadata ptr %6, metadata !3304, metadata !DIExpression()), !dbg !3305
  store i32 0, ptr %6, align 4, !dbg !3305
  call void @llvm.dbg.declare(metadata ptr %7, metadata !3306, metadata !DIExpression()), !dbg !3308
  store i32 0, ptr %7, align 4, !dbg !3308
  br label %16, !dbg !3309

16:                                               ; preds = %68, %2
  %17 = load i32, ptr %7, align 4, !dbg !3310
  %18 = load ptr, ptr %4, align 8, !dbg !3312
  %19 = call noundef i32 @_ZNK9FlexImageIhLi1EE6HeightEv(ptr noundef nonnull align 8 dereferenceable(36) %18), !dbg !3313
  %20 = icmp slt i32 %17, %19, !dbg !3314
  br i1 %20, label %21, label %71, !dbg !3315

21:                                               ; preds = %16
  call void @llvm.dbg.declare(metadata ptr %8, metadata !3316, metadata !DIExpression()), !dbg !3318
  %22 = load ptr, ptr %4, align 8, !dbg !3319
  %23 = load i32, ptr %7, align 4, !dbg !3320
  %24 = call noundef nonnull align 1 dereferenceable(1) ptr @_ZNK9FlexImageIhLi1EEclEii(ptr noundef nonnull align 8 dereferenceable(36) %22, i32 noundef 0, i32 noundef %23), !dbg !3319
  store ptr %24, ptr %8, align 8, !dbg !3318
  call void @llvm.dbg.declare(metadata ptr %9, metadata !3321, metadata !DIExpression()), !dbg !3323
  store i32 0, ptr %9, align 4, !dbg !3323
  br label %25, !dbg !3324

25:                                               ; preds = %64, %21
  %26 = load i32, ptr %9, align 4, !dbg !3325
  %27 = load ptr, ptr %4, align 8, !dbg !3327
  %28 = call noundef i32 @_ZNK9FlexImageIhLi1EE5WidthEv(ptr noundef nonnull align 8 dereferenceable(36) %27), !dbg !3328
  %29 = icmp slt i32 %26, %28, !dbg !3329
  br i1 %29, label %30, label %67, !dbg !3330

30:                                               ; preds = %25
  call void @llvm.dbg.declare(metadata ptr %10, metadata !3331, metadata !DIExpression()), !dbg !3333
  %31 = load ptr, ptr %8, align 8, !dbg !3334
  %32 = getelementptr inbounds i8, ptr %31, i32 1, !dbg !3334
  store ptr %32, ptr %8, align 8, !dbg !3334
  %33 = load i8, ptr %31, align 1, !dbg !3335
  %34 = zext i8 %33 to i32, !dbg !3335
  %35 = icmp ne i32 %34, 0, !dbg !3336
  %36 = zext i1 %35 to i64, !dbg !3335
  %37 = select i1 %35, i32 1, i32 0, !dbg !3335
  %38 = trunc i32 %37 to i8, !dbg !3335
  store i8 %38, ptr %10, align 1, !dbg !3333
  %39 = getelementptr inbounds %class.BinaryImage, ptr %11, i32 0, i32 1, !dbg !3337
  %40 = load ptr, ptr %39, align 8, !dbg !3337
  %41 = load i32, ptr %6, align 4, !dbg !3338
  %42 = sext i32 %41 to i64, !dbg !3337
  %43 = getelementptr inbounds i8, ptr %40, i64 %42, !dbg !3337
  %44 = load i8, ptr %43, align 1, !dbg !3337
  %45 = zext i8 %44 to i32, !dbg !3337
  %46 = load i8, ptr %10, align 1, !dbg !3339
  %47 = zext i8 %46 to i32, !dbg !3339
  %48 = load i32, ptr %5, align 4, !dbg !3340
  %49 = shl i32 %47, %48, !dbg !3341
  %50 = or i32 %45, %49, !dbg !3342
  %51 = trunc i32 %50 to i8, !dbg !3337
  %52 = getelementptr inbounds %class.BinaryImage, ptr %11, i32 0, i32 1, !dbg !3343
  %53 = load ptr, ptr %52, align 8, !dbg !3343
  %54 = load i32, ptr %6, align 4, !dbg !3344
  %55 = sext i32 %54 to i64, !dbg !3343
  %56 = getelementptr inbounds i8, ptr %53, i64 %55, !dbg !3343
  store i8 %51, ptr %56, align 1, !dbg !3345
  %57 = load i32, ptr %5, align 4, !dbg !3346
  %58 = add nsw i32 %57, 1, !dbg !3346
  store i32 %58, ptr %5, align 4, !dbg !3346
  %59 = icmp sgt i32 %58, 7, !dbg !3348
  br i1 %59, label %60, label %63, !dbg !3349

60:                                               ; preds = %30
  store i32 0, ptr %5, align 4, !dbg !3350
  %61 = load i32, ptr %6, align 4, !dbg !3352
  %62 = add nsw i32 %61, 1, !dbg !3352
  store i32 %62, ptr %6, align 4, !dbg !3352
  br label %63, !dbg !3353

63:                                               ; preds = %60, %30
  br label %64, !dbg !3354

64:                                               ; preds = %63
  %65 = load i32, ptr %9, align 4, !dbg !3355
  %66 = add nsw i32 %65, 1, !dbg !3355
  store i32 %66, ptr %9, align 4, !dbg !3355
  br label %25, !dbg !3356, !llvm.loop !3357

67:                                               ; preds = %25
  br label %68, !dbg !3359

68:                                               ; preds = %67
  %69 = load i32, ptr %7, align 4, !dbg !3360
  %70 = add nsw i32 %69, 1, !dbg !3360
  store i32 %70, ptr %7, align 4, !dbg !3360
  br label %16, !dbg !3361, !llvm.loop !3362

71:                                               ; preds = %16
  ret void, !dbg !3364
}

; Function Attrs: mustprogress noinline nounwind optnone uwtable
define linkonce_odr dso_local noundef nonnull align 8 dereferenceable(36) ptr @_ZNSt6vectorI9FlexImageIhLi1EESaIS1_EEixEm(ptr noundef nonnull align 8 dereferenceable(24) %0, i64 noundef %1) #6 comdat align 2 !dbg !3365 {
  %3 = alloca ptr, align 8
  %4 = alloca i64, align 8
  store ptr %0, ptr %3, align 8
  call void @llvm.dbg.declare(metadata ptr %3, metadata !3366, metadata !DIExpression()), !dbg !3367
  store i64 %1, ptr %4, align 8
  call void @llvm.dbg.declare(metadata ptr %4, metadata !3368, metadata !DIExpression()), !dbg !3369
  %5 = load ptr, ptr %3, align 8
  %6 = getelementptr inbounds %"struct.std::_Vector_base", ptr %5, i32 0, i32 0, !dbg !3370
  %7 = getelementptr inbounds %"struct.std::_Vector_base<FlexImage<unsigned char, 1>, std::allocator<FlexImage<unsigned char, 1>>>::_Vector_impl_data", ptr %6, i32 0, i32 0, !dbg !3371
  %8 = load ptr, ptr %7, align 8, !dbg !3371
  %9 = load i64, ptr %4, align 8, !dbg !3372
  %10 = getelementptr inbounds %class.FlexImage, ptr %8, i64 %9, !dbg !3373
  ret ptr %10, !dbg !3374
}

; Function Attrs: nounwind
declare void @_ZN9FlexImageIhLi1EED1Ev(ptr noundef nonnull align 8 dereferenceable(36)) unnamed_addr #2

; Function Attrs: mustprogress noinline optnone uwtable
define dso_local void @_ZN16AsyncImageLoader3RunEv(ptr noundef nonnull align 8 dereferenceable(492) %0) unnamed_addr #4 align 2 personality ptr @__gxx_personality_v0 !dbg !3375 {
  %2 = alloca ptr, align 8
  %3 = alloca %"class.std::vector", align 8
  %4 = alloca %"class.std::allocator.0", align 1
  %5 = alloca ptr, align 8
  %6 = alloca i32, align 4
  %7 = alloca %"class.std::vector.8", align 8
  %8 = alloca %"class.std::allocator.10", align 1
  %9 = alloca %"class.std::vector.17", align 8
  %10 = alloca %"class.std::allocator.19", align 1
  %11 = alloca %"class.std::vector.17", align 8
  %12 = alloca %"class.std::allocator.19", align 1
  %13 = alloca i32, align 4
  %14 = alloca %"class.std::__cxx11::basic_string", align 8
  %15 = alloca %"class.std::__cxx11::basic_string", align 8
  %16 = alloca %"class.std::__cxx11::basic_string", align 8
  %17 = alloca %"class.std::__cxx11::basic_string", align 8
  %18 = alloca %"class.std::__cxx11::basic_string", align 8
  %19 = alloca %"class.std::__cxx11::basic_string", align 8
  %20 = alloca %"class.std::__cxx11::basic_string", align 8
  %21 = alloca %"class.std::__cxx11::basic_string", align 8
  %22 = alloca %"class.std::__cxx11::basic_string", align 8
  %23 = alloca %"class.std::__cxx11::basic_string", align 8
  %24 = alloca %"class.std::__cxx11::basic_string", align 8
  %25 = alloca %"class.std::__cxx11::basic_string", align 8
  %26 = alloca %"class.std::__cxx11::basic_string", align 8
  %27 = alloca %"class.std::__cxx11::basic_string", align 8
  %28 = alloca %"class.std::__cxx11::basic_string", align 8
  %29 = alloca %"class.std::__cxx11::basic_string", align 8
  store ptr %0, ptr %2, align 8
  call void @llvm.dbg.declare(metadata ptr %2, metadata !3376, metadata !DIExpression()), !dbg !3377
  %30 = load ptr, ptr %2, align 8
  call void @llvm.dbg.declare(metadata ptr %3, metadata !3378, metadata !DIExpression()), !dbg !3379
  %31 = getelementptr inbounds %class.AsyncImageLoader, ptr %30, i32 0, i32 3, !dbg !3380
  %32 = load i32, ptr %31, align 8, !dbg !3380
  %33 = zext i32 %32 to i64, !dbg !3380
  call void @_ZNSaI9FlexImageIhLi1EEEC2Ev(ptr noundef nonnull align 1 dereferenceable(1) %4) #3, !dbg !3379
  invoke void @_ZNSt6vectorI9FlexImageIhLi1EESaIS1_EEC2EmRKS2_(ptr noundef nonnull align 8 dereferenceable(24) %3, i64 noundef %33, ptr noundef nonnull align 1 dereferenceable(1) %4)
          to label %34 unwind label %104, !dbg !3379

34:                                               ; preds = %1
  call void @_ZNSaI9FlexImageIhLi1EEED2Ev(ptr noundef nonnull align 1 dereferenceable(1) %4) #3, !dbg !3379
  call void @llvm.dbg.declare(metadata ptr %7, metadata !3381, metadata !DIExpression()), !dbg !3382
  %35 = getelementptr inbounds %class.AsyncImageLoader, ptr %30, i32 0, i32 3, !dbg !3383
  %36 = load i32, ptr %35, align 8, !dbg !3383
  %37 = zext i32 %36 to i64, !dbg !3383
  call void @_ZNSaI11BinaryImageEC2Ev(ptr noundef nonnull align 1 dereferenceable(1) %8) #3, !dbg !3382
  invoke void @_ZNSt6vectorI11BinaryImageSaIS0_EEC2EmRKS1_(ptr noundef nonnull align 8 dereferenceable(24) %7, i64 noundef %37, ptr noundef nonnull align 1 dereferenceable(1) %8)
          to label %38 unwind label %108, !dbg !3382

38:                                               ; preds = %34
  call void @_ZNSaI11BinaryImageED2Ev(ptr noundef nonnull align 1 dereferenceable(1) %8) #3, !dbg !3382
  call void @llvm.dbg.declare(metadata ptr %9, metadata !3384, metadata !DIExpression()), !dbg !3385
  %39 = getelementptr inbounds %class.AsyncImageLoader, ptr %30, i32 0, i32 3, !dbg !3386
  %40 = load i32, ptr %39, align 8, !dbg !3386
  %41 = zext i32 %40 to i64, !dbg !3386
  call void @_ZNSaINSt7__cxx1112basic_stringIcSt11char_traitsIcESaIcEEEEC2Ev(ptr noundef nonnull align 1 dereferenceable(1) %10) #3, !dbg !3385
  invoke void @_ZNSt6vectorINSt7__cxx1112basic_stringIcSt11char_traitsIcESaIcEEESaIS5_EEC2EmRKS6_(ptr noundef nonnull align 8 dereferenceable(24) %9, i64 noundef %41, ptr noundef nonnull align 1 dereferenceable(1) %10)
          to label %42 unwind label %112, !dbg !3385

42:                                               ; preds = %38
  call void @_ZNSaINSt7__cxx1112basic_stringIcSt11char_traitsIcESaIcEEEED2Ev(ptr noundef nonnull align 1 dereferenceable(1) %10) #3, !dbg !3385
  call void @llvm.dbg.declare(metadata ptr %11, metadata !3387, metadata !DIExpression()), !dbg !3388
  %43 = getelementptr inbounds %class.AsyncImageLoader, ptr %30, i32 0, i32 3, !dbg !3389
  %44 = load i32, ptr %43, align 8, !dbg !3389
  %45 = zext i32 %44 to i64, !dbg !3389
  call void @_ZNSaINSt7__cxx1112basic_stringIcSt11char_traitsIcESaIcEEEEC2Ev(ptr noundef nonnull align 1 dereferenceable(1) %12) #3, !dbg !3388
  invoke void @_ZNSt6vectorINSt7__cxx1112basic_stringIcSt11char_traitsIcESaIcEEESaIS5_EEC2EmRKS6_(ptr noundef nonnull align 8 dereferenceable(24) %11, i64 noundef %45, ptr noundef nonnull align 1 dereferenceable(1) %12)
          to label %46 unwind label %116, !dbg !3388

46:                                               ; preds = %42
  call void @_ZNSaINSt7__cxx1112basic_stringIcSt11char_traitsIcESaIcEEEED2Ev(ptr noundef nonnull align 1 dereferenceable(1) %12) #3, !dbg !3388
  br label %47, !dbg !3390

47:                                               ; preds = %218, %46
  %48 = getelementptr inbounds %class.AsyncImageLoader, ptr %30, i32 0, i32 13, !dbg !3391
  %49 = load i32, ptr %48, align 4, !dbg !3391
  %50 = getelementptr inbounds %class.AsyncImageLoader, ptr %30, i32 0, i32 14, !dbg !3392
  %51 = load i32, ptr %50, align 8, !dbg !3392
  %52 = icmp ult i32 %49, %51, !dbg !3393
  br i1 %52, label %53, label %58, !dbg !3394

53:                                               ; preds = %47
  %54 = getelementptr inbounds %class.AsyncImageLoader, ptr %30, i32 0, i32 11, !dbg !3395
  %55 = load i8, ptr %54, align 8, !dbg !3395
  %56 = trunc i8 %55 to i1, !dbg !3395
  %57 = xor i1 %56, true, !dbg !3396
  br label %58

58:                                               ; preds = %53, %47
  %59 = phi i1 [ false, %47 ], [ %57, %53 ], !dbg !3377
  br i1 %59, label %60, label %222, !dbg !3390

60:                                               ; preds = %58
  call void @llvm.dbg.declare(metadata ptr %13, metadata !3397, metadata !DIExpression()), !dbg !3400
  store i32 0, ptr %13, align 4, !dbg !3400
  br label %61, !dbg !3401

61:                                               ; preds = %101, %60
  %62 = load i32, ptr %13, align 4, !dbg !3402
  %63 = getelementptr inbounds %class.AsyncImageLoader, ptr %30, i32 0, i32 3, !dbg !3404
  %64 = load i32, ptr %63, align 8, !dbg !3404
  %65 = icmp ult i32 %62, %64, !dbg !3405
  br i1 %65, label %66, label %192, !dbg !3406

66:                                               ; preds = %61
  %67 = getelementptr inbounds %class.AsyncImageLoader, ptr %30, i32 0, i32 5, !dbg !3407
  invoke void @_ZStplIcSt11char_traitsIcESaIcEENSt7__cxx1112basic_stringIT_T0_T1_EERKS8_PKS5_(ptr sret(%"class.std::__cxx11::basic_string") align 8 %19, ptr noundef nonnull align 8 dereferenceable(32) %67, ptr noundef @.str.1)
          to label %68 unwind label %120, !dbg !3409

68:                                               ; preds = %66
  %69 = load i32, ptr %13, align 4, !dbg !3410
  %70 = add i32 %69, 1, !dbg !3411
  invoke void @_Z3strIjENSt7__cxx1112basic_stringIcSt11char_traitsIcESaIcEEET_ic(ptr sret(%"class.std::__cxx11::basic_string") align 8 %20, i32 noundef %70, i32 noundef 0, i8 noundef signext 48)
          to label %71 unwind label %124, !dbg !3412

71:                                               ; preds = %68
  invoke void @_ZStplIcSt11char_traitsIcESaIcEENSt7__cxx1112basic_stringIT_T0_T1_EEOS8_S9_(ptr sret(%"class.std::__cxx11::basic_string") align 8 %18, ptr noundef nonnull align 8 dereferenceable(32) %19, ptr noundef nonnull align 8 dereferenceable(32) %20)
          to label %72 unwind label %128, !dbg !3413

72:                                               ; preds = %71
  invoke void @_ZStplIcSt11char_traitsIcESaIcEENSt7__cxx1112basic_stringIT_T0_T1_EEOS8_PKS5_(ptr sret(%"class.std::__cxx11::basic_string") align 8 %17, ptr noundef nonnull align 8 dereferenceable(32) %18, ptr noundef @.str.2)
          to label %73 unwind label %132, !dbg !3414

73:                                               ; preds = %72
  invoke void @_ZStplIcSt11char_traitsIcESaIcEENSt7__cxx1112basic_stringIT_T0_T1_EEOS8_PKS5_(ptr sret(%"class.std::__cxx11::basic_string") align 8 %16, ptr noundef nonnull align 8 dereferenceable(32) %17, ptr noundef @.str.3)
          to label %74 unwind label %136, !dbg !3415

74:                                               ; preds = %73
  %75 = getelementptr inbounds %class.AsyncImageLoader, ptr %30, i32 0, i32 13, !dbg !3416
  %76 = load i32, ptr %75, align 4, !dbg !3416
  invoke void @_Z3strIjENSt7__cxx1112basic_stringIcSt11char_traitsIcESaIcEEET_ic(ptr sret(%"class.std::__cxx11::basic_string") align 8 %21, i32 noundef %76, i32 noundef 4, i8 noundef signext 48)
          to label %77 unwind label %140, !dbg !3417

77:                                               ; preds = %74
  invoke void @_ZStplIcSt11char_traitsIcESaIcEENSt7__cxx1112basic_stringIT_T0_T1_EEOS8_S9_(ptr sret(%"class.std::__cxx11::basic_string") align 8 %15, ptr noundef nonnull align 8 dereferenceable(32) %16, ptr noundef nonnull align 8 dereferenceable(32) %21)
          to label %78 unwind label %144, !dbg !3418

78:                                               ; preds = %77
  invoke void @_ZStplIcSt11char_traitsIcESaIcEENSt7__cxx1112basic_stringIT_T0_T1_EEOS8_PKS5_(ptr sret(%"class.std::__cxx11::basic_string") align 8 %14, ptr noundef nonnull align 8 dereferenceable(32) %15, ptr noundef @.str.4)
          to label %79 unwind label %148, !dbg !3419

79:                                               ; preds = %78
  %80 = load i32, ptr %13, align 4, !dbg !3420
  %81 = zext i32 %80 to i64, !dbg !3420
  %82 = call noundef nonnull align 8 dereferenceable(32) ptr @_ZNSt6vectorINSt7__cxx1112basic_stringIcSt11char_traitsIcESaIcEEESaIS5_EEixEm(ptr noundef nonnull align 8 dereferenceable(24) %9, i64 noundef %81) #3, !dbg !3421
  %83 = call noundef nonnull align 8 dereferenceable(32) ptr @_ZNSt7__cxx1112basic_stringIcSt11char_traitsIcESaIcEEaSEOS4_(ptr noundef nonnull align 8 dereferenceable(32) %82, ptr noundef nonnull align 8 dereferenceable(32) %14) #3, !dbg !3422
  call void @_ZNSt7__cxx1112basic_stringIcSt11char_traitsIcESaIcEED1Ev(ptr noundef nonnull align 8 dereferenceable(32) %14) #3, !dbg !3421
  call void @_ZNSt7__cxx1112basic_stringIcSt11char_traitsIcESaIcEED1Ev(ptr noundef nonnull align 8 dereferenceable(32) %15) #3, !dbg !3421
  call void @_ZNSt7__cxx1112basic_stringIcSt11char_traitsIcESaIcEED1Ev(ptr noundef nonnull align 8 dereferenceable(32) %21) #3, !dbg !3421
  call void @_ZNSt7__cxx1112basic_stringIcSt11char_traitsIcESaIcEED1Ev(ptr noundef nonnull align 8 dereferenceable(32) %16) #3, !dbg !3421
  call void @_ZNSt7__cxx1112basic_stringIcSt11char_traitsIcESaIcEED1Ev(ptr noundef nonnull align 8 dereferenceable(32) %17) #3, !dbg !3421
  call void @_ZNSt7__cxx1112basic_stringIcSt11char_traitsIcESaIcEED1Ev(ptr noundef nonnull align 8 dereferenceable(32) %18) #3, !dbg !3421
  call void @_ZNSt7__cxx1112basic_stringIcSt11char_traitsIcESaIcEED1Ev(ptr noundef nonnull align 8 dereferenceable(32) %20) #3, !dbg !3421
  call void @_ZNSt7__cxx1112basic_stringIcSt11char_traitsIcESaIcEED1Ev(ptr noundef nonnull align 8 dereferenceable(32) %19) #3, !dbg !3421
  %84 = getelementptr inbounds %class.AsyncImageLoader, ptr %30, i32 0, i32 5, !dbg !3423
  invoke void @_ZStplIcSt11char_traitsIcESaIcEENSt7__cxx1112basic_stringIT_T0_T1_EERKS8_PKS5_(ptr sret(%"class.std::__cxx11::basic_string") align 8 %27, ptr noundef nonnull align 8 dereferenceable(32) %84, ptr noundef @.str.5)
          to label %85 unwind label %120, !dbg !3424

85:                                               ; preds = %79
  %86 = load i32, ptr %13, align 4, !dbg !3425
  %87 = add i32 %86, 1, !dbg !3426
  invoke void @_Z3strIjENSt7__cxx1112basic_stringIcSt11char_traitsIcESaIcEEET_ic(ptr sret(%"class.std::__cxx11::basic_string") align 8 %28, i32 noundef %87, i32 noundef 0, i8 noundef signext 48)
          to label %88 unwind label %158, !dbg !3427

88:                                               ; preds = %85
  invoke void @_ZStplIcSt11char_traitsIcESaIcEENSt7__cxx1112basic_stringIT_T0_T1_EEOS8_S9_(ptr sret(%"class.std::__cxx11::basic_string") align 8 %26, ptr noundef nonnull align 8 dereferenceable(32) %27, ptr noundef nonnull align 8 dereferenceable(32) %28)
          to label %89 unwind label %162, !dbg !3428

89:                                               ; preds = %88
  invoke void @_ZStplIcSt11char_traitsIcESaIcEENSt7__cxx1112basic_stringIT_T0_T1_EEOS8_PKS5_(ptr sret(%"class.std::__cxx11::basic_string") align 8 %25, ptr noundef nonnull align 8 dereferenceable(32) %26, ptr noundef @.str.2)
          to label %90 unwind label %166, !dbg !3429

90:                                               ; preds = %89
  invoke void @_ZStplIcSt11char_traitsIcESaIcEENSt7__cxx1112basic_stringIT_T0_T1_EEOS8_PKS5_(ptr sret(%"class.std::__cxx11::basic_string") align 8 %24, ptr noundef nonnull align 8 dereferenceable(32) %25, ptr noundef @.str.3)
          to label %91 unwind label %170, !dbg !3430

91:                                               ; preds = %90
  %92 = getelementptr inbounds %class.AsyncImageLoader, ptr %30, i32 0, i32 13, !dbg !3431
  %93 = load i32, ptr %92, align 4, !dbg !3431
  invoke void @_Z3strIjENSt7__cxx1112basic_stringIcSt11char_traitsIcESaIcEEET_ic(ptr sret(%"class.std::__cxx11::basic_string") align 8 %29, i32 noundef %93, i32 noundef 4, i8 noundef signext 48)
          to label %94 unwind label %174, !dbg !3432

94:                                               ; preds = %91
  invoke void @_ZStplIcSt11char_traitsIcESaIcEENSt7__cxx1112basic_stringIT_T0_T1_EEOS8_S9_(ptr sret(%"class.std::__cxx11::basic_string") align 8 %23, ptr noundef nonnull align 8 dereferenceable(32) %24, ptr noundef nonnull align 8 dereferenceable(32) %29)
          to label %95 unwind label %178, !dbg !3433

95:                                               ; preds = %94
  invoke void @_ZStplIcSt11char_traitsIcESaIcEENSt7__cxx1112basic_stringIT_T0_T1_EEOS8_PKS5_(ptr sret(%"class.std::__cxx11::basic_string") align 8 %22, ptr noundef nonnull align 8 dereferenceable(32) %23, ptr noundef @.str.4)
          to label %96 unwind label %182, !dbg !3434

96:                                               ; preds = %95
  %97 = load i32, ptr %13, align 4, !dbg !3435
  %98 = zext i32 %97 to i64, !dbg !3435
  %99 = call noundef nonnull align 8 dereferenceable(32) ptr @_ZNSt6vectorINSt7__cxx1112basic_stringIcSt11char_traitsIcESaIcEEESaIS5_EEixEm(ptr noundef nonnull align 8 dereferenceable(24) %11, i64 noundef %98) #3, !dbg !3436
  %100 = call noundef nonnull align 8 dereferenceable(32) ptr @_ZNSt7__cxx1112basic_stringIcSt11char_traitsIcESaIcEEaSEOS4_(ptr noundef nonnull align 8 dereferenceable(32) %99, ptr noundef nonnull align 8 dereferenceable(32) %22) #3, !dbg !3437
  call void @_ZNSt7__cxx1112basic_stringIcSt11char_traitsIcESaIcEED1Ev(ptr noundef nonnull align 8 dereferenceable(32) %22) #3, !dbg !3436
  call void @_ZNSt7__cxx1112basic_stringIcSt11char_traitsIcESaIcEED1Ev(ptr noundef nonnull align 8 dereferenceable(32) %23) #3, !dbg !3436
  call void @_ZNSt7__cxx1112basic_stringIcSt11char_traitsIcESaIcEED1Ev(ptr noundef nonnull align 8 dereferenceable(32) %29) #3, !dbg !3436
  call void @_ZNSt7__cxx1112basic_stringIcSt11char_traitsIcESaIcEED1Ev(ptr noundef nonnull align 8 dereferenceable(32) %24) #3, !dbg !3436
  call void @_ZNSt7__cxx1112basic_stringIcSt11char_traitsIcESaIcEED1Ev(ptr noundef nonnull align 8 dereferenceable(32) %25) #3, !dbg !3436
  call void @_ZNSt7__cxx1112basic_stringIcSt11char_traitsIcESaIcEED1Ev(ptr noundef nonnull align 8 dereferenceable(32) %26) #3, !dbg !3436
  call void @_ZNSt7__cxx1112basic_stringIcSt11char_traitsIcESaIcEED1Ev(ptr noundef nonnull align 8 dereferenceable(32) %28) #3, !dbg !3436
  call void @_ZNSt7__cxx1112basic_stringIcSt11char_traitsIcESaIcEED1Ev(ptr noundef nonnull align 8 dereferenceable(32) %27) #3, !dbg !3436
  br label %101, !dbg !3438

101:                                              ; preds = %96
  %102 = load i32, ptr %13, align 4, !dbg !3439
  %103 = add i32 %102, 1, !dbg !3439
  store i32 %103, ptr %13, align 4, !dbg !3439
  br label %61, !dbg !3440, !llvm.loop !3441

104:                                              ; preds = %1
  %105 = landingpad { ptr, i32 }
          cleanup, !dbg !3443
  %106 = extractvalue { ptr, i32 } %105, 0, !dbg !3443
  store ptr %106, ptr %5, align 8, !dbg !3443
  %107 = extractvalue { ptr, i32 } %105, 1, !dbg !3443
  store i32 %107, ptr %6, align 4, !dbg !3443
  call void @_ZNSaI9FlexImageIhLi1EEED2Ev(ptr noundef nonnull align 1 dereferenceable(1) %4) #3, !dbg !3379
  br label %227, !dbg !3379

108:                                              ; preds = %34
  %109 = landingpad { ptr, i32 }
          cleanup, !dbg !3443
  %110 = extractvalue { ptr, i32 } %109, 0, !dbg !3443
  store ptr %110, ptr %5, align 8, !dbg !3443
  %111 = extractvalue { ptr, i32 } %109, 1, !dbg !3443
  store i32 %111, ptr %6, align 4, !dbg !3443
  call void @_ZNSaI11BinaryImageED2Ev(ptr noundef nonnull align 1 dereferenceable(1) %8) #3, !dbg !3382
  br label %226, !dbg !3382

112:                                              ; preds = %38
  %113 = landingpad { ptr, i32 }
          cleanup, !dbg !3443
  %114 = extractvalue { ptr, i32 } %113, 0, !dbg !3443
  store ptr %114, ptr %5, align 8, !dbg !3443
  %115 = extractvalue { ptr, i32 } %113, 1, !dbg !3443
  store i32 %115, ptr %6, align 4, !dbg !3443
  call void @_ZNSaINSt7__cxx1112basic_stringIcSt11char_traitsIcESaIcEEEED2Ev(ptr noundef nonnull align 1 dereferenceable(1) %10) #3, !dbg !3385
  br label %225, !dbg !3385

116:                                              ; preds = %42
  %117 = landingpad { ptr, i32 }
          cleanup, !dbg !3443
  %118 = extractvalue { ptr, i32 } %117, 0, !dbg !3443
  store ptr %118, ptr %5, align 8, !dbg !3443
  %119 = extractvalue { ptr, i32 } %117, 1, !dbg !3443
  store i32 %119, ptr %6, align 4, !dbg !3443
  call void @_ZNSaINSt7__cxx1112basic_stringIcSt11char_traitsIcESaIcEEEED2Ev(ptr noundef nonnull align 1 dereferenceable(1) %12) #3, !dbg !3388
  br label %224, !dbg !3388

120:                                              ; preds = %215, %213, %211, %201, %199, %197, %195, %193, %192, %79, %66
  %121 = landingpad { ptr, i32 }
          cleanup, !dbg !3444
  %122 = extractvalue { ptr, i32 } %121, 0, !dbg !3444
  store ptr %122, ptr %5, align 8, !dbg !3444
  %123 = extractvalue { ptr, i32 } %121, 1, !dbg !3444
  store i32 %123, ptr %6, align 4, !dbg !3444
  br label %223, !dbg !3444

124:                                              ; preds = %68
  %125 = landingpad { ptr, i32 }
          cleanup, !dbg !3444
  %126 = extractvalue { ptr, i32 } %125, 0, !dbg !3444
  store ptr %126, ptr %5, align 8, !dbg !3444
  %127 = extractvalue { ptr, i32 } %125, 1, !dbg !3444
  store i32 %127, ptr %6, align 4, !dbg !3444
  br label %157, !dbg !3444

128:                                              ; preds = %71
  %129 = landingpad { ptr, i32 }
          cleanup, !dbg !3444
  %130 = extractvalue { ptr, i32 } %129, 0, !dbg !3444
  store ptr %130, ptr %5, align 8, !dbg !3444
  %131 = extractvalue { ptr, i32 } %129, 1, !dbg !3444
  store i32 %131, ptr %6, align 4, !dbg !3444
  br label %156, !dbg !3444

132:                                              ; preds = %72
  %133 = landingpad { ptr, i32 }
          cleanup, !dbg !3444
  %134 = extractvalue { ptr, i32 } %133, 0, !dbg !3444
  store ptr %134, ptr %5, align 8, !dbg !3444
  %135 = extractvalue { ptr, i32 } %133, 1, !dbg !3444
  store i32 %135, ptr %6, align 4, !dbg !3444
  br label %155, !dbg !3444

136:                                              ; preds = %73
  %137 = landingpad { ptr, i32 }
          cleanup, !dbg !3444
  %138 = extractvalue { ptr, i32 } %137, 0, !dbg !3444
  store ptr %138, ptr %5, align 8, !dbg !3444
  %139 = extractvalue { ptr, i32 } %137, 1, !dbg !3444
  store i32 %139, ptr %6, align 4, !dbg !3444
  br label %154, !dbg !3444

140:                                              ; preds = %74
  %141 = landingpad { ptr, i32 }
          cleanup, !dbg !3444
  %142 = extractvalue { ptr, i32 } %141, 0, !dbg !3444
  store ptr %142, ptr %5, align 8, !dbg !3444
  %143 = extractvalue { ptr, i32 } %141, 1, !dbg !3444
  store i32 %143, ptr %6, align 4, !dbg !3444
  br label %153, !dbg !3444

144:                                              ; preds = %77
  %145 = landingpad { ptr, i32 }
          cleanup, !dbg !3444
  %146 = extractvalue { ptr, i32 } %145, 0, !dbg !3444
  store ptr %146, ptr %5, align 8, !dbg !3444
  %147 = extractvalue { ptr, i32 } %145, 1, !dbg !3444
  store i32 %147, ptr %6, align 4, !dbg !3444
  br label %152, !dbg !3444

148:                                              ; preds = %78
  %149 = landingpad { ptr, i32 }
          cleanup, !dbg !3444
  %150 = extractvalue { ptr, i32 } %149, 0, !dbg !3444
  store ptr %150, ptr %5, align 8, !dbg !3444
  %151 = extractvalue { ptr, i32 } %149, 1, !dbg !3444
  store i32 %151, ptr %6, align 4, !dbg !3444
  call void @_ZNSt7__cxx1112basic_stringIcSt11char_traitsIcESaIcEED1Ev(ptr noundef nonnull align 8 dereferenceable(32) %15) #3, !dbg !3421
  br label %152, !dbg !3421

152:                                              ; preds = %148, %144
  call void @_ZNSt7__cxx1112basic_stringIcSt11char_traitsIcESaIcEED1Ev(ptr noundef nonnull align 8 dereferenceable(32) %21) #3, !dbg !3421
  br label %153, !dbg !3421

153:                                              ; preds = %152, %140
  call void @_ZNSt7__cxx1112basic_stringIcSt11char_traitsIcESaIcEED1Ev(ptr noundef nonnull align 8 dereferenceable(32) %16) #3, !dbg !3421
  br label %154, !dbg !3421

154:                                              ; preds = %153, %136
  call void @_ZNSt7__cxx1112basic_stringIcSt11char_traitsIcESaIcEED1Ev(ptr noundef nonnull align 8 dereferenceable(32) %17) #3, !dbg !3421
  br label %155, !dbg !3421

155:                                              ; preds = %154, %132
  call void @_ZNSt7__cxx1112basic_stringIcSt11char_traitsIcESaIcEED1Ev(ptr noundef nonnull align 8 dereferenceable(32) %18) #3, !dbg !3421
  br label %156, !dbg !3421

156:                                              ; preds = %155, %128
  call void @_ZNSt7__cxx1112basic_stringIcSt11char_traitsIcESaIcEED1Ev(ptr noundef nonnull align 8 dereferenceable(32) %20) #3, !dbg !3421
  br label %157, !dbg !3421

157:                                              ; preds = %156, %124
  call void @_ZNSt7__cxx1112basic_stringIcSt11char_traitsIcESaIcEED1Ev(ptr noundef nonnull align 8 dereferenceable(32) %19) #3, !dbg !3421
  br label %223, !dbg !3421

158:                                              ; preds = %85
  %159 = landingpad { ptr, i32 }
          cleanup, !dbg !3444
  %160 = extractvalue { ptr, i32 } %159, 0, !dbg !3444
  store ptr %160, ptr %5, align 8, !dbg !3444
  %161 = extractvalue { ptr, i32 } %159, 1, !dbg !3444
  store i32 %161, ptr %6, align 4, !dbg !3444
  br label %191, !dbg !3444

162:                                              ; preds = %88
  %163 = landingpad { ptr, i32 }
          cleanup, !dbg !3444
  %164 = extractvalue { ptr, i32 } %163, 0, !dbg !3444
  store ptr %164, ptr %5, align 8, !dbg !3444
  %165 = extractvalue { ptr, i32 } %163, 1, !dbg !3444
  store i32 %165, ptr %6, align 4, !dbg !3444
  br label %190, !dbg !3444

166:                                              ; preds = %89
  %167 = landingpad { ptr, i32 }
          cleanup, !dbg !3444
  %168 = extractvalue { ptr, i32 } %167, 0, !dbg !3444
  store ptr %168, ptr %5, align 8, !dbg !3444
  %169 = extractvalue { ptr, i32 } %167, 1, !dbg !3444
  store i32 %169, ptr %6, align 4, !dbg !3444
  br label %189, !dbg !3444

170:                                              ; preds = %90
  %171 = landingpad { ptr, i32 }
          cleanup, !dbg !3444
  %172 = extractvalue { ptr, i32 } %171, 0, !dbg !3444
  store ptr %172, ptr %5, align 8, !dbg !3444
  %173 = extractvalue { ptr, i32 } %171, 1, !dbg !3444
  store i32 %173, ptr %6, align 4, !dbg !3444
  br label %188, !dbg !3444

174:                                              ; preds = %91
  %175 = landingpad { ptr, i32 }
          cleanup, !dbg !3444
  %176 = extractvalue { ptr, i32 } %175, 0, !dbg !3444
  store ptr %176, ptr %5, align 8, !dbg !3444
  %177 = extractvalue { ptr, i32 } %175, 1, !dbg !3444
  store i32 %177, ptr %6, align 4, !dbg !3444
  br label %187, !dbg !3444

178:                                              ; preds = %94
  %179 = landingpad { ptr, i32 }
          cleanup, !dbg !3444
  %180 = extractvalue { ptr, i32 } %179, 0, !dbg !3444
  store ptr %180, ptr %5, align 8, !dbg !3444
  %181 = extractvalue { ptr, i32 } %179, 1, !dbg !3444
  store i32 %181, ptr %6, align 4, !dbg !3444
  br label %186, !dbg !3444

182:                                              ; preds = %95
  %183 = landingpad { ptr, i32 }
          cleanup, !dbg !3444
  %184 = extractvalue { ptr, i32 } %183, 0, !dbg !3444
  store ptr %184, ptr %5, align 8, !dbg !3444
  %185 = extractvalue { ptr, i32 } %183, 1, !dbg !3444
  store i32 %185, ptr %6, align 4, !dbg !3444
  call void @_ZNSt7__cxx1112basic_stringIcSt11char_traitsIcESaIcEED1Ev(ptr noundef nonnull align 8 dereferenceable(32) %23) #3, !dbg !3436
  br label %186, !dbg !3436

186:                                              ; preds = %182, %178
  call void @_ZNSt7__cxx1112basic_stringIcSt11char_traitsIcESaIcEED1Ev(ptr noundef nonnull align 8 dereferenceable(32) %29) #3, !dbg !3436
  br label %187, !dbg !3436

187:                                              ; preds = %186, %174
  call void @_ZNSt7__cxx1112basic_stringIcSt11char_traitsIcESaIcEED1Ev(ptr noundef nonnull align 8 dereferenceable(32) %24) #3, !dbg !3436
  br label %188, !dbg !3436

188:                                              ; preds = %187, %170
  call void @_ZNSt7__cxx1112basic_stringIcSt11char_traitsIcESaIcEED1Ev(ptr noundef nonnull align 8 dereferenceable(32) %25) #3, !dbg !3436
  br label %189, !dbg !3436

189:                                              ; preds = %188, %166
  call void @_ZNSt7__cxx1112basic_stringIcSt11char_traitsIcESaIcEED1Ev(ptr noundef nonnull align 8 dereferenceable(32) %26) #3, !dbg !3436
  br label %190, !dbg !3436

190:                                              ; preds = %189, %162
  call void @_ZNSt7__cxx1112basic_stringIcSt11char_traitsIcESaIcEED1Ev(ptr noundef nonnull align 8 dereferenceable(32) %28) #3, !dbg !3436
  br label %191, !dbg !3436

191:                                              ; preds = %190, %158
  call void @_ZNSt7__cxx1112basic_stringIcSt11char_traitsIcESaIcEED1Ev(ptr noundef nonnull align 8 dereferenceable(32) %27) #3, !dbg !3436
  br label %223, !dbg !3436

192:                                              ; preds = %61
  invoke void @_ZN16AsyncImageLoader7LoadSetERSt6vectorINSt7__cxx1112basic_stringIcSt11char_traitsIcESaIcEEESaIS6_EERS0_I11BinaryImageSaISA_EES9_RS0_I9FlexImageIhLi1EESaISF_EE(ptr noundef nonnull align 8 dereferenceable(492) %30, ptr noundef nonnull align 8 dereferenceable(24) %9, ptr noundef nonnull align 8 dereferenceable(24) %7, ptr noundef nonnull align 8 dereferenceable(24) %11, ptr noundef nonnull align 8 dereferenceable(24) %3)
          to label %193 unwind label %120, !dbg !3445

193:                                              ; preds = %192
  %194 = getelementptr inbounds %class.AsyncImageLoader, ptr %30, i32 0, i32 6, !dbg !3446
  invoke void @_ZN7threads5Mutex4LockEv(ptr noundef nonnull align 8 dereferenceable(48) %194)
          to label %195 unwind label %120, !dbg !3447

195:                                              ; preds = %193
  %196 = getelementptr inbounds %class.AsyncImageLoader, ptr %30, i32 0, i32 1, !dbg !3448
  invoke void @_ZNSt5dequeISt6vectorI9FlexImageIhLi1EESaIS2_EESaIS4_EE9push_backERKS4_(ptr noundef nonnull align 8 dereferenceable(80) %196, ptr noundef nonnull align 8 dereferenceable(24) %3)
          to label %197 unwind label %120, !dbg !3449

197:                                              ; preds = %195
  %198 = getelementptr inbounds %class.AsyncImageLoader, ptr %30, i32 0, i32 2, !dbg !3450
  invoke void @_ZNSt5dequeISt6vectorI11BinaryImageSaIS1_EESaIS3_EE9push_backERKS3_(ptr noundef nonnull align 8 dereferenceable(80) %198, ptr noundef nonnull align 8 dereferenceable(24) %7)
          to label %199 unwind label %120, !dbg !3451

199:                                              ; preds = %197
  %200 = getelementptr inbounds %class.AsyncImageLoader, ptr %30, i32 0, i32 6, !dbg !3452
  invoke void @_ZN7threads5Mutex6UnlockEv(ptr noundef nonnull align 8 dereferenceable(48) %200)
          to label %201 unwind label %120, !dbg !3453

201:                                              ; preds = %199
  %202 = getelementptr inbounds %class.AsyncImageLoader, ptr %30, i32 0, i32 10, !dbg !3454
  %203 = invoke noundef i32 @_ZN7threads9Condition9NotifyOneEv(ptr noundef nonnull align 8 dereferenceable(64) %202)
          to label %204 unwind label %120, !dbg !3455

204:                                              ; preds = %201
  %205 = getelementptr inbounds %class.AsyncImageLoader, ptr %30, i32 0, i32 1, !dbg !3456
  %206 = call noundef i64 @_ZNKSt5dequeISt6vectorI9FlexImageIhLi1EESaIS2_EESaIS4_EE4sizeEv(ptr noundef nonnull align 8 dereferenceable(80) %205) #3, !dbg !3458
  %207 = getelementptr inbounds %class.AsyncImageLoader, ptr %30, i32 0, i32 4, !dbg !3459
  %208 = load i32, ptr %207, align 4, !dbg !3459
  %209 = zext i32 %208 to i64, !dbg !3459
  %210 = icmp uge i64 %206, %209, !dbg !3460
  br i1 %210, label %211, label %218, !dbg !3461

211:                                              ; preds = %204
  %212 = getelementptr inbounds %class.AsyncImageLoader, ptr %30, i32 0, i32 7, !dbg !3462
  invoke void @_ZN7threads5Mutex4LockEv(ptr noundef nonnull align 8 dereferenceable(48) %212)
          to label %213 unwind label %120, !dbg !3464

213:                                              ; preds = %211
  %214 = getelementptr inbounds %class.AsyncImageLoader, ptr %30, i32 0, i32 9, !dbg !3465
  invoke void @_ZN7threads9Condition4WaitEv(ptr noundef nonnull align 8 dereferenceable(64) %214)
          to label %215 unwind label %120, !dbg !3466

215:                                              ; preds = %213
  %216 = getelementptr inbounds %class.AsyncImageLoader, ptr %30, i32 0, i32 7, !dbg !3467
  invoke void @_ZN7threads5Mutex6UnlockEv(ptr noundef nonnull align 8 dereferenceable(48) %216)
          to label %217 unwind label %120, !dbg !3468

217:                                              ; preds = %215
  br label %218, !dbg !3469

218:                                              ; preds = %217, %204
  %219 = getelementptr inbounds %class.AsyncImageLoader, ptr %30, i32 0, i32 13, !dbg !3470
  %220 = load i32, ptr %219, align 4, !dbg !3471
  %221 = add i32 %220, 1, !dbg !3471
  store i32 %221, ptr %219, align 4, !dbg !3471
  br label %47, !dbg !3390, !llvm.loop !3472

222:                                              ; preds = %58
  call void @_ZNSt6vectorINSt7__cxx1112basic_stringIcSt11char_traitsIcESaIcEEESaIS5_EED2Ev(ptr noundef nonnull align 8 dereferenceable(24) %11) #3, !dbg !3443
  call void @_ZNSt6vectorINSt7__cxx1112basic_stringIcSt11char_traitsIcESaIcEEESaIS5_EED2Ev(ptr noundef nonnull align 8 dereferenceable(24) %9) #3, !dbg !3443
  call void @_ZNSt6vectorI11BinaryImageSaIS0_EED2Ev(ptr noundef nonnull align 8 dereferenceable(24) %7) #3, !dbg !3443
  call void @_ZNSt6vectorI9FlexImageIhLi1EESaIS1_EED2Ev(ptr noundef nonnull align 8 dereferenceable(24) %3) #3, !dbg !3443
  ret void, !dbg !3443

223:                                              ; preds = %191, %157, %120
  call void @_ZNSt6vectorINSt7__cxx1112basic_stringIcSt11char_traitsIcESaIcEEESaIS5_EED2Ev(ptr noundef nonnull align 8 dereferenceable(24) %11) #3, !dbg !3443
  br label %224, !dbg !3443

224:                                              ; preds = %223, %116
  call void @_ZNSt6vectorINSt7__cxx1112basic_stringIcSt11char_traitsIcESaIcEEESaIS5_EED2Ev(ptr noundef nonnull align 8 dereferenceable(24) %9) #3, !dbg !3443
  br label %225, !dbg !3443

225:                                              ; preds = %224, %112
  call void @_ZNSt6vectorI11BinaryImageSaIS0_EED2Ev(ptr noundef nonnull align 8 dereferenceable(24) %7) #3, !dbg !3443
  br label %226, !dbg !3443

226:                                              ; preds = %225, %108
  call void @_ZNSt6vectorI9FlexImageIhLi1EESaIS1_EED2Ev(ptr noundef nonnull align 8 dereferenceable(24) %3) #3, !dbg !3443
  br label %227, !dbg !3443

227:                                              ; preds = %226, %104
  %228 = load ptr, ptr %5, align 8, !dbg !3379
  %229 = load i32, ptr %6, align 4, !dbg !3379
  %230 = insertvalue { ptr, i32 } poison, ptr %228, 0, !dbg !3379
  %231 = insertvalue { ptr, i32 } %230, i32 %229, 1, !dbg !3379
  resume { ptr, i32 } %231, !dbg !3379
}

; Function Attrs: noinline nounwind optnone uwtable
define linkonce_odr dso_local void @_ZNSaI9FlexImageIhLi1EEEC2Ev(ptr noundef nonnull align 1 dereferenceable(1) %0) unnamed_addr #7 comdat align 2 !dbg !3474 {
  %2 = alloca ptr, align 8
  store ptr %0, ptr %2, align 8
  call void @llvm.dbg.declare(metadata ptr %2, metadata !3475, metadata !DIExpression()), !dbg !3477
  %3 = load ptr, ptr %2, align 8
  call void @_ZN9__gnu_cxx13new_allocatorI9FlexImageIhLi1EEEC2Ev(ptr noundef nonnull align 1 dereferenceable(1) %3) #3, !dbg !3478
  ret void, !dbg !3479
}

; Function Attrs: noinline optnone uwtable
define linkonce_odr dso_local void @_ZNSt6vectorI9FlexImageIhLi1EESaIS1_EEC2EmRKS2_(ptr noundef nonnull align 8 dereferenceable(24) %0, i64 noundef %1, ptr noundef nonnull align 1 dereferenceable(1) %2) unnamed_addr #8 comdat align 2 personality ptr @__gxx_personality_v0 !dbg !3480 {
  %4 = alloca ptr, align 8
  %5 = alloca i64, align 8
  %6 = alloca ptr, align 8
  %7 = alloca ptr, align 8
  %8 = alloca i32, align 4
  store ptr %0, ptr %4, align 8
  call void @llvm.dbg.declare(metadata ptr %4, metadata !3481, metadata !DIExpression()), !dbg !3482
  store i64 %1, ptr %5, align 8
  call void @llvm.dbg.declare(metadata ptr %5, metadata !3483, metadata !DIExpression()), !dbg !3484
  store ptr %2, ptr %6, align 8
  call void @llvm.dbg.declare(metadata ptr %6, metadata !3485, metadata !DIExpression()), !dbg !3486
  %9 = load ptr, ptr %4, align 8
  %10 = load i64, ptr %5, align 8, !dbg !3487
  %11 = load ptr, ptr %6, align 8, !dbg !3488
  %12 = call noundef i64 @_ZNSt6vectorI9FlexImageIhLi1EESaIS1_EE17_S_check_init_lenEmRKS2_(i64 noundef %10, ptr noundef nonnull align 1 dereferenceable(1) %11), !dbg !3489
  %13 = load ptr, ptr %6, align 8, !dbg !3490
  call void @_ZNSt12_Vector_baseI9FlexImageIhLi1EESaIS1_EEC2EmRKS2_(ptr noundef nonnull align 8 dereferenceable(24) %9, i64 noundef %12, ptr noundef nonnull align 1 dereferenceable(1) %13), !dbg !3491
  %14 = load i64, ptr %5, align 8, !dbg !3492
  invoke void @_ZNSt6vectorI9FlexImageIhLi1EESaIS1_EE21_M_default_initializeEm(ptr noundef nonnull align 8 dereferenceable(24) %9, i64 noundef %14)
          to label %15 unwind label %16, !dbg !3494

15:                                               ; preds = %3
  ret void, !dbg !3495

16:                                               ; preds = %3
  %17 = landingpad { ptr, i32 }
          cleanup, !dbg !3496
  %18 = extractvalue { ptr, i32 } %17, 0, !dbg !3496
  store ptr %18, ptr %7, align 8, !dbg !3496
  %19 = extractvalue { ptr, i32 } %17, 1, !dbg !3496
  store i32 %19, ptr %8, align 4, !dbg !3496
  call void @_ZNSt12_Vector_baseI9FlexImageIhLi1EESaIS1_EED2Ev(ptr noundef nonnull align 8 dereferenceable(24) %9) #3, !dbg !3496
  br label %20, !dbg !3496

20:                                               ; preds = %16
  %21 = load ptr, ptr %7, align 8, !dbg !3496
  %22 = load i32, ptr %8, align 4, !dbg !3496
  %23 = insertvalue { ptr, i32 } poison, ptr %21, 0, !dbg !3496
  %24 = insertvalue { ptr, i32 } %23, i32 %22, 1, !dbg !3496
  resume { ptr, i32 } %24, !dbg !3496
}

; Function Attrs: noinline nounwind optnone uwtable
define linkonce_odr dso_local void @_ZNSaI9FlexImageIhLi1EEED2Ev(ptr noundef nonnull align 1 dereferenceable(1) %0) unnamed_addr #7 comdat align 2 !dbg !3497 {
  %2 = alloca ptr, align 8
  store ptr %0, ptr %2, align 8
  call void @llvm.dbg.declare(metadata ptr %2, metadata !3498, metadata !DIExpression()), !dbg !3499
  %3 = load ptr, ptr %2, align 8
  call void @_ZN9__gnu_cxx13new_allocatorI9FlexImageIhLi1EEED2Ev(ptr noundef nonnull align 1 dereferenceable(1) %3) #3, !dbg !3500
  ret void, !dbg !3502
}

; Function Attrs: noinline nounwind optnone uwtable
define linkonce_odr dso_local void @_ZNSaI11BinaryImageEC2Ev(ptr noundef nonnull align 1 dereferenceable(1) %0) unnamed_addr #7 comdat align 2 !dbg !3503 {
  %2 = alloca ptr, align 8
  store ptr %0, ptr %2, align 8
  call void @llvm.dbg.declare(metadata ptr %2, metadata !3504, metadata !DIExpression()), !dbg !3506
  %3 = load ptr, ptr %2, align 8
  call void @_ZN9__gnu_cxx13new_allocatorI11BinaryImageEC2Ev(ptr noundef nonnull align 1 dereferenceable(1) %3) #3, !dbg !3507
  ret void, !dbg !3508
}

; Function Attrs: noinline optnone uwtable
define linkonce_odr dso_local void @_ZNSt6vectorI11BinaryImageSaIS0_EEC2EmRKS1_(ptr noundef nonnull align 8 dereferenceable(24) %0, i64 noundef %1, ptr noundef nonnull align 1 dereferenceable(1) %2) unnamed_addr #8 comdat align 2 personality ptr @__gxx_personality_v0 !dbg !3509 {
  %4 = alloca ptr, align 8
  %5 = alloca i64, align 8
  %6 = alloca ptr, align 8
  %7 = alloca ptr, align 8
  %8 = alloca i32, align 4
  store ptr %0, ptr %4, align 8
  call void @llvm.dbg.declare(metadata ptr %4, metadata !3510, metadata !DIExpression()), !dbg !3511
  store i64 %1, ptr %5, align 8
  call void @llvm.dbg.declare(metadata ptr %5, metadata !3512, metadata !DIExpression()), !dbg !3513
  store ptr %2, ptr %6, align 8
  call void @llvm.dbg.declare(metadata ptr %6, metadata !3514, metadata !DIExpression()), !dbg !3515
  %9 = load ptr, ptr %4, align 8
  %10 = load i64, ptr %5, align 8, !dbg !3516
  %11 = load ptr, ptr %6, align 8, !dbg !3517
  %12 = call noundef i64 @_ZNSt6vectorI11BinaryImageSaIS0_EE17_S_check_init_lenEmRKS1_(i64 noundef %10, ptr noundef nonnull align 1 dereferenceable(1) %11), !dbg !3518
  %13 = load ptr, ptr %6, align 8, !dbg !3519
  call void @_ZNSt12_Vector_baseI11BinaryImageSaIS0_EEC2EmRKS1_(ptr noundef nonnull align 8 dereferenceable(24) %9, i64 noundef %12, ptr noundef nonnull align 1 dereferenceable(1) %13), !dbg !3520
  %14 = load i64, ptr %5, align 8, !dbg !3521
  invoke void @_ZNSt6vectorI11BinaryImageSaIS0_EE21_M_default_initializeEm(ptr noundef nonnull align 8 dereferenceable(24) %9, i64 noundef %14)
          to label %15 unwind label %16, !dbg !3523

15:                                               ; preds = %3
  ret void, !dbg !3524

16:                                               ; preds = %3
  %17 = landingpad { ptr, i32 }
          cleanup, !dbg !3525
  %18 = extractvalue { ptr, i32 } %17, 0, !dbg !3525
  store ptr %18, ptr %7, align 8, !dbg !3525
  %19 = extractvalue { ptr, i32 } %17, 1, !dbg !3525
  store i32 %19, ptr %8, align 4, !dbg !3525
  call void @_ZNSt12_Vector_baseI11BinaryImageSaIS0_EED2Ev(ptr noundef nonnull align 8 dereferenceable(24) %9) #3, !dbg !3525
  br label %20, !dbg !3525

20:                                               ; preds = %16
  %21 = load ptr, ptr %7, align 8, !dbg !3525
  %22 = load i32, ptr %8, align 4, !dbg !3525
  %23 = insertvalue { ptr, i32 } poison, ptr %21, 0, !dbg !3525
  %24 = insertvalue { ptr, i32 } %23, i32 %22, 1, !dbg !3525
  resume { ptr, i32 } %24, !dbg !3525
}

; Function Attrs: noinline nounwind optnone uwtable
define linkonce_odr dso_local void @_ZNSaI11BinaryImageED2Ev(ptr noundef nonnull align 1 dereferenceable(1) %0) unnamed_addr #7 comdat align 2 !dbg !3526 {
  %2 = alloca ptr, align 8
  store ptr %0, ptr %2, align 8
  call void @llvm.dbg.declare(metadata ptr %2, metadata !3527, metadata !DIExpression()), !dbg !3528
  %3 = load ptr, ptr %2, align 8
  call void @_ZN9__gnu_cxx13new_allocatorI11BinaryImageED2Ev(ptr noundef nonnull align 1 dereferenceable(1) %3) #3, !dbg !3529
  ret void, !dbg !3531
}

; Function Attrs: noinline nounwind optnone uwtable
define linkonce_odr dso_local void @_ZNSaINSt7__cxx1112basic_stringIcSt11char_traitsIcESaIcEEEEC2Ev(ptr noundef nonnull align 1 dereferenceable(1) %0) unnamed_addr #7 comdat align 2 !dbg !3532 {
  %2 = alloca ptr, align 8
  store ptr %0, ptr %2, align 8
  call void @llvm.dbg.declare(metadata ptr %2, metadata !3533, metadata !DIExpression()), !dbg !3535
  %3 = load ptr, ptr %2, align 8
  call void @_ZN9__gnu_cxx13new_allocatorINSt7__cxx1112basic_stringIcSt11char_traitsIcESaIcEEEEC2Ev(ptr noundef nonnull align 1 dereferenceable(1) %3) #3, !dbg !3536
  ret void, !dbg !3537
}

; Function Attrs: noinline optnone uwtable
define linkonce_odr dso_local void @_ZNSt6vectorINSt7__cxx1112basic_stringIcSt11char_traitsIcESaIcEEESaIS5_EEC2EmRKS6_(ptr noundef nonnull align 8 dereferenceable(24) %0, i64 noundef %1, ptr noundef nonnull align 1 dereferenceable(1) %2) unnamed_addr #8 comdat align 2 personality ptr @__gxx_personality_v0 !dbg !3538 {
  %4 = alloca ptr, align 8
  %5 = alloca i64, align 8
  %6 = alloca ptr, align 8
  %7 = alloca ptr, align 8
  %8 = alloca i32, align 4
  store ptr %0, ptr %4, align 8
  call void @llvm.dbg.declare(metadata ptr %4, metadata !3539, metadata !DIExpression()), !dbg !3540
  store i64 %1, ptr %5, align 8
  call void @llvm.dbg.declare(metadata ptr %5, metadata !3541, metadata !DIExpression()), !dbg !3542
  store ptr %2, ptr %6, align 8
  call void @llvm.dbg.declare(metadata ptr %6, metadata !3543, metadata !DIExpression()), !dbg !3544
  %9 = load ptr, ptr %4, align 8
  %10 = load i64, ptr %5, align 8, !dbg !3545
  %11 = load ptr, ptr %6, align 8, !dbg !3546
  %12 = call noundef i64 @_ZNSt6vectorINSt7__cxx1112basic_stringIcSt11char_traitsIcESaIcEEESaIS5_EE17_S_check_init_lenEmRKS6_(i64 noundef %10, ptr noundef nonnull align 1 dereferenceable(1) %11), !dbg !3547
  %13 = load ptr, ptr %6, align 8, !dbg !3548
  call void @_ZNSt12_Vector_baseINSt7__cxx1112basic_stringIcSt11char_traitsIcESaIcEEESaIS5_EEC2EmRKS6_(ptr noundef nonnull align 8 dereferenceable(24) %9, i64 noundef %12, ptr noundef nonnull align 1 dereferenceable(1) %13), !dbg !3549
  %14 = load i64, ptr %5, align 8, !dbg !3550
  invoke void @_ZNSt6vectorINSt7__cxx1112basic_stringIcSt11char_traitsIcESaIcEEESaIS5_EE21_M_default_initializeEm(ptr noundef nonnull align 8 dereferenceable(24) %9, i64 noundef %14)
          to label %15 unwind label %16, !dbg !3552

15:                                               ; preds = %3
  ret void, !dbg !3553

16:                                               ; preds = %3
  %17 = landingpad { ptr, i32 }
          cleanup, !dbg !3554
  %18 = extractvalue { ptr, i32 } %17, 0, !dbg !3554
  store ptr %18, ptr %7, align 8, !dbg !3554
  %19 = extractvalue { ptr, i32 } %17, 1, !dbg !3554
  store i32 %19, ptr %8, align 4, !dbg !3554
  call void @_ZNSt12_Vector_baseINSt7__cxx1112basic_stringIcSt11char_traitsIcESaIcEEESaIS5_EED2Ev(ptr noundef nonnull align 8 dereferenceable(24) %9) #3, !dbg !3554
  br label %20, !dbg !3554

20:                                               ; preds = %16
  %21 = load ptr, ptr %7, align 8, !dbg !3554
  %22 = load i32, ptr %8, align 4, !dbg !3554
  %23 = insertvalue { ptr, i32 } poison, ptr %21, 0, !dbg !3554
  %24 = insertvalue { ptr, i32 } %23, i32 %22, 1, !dbg !3554
  resume { ptr, i32 } %24, !dbg !3554
}

; Function Attrs: noinline nounwind optnone uwtable
define linkonce_odr dso_local void @_ZNSaINSt7__cxx1112basic_stringIcSt11char_traitsIcESaIcEEEED2Ev(ptr noundef nonnull align 1 dereferenceable(1) %0) unnamed_addr #7 comdat align 2 !dbg !3555 {
  %2 = alloca ptr, align 8
  store ptr %0, ptr %2, align 8
  call void @llvm.dbg.declare(metadata ptr %2, metadata !3556, metadata !DIExpression()), !dbg !3557
  %3 = load ptr, ptr %2, align 8
  call void @_ZN9__gnu_cxx13new_allocatorINSt7__cxx1112basic_stringIcSt11char_traitsIcESaIcEEEED2Ev(ptr noundef nonnull align 1 dereferenceable(1) %3) #3, !dbg !3558
  ret void, !dbg !3560
}

; Function Attrs: mustprogress noinline optnone uwtable
define linkonce_odr dso_local void @_ZStplIcSt11char_traitsIcESaIcEENSt7__cxx1112basic_stringIT_T0_T1_EEOS8_PKS5_(ptr noalias sret(%"class.std::__cxx11::basic_string") align 8 %0, ptr noundef nonnull align 8 dereferenceable(32) %1, ptr noundef %2) #4 comdat !dbg !3561 {
  %4 = alloca ptr, align 8
  %5 = alloca ptr, align 8
  %6 = alloca ptr, align 8
  store ptr %0, ptr %4, align 8
  store ptr %1, ptr %5, align 8
  call void @llvm.dbg.declare(metadata ptr %5, metadata !3622, metadata !DIExpression()), !dbg !3623
  store ptr %2, ptr %6, align 8
  call void @llvm.dbg.declare(metadata ptr %6, metadata !3624, metadata !DIExpression()), !dbg !3625
  %7 = load ptr, ptr %5, align 8, !dbg !3626
  %8 = load ptr, ptr %6, align 8, !dbg !3627
  %9 = call noundef nonnull align 8 dereferenceable(32) ptr @_ZNSt7__cxx1112basic_stringIcSt11char_traitsIcESaIcEE6appendEPKc(ptr noundef nonnull align 8 dereferenceable(32) %7, ptr noundef %8), !dbg !3628
  call void @_ZNSt7__cxx1112basic_stringIcSt11char_traitsIcESaIcEEC1EOS4_(ptr noundef nonnull align 8 dereferenceable(32) %0, ptr noundef nonnull align 8 dereferenceable(32) %9) #3, !dbg !3629
  ret void, !dbg !3630
}

; Function Attrs: mustprogress noinline optnone uwtable
define linkonce_odr dso_local void @_ZStplIcSt11char_traitsIcESaIcEENSt7__cxx1112basic_stringIT_T0_T1_EEOS8_S9_(ptr noalias sret(%"class.std::__cxx11::basic_string") align 8 %0, ptr noundef nonnull align 8 dereferenceable(32) %1, ptr noundef nonnull align 8 dereferenceable(32) %2) #4 comdat !dbg !3631 {
  %4 = alloca ptr, align 8
  %5 = alloca ptr, align 8
  %6 = alloca ptr, align 8
  %7 = alloca i8, align 1
  %8 = alloca i64, align 8
  store ptr %0, ptr %4, align 8
  store ptr %1, ptr %5, align 8
  call void @llvm.dbg.declare(metadata ptr %5, metadata !3634, metadata !DIExpression()), !dbg !3635
  store ptr %2, ptr %6, align 8
  call void @llvm.dbg.declare(metadata ptr %6, metadata !3636, metadata !DIExpression()), !dbg !3637
  call void @llvm.dbg.declare(metadata ptr %7, metadata !3638, metadata !DIExpression()), !dbg !3639
  store i8 0, ptr %7, align 1, !dbg !3639
  store i8 1, ptr %7, align 1, !dbg !3640
  %9 = load i8, ptr %7, align 1, !dbg !3642
  %10 = trunc i8 %9 to i1, !dbg !3642
  br i1 %10, label %11, label %31, !dbg !3644

11:                                               ; preds = %3
  call void @llvm.dbg.declare(metadata ptr %8, metadata !3645, metadata !DIExpression()), !dbg !3693
  %12 = load ptr, ptr %5, align 8, !dbg !3694
  %13 = call noundef i64 @_ZNKSt7__cxx1112basic_stringIcSt11char_traitsIcESaIcEE4sizeEv(ptr noundef nonnull align 8 dereferenceable(32) %12) #3, !dbg !3695
  %14 = load ptr, ptr %6, align 8, !dbg !3696
  %15 = call noundef i64 @_ZNKSt7__cxx1112basic_stringIcSt11char_traitsIcESaIcEE4sizeEv(ptr noundef nonnull align 8 dereferenceable(32) %14) #3, !dbg !3697
  %16 = add i64 %13, %15, !dbg !3698
  store i64 %16, ptr %8, align 8, !dbg !3693
  %17 = load i64, ptr %8, align 8, !dbg !3699
  %18 = load ptr, ptr %5, align 8, !dbg !3701
  %19 = call noundef i64 @_ZNKSt7__cxx1112basic_stringIcSt11char_traitsIcESaIcEE8capacityEv(ptr noundef nonnull align 8 dereferenceable(32) %18) #3, !dbg !3702
  %20 = icmp ugt i64 %17, %19, !dbg !3703
  br i1 %20, label %21, label %30, !dbg !3704

21:                                               ; preds = %11
  %22 = load i64, ptr %8, align 8, !dbg !3705
  %23 = load ptr, ptr %6, align 8, !dbg !3706
  %24 = call noundef i64 @_ZNKSt7__cxx1112basic_stringIcSt11char_traitsIcESaIcEE8capacityEv(ptr noundef nonnull align 8 dereferenceable(32) %23) #3, !dbg !3707
  %25 = icmp ule i64 %22, %24, !dbg !3708
  br i1 %25, label %26, label %30, !dbg !3709

26:                                               ; preds = %21
  %27 = load ptr, ptr %6, align 8, !dbg !3710
  %28 = load ptr, ptr %5, align 8, !dbg !3711
  %29 = call noundef nonnull align 8 dereferenceable(32) ptr @_ZNSt7__cxx1112basic_stringIcSt11char_traitsIcESaIcEE6insertEmRKS4_(ptr noundef nonnull align 8 dereferenceable(32) %27, i64 noundef 0, ptr noundef nonnull align 8 dereferenceable(32) %28), !dbg !3712
  call void @_ZNSt7__cxx1112basic_stringIcSt11char_traitsIcESaIcEEC1EOS4_(ptr noundef nonnull align 8 dereferenceable(32) %0, ptr noundef nonnull align 8 dereferenceable(32) %29) #3, !dbg !3713
  br label %35, !dbg !3714

30:                                               ; preds = %21, %11
  br label %31, !dbg !3715

31:                                               ; preds = %30, %3
  %32 = load ptr, ptr %5, align 8, !dbg !3716
  %33 = load ptr, ptr %6, align 8, !dbg !3717
  %34 = call noundef nonnull align 8 dereferenceable(32) ptr @_ZNSt7__cxx1112basic_stringIcSt11char_traitsIcESaIcEE6appendERKS4_(ptr noundef nonnull align 8 dereferenceable(32) %32, ptr noundef nonnull align 8 dereferenceable(32) %33), !dbg !3718
  call void @_ZNSt7__cxx1112basic_stringIcSt11char_traitsIcESaIcEEC1EOS4_(ptr noundef nonnull align 8 dereferenceable(32) %0, ptr noundef nonnull align 8 dereferenceable(32) %34) #3, !dbg !3719
  br label %35, !dbg !3720

35:                                               ; preds = %31, %26
  ret void, !dbg !3721
}

; Function Attrs: mustprogress noinline optnone uwtable
define linkonce_odr dso_local void @_ZStplIcSt11char_traitsIcESaIcEENSt7__cxx1112basic_stringIT_T0_T1_EERKS8_PKS5_(ptr noalias sret(%"class.std::__cxx11::basic_string") align 8 %0, ptr noundef nonnull align 8 dereferenceable(32) %1, ptr noundef %2) #4 comdat personality ptr @__gxx_personality_v0 !dbg !3722 {
  %4 = alloca ptr, align 8
  %5 = alloca ptr, align 8
  %6 = alloca ptr, align 8
  %7 = alloca i1, align 1
  %8 = alloca ptr, align 8
  %9 = alloca i32, align 4
  store ptr %0, ptr %4, align 8
  store ptr %1, ptr %5, align 8
  call void @llvm.dbg.declare(metadata ptr %5, metadata !3725, metadata !DIExpression()), !dbg !3726
  store ptr %2, ptr %6, align 8
  call void @llvm.dbg.declare(metadata ptr %6, metadata !3727, metadata !DIExpression()), !dbg !3728
  store i1 false, ptr %7, align 1, !dbg !3729
  call void @llvm.dbg.declare(metadata ptr %4, metadata !3730, metadata !DIExpression(DW_OP_deref)), !dbg !3731
  %10 = load ptr, ptr %5, align 8, !dbg !3732
  call void @_ZNSt7__cxx1112basic_stringIcSt11char_traitsIcESaIcEEC1ERKS4_(ptr noundef nonnull align 8 dereferenceable(32) %0, ptr noundef nonnull align 8 dereferenceable(32) %10), !dbg !3731
  %11 = load ptr, ptr %6, align 8, !dbg !3733
  %12 = invoke noundef nonnull align 8 dereferenceable(32) ptr @_ZNSt7__cxx1112basic_stringIcSt11char_traitsIcESaIcEE6appendEPKc(ptr noundef nonnull align 8 dereferenceable(32) %0, ptr noundef %11)
          to label %13 unwind label %15, !dbg !3734

13:                                               ; preds = %3
  store i1 true, ptr %7, align 1, !dbg !3735
  %14 = load i1, ptr %7, align 1, !dbg !3736
  br i1 %14, label %20, label %19, !dbg !3736

15:                                               ; preds = %3
  %16 = landingpad { ptr, i32 }
          cleanup, !dbg !3736
  %17 = extractvalue { ptr, i32 } %16, 0, !dbg !3736
  store ptr %17, ptr %8, align 8, !dbg !3736
  %18 = extractvalue { ptr, i32 } %16, 1, !dbg !3736
  store i32 %18, ptr %9, align 4, !dbg !3736
  call void @_ZNSt7__cxx1112basic_stringIcSt11char_traitsIcESaIcEED1Ev(ptr noundef nonnull align 8 dereferenceable(32) %0) #3, !dbg !3736
  br label %21, !dbg !3736

19:                                               ; preds = %13
  call void @_ZNSt7__cxx1112basic_stringIcSt11char_traitsIcESaIcEED1Ev(ptr noundef nonnull align 8 dereferenceable(32) %0) #3, !dbg !3736
  br label %20, !dbg !3736

20:                                               ; preds = %19, %13
  ret void, !dbg !3736

21:                                               ; preds = %15
  %22 = load ptr, ptr %8, align 8, !dbg !3736
  %23 = load i32, ptr %9, align 4, !dbg !3736
  %24 = insertvalue { ptr, i32 } poison, ptr %22, 0, !dbg !3736
  %25 = insertvalue { ptr, i32 } %24, i32 %23, 1, !dbg !3736
  resume { ptr, i32 } %25, !dbg !3736
}

; Function Attrs: mustprogress noinline optnone uwtable
define linkonce_odr dso_local void @_Z3strIjENSt7__cxx1112basic_stringIcSt11char_traitsIcESaIcEEET_ic(ptr noalias sret(%"class.std::__cxx11::basic_string") align 8 %0, i32 noundef %1, i32 noundef %2, i8 noundef signext %3) #4 comdat personality ptr @__gxx_personality_v0 !dbg !3737 {
  %5 = alloca ptr, align 8
  %6 = alloca i32, align 4
  %7 = alloca i32, align 4
  %8 = alloca i8, align 1
  %9 = alloca %"class.std::__cxx11::basic_stringstream", align 8
  %10 = alloca %"struct.std::_Setw", align 4
  %11 = alloca ptr, align 8
  %12 = alloca i32, align 4
  %13 = alloca %"struct.std::_Setfill", align 1
  store ptr %0, ptr %5, align 8
  store i32 %1, ptr %6, align 4
  call void @llvm.dbg.declare(metadata ptr %6, metadata !3742, metadata !DIExpression()), !dbg !3743
  store i32 %2, ptr %7, align 4
  call void @llvm.dbg.declare(metadata ptr %7, metadata !3744, metadata !DIExpression()), !dbg !3745
  store i8 %3, ptr %8, align 1
  call void @llvm.dbg.declare(metadata ptr %8, metadata !3746, metadata !DIExpression()), !dbg !3747
  call void @llvm.dbg.declare(metadata ptr %9, metadata !3748, metadata !DIExpression()), !dbg !3753
  call void @_ZNSt7__cxx1118basic_stringstreamIcSt11char_traitsIcESaIcEEC1Ev(ptr noundef nonnull align 8 dereferenceable(128) %9), !dbg !3753
  %14 = getelementptr inbounds i8, ptr %9, i64 16, !dbg !3754
  %15 = load i32, ptr %7, align 4, !dbg !3755
  %16 = invoke i32 @_ZSt4setwi(i32 noundef %15)
          to label %17 unwind label %35, !dbg !3756

17:                                               ; preds = %4
  %18 = getelementptr inbounds %"struct.std::_Setw", ptr %10, i32 0, i32 0, !dbg !3756
  store i32 %16, ptr %18, align 4, !dbg !3756
  %19 = getelementptr inbounds %"struct.std::_Setw", ptr %10, i32 0, i32 0, !dbg !3757
  %20 = load i32, ptr %19, align 4, !dbg !3757
  %21 = invoke noundef nonnull align 8 dereferenceable(8) ptr @_ZStlsIcSt11char_traitsIcEERSt13basic_ostreamIT_T0_ES6_St5_Setw(ptr noundef nonnull align 8 dereferenceable(8) %14, i32 %20)
          to label %22 unwind label %35, !dbg !3757

22:                                               ; preds = %17
  %23 = load i8, ptr %8, align 1, !dbg !3758
  %24 = invoke i8 @_ZSt7setfillIcESt8_SetfillIT_ES1_(i8 noundef signext %23)
          to label %25 unwind label %35, !dbg !3759

25:                                               ; preds = %22
  %26 = getelementptr inbounds %"struct.std::_Setfill", ptr %13, i32 0, i32 0, !dbg !3759
  store i8 %24, ptr %26, align 1, !dbg !3759
  %27 = getelementptr inbounds %"struct.std::_Setfill", ptr %13, i32 0, i32 0, !dbg !3760
  %28 = load i8, ptr %27, align 1, !dbg !3760
  %29 = invoke noundef nonnull align 8 dereferenceable(8) ptr @_ZStlsIcSt11char_traitsIcEERSt13basic_ostreamIT_T0_ES6_St8_SetfillIS3_E(ptr noundef nonnull align 8 dereferenceable(8) %21, i8 %28)
          to label %30 unwind label %35, !dbg !3760

30:                                               ; preds = %25
  %31 = load i32, ptr %6, align 4, !dbg !3761
  %32 = invoke noundef nonnull align 8 dereferenceable(8) ptr @_ZNSolsEj(ptr noundef nonnull align 8 dereferenceable(8) %29, i32 noundef %31)
          to label %33 unwind label %35, !dbg !3762

33:                                               ; preds = %30
  invoke void @_ZNKSt7__cxx1118basic_stringstreamIcSt11char_traitsIcESaIcEE3strEv(ptr sret(%"class.std::__cxx11::basic_string") align 8 %0, ptr noundef nonnull align 8 dereferenceable(128) %9)
          to label %34 unwind label %35, !dbg !3763

34:                                               ; preds = %33
  call void @_ZNSt7__cxx1118basic_stringstreamIcSt11char_traitsIcESaIcEED1Ev(ptr noundef nonnull align 8 dereferenceable(128) %9) #3, !dbg !3764
  ret void, !dbg !3764

35:                                               ; preds = %33, %30, %25, %22, %17, %4
  %36 = landingpad { ptr, i32 }
          cleanup, !dbg !3764
  %37 = extractvalue { ptr, i32 } %36, 0, !dbg !3764
  store ptr %37, ptr %11, align 8, !dbg !3764
  %38 = extractvalue { ptr, i32 } %36, 1, !dbg !3764
  store i32 %38, ptr %12, align 4, !dbg !3764
  call void @_ZNSt7__cxx1118basic_stringstreamIcSt11char_traitsIcESaIcEED1Ev(ptr noundef nonnull align 8 dereferenceable(128) %9) #3, !dbg !3764
  br label %39, !dbg !3764

39:                                               ; preds = %35
  %40 = load ptr, ptr %11, align 8, !dbg !3764
  %41 = load i32, ptr %12, align 4, !dbg !3764
  %42 = insertvalue { ptr, i32 } poison, ptr %40, 0, !dbg !3764
  %43 = insertvalue { ptr, i32 } %42, i32 %41, 1, !dbg !3764
  resume { ptr, i32 } %43, !dbg !3764
}

; Function Attrs: nounwind
declare noundef nonnull align 8 dereferenceable(32) ptr @_ZNSt7__cxx1112basic_stringIcSt11char_traitsIcESaIcEEaSEOS4_(ptr noundef nonnull align 8 dereferenceable(32), ptr noundef nonnull align 8 dereferenceable(32)) #2

; Function Attrs: nounwind
declare void @_ZNSt7__cxx1112basic_stringIcSt11char_traitsIcESaIcEED1Ev(ptr noundef nonnull align 8 dereferenceable(32)) unnamed_addr #2

declare void @_ZN7threads5Mutex4LockEv(ptr noundef nonnull align 8 dereferenceable(48)) unnamed_addr #1

; Function Attrs: mustprogress noinline optnone uwtable
define linkonce_odr dso_local void @_ZNSt5dequeISt6vectorI9FlexImageIhLi1EESaIS2_EESaIS4_EE9push_backERKS4_(ptr noundef nonnull align 8 dereferenceable(80) %0, ptr noundef nonnull align 8 dereferenceable(24) %1) #4 comdat align 2 !dbg !3765 {
  %3 = alloca ptr, align 8
  %4 = alloca ptr, align 8
  store ptr %0, ptr %3, align 8
  call void @llvm.dbg.declare(metadata ptr %3, metadata !3773, metadata !DIExpression()), !dbg !3775
  store ptr %1, ptr %4, align 8
  call void @llvm.dbg.declare(metadata ptr %4, metadata !3776, metadata !DIExpression()), !dbg !3777
  %5 = load ptr, ptr %3, align 8
  %6 = getelementptr inbounds %"class.std::_Deque_base", ptr %5, i32 0, i32 0, !dbg !3778
  %7 = getelementptr inbounds %"struct.std::_Deque_base<std::vector<FlexImage<unsigned char, 1>>, std::allocator<std::vector<FlexImage<unsigned char, 1>>>>::_Deque_impl_data", ptr %6, i32 0, i32 3, !dbg !3780
  %8 = getelementptr inbounds %"struct.std::_Deque_iterator", ptr %7, i32 0, i32 0, !dbg !3781
  %9 = load ptr, ptr %8, align 8, !dbg !3781
  %10 = getelementptr inbounds %"class.std::_Deque_base", ptr %5, i32 0, i32 0, !dbg !3782
  %11 = getelementptr inbounds %"struct.std::_Deque_base<std::vector<FlexImage<unsigned char, 1>>, std::allocator<std::vector<FlexImage<unsigned char, 1>>>>::_Deque_impl_data", ptr %10, i32 0, i32 3, !dbg !3783
  %12 = getelementptr inbounds %"struct.std::_Deque_iterator", ptr %11, i32 0, i32 2, !dbg !3784
  %13 = load ptr, ptr %12, align 8, !dbg !3784
  %14 = getelementptr inbounds %"class.std::vector", ptr %13, i64 -1, !dbg !3785
  %15 = icmp ne ptr %9, %14, !dbg !3786
  br i1 %15, label %16, label %28, !dbg !3787

16:                                               ; preds = %2
  %17 = getelementptr inbounds %"class.std::_Deque_base", ptr %5, i32 0, i32 0, !dbg !3788
  %18 = getelementptr inbounds %"class.std::_Deque_base", ptr %5, i32 0, i32 0, !dbg !3790
  %19 = getelementptr inbounds %"struct.std::_Deque_base<std::vector<FlexImage<unsigned char, 1>>, std::allocator<std::vector<FlexImage<unsigned char, 1>>>>::_Deque_impl_data", ptr %18, i32 0, i32 3, !dbg !3791
  %20 = getelementptr inbounds %"struct.std::_Deque_iterator", ptr %19, i32 0, i32 0, !dbg !3792
  %21 = load ptr, ptr %20, align 8, !dbg !3792
  %22 = load ptr, ptr %4, align 8, !dbg !3793
  call void @_ZNSt16allocator_traitsISaISt6vectorI9FlexImageIhLi1EESaIS2_EEEE9constructIS4_JRKS4_EEEvRS5_PT_DpOT0_(ptr noundef nonnull align 1 dereferenceable(1) %17, ptr noundef %21, ptr noundef nonnull align 8 dereferenceable(24) %22), !dbg !3794
  %23 = getelementptr inbounds %"class.std::_Deque_base", ptr %5, i32 0, i32 0, !dbg !3795
  %24 = getelementptr inbounds %"struct.std::_Deque_base<std::vector<FlexImage<unsigned char, 1>>, std::allocator<std::vector<FlexImage<unsigned char, 1>>>>::_Deque_impl_data", ptr %23, i32 0, i32 3, !dbg !3796
  %25 = getelementptr inbounds %"struct.std::_Deque_iterator", ptr %24, i32 0, i32 0, !dbg !3797
  %26 = load ptr, ptr %25, align 8, !dbg !3798
  %27 = getelementptr inbounds %"class.std::vector", ptr %26, i32 1, !dbg !3798
  store ptr %27, ptr %25, align 8, !dbg !3798
  br label %30, !dbg !3799

28:                                               ; preds = %2
  %29 = load ptr, ptr %4, align 8, !dbg !3800
  call void @_ZNSt5dequeISt6vectorI9FlexImageIhLi1EESaIS2_EESaIS4_EE16_M_push_back_auxIJRKS4_EEEvDpOT_(ptr noundef nonnull align 8 dereferenceable(80) %5, ptr noundef nonnull align 8 dereferenceable(24) %29), !dbg !3801
  br label %30

30:                                               ; preds = %28, %16
  ret void, !dbg !3802
}

; Function Attrs: mustprogress noinline optnone uwtable
define linkonce_odr dso_local void @_ZNSt5dequeISt6vectorI11BinaryImageSaIS1_EESaIS3_EE9push_backERKS3_(ptr noundef nonnull align 8 dereferenceable(80) %0, ptr noundef nonnull align 8 dereferenceable(24) %1) #4 comdat align 2 !dbg !3803 {
  %3 = alloca ptr, align 8
  %4 = alloca ptr, align 8
  store ptr %0, ptr %3, align 8
  call void @llvm.dbg.declare(metadata ptr %3, metadata !3811, metadata !DIExpression()), !dbg !3813
  store ptr %1, ptr %4, align 8
  call void @llvm.dbg.declare(metadata ptr %4, metadata !3814, metadata !DIExpression()), !dbg !3815
  %5 = load ptr, ptr %3, align 8
  %6 = getelementptr inbounds %"class.std::_Deque_base.4", ptr %5, i32 0, i32 0, !dbg !3816
  %7 = getelementptr inbounds %"struct.std::_Deque_base<std::vector<BinaryImage>, std::allocator<std::vector<BinaryImage>>>::_Deque_impl_data", ptr %6, i32 0, i32 3, !dbg !3818
  %8 = getelementptr inbounds %"struct.std::_Deque_iterator.13", ptr %7, i32 0, i32 0, !dbg !3819
  %9 = load ptr, ptr %8, align 8, !dbg !3819
  %10 = getelementptr inbounds %"class.std::_Deque_base.4", ptr %5, i32 0, i32 0, !dbg !3820
  %11 = getelementptr inbounds %"struct.std::_Deque_base<std::vector<BinaryImage>, std::allocator<std::vector<BinaryImage>>>::_Deque_impl_data", ptr %10, i32 0, i32 3, !dbg !3821
  %12 = getelementptr inbounds %"struct.std::_Deque_iterator.13", ptr %11, i32 0, i32 2, !dbg !3822
  %13 = load ptr, ptr %12, align 8, !dbg !3822
  %14 = getelementptr inbounds %"class.std::vector.8", ptr %13, i64 -1, !dbg !3823
  %15 = icmp ne ptr %9, %14, !dbg !3824
  br i1 %15, label %16, label %28, !dbg !3825

16:                                               ; preds = %2
  %17 = getelementptr inbounds %"class.std::_Deque_base.4", ptr %5, i32 0, i32 0, !dbg !3826
  %18 = getelementptr inbounds %"class.std::_Deque_base.4", ptr %5, i32 0, i32 0, !dbg !3828
  %19 = getelementptr inbounds %"struct.std::_Deque_base<std::vector<BinaryImage>, std::allocator<std::vector<BinaryImage>>>::_Deque_impl_data", ptr %18, i32 0, i32 3, !dbg !3829
  %20 = getelementptr inbounds %"struct.std::_Deque_iterator.13", ptr %19, i32 0, i32 0, !dbg !3830
  %21 = load ptr, ptr %20, align 8, !dbg !3830
  %22 = load ptr, ptr %4, align 8, !dbg !3831
  call void @_ZNSt16allocator_traitsISaISt6vectorI11BinaryImageSaIS1_EEEE9constructIS3_JRKS3_EEEvRS4_PT_DpOT0_(ptr noundef nonnull align 1 dereferenceable(1) %17, ptr noundef %21, ptr noundef nonnull align 8 dereferenceable(24) %22), !dbg !3832
  %23 = getelementptr inbounds %"class.std::_Deque_base.4", ptr %5, i32 0, i32 0, !dbg !3833
  %24 = getelementptr inbounds %"struct.std::_Deque_base<std::vector<BinaryImage>, std::allocator<std::vector<BinaryImage>>>::_Deque_impl_data", ptr %23, i32 0, i32 3, !dbg !3834
  %25 = getelementptr inbounds %"struct.std::_Deque_iterator.13", ptr %24, i32 0, i32 0, !dbg !3835
  %26 = load ptr, ptr %25, align 8, !dbg !3836
  %27 = getelementptr inbounds %"class.std::vector.8", ptr %26, i32 1, !dbg !3836
  store ptr %27, ptr %25, align 8, !dbg !3836
  br label %30, !dbg !3837

28:                                               ; preds = %2
  %29 = load ptr, ptr %4, align 8, !dbg !3838
  call void @_ZNSt5dequeISt6vectorI11BinaryImageSaIS1_EESaIS3_EE16_M_push_back_auxIJRKS3_EEEvDpOT_(ptr noundef nonnull align 8 dereferenceable(80) %5, ptr noundef nonnull align 8 dereferenceable(24) %29), !dbg !3839
  br label %30

30:                                               ; preds = %28, %16
  ret void, !dbg !3840
}

declare void @_ZN7threads5Mutex6UnlockEv(ptr noundef nonnull align 8 dereferenceable(48)) unnamed_addr #1

declare noundef i32 @_ZN7threads9Condition9NotifyOneEv(ptr noundef nonnull align 8 dereferenceable(64)) #1

; Function Attrs: mustprogress noinline nounwind optnone uwtable
define linkonce_odr dso_local noundef i64 @_ZNKSt5dequeISt6vectorI9FlexImageIhLi1EESaIS2_EESaIS4_EE4sizeEv(ptr noundef nonnull align 8 dereferenceable(80) %0) #6 comdat align 2 !dbg !3841 {
  %2 = alloca ptr, align 8
  store ptr %0, ptr %2, align 8
  call void @llvm.dbg.declare(metadata ptr %2, metadata !3848, metadata !DIExpression()), !dbg !3850
  %3 = load ptr, ptr %2, align 8
  %4 = getelementptr inbounds %"class.std::_Deque_base", ptr %3, i32 0, i32 0, !dbg !3851
  %5 = getelementptr inbounds %"struct.std::_Deque_base<std::vector<FlexImage<unsigned char, 1>>, std::allocator<std::vector<FlexImage<unsigned char, 1>>>>::_Deque_impl_data", ptr %4, i32 0, i32 3, !dbg !3852
  %6 = getelementptr inbounds %"class.std::_Deque_base", ptr %3, i32 0, i32 0, !dbg !3853
  %7 = getelementptr inbounds %"struct.std::_Deque_base<std::vector<FlexImage<unsigned char, 1>>, std::allocator<std::vector<FlexImage<unsigned char, 1>>>>::_Deque_impl_data", ptr %6, i32 0, i32 2, !dbg !3854
  %8 = call noundef i64 @_ZStmiRKSt15_Deque_iteratorISt6vectorI9FlexImageIhLi1EESaIS2_EERS4_PS4_ES9_(ptr noundef nonnull align 8 dereferenceable(32) %5, ptr noundef nonnull align 8 dereferenceable(32) %7) #3, !dbg !3855
  ret i64 %8, !dbg !3856
}

declare void @_ZN7threads9Condition4WaitEv(ptr noundef nonnull align 8 dereferenceable(64)) #1

; Function Attrs: noinline nounwind optnone uwtable
define linkonce_odr dso_local void @_ZNSt6vectorINSt7__cxx1112basic_stringIcSt11char_traitsIcESaIcEEESaIS5_EED2Ev(ptr noundef nonnull align 8 dereferenceable(24) %0) unnamed_addr #7 comdat align 2 personality ptr @__gxx_personality_v0 !dbg !3857 {
  %2 = alloca ptr, align 8
  store ptr %0, ptr %2, align 8
  call void @llvm.dbg.declare(metadata ptr %2, metadata !3858, metadata !DIExpression()), !dbg !3859
  %3 = load ptr, ptr %2, align 8
  %4 = getelementptr inbounds %"struct.std::_Vector_base.18", ptr %3, i32 0, i32 0, !dbg !3860
  %5 = getelementptr inbounds %"struct.std::_Vector_base<std::__cxx11::basic_string<char>, std::allocator<std::__cxx11::basic_string<char>>>::_Vector_impl_data", ptr %4, i32 0, i32 0, !dbg !3862
  %6 = load ptr, ptr %5, align 8, !dbg !3862
  %7 = getelementptr inbounds %"struct.std::_Vector_base.18", ptr %3, i32 0, i32 0, !dbg !3863
  %8 = getelementptr inbounds %"struct.std::_Vector_base<std::__cxx11::basic_string<char>, std::allocator<std::__cxx11::basic_string<char>>>::_Vector_impl_data", ptr %7, i32 0, i32 1, !dbg !3864
  %9 = load ptr, ptr %8, align 8, !dbg !3864
  %10 = call noundef nonnull align 1 dereferenceable(1) ptr @_ZNSt12_Vector_baseINSt7__cxx1112basic_stringIcSt11char_traitsIcESaIcEEESaIS5_EE19_M_get_Tp_allocatorEv(ptr noundef nonnull align 8 dereferenceable(24) %3) #3, !dbg !3865
  invoke void @_ZSt8_DestroyIPNSt7__cxx1112basic_stringIcSt11char_traitsIcESaIcEEES5_EvT_S7_RSaIT0_E(ptr noundef %6, ptr noundef %9, ptr noundef nonnull align 1 dereferenceable(1) %10)
          to label %11 unwind label %12, !dbg !3866

11:                                               ; preds = %1
  call void @_ZNSt12_Vector_baseINSt7__cxx1112basic_stringIcSt11char_traitsIcESaIcEEESaIS5_EED2Ev(ptr noundef nonnull align 8 dereferenceable(24) %3) #3, !dbg !3867
  ret void, !dbg !3868

12:                                               ; preds = %1
  %13 = landingpad { ptr, i32 }
          catch ptr null, !dbg !3866
  %14 = extractvalue { ptr, i32 } %13, 0, !dbg !3866
  call void @__clang_call_terminate(ptr %14) #17, !dbg !3866
  unreachable, !dbg !3866
}

; Function Attrs: noinline nounwind optnone uwtable
define linkonce_odr dso_local void @_ZNSt6vectorI11BinaryImageSaIS0_EED2Ev(ptr noundef nonnull align 8 dereferenceable(24) %0) unnamed_addr #7 comdat align 2 personality ptr @__gxx_personality_v0 !dbg !3869 {
  %2 = alloca ptr, align 8
  store ptr %0, ptr %2, align 8
  call void @llvm.dbg.declare(metadata ptr %2, metadata !3870, metadata !DIExpression()), !dbg !3871
  %3 = load ptr, ptr %2, align 8
  %4 = getelementptr inbounds %"struct.std::_Vector_base.9", ptr %3, i32 0, i32 0, !dbg !3872
  %5 = getelementptr inbounds %"struct.std::_Vector_base<BinaryImage, std::allocator<BinaryImage>>::_Vector_impl_data", ptr %4, i32 0, i32 0, !dbg !3874
  %6 = load ptr, ptr %5, align 8, !dbg !3874
  %7 = getelementptr inbounds %"struct.std::_Vector_base.9", ptr %3, i32 0, i32 0, !dbg !3875
  %8 = getelementptr inbounds %"struct.std::_Vector_base<BinaryImage, std::allocator<BinaryImage>>::_Vector_impl_data", ptr %7, i32 0, i32 1, !dbg !3876
  %9 = load ptr, ptr %8, align 8, !dbg !3876
  %10 = call noundef nonnull align 1 dereferenceable(1) ptr @_ZNSt12_Vector_baseI11BinaryImageSaIS0_EE19_M_get_Tp_allocatorEv(ptr noundef nonnull align 8 dereferenceable(24) %3) #3, !dbg !3877
  invoke void @_ZSt8_DestroyIP11BinaryImageS0_EvT_S2_RSaIT0_E(ptr noundef %6, ptr noundef %9, ptr noundef nonnull align 1 dereferenceable(1) %10)
          to label %11 unwind label %12, !dbg !3878

11:                                               ; preds = %1
  call void @_ZNSt12_Vector_baseI11BinaryImageSaIS0_EED2Ev(ptr noundef nonnull align 8 dereferenceable(24) %3) #3, !dbg !3879
  ret void, !dbg !3880

12:                                               ; preds = %1
  %13 = landingpad { ptr, i32 }
          catch ptr null, !dbg !3878
  %14 = extractvalue { ptr, i32 } %13, 0, !dbg !3878
  call void @__clang_call_terminate(ptr %14) #17, !dbg !3878
  unreachable, !dbg !3878
}

; Function Attrs: noinline nounwind optnone uwtable
define linkonce_odr dso_local void @_ZNSt6vectorI9FlexImageIhLi1EESaIS1_EED2Ev(ptr noundef nonnull align 8 dereferenceable(24) %0) unnamed_addr #7 comdat align 2 personality ptr @__gxx_personality_v0 !dbg !3881 {
  %2 = alloca ptr, align 8
  store ptr %0, ptr %2, align 8
  call void @llvm.dbg.declare(metadata ptr %2, metadata !3882, metadata !DIExpression()), !dbg !3883
  %3 = load ptr, ptr %2, align 8
  %4 = getelementptr inbounds %"struct.std::_Vector_base", ptr %3, i32 0, i32 0, !dbg !3884
  %5 = getelementptr inbounds %"struct.std::_Vector_base<FlexImage<unsigned char, 1>, std::allocator<FlexImage<unsigned char, 1>>>::_Vector_impl_data", ptr %4, i32 0, i32 0, !dbg !3886
  %6 = load ptr, ptr %5, align 8, !dbg !3886
  %7 = getelementptr inbounds %"struct.std::_Vector_base", ptr %3, i32 0, i32 0, !dbg !3887
  %8 = getelementptr inbounds %"struct.std::_Vector_base<FlexImage<unsigned char, 1>, std::allocator<FlexImage<unsigned char, 1>>>::_Vector_impl_data", ptr %7, i32 0, i32 1, !dbg !3888
  %9 = load ptr, ptr %8, align 8, !dbg !3888
  %10 = call noundef nonnull align 1 dereferenceable(1) ptr @_ZNSt12_Vector_baseI9FlexImageIhLi1EESaIS1_EE19_M_get_Tp_allocatorEv(ptr noundef nonnull align 8 dereferenceable(24) %3) #3, !dbg !3889
  invoke void @_ZSt8_DestroyIP9FlexImageIhLi1EES1_EvT_S3_RSaIT0_E(ptr noundef %6, ptr noundef %9, ptr noundef nonnull align 1 dereferenceable(1) %10)
          to label %11 unwind label %12, !dbg !3890

11:                                               ; preds = %1
  call void @_ZNSt12_Vector_baseI9FlexImageIhLi1EESaIS1_EED2Ev(ptr noundef nonnull align 8 dereferenceable(24) %3) #3, !dbg !3891
  ret void, !dbg !3892

12:                                               ; preds = %1
  %13 = landingpad { ptr, i32 }
          catch ptr null, !dbg !3890
  %14 = extractvalue { ptr, i32 } %13, 0, !dbg !3890
  call void @__clang_call_terminate(ptr %14) #17, !dbg !3890
  unreachable, !dbg !3890
}

; Function Attrs: mustprogress noinline optnone uwtable
define dso_local noundef zeroext i1 @_ZN16AsyncImageLoader15GetNextImageSetERSt6vectorI9FlexImageIhLi1EESaIS2_EERS0_I11BinaryImageSaIS6_EE(ptr noundef nonnull align 8 dereferenceable(492) %0, ptr noundef nonnull align 8 dereferenceable(24) %1, ptr noundef nonnull align 8 dereferenceable(24) %2) #4 align 2 !dbg !3893 {
  %4 = alloca i1, align 1
  %5 = alloca ptr, align 8
  %6 = alloca ptr, align 8
  %7 = alloca ptr, align 8
  store ptr %0, ptr %5, align 8
  call void @llvm.dbg.declare(metadata ptr %5, metadata !3894, metadata !DIExpression()), !dbg !3895
  store ptr %1, ptr %6, align 8
  call void @llvm.dbg.declare(metadata ptr %6, metadata !3896, metadata !DIExpression()), !dbg !3897
  store ptr %2, ptr %7, align 8
  call void @llvm.dbg.declare(metadata ptr %7, metadata !3898, metadata !DIExpression()), !dbg !3899
  %8 = load ptr, ptr %5, align 8
  %9 = getelementptr inbounds %class.AsyncImageLoader, ptr %8, i32 0, i32 11, !dbg !3900
  %10 = load i8, ptr %9, align 8, !dbg !3900
  %11 = trunc i8 %10 to i1, !dbg !3900
  br i1 %11, label %12, label %13, !dbg !3902

12:                                               ; preds = %3
  store i1 false, ptr %4, align 1, !dbg !3903
  br label %37, !dbg !3903

13:                                               ; preds = %3
  br label %14, !dbg !3904

14:                                               ; preds = %18, %13
  %15 = getelementptr inbounds %class.AsyncImageLoader, ptr %8, i32 0, i32 1, !dbg !3905
  %16 = call noundef i64 @_ZNKSt5dequeISt6vectorI9FlexImageIhLi1EESaIS2_EESaIS4_EE4sizeEv(ptr noundef nonnull align 8 dereferenceable(80) %15) #3, !dbg !3906
  %17 = icmp eq i64 %16, 0, !dbg !3907
  br i1 %17, label %18, label %22, !dbg !3904

18:                                               ; preds = %14
  %19 = getelementptr inbounds %class.AsyncImageLoader, ptr %8, i32 0, i32 8, !dbg !3908
  call void @_ZN7threads5Mutex4LockEv(ptr noundef nonnull align 8 dereferenceable(48) %19), !dbg !3910
  %20 = getelementptr inbounds %class.AsyncImageLoader, ptr %8, i32 0, i32 10, !dbg !3911
  call void @_ZN7threads9Condition4WaitEv(ptr noundef nonnull align 8 dereferenceable(64) %20), !dbg !3912
  %21 = getelementptr inbounds %class.AsyncImageLoader, ptr %8, i32 0, i32 8, !dbg !3913
  call void @_ZN7threads5Mutex6UnlockEv(ptr noundef nonnull align 8 dereferenceable(48) %21), !dbg !3914
  br label %14, !dbg !3904, !llvm.loop !3915

22:                                               ; preds = %14
  %23 = getelementptr inbounds %class.AsyncImageLoader, ptr %8, i32 0, i32 6, !dbg !3917
  call void @_ZN7threads5Mutex4LockEv(ptr noundef nonnull align 8 dereferenceable(48) %23), !dbg !3918
  %24 = getelementptr inbounds %class.AsyncImageLoader, ptr %8, i32 0, i32 1, !dbg !3919
  %25 = call noundef nonnull align 8 dereferenceable(24) ptr @_ZNSt5dequeISt6vectorI9FlexImageIhLi1EESaIS2_EESaIS4_EEixEm(ptr noundef nonnull align 8 dereferenceable(80) %24, i64 noundef 0) #3, !dbg !3919
  %26 = load ptr, ptr %6, align 8, !dbg !3920
  %27 = call noundef nonnull align 8 dereferenceable(24) ptr @_ZNSt6vectorI9FlexImageIhLi1EESaIS1_EEaSERKS3_(ptr noundef nonnull align 8 dereferenceable(24) %26, ptr noundef nonnull align 8 dereferenceable(24) %25), !dbg !3921
  %28 = getelementptr inbounds %class.AsyncImageLoader, ptr %8, i32 0, i32 1, !dbg !3922
  call void @_ZNSt5dequeISt6vectorI9FlexImageIhLi1EESaIS2_EESaIS4_EE9pop_frontEv(ptr noundef nonnull align 8 dereferenceable(80) %28) #3, !dbg !3923
  %29 = getelementptr inbounds %class.AsyncImageLoader, ptr %8, i32 0, i32 2, !dbg !3924
  %30 = call noundef nonnull align 8 dereferenceable(24) ptr @_ZNSt5dequeISt6vectorI11BinaryImageSaIS1_EESaIS3_EEixEm(ptr noundef nonnull align 8 dereferenceable(80) %29, i64 noundef 0) #3, !dbg !3924
  %31 = load ptr, ptr %7, align 8, !dbg !3925
  %32 = call noundef nonnull align 8 dereferenceable(24) ptr @_ZNSt6vectorI11BinaryImageSaIS0_EEaSERKS2_(ptr noundef nonnull align 8 dereferenceable(24) %31, ptr noundef nonnull align 8 dereferenceable(24) %30), !dbg !3926
  %33 = getelementptr inbounds %class.AsyncImageLoader, ptr %8, i32 0, i32 2, !dbg !3927
  call void @_ZNSt5dequeISt6vectorI11BinaryImageSaIS1_EESaIS3_EE9pop_frontEv(ptr noundef nonnull align 8 dereferenceable(80) %33) #3, !dbg !3928
  %34 = getelementptr inbounds %class.AsyncImageLoader, ptr %8, i32 0, i32 6, !dbg !3929
  call void @_ZN7threads5Mutex6UnlockEv(ptr noundef nonnull align 8 dereferenceable(48) %34), !dbg !3930
  %35 = getelementptr inbounds %class.AsyncImageLoader, ptr %8, i32 0, i32 9, !dbg !3931
  %36 = call noundef i32 @_ZN7threads9Condition9NotifyOneEv(ptr noundef nonnull align 8 dereferenceable(64) %35), !dbg !3932
  store i1 true, ptr %4, align 1, !dbg !3933
  br label %37, !dbg !3933

37:                                               ; preds = %22, %12
  %38 = load i1, ptr %4, align 1, !dbg !3934
  ret i1 %38, !dbg !3934
}

; Function Attrs: mustprogress noinline nounwind optnone uwtable
define linkonce_odr dso_local noundef nonnull align 8 dereferenceable(24) ptr @_ZNSt5dequeISt6vectorI9FlexImageIhLi1EESaIS2_EESaIS4_EEixEm(ptr noundef nonnull align 8 dereferenceable(80) %0, i64 noundef %1) #6 comdat align 2 !dbg !3935 {
  %3 = alloca ptr, align 8
  %4 = alloca i64, align 8
  store ptr %0, ptr %3, align 8
  call void @llvm.dbg.declare(metadata ptr %3, metadata !3944, metadata !DIExpression()), !dbg !3945
  store i64 %1, ptr %4, align 8
  call void @llvm.dbg.declare(metadata ptr %4, metadata !3946, metadata !DIExpression()), !dbg !3947
  %5 = load ptr, ptr %3, align 8
  %6 = getelementptr inbounds %"class.std::_Deque_base", ptr %5, i32 0, i32 0, !dbg !3948
  %7 = getelementptr inbounds %"struct.std::_Deque_base<std::vector<FlexImage<unsigned char, 1>>, std::allocator<std::vector<FlexImage<unsigned char, 1>>>>::_Deque_impl_data", ptr %6, i32 0, i32 2, !dbg !3949
  %8 = load i64, ptr %4, align 8, !dbg !3950
  %9 = call noundef nonnull align 8 dereferenceable(24) ptr @_ZNKSt15_Deque_iteratorISt6vectorI9FlexImageIhLi1EESaIS2_EERS4_PS4_EixEl(ptr noundef nonnull align 8 dereferenceable(32) %7, i64 noundef %8) #3, !dbg !3951
  ret ptr %9, !dbg !3952
}

; Function Attrs: mustprogress noinline optnone uwtable
define linkonce_odr dso_local noundef nonnull align 8 dereferenceable(24) ptr @_ZNSt6vectorI9FlexImageIhLi1EESaIS1_EEaSERKS3_(ptr noundef nonnull align 8 dereferenceable(24) %0, ptr noundef nonnull align 8 dereferenceable(24) %1) #4 comdat align 2 !dbg !3953 {
  %3 = alloca ptr, align 8
  %4 = alloca ptr, align 8
  %5 = alloca i64, align 8
  %6 = alloca ptr, align 8
  %7 = alloca %"class.__gnu_cxx::__normal_iterator", align 8
  %8 = alloca %"class.__gnu_cxx::__normal_iterator", align 8
  %9 = alloca %"class.__gnu_cxx::__normal_iterator.29", align 8
  %10 = alloca %"class.__gnu_cxx::__normal_iterator", align 8
  %11 = alloca %"class.__gnu_cxx::__normal_iterator", align 8
  %12 = alloca %"class.__gnu_cxx::__normal_iterator.29", align 8
  %13 = alloca %"class.__gnu_cxx::__normal_iterator.29", align 8
  store ptr %0, ptr %3, align 8
  call void @llvm.dbg.declare(metadata ptr %3, metadata !3955, metadata !DIExpression()), !dbg !3956
  store ptr %1, ptr %4, align 8
  call void @llvm.dbg.declare(metadata ptr %4, metadata !3957, metadata !DIExpression()), !dbg !3958
  %14 = load ptr, ptr %3, align 8
  %15 = load ptr, ptr %4, align 8, !dbg !3959
  %16 = icmp ne ptr %15, %14, !dbg !3961
  br i1 %16, label %17, label %133, !dbg !3962

17:                                               ; preds = %2
  call void @llvm.dbg.declare(metadata ptr %5, metadata !3963, metadata !DIExpression()), !dbg !3966
  %18 = load ptr, ptr %4, align 8, !dbg !3967
  %19 = call noundef i64 @_ZNKSt6vectorI9FlexImageIhLi1EESaIS1_EE4sizeEv(ptr noundef nonnull align 8 dereferenceable(24) %18) #3, !dbg !3968
  store i64 %19, ptr %5, align 8, !dbg !3966
  %20 = load i64, ptr %5, align 8, !dbg !3969
  %21 = call noundef i64 @_ZNKSt6vectorI9FlexImageIhLi1EESaIS1_EE8capacityEv(ptr noundef nonnull align 8 dereferenceable(24) %14) #3, !dbg !3971
  %22 = icmp ugt i64 %20, %21, !dbg !3972
  br i1 %22, label %23, label %66, !dbg !3973

23:                                               ; preds = %17
  call void @llvm.dbg.declare(metadata ptr %6, metadata !3974, metadata !DIExpression()), !dbg !3976
  %24 = load i64, ptr %5, align 8, !dbg !3977
  %25 = load ptr, ptr %4, align 8, !dbg !3978
  %26 = call ptr @_ZNKSt6vectorI9FlexImageIhLi1EESaIS1_EE5beginEv(ptr noundef nonnull align 8 dereferenceable(24) %25) #3, !dbg !3979
  %27 = getelementptr inbounds %"class.__gnu_cxx::__normal_iterator", ptr %7, i32 0, i32 0, !dbg !3979
  store ptr %26, ptr %27, align 8, !dbg !3979
  %28 = load ptr, ptr %4, align 8, !dbg !3980
  %29 = call ptr @_ZNKSt6vectorI9FlexImageIhLi1EESaIS1_EE3endEv(ptr noundef nonnull align 8 dereferenceable(24) %28) #3, !dbg !3981
  %30 = getelementptr inbounds %"class.__gnu_cxx::__normal_iterator", ptr %8, i32 0, i32 0, !dbg !3981
  store ptr %29, ptr %30, align 8, !dbg !3981
  %31 = getelementptr inbounds %"class.__gnu_cxx::__normal_iterator", ptr %7, i32 0, i32 0, !dbg !3982
  %32 = load ptr, ptr %31, align 8, !dbg !3982
  %33 = getelementptr inbounds %"class.__gnu_cxx::__normal_iterator", ptr %8, i32 0, i32 0, !dbg !3982
  %34 = load ptr, ptr %33, align 8, !dbg !3982
  %35 = call noundef ptr @_ZNSt6vectorI9FlexImageIhLi1EESaIS1_EE20_M_allocate_and_copyIN9__gnu_cxx17__normal_iteratorIPKS1_S3_EEEEPS1_mT_SB_(ptr noundef nonnull align 8 dereferenceable(24) %14, i64 noundef %24, ptr %32, ptr %34), !dbg !3982
  store ptr %35, ptr %6, align 8, !dbg !3976
  %36 = getelementptr inbounds %"struct.std::_Vector_base", ptr %14, i32 0, i32 0, !dbg !3983
  %37 = getelementptr inbounds %"struct.std::_Vector_base<FlexImage<unsigned char, 1>, std::allocator<FlexImage<unsigned char, 1>>>::_Vector_impl_data", ptr %36, i32 0, i32 0, !dbg !3984
  %38 = load ptr, ptr %37, align 8, !dbg !3984
  %39 = getelementptr inbounds %"struct.std::_Vector_base", ptr %14, i32 0, i32 0, !dbg !3985
  %40 = getelementptr inbounds %"struct.std::_Vector_base<FlexImage<unsigned char, 1>, std::allocator<FlexImage<unsigned char, 1>>>::_Vector_impl_data", ptr %39, i32 0, i32 1, !dbg !3986
  %41 = load ptr, ptr %40, align 8, !dbg !3986
  %42 = call noundef nonnull align 1 dereferenceable(1) ptr @_ZNSt12_Vector_baseI9FlexImageIhLi1EESaIS1_EE19_M_get_Tp_allocatorEv(ptr noundef nonnull align 8 dereferenceable(24) %14) #3, !dbg !3987
  call void @_ZSt8_DestroyIP9FlexImageIhLi1EES1_EvT_S3_RSaIT0_E(ptr noundef %38, ptr noundef %41, ptr noundef nonnull align 1 dereferenceable(1) %42), !dbg !3988
  %43 = getelementptr inbounds %"struct.std::_Vector_base", ptr %14, i32 0, i32 0, !dbg !3989
  %44 = getelementptr inbounds %"struct.std::_Vector_base<FlexImage<unsigned char, 1>, std::allocator<FlexImage<unsigned char, 1>>>::_Vector_impl_data", ptr %43, i32 0, i32 0, !dbg !3990
  %45 = load ptr, ptr %44, align 8, !dbg !3990
  %46 = getelementptr inbounds %"struct.std::_Vector_base", ptr %14, i32 0, i32 0, !dbg !3991
  %47 = getelementptr inbounds %"struct.std::_Vector_base<FlexImage<unsigned char, 1>, std::allocator<FlexImage<unsigned char, 1>>>::_Vector_impl_data", ptr %46, i32 0, i32 2, !dbg !3992
  %48 = load ptr, ptr %47, align 8, !dbg !3992
  %49 = getelementptr inbounds %"struct.std::_Vector_base", ptr %14, i32 0, i32 0, !dbg !3993
  %50 = getelementptr inbounds %"struct.std::_Vector_base<FlexImage<unsigned char, 1>, std::allocator<FlexImage<unsigned char, 1>>>::_Vector_impl_data", ptr %49, i32 0, i32 0, !dbg !3994
  %51 = load ptr, ptr %50, align 8, !dbg !3994
  %52 = ptrtoint ptr %48 to i64, !dbg !3995
  %53 = ptrtoint ptr %51 to i64, !dbg !3995
  %54 = sub i64 %52, %53, !dbg !3995
  %55 = sdiv exact i64 %54, 40, !dbg !3995
  call void @_ZNSt12_Vector_baseI9FlexImageIhLi1EESaIS1_EE13_M_deallocateEPS1_m(ptr noundef nonnull align 8 dereferenceable(24) %14, ptr noundef %45, i64 noundef %55), !dbg !3996
  %56 = load ptr, ptr %6, align 8, !dbg !3997
  %57 = getelementptr inbounds %"struct.std::_Vector_base", ptr %14, i32 0, i32 0, !dbg !3998
  %58 = getelementptr inbounds %"struct.std::_Vector_base<FlexImage<unsigned char, 1>, std::allocator<FlexImage<unsigned char, 1>>>::_Vector_impl_data", ptr %57, i32 0, i32 0, !dbg !3999
  store ptr %56, ptr %58, align 8, !dbg !4000
  %59 = getelementptr inbounds %"struct.std::_Vector_base", ptr %14, i32 0, i32 0, !dbg !4001
  %60 = getelementptr inbounds %"struct.std::_Vector_base<FlexImage<unsigned char, 1>, std::allocator<FlexImage<unsigned char, 1>>>::_Vector_impl_data", ptr %59, i32 0, i32 0, !dbg !4002
  %61 = load ptr, ptr %60, align 8, !dbg !4002
  %62 = load i64, ptr %5, align 8, !dbg !4003
  %63 = getelementptr inbounds %class.FlexImage, ptr %61, i64 %62, !dbg !4004
  %64 = getelementptr inbounds %"struct.std::_Vector_base", ptr %14, i32 0, i32 0, !dbg !4005
  %65 = getelementptr inbounds %"struct.std::_Vector_base<FlexImage<unsigned char, 1>, std::allocator<FlexImage<unsigned char, 1>>>::_Vector_impl_data", ptr %64, i32 0, i32 2, !dbg !4006
  store ptr %63, ptr %65, align 8, !dbg !4007
  br label %125, !dbg !4008

66:                                               ; preds = %17
  %67 = call noundef i64 @_ZNKSt6vectorI9FlexImageIhLi1EESaIS1_EE4sizeEv(ptr noundef nonnull align 8 dereferenceable(24) %14) #3, !dbg !4009
  %68 = load i64, ptr %5, align 8, !dbg !4011
  %69 = icmp uge i64 %67, %68, !dbg !4012
  br i1 %69, label %70, label %94, !dbg !4013

70:                                               ; preds = %66
  %71 = load ptr, ptr %4, align 8, !dbg !4014
  %72 = call ptr @_ZNKSt6vectorI9FlexImageIhLi1EESaIS1_EE5beginEv(ptr noundef nonnull align 8 dereferenceable(24) %71) #3, !dbg !4016
  %73 = getelementptr inbounds %"class.__gnu_cxx::__normal_iterator", ptr %10, i32 0, i32 0, !dbg !4016
  store ptr %72, ptr %73, align 8, !dbg !4016
  %74 = load ptr, ptr %4, align 8, !dbg !4017
  %75 = call ptr @_ZNKSt6vectorI9FlexImageIhLi1EESaIS1_EE3endEv(ptr noundef nonnull align 8 dereferenceable(24) %74) #3, !dbg !4018
  %76 = getelementptr inbounds %"class.__gnu_cxx::__normal_iterator", ptr %11, i32 0, i32 0, !dbg !4018
  store ptr %75, ptr %76, align 8, !dbg !4018
  %77 = call ptr @_ZNSt6vectorI9FlexImageIhLi1EESaIS1_EE5beginEv(ptr noundef nonnull align 8 dereferenceable(24) %14) #3, !dbg !4019
  %78 = getelementptr inbounds %"class.__gnu_cxx::__normal_iterator.29", ptr %12, i32 0, i32 0, !dbg !4019
  store ptr %77, ptr %78, align 8, !dbg !4019
  %79 = getelementptr inbounds %"class.__gnu_cxx::__normal_iterator", ptr %10, i32 0, i32 0, !dbg !4020
  %80 = load ptr, ptr %79, align 8, !dbg !4020
  %81 = getelementptr inbounds %"class.__gnu_cxx::__normal_iterator", ptr %11, i32 0, i32 0, !dbg !4020
  %82 = load ptr, ptr %81, align 8, !dbg !4020
  %83 = getelementptr inbounds %"class.__gnu_cxx::__normal_iterator.29", ptr %12, i32 0, i32 0, !dbg !4020
  %84 = load ptr, ptr %83, align 8, !dbg !4020
  %85 = call ptr @_ZSt4copyIN9__gnu_cxx17__normal_iteratorIPK9FlexImageIhLi1EESt6vectorIS3_SaIS3_EEEENS1_IPS3_S8_EEET0_T_SD_SC_(ptr %80, ptr %82, ptr %84), !dbg !4020
  %86 = getelementptr inbounds %"class.__gnu_cxx::__normal_iterator.29", ptr %9, i32 0, i32 0, !dbg !4020
  store ptr %85, ptr %86, align 8, !dbg !4020
  %87 = call ptr @_ZNSt6vectorI9FlexImageIhLi1EESaIS1_EE3endEv(ptr noundef nonnull align 8 dereferenceable(24) %14) #3, !dbg !4021
  %88 = getelementptr inbounds %"class.__gnu_cxx::__normal_iterator.29", ptr %13, i32 0, i32 0, !dbg !4021
  store ptr %87, ptr %88, align 8, !dbg !4021
  %89 = call noundef nonnull align 1 dereferenceable(1) ptr @_ZNSt12_Vector_baseI9FlexImageIhLi1EESaIS1_EE19_M_get_Tp_allocatorEv(ptr noundef nonnull align 8 dereferenceable(24) %14) #3, !dbg !4022
  %90 = getelementptr inbounds %"class.__gnu_cxx::__normal_iterator.29", ptr %9, i32 0, i32 0, !dbg !4023
  %91 = load ptr, ptr %90, align 8, !dbg !4023
  %92 = getelementptr inbounds %"class.__gnu_cxx::__normal_iterator.29", ptr %13, i32 0, i32 0, !dbg !4023
  %93 = load ptr, ptr %92, align 8, !dbg !4023
  call void @_ZSt8_DestroyIN9__gnu_cxx17__normal_iteratorIP9FlexImageIhLi1EESt6vectorIS3_SaIS3_EEEES3_EvT_S9_RSaIT0_E(ptr %91, ptr %93, ptr noundef nonnull align 1 dereferenceable(1) %89), !dbg !4023
  br label %124, !dbg !4024

94:                                               ; preds = %66
  %95 = load ptr, ptr %4, align 8, !dbg !4025
  %96 = getelementptr inbounds %"struct.std::_Vector_base", ptr %95, i32 0, i32 0, !dbg !4027
  %97 = getelementptr inbounds %"struct.std::_Vector_base<FlexImage<unsigned char, 1>, std::allocator<FlexImage<unsigned char, 1>>>::_Vector_impl_data", ptr %96, i32 0, i32 0, !dbg !4028
  %98 = load ptr, ptr %97, align 8, !dbg !4028
  %99 = load ptr, ptr %4, align 8, !dbg !4029
  %100 = getelementptr inbounds %"struct.std::_Vector_base", ptr %99, i32 0, i32 0, !dbg !4030
  %101 = getelementptr inbounds %"struct.std::_Vector_base<FlexImage<unsigned char, 1>, std::allocator<FlexImage<unsigned char, 1>>>::_Vector_impl_data", ptr %100, i32 0, i32 0, !dbg !4031
  %102 = load ptr, ptr %101, align 8, !dbg !4031
  %103 = call noundef i64 @_ZNKSt6vectorI9FlexImageIhLi1EESaIS1_EE4sizeEv(ptr noundef nonnull align 8 dereferenceable(24) %14) #3, !dbg !4032
  %104 = getelementptr inbounds %class.FlexImage, ptr %102, i64 %103, !dbg !4033
  %105 = getelementptr inbounds %"struct.std::_Vector_base", ptr %14, i32 0, i32 0, !dbg !4034
  %106 = getelementptr inbounds %"struct.std::_Vector_base<FlexImage<unsigned char, 1>, std::allocator<FlexImage<unsigned char, 1>>>::_Vector_impl_data", ptr %105, i32 0, i32 0, !dbg !4035
  %107 = load ptr, ptr %106, align 8, !dbg !4035
  %108 = call noundef ptr @_ZSt4copyIP9FlexImageIhLi1EES2_ET0_T_S4_S3_(ptr noundef %98, ptr noundef %104, ptr noundef %107), !dbg !4036
  %109 = load ptr, ptr %4, align 8, !dbg !4037
  %110 = getelementptr inbounds %"struct.std::_Vector_base", ptr %109, i32 0, i32 0, !dbg !4038
  %111 = getelementptr inbounds %"struct.std::_Vector_base<FlexImage<unsigned char, 1>, std::allocator<FlexImage<unsigned char, 1>>>::_Vector_impl_data", ptr %110, i32 0, i32 0, !dbg !4039
  %112 = load ptr, ptr %111, align 8, !dbg !4039
  %113 = call noundef i64 @_ZNKSt6vectorI9FlexImageIhLi1EESaIS1_EE4sizeEv(ptr noundef nonnull align 8 dereferenceable(24) %14) #3, !dbg !4040
  %114 = getelementptr inbounds %class.FlexImage, ptr %112, i64 %113, !dbg !4041
  %115 = load ptr, ptr %4, align 8, !dbg !4042
  %116 = getelementptr inbounds %"struct.std::_Vector_base", ptr %115, i32 0, i32 0, !dbg !4043
  %117 = getelementptr inbounds %"struct.std::_Vector_base<FlexImage<unsigned char, 1>, std::allocator<FlexImage<unsigned char, 1>>>::_Vector_impl_data", ptr %116, i32 0, i32 1, !dbg !4044
  %118 = load ptr, ptr %117, align 8, !dbg !4044
  %119 = getelementptr inbounds %"struct.std::_Vector_base", ptr %14, i32 0, i32 0, !dbg !4045
  %120 = getelementptr inbounds %"struct.std::_Vector_base<FlexImage<unsigned char, 1>, std::allocator<FlexImage<unsigned char, 1>>>::_Vector_impl_data", ptr %119, i32 0, i32 1, !dbg !4046
  %121 = load ptr, ptr %120, align 8, !dbg !4046
  %122 = call noundef nonnull align 1 dereferenceable(1) ptr @_ZNSt12_Vector_baseI9FlexImageIhLi1EESaIS1_EE19_M_get_Tp_allocatorEv(ptr noundef nonnull align 8 dereferenceable(24) %14) #3, !dbg !4047
  %123 = call noundef ptr @_ZSt22__uninitialized_copy_aIP9FlexImageIhLi1EES2_S1_ET0_T_S4_S3_RSaIT1_E(ptr noundef %114, ptr noundef %118, ptr noundef %121, ptr noundef nonnull align 1 dereferenceable(1) %122), !dbg !4048
  br label %124

124:                                              ; preds = %94, %70
  br label %125

125:                                              ; preds = %124, %23
  %126 = getelementptr inbounds %"struct.std::_Vector_base", ptr %14, i32 0, i32 0, !dbg !4049
  %127 = getelementptr inbounds %"struct.std::_Vector_base<FlexImage<unsigned char, 1>, std::allocator<FlexImage<unsigned char, 1>>>::_Vector_impl_data", ptr %126, i32 0, i32 0, !dbg !4050
  %128 = load ptr, ptr %127, align 8, !dbg !4050
  %129 = load i64, ptr %5, align 8, !dbg !4051
  %130 = getelementptr inbounds %class.FlexImage, ptr %128, i64 %129, !dbg !4052
  %131 = getelementptr inbounds %"struct.std::_Vector_base", ptr %14, i32 0, i32 0, !dbg !4053
  %132 = getelementptr inbounds %"struct.std::_Vector_base<FlexImage<unsigned char, 1>, std::allocator<FlexImage<unsigned char, 1>>>::_Vector_impl_data", ptr %131, i32 0, i32 1, !dbg !4054
  store ptr %130, ptr %132, align 8, !dbg !4055
  br label %133, !dbg !4056

133:                                              ; preds = %125, %2
  ret ptr %14, !dbg !4057
}

; Function Attrs: mustprogress noinline nounwind optnone uwtable
define linkonce_odr dso_local void @_ZNSt5dequeISt6vectorI9FlexImageIhLi1EESaIS2_EESaIS4_EE9pop_frontEv(ptr noundef nonnull align 8 dereferenceable(80) %0) #6 comdat align 2 personality ptr @__gxx_personality_v0 !dbg !4058 {
  %2 = alloca ptr, align 8
  store ptr %0, ptr %2, align 8
  call void @llvm.dbg.declare(metadata ptr %2, metadata !4062, metadata !DIExpression()), !dbg !4063
  %3 = load ptr, ptr %2, align 8
  %4 = getelementptr inbounds %"class.std::_Deque_base", ptr %3, i32 0, i32 0, !dbg !4064
  %5 = getelementptr inbounds %"struct.std::_Deque_base<std::vector<FlexImage<unsigned char, 1>>, std::allocator<std::vector<FlexImage<unsigned char, 1>>>>::_Deque_impl_data", ptr %4, i32 0, i32 2, !dbg !4066
  %6 = getelementptr inbounds %"struct.std::_Deque_iterator", ptr %5, i32 0, i32 0, !dbg !4067
  %7 = load ptr, ptr %6, align 8, !dbg !4067
  %8 = getelementptr inbounds %"class.std::_Deque_base", ptr %3, i32 0, i32 0, !dbg !4068
  %9 = getelementptr inbounds %"struct.std::_Deque_base<std::vector<FlexImage<unsigned char, 1>>, std::allocator<std::vector<FlexImage<unsigned char, 1>>>>::_Deque_impl_data", ptr %8, i32 0, i32 2, !dbg !4069
  %10 = getelementptr inbounds %"struct.std::_Deque_iterator", ptr %9, i32 0, i32 2, !dbg !4070
  %11 = load ptr, ptr %10, align 8, !dbg !4070
  %12 = getelementptr inbounds %"class.std::vector", ptr %11, i64 -1, !dbg !4071
  %13 = icmp ne ptr %7, %12, !dbg !4072
  br i1 %13, label %14, label %25, !dbg !4073

14:                                               ; preds = %1
  %15 = call noundef nonnull align 1 dereferenceable(1) ptr @_ZNSt11_Deque_baseISt6vectorI9FlexImageIhLi1EESaIS2_EESaIS4_EE19_M_get_Tp_allocatorEv(ptr noundef nonnull align 8 dereferenceable(80) %3) #3, !dbg !4074
  %16 = getelementptr inbounds %"class.std::_Deque_base", ptr %3, i32 0, i32 0, !dbg !4076
  %17 = getelementptr inbounds %"struct.std::_Deque_base<std::vector<FlexImage<unsigned char, 1>>, std::allocator<std::vector<FlexImage<unsigned char, 1>>>>::_Deque_impl_data", ptr %16, i32 0, i32 2, !dbg !4077
  %18 = getelementptr inbounds %"struct.std::_Deque_iterator", ptr %17, i32 0, i32 0, !dbg !4078
  %19 = load ptr, ptr %18, align 8, !dbg !4078
  call void @_ZNSt16allocator_traitsISaISt6vectorI9FlexImageIhLi1EESaIS2_EEEE7destroyIS4_EEvRS5_PT_(ptr noundef nonnull align 1 dereferenceable(1) %15, ptr noundef %19) #3, !dbg !4079
  %20 = getelementptr inbounds %"class.std::_Deque_base", ptr %3, i32 0, i32 0, !dbg !4080
  %21 = getelementptr inbounds %"struct.std::_Deque_base<std::vector<FlexImage<unsigned char, 1>>, std::allocator<std::vector<FlexImage<unsigned char, 1>>>>::_Deque_impl_data", ptr %20, i32 0, i32 2, !dbg !4081
  %22 = getelementptr inbounds %"struct.std::_Deque_iterator", ptr %21, i32 0, i32 0, !dbg !4082
  %23 = load ptr, ptr %22, align 8, !dbg !4083
  %24 = getelementptr inbounds %"class.std::vector", ptr %23, i32 1, !dbg !4083
  store ptr %24, ptr %22, align 8, !dbg !4083
  br label %27, !dbg !4084

25:                                               ; preds = %1
  invoke void @_ZNSt5dequeISt6vectorI9FlexImageIhLi1EESaIS2_EESaIS4_EE16_M_pop_front_auxEv(ptr noundef nonnull align 8 dereferenceable(80) %3)
          to label %26 unwind label %28, !dbg !4085

26:                                               ; preds = %25
  br label %27

27:                                               ; preds = %26, %14
  ret void, !dbg !4086

28:                                               ; preds = %25
  %29 = landingpad { ptr, i32 }
          catch ptr null, !dbg !4085
  %30 = extractvalue { ptr, i32 } %29, 0, !dbg !4085
  call void @__clang_call_terminate(ptr %30) #17, !dbg !4085
  unreachable, !dbg !4085
}

; Function Attrs: mustprogress noinline nounwind optnone uwtable
define linkonce_odr dso_local noundef nonnull align 8 dereferenceable(24) ptr @_ZNSt5dequeISt6vectorI11BinaryImageSaIS1_EESaIS3_EEixEm(ptr noundef nonnull align 8 dereferenceable(80) %0, i64 noundef %1) #6 comdat align 2 !dbg !4087 {
  %3 = alloca ptr, align 8
  %4 = alloca i64, align 8
  store ptr %0, ptr %3, align 8
  call void @llvm.dbg.declare(metadata ptr %3, metadata !4096, metadata !DIExpression()), !dbg !4097
  store i64 %1, ptr %4, align 8
  call void @llvm.dbg.declare(metadata ptr %4, metadata !4098, metadata !DIExpression()), !dbg !4099
  %5 = load ptr, ptr %3, align 8
  %6 = getelementptr inbounds %"class.std::_Deque_base.4", ptr %5, i32 0, i32 0, !dbg !4100
  %7 = getelementptr inbounds %"struct.std::_Deque_base<std::vector<BinaryImage>, std::allocator<std::vector<BinaryImage>>>::_Deque_impl_data", ptr %6, i32 0, i32 2, !dbg !4101
  %8 = load i64, ptr %4, align 8, !dbg !4102
  %9 = call noundef nonnull align 8 dereferenceable(24) ptr @_ZNKSt15_Deque_iteratorISt6vectorI11BinaryImageSaIS1_EERS3_PS3_EixEl(ptr noundef nonnull align 8 dereferenceable(32) %7, i64 noundef %8) #3, !dbg !4103
  ret ptr %9, !dbg !4104
}

; Function Attrs: mustprogress noinline optnone uwtable
define linkonce_odr dso_local noundef nonnull align 8 dereferenceable(24) ptr @_ZNSt6vectorI11BinaryImageSaIS0_EEaSERKS2_(ptr noundef nonnull align 8 dereferenceable(24) %0, ptr noundef nonnull align 8 dereferenceable(24) %1) #4 comdat align 2 !dbg !4105 {
  %3 = alloca ptr, align 8
  %4 = alloca ptr, align 8
  %5 = alloca i64, align 8
  %6 = alloca ptr, align 8
  %7 = alloca %"class.__gnu_cxx::__normal_iterator.28", align 8
  %8 = alloca %"class.__gnu_cxx::__normal_iterator.28", align 8
  %9 = alloca %"class.__gnu_cxx::__normal_iterator.30", align 8
  %10 = alloca %"class.__gnu_cxx::__normal_iterator.28", align 8
  %11 = alloca %"class.__gnu_cxx::__normal_iterator.28", align 8
  %12 = alloca %"class.__gnu_cxx::__normal_iterator.30", align 8
  %13 = alloca %"class.__gnu_cxx::__normal_iterator.30", align 8
  store ptr %0, ptr %3, align 8
  call void @llvm.dbg.declare(metadata ptr %3, metadata !4106, metadata !DIExpression()), !dbg !4107
  store ptr %1, ptr %4, align 8
  call void @llvm.dbg.declare(metadata ptr %4, metadata !4108, metadata !DIExpression()), !dbg !4109
  %14 = load ptr, ptr %3, align 8
  %15 = load ptr, ptr %4, align 8, !dbg !4110
  %16 = icmp ne ptr %15, %14, !dbg !4112
  br i1 %16, label %17, label %133, !dbg !4113

17:                                               ; preds = %2
  call void @llvm.dbg.declare(metadata ptr %5, metadata !4114, metadata !DIExpression()), !dbg !4116
  %18 = load ptr, ptr %4, align 8, !dbg !4117
  %19 = call noundef i64 @_ZNKSt6vectorI11BinaryImageSaIS0_EE4sizeEv(ptr noundef nonnull align 8 dereferenceable(24) %18) #3, !dbg !4118
  store i64 %19, ptr %5, align 8, !dbg !4116
  %20 = load i64, ptr %5, align 8, !dbg !4119
  %21 = call noundef i64 @_ZNKSt6vectorI11BinaryImageSaIS0_EE8capacityEv(ptr noundef nonnull align 8 dereferenceable(24) %14) #3, !dbg !4121
  %22 = icmp ugt i64 %20, %21, !dbg !4122
  br i1 %22, label %23, label %66, !dbg !4123

23:                                               ; preds = %17
  call void @llvm.dbg.declare(metadata ptr %6, metadata !4124, metadata !DIExpression()), !dbg !4126
  %24 = load i64, ptr %5, align 8, !dbg !4127
  %25 = load ptr, ptr %4, align 8, !dbg !4128
  %26 = call ptr @_ZNKSt6vectorI11BinaryImageSaIS0_EE5beginEv(ptr noundef nonnull align 8 dereferenceable(24) %25) #3, !dbg !4129
  %27 = getelementptr inbounds %"class.__gnu_cxx::__normal_iterator.28", ptr %7, i32 0, i32 0, !dbg !4129
  store ptr %26, ptr %27, align 8, !dbg !4129
  %28 = load ptr, ptr %4, align 8, !dbg !4130
  %29 = call ptr @_ZNKSt6vectorI11BinaryImageSaIS0_EE3endEv(ptr noundef nonnull align 8 dereferenceable(24) %28) #3, !dbg !4131
  %30 = getelementptr inbounds %"class.__gnu_cxx::__normal_iterator.28", ptr %8, i32 0, i32 0, !dbg !4131
  store ptr %29, ptr %30, align 8, !dbg !4131
  %31 = getelementptr inbounds %"class.__gnu_cxx::__normal_iterator.28", ptr %7, i32 0, i32 0, !dbg !4132
  %32 = load ptr, ptr %31, align 8, !dbg !4132
  %33 = getelementptr inbounds %"class.__gnu_cxx::__normal_iterator.28", ptr %8, i32 0, i32 0, !dbg !4132
  %34 = load ptr, ptr %33, align 8, !dbg !4132
  %35 = call noundef ptr @_ZNSt6vectorI11BinaryImageSaIS0_EE20_M_allocate_and_copyIN9__gnu_cxx17__normal_iteratorIPKS0_S2_EEEEPS0_mT_SA_(ptr noundef nonnull align 8 dereferenceable(24) %14, i64 noundef %24, ptr %32, ptr %34), !dbg !4132
  store ptr %35, ptr %6, align 8, !dbg !4126
  %36 = getelementptr inbounds %"struct.std::_Vector_base.9", ptr %14, i32 0, i32 0, !dbg !4133
  %37 = getelementptr inbounds %"struct.std::_Vector_base<BinaryImage, std::allocator<BinaryImage>>::_Vector_impl_data", ptr %36, i32 0, i32 0, !dbg !4134
  %38 = load ptr, ptr %37, align 8, !dbg !4134
  %39 = getelementptr inbounds %"struct.std::_Vector_base.9", ptr %14, i32 0, i32 0, !dbg !4135
  %40 = getelementptr inbounds %"struct.std::_Vector_base<BinaryImage, std::allocator<BinaryImage>>::_Vector_impl_data", ptr %39, i32 0, i32 1, !dbg !4136
  %41 = load ptr, ptr %40, align 8, !dbg !4136
  %42 = call noundef nonnull align 1 dereferenceable(1) ptr @_ZNSt12_Vector_baseI11BinaryImageSaIS0_EE19_M_get_Tp_allocatorEv(ptr noundef nonnull align 8 dereferenceable(24) %14) #3, !dbg !4137
  call void @_ZSt8_DestroyIP11BinaryImageS0_EvT_S2_RSaIT0_E(ptr noundef %38, ptr noundef %41, ptr noundef nonnull align 1 dereferenceable(1) %42), !dbg !4138
  %43 = getelementptr inbounds %"struct.std::_Vector_base.9", ptr %14, i32 0, i32 0, !dbg !4139
  %44 = getelementptr inbounds %"struct.std::_Vector_base<BinaryImage, std::allocator<BinaryImage>>::_Vector_impl_data", ptr %43, i32 0, i32 0, !dbg !4140
  %45 = load ptr, ptr %44, align 8, !dbg !4140
  %46 = getelementptr inbounds %"struct.std::_Vector_base.9", ptr %14, i32 0, i32 0, !dbg !4141
  %47 = getelementptr inbounds %"struct.std::_Vector_base<BinaryImage, std::allocator<BinaryImage>>::_Vector_impl_data", ptr %46, i32 0, i32 2, !dbg !4142
  %48 = load ptr, ptr %47, align 8, !dbg !4142
  %49 = getelementptr inbounds %"struct.std::_Vector_base.9", ptr %14, i32 0, i32 0, !dbg !4143
  %50 = getelementptr inbounds %"struct.std::_Vector_base<BinaryImage, std::allocator<BinaryImage>>::_Vector_impl_data", ptr %49, i32 0, i32 0, !dbg !4144
  %51 = load ptr, ptr %50, align 8, !dbg !4144
  %52 = ptrtoint ptr %48 to i64, !dbg !4145
  %53 = ptrtoint ptr %51 to i64, !dbg !4145
  %54 = sub i64 %52, %53, !dbg !4145
  %55 = sdiv exact i64 %54, 24, !dbg !4145
  call void @_ZNSt12_Vector_baseI11BinaryImageSaIS0_EE13_M_deallocateEPS0_m(ptr noundef nonnull align 8 dereferenceable(24) %14, ptr noundef %45, i64 noundef %55), !dbg !4146
  %56 = load ptr, ptr %6, align 8, !dbg !4147
  %57 = getelementptr inbounds %"struct.std::_Vector_base.9", ptr %14, i32 0, i32 0, !dbg !4148
  %58 = getelementptr inbounds %"struct.std::_Vector_base<BinaryImage, std::allocator<BinaryImage>>::_Vector_impl_data", ptr %57, i32 0, i32 0, !dbg !4149
  store ptr %56, ptr %58, align 8, !dbg !4150
  %59 = getelementptr inbounds %"struct.std::_Vector_base.9", ptr %14, i32 0, i32 0, !dbg !4151
  %60 = getelementptr inbounds %"struct.std::_Vector_base<BinaryImage, std::allocator<BinaryImage>>::_Vector_impl_data", ptr %59, i32 0, i32 0, !dbg !4152
  %61 = load ptr, ptr %60, align 8, !dbg !4152
  %62 = load i64, ptr %5, align 8, !dbg !4153
  %63 = getelementptr inbounds %class.BinaryImage, ptr %61, i64 %62, !dbg !4154
  %64 = getelementptr inbounds %"struct.std::_Vector_base.9", ptr %14, i32 0, i32 0, !dbg !4155
  %65 = getelementptr inbounds %"struct.std::_Vector_base<BinaryImage, std::allocator<BinaryImage>>::_Vector_impl_data", ptr %64, i32 0, i32 2, !dbg !4156
  store ptr %63, ptr %65, align 8, !dbg !4157
  br label %125, !dbg !4158

66:                                               ; preds = %17
  %67 = call noundef i64 @_ZNKSt6vectorI11BinaryImageSaIS0_EE4sizeEv(ptr noundef nonnull align 8 dereferenceable(24) %14) #3, !dbg !4159
  %68 = load i64, ptr %5, align 8, !dbg !4161
  %69 = icmp uge i64 %67, %68, !dbg !4162
  br i1 %69, label %70, label %94, !dbg !4163

70:                                               ; preds = %66
  %71 = load ptr, ptr %4, align 8, !dbg !4164
  %72 = call ptr @_ZNKSt6vectorI11BinaryImageSaIS0_EE5beginEv(ptr noundef nonnull align 8 dereferenceable(24) %71) #3, !dbg !4166
  %73 = getelementptr inbounds %"class.__gnu_cxx::__normal_iterator.28", ptr %10, i32 0, i32 0, !dbg !4166
  store ptr %72, ptr %73, align 8, !dbg !4166
  %74 = load ptr, ptr %4, align 8, !dbg !4167
  %75 = call ptr @_ZNKSt6vectorI11BinaryImageSaIS0_EE3endEv(ptr noundef nonnull align 8 dereferenceable(24) %74) #3, !dbg !4168
  %76 = getelementptr inbounds %"class.__gnu_cxx::__normal_iterator.28", ptr %11, i32 0, i32 0, !dbg !4168
  store ptr %75, ptr %76, align 8, !dbg !4168
  %77 = call ptr @_ZNSt6vectorI11BinaryImageSaIS0_EE5beginEv(ptr noundef nonnull align 8 dereferenceable(24) %14) #3, !dbg !4169
  %78 = getelementptr inbounds %"class.__gnu_cxx::__normal_iterator.30", ptr %12, i32 0, i32 0, !dbg !4169
  store ptr %77, ptr %78, align 8, !dbg !4169
  %79 = getelementptr inbounds %"class.__gnu_cxx::__normal_iterator.28", ptr %10, i32 0, i32 0, !dbg !4170
  %80 = load ptr, ptr %79, align 8, !dbg !4170
  %81 = getelementptr inbounds %"class.__gnu_cxx::__normal_iterator.28", ptr %11, i32 0, i32 0, !dbg !4170
  %82 = load ptr, ptr %81, align 8, !dbg !4170
  %83 = getelementptr inbounds %"class.__gnu_cxx::__normal_iterator.30", ptr %12, i32 0, i32 0, !dbg !4170
  %84 = load ptr, ptr %83, align 8, !dbg !4170
  %85 = call ptr @_ZSt4copyIN9__gnu_cxx17__normal_iteratorIPK11BinaryImageSt6vectorIS2_SaIS2_EEEENS1_IPS2_S7_EEET0_T_SC_SB_(ptr %80, ptr %82, ptr %84), !dbg !4170
  %86 = getelementptr inbounds %"class.__gnu_cxx::__normal_iterator.30", ptr %9, i32 0, i32 0, !dbg !4170
  store ptr %85, ptr %86, align 8, !dbg !4170
  %87 = call ptr @_ZNSt6vectorI11BinaryImageSaIS0_EE3endEv(ptr noundef nonnull align 8 dereferenceable(24) %14) #3, !dbg !4171
  %88 = getelementptr inbounds %"class.__gnu_cxx::__normal_iterator.30", ptr %13, i32 0, i32 0, !dbg !4171
  store ptr %87, ptr %88, align 8, !dbg !4171
  %89 = call noundef nonnull align 1 dereferenceable(1) ptr @_ZNSt12_Vector_baseI11BinaryImageSaIS0_EE19_M_get_Tp_allocatorEv(ptr noundef nonnull align 8 dereferenceable(24) %14) #3, !dbg !4172
  %90 = getelementptr inbounds %"class.__gnu_cxx::__normal_iterator.30", ptr %9, i32 0, i32 0, !dbg !4173
  %91 = load ptr, ptr %90, align 8, !dbg !4173
  %92 = getelementptr inbounds %"class.__gnu_cxx::__normal_iterator.30", ptr %13, i32 0, i32 0, !dbg !4173
  %93 = load ptr, ptr %92, align 8, !dbg !4173
  call void @_ZSt8_DestroyIN9__gnu_cxx17__normal_iteratorIP11BinaryImageSt6vectorIS2_SaIS2_EEEES2_EvT_S8_RSaIT0_E(ptr %91, ptr %93, ptr noundef nonnull align 1 dereferenceable(1) %89), !dbg !4173
  br label %124, !dbg !4174

94:                                               ; preds = %66
  %95 = load ptr, ptr %4, align 8, !dbg !4175
  %96 = getelementptr inbounds %"struct.std::_Vector_base.9", ptr %95, i32 0, i32 0, !dbg !4177
  %97 = getelementptr inbounds %"struct.std::_Vector_base<BinaryImage, std::allocator<BinaryImage>>::_Vector_impl_data", ptr %96, i32 0, i32 0, !dbg !4178
  %98 = load ptr, ptr %97, align 8, !dbg !4178
  %99 = load ptr, ptr %4, align 8, !dbg !4179
  %100 = getelementptr inbounds %"struct.std::_Vector_base.9", ptr %99, i32 0, i32 0, !dbg !4180
  %101 = getelementptr inbounds %"struct.std::_Vector_base<BinaryImage, std::allocator<BinaryImage>>::_Vector_impl_data", ptr %100, i32 0, i32 0, !dbg !4181
  %102 = load ptr, ptr %101, align 8, !dbg !4181
  %103 = call noundef i64 @_ZNKSt6vectorI11BinaryImageSaIS0_EE4sizeEv(ptr noundef nonnull align 8 dereferenceable(24) %14) #3, !dbg !4182
  %104 = getelementptr inbounds %class.BinaryImage, ptr %102, i64 %103, !dbg !4183
  %105 = getelementptr inbounds %"struct.std::_Vector_base.9", ptr %14, i32 0, i32 0, !dbg !4184
  %106 = getelementptr inbounds %"struct.std::_Vector_base<BinaryImage, std::allocator<BinaryImage>>::_Vector_impl_data", ptr %105, i32 0, i32 0, !dbg !4185
  %107 = load ptr, ptr %106, align 8, !dbg !4185
  %108 = call noundef ptr @_ZSt4copyIP11BinaryImageS1_ET0_T_S3_S2_(ptr noundef %98, ptr noundef %104, ptr noundef %107), !dbg !4186
  %109 = load ptr, ptr %4, align 8, !dbg !4187
  %110 = getelementptr inbounds %"struct.std::_Vector_base.9", ptr %109, i32 0, i32 0, !dbg !4188
  %111 = getelementptr inbounds %"struct.std::_Vector_base<BinaryImage, std::allocator<BinaryImage>>::_Vector_impl_data", ptr %110, i32 0, i32 0, !dbg !4189
  %112 = load ptr, ptr %111, align 8, !dbg !4189
  %113 = call noundef i64 @_ZNKSt6vectorI11BinaryImageSaIS0_EE4sizeEv(ptr noundef nonnull align 8 dereferenceable(24) %14) #3, !dbg !4190
  %114 = getelementptr inbounds %class.BinaryImage, ptr %112, i64 %113, !dbg !4191
  %115 = load ptr, ptr %4, align 8, !dbg !4192
  %116 = getelementptr inbounds %"struct.std::_Vector_base.9", ptr %115, i32 0, i32 0, !dbg !4193
  %117 = getelementptr inbounds %"struct.std::_Vector_base<BinaryImage, std::allocator<BinaryImage>>::_Vector_impl_data", ptr %116, i32 0, i32 1, !dbg !4194
  %118 = load ptr, ptr %117, align 8, !dbg !4194
  %119 = getelementptr inbounds %"struct.std::_Vector_base.9", ptr %14, i32 0, i32 0, !dbg !4195
  %120 = getelementptr inbounds %"struct.std::_Vector_base<BinaryImage, std::allocator<BinaryImage>>::_Vector_impl_data", ptr %119, i32 0, i32 1, !dbg !4196
  %121 = load ptr, ptr %120, align 8, !dbg !4196
  %122 = call noundef nonnull align 1 dereferenceable(1) ptr @_ZNSt12_Vector_baseI11BinaryImageSaIS0_EE19_M_get_Tp_allocatorEv(ptr noundef nonnull align 8 dereferenceable(24) %14) #3, !dbg !4197
  %123 = call noundef ptr @_ZSt22__uninitialized_copy_aIP11BinaryImageS1_S0_ET0_T_S3_S2_RSaIT1_E(ptr noundef %114, ptr noundef %118, ptr noundef %121, ptr noundef nonnull align 1 dereferenceable(1) %122), !dbg !4198
  br label %124

124:                                              ; preds = %94, %70
  br label %125

125:                                              ; preds = %124, %23
  %126 = getelementptr inbounds %"struct.std::_Vector_base.9", ptr %14, i32 0, i32 0, !dbg !4199
  %127 = getelementptr inbounds %"struct.std::_Vector_base<BinaryImage, std::allocator<BinaryImage>>::_Vector_impl_data", ptr %126, i32 0, i32 0, !dbg !4200
  %128 = load ptr, ptr %127, align 8, !dbg !4200
  %129 = load i64, ptr %5, align 8, !dbg !4201
  %130 = getelementptr inbounds %class.BinaryImage, ptr %128, i64 %129, !dbg !4202
  %131 = getelementptr inbounds %"struct.std::_Vector_base.9", ptr %14, i32 0, i32 0, !dbg !4203
  %132 = getelementptr inbounds %"struct.std::_Vector_base<BinaryImage, std::allocator<BinaryImage>>::_Vector_impl_data", ptr %131, i32 0, i32 1, !dbg !4204
  store ptr %130, ptr %132, align 8, !dbg !4205
  br label %133, !dbg !4206

133:                                              ; preds = %125, %2
  ret ptr %14, !dbg !4207
}

; Function Attrs: mustprogress noinline nounwind optnone uwtable
define linkonce_odr dso_local void @_ZNSt5dequeISt6vectorI11BinaryImageSaIS1_EESaIS3_EE9pop_frontEv(ptr noundef nonnull align 8 dereferenceable(80) %0) #6 comdat align 2 personality ptr @__gxx_personality_v0 !dbg !4208 {
  %2 = alloca ptr, align 8
  store ptr %0, ptr %2, align 8
  call void @llvm.dbg.declare(metadata ptr %2, metadata !4212, metadata !DIExpression()), !dbg !4213
  %3 = load ptr, ptr %2, align 8
  %4 = getelementptr inbounds %"class.std::_Deque_base.4", ptr %3, i32 0, i32 0, !dbg !4214
  %5 = getelementptr inbounds %"struct.std::_Deque_base<std::vector<BinaryImage>, std::allocator<std::vector<BinaryImage>>>::_Deque_impl_data", ptr %4, i32 0, i32 2, !dbg !4216
  %6 = getelementptr inbounds %"struct.std::_Deque_iterator.13", ptr %5, i32 0, i32 0, !dbg !4217
  %7 = load ptr, ptr %6, align 8, !dbg !4217
  %8 = getelementptr inbounds %"class.std::_Deque_base.4", ptr %3, i32 0, i32 0, !dbg !4218
  %9 = getelementptr inbounds %"struct.std::_Deque_base<std::vector<BinaryImage>, std::allocator<std::vector<BinaryImage>>>::_Deque_impl_data", ptr %8, i32 0, i32 2, !dbg !4219
  %10 = getelementptr inbounds %"struct.std::_Deque_iterator.13", ptr %9, i32 0, i32 2, !dbg !4220
  %11 = load ptr, ptr %10, align 8, !dbg !4220
  %12 = getelementptr inbounds %"class.std::vector.8", ptr %11, i64 -1, !dbg !4221
  %13 = icmp ne ptr %7, %12, !dbg !4222
  br i1 %13, label %14, label %25, !dbg !4223

14:                                               ; preds = %1
  %15 = call noundef nonnull align 1 dereferenceable(1) ptr @_ZNSt11_Deque_baseISt6vectorI11BinaryImageSaIS1_EESaIS3_EE19_M_get_Tp_allocatorEv(ptr noundef nonnull align 8 dereferenceable(80) %3) #3, !dbg !4224
  %16 = getelementptr inbounds %"class.std::_Deque_base.4", ptr %3, i32 0, i32 0, !dbg !4226
  %17 = getelementptr inbounds %"struct.std::_Deque_base<std::vector<BinaryImage>, std::allocator<std::vector<BinaryImage>>>::_Deque_impl_data", ptr %16, i32 0, i32 2, !dbg !4227
  %18 = getelementptr inbounds %"struct.std::_Deque_iterator.13", ptr %17, i32 0, i32 0, !dbg !4228
  %19 = load ptr, ptr %18, align 8, !dbg !4228
  call void @_ZNSt16allocator_traitsISaISt6vectorI11BinaryImageSaIS1_EEEE7destroyIS3_EEvRS4_PT_(ptr noundef nonnull align 1 dereferenceable(1) %15, ptr noundef %19) #3, !dbg !4229
  %20 = getelementptr inbounds %"class.std::_Deque_base.4", ptr %3, i32 0, i32 0, !dbg !4230
  %21 = getelementptr inbounds %"struct.std::_Deque_base<std::vector<BinaryImage>, std::allocator<std::vector<BinaryImage>>>::_Deque_impl_data", ptr %20, i32 0, i32 2, !dbg !4231
  %22 = getelementptr inbounds %"struct.std::_Deque_iterator.13", ptr %21, i32 0, i32 0, !dbg !4232
  %23 = load ptr, ptr %22, align 8, !dbg !4233
  %24 = getelementptr inbounds %"class.std::vector.8", ptr %23, i32 1, !dbg !4233
  store ptr %24, ptr %22, align 8, !dbg !4233
  br label %27, !dbg !4234

25:                                               ; preds = %1
  invoke void @_ZNSt5dequeISt6vectorI11BinaryImageSaIS1_EESaIS3_EE16_M_pop_front_auxEv(ptr noundef nonnull align 8 dereferenceable(80) %3)
          to label %26 unwind label %28, !dbg !4235

26:                                               ; preds = %25
  br label %27

27:                                               ; preds = %26, %14
  ret void, !dbg !4236

28:                                               ; preds = %25
  %29 = landingpad { ptr, i32 }
          catch ptr null, !dbg !4235
  %30 = extractvalue { ptr, i32 } %29, 0, !dbg !4235
  call void @__clang_call_terminate(ptr %30) #17, !dbg !4235
  unreachable, !dbg !4235
}

; Function Attrs: noinline nounwind optnone uwtable
define linkonce_odr dso_local void @_ZN16AsyncImageLoaderD2Ev(ptr noundef nonnull align 8 dereferenceable(492) %0) unnamed_addr #7 comdat align 2 !dbg !4237 {
  %2 = alloca ptr, align 8
  store ptr %0, ptr %2, align 8
  call void @llvm.dbg.declare(metadata ptr %2, metadata !4238, metadata !DIExpression()), !dbg !4239
  %3 = load ptr, ptr %2, align 8
  store ptr getelementptr inbounds ({ [5 x ptr] }, ptr @_ZTV16AsyncImageLoader, i32 0, inrange i32 0, i32 2), ptr %3, align 8, !dbg !4240
  %4 = getelementptr inbounds %class.AsyncImageLoader, ptr %3, i32 0, i32 10, !dbg !4241
  call void @_ZN7threads9ConditionD1Ev(ptr noundef nonnull align 8 dereferenceable(64) %4) #3, !dbg !4241
  %5 = getelementptr inbounds %class.AsyncImageLoader, ptr %3, i32 0, i32 9, !dbg !4241
  call void @_ZN7threads9ConditionD1Ev(ptr noundef nonnull align 8 dereferenceable(64) %5) #3, !dbg !4241
  %6 = getelementptr inbounds %class.AsyncImageLoader, ptr %3, i32 0, i32 8, !dbg !4241
  call void @_ZN7threads5MutexD1Ev(ptr noundef nonnull align 8 dereferenceable(48) %6) #3, !dbg !4241
  %7 = getelementptr inbounds %class.AsyncImageLoader, ptr %3, i32 0, i32 7, !dbg !4241
  call void @_ZN7threads5MutexD1Ev(ptr noundef nonnull align 8 dereferenceable(48) %7) #3, !dbg !4241
  %8 = getelementptr inbounds %class.AsyncImageLoader, ptr %3, i32 0, i32 6, !dbg !4241
  call void @_ZN7threads5MutexD1Ev(ptr noundef nonnull align 8 dereferenceable(48) %8) #3, !dbg !4241
  %9 = getelementptr inbounds %class.AsyncImageLoader, ptr %3, i32 0, i32 5, !dbg !4241
  call void @_ZNSt7__cxx1112basic_stringIcSt11char_traitsIcESaIcEED1Ev(ptr noundef nonnull align 8 dereferenceable(32) %9) #3, !dbg !4241
  %10 = getelementptr inbounds %class.AsyncImageLoader, ptr %3, i32 0, i32 2, !dbg !4241
  call void @_ZNSt5dequeISt6vectorI11BinaryImageSaIS1_EESaIS3_EED2Ev(ptr noundef nonnull align 8 dereferenceable(80) %10) #3, !dbg !4241
  %11 = getelementptr inbounds %class.AsyncImageLoader, ptr %3, i32 0, i32 1, !dbg !4241
  call void @_ZNSt5dequeISt6vectorI9FlexImageIhLi1EESaIS2_EESaIS4_EED2Ev(ptr noundef nonnull align 8 dereferenceable(80) %11) #3, !dbg !4241
  call void @_ZN7threads8RunnableD2Ev(ptr noundef nonnull align 8 dereferenceable(8) %3) #3, !dbg !4241
  ret void, !dbg !4243
}

; Function Attrs: noinline nounwind optnone uwtable
define linkonce_odr dso_local void @_ZN16AsyncImageLoaderD0Ev(ptr noundef nonnull align 8 dereferenceable(492) %0) unnamed_addr #7 comdat align 2 !dbg !4244 {
  %2 = alloca ptr, align 8
  store ptr %0, ptr %2, align 8
  call void @llvm.dbg.declare(metadata ptr %2, metadata !4245, metadata !DIExpression()), !dbg !4246
  %3 = load ptr, ptr %2, align 8
  call void @_ZN16AsyncImageLoaderD2Ev(ptr noundef nonnull align 8 dereferenceable(492) %3) #3, !dbg !4247
  call void @_ZdlPv(ptr noundef %3) #18, !dbg !4247
  ret void, !dbg !4248
}

; Function Attrs: mustprogress noinline optnone uwtable
define linkonce_odr dso_local void @_ZN11BinaryImage10ReallocateEii(ptr noundef nonnull align 8 dereferenceable(24) %0, i32 noundef %1, i32 noundef %2) #4 comdat align 2 !dbg !4249 {
  %4 = alloca ptr, align 8
  %5 = alloca i32, align 4
  %6 = alloca i32, align 4
  store ptr %0, ptr %4, align 8
  call void @llvm.dbg.declare(metadata ptr %4, metadata !4250, metadata !DIExpression()), !dbg !4251
  store i32 %1, ptr %5, align 4
  call void @llvm.dbg.declare(metadata ptr %5, metadata !4252, metadata !DIExpression()), !dbg !4253
  store i32 %2, ptr %6, align 4
  call void @llvm.dbg.declare(metadata ptr %6, metadata !4254, metadata !DIExpression()), !dbg !4255
  %7 = load ptr, ptr %4, align 8
  %8 = load i32, ptr %5, align 4, !dbg !4256
  %9 = getelementptr inbounds %class.BinaryImage, ptr %7, i32 0, i32 2, !dbg !4257
  store i32 %8, ptr %9, align 8, !dbg !4258
  %10 = load i32, ptr %6, align 4, !dbg !4259
  %11 = getelementptr inbounds %class.BinaryImage, ptr %7, i32 0, i32 3, !dbg !4260
  store i32 %10, ptr %11, align 4, !dbg !4261
  call void @_ZN11BinaryImage8AllocateEv(ptr noundef nonnull align 8 dereferenceable(24) %7), !dbg !4262
  ret void, !dbg !4263
}

; Function Attrs: mustprogress noinline nounwind optnone uwtable
define linkonce_odr dso_local noundef i32 @_ZNK9FlexImageIhLi1EE5WidthEv(ptr noundef nonnull align 8 dereferenceable(36) %0) #6 comdat align 2 !dbg !4264 {
  %2 = alloca ptr, align 8
  store ptr %0, ptr %2, align 8
  call void @llvm.dbg.declare(metadata ptr %2, metadata !4269, metadata !DIExpression()), !dbg !4270
  %3 = load ptr, ptr %2, align 8
  %4 = getelementptr inbounds %class.FlexImage, ptr %3, i32 0, i32 4, !dbg !4271
  %5 = getelementptr inbounds %class.FISize, ptr %4, i32 0, i32 0, !dbg !4272
  %6 = load i32, ptr %5, align 8, !dbg !4272
  ret i32 %6, !dbg !4273
}

; Function Attrs: mustprogress noinline nounwind optnone uwtable
define linkonce_odr dso_local noundef i32 @_ZNK9FlexImageIhLi1EE6HeightEv(ptr noundef nonnull align 8 dereferenceable(36) %0) #6 comdat align 2 !dbg !4274 {
  %2 = alloca ptr, align 8
  store ptr %0, ptr %2, align 8
  call void @llvm.dbg.declare(metadata ptr %2, metadata !4276, metadata !DIExpression()), !dbg !4277
  %3 = load ptr, ptr %2, align 8
  %4 = getelementptr inbounds %class.FlexImage, ptr %3, i32 0, i32 4, !dbg !4278
  %5 = getelementptr inbounds %class.FISize, ptr %4, i32 0, i32 1, !dbg !4279
  %6 = load i32, ptr %5, align 4, !dbg !4279
  ret i32 %6, !dbg !4280
}

; Function Attrs: mustprogress noinline nounwind optnone uwtable
define linkonce_odr dso_local void @_ZN11BinaryImage5ClearEv(ptr noundef nonnull align 8 dereferenceable(24) %0) #6 comdat align 2 !dbg !4281 {
  %2 = alloca ptr, align 8
  store ptr %0, ptr %2, align 8
  call void @llvm.dbg.declare(metadata ptr %2, metadata !4282, metadata !DIExpression()), !dbg !4283
  %3 = load ptr, ptr %2, align 8
  %4 = getelementptr inbounds %class.BinaryImage, ptr %3, i32 0, i32 1, !dbg !4284
  %5 = load ptr, ptr %4, align 8, !dbg !4284
  %6 = getelementptr inbounds %class.BinaryImage, ptr %3, i32 0, i32 2, !dbg !4285
  %7 = load i32, ptr %6, align 8, !dbg !4285
  %8 = getelementptr inbounds %class.BinaryImage, ptr %3, i32 0, i32 3, !dbg !4286
  %9 = load i32, ptr %8, align 4, !dbg !4286
  %10 = mul nsw i32 %7, %9, !dbg !4287
  %11 = sdiv i32 %10, 8, !dbg !4288
  %12 = add nsw i32 %11, 1, !dbg !4289
  %13 = sext i32 %12 to i64, !dbg !4285
  call void @llvm.memset.p0.i64(ptr align 1 %5, i8 0, i64 %13, i1 false), !dbg !4290
  ret void, !dbg !4291
}

; Function Attrs: mustprogress noinline optnone uwtable
define linkonce_odr dso_local noundef nonnull align 1 dereferenceable(1) ptr @_ZNK9FlexImageIhLi1EEclEii(ptr noundef nonnull align 8 dereferenceable(36) %0, i32 noundef %1, i32 noundef %2) #4 comdat align 2 !dbg !4292 {
  %4 = alloca ptr, align 8
  %5 = alloca i32, align 4
  %6 = alloca i32, align 4
  store ptr %0, ptr %4, align 8
  call void @llvm.dbg.declare(metadata ptr %4, metadata !4297, metadata !DIExpression()), !dbg !4298
  store i32 %1, ptr %5, align 4
  call void @llvm.dbg.declare(metadata ptr %5, metadata !4299, metadata !DIExpression()), !dbg !4300
  store i32 %2, ptr %6, align 4
  call void @llvm.dbg.declare(metadata ptr %6, metadata !4301, metadata !DIExpression()), !dbg !4302
  %7 = load ptr, ptr %4, align 8
  %8 = load i32, ptr %5, align 4, !dbg !4303
  %9 = load i32, ptr %6, align 4, !dbg !4304
  %10 = call noundef nonnull align 1 dereferenceable(1) ptr @_ZNK9FlexImageIhLi1EEclEiii(ptr noundef nonnull align 8 dereferenceable(36) %7, i32 noundef %8, i32 noundef %9, i32 noundef 0), !dbg !4305
  ret ptr %10, !dbg !4306
}

; Function Attrs: mustprogress noinline optnone uwtable
define linkonce_odr dso_local void @_ZN11BinaryImage8AllocateEv(ptr noundef nonnull align 8 dereferenceable(24) %0) #4 comdat align 2 personality ptr @__gxx_personality_v0 !dbg !4307 {
  %2 = alloca ptr, align 8
  %3 = alloca ptr, align 8
  %4 = alloca i32, align 4
  store ptr %0, ptr %2, align 8
  call void @llvm.dbg.declare(metadata ptr %2, metadata !4308, metadata !DIExpression()), !dbg !4309
  %5 = load ptr, ptr %2, align 8
  call void @_ZN11BinaryImage12DecReferenceEv(ptr noundef nonnull align 8 dereferenceable(24) %5), !dbg !4310
  %6 = call noalias noundef nonnull ptr @_Znwm(i64 noundef 32) #19, !dbg !4311, !heapallocsite !113
  %7 = getelementptr inbounds %class.BinaryImage, ptr %5, i32 0, i32 2, !dbg !4312
  %8 = load i32, ptr %7, align 8, !dbg !4312
  %9 = getelementptr inbounds %class.BinaryImage, ptr %5, i32 0, i32 3, !dbg !4313
  %10 = load i32, ptr %9, align 4, !dbg !4313
  %11 = mul nsw i32 %8, %10, !dbg !4314
  %12 = sdiv i32 %11, 8, !dbg !4315
  %13 = add nsw i32 %12, 1, !dbg !4316
  invoke void @_ZN14FlexImageStoreIhLi1EEC2Eii(ptr noundef nonnull align 8 dereferenceable(28) %6, i32 noundef %13, i32 noundef 1)
          to label %14 unwind label %26, !dbg !4317

14:                                               ; preds = %1
  %15 = getelementptr inbounds %class.BinaryImage, ptr %5, i32 0, i32 0, !dbg !4318
  store ptr %6, ptr %15, align 8, !dbg !4319
  %16 = getelementptr inbounds %class.BinaryImage, ptr %5, i32 0, i32 0, !dbg !4320
  %17 = load ptr, ptr %16, align 8, !dbg !4320
  %18 = call noundef ptr @_ZN14FlexImageStoreIhLi1EE4DataEv(ptr noundef nonnull align 8 dereferenceable(28) %17), !dbg !4321
  %19 = getelementptr inbounds %class.BinaryImage, ptr %5, i32 0, i32 1, !dbg !4322
  store ptr %18, ptr %19, align 8, !dbg !4323
  %20 = getelementptr inbounds %class.BinaryImage, ptr %5, i32 0, i32 0, !dbg !4324
  %21 = load ptr, ptr %20, align 8, !dbg !4324
  %22 = call noundef zeroext i1 @_ZN14FlexImageStoreIhLi1EE3ErrEv(ptr noundef nonnull align 8 dereferenceable(28) %21), !dbg !4326
  br i1 %22, label %23, label %30, !dbg !4327

23:                                               ; preds = %14
  %24 = call noundef nonnull align 8 dereferenceable(8) ptr @_ZStlsISt11char_traitsIcEERSt13basic_ostreamIcT_ES5_PKc(ptr noundef nonnull align 8 dereferenceable(8) @_ZSt4cout, ptr noundef @.str.6), !dbg !4328
  %25 = call noundef nonnull align 8 dereferenceable(8) ptr @_ZNSolsEPFRSoS_E(ptr noundef nonnull align 8 dereferenceable(8) %24, ptr noundef @_ZSt4endlIcSt11char_traitsIcEERSt13basic_ostreamIT_T0_ES6_), !dbg !4329
  br label %30, !dbg !4330

26:                                               ; preds = %1
  %27 = landingpad { ptr, i32 }
          cleanup, !dbg !4331
  %28 = extractvalue { ptr, i32 } %27, 0, !dbg !4331
  store ptr %28, ptr %3, align 8, !dbg !4331
  %29 = extractvalue { ptr, i32 } %27, 1, !dbg !4331
  store i32 %29, ptr %4, align 4, !dbg !4331
  call void @_ZdlPv(ptr noundef %6) #18, !dbg !4311
  br label %31, !dbg !4311

30:                                               ; preds = %23, %14
  ret void, !dbg !4331

31:                                               ; preds = %26
  %32 = load ptr, ptr %3, align 8, !dbg !4311
  %33 = load i32, ptr %4, align 4, !dbg !4311
  %34 = insertvalue { ptr, i32 } poison, ptr %32, 0, !dbg !4311
  %35 = insertvalue { ptr, i32 } %34, i32 %33, 1, !dbg !4311
  resume { ptr, i32 } %35, !dbg !4311
}

; Function Attrs: mustprogress noinline optnone uwtable
define linkonce_odr dso_local void @_ZN11BinaryImage12DecReferenceEv(ptr noundef nonnull align 8 dereferenceable(24) %0) #4 comdat align 2 !dbg !4332 {
  %2 = alloca ptr, align 8
  store ptr %0, ptr %2, align 8
  call void @llvm.dbg.declare(metadata ptr %2, metadata !4333, metadata !DIExpression()), !dbg !4334
  %3 = load ptr, ptr %2, align 8
  %4 = getelementptr inbounds %class.BinaryImage, ptr %3, i32 0, i32 0, !dbg !4335
  %5 = load ptr, ptr %4, align 8, !dbg !4335
  %6 = icmp ne ptr %5, null, !dbg !4337
  br i1 %6, label %7, label %18, !dbg !4338

7:                                                ; preds = %1
  %8 = getelementptr inbounds %class.BinaryImage, ptr %3, i32 0, i32 0, !dbg !4339
  %9 = load ptr, ptr %8, align 8, !dbg !4339
  %10 = call noundef zeroext i1 @_ZN14FlexImageStoreIhLi1EE13DecReferencesEv(ptr noundef nonnull align 8 dereferenceable(28) %9), !dbg !4341
  br i1 %10, label %11, label %17, !dbg !4342

11:                                               ; preds = %7
  %12 = getelementptr inbounds %class.BinaryImage, ptr %3, i32 0, i32 0, !dbg !4343
  %13 = load ptr, ptr %12, align 8, !dbg !4343
  %14 = icmp eq ptr %13, null, !dbg !4344
  br i1 %14, label %16, label %15, !dbg !4344

15:                                               ; preds = %11
  call void @_ZN14FlexImageStoreIhLi1EED2Ev(ptr noundef nonnull align 8 dereferenceable(28) %13) #3, !dbg !4344
  call void @_ZdlPv(ptr noundef %13) #18, !dbg !4344
  br label %16, !dbg !4344

16:                                               ; preds = %15, %11
  br label %17, !dbg !4344

17:                                               ; preds = %16, %7
  br label %18, !dbg !4345

18:                                               ; preds = %17, %1
  %19 = getelementptr inbounds %class.BinaryImage, ptr %3, i32 0, i32 0, !dbg !4346
  store ptr null, ptr %19, align 8, !dbg !4347
  ret void, !dbg !4348
}

; Function Attrs: nobuiltin allocsize(0)
declare noundef nonnull ptr @_Znwm(i64 noundef) #9

; Function Attrs: noinline optnone uwtable
define linkonce_odr dso_local void @_ZN14FlexImageStoreIhLi1EEC2Eii(ptr noundef nonnull align 8 dereferenceable(28) %0, i32 noundef %1, i32 noundef %2) unnamed_addr #8 comdat align 2 !dbg !4349 {
  %4 = alloca ptr, align 8
  %5 = alloca i32, align 4
  %6 = alloca i32, align 4
  store ptr %0, ptr %4, align 8
  call void @llvm.dbg.declare(metadata ptr %4, metadata !4350, metadata !DIExpression()), !dbg !4351
  store i32 %1, ptr %5, align 4
  call void @llvm.dbg.declare(metadata ptr %5, metadata !4352, metadata !DIExpression()), !dbg !4353
  store i32 %2, ptr %6, align 4
  call void @llvm.dbg.declare(metadata ptr %6, metadata !4354, metadata !DIExpression()), !dbg !4355
  %7 = load ptr, ptr %4, align 8
  %8 = getelementptr inbounds %class.FlexImageStore, ptr %7, i32 0, i32 3, !dbg !4356
  %9 = getelementptr inbounds %class.FlexImageStore, ptr %7, i32 0, i32 0, !dbg !4357
  store i32 1, ptr %9, align 8, !dbg !4359
  %10 = getelementptr inbounds %class.FlexImageStore, ptr %7, i32 0, i32 2, !dbg !4360
  store ptr null, ptr %10, align 8, !dbg !4361
  %11 = load i32, ptr %5, align 4, !dbg !4362
  %12 = load i32, ptr %6, align 4, !dbg !4363
  %13 = call noundef zeroext i1 @_ZN14FlexImageStoreIhLi1EE7SetSizeEii(ptr noundef nonnull align 8 dereferenceable(28) %7, i32 noundef %11, i32 noundef %12), !dbg !4364
  ret void, !dbg !4365
}

; Function Attrs: nobuiltin nounwind
declare void @_ZdlPv(ptr noundef) #10

; Function Attrs: mustprogress noinline nounwind optnone uwtable
define linkonce_odr dso_local noundef ptr @_ZN14FlexImageStoreIhLi1EE4DataEv(ptr noundef nonnull align 8 dereferenceable(28) %0) #6 comdat align 2 !dbg !4366 {
  %2 = alloca ptr, align 8
  store ptr %0, ptr %2, align 8
  call void @llvm.dbg.declare(metadata ptr %2, metadata !4367, metadata !DIExpression()), !dbg !4368
  %3 = load ptr, ptr %2, align 8
  %4 = getelementptr inbounds %class.FlexImageStore, ptr %3, i32 0, i32 2, !dbg !4369
  %5 = load ptr, ptr %4, align 8, !dbg !4369
  ret ptr %5, !dbg !4370
}

; Function Attrs: mustprogress noinline nounwind optnone uwtable
define linkonce_odr dso_local noundef zeroext i1 @_ZN14FlexImageStoreIhLi1EE3ErrEv(ptr noundef nonnull align 8 dereferenceable(28) %0) #6 comdat align 2 !dbg !4371 {
  %2 = alloca ptr, align 8
  store ptr %0, ptr %2, align 8
  call void @llvm.dbg.declare(metadata ptr %2, metadata !4372, metadata !DIExpression()), !dbg !4373
  %3 = load ptr, ptr %2, align 8
  %4 = getelementptr inbounds %class.FlexImageStore, ptr %3, i32 0, i32 2, !dbg !4374
  %5 = load ptr, ptr %4, align 8, !dbg !4374
  %6 = icmp eq ptr %5, null, !dbg !4375
  ret i1 %6, !dbg !4376
}

; Function Attrs: mustprogress noinline nounwind optnone uwtable
define linkonce_odr dso_local noundef zeroext i1 @_ZN14FlexImageStoreIhLi1EE13DecReferencesEv(ptr noundef nonnull align 8 dereferenceable(28) %0) #6 comdat align 2 !dbg !4377 {
  %2 = alloca ptr, align 8
  store ptr %0, ptr %2, align 8
  call void @llvm.dbg.declare(metadata ptr %2, metadata !4378, metadata !DIExpression()), !dbg !4379
  %3 = load ptr, ptr %2, align 8
  %4 = getelementptr inbounds %class.FlexImageStore, ptr %3, i32 0, i32 0, !dbg !4380
  %5 = load i32, ptr %4, align 8, !dbg !4381
  %6 = add nsw i32 %5, -1, !dbg !4381
  store i32 %6, ptr %4, align 8, !dbg !4381
  %7 = icmp eq i32 %6, 0, !dbg !4382
  ret i1 %7, !dbg !4383
}

; Function Attrs: noinline nounwind optnone uwtable
define linkonce_odr dso_local void @_ZN14FlexImageStoreIhLi1EED2Ev(ptr noundef nonnull align 8 dereferenceable(28) %0) unnamed_addr #7 comdat align 2 !dbg !4384 {
  %2 = alloca ptr, align 8
  store ptr %0, ptr %2, align 8
  call void @llvm.dbg.declare(metadata ptr %2, metadata !4385, metadata !DIExpression()), !dbg !4386
  %3 = load ptr, ptr %2, align 8
  %4 = getelementptr inbounds %class.FlexImageStore, ptr %3, i32 0, i32 2, !dbg !4387
  %5 = load ptr, ptr %4, align 8, !dbg !4387
  %6 = icmp ne ptr %5, null, !dbg !4390
  br i1 %6, label %7, label %10, !dbg !4391

7:                                                ; preds = %1
  %8 = getelementptr inbounds %class.FlexImageStore, ptr %3, i32 0, i32 2, !dbg !4392
  %9 = load ptr, ptr %8, align 8, !dbg !4392
  call void @free(ptr noundef %9) #3, !dbg !4393
  br label %10, !dbg !4393

10:                                               ; preds = %7, %1
  ret void, !dbg !4394
}

; Function Attrs: nounwind
declare void @free(ptr noundef) #2

; Function Attrs: mustprogress noinline optnone uwtable
define linkonce_odr dso_local noundef zeroext i1 @_ZN14FlexImageStoreIhLi1EE7SetSizeEii(ptr noundef nonnull align 8 dereferenceable(28) %0, i32 noundef %1, i32 noundef %2) #4 comdat align 2 !dbg !4395 {
  %4 = alloca ptr, align 8
  %5 = alloca i32, align 4
  %6 = alloca i32, align 4
  store ptr %0, ptr %4, align 8
  call void @llvm.dbg.declare(metadata ptr %4, metadata !4396, metadata !DIExpression()), !dbg !4397
  store i32 %1, ptr %5, align 4
  call void @llvm.dbg.declare(metadata ptr %5, metadata !4398, metadata !DIExpression()), !dbg !4399
  store i32 %2, ptr %6, align 4
  call void @llvm.dbg.declare(metadata ptr %6, metadata !4400, metadata !DIExpression()), !dbg !4401
  %7 = load ptr, ptr %4, align 8
  %8 = load i32, ptr %5, align 4, !dbg !4402
  %9 = getelementptr inbounds %class.FlexImageStore, ptr %7, i32 0, i32 3, !dbg !4403
  %10 = getelementptr inbounds %class.FISize, ptr %9, i32 0, i32 0, !dbg !4404
  store i32 %8, ptr %10, align 8, !dbg !4405
  %11 = load i32, ptr %6, align 4, !dbg !4406
  %12 = getelementptr inbounds %class.FlexImageStore, ptr %7, i32 0, i32 3, !dbg !4407
  %13 = getelementptr inbounds %class.FISize, ptr %12, i32 0, i32 1, !dbg !4408
  store i32 %11, ptr %13, align 4, !dbg !4409
  %14 = getelementptr inbounds %class.FlexImageStore, ptr %7, i32 0, i32 2, !dbg !4410
  store ptr null, ptr %14, align 8, !dbg !4411
  call void @_ZN14FlexImageStoreIhLi1EE8AllocateEv(ptr noundef nonnull align 8 dereferenceable(28) %7), !dbg !4412
  %15 = call noundef zeroext i1 @_ZN14FlexImageStoreIhLi1EE3ErrEv(ptr noundef nonnull align 8 dereferenceable(28) %7), !dbg !4413
  ret i1 %15, !dbg !4414
}

; Function Attrs: mustprogress noinline optnone uwtable
define linkonce_odr dso_local void @_ZN14FlexImageStoreIhLi1EE8AllocateEv(ptr noundef nonnull align 8 dereferenceable(28) %0) #4 comdat align 2 !dbg !4415 {
  %2 = alloca ptr, align 8
  store ptr %0, ptr %2, align 8
  call void @llvm.dbg.declare(metadata ptr %2, metadata !4416, metadata !DIExpression()), !dbg !4417
  %3 = load ptr, ptr %2, align 8
  %4 = getelementptr inbounds %class.FlexImageStore, ptr %3, i32 0, i32 2, !dbg !4418
  %5 = load ptr, ptr %4, align 8, !dbg !4418
  %6 = icmp ne ptr %5, null, !dbg !4420
  br i1 %6, label %7, label %10, !dbg !4421

7:                                                ; preds = %1
  %8 = getelementptr inbounds %class.FlexImageStore, ptr %3, i32 0, i32 2, !dbg !4422
  %9 = load ptr, ptr %8, align 8, !dbg !4422
  call void @free(ptr noundef %9) #3, !dbg !4423
  br label %10, !dbg !4423

10:                                               ; preds = %7, %1
  %11 = getelementptr inbounds %class.FlexImageStore, ptr %3, i32 0, i32 3, !dbg !4424
  %12 = getelementptr inbounds %class.FISize, ptr %11, i32 0, i32 0, !dbg !4425
  %13 = load i32, ptr %12, align 8, !dbg !4425
  %14 = getelementptr inbounds %class.FlexImageStore, ptr %3, i32 0, i32 3, !dbg !4426
  %15 = getelementptr inbounds %class.FISize, ptr %14, i32 0, i32 1, !dbg !4427
  %16 = load i32, ptr %15, align 4, !dbg !4427
  %17 = getelementptr inbounds %class.FlexImageStore, ptr %3, i32 0, i32 4, !dbg !4428
  %18 = call noundef ptr @_ZN14FlexImageStoreIhLi1EE10FlexMallocEiiRi(ptr noundef nonnull align 8 dereferenceable(28) %3, i32 noundef %13, i32 noundef %16, ptr noundef nonnull align 4 dereferenceable(4) %17), !dbg !4429
  %19 = getelementptr inbounds %class.FlexImageStore, ptr %3, i32 0, i32 2, !dbg !4430
  store ptr %18, ptr %19, align 8, !dbg !4431
  ret void, !dbg !4432
}

; Function Attrs: mustprogress noinline nounwind optnone uwtable
define linkonce_odr dso_local noundef ptr @_ZN14FlexImageStoreIhLi1EE10FlexMallocEiiRi(ptr noundef nonnull align 8 dereferenceable(28) %0, i32 noundef %1, i32 noundef %2, ptr noundef nonnull align 4 dereferenceable(4) %3) #6 comdat align 2 !dbg !4433 {
  %5 = alloca ptr, align 8
  %6 = alloca i32, align 4
  %7 = alloca i32, align 4
  %8 = alloca ptr, align 8
  store ptr %0, ptr %5, align 8
  call void @llvm.dbg.declare(metadata ptr %5, metadata !4434, metadata !DIExpression()), !dbg !4435
  store i32 %1, ptr %6, align 4
  call void @llvm.dbg.declare(metadata ptr %6, metadata !4436, metadata !DIExpression()), !dbg !4437
  store i32 %2, ptr %7, align 4
  call void @llvm.dbg.declare(metadata ptr %7, metadata !4438, metadata !DIExpression()), !dbg !4439
  store ptr %3, ptr %8, align 8
  call void @llvm.dbg.declare(metadata ptr %8, metadata !4440, metadata !DIExpression()), !dbg !4441
  %9 = load ptr, ptr %5, align 8
  %10 = load i32, ptr %6, align 4, !dbg !4442
  %11 = mul nsw i32 %10, 1, !dbg !4443
  %12 = sext i32 %11 to i64, !dbg !4442
  %13 = mul i64 %12, 1, !dbg !4444
  %14 = trunc i64 %13 to i32, !dbg !4442
  %15 = load ptr, ptr %8, align 8, !dbg !4445
  store i32 %14, ptr %15, align 4, !dbg !4446
  %16 = load ptr, ptr %8, align 8, !dbg !4447
  %17 = load i32, ptr %16, align 4, !dbg !4447
  %18 = sub nsw i32 %17, 1, !dbg !4448
  %19 = sdiv i32 %18, 4, !dbg !4449
  %20 = mul nsw i32 %19, 4, !dbg !4450
  %21 = add nsw i32 %20, 4, !dbg !4451
  %22 = load ptr, ptr %8, align 8, !dbg !4452
  store i32 %21, ptr %22, align 4, !dbg !4453
  %23 = load ptr, ptr %8, align 8, !dbg !4454
  %24 = load i32, ptr %23, align 4, !dbg !4454
  %25 = load i32, ptr %7, align 4, !dbg !4455
  %26 = mul nsw i32 %24, %25, !dbg !4456
  %27 = sext i32 %26 to i64, !dbg !4454
  %28 = call noalias ptr @malloc(i64 noundef %27) #20, !dbg !4457
  ret ptr %28, !dbg !4458
}

; Function Attrs: nounwind allocsize(0)
declare noalias ptr @malloc(i64 noundef) #11

; Function Attrs: nocallback nofree nounwind willreturn memory(argmem: write)
declare void @llvm.memset.p0.i64(ptr nocapture writeonly, i8, i64, i1 immarg) #12

; Function Attrs: mustprogress noinline nounwind optnone uwtable
define linkonce_odr dso_local noundef nonnull align 1 dereferenceable(1) ptr @_ZNK9FlexImageIhLi1EEclEiii(ptr noundef nonnull align 8 dereferenceable(36) %0, i32 noundef %1, i32 noundef %2, i32 noundef %3) #6 comdat align 2 !dbg !4459 {
  %5 = alloca ptr, align 8
  %6 = alloca i32, align 4
  %7 = alloca i32, align 4
  %8 = alloca i32, align 4
  store ptr %0, ptr %5, align 8
  call void @llvm.dbg.declare(metadata ptr %5, metadata !4463, metadata !DIExpression()), !dbg !4464
  store i32 %1, ptr %6, align 4
  call void @llvm.dbg.declare(metadata ptr %6, metadata !4465, metadata !DIExpression()), !dbg !4466
  store i32 %2, ptr %7, align 4
  call void @llvm.dbg.declare(metadata ptr %7, metadata !4467, metadata !DIExpression()), !dbg !4468
  store i32 %3, ptr %8, align 4
  call void @llvm.dbg.declare(metadata ptr %8, metadata !4469, metadata !DIExpression()), !dbg !4470
  %9 = load ptr, ptr %5, align 8
  %10 = getelementptr inbounds %class.FlexImage, ptr %9, i32 0, i32 1, !dbg !4471
  %11 = load ptr, ptr %10, align 8, !dbg !4471
  %12 = getelementptr inbounds %class.FlexImage, ptr %9, i32 0, i32 3, !dbg !4472
  %13 = load i32, ptr %12, align 4, !dbg !4472
  %14 = load i32, ptr %7, align 4, !dbg !4473
  %15 = mul nsw i32 %13, %14, !dbg !4474
  %16 = sext i32 %15 to i64, !dbg !4475
  %17 = getelementptr inbounds i8, ptr %11, i64 %16, !dbg !4475
  %18 = getelementptr inbounds %class.FlexImage, ptr %9, i32 0, i32 2, !dbg !4476
  %19 = load i32, ptr %18, align 8, !dbg !4476
  %20 = load i32, ptr %6, align 4, !dbg !4477
  %21 = mul nsw i32 %19, %20, !dbg !4478
  %22 = sext i32 %21 to i64, !dbg !4479
  %23 = getelementptr inbounds i8, ptr %17, i64 %22, !dbg !4479
  %24 = load i32, ptr %8, align 4, !dbg !4480
  %25 = sext i32 %24 to i64, !dbg !4480
  %26 = mul i64 %25, 1, !dbg !4481
  %27 = getelementptr inbounds i8, ptr %23, i64 %26, !dbg !4482
  ret ptr %27, !dbg !4483
}

; Function Attrs: nounwind
declare void @_ZN7threads9ConditionD1Ev(ptr noundef nonnull align 8 dereferenceable(64)) unnamed_addr #2

; Function Attrs: nounwind
declare void @_ZN7threads5MutexD1Ev(ptr noundef nonnull align 8 dereferenceable(48)) unnamed_addr #2

; Function Attrs: noinline nounwind optnone uwtable
define linkonce_odr dso_local void @_ZNSt5dequeISt6vectorI11BinaryImageSaIS1_EESaIS3_EED2Ev(ptr noundef nonnull align 8 dereferenceable(80) %0) unnamed_addr #7 comdat align 2 personality ptr @__gxx_personality_v0 !dbg !4484 {
  %2 = alloca ptr, align 8
  %3 = alloca %"struct.std::_Deque_iterator.13", align 8
  %4 = alloca %"struct.std::_Deque_iterator.13", align 8
  store ptr %0, ptr %2, align 8
  call void @llvm.dbg.declare(metadata ptr %2, metadata !4486, metadata !DIExpression()), !dbg !4487
  %5 = load ptr, ptr %2, align 8
  call void @_ZNSt5dequeISt6vectorI11BinaryImageSaIS1_EESaIS3_EE5beginEv(ptr sret(%"struct.std::_Deque_iterator.13") align 8 %3, ptr noundef nonnull align 8 dereferenceable(80) %5) #3, !dbg !4488
  call void @_ZNSt5dequeISt6vectorI11BinaryImageSaIS1_EESaIS3_EE3endEv(ptr sret(%"struct.std::_Deque_iterator.13") align 8 %4, ptr noundef nonnull align 8 dereferenceable(80) %5) #3, !dbg !4490
  %6 = call noundef nonnull align 1 dereferenceable(1) ptr @_ZNSt11_Deque_baseISt6vectorI11BinaryImageSaIS1_EESaIS3_EE19_M_get_Tp_allocatorEv(ptr noundef nonnull align 8 dereferenceable(80) %5) #3, !dbg !4491
  invoke void @_ZNSt5dequeISt6vectorI11BinaryImageSaIS1_EESaIS3_EE15_M_destroy_dataESt15_Deque_iteratorIS3_RS3_PS3_ES9_RKS4_(ptr noundef nonnull align 8 dereferenceable(80) %5, ptr noundef %3, ptr noundef %4, ptr noundef nonnull align 1 dereferenceable(1) %6)
          to label %7 unwind label %8, !dbg !4492

7:                                                ; preds = %1
  call void @_ZNSt11_Deque_baseISt6vectorI11BinaryImageSaIS1_EESaIS3_EED2Ev(ptr noundef nonnull align 8 dereferenceable(80) %5) #3, !dbg !4493
  ret void, !dbg !4494

8:                                                ; preds = %1
  %9 = landingpad { ptr, i32 }
          catch ptr null, !dbg !4492
  %10 = extractvalue { ptr, i32 } %9, 0, !dbg !4492
  call void @__clang_call_terminate(ptr %10) #17, !dbg !4492
  unreachable, !dbg !4492
}

; Function Attrs: noinline nounwind optnone uwtable
define linkonce_odr dso_local void @_ZNSt5dequeISt6vectorI9FlexImageIhLi1EESaIS2_EESaIS4_EED2Ev(ptr noundef nonnull align 8 dereferenceable(80) %0) unnamed_addr #7 comdat align 2 personality ptr @__gxx_personality_v0 !dbg !4495 {
  %2 = alloca ptr, align 8
  %3 = alloca %"struct.std::_Deque_iterator", align 8
  %4 = alloca %"struct.std::_Deque_iterator", align 8
  store ptr %0, ptr %2, align 8
  call void @llvm.dbg.declare(metadata ptr %2, metadata !4497, metadata !DIExpression()), !dbg !4498
  %5 = load ptr, ptr %2, align 8
  call void @_ZNSt5dequeISt6vectorI9FlexImageIhLi1EESaIS2_EESaIS4_EE5beginEv(ptr sret(%"struct.std::_Deque_iterator") align 8 %3, ptr noundef nonnull align 8 dereferenceable(80) %5) #3, !dbg !4499
  call void @_ZNSt5dequeISt6vectorI9FlexImageIhLi1EESaIS2_EESaIS4_EE3endEv(ptr sret(%"struct.std::_Deque_iterator") align 8 %4, ptr noundef nonnull align 8 dereferenceable(80) %5) #3, !dbg !4501
  %6 = call noundef nonnull align 1 dereferenceable(1) ptr @_ZNSt11_Deque_baseISt6vectorI9FlexImageIhLi1EESaIS2_EESaIS4_EE19_M_get_Tp_allocatorEv(ptr noundef nonnull align 8 dereferenceable(80) %5) #3, !dbg !4502
  invoke void @_ZNSt5dequeISt6vectorI9FlexImageIhLi1EESaIS2_EESaIS4_EE15_M_destroy_dataESt15_Deque_iteratorIS4_RS4_PS4_ESA_RKS5_(ptr noundef nonnull align 8 dereferenceable(80) %5, ptr noundef %3, ptr noundef %4, ptr noundef nonnull align 1 dereferenceable(1) %6)
          to label %7 unwind label %8, !dbg !4503

7:                                                ; preds = %1
  call void @_ZNSt11_Deque_baseISt6vectorI9FlexImageIhLi1EESaIS2_EESaIS4_EED2Ev(ptr noundef nonnull align 8 dereferenceable(80) %5) #3, !dbg !4504
  ret void, !dbg !4505

8:                                                ; preds = %1
  %9 = landingpad { ptr, i32 }
          catch ptr null, !dbg !4503
  %10 = extractvalue { ptr, i32 } %9, 0, !dbg !4503
  call void @__clang_call_terminate(ptr %10) #17, !dbg !4503
  unreachable, !dbg !4503
}

; Function Attrs: noinline nounwind optnone uwtable
define linkonce_odr dso_local void @_ZN7threads8RunnableD2Ev(ptr noundef nonnull align 8 dereferenceable(8) %0) unnamed_addr #7 comdat align 2 !dbg !4506 {
  %2 = alloca ptr, align 8
  store ptr %0, ptr %2, align 8
  call void @llvm.dbg.declare(metadata ptr %2, metadata !4511, metadata !DIExpression()), !dbg !4513
  %3 = load ptr, ptr %2, align 8
  ret void, !dbg !4514
}

; Function Attrs: mustprogress noinline optnone uwtable
define linkonce_odr dso_local void @_ZNSt5dequeISt6vectorI11BinaryImageSaIS1_EESaIS3_EE15_M_destroy_dataESt15_Deque_iteratorIS3_RS3_PS3_ES9_RKS4_(ptr noundef nonnull align 8 dereferenceable(80) %0, ptr noundef %1, ptr noundef %2, ptr noundef nonnull align 1 dereferenceable(1) %3) #4 comdat align 2 !dbg !4515 {
  %5 = alloca ptr, align 8
  %6 = alloca ptr, align 8
  %7 = alloca %"struct.std::_Deque_iterator.13", align 8
  %8 = alloca %"struct.std::_Deque_iterator.13", align 8
  store ptr %0, ptr %5, align 8
  call void @llvm.dbg.declare(metadata ptr %5, metadata !4521, metadata !DIExpression()), !dbg !4522
  call void @llvm.dbg.declare(metadata ptr %1, metadata !4523, metadata !DIExpression()), !dbg !4524
  call void @llvm.dbg.declare(metadata ptr %2, metadata !4525, metadata !DIExpression()), !dbg !4526
  store ptr %3, ptr %6, align 8
  call void @llvm.dbg.declare(metadata ptr %6, metadata !4527, metadata !DIExpression()), !dbg !4528
  %9 = load ptr, ptr %5, align 8
  call void @_ZNSt15_Deque_iteratorISt6vectorI11BinaryImageSaIS1_EERS3_PS3_EC2ERKS6_(ptr noundef nonnull align 8 dereferenceable(32) %7, ptr noundef nonnull align 8 dereferenceable(32) %1) #3, !dbg !4529
  call void @_ZNSt15_Deque_iteratorISt6vectorI11BinaryImageSaIS1_EERS3_PS3_EC2ERKS6_(ptr noundef nonnull align 8 dereferenceable(32) %8, ptr noundef nonnull align 8 dereferenceable(32) %2) #3, !dbg !4531
  call void @_ZNSt5dequeISt6vectorI11BinaryImageSaIS1_EESaIS3_EE19_M_destroy_data_auxESt15_Deque_iteratorIS3_RS3_PS3_ES9_(ptr noundef nonnull align 8 dereferenceable(80) %9, ptr noundef %7, ptr noundef %8), !dbg !4532
  ret void, !dbg !4533
}

; Function Attrs: mustprogress noinline nounwind optnone uwtable
define linkonce_odr dso_local void @_ZNSt5dequeISt6vectorI11BinaryImageSaIS1_EESaIS3_EE5beginEv(ptr noalias sret(%"struct.std::_Deque_iterator.13") align 8 %0, ptr noundef nonnull align 8 dereferenceable(80) %1) #6 comdat align 2 !dbg !4534 {
  %3 = alloca ptr, align 8
  %4 = alloca ptr, align 8
  store ptr %0, ptr %3, align 8
  store ptr %1, ptr %4, align 8
  call void @llvm.dbg.declare(metadata ptr %4, metadata !4538, metadata !DIExpression()), !dbg !4539
  %5 = load ptr, ptr %4, align 8
  %6 = getelementptr inbounds %"class.std::_Deque_base.4", ptr %5, i32 0, i32 0, !dbg !4540
  %7 = getelementptr inbounds %"struct.std::_Deque_base<std::vector<BinaryImage>, std::allocator<std::vector<BinaryImage>>>::_Deque_impl_data", ptr %6, i32 0, i32 2, !dbg !4541
  call void @_ZNSt15_Deque_iteratorISt6vectorI11BinaryImageSaIS1_EERS3_PS3_EC2ERKS6_(ptr noundef nonnull align 8 dereferenceable(32) %0, ptr noundef nonnull align 8 dereferenceable(32) %7) #3, !dbg !4542
  ret void, !dbg !4543
}

; Function Attrs: mustprogress noinline nounwind optnone uwtable
define linkonce_odr dso_local void @_ZNSt5dequeISt6vectorI11BinaryImageSaIS1_EESaIS3_EE3endEv(ptr noalias sret(%"struct.std::_Deque_iterator.13") align 8 %0, ptr noundef nonnull align 8 dereferenceable(80) %1) #6 comdat align 2 !dbg !4544 {
  %3 = alloca ptr, align 8
  %4 = alloca ptr, align 8
  store ptr %0, ptr %3, align 8
  store ptr %1, ptr %4, align 8
  call void @llvm.dbg.declare(metadata ptr %4, metadata !4546, metadata !DIExpression()), !dbg !4547
  %5 = load ptr, ptr %4, align 8
  %6 = getelementptr inbounds %"class.std::_Deque_base.4", ptr %5, i32 0, i32 0, !dbg !4548
  %7 = getelementptr inbounds %"struct.std::_Deque_base<std::vector<BinaryImage>, std::allocator<std::vector<BinaryImage>>>::_Deque_impl_data", ptr %6, i32 0, i32 3, !dbg !4549
  call void @_ZNSt15_Deque_iteratorISt6vectorI11BinaryImageSaIS1_EERS3_PS3_EC2ERKS6_(ptr noundef nonnull align 8 dereferenceable(32) %0, ptr noundef nonnull align 8 dereferenceable(32) %7) #3, !dbg !4550
  ret void, !dbg !4551
}

; Function Attrs: mustprogress noinline nounwind optnone uwtable
define linkonce_odr dso_local noundef nonnull align 1 dereferenceable(1) ptr @_ZNSt11_Deque_baseISt6vectorI11BinaryImageSaIS1_EESaIS3_EE19_M_get_Tp_allocatorEv(ptr noundef nonnull align 8 dereferenceable(80) %0) #6 comdat align 2 !dbg !4552 {
  %2 = alloca ptr, align 8
  store ptr %0, ptr %2, align 8
  call void @llvm.dbg.declare(metadata ptr %2, metadata !4563, metadata !DIExpression()), !dbg !4565
  %3 = load ptr, ptr %2, align 8
  %4 = getelementptr inbounds %"class.std::_Deque_base.4", ptr %3, i32 0, i32 0, !dbg !4566
  ret ptr %4, !dbg !4567
}

; Function Attrs: noinline noreturn nounwind
define linkonce_odr hidden void @__clang_call_terminate(ptr noundef %0) #13 comdat {
  %2 = call ptr @__cxa_begin_catch(ptr %0) #3
  call void @_ZSt9terminatev() #17
  unreachable
}

declare ptr @__cxa_begin_catch(ptr)

declare void @_ZSt9terminatev()

; Function Attrs: noinline nounwind optnone uwtable
define linkonce_odr dso_local void @_ZNSt11_Deque_baseISt6vectorI11BinaryImageSaIS1_EESaIS3_EED2Ev(ptr noundef nonnull align 8 dereferenceable(80) %0) unnamed_addr #7 comdat align 2 !dbg !4568 {
  %2 = alloca ptr, align 8
  store ptr %0, ptr %2, align 8
  call void @llvm.dbg.declare(metadata ptr %2, metadata !4572, metadata !DIExpression()), !dbg !4573
  %3 = load ptr, ptr %2, align 8
  %4 = getelementptr inbounds %"class.std::_Deque_base.4", ptr %3, i32 0, i32 0, !dbg !4574
  %5 = getelementptr inbounds %"struct.std::_Deque_base<std::vector<BinaryImage>, std::allocator<std::vector<BinaryImage>>>::_Deque_impl_data", ptr %4, i32 0, i32 0, !dbg !4577
  %6 = load ptr, ptr %5, align 8, !dbg !4577
  %7 = icmp ne ptr %6, null, !dbg !4578
  br i1 %7, label %8, label %24, !dbg !4579

8:                                                ; preds = %1
  %9 = getelementptr inbounds %"class.std::_Deque_base.4", ptr %3, i32 0, i32 0, !dbg !4580
  %10 = getelementptr inbounds %"struct.std::_Deque_base<std::vector<BinaryImage>, std::allocator<std::vector<BinaryImage>>>::_Deque_impl_data", ptr %9, i32 0, i32 2, !dbg !4582
  %11 = getelementptr inbounds %"struct.std::_Deque_iterator.13", ptr %10, i32 0, i32 3, !dbg !4583
  %12 = load ptr, ptr %11, align 8, !dbg !4583
  %13 = getelementptr inbounds %"class.std::_Deque_base.4", ptr %3, i32 0, i32 0, !dbg !4584
  %14 = getelementptr inbounds %"struct.std::_Deque_base<std::vector<BinaryImage>, std::allocator<std::vector<BinaryImage>>>::_Deque_impl_data", ptr %13, i32 0, i32 3, !dbg !4585
  %15 = getelementptr inbounds %"struct.std::_Deque_iterator.13", ptr %14, i32 0, i32 3, !dbg !4586
  %16 = load ptr, ptr %15, align 8, !dbg !4586
  %17 = getelementptr inbounds ptr, ptr %16, i64 1, !dbg !4587
  call void @_ZNSt11_Deque_baseISt6vectorI11BinaryImageSaIS1_EESaIS3_EE16_M_destroy_nodesEPPS3_S7_(ptr noundef nonnull align 8 dereferenceable(80) %3, ptr noundef %12, ptr noundef %17) #3, !dbg !4588
  %18 = getelementptr inbounds %"class.std::_Deque_base.4", ptr %3, i32 0, i32 0, !dbg !4589
  %19 = getelementptr inbounds %"struct.std::_Deque_base<std::vector<BinaryImage>, std::allocator<std::vector<BinaryImage>>>::_Deque_impl_data", ptr %18, i32 0, i32 0, !dbg !4590
  %20 = load ptr, ptr %19, align 8, !dbg !4590
  %21 = getelementptr inbounds %"class.std::_Deque_base.4", ptr %3, i32 0, i32 0, !dbg !4591
  %22 = getelementptr inbounds %"struct.std::_Deque_base<std::vector<BinaryImage>, std::allocator<std::vector<BinaryImage>>>::_Deque_impl_data", ptr %21, i32 0, i32 1, !dbg !4592
  %23 = load i64, ptr %22, align 8, !dbg !4592
  call void @_ZNSt11_Deque_baseISt6vectorI11BinaryImageSaIS1_EESaIS3_EE17_M_deallocate_mapEPPS3_m(ptr noundef nonnull align 8 dereferenceable(80) %3, ptr noundef %20, i64 noundef %23) #3, !dbg !4593
  br label %24, !dbg !4594

24:                                               ; preds = %8, %1
  %25 = getelementptr inbounds %"class.std::_Deque_base.4", ptr %3, i32 0, i32 0, !dbg !4595
  call void @_ZNSt11_Deque_baseISt6vectorI11BinaryImageSaIS1_EESaIS3_EE11_Deque_implD2Ev(ptr noundef nonnull align 8 dereferenceable(80) %25) #3, !dbg !4595
  ret void, !dbg !4596
}

; Function Attrs: mustprogress noinline optnone uwtable
define linkonce_odr dso_local void @_ZNSt5dequeISt6vectorI11BinaryImageSaIS1_EESaIS3_EE19_M_destroy_data_auxESt15_Deque_iteratorIS3_RS3_PS3_ES9_(ptr noundef nonnull align 8 dereferenceable(80) %0, ptr noundef %1, ptr noundef %2) #4 comdat align 2 !dbg !4597 {
  %4 = alloca ptr, align 8
  %5 = alloca ptr, align 8
  store ptr %0, ptr %4, align 8
  call void @llvm.dbg.declare(metadata ptr %4, metadata !4601, metadata !DIExpression()), !dbg !4602
  call void @llvm.dbg.declare(metadata ptr %1, metadata !4603, metadata !DIExpression()), !dbg !4604
  call void @llvm.dbg.declare(metadata ptr %2, metadata !4605, metadata !DIExpression()), !dbg !4606
  %6 = load ptr, ptr %4, align 8
  call void @llvm.dbg.declare(metadata ptr %5, metadata !4607, metadata !DIExpression()), !dbg !4611
  %7 = getelementptr inbounds %"struct.std::_Deque_iterator.13", ptr %1, i32 0, i32 3, !dbg !4612
  %8 = load ptr, ptr %7, align 8, !dbg !4612
  %9 = getelementptr inbounds ptr, ptr %8, i64 1, !dbg !4613
  store ptr %9, ptr %5, align 8, !dbg !4611
  br label %10, !dbg !4614

10:                                               ; preds = %23, %3
  %11 = load ptr, ptr %5, align 8, !dbg !4615
  %12 = getelementptr inbounds %"struct.std::_Deque_iterator.13", ptr %2, i32 0, i32 3, !dbg !4617
  %13 = load ptr, ptr %12, align 8, !dbg !4617
  %14 = icmp ult ptr %11, %13, !dbg !4618
  br i1 %14, label %15, label %26, !dbg !4619

15:                                               ; preds = %10
  %16 = load ptr, ptr %5, align 8, !dbg !4620
  %17 = load ptr, ptr %16, align 8, !dbg !4621
  %18 = load ptr, ptr %5, align 8, !dbg !4622
  %19 = load ptr, ptr %18, align 8, !dbg !4623
  %20 = call noundef i64 @_ZNSt5dequeISt6vectorI11BinaryImageSaIS1_EESaIS3_EE14_S_buffer_sizeEv() #3, !dbg !4624
  %21 = getelementptr inbounds %"class.std::vector.8", ptr %19, i64 %20, !dbg !4625
  %22 = call noundef nonnull align 1 dereferenceable(1) ptr @_ZNSt11_Deque_baseISt6vectorI11BinaryImageSaIS1_EESaIS3_EE19_M_get_Tp_allocatorEv(ptr noundef nonnull align 8 dereferenceable(80) %6) #3, !dbg !4626
  call void @_ZSt8_DestroyIPSt6vectorI11BinaryImageSaIS1_EES3_EvT_S5_RSaIT0_E(ptr noundef %17, ptr noundef %21, ptr noundef nonnull align 1 dereferenceable(1) %22), !dbg !4627
  br label %23, !dbg !4627

23:                                               ; preds = %15
  %24 = load ptr, ptr %5, align 8, !dbg !4628
  %25 = getelementptr inbounds ptr, ptr %24, i32 1, !dbg !4628
  store ptr %25, ptr %5, align 8, !dbg !4628
  br label %10, !dbg !4629, !llvm.loop !4630

26:                                               ; preds = %10
  %27 = getelementptr inbounds %"struct.std::_Deque_iterator.13", ptr %1, i32 0, i32 3, !dbg !4632
  %28 = load ptr, ptr %27, align 8, !dbg !4632
  %29 = getelementptr inbounds %"struct.std::_Deque_iterator.13", ptr %2, i32 0, i32 3, !dbg !4634
  %30 = load ptr, ptr %29, align 8, !dbg !4634
  %31 = icmp ne ptr %28, %30, !dbg !4635
  br i1 %31, label %32, label %43, !dbg !4636

32:                                               ; preds = %26
  %33 = getelementptr inbounds %"struct.std::_Deque_iterator.13", ptr %1, i32 0, i32 0, !dbg !4637
  %34 = load ptr, ptr %33, align 8, !dbg !4637
  %35 = getelementptr inbounds %"struct.std::_Deque_iterator.13", ptr %1, i32 0, i32 2, !dbg !4639
  %36 = load ptr, ptr %35, align 8, !dbg !4639
  %37 = call noundef nonnull align 1 dereferenceable(1) ptr @_ZNSt11_Deque_baseISt6vectorI11BinaryImageSaIS1_EESaIS3_EE19_M_get_Tp_allocatorEv(ptr noundef nonnull align 8 dereferenceable(80) %6) #3, !dbg !4640
  call void @_ZSt8_DestroyIPSt6vectorI11BinaryImageSaIS1_EES3_EvT_S5_RSaIT0_E(ptr noundef %34, ptr noundef %36, ptr noundef nonnull align 1 dereferenceable(1) %37), !dbg !4641
  %38 = getelementptr inbounds %"struct.std::_Deque_iterator.13", ptr %2, i32 0, i32 1, !dbg !4642
  %39 = load ptr, ptr %38, align 8, !dbg !4642
  %40 = getelementptr inbounds %"struct.std::_Deque_iterator.13", ptr %2, i32 0, i32 0, !dbg !4643
  %41 = load ptr, ptr %40, align 8, !dbg !4643
  %42 = call noundef nonnull align 1 dereferenceable(1) ptr @_ZNSt11_Deque_baseISt6vectorI11BinaryImageSaIS1_EESaIS3_EE19_M_get_Tp_allocatorEv(ptr noundef nonnull align 8 dereferenceable(80) %6) #3, !dbg !4644
  call void @_ZSt8_DestroyIPSt6vectorI11BinaryImageSaIS1_EES3_EvT_S5_RSaIT0_E(ptr noundef %39, ptr noundef %41, ptr noundef nonnull align 1 dereferenceable(1) %42), !dbg !4645
  br label %49, !dbg !4646

43:                                               ; preds = %26
  %44 = getelementptr inbounds %"struct.std::_Deque_iterator.13", ptr %1, i32 0, i32 0, !dbg !4647
  %45 = load ptr, ptr %44, align 8, !dbg !4647
  %46 = getelementptr inbounds %"struct.std::_Deque_iterator.13", ptr %2, i32 0, i32 0, !dbg !4648
  %47 = load ptr, ptr %46, align 8, !dbg !4648
  %48 = call noundef nonnull align 1 dereferenceable(1) ptr @_ZNSt11_Deque_baseISt6vectorI11BinaryImageSaIS1_EESaIS3_EE19_M_get_Tp_allocatorEv(ptr noundef nonnull align 8 dereferenceable(80) %6) #3, !dbg !4649
  call void @_ZSt8_DestroyIPSt6vectorI11BinaryImageSaIS1_EES3_EvT_S5_RSaIT0_E(ptr noundef %45, ptr noundef %47, ptr noundef nonnull align 1 dereferenceable(1) %48), !dbg !4650
  br label %49

49:                                               ; preds = %43, %32
  ret void, !dbg !4651
}

; Function Attrs: noinline nounwind optnone uwtable
define linkonce_odr dso_local void @_ZNSt15_Deque_iteratorISt6vectorI11BinaryImageSaIS1_EERS3_PS3_EC2ERKS6_(ptr noundef nonnull align 8 dereferenceable(32) %0, ptr noundef nonnull align 8 dereferenceable(32) %1) unnamed_addr #7 comdat align 2 !dbg !4652 {
  %3 = alloca ptr, align 8
  %4 = alloca ptr, align 8
  store ptr %0, ptr %3, align 8
  call void @llvm.dbg.declare(metadata ptr %3, metadata !4653, metadata !DIExpression()), !dbg !4655
  store ptr %1, ptr %4, align 8
  call void @llvm.dbg.declare(metadata ptr %4, metadata !4656, metadata !DIExpression()), !dbg !4657
  %5 = load ptr, ptr %3, align 8
  %6 = getelementptr inbounds %"struct.std::_Deque_iterator.13", ptr %5, i32 0, i32 0, !dbg !4658
  %7 = load ptr, ptr %4, align 8, !dbg !4659
  %8 = getelementptr inbounds %"struct.std::_Deque_iterator.13", ptr %7, i32 0, i32 0, !dbg !4660
  %9 = load ptr, ptr %8, align 8, !dbg !4660
  store ptr %9, ptr %6, align 8, !dbg !4658
  %10 = getelementptr inbounds %"struct.std::_Deque_iterator.13", ptr %5, i32 0, i32 1, !dbg !4661
  %11 = load ptr, ptr %4, align 8, !dbg !4662
  %12 = getelementptr inbounds %"struct.std::_Deque_iterator.13", ptr %11, i32 0, i32 1, !dbg !4663
  %13 = load ptr, ptr %12, align 8, !dbg !4663
  store ptr %13, ptr %10, align 8, !dbg !4661
  %14 = getelementptr inbounds %"struct.std::_Deque_iterator.13", ptr %5, i32 0, i32 2, !dbg !4664
  %15 = load ptr, ptr %4, align 8, !dbg !4665
  %16 = getelementptr inbounds %"struct.std::_Deque_iterator.13", ptr %15, i32 0, i32 2, !dbg !4666
  %17 = load ptr, ptr %16, align 8, !dbg !4666
  store ptr %17, ptr %14, align 8, !dbg !4664
  %18 = getelementptr inbounds %"struct.std::_Deque_iterator.13", ptr %5, i32 0, i32 3, !dbg !4667
  %19 = load ptr, ptr %4, align 8, !dbg !4668
  %20 = getelementptr inbounds %"struct.std::_Deque_iterator.13", ptr %19, i32 0, i32 3, !dbg !4669
  %21 = load ptr, ptr %20, align 8, !dbg !4669
  store ptr %21, ptr %18, align 8, !dbg !4667
  ret void, !dbg !4670
}

; Function Attrs: mustprogress noinline optnone uwtable
define linkonce_odr dso_local void @_ZSt8_DestroyIPSt6vectorI11BinaryImageSaIS1_EES3_EvT_S5_RSaIT0_E(ptr noundef %0, ptr noundef %1, ptr noundef nonnull align 1 dereferenceable(1) %2) #4 comdat !dbg !4671 {
  %4 = alloca ptr, align 8
  %5 = alloca ptr, align 8
  %6 = alloca ptr, align 8
  store ptr %0, ptr %4, align 8
  call void @llvm.dbg.declare(metadata ptr %4, metadata !4676, metadata !DIExpression()), !dbg !4677
  store ptr %1, ptr %5, align 8
  call void @llvm.dbg.declare(metadata ptr %5, metadata !4678, metadata !DIExpression()), !dbg !4679
  store ptr %2, ptr %6, align 8
  call void @llvm.dbg.declare(metadata ptr %6, metadata !4680, metadata !DIExpression()), !dbg !4681
  %7 = load ptr, ptr %4, align 8, !dbg !4682
  %8 = load ptr, ptr %5, align 8, !dbg !4683
  call void @_ZSt8_DestroyIPSt6vectorI11BinaryImageSaIS1_EEEvT_S5_(ptr noundef %7, ptr noundef %8), !dbg !4684
  ret void, !dbg !4685
}

; Function Attrs: mustprogress noinline nounwind optnone uwtable
define linkonce_odr dso_local noundef i64 @_ZNSt5dequeISt6vectorI11BinaryImageSaIS1_EESaIS3_EE14_S_buffer_sizeEv() #6 comdat align 2 personality ptr @__gxx_personality_v0 !dbg !4686 {
  %1 = invoke noundef i64 @_ZSt16__deque_buf_sizem(i64 noundef 24)
          to label %2 unwind label %3, !dbg !4688

2:                                                ; preds = %0
  ret i64 %1, !dbg !4689

3:                                                ; preds = %0
  %4 = landingpad { ptr, i32 }
          catch ptr null, !dbg !4688
  %5 = extractvalue { ptr, i32 } %4, 0, !dbg !4688
  call void @__clang_call_terminate(ptr %5) #17, !dbg !4688
  unreachable, !dbg !4688
}

; Function Attrs: mustprogress noinline optnone uwtable
define linkonce_odr dso_local void @_ZSt8_DestroyIPSt6vectorI11BinaryImageSaIS1_EEEvT_S5_(ptr noundef %0, ptr noundef %1) #4 comdat !dbg !4690 {
  %3 = alloca ptr, align 8
  %4 = alloca ptr, align 8
  store ptr %0, ptr %3, align 8
  call void @llvm.dbg.declare(metadata ptr %3, metadata !4695, metadata !DIExpression()), !dbg !4696
  store ptr %1, ptr %4, align 8
  call void @llvm.dbg.declare(metadata ptr %4, metadata !4697, metadata !DIExpression()), !dbg !4698
  %5 = load ptr, ptr %3, align 8, !dbg !4699
  %6 = load ptr, ptr %4, align 8, !dbg !4700
  call void @_ZNSt12_Destroy_auxILb0EE9__destroyIPSt6vectorI11BinaryImageSaIS3_EEEEvT_S7_(ptr noundef %5, ptr noundef %6), !dbg !4701
  ret void, !dbg !4702
}

; Function Attrs: mustprogress noinline optnone uwtable
define linkonce_odr dso_local void @_ZNSt12_Destroy_auxILb0EE9__destroyIPSt6vectorI11BinaryImageSaIS3_EEEEvT_S7_(ptr noundef %0, ptr noundef %1) #4 comdat align 2 !dbg !4703 {
  %3 = alloca ptr, align 8
  %4 = alloca ptr, align 8
  store ptr %0, ptr %3, align 8
  call void @llvm.dbg.declare(metadata ptr %3, metadata !4708, metadata !DIExpression()), !dbg !4709
  store ptr %1, ptr %4, align 8
  call void @llvm.dbg.declare(metadata ptr %4, metadata !4710, metadata !DIExpression()), !dbg !4711
  br label %5, !dbg !4712

5:                                                ; preds = %11, %2
  %6 = load ptr, ptr %3, align 8, !dbg !4713
  %7 = load ptr, ptr %4, align 8, !dbg !4716
  %8 = icmp ne ptr %6, %7, !dbg !4717
  br i1 %8, label %9, label %14, !dbg !4718

9:                                                ; preds = %5
  %10 = load ptr, ptr %3, align 8, !dbg !4719
  call void @_ZSt8_DestroyISt6vectorI11BinaryImageSaIS1_EEEvPT_(ptr noundef %10), !dbg !4720
  br label %11, !dbg !4720

11:                                               ; preds = %9
  %12 = load ptr, ptr %3, align 8, !dbg !4721
  %13 = getelementptr inbounds %"class.std::vector.8", ptr %12, i32 1, !dbg !4721
  store ptr %13, ptr %3, align 8, !dbg !4721
  br label %5, !dbg !4722, !llvm.loop !4723

14:                                               ; preds = %5
  ret void, !dbg !4725
}

; Function Attrs: mustprogress noinline nounwind optnone uwtable
define linkonce_odr dso_local void @_ZSt8_DestroyISt6vectorI11BinaryImageSaIS1_EEEvPT_(ptr noundef %0) #6 comdat !dbg !4726 {
  %2 = alloca ptr, align 8
  store ptr %0, ptr %2, align 8
  call void @llvm.dbg.declare(metadata ptr %2, metadata !4729, metadata !DIExpression()), !dbg !4730
  %3 = load ptr, ptr %2, align 8, !dbg !4731
  call void @_ZNSt6vectorI11BinaryImageSaIS0_EED2Ev(ptr noundef nonnull align 8 dereferenceable(24) %3) #3, !dbg !4732
  ret void, !dbg !4733
}

; Function Attrs: mustprogress noinline nounwind optnone uwtable
define linkonce_odr dso_local noundef i64 @_ZSt16__deque_buf_sizem(i64 noundef %0) #6 comdat !dbg !4734 {
  %2 = alloca i64, align 8
  store i64 %0, ptr %2, align 8
  call void @llvm.dbg.declare(metadata ptr %2, metadata !4737, metadata !DIExpression()), !dbg !4738
  %3 = load i64, ptr %2, align 8, !dbg !4739
  %4 = icmp ult i64 %3, 512, !dbg !4740
  br i1 %4, label %5, label %8, !dbg !4739

5:                                                ; preds = %1
  %6 = load i64, ptr %2, align 8, !dbg !4741
  %7 = udiv i64 512, %6, !dbg !4742
  br label %9, !dbg !4739

8:                                                ; preds = %1
  br label %9, !dbg !4739

9:                                                ; preds = %8, %5
  %10 = phi i64 [ %7, %5 ], [ 1, %8 ], !dbg !4739
  ret i64 %10, !dbg !4743
}

; Function Attrs: mustprogress noinline nounwind optnone uwtable
define linkonce_odr dso_local void @_ZNSt11_Deque_baseISt6vectorI11BinaryImageSaIS1_EESaIS3_EE16_M_destroy_nodesEPPS3_S7_(ptr noundef nonnull align 8 dereferenceable(80) %0, ptr noundef %1, ptr noundef %2) #6 comdat align 2 !dbg !4744 {
  %4 = alloca ptr, align 8
  %5 = alloca ptr, align 8
  %6 = alloca ptr, align 8
  %7 = alloca ptr, align 8
  store ptr %0, ptr %4, align 8
  call void @llvm.dbg.declare(metadata ptr %4, metadata !4748, metadata !DIExpression()), !dbg !4749
  store ptr %1, ptr %5, align 8
  call void @llvm.dbg.declare(metadata ptr %5, metadata !4750, metadata !DIExpression()), !dbg !4751
  store ptr %2, ptr %6, align 8
  call void @llvm.dbg.declare(metadata ptr %6, metadata !4752, metadata !DIExpression()), !dbg !4753
  %8 = load ptr, ptr %4, align 8
  call void @llvm.dbg.declare(metadata ptr %7, metadata !4754, metadata !DIExpression()), !dbg !4756
  %9 = load ptr, ptr %5, align 8, !dbg !4757
  store ptr %9, ptr %7, align 8, !dbg !4756
  br label %10, !dbg !4758

10:                                               ; preds = %17, %3
  %11 = load ptr, ptr %7, align 8, !dbg !4759
  %12 = load ptr, ptr %6, align 8, !dbg !4761
  %13 = icmp ult ptr %11, %12, !dbg !4762
  br i1 %13, label %14, label %20, !dbg !4763

14:                                               ; preds = %10
  %15 = load ptr, ptr %7, align 8, !dbg !4764
  %16 = load ptr, ptr %15, align 8, !dbg !4765
  call void @_ZNSt11_Deque_baseISt6vectorI11BinaryImageSaIS1_EESaIS3_EE18_M_deallocate_nodeEPS3_(ptr noundef nonnull align 8 dereferenceable(80) %8, ptr noundef %16) #3, !dbg !4766
  br label %17, !dbg !4766

17:                                               ; preds = %14
  %18 = load ptr, ptr %7, align 8, !dbg !4767
  %19 = getelementptr inbounds ptr, ptr %18, i32 1, !dbg !4767
  store ptr %19, ptr %7, align 8, !dbg !4767
  br label %10, !dbg !4768, !llvm.loop !4769

20:                                               ; preds = %10
  ret void, !dbg !4771
}

; Function Attrs: mustprogress noinline nounwind optnone uwtable
define linkonce_odr dso_local void @_ZNSt11_Deque_baseISt6vectorI11BinaryImageSaIS1_EESaIS3_EE17_M_deallocate_mapEPPS3_m(ptr noundef nonnull align 8 dereferenceable(80) %0, ptr noundef %1, i64 noundef %2) #6 comdat align 2 personality ptr @__gxx_personality_v0 !dbg !4772 {
  %4 = alloca ptr, align 8
  %5 = alloca ptr, align 8
  %6 = alloca i64, align 8
  %7 = alloca %"class.std::allocator.22", align 1
  store ptr %0, ptr %4, align 8
  call void @llvm.dbg.declare(metadata ptr %4, metadata !4776, metadata !DIExpression()), !dbg !4777
  store ptr %1, ptr %5, align 8
  call void @llvm.dbg.declare(metadata ptr %5, metadata !4778, metadata !DIExpression()), !dbg !4779
  store i64 %2, ptr %6, align 8
  call void @llvm.dbg.declare(metadata ptr %6, metadata !4780, metadata !DIExpression()), !dbg !4781
  %8 = load ptr, ptr %4, align 8
  call void @llvm.dbg.declare(metadata ptr %7, metadata !4782, metadata !DIExpression()), !dbg !4783
  call void @_ZNKSt11_Deque_baseISt6vectorI11BinaryImageSaIS1_EESaIS3_EE20_M_get_map_allocatorEv(ptr sret(%"class.std::allocator.22") align 1 %7, ptr noundef nonnull align 8 dereferenceable(80) %8) #3, !dbg !4784
  %9 = load ptr, ptr %5, align 8, !dbg !4785
  %10 = load i64, ptr %6, align 8, !dbg !4786
  invoke void @_ZNSt16allocator_traitsISaIPSt6vectorI11BinaryImageSaIS1_EEEE10deallocateERS5_PS4_m(ptr noundef nonnull align 1 dereferenceable(1) %7, ptr noundef %9, i64 noundef %10)
          to label %11 unwind label %12, !dbg !4787

11:                                               ; preds = %3
  call void @_ZNSaIPSt6vectorI11BinaryImageSaIS0_EEED2Ev(ptr noundef nonnull align 1 dereferenceable(1) %7) #3, !dbg !4788
  ret void, !dbg !4788

12:                                               ; preds = %3
  %13 = landingpad { ptr, i32 }
          catch ptr null, !dbg !4787
  %14 = extractvalue { ptr, i32 } %13, 0, !dbg !4787
  call void @__clang_call_terminate(ptr %14) #17, !dbg !4787
  unreachable, !dbg !4787
}

; Function Attrs: noinline nounwind optnone uwtable
define linkonce_odr dso_local void @_ZNSt11_Deque_baseISt6vectorI11BinaryImageSaIS1_EESaIS3_EE11_Deque_implD2Ev(ptr noundef nonnull align 8 dereferenceable(80) %0) unnamed_addr #7 comdat align 2 !dbg !4789 {
  %2 = alloca ptr, align 8
  store ptr %0, ptr %2, align 8
  call void @llvm.dbg.declare(metadata ptr %2, metadata !4795, metadata !DIExpression()), !dbg !4797
  %3 = load ptr, ptr %2, align 8
  call void @_ZNSaISt6vectorI11BinaryImageSaIS0_EEED2Ev(ptr noundef nonnull align 1 dereferenceable(1) %3) #3, !dbg !4798
  ret void, !dbg !4800
}

; Function Attrs: mustprogress noinline nounwind optnone uwtable
define linkonce_odr dso_local void @_ZNSt11_Deque_baseISt6vectorI11BinaryImageSaIS1_EESaIS3_EE18_M_deallocate_nodeEPS3_(ptr noundef nonnull align 8 dereferenceable(80) %0, ptr noundef %1) #6 comdat align 2 personality ptr @__gxx_personality_v0 !dbg !4801 {
  %3 = alloca ptr, align 8
  %4 = alloca ptr, align 8
  store ptr %0, ptr %3, align 8
  call void @llvm.dbg.declare(metadata ptr %3, metadata !4807, metadata !DIExpression()), !dbg !4808
  store ptr %1, ptr %4, align 8
  call void @llvm.dbg.declare(metadata ptr %4, metadata !4809, metadata !DIExpression()), !dbg !4810
  %5 = load ptr, ptr %3, align 8
  %6 = getelementptr inbounds %"class.std::_Deque_base.4", ptr %5, i32 0, i32 0, !dbg !4811
  %7 = load ptr, ptr %4, align 8, !dbg !4812
  %8 = call noundef i64 @_ZSt16__deque_buf_sizem(i64 noundef 24), !dbg !4813
  invoke void @_ZNSt16allocator_traitsISaISt6vectorI11BinaryImageSaIS1_EEEE10deallocateERS4_PS3_m(ptr noundef nonnull align 1 dereferenceable(1) %6, ptr noundef %7, i64 noundef %8)
          to label %9 unwind label %10, !dbg !4814

9:                                                ; preds = %2
  ret void, !dbg !4815

10:                                               ; preds = %2
  %11 = landingpad { ptr, i32 }
          catch ptr null, !dbg !4814
  %12 = extractvalue { ptr, i32 } %11, 0, !dbg !4814
  call void @__clang_call_terminate(ptr %12) #17, !dbg !4814
  unreachable, !dbg !4814
}

; Function Attrs: mustprogress noinline optnone uwtable
define linkonce_odr dso_local void @_ZNSt16allocator_traitsISaISt6vectorI11BinaryImageSaIS1_EEEE10deallocateERS4_PS3_m(ptr noundef nonnull align 1 dereferenceable(1) %0, ptr noundef %1, i64 noundef %2) #4 comdat align 2 !dbg !4816 {
  %4 = alloca ptr, align 8
  %5 = alloca ptr, align 8
  %6 = alloca i64, align 8
  store ptr %0, ptr %4, align 8
  call void @llvm.dbg.declare(metadata ptr %4, metadata !4817, metadata !DIExpression()), !dbg !4818
  store ptr %1, ptr %5, align 8
  call void @llvm.dbg.declare(metadata ptr %5, metadata !4819, metadata !DIExpression()), !dbg !4820
  store i64 %2, ptr %6, align 8
  call void @llvm.dbg.declare(metadata ptr %6, metadata !4821, metadata !DIExpression()), !dbg !4822
  %7 = load ptr, ptr %4, align 8, !dbg !4823
  %8 = load ptr, ptr %5, align 8, !dbg !4824
  %9 = load i64, ptr %6, align 8, !dbg !4825
  call void @_ZN9__gnu_cxx13new_allocatorISt6vectorI11BinaryImageSaIS2_EEE10deallocateEPS4_m(ptr noundef nonnull align 1 dereferenceable(1) %7, ptr noundef %8, i64 noundef %9), !dbg !4826
  ret void, !dbg !4827
}

; Function Attrs: mustprogress noinline nounwind optnone uwtable
define linkonce_odr dso_local void @_ZN9__gnu_cxx13new_allocatorISt6vectorI11BinaryImageSaIS2_EEE10deallocateEPS4_m(ptr noundef nonnull align 1 dereferenceable(1) %0, ptr noundef %1, i64 noundef %2) #6 comdat align 2 !dbg !4828 {
  %4 = alloca ptr, align 8
  %5 = alloca ptr, align 8
  %6 = alloca i64, align 8
  store ptr %0, ptr %4, align 8
  call void @llvm.dbg.declare(metadata ptr %4, metadata !4834, metadata !DIExpression()), !dbg !4836
  store ptr %1, ptr %5, align 8
  call void @llvm.dbg.declare(metadata ptr %5, metadata !4837, metadata !DIExpression()), !dbg !4838
  store i64 %2, ptr %6, align 8
  call void @llvm.dbg.declare(metadata ptr %6, metadata !4839, metadata !DIExpression()), !dbg !4840
  %7 = load ptr, ptr %4, align 8
  %8 = load ptr, ptr %5, align 8, !dbg !4841
  call void @_ZdlPv(ptr noundef %8) #3, !dbg !4842
  ret void, !dbg !4843
}

; Function Attrs: mustprogress noinline nounwind optnone uwtable
define linkonce_odr dso_local void @_ZNKSt11_Deque_baseISt6vectorI11BinaryImageSaIS1_EESaIS3_EE20_M_get_map_allocatorEv(ptr noalias sret(%"class.std::allocator.22") align 1 %0, ptr noundef nonnull align 8 dereferenceable(80) %1) #6 comdat align 2 !dbg !4844 {
  %3 = alloca ptr, align 8
  %4 = alloca ptr, align 8
  store ptr %0, ptr %3, align 8
  store ptr %1, ptr %4, align 8
  call void @llvm.dbg.declare(metadata ptr %4, metadata !4850, metadata !DIExpression()), !dbg !4852
  %5 = load ptr, ptr %4, align 8
  %6 = call noundef nonnull align 1 dereferenceable(1) ptr @_ZNKSt11_Deque_baseISt6vectorI11BinaryImageSaIS1_EESaIS3_EE19_M_get_Tp_allocatorEv(ptr noundef nonnull align 8 dereferenceable(80) %5) #3, !dbg !4853
  call void @_ZNSaIPSt6vectorI11BinaryImageSaIS0_EEEC2IS2_EERKSaIT_E(ptr noundef nonnull align 1 dereferenceable(1) %0, ptr noundef nonnull align 1 dereferenceable(1) %6) #3, !dbg !4854
  ret void, !dbg !4855
}

; Function Attrs: mustprogress noinline optnone uwtable
define linkonce_odr dso_local void @_ZNSt16allocator_traitsISaIPSt6vectorI11BinaryImageSaIS1_EEEE10deallocateERS5_PS4_m(ptr noundef nonnull align 1 dereferenceable(1) %0, ptr noundef %1, i64 noundef %2) #4 comdat align 2 !dbg !4856 {
  %4 = alloca ptr, align 8
  %5 = alloca ptr, align 8
  %6 = alloca i64, align 8
  store ptr %0, ptr %4, align 8
  call void @llvm.dbg.declare(metadata ptr %4, metadata !4882, metadata !DIExpression()), !dbg !4883
  store ptr %1, ptr %5, align 8
  call void @llvm.dbg.declare(metadata ptr %5, metadata !4884, metadata !DIExpression()), !dbg !4885
  store i64 %2, ptr %6, align 8
  call void @llvm.dbg.declare(metadata ptr %6, metadata !4886, metadata !DIExpression()), !dbg !4887
  %7 = load ptr, ptr %4, align 8, !dbg !4888
  %8 = load ptr, ptr %5, align 8, !dbg !4889
  %9 = load i64, ptr %6, align 8, !dbg !4890
  call void @_ZN9__gnu_cxx13new_allocatorIPSt6vectorI11BinaryImageSaIS2_EEE10deallocateEPS5_m(ptr noundef nonnull align 1 dereferenceable(1) %7, ptr noundef %8, i64 noundef %9), !dbg !4891
  ret void, !dbg !4892
}

; Function Attrs: noinline nounwind optnone uwtable
define linkonce_odr dso_local void @_ZNSaIPSt6vectorI11BinaryImageSaIS0_EEED2Ev(ptr noundef nonnull align 1 dereferenceable(1) %0) unnamed_addr #7 comdat align 2 !dbg !4893 {
  %2 = alloca ptr, align 8
  store ptr %0, ptr %2, align 8
  call void @llvm.dbg.declare(metadata ptr %2, metadata !4894, metadata !DIExpression()), !dbg !4896
  %3 = load ptr, ptr %2, align 8
  call void @_ZN9__gnu_cxx13new_allocatorIPSt6vectorI11BinaryImageSaIS2_EEED2Ev(ptr noundef nonnull align 1 dereferenceable(1) %3) #3, !dbg !4897
  ret void, !dbg !4899
}

; Function Attrs: mustprogress noinline nounwind optnone uwtable
define linkonce_odr dso_local noundef nonnull align 1 dereferenceable(1) ptr @_ZNKSt11_Deque_baseISt6vectorI11BinaryImageSaIS1_EESaIS3_EE19_M_get_Tp_allocatorEv(ptr noundef nonnull align 8 dereferenceable(80) %0) #6 comdat align 2 !dbg !4900 {
  %2 = alloca ptr, align 8
  store ptr %0, ptr %2, align 8
  call void @llvm.dbg.declare(metadata ptr %2, metadata !4906, metadata !DIExpression()), !dbg !4907
  %3 = load ptr, ptr %2, align 8
  %4 = getelementptr inbounds %"class.std::_Deque_base.4", ptr %3, i32 0, i32 0, !dbg !4908
  ret ptr %4, !dbg !4909
}

; Function Attrs: noinline nounwind optnone uwtable
define linkonce_odr dso_local void @_ZNSaIPSt6vectorI11BinaryImageSaIS0_EEEC2IS2_EERKSaIT_E(ptr noundef nonnull align 1 dereferenceable(1) %0, ptr noundef nonnull align 1 dereferenceable(1) %1) unnamed_addr #7 comdat align 2 !dbg !4910 {
  %3 = alloca ptr, align 8
  %4 = alloca ptr, align 8
  store ptr %0, ptr %3, align 8
  call void @llvm.dbg.declare(metadata ptr %3, metadata !4916, metadata !DIExpression()), !dbg !4917
  store ptr %1, ptr %4, align 8
  call void @llvm.dbg.declare(metadata ptr %4, metadata !4918, metadata !DIExpression()), !dbg !4919
  %5 = load ptr, ptr %3, align 8
  call void @_ZN9__gnu_cxx13new_allocatorIPSt6vectorI11BinaryImageSaIS2_EEEC2Ev(ptr noundef nonnull align 1 dereferenceable(1) %5) #3, !dbg !4920
  ret void, !dbg !4921
}

; Function Attrs: noinline nounwind optnone uwtable
define linkonce_odr dso_local void @_ZN9__gnu_cxx13new_allocatorIPSt6vectorI11BinaryImageSaIS2_EEEC2Ev(ptr noundef nonnull align 1 dereferenceable(1) %0) unnamed_addr #7 comdat align 2 !dbg !4922 {
  %2 = alloca ptr, align 8
  store ptr %0, ptr %2, align 8
  call void @llvm.dbg.declare(metadata ptr %2, metadata !4923, metadata !DIExpression()), !dbg !4925
  %3 = load ptr, ptr %2, align 8
  ret void, !dbg !4926
}

; Function Attrs: mustprogress noinline nounwind optnone uwtable
define linkonce_odr dso_local void @_ZN9__gnu_cxx13new_allocatorIPSt6vectorI11BinaryImageSaIS2_EEE10deallocateEPS5_m(ptr noundef nonnull align 1 dereferenceable(1) %0, ptr noundef %1, i64 noundef %2) #6 comdat align 2 !dbg !4927 {
  %4 = alloca ptr, align 8
  %5 = alloca ptr, align 8
  %6 = alloca i64, align 8
  store ptr %0, ptr %4, align 8
  call void @llvm.dbg.declare(metadata ptr %4, metadata !4928, metadata !DIExpression()), !dbg !4929
  store ptr %1, ptr %5, align 8
  call void @llvm.dbg.declare(metadata ptr %5, metadata !4930, metadata !DIExpression()), !dbg !4931
  store i64 %2, ptr %6, align 8
  call void @llvm.dbg.declare(metadata ptr %6, metadata !4932, metadata !DIExpression()), !dbg !4933
  %7 = load ptr, ptr %4, align 8
  %8 = load ptr, ptr %5, align 8, !dbg !4934
  call void @_ZdlPv(ptr noundef %8) #3, !dbg !4935
  ret void, !dbg !4936
}

; Function Attrs: noinline nounwind optnone uwtable
define linkonce_odr dso_local void @_ZN9__gnu_cxx13new_allocatorIPSt6vectorI11BinaryImageSaIS2_EEED2Ev(ptr noundef nonnull align 1 dereferenceable(1) %0) unnamed_addr #7 comdat align 2 !dbg !4937 {
  %2 = alloca ptr, align 8
  store ptr %0, ptr %2, align 8
  call void @llvm.dbg.declare(metadata ptr %2, metadata !4938, metadata !DIExpression()), !dbg !4939
  %3 = load ptr, ptr %2, align 8
  ret void, !dbg !4940
}

; Function Attrs: noinline nounwind optnone uwtable
define linkonce_odr dso_local void @_ZNSaISt6vectorI11BinaryImageSaIS0_EEED2Ev(ptr noundef nonnull align 1 dereferenceable(1) %0) unnamed_addr #7 comdat align 2 !dbg !4941 {
  %2 = alloca ptr, align 8
  store ptr %0, ptr %2, align 8
  call void @llvm.dbg.declare(metadata ptr %2, metadata !4946, metadata !DIExpression()), !dbg !4948
  %3 = load ptr, ptr %2, align 8
  call void @_ZN9__gnu_cxx13new_allocatorISt6vectorI11BinaryImageSaIS2_EEED2Ev(ptr noundef nonnull align 1 dereferenceable(1) %3) #3, !dbg !4949
  ret void, !dbg !4951
}

; Function Attrs: noinline nounwind optnone uwtable
define linkonce_odr dso_local void @_ZN9__gnu_cxx13new_allocatorISt6vectorI11BinaryImageSaIS2_EEED2Ev(ptr noundef nonnull align 1 dereferenceable(1) %0) unnamed_addr #7 comdat align 2 !dbg !4952 {
  %2 = alloca ptr, align 8
  store ptr %0, ptr %2, align 8
  call void @llvm.dbg.declare(metadata ptr %2, metadata !4956, metadata !DIExpression()), !dbg !4957
  %3 = load ptr, ptr %2, align 8
  ret void, !dbg !4958
}

; Function Attrs: mustprogress noinline optnone uwtable
define linkonce_odr dso_local void @_ZNSt5dequeISt6vectorI9FlexImageIhLi1EESaIS2_EESaIS4_EE15_M_destroy_dataESt15_Deque_iteratorIS4_RS4_PS4_ESA_RKS5_(ptr noundef nonnull align 8 dereferenceable(80) %0, ptr noundef %1, ptr noundef %2, ptr noundef nonnull align 1 dereferenceable(1) %3) #4 comdat align 2 !dbg !4959 {
  %5 = alloca ptr, align 8
  %6 = alloca ptr, align 8
  %7 = alloca %"struct.std::_Deque_iterator", align 8
  %8 = alloca %"struct.std::_Deque_iterator", align 8
  store ptr %0, ptr %5, align 8
