; ModuleID = '../TrackingBenchmark/BodyPose.cpp'
source_filename = "../TrackingBenchmark/BodyPose.cpp"
target datalayout = "e-m:e-p270:32:32-p271:32:32-p272:64:64-i64:64-f80:128-n8:16:32:64-S128"
target triple = "x86_64-unknown-linux-gnu"

%"class.std::ios_base::Init" = type { i8 }
%"class.std::basic_ostream" = type { ptr, %"class.std::basic_ios" }
%"class.std::basic_ios" = type { %"class.std::ios_base", ptr, i8, i8, ptr, ptr, ptr, ptr }
%"class.std::ios_base" = type { ptr, i64, i64, i32, i32, i32, ptr, %"struct.std::ios_base::_Words", [8 x %"struct.std::ios_base::_Words"], i32, ptr, %"class.std::locale" }
%"struct.std::ios_base::_Words" = type { ptr, i64 }
%"class.std::locale" = type { ptr }
%class.BodyPose = type { %class.PoseParams, %"class.std::vector" }
%class.PoseParams = type { %"class.std::vector", %"class.std::vector", %"class.std::vector" }
%"class.std::vector" = type { %"struct.std::_Vector_base" }
%"struct.std::_Vector_base" = type { %"struct.std::_Vector_base<float, std::allocator<float>>::_Vector_impl" }
%"struct.std::_Vector_base<float, std::allocator<float>>::_Vector_impl" = type { %"struct.std::_Vector_base<float, std::allocator<float>>::_Vector_impl_data" }
%"struct.std::_Vector_base<float, std::allocator<float>>::_Vector_impl_data" = type { ptr, ptr, ptr }
%"class.std::basic_ifstream" = type { %"class.std::basic_istream.base", %"class.std::basic_filebuf", %"class.std::basic_ios" }
%"class.std::basic_istream.base" = type { ptr, i64 }
%"class.std::basic_filebuf" = type { %"class.std::basic_streambuf", %union.pthread_mutex_t, %"class.std::__basic_file", i32, %struct.__mbstate_t, %struct.__mbstate_t, %struct.__mbstate_t, ptr, i64, i8, i8, i8, i8, ptr, ptr, i8, ptr, ptr, i64, ptr, ptr }
%"class.std::basic_streambuf" = type { ptr, ptr, ptr, ptr, ptr, ptr, ptr, %"class.std::locale" }
%union.pthread_mutex_t = type { %struct.__pthread_mutex_s }
%struct.__pthread_mutex_s = type { i32, i32, i32, i32, i32, i16, i16, %struct.__pthread_internal_list }
%struct.__pthread_internal_list = type { ptr, ptr }
%"class.std::__basic_file" = type <{ ptr, i8, [7 x i8] }>
%struct.__mbstate_t = type { i32, %union.anon.3 }
%union.anon.3 = type { i32 }
%"struct.std::integral_constant" = type { i8 }
%"struct.std::random_access_iterator_tag" = type { i8 }

$_ZNSt6vectorIfSaIfEE6resizeEm = comdat any

$_ZNSt6vectorIfSaIfEEixEm = comdat any

$_ZNKSt6vectorIfSaIfEE4sizeEv = comdat any

$_ZNSt6vectorIfSaIfEE17_M_default_appendEm = comdat any

$_ZNSt6vectorIfSaIfEE15_M_erase_at_endEPf = comdat any

$_ZNKSt6vectorIfSaIfEE8max_sizeEv = comdat any

$_ZSt27__uninitialized_default_n_aIPfmfET_S1_T0_RSaIT1_E = comdat any

$_ZNSt12_Vector_baseIfSaIfEE19_M_get_Tp_allocatorEv = comdat any

$_ZNKSt6vectorIfSaIfEE12_M_check_lenEmPKc = comdat any

$_ZNSt12_Vector_baseIfSaIfEE11_M_allocateEm = comdat any

$_ZNSt12_Vector_baseIfSaIfEE13_M_deallocateEPfm = comdat any

$__clang_call_terminate = comdat any

$_ZNSt6vectorIfSaIfEE11_S_relocateEPfS2_S2_RS0_ = comdat any

$_ZNSt6vectorIfSaIfEE11_S_max_sizeERKS0_ = comdat any

$_ZNKSt12_Vector_baseIfSaIfEE19_M_get_Tp_allocatorEv = comdat any

$_ZNSt16allocator_traitsISaIfEE8max_sizeERKS0_ = comdat any

$_ZSt3minImERKT_S2_S2_ = comdat any

$_ZNK9__gnu_cxx13new_allocatorIfE8max_sizeEv = comdat any

$_ZNK9__gnu_cxx13new_allocatorIfE11_M_max_sizeEv = comdat any

$_ZSt25__uninitialized_default_nIPfmET_S1_T0_ = comdat any

$_ZNSt27__uninitialized_default_n_1ILb1EE18__uninit_default_nIPfmEET_S3_T0_ = comdat any

$_ZSt10_ConstructIfJEEvPT_DpOT0_ = comdat any

$_ZSt6fill_nIPfmfET_S1_T0_RKT1_ = comdat any

$_ZSt10__fill_n_aIPfmfET_S1_T0_RKT1_St26random_access_iterator_tag = comdat any

$_ZSt17__size_to_integerm = comdat any

$_ZSt19__iterator_categoryIPfENSt15iterator_traitsIT_E17iterator_categoryERKS2_ = comdat any

$_ZSt8__fill_aIPffEvT_S1_RKT0_ = comdat any

$_ZSt9__fill_a1IPffEN9__gnu_cxx11__enable_ifIXsr11__is_scalarIT0_EE7__valueEvE6__typeET_S6_RKS3_ = comdat any

$_ZSt3maxImERKT_S2_S2_ = comdat any

$_ZNSt16allocator_traitsISaIfEE8allocateERS0_m = comdat any

$_ZN9__gnu_cxx13new_allocatorIfE8allocateEmPKv = comdat any

$_ZNSt16allocator_traitsISaIfEE10deallocateERS0_Pfm = comdat any

$_ZN9__gnu_cxx13new_allocatorIfE10deallocateEPfm = comdat any

$_ZNSt6vectorIfSaIfEE14_S_do_relocateEPfS2_S2_RS0_St17integral_constantIbLb1EE = comdat any

$_ZSt12__relocate_aIPfS0_SaIfEET0_T_S3_S2_RT1_ = comdat any

$_ZSt14__relocate_a_1IffENSt9enable_ifIXsr3std24__is_bitwise_relocatableIT_EE5valueEPS1_E4typeES2_S2_S2_RSaIT0_E = comdat any

$_ZSt12__niter_baseIPfET_S1_ = comdat any

$_ZSt8_DestroyIPffEvT_S1_RSaIT0_E = comdat any

$_ZSt8_DestroyIPfEvT_S1_ = comdat any

$_ZNSt12_Destroy_auxILb1EE9__destroyIPfEEvT_S3_ = comdat any

@_ZStL8__ioinit = internal global %"class.std::ios_base::Init" zeroinitializer, align 1, !dbg !0
@__dso_handle = external hidden global i8
@_ZSt4cout = external global %"class.std::basic_ostream", align 8
@.str = private unnamed_addr constant [36 x i8] c"Unable to open Initial Pose file : \00", align 1, !dbg !7
@.str.1 = private unnamed_addr constant [38 x i8] c"Unable to open Pose Parameter file : \00", align 1, !dbg !15
@.str.2 = private unnamed_addr constant [26 x i8] c"vector::_M_default_append\00", align 1, !dbg !20
@llvm.global_ctors = appending global [1 x { i32, ptr, ptr }] [{ i32, ptr, ptr } { i32 65535, ptr @_GLOBAL__sub_I_BodyPose.cpp, ptr null }]

; Function Attrs: noinline uwtable
define internal void @__cxx_global_var_init() #0 section ".text.startup" !dbg !969 {
  call void @_ZNSt8ios_base4InitC1Ev(ptr noundef nonnull align 1 dereferenceable(1) @_ZStL8__ioinit), !dbg !970
  %1 = call i32 @__cxa_atexit(ptr @_ZNSt8ios_base4InitD1Ev, ptr @_ZStL8__ioinit, ptr @__dso_handle) #3, !dbg !972
  ret void, !dbg !970
}

declare void @_ZNSt8ios_base4InitC1Ev(ptr noundef nonnull align 1 dereferenceable(1)) unnamed_addr #1

; Function Attrs: nounwind
declare void @_ZNSt8ios_base4InitD1Ev(ptr noundef nonnull align 1 dereferenceable(1)) unnamed_addr #2

; Function Attrs: nounwind
declare i32 @__cxa_atexit(ptr, ptr, ptr) #3

; Function Attrs: mustprogress noinline optnone uwtable
define dso_local void @_ZN8BodyPose3SetEPfi(ptr noundef nonnull align 8 dereferenceable(96) %0, ptr noundef %1, i32 noundef %2) #4 align 2 !dbg !973 {
  %4 = alloca ptr, align 8
  %5 = alloca ptr, align 8
  %6 = alloca i32, align 4
  %7 = alloca i32, align 4
  store ptr %0, ptr %4, align 8
  call void @llvm.dbg.declare(metadata ptr %4, metadata !980, metadata !DIExpression()), !dbg !982
  store ptr %1, ptr %5, align 8
  call void @llvm.dbg.declare(metadata ptr %5, metadata !983, metadata !DIExpression()), !dbg !984
  store i32 %2, ptr %6, align 4
  call void @llvm.dbg.declare(metadata ptr %6, metadata !985, metadata !DIExpression()), !dbg !986
  %8 = load ptr, ptr %4, align 8
  %9 = getelementptr inbounds %class.BodyPose, ptr %8, i32 0, i32 1, !dbg !987
  %10 = load i32, ptr %6, align 4, !dbg !988
  %11 = sext i32 %10 to i64, !dbg !988
  call void @_ZNSt6vectorIfSaIfEE6resizeEm(ptr noundef nonnull align 8 dereferenceable(24) %9, i64 noundef %11), !dbg !989
  call void @llvm.dbg.declare(metadata ptr %7, metadata !990, metadata !DIExpression()), !dbg !992
  store i32 0, ptr %7, align 4, !dbg !992
  br label %12, !dbg !993

12:                                               ; preds = %26, %3
  %13 = load i32, ptr %7, align 4, !dbg !994
  %14 = load i32, ptr %6, align 4, !dbg !996
  %15 = icmp slt i32 %13, %14, !dbg !997
  br i1 %15, label %16, label %29, !dbg !998

16:                                               ; preds = %12
  %17 = load ptr, ptr %5, align 8, !dbg !999
  %18 = load i32, ptr %7, align 4, !dbg !1000
  %19 = sext i32 %18 to i64, !dbg !999
  %20 = getelementptr inbounds float, ptr %17, i64 %19, !dbg !999
  %21 = load float, ptr %20, align 4, !dbg !999
  %22 = getelementptr inbounds %class.BodyPose, ptr %8, i32 0, i32 1, !dbg !1001
  %23 = load i32, ptr %7, align 4, !dbg !1002
  %24 = sext i32 %23 to i64, !dbg !1002
  %25 = call noundef nonnull align 4 dereferenceable(4) ptr @_ZNSt6vectorIfSaIfEEixEm(ptr noundef nonnull align 8 dereferenceable(24) %22, i64 noundef %24) #3, !dbg !1001
  store float %21, ptr %25, align 4, !dbg !1003
  br label %26, !dbg !1001

26:                                               ; preds = %16
  %27 = load i32, ptr %7, align 4, !dbg !1004
  %28 = add nsw i32 %27, 1, !dbg !1004
  store i32 %28, ptr %7, align 4, !dbg !1004
  br label %12, !dbg !1005, !llvm.loop !1006

29:                                               ; preds = %12
  ret void, !dbg !1009
}

; Function Attrs: nocallback nofree nosync nounwind speculatable willreturn memory(none)
declare void @llvm.dbg.declare(metadata, metadata, metadata) #5

; Function Attrs: mustprogress noinline optnone uwtable
define linkonce_odr dso_local void @_ZNSt6vectorIfSaIfEE6resizeEm(ptr noundef nonnull align 8 dereferenceable(24) %0, i64 noundef %1) #4 comdat align 2 !dbg !1010 {
  %3 = alloca ptr, align 8
  %4 = alloca i64, align 8
  store ptr %0, ptr %3, align 8
  call void @llvm.dbg.declare(metadata ptr %3, metadata !1015, metadata !DIExpression()), !dbg !1017
  store i64 %1, ptr %4, align 8
  call void @llvm.dbg.declare(metadata ptr %4, metadata !1018, metadata !DIExpression()), !dbg !1019
  %5 = load ptr, ptr %3, align 8
  %6 = load i64, ptr %4, align 8, !dbg !1020
  %7 = call noundef i64 @_ZNKSt6vectorIfSaIfEE4sizeEv(ptr noundef nonnull align 8 dereferenceable(24) %5) #3, !dbg !1022
  %8 = icmp ugt i64 %6, %7, !dbg !1023
  br i1 %8, label %9, label %13, !dbg !1024

9:                                                ; preds = %2
  %10 = load i64, ptr %4, align 8, !dbg !1025
  %11 = call noundef i64 @_ZNKSt6vectorIfSaIfEE4sizeEv(ptr noundef nonnull align 8 dereferenceable(24) %5) #3, !dbg !1026
  %12 = sub i64 %10, %11, !dbg !1027
  call void @_ZNSt6vectorIfSaIfEE17_M_default_appendEm(ptr noundef nonnull align 8 dereferenceable(24) %5, i64 noundef %12), !dbg !1028
  br label %24, !dbg !1028

13:                                               ; preds = %2
  %14 = load i64, ptr %4, align 8, !dbg !1029
  %15 = call noundef i64 @_ZNKSt6vectorIfSaIfEE4sizeEv(ptr noundef nonnull align 8 dereferenceable(24) %5) #3, !dbg !1031
  %16 = icmp ult i64 %14, %15, !dbg !1032
  br i1 %16, label %17, label %23, !dbg !1033

17:                                               ; preds = %13
  %18 = getelementptr inbounds %"struct.std::_Vector_base", ptr %5, i32 0, i32 0, !dbg !1034
  %19 = getelementptr inbounds %"struct.std::_Vector_base<float, std::allocator<float>>::_Vector_impl_data", ptr %18, i32 0, i32 0, !dbg !1035
  %20 = load ptr, ptr %19, align 8, !dbg !1035
  %21 = load i64, ptr %4, align 8, !dbg !1036
  %22 = getelementptr inbounds float, ptr %20, i64 %21, !dbg !1037
  call void @_ZNSt6vectorIfSaIfEE15_M_erase_at_endEPf(ptr noundef nonnull align 8 dereferenceable(24) %5, ptr noundef %22) #3, !dbg !1038
  br label %23, !dbg !1038

23:                                               ; preds = %17, %13
  br label %24

24:                                               ; preds = %23, %9
  ret void, !dbg !1039
}

; Function Attrs: mustprogress noinline nounwind optnone uwtable
define linkonce_odr dso_local noundef nonnull align 4 dereferenceable(4) ptr @_ZNSt6vectorIfSaIfEEixEm(ptr noundef nonnull align 8 dereferenceable(24) %0, i64 noundef %1) #6 comdat align 2 !dbg !1040 {
  %3 = alloca ptr, align 8
  %4 = alloca i64, align 8
  store ptr %0, ptr %3, align 8
  call void @llvm.dbg.declare(metadata ptr %3, metadata !1049, metadata !DIExpression()), !dbg !1050
  store i64 %1, ptr %4, align 8
  call void @llvm.dbg.declare(metadata ptr %4, metadata !1051, metadata !DIExpression()), !dbg !1052
  %5 = load ptr, ptr %3, align 8
  %6 = getelementptr inbounds %"struct.std::_Vector_base", ptr %5, i32 0, i32 0, !dbg !1053
  %7 = getelementptr inbounds %"struct.std::_Vector_base<float, std::allocator<float>>::_Vector_impl_data", ptr %6, i32 0, i32 0, !dbg !1054
  %8 = load ptr, ptr %7, align 8, !dbg !1054
  %9 = load i64, ptr %4, align 8, !dbg !1055
  %10 = getelementptr inbounds float, ptr %8, i64 %9, !dbg !1056
  ret ptr %10, !dbg !1057
}

; Function Attrs: mustprogress noinline nounwind optnone uwtable
define dso_local noundef zeroext i1 @_ZN8BodyPose5ValidER10PoseParams(ptr noundef nonnull align 8 dereferenceable(96) %0, ptr noundef nonnull align 8 dereferenceable(72) %1) #6 align 2 !dbg !1058 {
  %3 = alloca ptr, align 8
  %4 = alloca ptr, align 8
  store ptr %0, ptr %3, align 8
  call void @llvm.dbg.declare(metadata ptr %3, metadata !1064, metadata !DIExpression()), !dbg !1065
  store ptr %1, ptr %4, align 8
  call void @llvm.dbg.declare(metadata ptr %4, metadata !1066, metadata !DIExpression()), !dbg !1067
  %5 = load ptr, ptr %3, align 8
  ret i1 true, !dbg !1068
}

; Function Attrs: mustprogress noinline optnone uwtable
define dso_local noundef zeroext i1 @_ZN8BodyPose10InitializeENSt7__cxx1112basic_stringIcSt11char_traitsIcESaIcEEE(ptr noundef nonnull align 8 dereferenceable(96) %0, ptr noundef %1) #4 align 2 personality ptr @__gxx_personality_v0 !dbg !1069 {
  %3 = alloca i1, align 1
  %4 = alloca ptr, align 8
  %5 = alloca %"class.std::basic_ifstream", align 8
  %6 = alloca ptr, align 8
  %7 = alloca i32, align 4
  %8 = alloca i32, align 4
  %9 = alloca i32, align 4
  store ptr %0, ptr %4, align 8
  call void @llvm.dbg.declare(metadata ptr %4, metadata !1078, metadata !DIExpression()), !dbg !1079
  call void @llvm.dbg.declare(metadata ptr %1, metadata !1080, metadata !DIExpression()), !dbg !1081
  %10 = load ptr, ptr %4, align 8
  %11 = getelementptr inbounds %class.BodyPose, ptr %10, i32 0, i32 1, !dbg !1082
  call void @_ZNSt6vectorIfSaIfEE6resizeEm(ptr noundef nonnull align 8 dereferenceable(24) %11, i64 noundef 31), !dbg !1083
  call void @llvm.dbg.declare(metadata ptr %5, metadata !1084, metadata !DIExpression()), !dbg !1089
  %12 = call noundef ptr @_ZNKSt7__cxx1112basic_stringIcSt11char_traitsIcESaIcEE5c_strEv(ptr noundef nonnull align 8 dereferenceable(32) %1) #3, !dbg !1090
  call void @_ZNSt14basic_ifstreamIcSt11char_traitsIcEEC1EPKcSt13_Ios_Openmode(ptr noundef nonnull align 8 dereferenceable(256) %5, ptr noundef %12, i32 noundef 8), !dbg !1089
  %13 = invoke noundef zeroext i1 @_ZNSt14basic_ifstreamIcSt11char_traitsIcEE7is_openEv(ptr noundef nonnull align 8 dereferenceable(256) %5)
          to label %14 unwind label %22, !dbg !1091

14:                                               ; preds = %2
  br i1 %13, label %26, label %15, !dbg !1093

15:                                               ; preds = %14
  %16 = invoke noundef nonnull align 8 dereferenceable(8) ptr @_ZStlsISt11char_traitsIcEERSt13basic_ostreamIcT_ES5_PKc(ptr noundef nonnull align 8 dereferenceable(8) @_ZSt4cout, ptr noundef @.str)
          to label %17 unwind label %22, !dbg !1094

17:                                               ; preds = %15
  %18 = invoke noundef nonnull align 8 dereferenceable(8) ptr @_ZStlsIcSt11char_traitsIcESaIcEERSt13basic_ostreamIT_T0_ES7_RKNSt7__cxx1112basic_stringIS4_S5_T1_EE(ptr noundef nonnull align 8 dereferenceable(8) %16, ptr noundef nonnull align 8 dereferenceable(32) %1)
          to label %19 unwind label %22, !dbg !1096

19:                                               ; preds = %17
  %20 = invoke noundef nonnull align 8 dereferenceable(8) ptr @_ZNSolsEPFRSoS_E(ptr noundef nonnull align 8 dereferenceable(8) %18, ptr noundef @_ZSt4endlIcSt11char_traitsIcEERSt13basic_ostreamIT_T0_ES6_)
          to label %21 unwind label %22, !dbg !1097

21:                                               ; preds = %19
  store i1 false, ptr %3, align 1, !dbg !1098
  store i32 1, ptr %8, align 4
  br label %41, !dbg !1098

22:                                               ; preds = %30, %19, %17, %15, %2
  %23 = landingpad { ptr, i32 }
          cleanup, !dbg !1099
  %24 = extractvalue { ptr, i32 } %23, 0, !dbg !1099
  store ptr %24, ptr %6, align 8, !dbg !1099
  %25 = extractvalue { ptr, i32 } %23, 1, !dbg !1099
  store i32 %25, ptr %7, align 4, !dbg !1099
  call void @_ZNSt14basic_ifstreamIcSt11char_traitsIcEED1Ev(ptr noundef nonnull align 8 dereferenceable(256) %5) #3, !dbg !1100
  br label %43, !dbg !1100

26:                                               ; preds = %14
  call void @llvm.dbg.declare(metadata ptr %9, metadata !1101, metadata !DIExpression()), !dbg !1103
  store i32 0, ptr %9, align 4, !dbg !1103
  br label %27, !dbg !1104

27:                                               ; preds = %37, %26
  %28 = load i32, ptr %9, align 4, !dbg !1105
  %29 = icmp slt i32 %28, 31, !dbg !1107
  br i1 %29, label %30, label %40, !dbg !1108

30:                                               ; preds = %27
  %31 = getelementptr inbounds %class.BodyPose, ptr %10, i32 0, i32 1, !dbg !1109
  %32 = load i32, ptr %9, align 4, !dbg !1110
  %33 = sext i32 %32 to i64, !dbg !1110
  %34 = call noundef nonnull align 4 dereferenceable(4) ptr @_ZNSt6vectorIfSaIfEEixEm(ptr noundef nonnull align 8 dereferenceable(24) %31, i64 noundef %33) #3, !dbg !1109
  %35 = invoke noundef nonnull align 8 dereferenceable(16) ptr @_ZNSirsERf(ptr noundef nonnull align 8 dereferenceable(16) %5, ptr noundef nonnull align 4 dereferenceable(4) %34)
          to label %36 unwind label %22, !dbg !1111

36:                                               ; preds = %30
  br label %37, !dbg !1112

37:                                               ; preds = %36
  %38 = load i32, ptr %9, align 4, !dbg !1113
  %39 = add nsw i32 %38, 1, !dbg !1113
  store i32 %39, ptr %9, align 4, !dbg !1113
  br label %27, !dbg !1114, !llvm.loop !1115

40:                                               ; preds = %27
  store i1 true, ptr %3, align 1, !dbg !1117
  store i32 1, ptr %8, align 4
  br label %41, !dbg !1117

41:                                               ; preds = %40, %21
  call void @_ZNSt14basic_ifstreamIcSt11char_traitsIcEED1Ev(ptr noundef nonnull align 8 dereferenceable(256) %5) #3, !dbg !1100
  %42 = load i1, ptr %3, align 1, !dbg !1100
  ret i1 %42, !dbg !1100

43:                                               ; preds = %22
  %44 = load ptr, ptr %6, align 8, !dbg !1100
  %45 = load i32, ptr %7, align 4, !dbg !1100
  %46 = insertvalue { ptr, i32 } poison, ptr %44, 0, !dbg !1100
  %47 = insertvalue { ptr, i32 } %46, i32 %45, 1, !dbg !1100
  resume { ptr, i32 } %47, !dbg !1100
}

; Function Attrs: nounwind
declare noundef ptr @_ZNKSt7__cxx1112basic_stringIcSt11char_traitsIcESaIcEE5c_strEv(ptr noundef nonnull align 8 dereferenceable(32)) #2

declare void @_ZNSt14basic_ifstreamIcSt11char_traitsIcEEC1EPKcSt13_Ios_Openmode(ptr noundef nonnull align 8 dereferenceable(256), ptr noundef, i32 noundef) unnamed_addr #1

declare noundef zeroext i1 @_ZNSt14basic_ifstreamIcSt11char_traitsIcEE7is_openEv(ptr noundef nonnull align 8 dereferenceable(256)) #1

declare i32 @__gxx_personality_v0(...)

declare noundef nonnull align 8 dereferenceable(8) ptr @_ZStlsIcSt11char_traitsIcESaIcEERSt13basic_ostreamIT_T0_ES7_RKNSt7__cxx1112basic_stringIS4_S5_T1_EE(ptr noundef nonnull align 8 dereferenceable(8), ptr noundef nonnull align 8 dereferenceable(32)) #1

declare noundef nonnull align 8 dereferenceable(8) ptr @_ZStlsISt11char_traitsIcEERSt13basic_ostreamIcT_ES5_PKc(ptr noundef nonnull align 8 dereferenceable(8), ptr noundef) #1

declare noundef nonnull align 8 dereferenceable(8) ptr @_ZNSolsEPFRSoS_E(ptr noundef nonnull align 8 dereferenceable(8), ptr noundef) #1

declare noundef nonnull align 8 dereferenceable(8) ptr @_ZSt4endlIcSt11char_traitsIcEERSt13basic_ostreamIT_T0_ES6_(ptr noundef nonnull align 8 dereferenceable(8)) #1

declare noundef nonnull align 8 dereferenceable(16) ptr @_ZNSirsERf(ptr noundef nonnull align 8 dereferenceable(16), ptr noundef nonnull align 4 dereferenceable(4)) #1

; Function Attrs: nounwind
declare void @_ZNSt14basic_ifstreamIcSt11char_traitsIcEED1Ev(ptr noundef nonnull align 8 dereferenceable(256)) unnamed_addr #2

; Function Attrs: mustprogress noinline optnone uwtable
define dso_local noundef zeroext i1 @_ZN10PoseParams10InitializeENSt7__cxx1112basic_stringIcSt11char_traitsIcESaIcEEE(ptr noundef nonnull align 8 dereferenceable(72) %0, ptr noundef %1) #4 align 2 personality ptr @__gxx_personality_v0 !dbg !1118 {
  %3 = alloca i1, align 1
  %4 = alloca ptr, align 8
  %5 = alloca %"class.std::basic_ifstream", align 8
  %6 = alloca ptr, align 8
  %7 = alloca i32, align 4
  %8 = alloca i32, align 4
  %9 = alloca i32, align 4
  %10 = alloca i32, align 4
  %11 = alloca i32, align 4
  store ptr %0, ptr %4, align 8
  call void @llvm.dbg.declare(metadata ptr %4, metadata !1123, metadata !DIExpression()), !dbg !1125
  call void @llvm.dbg.declare(metadata ptr %1, metadata !1126, metadata !DIExpression()), !dbg !1127
  %12 = load ptr, ptr %4, align 8
  %13 = getelementptr inbounds %class.PoseParams, ptr %12, i32 0, i32 0, !dbg !1128
  call void @_ZNSt6vectorIfSaIfEE6resizeEm(ptr noundef nonnull align 8 dereferenceable(24) %13, i64 noundef 31), !dbg !1129
  %14 = getelementptr inbounds %class.PoseParams, ptr %12, i32 0, i32 1, !dbg !1130
  call void @_ZNSt6vectorIfSaIfEE6resizeEm(ptr noundef nonnull align 8 dereferenceable(24) %14, i64 noundef 31), !dbg !1131
  %15 = getelementptr inbounds %class.PoseParams, ptr %12, i32 0, i32 2, !dbg !1132
  call void @_ZNSt6vectorIfSaIfEE6resizeEm(ptr noundef nonnull align 8 dereferenceable(24) %15, i64 noundef 31), !dbg !1133
  call void @llvm.dbg.declare(metadata ptr %5, metadata !1134, metadata !DIExpression()), !dbg !1135
  %16 = call noundef ptr @_ZNKSt7__cxx1112basic_stringIcSt11char_traitsIcESaIcEE5c_strEv(ptr noundef nonnull align 8 dereferenceable(32) %1) #3, !dbg !1136
  call void @_ZNSt14basic_ifstreamIcSt11char_traitsIcEEC1EPKcSt13_Ios_Openmode(ptr noundef nonnull align 8 dereferenceable(256) %5, ptr noundef %16, i32 noundef 8), !dbg !1135
  %17 = invoke noundef zeroext i1 @_ZNSt14basic_ifstreamIcSt11char_traitsIcEE7is_openEv(ptr noundef nonnull align 8 dereferenceable(256) %5)
          to label %18 unwind label %26, !dbg !1137

18:                                               ; preds = %2
  br i1 %17, label %30, label %19, !dbg !1139

19:                                               ; preds = %18
  %20 = invoke noundef nonnull align 8 dereferenceable(8) ptr @_ZStlsISt11char_traitsIcEERSt13basic_ostreamIcT_ES5_PKc(ptr noundef nonnull align 8 dereferenceable(8) @_ZSt4cout, ptr noundef @.str.1)
          to label %21 unwind label %26, !dbg !1140

21:                                               ; preds = %19
  %22 = invoke noundef nonnull align 8 dereferenceable(8) ptr @_ZStlsIcSt11char_traitsIcESaIcEERSt13basic_ostreamIT_T0_ES7_RKNSt7__cxx1112basic_stringIS4_S5_T1_EE(ptr noundef nonnull align 8 dereferenceable(8) %20, ptr noundef nonnull align 8 dereferenceable(32) %1)
          to label %23 unwind label %26, !dbg !1142

23:                                               ; preds = %21
  %24 = invoke noundef nonnull align 8 dereferenceable(8) ptr @_ZNSolsEPFRSoS_E(ptr noundef nonnull align 8 dereferenceable(8) %22, ptr noundef @_ZSt4endlIcSt11char_traitsIcEERSt13basic_ostreamIT_T0_ES6_)
          to label %25 unwind label %26, !dbg !1143

25:                                               ; preds = %23
  store i1 false, ptr %3, align 1, !dbg !1144
  store i32 1, ptr %8, align 4
  br label %73, !dbg !1144

26:                                               ; preds = %62, %48, %34, %23, %21, %19, %2
  %27 = landingpad { ptr, i32 }
          cleanup, !dbg !1145
  %28 = extractvalue { ptr, i32 } %27, 0, !dbg !1145
  store ptr %28, ptr %6, align 8, !dbg !1145
  %29 = extractvalue { ptr, i32 } %27, 1, !dbg !1145
  store i32 %29, ptr %7, align 4, !dbg !1145
  call void @_ZNSt14basic_ifstreamIcSt11char_traitsIcEED1Ev(ptr noundef nonnull align 8 dereferenceable(256) %5) #3, !dbg !1146
  br label %75, !dbg !1146

30:                                               ; preds = %18
  call void @llvm.dbg.declare(metadata ptr %9, metadata !1147, metadata !DIExpression()), !dbg !1149
  store i32 0, ptr %9, align 4, !dbg !1149
  br label %31, !dbg !1150

31:                                               ; preds = %41, %30
  %32 = load i32, ptr %9, align 4, !dbg !1151
  %33 = icmp slt i32 %32, 31, !dbg !1153
  br i1 %33, label %34, label %44, !dbg !1154

34:                                               ; preds = %31
  %35 = getelementptr inbounds %class.PoseParams, ptr %12, i32 0, i32 0, !dbg !1155
  %36 = load i32, ptr %9, align 4, !dbg !1156
  %37 = sext i32 %36 to i64, !dbg !1156
  %38 = call noundef nonnull align 4 dereferenceable(4) ptr @_ZNSt6vectorIfSaIfEEixEm(ptr noundef nonnull align 8 dereferenceable(24) %35, i64 noundef %37) #3, !dbg !1155
  %39 = invoke noundef nonnull align 8 dereferenceable(16) ptr @_ZNSirsERf(ptr noundef nonnull align 8 dereferenceable(16) %5, ptr noundef nonnull align 4 dereferenceable(4) %38)
          to label %40 unwind label %26, !dbg !1157

40:                                               ; preds = %34
  br label %41, !dbg !1158

41:                                               ; preds = %40
  %42 = load i32, ptr %9, align 4, !dbg !1159
  %43 = add nsw i32 %42, 1, !dbg !1159
  store i32 %43, ptr %9, align 4, !dbg !1159
  br label %31, !dbg !1160, !llvm.loop !1161

44:                                               ; preds = %31
  call void @llvm.dbg.declare(metadata ptr %10, metadata !1163, metadata !DIExpression()), !dbg !1165
  store i32 0, ptr %10, align 4, !dbg !1165
  br label %45, !dbg !1166

45:                                               ; preds = %55, %44
  %46 = load i32, ptr %10, align 4, !dbg !1167
  %47 = icmp slt i32 %46, 31, !dbg !1169
  br i1 %47, label %48, label %58, !dbg !1170

48:                                               ; preds = %45
  %49 = getelementptr inbounds %class.PoseParams, ptr %12, i32 0, i32 1, !dbg !1171
  %50 = load i32, ptr %10, align 4, !dbg !1172
  %51 = sext i32 %50 to i64, !dbg !1172
  %52 = call noundef nonnull align 4 dereferenceable(4) ptr @_ZNSt6vectorIfSaIfEEixEm(ptr noundef nonnull align 8 dereferenceable(24) %49, i64 noundef %51) #3, !dbg !1171
  %53 = invoke noundef nonnull align 8 dereferenceable(16) ptr @_ZNSirsERf(ptr noundef nonnull align 8 dereferenceable(16) %5, ptr noundef nonnull align 4 dereferenceable(4) %52)
          to label %54 unwind label %26, !dbg !1173

54:                                               ; preds = %48
  br label %55, !dbg !1174

55:                                               ; preds = %54
  %56 = load i32, ptr %10, align 4, !dbg !1175
  %57 = add nsw i32 %56, 1, !dbg !1175
  store i32 %57, ptr %10, align 4, !dbg !1175
  br label %45, !dbg !1176, !llvm.loop !1177

58:                                               ; preds = %45
  call void @llvm.dbg.declare(metadata ptr %11, metadata !1179, metadata !DIExpression()), !dbg !1181
  store i32 0, ptr %11, align 4, !dbg !1181
  br label %59, !dbg !1182

59:                                               ; preds = %69, %58
  %60 = load i32, ptr %11, align 4, !dbg !1183
  %61 = icmp slt i32 %60, 31, !dbg !1185
  br i1 %61, label %62, label %72, !dbg !1186

62:                                               ; preds = %59
  %63 = getelementptr inbounds %class.PoseParams, ptr %12, i32 0, i32 2, !dbg !1187
  %64 = load i32, ptr %11, align 4, !dbg !1188
  %65 = sext i32 %64 to i64, !dbg !1188
  %66 = call noundef nonnull align 4 dereferenceable(4) ptr @_ZNSt6vectorIfSaIfEEixEm(ptr noundef nonnull align 8 dereferenceable(24) %63, i64 noundef %65) #3, !dbg !1187
  %67 = invoke noundef nonnull align 8 dereferenceable(16) ptr @_ZNSirsERf(ptr noundef nonnull align 8 dereferenceable(16) %5, ptr noundef nonnull align 4 dereferenceable(4) %66)
          to label %68 unwind label %26, !dbg !1189

68:                                               ; preds = %62
  br label %69, !dbg !1190

69:                                               ; preds = %68
  %70 = load i32, ptr %11, align 4, !dbg !1191
  %71 = add nsw i32 %70, 1, !dbg !1191
  store i32 %71, ptr %11, align 4, !dbg !1191
  br label %59, !dbg !1192, !llvm.loop !1193

72:                                               ; preds = %59
  store i1 true, ptr %3, align 1, !dbg !1195
  store i32 1, ptr %8, align 4
  br label %73, !dbg !1195

73:                                               ; preds = %72, %25
  call void @_ZNSt14basic_ifstreamIcSt11char_traitsIcEED1Ev(ptr noundef nonnull align 8 dereferenceable(256) %5) #3, !dbg !1146
  %74 = load i1, ptr %3, align 1, !dbg !1146
  ret i1 %74, !dbg !1146

75:                                               ; preds = %26
  %76 = load ptr, ptr %6, align 8, !dbg !1146
  %77 = load i32, ptr %7, align 4, !dbg !1146
  %78 = insertvalue { ptr, i32 } poison, ptr %76, 0, !dbg !1146
  %79 = insertvalue { ptr, i32 } %78, i32 %77, 1, !dbg !1146
  resume { ptr, i32 } %79, !dbg !1146
}

; Function Attrs: mustprogress noinline nounwind optnone uwtable
define linkonce_odr dso_local noundef i64 @_ZNKSt6vectorIfSaIfEE4sizeEv(ptr noundef nonnull align 8 dereferenceable(24) %0) #6 comdat align 2 !dbg !1196 {
  %2 = alloca ptr, align 8
  store ptr %0, ptr %2, align 8
  call void @llvm.dbg.declare(metadata ptr %2, metadata !1202, metadata !DIExpression()), !dbg !1204
  %3 = load ptr, ptr %2, align 8
  %4 = getelementptr inbounds %"struct.std::_Vector_base", ptr %3, i32 0, i32 0, !dbg !1205
  %5 = getelementptr inbounds %"struct.std::_Vector_base<float, std::allocator<float>>::_Vector_impl_data", ptr %4, i32 0, i32 1, !dbg !1206
  %6 = load ptr, ptr %5, align 8, !dbg !1206
  %7 = getelementptr inbounds %"struct.std::_Vector_base", ptr %3, i32 0, i32 0, !dbg !1207
  %8 = getelementptr inbounds %"struct.std::_Vector_base<float, std::allocator<float>>::_Vector_impl_data", ptr %7, i32 0, i32 0, !dbg !1208
  %9 = load ptr, ptr %8, align 8, !dbg !1208
  %10 = ptrtoint ptr %6 to i64, !dbg !1209
  %11 = ptrtoint ptr %9 to i64, !dbg !1209
  %12 = sub i64 %10, %11, !dbg !1209
  %13 = sdiv exact i64 %12, 4, !dbg !1209
  ret i64 %13, !dbg !1210
}

; Function Attrs: mustprogress noinline optnone uwtable
define linkonce_odr dso_local void @_ZNSt6vectorIfSaIfEE17_M_default_appendEm(ptr noundef nonnull align 8 dereferenceable(24) %0, i64 noundef %1) #4 comdat align 2 personality ptr @__gxx_personality_v0 !dbg !1211 {
  %3 = alloca ptr, align 8
  %4 = alloca i64, align 8
  %5 = alloca i64, align 8
  %6 = alloca i64, align 8
  %7 = alloca i64, align 8
  %8 = alloca ptr, align 8
  %9 = alloca ptr, align 8
  %10 = alloca i32, align 4
  store ptr %0, ptr %3, align 8
  call void @llvm.dbg.declare(metadata ptr %3, metadata !1213, metadata !DIExpression()), !dbg !1214
  store i64 %1, ptr %4, align 8
  call void @llvm.dbg.declare(metadata ptr %4, metadata !1215, metadata !DIExpression()), !dbg !1216
  %11 = load ptr, ptr %3, align 8
  %12 = load i64, ptr %4, align 8, !dbg !1217
  %13 = icmp ne i64 %12, 0, !dbg !1219
  br i1 %13, label %14, label %115, !dbg !1220

14:                                               ; preds = %2
  call void @llvm.dbg.declare(metadata ptr %5, metadata !1221, metadata !DIExpression()), !dbg !1224
  %15 = call noundef i64 @_ZNKSt6vectorIfSaIfEE4sizeEv(ptr noundef nonnull align 8 dereferenceable(24) %11) #3, !dbg !1225
  store i64 %15, ptr %5, align 8, !dbg !1224
  call void @llvm.dbg.declare(metadata ptr %6, metadata !1226, metadata !DIExpression()), !dbg !1227
  %16 = getelementptr inbounds %"struct.std::_Vector_base", ptr %11, i32 0, i32 0, !dbg !1228
  %17 = getelementptr inbounds %"struct.std::_Vector_base<float, std::allocator<float>>::_Vector_impl_data", ptr %16, i32 0, i32 2, !dbg !1229
  %18 = load ptr, ptr %17, align 8, !dbg !1229
  %19 = getelementptr inbounds %"struct.std::_Vector_base", ptr %11, i32 0, i32 0, !dbg !1230
  %20 = getelementptr inbounds %"struct.std::_Vector_base<float, std::allocator<float>>::_Vector_impl_data", ptr %19, i32 0, i32 1, !dbg !1231
  %21 = load ptr, ptr %20, align 8, !dbg !1231
  %22 = ptrtoint ptr %18 to i64, !dbg !1232
  %23 = ptrtoint ptr %21 to i64, !dbg !1232
  %24 = sub i64 %22, %23, !dbg !1232
  %25 = sdiv exact i64 %24, 4, !dbg !1232
  store i64 %25, ptr %6, align 8, !dbg !1227
  %26 = load i64, ptr %5, align 8, !dbg !1233
  %27 = call noundef i64 @_ZNKSt6vectorIfSaIfEE8max_sizeEv(ptr noundef nonnull align 8 dereferenceable(24) %11) #3, !dbg !1235
  %28 = icmp ugt i64 %26, %27, !dbg !1236
  br i1 %28, label %35, label %29, !dbg !1237

29:                                               ; preds = %14
  %30 = load i64, ptr %6, align 8, !dbg !1238
  %31 = call noundef i64 @_ZNKSt6vectorIfSaIfEE8max_sizeEv(ptr noundef nonnull align 8 dereferenceable(24) %11) #3, !dbg !1239
  %32 = load i64, ptr %5, align 8, !dbg !1240
  %33 = sub i64 %31, %32, !dbg !1241
  %34 = icmp ugt i64 %30, %33, !dbg !1242
  br i1 %34, label %35, label %36, !dbg !1243

35:                                               ; preds = %29, %14
  unreachable, !dbg !1244

36:                                               ; preds = %29
  %37 = load i64, ptr %6, align 8, !dbg !1245
  %38 = load i64, ptr %4, align 8, !dbg !1247
  %39 = icmp uge i64 %37, %38, !dbg !1248
  br i1 %39, label %40, label %49, !dbg !1249

40:                                               ; preds = %36
  %41 = getelementptr inbounds %"struct.std::_Vector_base", ptr %11, i32 0, i32 0, !dbg !1250
  %42 = getelementptr inbounds %"struct.std::_Vector_base<float, std::allocator<float>>::_Vector_impl_data", ptr %41, i32 0, i32 1, !dbg !1252
  %43 = load ptr, ptr %42, align 8, !dbg !1252
  %44 = load i64, ptr %4, align 8, !dbg !1253
  %45 = call noundef nonnull align 1 dereferenceable(1) ptr @_ZNSt12_Vector_baseIfSaIfEE19_M_get_Tp_allocatorEv(ptr noundef nonnull align 8 dereferenceable(24) %11) #3, !dbg !1254
  %46 = call noundef ptr @_ZSt27__uninitialized_default_n_aIPfmfET_S1_T0_RSaIT1_E(ptr noundef %43, i64 noundef %44, ptr noundef nonnull align 1 dereferenceable(1) %45), !dbg !1255
  %47 = getelementptr inbounds %"struct.std::_Vector_base", ptr %11, i32 0, i32 0, !dbg !1256
  %48 = getelementptr inbounds %"struct.std::_Vector_base<float, std::allocator<float>>::_Vector_impl_data", ptr %47, i32 0, i32 1, !dbg !1257
  store ptr %46, ptr %48, align 8, !dbg !1258
  br label %114, !dbg !1259

49:                                               ; preds = %36
  call void @llvm.dbg.declare(metadata ptr %7, metadata !1260, metadata !DIExpression()), !dbg !1262
  %50 = load i64, ptr %4, align 8, !dbg !1263
  %51 = call noundef i64 @_ZNKSt6vectorIfSaIfEE12_M_check_lenEmPKc(ptr noundef nonnull align 8 dereferenceable(24) %11, i64 noundef %50, ptr noundef @.str.2), !dbg !1264
  store i64 %51, ptr %7, align 8, !dbg !1262
  call void @llvm.dbg.declare(metadata ptr %8, metadata !1265, metadata !DIExpression()), !dbg !1266
  %52 = load i64, ptr %7, align 8, !dbg !1267
  %53 = call noundef ptr @_ZNSt12_Vector_baseIfSaIfEE11_M_allocateEm(ptr noundef nonnull align 8 dereferenceable(24) %11, i64 noundef %52), !dbg !1268
  store ptr %53, ptr %8, align 8, !dbg !1266
  %54 = load ptr, ptr %8, align 8, !dbg !1269
  %55 = load i64, ptr %5, align 8, !dbg !1273
  %56 = getelementptr inbounds float, ptr %54, i64 %55, !dbg !1274
  %57 = load i64, ptr %4, align 8, !dbg !1275
  %58 = call noundef nonnull align 1 dereferenceable(1) ptr @_ZNSt12_Vector_baseIfSaIfEE19_M_get_Tp_allocatorEv(ptr noundef nonnull align 8 dereferenceable(24) %11) #3, !dbg !1276
  %59 = invoke noundef ptr @_ZSt27__uninitialized_default_n_aIPfmfET_S1_T0_RSaIT1_E(ptr noundef %56, i64 noundef %57, ptr noundef nonnull align 1 dereferenceable(1) %58)
          to label %60 unwind label %61, !dbg !1277

60:                                               ; preds = %49
  br label %76, !dbg !1278

61:                                               ; preds = %49
  %62 = landingpad { ptr, i32 }
          catch ptr null, !dbg !1279
  %63 = extractvalue { ptr, i32 } %62, 0, !dbg !1279
  store ptr %63, ptr %9, align 8, !dbg !1279
  %64 = extractvalue { ptr, i32 } %62, 1, !dbg !1279
  store i32 %64, ptr %10, align 4, !dbg !1279
  br label %65, !dbg !1279

65:                                               ; preds = %61
  %66 = load ptr, ptr %9, align 8, !dbg !1278
  %67 = call ptr @__cxa_begin_catch(ptr %66) #3, !dbg !1278
  %68 = load ptr, ptr %8, align 8, !dbg !1280
  %69 = load i64, ptr %7, align 8, !dbg !1282
  invoke void @_ZNSt12_Vector_baseIfSaIfEE13_M_deallocateEPfm(ptr noundef nonnull align 8 dereferenceable(24) %11, ptr noundef %68, i64 noundef %69)
          to label %70 unwind label %71, !dbg !1283

70:                                               ; preds = %65
  invoke void @__cxa_rethrow() #12
          to label %124 unwind label %71, !dbg !1284

71:                                               ; preds = %70, %65
  %72 = landingpad { ptr, i32 }
          cleanup, !dbg !1285
  %73 = extractvalue { ptr, i32 } %72, 0, !dbg !1285
  store ptr %73, ptr %9, align 8, !dbg !1285
  %74 = extractvalue { ptr, i32 } %72, 1, !dbg !1285
  store i32 %74, ptr %10, align 4, !dbg !1285
  invoke void @__cxa_end_catch()
          to label %75 unwind label %121, !dbg !1286

75:                                               ; preds = %71
  br label %116, !dbg !1286

76:                                               ; preds = %60
  %77 = getelementptr inbounds %"struct.std::_Vector_base", ptr %11, i32 0, i32 0, !dbg !1287
  %78 = getelementptr inbounds %"struct.std::_Vector_base<float, std::allocator<float>>::_Vector_impl_data", ptr %77, i32 0, i32 0, !dbg !1288
  %79 = load ptr, ptr %78, align 8, !dbg !1288
  %80 = getelementptr inbounds %"struct.std::_Vector_base", ptr %11, i32 0, i32 0, !dbg !1289
  %81 = getelementptr inbounds %"struct.std::_Vector_base<float, std::allocator<float>>::_Vector_impl_data", ptr %80, i32 0, i32 1, !dbg !1290
  %82 = load ptr, ptr %81, align 8, !dbg !1290
  %83 = load ptr, ptr %8, align 8, !dbg !1291
  %84 = call noundef nonnull align 1 dereferenceable(1) ptr @_ZNSt12_Vector_baseIfSaIfEE19_M_get_Tp_allocatorEv(ptr noundef nonnull align 8 dereferenceable(24) %11) #3, !dbg !1292
  %85 = call noundef ptr @_ZNSt6vectorIfSaIfEE11_S_relocateEPfS2_S2_RS0_(ptr noundef %79, ptr noundef %82, ptr noundef %83, ptr noundef nonnull align 1 dereferenceable(1) %84) #3, !dbg !1293
  %86 = getelementptr inbounds %"struct.std::_Vector_base", ptr %11, i32 0, i32 0, !dbg !1294
  %87 = getelementptr inbounds %"struct.std::_Vector_base<float, std::allocator<float>>::_Vector_impl_data", ptr %86, i32 0, i32 0, !dbg !1295
  %88 = load ptr, ptr %87, align 8, !dbg !1295
  %89 = getelementptr inbounds %"struct.std::_Vector_base", ptr %11, i32 0, i32 0, !dbg !1296
  %90 = getelementptr inbounds %"struct.std::_Vector_base<float, std::allocator<float>>::_Vector_impl_data", ptr %89, i32 0, i32 2, !dbg !1297
  %91 = load ptr, ptr %90, align 8, !dbg !1297
  %92 = getelementptr inbounds %"struct.std::_Vector_base", ptr %11, i32 0, i32 0, !dbg !1298
  %93 = getelementptr inbounds %"struct.std::_Vector_base<float, std::allocator<float>>::_Vector_impl_data", ptr %92, i32 0, i32 0, !dbg !1299
  %94 = load ptr, ptr %93, align 8, !dbg !1299
  %95 = ptrtoint ptr %91 to i64, !dbg !1300
  %96 = ptrtoint ptr %94 to i64, !dbg !1300
  %97 = sub i64 %95, %96, !dbg !1300
  %98 = sdiv exact i64 %97, 4, !dbg !1300
  call void @_ZNSt12_Vector_baseIfSaIfEE13_M_deallocateEPfm(ptr noundef nonnull align 8 dereferenceable(24) %11, ptr noundef %88, i64 noundef %98), !dbg !1301
  %99 = load ptr, ptr %8, align 8, !dbg !1302
  %100 = getelementptr inbounds %"struct.std::_Vector_base", ptr %11, i32 0, i32 0, !dbg !1303
  %101 = getelementptr inbounds %"struct.std::_Vector_base<float, std::allocator<float>>::_Vector_impl_data", ptr %100, i32 0, i32 0, !dbg !1304
  store ptr %99, ptr %101, align 8, !dbg !1305
  %102 = load ptr, ptr %8, align 8, !dbg !1306
  %103 = load i64, ptr %5, align 8, !dbg !1307
  %104 = getelementptr inbounds float, ptr %102, i64 %103, !dbg !1308
  %105 = load i64, ptr %4, align 8, !dbg !1309
  %106 = getelementptr inbounds float, ptr %104, i64 %105, !dbg !1310
  %107 = getelementptr inbounds %"struct.std::_Vector_base", ptr %11, i32 0, i32 0, !dbg !1311
  %108 = getelementptr inbounds %"struct.std::_Vector_base<float, std::allocator<float>>::_Vector_impl_data", ptr %107, i32 0, i32 1, !dbg !1312
  store ptr %106, ptr %108, align 8, !dbg !1313
  %109 = load ptr, ptr %8, align 8, !dbg !1314
  %110 = load i64, ptr %7, align 8, !dbg !1315
  %111 = getelementptr inbounds float, ptr %109, i64 %110, !dbg !1316
  %112 = getelementptr inbounds %"struct.std::_Vector_base", ptr %11, i32 0, i32 0, !dbg !1317
  %113 = getelementptr inbounds %"struct.std::_Vector_base<float, std::allocator<float>>::_Vector_impl_data", ptr %112, i32 0, i32 2, !dbg !1318
  store ptr %111, ptr %113, align 8, !dbg !1319
  br label %114

114:                                              ; preds = %76, %40
  br label %115, !dbg !1320

115:                                              ; preds = %114, %2
  ret void, !dbg !1321

116:                                              ; preds = %75
  %117 = load ptr, ptr %9, align 8, !dbg !1286
  %118 = load i32, ptr %10, align 4, !dbg !1286
  %119 = insertvalue { ptr, i32 } poison, ptr %117, 0, !dbg !1286
  %120 = insertvalue { ptr, i32 } %119, i32 %118, 1, !dbg !1286
  resume { ptr, i32 } %120, !dbg !1286

121:                                              ; preds = %71
  %122 = landingpad { ptr, i32 }
          catch ptr null, !dbg !1286
  %123 = extractvalue { ptr, i32 } %122, 0, !dbg !1286
  call void @__clang_call_terminate(ptr %123) #13, !dbg !1286
  unreachable, !dbg !1286

124:                                              ; preds = %70
  unreachable
}

; Function Attrs: mustprogress noinline nounwind optnone uwtable
define linkonce_odr dso_local void @_ZNSt6vectorIfSaIfEE15_M_erase_at_endEPf(ptr noundef nonnull align 8 dereferenceable(24) %0, ptr noundef %1) #6 comdat align 2 personality ptr @__gxx_personality_v0 !dbg !1322 {
  %3 = alloca ptr, align 8
  %4 = alloca ptr, align 8
  %5 = alloca i64, align 8
  store ptr %0, ptr %3, align 8
  call void @llvm.dbg.declare(metadata ptr %3, metadata !1326, metadata !DIExpression()), !dbg !1327
  store ptr %1, ptr %4, align 8
  call void @llvm.dbg.declare(metadata ptr %4, metadata !1328, metadata !DIExpression()), !dbg !1329
  %6 = load ptr, ptr %3, align 8
  call void @llvm.dbg.declare(metadata ptr %5, metadata !1330, metadata !DIExpression()), !dbg !1332
  %7 = getelementptr inbounds %"struct.std::_Vector_base", ptr %6, i32 0, i32 0, !dbg !1333
  %8 = getelementptr inbounds %"struct.std::_Vector_base<float, std::allocator<float>>::_Vector_impl_data", ptr %7, i32 0, i32 1, !dbg !1334
  %9 = load ptr, ptr %8, align 8, !dbg !1334
  %10 = load ptr, ptr %4, align 8, !dbg !1335
  %11 = ptrtoint ptr %9 to i64, !dbg !1336
  %12 = ptrtoint ptr %10 to i64, !dbg !1336
  %13 = sub i64 %11, %12, !dbg !1336
  %14 = sdiv exact i64 %13, 4, !dbg !1336
  store i64 %14, ptr %5, align 8, !dbg !1332
  %15 = load i64, ptr %5, align 8, !dbg !1332
  %16 = icmp ne i64 %15, 0, !dbg !1332
  br i1 %16, label %17, label %27, !dbg !1337

17:                                               ; preds = %2
  %18 = load ptr, ptr %4, align 8, !dbg !1338
  %19 = getelementptr inbounds %"struct.std::_Vector_base", ptr %6, i32 0, i32 0, !dbg !1340
  %20 = getelementptr inbounds %"struct.std::_Vector_base<float, std::allocator<float>>::_Vector_impl_data", ptr %19, i32 0, i32 1, !dbg !1341
  %21 = load ptr, ptr %20, align 8, !dbg !1341
  %22 = call noundef nonnull align 1 dereferenceable(1) ptr @_ZNSt12_Vector_baseIfSaIfEE19_M_get_Tp_allocatorEv(ptr noundef nonnull align 8 dereferenceable(24) %6) #3, !dbg !1342
  invoke void @_ZSt8_DestroyIPffEvT_S1_RSaIT0_E(ptr noundef %18, ptr noundef %21, ptr noundef nonnull align 1 dereferenceable(1) %22)
          to label %23 unwind label %28, !dbg !1343

23:                                               ; preds = %17
  %24 = load ptr, ptr %4, align 8, !dbg !1344
  %25 = getelementptr inbounds %"struct.std::_Vector_base", ptr %6, i32 0, i32 0, !dbg !1345
  %26 = getelementptr inbounds %"struct.std::_Vector_base<float, std::allocator<float>>::_Vector_impl_data", ptr %25, i32 0, i32 1, !dbg !1346
  store ptr %24, ptr %26, align 8, !dbg !1347
  br label %27, !dbg !1348

27:                                               ; preds = %23, %2
  ret void, !dbg !1349

28:                                               ; preds = %17
  %29 = landingpad { ptr, i32 }
          catch ptr null, !dbg !1343
  %30 = extractvalue { ptr, i32 } %29, 0, !dbg !1343
  call void @__clang_call_terminate(ptr %30) #13, !dbg !1343
  unreachable, !dbg !1343
}

; Function Attrs: mustprogress noinline nounwind optnone uwtable
define linkonce_odr dso_local noundef i64 @_ZNKSt6vectorIfSaIfEE8max_sizeEv(ptr noundef nonnull align 8 dereferenceable(24) %0) #6 comdat align 2 !dbg !1350 {
  %2 = alloca ptr, align 8
  store ptr %0, ptr %2, align 8
  call void @llvm.dbg.declare(metadata ptr %2, metadata !1352, metadata !DIExpression()), !dbg !1353
  %3 = load ptr, ptr %2, align 8
  %4 = call noundef nonnull align 1 dereferenceable(1) ptr @_ZNKSt12_Vector_baseIfSaIfEE19_M_get_Tp_allocatorEv(ptr noundef nonnull align 8 dereferenceable(24) %3) #3, !dbg !1354
  %5 = call noundef i64 @_ZNSt6vectorIfSaIfEE11_S_max_sizeERKS0_(ptr noundef nonnull align 1 dereferenceable(1) %4) #3, !dbg !1355
  ret i64 %5, !dbg !1356
}

; Function Attrs: mustprogress noinline optnone uwtable
define linkonce_odr dso_local noundef ptr @_ZSt27__uninitialized_default_n_aIPfmfET_S1_T0_RSaIT1_E(ptr noundef %0, i64 noundef %1, ptr noundef nonnull align 1 dereferenceable(1) %2) #4 comdat !dbg !1357 {
  %4 = alloca ptr, align 8
  %5 = alloca i64, align 8
  %6 = alloca ptr, align 8
  store ptr %0, ptr %4, align 8
  call void @llvm.dbg.declare(metadata ptr %4, metadata !1364, metadata !DIExpression()), !dbg !1365
  store i64 %1, ptr %5, align 8
  call void @llvm.dbg.declare(metadata ptr %5, metadata !1366, metadata !DIExpression()), !dbg !1367
  store ptr %2, ptr %6, align 8
  call void @llvm.dbg.declare(metadata ptr %6, metadata !1368, metadata !DIExpression()), !dbg !1369
  %7 = load ptr, ptr %4, align 8, !dbg !1370
  %8 = load i64, ptr %5, align 8, !dbg !1371
  %9 = call noundef ptr @_ZSt25__uninitialized_default_nIPfmET_S1_T0_(ptr noundef %7, i64 noundef %8), !dbg !1372
  ret ptr %9, !dbg !1373
}

; Function Attrs: mustprogress noinline nounwind optnone uwtable
define linkonce_odr dso_local noundef nonnull align 1 dereferenceable(1) ptr @_ZNSt12_Vector_baseIfSaIfEE19_M_get_Tp_allocatorEv(ptr noundef nonnull align 8 dereferenceable(24) %0) #6 comdat align 2 !dbg !1374 {
  %2 = alloca ptr, align 8
  store ptr %0, ptr %2, align 8
  call void @llvm.dbg.declare(metadata ptr %2, metadata !1380, metadata !DIExpression()), !dbg !1382
  %3 = load ptr, ptr %2, align 8
  %4 = getelementptr inbounds %"struct.std::_Vector_base", ptr %3, i32 0, i32 0, !dbg !1383
  ret ptr %4, !dbg !1384
}

; Function Attrs: mustprogress noinline optnone uwtable
define linkonce_odr dso_local noundef i64 @_ZNKSt6vectorIfSaIfEE12_M_check_lenEmPKc(ptr noundef nonnull align 8 dereferenceable(24) %0, i64 noundef %1, ptr noundef %2) #4 comdat align 2 !dbg !1385 {
  %4 = alloca ptr, align 8
  %5 = alloca i64, align 8
  %6 = alloca ptr, align 8
  %7 = alloca i64, align 8
  %8 = alloca i64, align 8
  store ptr %0, ptr %4, align 8
  call void @llvm.dbg.declare(metadata ptr %4, metadata !1390, metadata !DIExpression()), !dbg !1391
  store i64 %1, ptr %5, align 8
  call void @llvm.dbg.declare(metadata ptr %5, metadata !1392, metadata !DIExpression()), !dbg !1393
  store ptr %2, ptr %6, align 8
  call void @llvm.dbg.declare(metadata ptr %6, metadata !1394, metadata !DIExpression()), !dbg !1395
  %9 = load ptr, ptr %4, align 8
  %10 = call noundef i64 @_ZNKSt6vectorIfSaIfEE8max_sizeEv(ptr noundef nonnull align 8 dereferenceable(24) %9) #3, !dbg !1396
  %11 = call noundef i64 @_ZNKSt6vectorIfSaIfEE4sizeEv(ptr noundef nonnull align 8 dereferenceable(24) %9) #3, !dbg !1398
  %12 = sub i64 %10, %11, !dbg !1399
  %13 = load i64, ptr %5, align 8, !dbg !1400
  %14 = icmp ult i64 %12, %13, !dbg !1401
  br i1 %14, label %15, label %17, !dbg !1402

15:                                               ; preds = %3
  %16 = load ptr, ptr %6, align 8, !dbg !1403
  call void @_ZSt20__throw_length_errorPKc(ptr noundef %16) #12, !dbg !1404
  unreachable, !dbg !1404

17:                                               ; preds = %3
  call void @llvm.dbg.declare(metadata ptr %7, metadata !1405, metadata !DIExpression()), !dbg !1406
  %18 = call noundef i64 @_ZNKSt6vectorIfSaIfEE4sizeEv(ptr noundef nonnull align 8 dereferenceable(24) %9) #3, !dbg !1407
  %19 = call noundef i64 @_ZNKSt6vectorIfSaIfEE4sizeEv(ptr noundef nonnull align 8 dereferenceable(24) %9) #3, !dbg !1408
  store i64 %19, ptr %8, align 8, !dbg !1408
  %20 = call noundef nonnull align 8 dereferenceable(8) ptr @_ZSt3maxImERKT_S2_S2_(ptr noundef nonnull align 8 dereferenceable(8) %8, ptr noundef nonnull align 8 dereferenceable(8) %5), !dbg !1409
  %21 = load i64, ptr %20, align 8, !dbg !1409
  %22 = add i64 %18, %21, !dbg !1410
  store i64 %22, ptr %7, align 8, !dbg !1406
  %23 = load i64, ptr %7, align 8, !dbg !1411
  %24 = call noundef i64 @_ZNKSt6vectorIfSaIfEE4sizeEv(ptr noundef nonnull align 8 dereferenceable(24) %9) #3, !dbg !1412
  %25 = icmp ult i64 %23, %24, !dbg !1413
  br i1 %25, label %30, label %26, !dbg !1414

26:                                               ; preds = %17
  %27 = load i64, ptr %7, align 8, !dbg !1415
  %28 = call noundef i64 @_ZNKSt6vectorIfSaIfEE8max_sizeEv(ptr noundef nonnull align 8 dereferenceable(24) %9) #3, !dbg !1416
  %29 = icmp ugt i64 %27, %28, !dbg !1417
  br i1 %29, label %30, label %32, !dbg !1418

30:                                               ; preds = %26, %17
  %31 = call noundef i64 @_ZNKSt6vectorIfSaIfEE8max_sizeEv(ptr noundef nonnull align 8 dereferenceable(24) %9) #3, !dbg !1419
  br label %34, !dbg !1418

32:                                               ; preds = %26
  %33 = load i64, ptr %7, align 8, !dbg !1420
  br label %34, !dbg !1418

34:                                               ; preds = %32, %30
  %35 = phi i64 [ %31, %30 ], [ %33, %32 ], !dbg !1418
  ret i64 %35, !dbg !1421
}

; Function Attrs: mustprogress noinline optnone uwtable
define linkonce_odr dso_local noundef ptr @_ZNSt12_Vector_baseIfSaIfEE11_M_allocateEm(ptr noundef nonnull align 8 dereferenceable(24) %0, i64 noundef %1) #4 comdat align 2 !dbg !1422 {
  %3 = alloca ptr, align 8
  %4 = alloca i64, align 8
  store ptr %0, ptr %3, align 8
  call void @llvm.dbg.declare(metadata ptr %3, metadata !1426, metadata !DIExpression()), !dbg !1427
  store i64 %1, ptr %4, align 8
  call void @llvm.dbg.declare(metadata ptr %4, metadata !1428, metadata !DIExpression()), !dbg !1429
  %5 = load ptr, ptr %3, align 8
  %6 = load i64, ptr %4, align 8, !dbg !1430
  %7 = icmp ne i64 %6, 0, !dbg !1431
  br i1 %7, label %8, label %12, !dbg !1430

8:                                                ; preds = %2
  %9 = getelementptr inbounds %"struct.std::_Vector_base", ptr %5, i32 0, i32 0, !dbg !1432
  %10 = load i64, ptr %4, align 8, !dbg !1433
  %11 = call noundef ptr @_ZNSt16allocator_traitsISaIfEE8allocateERS0_m(ptr noundef nonnull align 1 dereferenceable(1) %9, i64 noundef %10), !dbg !1434
  br label %13, !dbg !1430

12:                                               ; preds = %2
  br label %13, !dbg !1430

13:                                               ; preds = %12, %8
  %14 = phi ptr [ %11, %8 ], [ null, %12 ], !dbg !1430
  ret ptr %14, !dbg !1435
}

declare ptr @__cxa_begin_catch(ptr)

; Function Attrs: mustprogress noinline optnone uwtable
define linkonce_odr dso_local void @_ZNSt12_Vector_baseIfSaIfEE13_M_deallocateEPfm(ptr noundef nonnull align 8 dereferenceable(24) %0, ptr noundef %1, i64 noundef %2) #4 comdat align 2 !dbg !1436 {
  %4 = alloca ptr, align 8
  %5 = alloca ptr, align 8
  %6 = alloca i64, align 8
  store ptr %0, ptr %4, align 8
  call void @llvm.dbg.declare(metadata ptr %4, metadata !1440, metadata !DIExpression()), !dbg !1441
  store ptr %1, ptr %5, align 8
  call void @llvm.dbg.declare(metadata ptr %5, metadata !1442, metadata !DIExpression()), !dbg !1443
  store i64 %2, ptr %6, align 8
  call void @llvm.dbg.declare(metadata ptr %6, metadata !1444, metadata !DIExpression()), !dbg !1445
  %7 = load ptr, ptr %4, align 8
  %8 = load ptr, ptr %5, align 8, !dbg !1446
  %9 = icmp ne ptr %8, null, !dbg !1446
  br i1 %9, label %10, label %14, !dbg !1448

10:                                               ; preds = %3
  %11 = getelementptr inbounds %"struct.std::_Vector_base", ptr %7, i32 0, i32 0, !dbg !1449
  %12 = load ptr, ptr %5, align 8, !dbg !1450
  %13 = load i64, ptr %6, align 8, !dbg !1451
  call void @_ZNSt16allocator_traitsISaIfEE10deallocateERS0_Pfm(ptr noundef nonnull align 1 dereferenceable(1) %11, ptr noundef %12, i64 noundef %13), !dbg !1452
  br label %14, !dbg !1452

14:                                               ; preds = %10, %3
  ret void, !dbg !1453
}

declare void @__cxa_rethrow()

declare void @__cxa_end_catch()

; Function Attrs: noinline noreturn nounwind
define linkonce_odr hidden void @__clang_call_terminate(ptr noundef %0) #7 comdat {
  %2 = call ptr @__cxa_begin_catch(ptr %0) #3
  call void @_ZSt9terminatev() #13
  unreachable
}

declare void @_ZSt9terminatev()

; Function Attrs: mustprogress noinline nounwind optnone uwtable
define linkonce_odr dso_local noundef ptr @_ZNSt6vectorIfSaIfEE11_S_relocateEPfS2_S2_RS0_(ptr noundef %0, ptr noundef %1, ptr noundef %2, ptr noundef nonnull align 1 dereferenceable(1) %3) #6 comdat align 2 !dbg !39 {
  %5 = alloca ptr, align 8
  %6 = alloca ptr, align 8
  %7 = alloca ptr, align 8
  %8 = alloca ptr, align 8
  %9 = alloca %"struct.std::integral_constant", align 1
  store ptr %0, ptr %5, align 8
  call void @llvm.dbg.declare(metadata ptr %5, metadata !1454, metadata !DIExpression()), !dbg !1455
  store ptr %1, ptr %6, align 8
  call void @llvm.dbg.declare(metadata ptr %6, metadata !1456, metadata !DIExpression()), !dbg !1457
  store ptr %2, ptr %7, align 8
  call void @llvm.dbg.declare(metadata ptr %7, metadata !1458, metadata !DIExpression()), !dbg !1459
  store ptr %3, ptr %8, align 8
  call void @llvm.dbg.declare(metadata ptr %8, metadata !1460, metadata !DIExpression()), !dbg !1461
  %10 = load ptr, ptr %5, align 8, !dbg !1462
  %11 = load ptr, ptr %6, align 8, !dbg !1463
  %12 = load ptr, ptr %7, align 8, !dbg !1464
  %13 = load ptr, ptr %8, align 8, !dbg !1465
  %14 = call noundef ptr @_ZNSt6vectorIfSaIfEE14_S_do_relocateEPfS2_S2_RS0_St17integral_constantIbLb1EE(ptr noundef %10, ptr noundef %11, ptr noundef %12, ptr noundef nonnull align 1 dereferenceable(1) %13) #3, !dbg !1466
  ret ptr %14, !dbg !1467
}

; Function Attrs: mustprogress noinline nounwind optnone uwtable
define linkonce_odr dso_local noundef i64 @_ZNSt6vectorIfSaIfEE11_S_max_sizeERKS0_(ptr noundef nonnull align 1 dereferenceable(1) %0) #6 comdat align 2 personality ptr @__gxx_personality_v0 !dbg !1468 {
  %2 = alloca ptr, align 8
  %3 = alloca i64, align 8
  %4 = alloca i64, align 8
  store ptr %0, ptr %2, align 8
  call void @llvm.dbg.declare(metadata ptr %2, metadata !1474, metadata !DIExpression()), !dbg !1475
  call void @llvm.dbg.declare(metadata ptr %3, metadata !1476, metadata !DIExpression()), !dbg !1478
  store i64 2305843009213693951, ptr %3, align 8, !dbg !1478
  call void @llvm.dbg.declare(metadata ptr %4, metadata !1479, metadata !DIExpression()), !dbg !1480
  %5 = load ptr, ptr %2, align 8, !dbg !1481
  %6 = call noundef i64 @_ZNSt16allocator_traitsISaIfEE8max_sizeERKS0_(ptr noundef nonnull align 1 dereferenceable(1) %5) #3, !dbg !1482
  store i64 %6, ptr %4, align 8, !dbg !1480
  %7 = invoke noundef nonnull align 8 dereferenceable(8) ptr @_ZSt3minImERKT_S2_S2_(ptr noundef nonnull align 8 dereferenceable(8) %3, ptr noundef nonnull align 8 dereferenceable(8) %4)
          to label %8 unwind label %10, !dbg !1483

8:                                                ; preds = %1
  %9 = load i64, ptr %7, align 8, !dbg !1483
  ret i64 %9, !dbg !1484

10:                                               ; preds = %1
  %11 = landingpad { ptr, i32 }
          catch ptr null, !dbg !1483
  %12 = extractvalue { ptr, i32 } %11, 0, !dbg !1483
  call void @__clang_call_terminate(ptr %12) #13, !dbg !1483
  unreachable, !dbg !1483
}

; Function Attrs: mustprogress noinline nounwind optnone uwtable
define linkonce_odr dso_local noundef nonnull align 1 dereferenceable(1) ptr @_ZNKSt12_Vector_baseIfSaIfEE19_M_get_Tp_allocatorEv(ptr noundef nonnull align 8 dereferenceable(24) %0) #6 comdat align 2 !dbg !1485 {
  %2 = alloca ptr, align 8
  store ptr %0, ptr %2, align 8
  call void @llvm.dbg.declare(metadata ptr %2, metadata !1493, metadata !DIExpression()), !dbg !1495
  %3 = load ptr, ptr %2, align 8
  %4 = getelementptr inbounds %"struct.std::_Vector_base", ptr %3, i32 0, i32 0, !dbg !1496
  ret ptr %4, !dbg !1497
}

; Function Attrs: mustprogress noinline nounwind optnone uwtable
define linkonce_odr dso_local noundef i64 @_ZNSt16allocator_traitsISaIfEE8max_sizeERKS0_(ptr noundef nonnull align 1 dereferenceable(1) %0) #6 comdat align 2 !dbg !1498 {
  %2 = alloca ptr, align 8
  store ptr %0, ptr %2, align 8
  call void @llvm.dbg.declare(metadata ptr %2, metadata !1499, metadata !DIExpression()), !dbg !1500
  %3 = load ptr, ptr %2, align 8, !dbg !1501
  %4 = call noundef i64 @_ZNK9__gnu_cxx13new_allocatorIfE8max_sizeEv(ptr noundef nonnull align 1 dereferenceable(1) %3) #3, !dbg !1502
  ret i64 %4, !dbg !1503
}

; Function Attrs: mustprogress noinline nounwind optnone uwtable
define linkonce_odr dso_local noundef nonnull align 8 dereferenceable(8) ptr @_ZSt3minImERKT_S2_S2_(ptr noundef nonnull align 8 dereferenceable(8) %0, ptr noundef nonnull align 8 dereferenceable(8) %1) #6 comdat !dbg !1504 {
  %3 = alloca ptr, align 8
  %4 = alloca ptr, align 8
  %5 = alloca ptr, align 8
  store ptr %0, ptr %4, align 8
  call void @llvm.dbg.declare(metadata ptr %4, metadata !1512, metadata !DIExpression()), !dbg !1513
  store ptr %1, ptr %5, align 8
  call void @llvm.dbg.declare(metadata ptr %5, metadata !1514, metadata !DIExpression()), !dbg !1515
  %6 = load ptr, ptr %5, align 8, !dbg !1516
  %7 = load i64, ptr %6, align 8, !dbg !1516
  %8 = load ptr, ptr %4, align 8, !dbg !1518
  %9 = load i64, ptr %8, align 8, !dbg !1518
  %10 = icmp ult i64 %7, %9, !dbg !1519
  br i1 %10, label %11, label %13, !dbg !1520

11:                                               ; preds = %2
  %12 = load ptr, ptr %5, align 8, !dbg !1521
  store ptr %12, ptr %3, align 8, !dbg !1522
  br label %15, !dbg !1522

13:                                               ; preds = %2
  %14 = load ptr, ptr %4, align 8, !dbg !1523
  store ptr %14, ptr %3, align 8, !dbg !1524
  br label %15, !dbg !1524

15:                                               ; preds = %13, %11
  %16 = load ptr, ptr %3, align 8, !dbg !1525
  ret ptr %16, !dbg !1525
}

; Function Attrs: mustprogress noinline nounwind optnone uwtable
define linkonce_odr dso_local noundef i64 @_ZNK9__gnu_cxx13new_allocatorIfE8max_sizeEv(ptr noundef nonnull align 1 dereferenceable(1) %0) #6 comdat align 2 !dbg !1526 {
  %2 = alloca ptr, align 8
  store ptr %0, ptr %2, align 8
  call void @llvm.dbg.declare(metadata ptr %2, metadata !1535, metadata !DIExpression()), !dbg !1537
  %3 = load ptr, ptr %2, align 8
  %4 = call noundef i64 @_ZNK9__gnu_cxx13new_allocatorIfE11_M_max_sizeEv(ptr noundef nonnull align 1 dereferenceable(1) %3) #3, !dbg !1538
  ret i64 %4, !dbg !1539
}

; Function Attrs: mustprogress noinline nounwind optnone uwtable
define linkonce_odr dso_local noundef i64 @_ZNK9__gnu_cxx13new_allocatorIfE11_M_max_sizeEv(ptr noundef nonnull align 1 dereferenceable(1) %0) #6 comdat align 2 !dbg !1540 {
  %2 = alloca ptr, align 8
  store ptr %0, ptr %2, align 8
  call void @llvm.dbg.declare(metadata ptr %2, metadata !1542, metadata !DIExpression()), !dbg !1543
  %3 = load ptr, ptr %2, align 8
  ret i64 2305843009213693951, !dbg !1544
}

; Function Attrs: mustprogress noinline optnone uwtable
define linkonce_odr dso_local noundef ptr @_ZSt25__uninitialized_default_nIPfmET_S1_T0_(ptr noundef %0, i64 noundef %1) #4 comdat !dbg !1545 {
  %3 = alloca ptr, align 8
  %4 = alloca i64, align 8
  %5 = alloca i8, align 1
  store ptr %0, ptr %3, align 8
  call void @llvm.dbg.declare(metadata ptr %3, metadata !1549, metadata !DIExpression()), !dbg !1550
  store i64 %1, ptr %4, align 8
  call void @llvm.dbg.declare(metadata ptr %4, metadata !1551, metadata !DIExpression()), !dbg !1552
  call void @llvm.dbg.declare(metadata ptr %5, metadata !1553, metadata !DIExpression()), !dbg !1554
  store i8 1, ptr %5, align 1, !dbg !1554
  %6 = load ptr, ptr %3, align 8, !dbg !1555
  %7 = load i64, ptr %4, align 8, !dbg !1556
  %8 = call noundef ptr @_ZNSt27__uninitialized_default_n_1ILb1EE18__uninit_default_nIPfmEET_S3_T0_(ptr noundef %6, i64 noundef %7), !dbg !1557
  ret ptr %8, !dbg !1558
}

; Function Attrs: mustprogress noinline optnone uwtable
define linkonce_odr dso_local noundef ptr @_ZNSt27__uninitialized_default_n_1ILb1EE18__uninit_default_nIPfmEET_S3_T0_(ptr noundef %0, i64 noundef %1) #4 comdat align 2 !dbg !1559 {
  %3 = alloca ptr, align 8
  %4 = alloca i64, align 8
  %5 = alloca ptr, align 8
  store ptr %0, ptr %3, align 8
  call void @llvm.dbg.declare(metadata ptr %3, metadata !1564, metadata !DIExpression()), !dbg !1565
  store i64 %1, ptr %4, align 8
  call void @llvm.dbg.declare(metadata ptr %4, metadata !1566, metadata !DIExpression()), !dbg !1567
  %6 = load i64, ptr %4, align 8, !dbg !1568
  %7 = icmp ugt i64 %6, 0, !dbg !1570
  br i1 %7, label %8, label %18, !dbg !1571

8:                                                ; preds = %2
  call void @llvm.dbg.declare(metadata ptr %5, metadata !1572, metadata !DIExpression()), !dbg !1580
  %9 = load ptr, ptr %3, align 8, !dbg !1581
  store ptr %9, ptr %5, align 8, !dbg !1580
  %10 = load ptr, ptr %5, align 8, !dbg !1582
  call void @_ZSt10_ConstructIfJEEvPT_DpOT0_(ptr noundef %10), !dbg !1583
  %11 = load ptr, ptr %3, align 8, !dbg !1584
  %12 = getelementptr inbounds float, ptr %11, i32 1, !dbg !1584
  store ptr %12, ptr %3, align 8, !dbg !1584
  %13 = load ptr, ptr %3, align 8, !dbg !1585
  %14 = load i64, ptr %4, align 8, !dbg !1586
  %15 = sub i64 %14, 1, !dbg !1587
  %16 = load ptr, ptr %5, align 8, !dbg !1588
  %17 = call noundef ptr @_ZSt6fill_nIPfmfET_S1_T0_RKT1_(ptr noundef %13, i64 noundef %15, ptr noundef nonnull align 4 dereferenceable(4) %16), !dbg !1589
  store ptr %17, ptr %3, align 8, !dbg !1590
  br label %18, !dbg !1591

18:                                               ; preds = %8, %2
  %19 = load ptr, ptr %3, align 8, !dbg !1592
  ret ptr %19, !dbg !1593
}

; Function Attrs: mustprogress noinline nounwind optnone uwtable
define linkonce_odr dso_local void @_ZSt10_ConstructIfJEEvPT_DpOT0_(ptr noundef %0) #6 comdat !dbg !1594 {
  %2 = alloca ptr, align 8
  store ptr %0, ptr %2, align 8
  call void @llvm.dbg.declare(metadata ptr %2, metadata !1600, metadata !DIExpression()), !dbg !1601
  %3 = load ptr, ptr %2, align 8, !dbg !1602
  store float 0.000000e+00, ptr %3, align 4, !dbg !1603
  ret void, !dbg !1604
}

; Function Attrs: mustprogress noinline optnone uwtable
define linkonce_odr dso_local noundef ptr @_ZSt6fill_nIPfmfET_S1_T0_RKT1_(ptr noundef %0, i64 noundef %1, ptr noundef nonnull align 4 dereferenceable(4) %2) #4 comdat !dbg !1605 {
  %4 = alloca ptr, align 8
  %5 = alloca i64, align 8
  %6 = alloca ptr, align 8
  %7 = alloca %"struct.std::random_access_iterator_tag", align 1
  %8 = alloca %"struct.std::random_access_iterator_tag", align 1
  store ptr %0, ptr %4, align 8
  call void @llvm.dbg.declare(metadata ptr %4, metadata !1612, metadata !DIExpression()), !dbg !1613
  store i64 %1, ptr %5, align 8
  call void @llvm.dbg.declare(metadata ptr %5, metadata !1614, metadata !DIExpression()), !dbg !1615
  store ptr %2, ptr %6, align 8
  call void @llvm.dbg.declare(metadata ptr %6, metadata !1616, metadata !DIExpression()), !dbg !1617
  %9 = load ptr, ptr %4, align 8, !dbg !1618
  %10 = load i64, ptr %5, align 8, !dbg !1619
  %11 = call noundef i64 @_ZSt17__size_to_integerm(i64 noundef %10), !dbg !1620
  %12 = load ptr, ptr %6, align 8, !dbg !1621
  call void @_ZSt19__iterator_categoryIPfENSt15iterator_traitsIT_E17iterator_categoryERKS2_(ptr noundef nonnull align 8 dereferenceable(8) %4), !dbg !1622
  %13 = call noundef ptr @_ZSt10__fill_n_aIPfmfET_S1_T0_RKT1_St26random_access_iterator_tag(ptr noundef %9, i64 noundef %11, ptr noundef nonnull align 4 dereferenceable(4) %12), !dbg !1623
  ret ptr %13, !dbg !1624
}

; Function Attrs: mustprogress noinline optnone uwtable
define linkonce_odr dso_local noundef ptr @_ZSt10__fill_n_aIPfmfET_S1_T0_RKT1_St26random_access_iterator_tag(ptr noundef %0, i64 noundef %1, ptr noundef nonnull align 4 dereferenceable(4) %2) #4 comdat !dbg !1625 {
  %4 = alloca ptr, align 8
  %5 = alloca %"struct.std::random_access_iterator_tag", align 1
  %6 = alloca ptr, align 8
  %7 = alloca i64, align 8
  %8 = alloca ptr, align 8
  store ptr %0, ptr %6, align 8
  call void @llvm.dbg.declare(metadata ptr %6, metadata !1640, metadata !DIExpression()), !dbg !1641
  store i64 %1, ptr %7, align 8
  call void @llvm.dbg.declare(metadata ptr %7, metadata !1642, metadata !DIExpression()), !dbg !1643
  store ptr %2, ptr %8, align 8
  call void @llvm.dbg.declare(metadata ptr %8, metadata !1644, metadata !DIExpression()), !dbg !1645
  call void @llvm.dbg.declare(metadata ptr %5, metadata !1646, metadata !DIExpression()), !dbg !1647
  %9 = load i64, ptr %7, align 8, !dbg !1648
  %10 = icmp ule i64 %9, 0, !dbg !1650
  br i1 %10, label %11, label %13, !dbg !1651

11:                                               ; preds = %3
  %12 = load ptr, ptr %6, align 8, !dbg !1652
  store ptr %12, ptr %4, align 8, !dbg !1653
  br label %22, !dbg !1653

13:                                               ; preds = %3
  %14 = load ptr, ptr %6, align 8, !dbg !1654
  %15 = load ptr, ptr %6, align 8, !dbg !1655
  %16 = load i64, ptr %7, align 8, !dbg !1656
  %17 = getelementptr inbounds float, ptr %15, i64 %16, !dbg !1657
  %18 = load ptr, ptr %8, align 8, !dbg !1658
  call void @_ZSt8__fill_aIPffEvT_S1_RKT0_(ptr noundef %14, ptr noundef %17, ptr noundef nonnull align 4 dereferenceable(4) %18), !dbg !1659
  %19 = load ptr, ptr %6, align 8, !dbg !1660
  %20 = load i64, ptr %7, align 8, !dbg !1661
  %21 = getelementptr inbounds float, ptr %19, i64 %20, !dbg !1662
  store ptr %21, ptr %4, align 8, !dbg !1663
  br label %22, !dbg !1663

22:                                               ; preds = %13, %11
  %23 = load ptr, ptr %4, align 8, !dbg !1664
  ret ptr %23, !dbg !1664
}

; Function Attrs: mustprogress noinline nounwind optnone uwtable
define linkonce_odr dso_local noundef i64 @_ZSt17__size_to_integerm(i64 noundef %0) #6 comdat !dbg !1665 {
  %2 = alloca i64, align 8
  store i64 %0, ptr %2, align 8
  call void @llvm.dbg.declare(metadata ptr %2, metadata !1668, metadata !DIExpression()), !dbg !1669
  %3 = load i64, ptr %2, align 8, !dbg !1670
  ret i64 %3, !dbg !1671
}

; Function Attrs: mustprogress noinline nounwind optnone uwtable
define linkonce_odr dso_local void @_ZSt19__iterator_categoryIPfENSt15iterator_traitsIT_E17iterator_categoryERKS2_(ptr noundef nonnull align 8 dereferenceable(8) %0) #6 comdat !dbg !1672 {
  %2 = alloca ptr, align 8
  store ptr %0, ptr %2, align 8
  call void @llvm.dbg.declare(metadata ptr %2, metadata !1680, metadata !DIExpression()), !dbg !1681
  ret void, !dbg !1682
}

; Function Attrs: mustprogress noinline optnone uwtable
define linkonce_odr dso_local void @_ZSt8__fill_aIPffEvT_S1_RKT0_(ptr noundef %0, ptr noundef %1, ptr noundef nonnull align 4 dereferenceable(4) %2) #4 comdat !dbg !1683 {
  %4 = alloca ptr, align 8
  %5 = alloca ptr, align 8
  %6 = alloca ptr, align 8
  store ptr %0, ptr %4, align 8
  call void @llvm.dbg.declare(metadata ptr %4, metadata !1688, metadata !DIExpression()), !dbg !1689
  store ptr %1, ptr %5, align 8
  call void @llvm.dbg.declare(metadata ptr %5, metadata !1690, metadata !DIExpression()), !dbg !1691
  store ptr %2, ptr %6, align 8
  call void @llvm.dbg.declare(metadata ptr %6, metadata !1692, metadata !DIExpression()), !dbg !1693
  %7 = load ptr, ptr %4, align 8, !dbg !1694
  %8 = load ptr, ptr %5, align 8, !dbg !1695
  %9 = load ptr, ptr %6, align 8, !dbg !1696
  call void @_ZSt9__fill_a1IPffEN9__gnu_cxx11__enable_ifIXsr11__is_scalarIT0_EE7__valueEvE6__typeET_S6_RKS3_(ptr noundef %7, ptr noundef %8, ptr noundef nonnull align 4 dereferenceable(4) %9), !dbg !1697
  ret void, !dbg !1698
}

; Function Attrs: mustprogress noinline nounwind optnone uwtable
define linkonce_odr dso_local void @_ZSt9__fill_a1IPffEN9__gnu_cxx11__enable_ifIXsr11__is_scalarIT0_EE7__valueEvE6__typeET_S6_RKS3_(ptr noundef %0, ptr noundef %1, ptr noundef nonnull align 4 dereferenceable(4) %2) #6 comdat !dbg !1699 {
  %4 = alloca ptr, align 8
  %5 = alloca ptr, align 8
  %6 = alloca ptr, align 8
  %7 = alloca float, align 4
  store ptr %0, ptr %4, align 8
  call void @llvm.dbg.declare(metadata ptr %4, metadata !1709, metadata !DIExpression()), !dbg !1710
  store ptr %1, ptr %5, align 8
  call void @llvm.dbg.declare(metadata ptr %5, metadata !1711, metadata !DIExpression()), !dbg !1712
  store ptr %2, ptr %6, align 8
  call void @llvm.dbg.declare(metadata ptr %6, metadata !1713, metadata !DIExpression()), !dbg !1714
  call void @llvm.dbg.declare(metadata ptr %7, metadata !1715, metadata !DIExpression()), !dbg !1716
  %8 = load ptr, ptr %6, align 8, !dbg !1717
  %9 = load float, ptr %8, align 4, !dbg !1717
  store float %9, ptr %7, align 4, !dbg !1716
  br label %10, !dbg !1718

10:                                               ; preds = %17, %3
  %11 = load ptr, ptr %4, align 8, !dbg !1719
  %12 = load ptr, ptr %5, align 8, !dbg !1722
  %13 = icmp ne ptr %11, %12, !dbg !1723
  br i1 %13, label %14, label %20, !dbg !1724

14:                                               ; preds = %10
  %15 = load float, ptr %7, align 4, !dbg !1725
  %16 = load ptr, ptr %4, align 8, !dbg !1726
  store float %15, ptr %16, align 4, !dbg !1727
  br label %17, !dbg !1728

17:                                               ; preds = %14
  %18 = load ptr, ptr %4, align 8, !dbg !1729
  %19 = getelementptr inbounds float, ptr %18, i32 1, !dbg !1729
  store ptr %19, ptr %4, align 8, !dbg !1729
  br label %10, !dbg !1730, !llvm.loop !1731

20:                                               ; preds = %10
  ret void, !dbg !1733
}

; Function Attrs: noreturn
declare void @_ZSt20__throw_length_errorPKc(ptr noundef) #8

; Function Attrs: mustprogress noinline nounwind optnone uwtable
define linkonce_odr dso_local noundef nonnull align 8 dereferenceable(8) ptr @_ZSt3maxImERKT_S2_S2_(ptr noundef nonnull align 8 dereferenceable(8) %0, ptr noundef nonnull align 8 dereferenceable(8) %1) #6 comdat !dbg !1734 {
  %3 = alloca ptr, align 8
  %4 = alloca ptr, align 8
  %5 = alloca ptr, align 8
  store ptr %0, ptr %4, align 8
  call void @llvm.dbg.declare(metadata ptr %4, metadata !1735, metadata !DIExpression()), !dbg !1736
  store ptr %1, ptr %5, align 8
  call void @llvm.dbg.declare(metadata ptr %5, metadata !1737, metadata !DIExpression()), !dbg !1738
  %6 = load ptr, ptr %4, align 8, !dbg !1739
  %7 = load i64, ptr %6, align 8, !dbg !1739
  %8 = load ptr, ptr %5, align 8, !dbg !1741
  %9 = load i64, ptr %8, align 8, !dbg !1741
  %10 = icmp ult i64 %7, %9, !dbg !1742
  br i1 %10, label %11, label %13, !dbg !1743

11:                                               ; preds = %2
  %12 = load ptr, ptr %5, align 8, !dbg !1744
  store ptr %12, ptr %3, align 8, !dbg !1745
  br label %15, !dbg !1745

13:                                               ; preds = %2
  %14 = load ptr, ptr %4, align 8, !dbg !1746
  store ptr %14, ptr %3, align 8, !dbg !1747
  br label %15, !dbg !1747

15:                                               ; preds = %13, %11
  %16 = load ptr, ptr %3, align 8, !dbg !1748
  ret ptr %16, !dbg !1748
}

; Function Attrs: mustprogress noinline optnone uwtable
define linkonce_odr dso_local noundef ptr @_ZNSt16allocator_traitsISaIfEE8allocateERS0_m(ptr noundef nonnull align 1 dereferenceable(1) %0, i64 noundef %1) #4 comdat align 2 !dbg !1749 {
  %3 = alloca ptr, align 8
  %4 = alloca i64, align 8
  store ptr %0, ptr %3, align 8
  call void @llvm.dbg.declare(metadata ptr %3, metadata !1750, metadata !DIExpression()), !dbg !1751
  store i64 %1, ptr %4, align 8
  call void @llvm.dbg.declare(metadata ptr %4, metadata !1752, metadata !DIExpression()), !dbg !1753
  %5 = load ptr, ptr %3, align 8, !dbg !1754
  %6 = load i64, ptr %4, align 8, !dbg !1755
  %7 = call noundef ptr @_ZN9__gnu_cxx13new_allocatorIfE8allocateEmPKv(ptr noundef nonnull align 1 dereferenceable(1) %5, i64 noundef %6, ptr noundef null), !dbg !1756
  ret ptr %7, !dbg !1757
}

; Function Attrs: mustprogress noinline optnone uwtable
define linkonce_odr dso_local noundef ptr @_ZN9__gnu_cxx13new_allocatorIfE8allocateEmPKv(ptr noundef nonnull align 1 dereferenceable(1) %0, i64 noundef %1, ptr noundef %2) #4 comdat align 2 !dbg !1758 {
  %4 = alloca ptr, align 8
  %5 = alloca i64, align 8
  %6 = alloca ptr, align 8
  store ptr %0, ptr %4, align 8
  call void @llvm.dbg.declare(metadata ptr %4, metadata !1763, metadata !DIExpression()), !dbg !1765
  store i64 %1, ptr %5, align 8
  call void @llvm.dbg.declare(metadata ptr %5, metadata !1766, metadata !DIExpression()), !dbg !1767
  store ptr %2, ptr %6, align 8
  call void @llvm.dbg.declare(metadata ptr %6, metadata !1768, metadata !DIExpression()), !dbg !1769
  %7 = load ptr, ptr %4, align 8
  %8 = load i64, ptr %5, align 8, !dbg !1770
  %9 = call noundef i64 @_ZNK9__gnu_cxx13new_allocatorIfE11_M_max_sizeEv(ptr noundef nonnull align 1 dereferenceable(1) %7) #3, !dbg !1772
  %10 = icmp ugt i64 %8, %9, !dbg !1773
  br i1 %10, label %11, label %16, !dbg !1774

11:                                               ; preds = %3
  %12 = load i64, ptr %5, align 8, !dbg !1775
  %13 = icmp ugt i64 %12, 4611686018427387903, !dbg !1778
  br i1 %13, label %14, label %15, !dbg !1779

14:                                               ; preds = %11
  call void @_ZSt28__throw_bad_array_new_lengthv() #12, !dbg !1780
  unreachable, !dbg !1780

15:                                               ; preds = %11
  call void @_ZSt17__throw_bad_allocv() #12, !dbg !1781
  unreachable, !dbg !1781

16:                                               ; preds = %3
  %17 = load i64, ptr %5, align 8, !dbg !1782
  %18 = mul i64 %17, 4, !dbg !1783
  %19 = call noalias noundef nonnull ptr @_Znwm(i64 noundef %18) #14, !dbg !1784
  ret ptr %19, !dbg !1785
}

; Function Attrs: noreturn
declare void @_ZSt28__throw_bad_array_new_lengthv() #8

; Function Attrs: noreturn
declare void @_ZSt17__throw_bad_allocv() #8

; Function Attrs: nobuiltin allocsize(0)
declare noundef nonnull ptr @_Znwm(i64 noundef) #9

; Function Attrs: mustprogress noinline optnone uwtable
define linkonce_odr dso_local void @_ZNSt16allocator_traitsISaIfEE10deallocateERS0_Pfm(ptr noundef nonnull align 1 dereferenceable(1) %0, ptr noundef %1, i64 noundef %2) #4 comdat align 2 !dbg !1786 {
  %4 = alloca ptr, align 8
  %5 = alloca ptr, align 8
  %6 = alloca i64, align 8
  store ptr %0, ptr %4, align 8
  call void @llvm.dbg.declare(metadata ptr %4, metadata !1787, metadata !DIExpression()), !dbg !1788
  store ptr %1, ptr %5, align 8
  call void @llvm.dbg.declare(metadata ptr %5, metadata !1789, metadata !DIExpression()), !dbg !1790
  store i64 %2, ptr %6, align 8
  call void @llvm.dbg.declare(metadata ptr %6, metadata !1791, metadata !DIExpression()), !dbg !1792
  %7 = load ptr, ptr %4, align 8, !dbg !1793
  %8 = load ptr, ptr %5, align 8, !dbg !1794
  %9 = load i64, ptr %6, align 8, !dbg !1795
  call void @_ZN9__gnu_cxx13new_allocatorIfE10deallocateEPfm(ptr noundef nonnull align 1 dereferenceable(1) %7, ptr noundef %8, i64 noundef %9), !dbg !1796
  ret void, !dbg !1797
}

; Function Attrs: mustprogress noinline nounwind optnone uwtable
define linkonce_odr dso_local void @_ZN9__gnu_cxx13new_allocatorIfE10deallocateEPfm(ptr noundef nonnull align 1 dereferenceable(1) %0, ptr noundef %1, i64 noundef %2) #6 comdat align 2 !dbg !1798 {
  %4 = alloca ptr, align 8
  %5 = alloca ptr, align 8
  %6 = alloca i64, align 8
  store ptr %0, ptr %4, align 8
  call void @llvm.dbg.declare(metadata ptr %4, metadata !1802, metadata !DIExpression()), !dbg !1803
  store ptr %1, ptr %5, align 8
  call void @llvm.dbg.declare(metadata ptr %5, metadata !1804, metadata !DIExpression()), !dbg !1805
  store i64 %2, ptr %6, align 8
  call void @llvm.dbg.declare(metadata ptr %6, metadata !1806, metadata !DIExpression()), !dbg !1807
  %7 = load ptr, ptr %4, align 8
  %8 = load ptr, ptr %5, align 8, !dbg !1808
  call void @_ZdlPv(ptr noundef %8) #3, !dbg !1809
  ret void, !dbg !1810
}

; Function Attrs: nobuiltin nounwind
declare void @_ZdlPv(ptr noundef) #10

; Function Attrs: mustprogress noinline nounwind optnone uwtable
define linkonce_odr dso_local noundef ptr @_ZNSt6vectorIfSaIfEE14_S_do_relocateEPfS2_S2_RS0_St17integral_constantIbLb1EE(ptr noundef %0, ptr noundef %1, ptr noundef %2, ptr noundef nonnull align 1 dereferenceable(1) %3) #6 comdat align 2 !dbg !1811 {
  %5 = alloca %"struct.std::integral_constant", align 1
  %6 = alloca ptr, align 8
  %7 = alloca ptr, align 8
  %8 = alloca ptr, align 8
  %9 = alloca ptr, align 8
  store ptr %0, ptr %6, align 8
  call void @llvm.dbg.declare(metadata ptr %6, metadata !1816, metadata !DIExpression()), !dbg !1817
  store ptr %1, ptr %7, align 8
  call void @llvm.dbg.declare(metadata ptr %7, metadata !1818, metadata !DIExpression()), !dbg !1819
  store ptr %2, ptr %8, align 8
  call void @llvm.dbg.declare(metadata ptr %8, metadata !1820, metadata !DIExpression()), !dbg !1821
  store ptr %3, ptr %9, align 8
  call void @llvm.dbg.declare(metadata ptr %9, metadata !1822, metadata !DIExpression()), !dbg !1823
  call void @llvm.dbg.declare(metadata ptr %5, metadata !1824, metadata !DIExpression()), !dbg !1825
  %10 = load ptr, ptr %6, align 8, !dbg !1826
  %11 = load ptr, ptr %7, align 8, !dbg !1827
  %12 = load ptr, ptr %8, align 8, !dbg !1828
  %13 = load ptr, ptr %9, align 8, !dbg !1829
  %14 = call noundef ptr @_ZSt12__relocate_aIPfS0_SaIfEET0_T_S3_S2_RT1_(ptr noundef %10, ptr noundef %11, ptr noundef %12, ptr noundef nonnull align 1 dereferenceable(1) %13) #3, !dbg !1830
  ret ptr %14, !dbg !1831
}

; Function Attrs: mustprogress noinline nounwind optnone uwtable
define linkonce_odr dso_local noundef ptr @_ZSt12__relocate_aIPfS0_SaIfEET0_T_S3_S2_RT1_(ptr noundef %0, ptr noundef %1, ptr noundef %2, ptr noundef nonnull align 1 dereferenceable(1) %3) #6 comdat !dbg !1832 {
  %5 = alloca ptr, align 8
  %6 = alloca ptr, align 8
  %7 = alloca ptr, align 8
  %8 = alloca ptr, align 8
  store ptr %0, ptr %5, align 8
  call void @llvm.dbg.declare(metadata ptr %5, metadata !1838, metadata !DIExpression()), !dbg !1839
  store ptr %1, ptr %6, align 8
  call void @llvm.dbg.declare(metadata ptr %6, metadata !1840, metadata !DIExpression()), !dbg !1841
  store ptr %2, ptr %7, align 8
  call void @llvm.dbg.declare(metadata ptr %7, metadata !1842, metadata !DIExpression()), !dbg !1843
  store ptr %3, ptr %8, align 8
  call void @llvm.dbg.declare(metadata ptr %8, metadata !1844, metadata !DIExpression()), !dbg !1845
  %9 = load ptr, ptr %5, align 8, !dbg !1846
  %10 = call noundef ptr @_ZSt12__niter_baseIPfET_S1_(ptr noundef %9) #3, !dbg !1847
  %11 = load ptr, ptr %6, align 8, !dbg !1848
  %12 = call noundef ptr @_ZSt12__niter_baseIPfET_S1_(ptr noundef %11) #3, !dbg !1849
  %13 = load ptr, ptr %7, align 8, !dbg !1850
  %14 = call noundef ptr @_ZSt12__niter_baseIPfET_S1_(ptr noundef %13) #3, !dbg !1851
  %15 = load ptr, ptr %8, align 8, !dbg !1852
  %16 = call noundef ptr @_ZSt14__relocate_a_1IffENSt9enable_ifIXsr3std24__is_bitwise_relocatableIT_EE5valueEPS1_E4typeES2_S2_S2_RSaIT0_E(ptr noundef %10, ptr noundef %12, ptr noundef %14, ptr noundef nonnull align 1 dereferenceable(1) %15) #3, !dbg !1853
  ret ptr %16, !dbg !1854
}

; Function Attrs: mustprogress noinline nounwind optnone uwtable
define linkonce_odr dso_local noundef ptr @_ZSt14__relocate_a_1IffENSt9enable_ifIXsr3std24__is_bitwise_relocatableIT_EE5valueEPS1_E4typeES2_S2_S2_RSaIT0_E(ptr noundef %0, ptr noundef %1, ptr noundef %2, ptr noundef nonnull align 1 dereferenceable(1) %3) #6 comdat !dbg !1855 {
  %5 = alloca ptr, align 8
  %6 = alloca ptr, align 8
  %7 = alloca ptr, align 8
  %8 = alloca ptr, align 8
  %9 = alloca i64, align 8
  store ptr %0, ptr %5, align 8
  call void @llvm.dbg.declare(metadata ptr %5, metadata !1865, metadata !DIExpression()), !dbg !1866
  store ptr %1, ptr %6, align 8
  call void @llvm.dbg.declare(metadata ptr %6, metadata !1867, metadata !DIExpression()), !dbg !1868
  store ptr %2, ptr %7, align 8
  call void @llvm.dbg.declare(metadata ptr %7, metadata !1869, metadata !DIExpression()), !dbg !1870
  store ptr %3, ptr %8, align 8
  call void @llvm.dbg.declare(metadata ptr %8, metadata !1871, metadata !DIExpression()), !dbg !1872
  call void @llvm.dbg.declare(metadata ptr %9, metadata !1873, metadata !DIExpression()), !dbg !1875
  %10 = load ptr, ptr %6, align 8, !dbg !1876
  %11 = load ptr, ptr %5, align 8, !dbg !1877
  %12 = ptrtoint ptr %10 to i64, !dbg !1878
  %13 = ptrtoint ptr %11 to i64, !dbg !1878
  %14 = sub i64 %12, %13, !dbg !1878
  %15 = sdiv exact i64 %14, 4, !dbg !1878
  store i64 %15, ptr %9, align 8, !dbg !1875
  %16 = load i64, ptr %9, align 8, !dbg !1879
  %17 = icmp sgt i64 %16, 0, !dbg !1881
  br i1 %17, label %18, label %23, !dbg !1882

18:                                               ; preds = %4
  %19 = load ptr, ptr %7, align 8, !dbg !1883
  %20 = load ptr, ptr %5, align 8, !dbg !1884
  %21 = load i64, ptr %9, align 8, !dbg !1885
  %22 = mul i64 %21, 4, !dbg !1886
  call void @llvm.memmove.p0.p0.i64(ptr align 4 %19, ptr align 4 %20, i64 %22, i1 false), !dbg !1887
  br label %23, !dbg !1887

23:                                               ; preds = %18, %4
  %24 = load ptr, ptr %7, align 8, !dbg !1888
  %25 = load i64, ptr %9, align 8, !dbg !1889
  %26 = getelementptr inbounds float, ptr %24, i64 %25, !dbg !1890
  ret ptr %26, !dbg !1891
}

; Function Attrs: mustprogress noinline nounwind optnone uwtable
define linkonce_odr dso_local noundef ptr @_ZSt12__niter_baseIPfET_S1_(ptr noundef %0) #6 comdat !dbg !1892 {
  %2 = alloca ptr, align 8
  store ptr %0, ptr %2, align 8
  call void @llvm.dbg.declare(metadata ptr %2, metadata !1895, metadata !DIExpression()), !dbg !1896
  %3 = load ptr, ptr %2, align 8, !dbg !1897
  ret ptr %3, !dbg !1898
}

; Function Attrs: nocallback nofree nounwind willreturn memory(argmem: readwrite)
declare void @llvm.memmove.p0.p0.i64(ptr nocapture writeonly, ptr nocapture readonly, i64, i1 immarg) #11

; Function Attrs: mustprogress noinline optnone uwtable
define linkonce_odr dso_local void @_ZSt8_DestroyIPffEvT_S1_RSaIT0_E(ptr noundef %0, ptr noundef %1, ptr noundef nonnull align 1 dereferenceable(1) %2) #4 comdat !dbg !1899 {
  %4 = alloca ptr, align 8
  %5 = alloca ptr, align 8
  %6 = alloca ptr, align 8
  store ptr %0, ptr %4, align 8
  call void @llvm.dbg.declare(metadata ptr %4, metadata !1902, metadata !DIExpression()), !dbg !1903
  store ptr %1, ptr %5, align 8
  call void @llvm.dbg.declare(metadata ptr %5, metadata !1904, metadata !DIExpression()), !dbg !1905
  store ptr %2, ptr %6, align 8
  call void @llvm.dbg.declare(metadata ptr %6, metadata !1906, metadata !DIExpression()), !dbg !1907
  %7 = load ptr, ptr %4, align 8, !dbg !1908
  %8 = load ptr, ptr %5, align 8, !dbg !1909
  call void @_ZSt8_DestroyIPfEvT_S1_(ptr noundef %7, ptr noundef %8), !dbg !1910
  ret void, !dbg !1911
}

; Function Attrs: mustprogress noinline optnone uwtable
define linkonce_odr dso_local void @_ZSt8_DestroyIPfEvT_S1_(ptr noundef %0, ptr noundef %1) #4 comdat !dbg !1912 {
  %3 = alloca ptr, align 8
  %4 = alloca ptr, align 8
  store ptr %0, ptr %3, align 8
  call void @llvm.dbg.declare(metadata ptr %3, metadata !1916, metadata !DIExpression()), !dbg !1917
  store ptr %1, ptr %4, align 8
  call void @llvm.dbg.declare(metadata ptr %4, metadata !1918, metadata !DIExpression()), !dbg !1919
  %5 = load ptr, ptr %3, align 8, !dbg !1920
  %6 = load ptr, ptr %4, align 8, !dbg !1921
  call void @_ZNSt12_Destroy_auxILb1EE9__destroyIPfEEvT_S3_(ptr noundef %5, ptr noundef %6), !dbg !1922
  ret void, !dbg !1923
}

; Function Attrs: mustprogress noinline nounwind optnone uwtable
define linkonce_odr dso_local void @_ZNSt12_Destroy_auxILb1EE9__destroyIPfEEvT_S3_(ptr noundef %0, ptr noundef %1) #6 comdat align 2 !dbg !1924 {
  %3 = alloca ptr, align 8
  %4 = alloca ptr, align 8
  store ptr %0, ptr %3, align 8
  call void @llvm.dbg.declare(metadata ptr %3, metadata !1928, metadata !DIExpression()), !dbg !1929
  store ptr %1, ptr %4, align 8
  call void @llvm.dbg.declare(metadata ptr %4, metadata !1930, metadata !DIExpression()), !dbg !1931
  ret void, !dbg !1932
}

; Function Attrs: noinline uwtable
define internal void @_GLOBAL__sub_I_BodyPose.cpp() #0 section ".text.startup" !dbg !1933 {
  call void @__cxx_global_var_init(), !dbg !1935
  ret void
}

attributes #0 = { noinline uwtable "frame-pointer"="all" "min-legal-vector-width"="0" "no-trapping-math"="true" "stack-protector-buffer-size"="8" "target-cpu"="x86-64" "target-features"="+cx8,+fxsr,+mmx,+sse,+sse2,+x87" "tune-cpu"="generic" }
attributes #1 = { "frame-pointer"="all" "no-trapping-math"="true" "stack-protector-buffer-size"="8" "target-cpu"="x86-64" "target-features"="+cx8,+fxsr,+mmx,+sse,+sse2,+x87" "tune-cpu"="generic" }
attributes #2 = { nounwind "frame-pointer"="all" "no-trapping-math"="true" "stack-protector-buffer-size"="8" "target-cpu"="x86-64" "target-features"="+cx8,+fxsr,+mmx,+sse,+sse2,+x87" "tune-cpu"="generic" }
attributes #3 = { nounwind }
attributes #4 = { mustprogress noinline optnone uwtable "frame-pointer"="all" "min-legal-vector-width"="0" "no-trapping-math"="true" "stack-protector-buffer-size"="8" "target-cpu"="x86-64" "target-features"="+cx8,+fxsr,+mmx,+sse,+sse2,+x87" "tune-cpu"="generic" }
attributes #5 = { nocallback nofree nosync nounwind speculatable willreturn memory(none) }
attributes #6 = { mustprogress noinline nounwind optnone uwtable "frame-pointer"="all" "min-legal-vector-width"="0" "no-trapping-math"="true" "stack-protector-buffer-size"="8" "target-cpu"="x86-64" "target-features"="+cx8,+fxsr,+mmx,+sse,+sse2,+x87" "tune-cpu"="generic" }
attributes #7 = { noinline noreturn nounwind "frame-pointer"="all" "no-trapping-math"="true" "stack-protector-buffer-size"="8" "target-cpu"="x86-64" "target-features"="+cx8,+fxsr,+mmx,+sse,+sse2,+x87" "tune-cpu"="generic" }
attributes #8 = { noreturn "frame-pointer"="all" "no-trapping-math"="true" "stack-protector-buffer-size"="8" "target-cpu"="x86-64" "target-features"="+cx8,+fxsr,+mmx,+sse,+sse2,+x87" "tune-cpu"="generic" }
attributes #9 = { nobuiltin allocsize(0) "frame-pointer"="all" "no-trapping-math"="true" "stack-protector-buffer-size"="8" "target-cpu"="x86-64" "target-features"="+cx8,+fxsr,+mmx,+sse,+sse2,+x87" "tune-cpu"="generic" }
attributes #10 = { nobuiltin nounwind "frame-pointer"="all" "no-trapping-math"="true" "stack-protector-buffer-size"="8" "target-cpu"="x86-64" "target-features"="+cx8,+fxsr,+mmx,+sse,+sse2,+x87" "tune-cpu"="generic" }
attributes #11 = { nocallback nofree nounwind willreturn memory(argmem: readwrite) }
attributes #12 = { noreturn }
attributes #13 = { noreturn nounwind }
attributes #14 = { allocsize(0) }

!llvm.dbg.cu = !{!26}
!llvm.module.flags = !{!961, !962, !963, !964, !965, !966, !967}
!llvm.ident = !{!968}

!0 = !DIGlobalVariableExpression(var: !1, expr: !DIExpression())
!1 = distinct !DIGlobalVariable(name: "__ioinit", linkageName: "_ZStL8__ioinit", scope: !2, file: !3, line: 74, type: !4, isLocal: true, isDefinition: true)
!2 = !DINamespace(name: "std", scope: null)
!3 = !DIFile(filename: "/usr/lib/gcc/x86_64-linux-gnu/11/../../../../include/c++/11/iostream", directory: "")
!4 = !DICompositeType(tag: DW_TAG_class_type, name: "Init", scope: !6, file: !5, line: 626, size: 8, flags: DIFlagFwdDecl | DIFlagNonTrivial, identifier: "_ZTSNSt8ios_base4InitE")
!5 = !DIFile(filename: "/usr/lib/gcc/x86_64-linux-gnu/11/../../../../include/c++/11/bits/ios_base.h", directory: "")
!6 = !DICompositeType(tag: DW_TAG_class_type, name: "ios_base", scope: !2, file: !5, line: 228, size: 1728, flags: DIFlagFwdDecl | DIFlagNonTrivial)
!7 = !DIGlobalVariableExpression(var: !8, expr: !DIExpression())
!8 = distinct !DIGlobalVariable(scope: null, file: !9, line: 57, type: !10, isLocal: true, isDefinition: true)
!9 = !DIFile(filename: "../TrackingBenchmark/BodyPose.cpp", directory: "/home/raj/SVF_PAPER_BENCHMARKS/parsec-3.0/pkgs/apps/bodytrack/src/build", checksumkind: CSK_MD5, checksum: "b069f146885989bf5167d1d158c7fa05")
!10 = !DICompositeType(tag: DW_TAG_array_type, baseType: !11, size: 288, elements: !13)
!11 = !DIDerivedType(tag: DW_TAG_const_type, baseType: !12)
!12 = !DIBasicType(name: "char", size: 8, encoding: DW_ATE_signed_char)
!13 = !{!14}
!14 = !DISubrange(count: 36)
!15 = !DIGlobalVariableExpression(var: !16, expr: !DIExpression())
!16 = distinct !DIGlobalVariable(scope: null, file: !9, line: 74, type: !17, isLocal: true, isDefinition: true)
!17 = !DICompositeType(tag: DW_TAG_array_type, baseType: !11, size: 304, elements: !18)
!18 = !{!19}
!19 = !DISubrange(count: 38)
!20 = !DIGlobalVariableExpression(var: !21, expr: !DIExpression())
!21 = distinct !DIGlobalVariable(scope: null, file: !22, line: 634, type: !23, isLocal: true, isDefinition: true)
!22 = !DIFile(filename: "/usr/lib/gcc/x86_64-linux-gnu/11/../../../../include/c++/11/bits/vector.tcc", directory: "", checksumkind: CSK_MD5, checksum: "e9a66096952709a84b1e05178c12ec5a")
!23 = !DICompositeType(tag: DW_TAG_array_type, baseType: !11, size: 208, elements: !24)
!24 = !{!25}
!25 = !DISubrange(count: 26)
!26 = distinct !DICompileUnit(language: DW_LANG_C_plus_plus_11, file: !9, producer: "clang version 16.0.0", isOptimized: false, runtimeVersion: 0, emissionKind: FullDebug, retainedTypes: !27, globals: !126, imports: !127, splitDebugInlining: false, nameTableKind: None)
!27 = !{!28, !30, !33, !34, !36, !38}
!28 = !DIDerivedType(tag: DW_TAG_typedef, name: "size_type", file: !29, line: 424, baseType: !30, flags: DIFlagPublic)
!29 = !DIFile(filename: "/usr/lib/gcc/x86_64-linux-gnu/11/../../../../include/c++/11/bits/stl_vector.h", directory: "", checksumkind: CSK_MD5, checksum: "abcaf00227294b9790605822a1c03477")
!30 = !DIDerivedType(tag: DW_TAG_typedef, name: "size_t", scope: !2, file: !31, line: 280, baseType: !32)
!31 = !DIFile(filename: "/usr/lib/gcc/x86_64-linux-gnu/11/../../../../include/x86_64-linux-gnu/c++/11/bits/c++config.h", directory: "", checksumkind: CSK_MD5, checksum: "b09addf8bea7ac9bf251a76b15f26064")
!32 = !DIBasicType(name: "unsigned long", size: 64, encoding: DW_ATE_unsigned)
!33 = !DIDerivedType(tag: DW_TAG_pointer_type, baseType: null, size: 64)
!34 = !DIDerivedType(tag: DW_TAG_pointer_type, baseType: !35, size: 64)
!35 = !DIDerivedType(tag: DW_TAG_const_type, baseType: null)
!36 = !DIDerivedType(tag: DW_TAG_pointer_type, baseType: !37, size: 64)
!37 = !DIBasicType(name: "float", size: 32, encoding: DW_ATE_float)
!38 = !DIDerivedType(tag: DW_TAG_typedef, name: "__do_it", scope: !39, file: !29, line: 468, baseType: !111)
!39 = distinct !DISubprogram(name: "_S_relocate", linkageName: "_ZNSt6vectorIfSaIfEE11_S_relocateEPfS2_S2_RS0_", scope: !40, file: !29, line: 465, type: !41, scopeLine: 467, flags: DIFlagPrototyped, spFlags: DISPFlagDefinition, unit: !26, declaration: !110, retainedNodes: !106)
!40 = !DICompositeType(tag: DW_TAG_class_type, name: "vector<float, std::allocator<float> >", scope: !2, file: !29, line: 389, size: 192, flags: DIFlagFwdDecl | DIFlagNonTrivial, identifier: "_ZTSSt6vectorIfSaIfEE")
!41 = !DISubroutineType(types: !42)
!42 = !{!43, !43, !43, !43, !101}
!43 = !DIDerivedType(tag: DW_TAG_typedef, name: "pointer", scope: !40, file: !29, line: 415, baseType: !44, flags: DIFlagPublic)
!44 = !DIDerivedType(tag: DW_TAG_typedef, name: "pointer", scope: !45, file: !29, line: 89, baseType: !46)
!45 = !DICompositeType(tag: DW_TAG_structure_type, name: "_Vector_base<float, std::allocator<float> >", scope: !2, file: !29, line: 84, size: 192, flags: DIFlagFwdDecl | DIFlagNonTrivial, identifier: "_ZTSSt12_Vector_baseIfSaIfEE")
!46 = !DIDerivedType(tag: DW_TAG_typedef, name: "pointer", scope: !48, file: !47, line: 57, baseType: !58)
!47 = !DIFile(filename: "/usr/lib/gcc/x86_64-linux-gnu/11/../../../../include/c++/11/ext/alloc_traits.h", directory: "")
!48 = distinct !DICompositeType(tag: DW_TAG_structure_type, name: "__alloc_traits<std::allocator<float>, float>", scope: !49, file: !47, line: 48, size: 8, flags: DIFlagTypePassByValue, elements: !50, templateParams: !99, identifier: "_ZTSN9__gnu_cxx14__alloc_traitsISaIfEfEE")
!49 = !DINamespace(name: "__gnu_cxx", scope: null)
!50 = !{!51, !82, !87, !91, !95, !96, !97, !98}
!51 = !DIDerivedType(tag: DW_TAG_inheritance, scope: !48, baseType: !52, extraData: i32 0)
!52 = distinct !DICompositeType(tag: DW_TAG_structure_type, name: "allocator_traits<std::allocator<float> >", scope: !2, file: !53, line: 411, size: 8, flags: DIFlagTypePassByValue, elements: !54, templateParams: !80, identifier: "_ZTSSt16allocator_traitsISaIfEE")
!53 = !DIFile(filename: "/usr/lib/gcc/x86_64-linux-gnu/11/../../../../include/c++/11/bits/alloc_traits.h", directory: "", checksumkind: CSK_MD5, checksum: "937e9d7f00d3ed7cff7ec8fafeb8a8bc")
!54 = !{!55, !64, !68, !71, !77}
!55 = !DISubprogram(name: "allocate", linkageName: "_ZNSt16allocator_traitsISaIfEE8allocateERS0_m", scope: !52, file: !53, line: 463, type: !56, scopeLine: 463, flags: DIFlagPrototyped | DIFlagStaticMember, spFlags: 0)
!56 = !DISubroutineType(types: !57)
!57 = !{!58, !59, !63}
!58 = !DIDerivedType(tag: DW_TAG_typedef, name: "pointer", scope: !52, file: !53, line: 420, baseType: !36)
!59 = !DIDerivedType(tag: DW_TAG_reference_type, baseType: !60, size: 64)
!60 = !DIDerivedType(tag: DW_TAG_typedef, name: "allocator_type", scope: !52, file: !53, line: 414, baseType: !61)
!61 = !DICompositeType(tag: DW_TAG_class_type, name: "allocator<float>", scope: !2, file: !62, line: 124, size: 8, flags: DIFlagFwdDecl | DIFlagNonTrivial, identifier: "_ZTSSaIfE")
!62 = !DIFile(filename: "/usr/lib/gcc/x86_64-linux-gnu/11/../../../../include/c++/11/bits/allocator.h", directory: "", checksumkind: CSK_MD5, checksum: "52abf05a7426983321ecef80fe4251be")
!63 = !DIDerivedType(tag: DW_TAG_typedef, name: "size_type", file: !53, line: 435, baseType: !30)
!64 = !DISubprogram(name: "allocate", linkageName: "_ZNSt16allocator_traitsISaIfEE8allocateERS0_mPKv", scope: !52, file: !53, line: 477, type: !65, scopeLine: 477, flags: DIFlagPrototyped | DIFlagStaticMember, spFlags: 0)
!65 = !DISubroutineType(types: !66)
!66 = !{!58, !59, !63, !67}
!67 = !DIDerivedType(tag: DW_TAG_typedef, name: "const_void_pointer", file: !53, line: 429, baseType: !34)
!68 = !DISubprogram(name: "deallocate", linkageName: "_ZNSt16allocator_traitsISaIfEE10deallocateERS0_Pfm", scope: !52, file: !53, line: 495, type: !69, scopeLine: 495, flags: DIFlagPrototyped | DIFlagStaticMember, spFlags: 0)
!69 = !DISubroutineType(types: !70)
!70 = !{null, !59, !58, !63}
!71 = !DISubprogram(name: "max_size", linkageName: "_ZNSt16allocator_traitsISaIfEE8max_sizeERKS0_", scope: !52, file: !53, line: 547, type: !72, scopeLine: 547, flags: DIFlagPrototyped | DIFlagStaticMember, spFlags: 0)
!72 = !DISubroutineType(types: !73)
!73 = !{!74, !75}
!74 = !DIDerivedType(tag: DW_TAG_typedef, name: "size_type", scope: !52, file: !53, line: 435, baseType: !30)
!75 = !DIDerivedType(tag: DW_TAG_reference_type, baseType: !76, size: 64)
!76 = !DIDerivedType(tag: DW_TAG_const_type, baseType: !60)
!77 = !DISubprogram(name: "select_on_container_copy_construction", linkageName: "_ZNSt16allocator_traitsISaIfEE37select_on_container_copy_constructionERKS0_", scope: !52, file: !53, line: 562, type: !78, scopeLine: 562, flags: DIFlagPrototyped | DIFlagStaticMember, spFlags: 0)
!78 = !DISubroutineType(types: !79)
!79 = !{!60, !75}
!80 = !{!81}
!81 = !DITemplateTypeParameter(name: "_Alloc", type: !61)
!82 = !DISubprogram(name: "_S_select_on_copy", linkageName: "_ZN9__gnu_cxx14__alloc_traitsISaIfEfE17_S_select_on_copyERKS1_", scope: !48, file: !47, line: 97, type: !83, scopeLine: 97, flags: DIFlagPrototyped | DIFlagStaticMember, spFlags: 0)
!83 = !DISubroutineType(types: !84)
!84 = !{!61, !85}
!85 = !DIDerivedType(tag: DW_TAG_reference_type, baseType: !86, size: 64)
!86 = !DIDerivedType(tag: DW_TAG_const_type, baseType: !61)
!87 = !DISubprogram(name: "_S_on_swap", linkageName: "_ZN9__gnu_cxx14__alloc_traitsISaIfEfE10_S_on_swapERS1_S3_", scope: !48, file: !47, line: 100, type: !88, scopeLine: 100, flags: DIFlagPrototyped | DIFlagStaticMember, spFlags: 0)
!88 = !DISubroutineType(types: !89)
!89 = !{null, !90, !90}
!90 = !DIDerivedType(tag: DW_TAG_reference_type, baseType: !61, size: 64)
!91 = !DISubprogram(name: "_S_propagate_on_copy_assign", linkageName: "_ZN9__gnu_cxx14__alloc_traitsISaIfEfE27_S_propagate_on_copy_assignEv", scope: !48, file: !47, line: 103, type: !92, scopeLine: 103, flags: DIFlagPrototyped | DIFlagStaticMember, spFlags: 0)
!92 = !DISubroutineType(types: !93)
!93 = !{!94}
!94 = !DIBasicType(name: "bool", size: 8, encoding: DW_ATE_boolean)
!95 = !DISubprogram(name: "_S_propagate_on_move_assign", linkageName: "_ZN9__gnu_cxx14__alloc_traitsISaIfEfE27_S_propagate_on_move_assignEv", scope: !48, file: !47, line: 106, type: !92, scopeLine: 106, flags: DIFlagPrototyped | DIFlagStaticMember, spFlags: 0)
!96 = !DISubprogram(name: "_S_propagate_on_swap", linkageName: "_ZN9__gnu_cxx14__alloc_traitsISaIfEfE20_S_propagate_on_swapEv", scope: !48, file: !47, line: 109, type: !92, scopeLine: 109, flags: DIFlagPrototyped | DIFlagStaticMember, spFlags: 0)
!97 = !DISubprogram(name: "_S_always_equal", linkageName: "_ZN9__gnu_cxx14__alloc_traitsISaIfEfE15_S_always_equalEv", scope: !48, file: !47, line: 112, type: !92, scopeLine: 112, flags: DIFlagPrototyped | DIFlagStaticMember, spFlags: 0)
!98 = !DISubprogram(name: "_S_nothrow_move", linkageName: "_ZN9__gnu_cxx14__alloc_traitsISaIfEfE15_S_nothrow_moveEv", scope: !48, file: !47, line: 115, type: !92, scopeLine: 115, flags: DIFlagPrototyped | DIFlagStaticMember, spFlags: 0)
!99 = !{!81, !100}
!100 = !DITemplateTypeParameter(type: !37)
!101 = !DIDerivedType(tag: DW_TAG_reference_type, baseType: !102, size: 64)
!102 = !DIDerivedType(tag: DW_TAG_typedef, name: "_Tp_alloc_type", scope: !40, file: !29, line: 410, baseType: !103)
!103 = !DIDerivedType(tag: DW_TAG_typedef, name: "_Tp_alloc_type", scope: !45, file: !29, line: 87, baseType: !104)
!104 = !DIDerivedType(tag: DW_TAG_typedef, name: "other", scope: !105, file: !47, line: 120, baseType: !109)
!105 = distinct !DICompositeType(tag: DW_TAG_structure_type, name: "rebind<float>", scope: !48, file: !47, line: 119, size: 8, flags: DIFlagTypePassByValue, elements: !106, templateParams: !107, identifier: "_ZTSN9__gnu_cxx14__alloc_traitsISaIfEfE6rebindIfEE")
!106 = !{}
!107 = !{!108}
!108 = !DITemplateTypeParameter(name: "_Tp", type: !37)
!109 = !DIDerivedType(tag: DW_TAG_typedef, name: "rebind_alloc<float>", scope: !52, file: !53, line: 450, baseType: !61)
!110 = !DISubprogram(name: "_S_relocate", linkageName: "_ZNSt6vectorIfSaIfEE11_S_relocateEPfS2_S2_RS0_", scope: !40, file: !29, line: 465, type: !41, scopeLine: 465, flags: DIFlagPrototyped | DIFlagStaticMember, spFlags: 0)
!111 = !DIDerivedType(tag: DW_TAG_typedef, name: "__bool_constant<_S_use_relocate()>", scope: !2, file: !112, line: 91, baseType: !113)
!112 = !DIFile(filename: "/usr/lib/gcc/x86_64-linux-gnu/11/../../../../include/c++/11/type_traits", directory: "")
!113 = distinct !DICompositeType(tag: DW_TAG_structure_type, name: "integral_constant<bool, true>", scope: !2, file: !112, line: 65, size: 8, flags: DIFlagTypePassByValue, elements: !114, templateParams: !123, identifier: "_ZTSSt17integral_constantIbLb1EE")
!114 = !{!115, !117}
!115 = !DIDerivedType(tag: DW_TAG_member, name: "value", scope: !113, file: !112, line: 67, baseType: !116, flags: DIFlagStaticMember, extraData: i1 true)
!116 = !DIDerivedType(tag: DW_TAG_const_type, baseType: !94)
!117 = !DISubprogram(name: "operator bool", linkageName: "_ZNKSt17integral_constantIbLb1EEcvbEv", scope: !113, file: !112, line: 70, type: !118, scopeLine: 70, flags: DIFlagPrototyped, spFlags: 0)
!118 = !DISubroutineType(types: !119)
!119 = !{!120, !121}
!120 = !DIDerivedType(tag: DW_TAG_typedef, name: "value_type", scope: !113, file: !112, line: 68, baseType: !94)
!121 = !DIDerivedType(tag: DW_TAG_pointer_type, baseType: !122, size: 64, flags: DIFlagArtificial | DIFlagObjectPointer)
!122 = !DIDerivedType(tag: DW_TAG_const_type, baseType: !113)
!123 = !{!124, !125}
!124 = !DITemplateTypeParameter(name: "_Tp", type: !94)
!125 = !DITemplateValueParameter(name: "__v", type: !94, value: i8 1)
!126 = !{!0, !7, !15, !20}
!127 = !{!128, !147, !150, !155, !163, !171, !175, !182, !186, !190, !192, !194, !198, !208, !212, !218, !224, !226, !230, !234, !238, !242, !254, !256, !260, !264, !268, !270, !276, !280, !284, !286, !288, !292, !300, !304, !308, !312, !314, !320, !322, !329, !333, !337, !342, !346, !350, !354, !356, !358, !362, !366, !370, !372, !376, !380, !382, !384, !388, !393, !398, !403, !404, !405, !406, !407, !408, !409, !410, !411, !412, !413, !417, !421, !425, !432, !436, !439, !442, !445, !447, !449, !451, !454, !457, !460, !463, !466, !468, !473, !477, !480, !483, !485, !487, !489, !491, !494, !497, !500, !503, !506, !508, !512, !516, !521, !527, !529, !531, !533, !535, !537, !539, !541, !543, !545, !547, !549, !551, !553, !557, !561, !567, !571, !576, !578, !582, !586, !590, !598, !602, !606, !610, !614, !618, !622, !626, !630, !634, !638, !642, !646, !648, !652, !656, !660, !666, !670, !674, !676, !680, !684, !690, !692, !696, !700, !704, !708, !712, !716, !720, !721, !722, !723, !725, !726, !727, !728, !729, !730, !731, !735, !741, !746, !750, !752, !754, !756, !758, !765, !769, !773, !777, !781, !785, !790, !794, !796, !800, !806, !810, !815, !817, !819, !823, !827, !831, !833, !835, !837, !839, !843, !845, !847, !851, !855, !859, !863, !867, !869, !871, !875, !879, !883, !887, !889, !891, !895, !899, !900, !901, !902, !903, !904, !910, !913, !914, !916, !918, !920, !922, !926, !928, !930, !932, !934, !936, !938, !940, !942, !946, !950, !952, !956, !960}
!128 = !DIImportedEntity(tag: DW_TAG_imported_declaration, scope: !2, entity: !129, file: !146, line: 64)
!129 = !DIDerivedType(tag: DW_TAG_typedef, name: "mbstate_t", file: !130, line: 6, baseType: !131)
!130 = !DIFile(filename: "/usr/include/x86_64-linux-gnu/bits/types/mbstate_t.h", directory: "", checksumkind: CSK_MD5, checksum: "ba8742313715e20e434cf6ccb2db98e3")
!131 = !DIDerivedType(tag: DW_TAG_typedef, name: "__mbstate_t", file: !132, line: 21, baseType: !133)
!132 = !DIFile(filename: "/usr/include/x86_64-linux-gnu/bits/types/__mbstate_t.h", directory: "", checksumkind: CSK_MD5, checksum: "82911a3e689448e3691ded3e0b471a55")
!133 = distinct !DICompositeType(tag: DW_TAG_structure_type, file: !132, line: 13, size: 64, flags: DIFlagTypePassByValue, elements: !134, identifier: "_ZTS11__mbstate_t")
!134 = !{!135, !137}
!135 = !DIDerivedType(tag: DW_TAG_member, name: "__count", scope: !133, file: !132, line: 15, baseType: !136, size: 32)
!136 = !DIBasicType(name: "int", size: 32, encoding: DW_ATE_signed)
!137 = !DIDerivedType(tag: DW_TAG_member, name: "__value", scope: !133, file: !132, line: 20, baseType: !138, size: 32, offset: 32)
!138 = distinct !DICompositeType(tag: DW_TAG_union_type, scope: !133, file: !132, line: 16, size: 32, flags: DIFlagTypePassByValue, elements: !139, identifier: "_ZTSN11__mbstate_tUt_E")
!139 = !{!140, !142}
!140 = !DIDerivedType(tag: DW_TAG_member, name: "__wch", scope: !138, file: !132, line: 18, baseType: !141, size: 32)
!141 = !DIBasicType(name: "unsigned int", size: 32, encoding: DW_ATE_unsigned)
!142 = !DIDerivedType(tag: DW_TAG_member, name: "__wchb", scope: !138, file: !132, line: 19, baseType: !143, size: 32)
!143 = !DICompositeType(tag: DW_TAG_array_type, baseType: !12, size: 32, elements: !144)
!144 = !{!145}
!145 = !DISubrange(count: 4)
!146 = !DIFile(filename: "/usr/lib/gcc/x86_64-linux-gnu/11/../../../../include/c++/11/cwchar", directory: "")
!147 = !DIImportedEntity(tag: DW_TAG_imported_declaration, scope: !2, entity: !148, file: !146, line: 141)
!148 = !DIDerivedType(tag: DW_TAG_typedef, name: "wint_t", file: !149, line: 20, baseType: !141)
!149 = !DIFile(filename: "/usr/include/x86_64-linux-gnu/bits/types/wint_t.h", directory: "", checksumkind: CSK_MD5, checksum: "aa31b53ef28dc23152ceb41e2763ded3")
!150 = !DIImportedEntity(tag: DW_TAG_imported_declaration, scope: !2, entity: !151, file: !146, line: 143)
!151 = !DISubprogram(name: "btowc", scope: !152, file: !152, line: 285, type: !153, flags: DIFlagPrototyped, spFlags: 0)
!152 = !DIFile(filename: "/usr/include/wchar.h", directory: "", checksumkind: CSK_MD5, checksum: "484b7adbbc849bb51cdbcb2d985b07a0")
!153 = !DISubroutineType(types: !154)
!154 = !{!148, !136}
!155 = !DIImportedEntity(tag: DW_TAG_imported_declaration, scope: !2, entity: !156, file: !146, line: 144)
!156 = !DISubprogram(name: "fgetwc", scope: !152, file: !152, line: 744, type: !157, flags: DIFlagPrototyped, spFlags: 0)
!157 = !DISubroutineType(types: !158)
!158 = !{!148, !159}
!159 = !DIDerivedType(tag: DW_TAG_pointer_type, baseType: !160, size: 64)
!160 = !DIDerivedType(tag: DW_TAG_typedef, name: "__FILE", file: !161, line: 5, baseType: !162)
!161 = !DIFile(filename: "/usr/include/x86_64-linux-gnu/bits/types/__FILE.h", directory: "", checksumkind: CSK_MD5, checksum: "72a8fe90981f484acae7c6f3dfc5c2b7")
!162 = !DICompositeType(tag: DW_TAG_structure_type, name: "_IO_FILE", file: !161, line: 4, flags: DIFlagFwdDecl | DIFlagNonTrivial, identifier: "_ZTS8_IO_FILE")
!163 = !DIImportedEntity(tag: DW_TAG_imported_declaration, scope: !2, entity: !164, file: !146, line: 145)
!164 = !DISubprogram(name: "fgetws", scope: !152, file: !152, line: 773, type: !165, flags: DIFlagPrototyped, spFlags: 0)
!165 = !DISubroutineType(types: !166)
!166 = !{!167, !169, !136, !170}
!167 = !DIDerivedType(tag: DW_TAG_pointer_type, baseType: !168, size: 64)
!168 = !DIBasicType(name: "wchar_t", size: 32, encoding: DW_ATE_signed)
!169 = !DIDerivedType(tag: DW_TAG_restrict_type, baseType: !167)
!170 = !DIDerivedType(tag: DW_TAG_restrict_type, baseType: !159)
!171 = !DIImportedEntity(tag: DW_TAG_imported_declaration, scope: !2, entity: !172, file: !146, line: 146)
!172 = !DISubprogram(name: "fputwc", scope: !152, file: !152, line: 758, type: !173, flags: DIFlagPrototyped, spFlags: 0)
!173 = !DISubroutineType(types: !174)
!174 = !{!148, !168, !159}
!175 = !DIImportedEntity(tag: DW_TAG_imported_declaration, scope: !2, entity: !176, file: !146, line: 147)
!176 = !DISubprogram(name: "fputws", scope: !152, file: !152, line: 780, type: !177, flags: DIFlagPrototyped, spFlags: 0)
!177 = !DISubroutineType(types: !178)
!178 = !{!136, !179, !170}
!179 = !DIDerivedType(tag: DW_TAG_restrict_type, baseType: !180)
!180 = !DIDerivedType(tag: DW_TAG_pointer_type, baseType: !181, size: 64)
!181 = !DIDerivedType(tag: DW_TAG_const_type, baseType: !168)
!182 = !DIImportedEntity(tag: DW_TAG_imported_declaration, scope: !2, entity: !183, file: !146, line: 148)
!183 = !DISubprogram(name: "fwide", scope: !152, file: !152, line: 588, type: !184, flags: DIFlagPrototyped, spFlags: 0)
!184 = !DISubroutineType(types: !185)
!185 = !{!136, !159, !136}
!186 = !DIImportedEntity(tag: DW_TAG_imported_declaration, scope: !2, entity: !187, file: !146, line: 149)
!187 = !DISubprogram(name: "fwprintf", scope: !152, file: !152, line: 595, type: !188, flags: DIFlagPrototyped, spFlags: 0)
!188 = !DISubroutineType(types: !189)
!189 = !{!136, !170, !179, null}
!190 = !DIImportedEntity(tag: DW_TAG_imported_declaration, scope: !2, entity: !191, file: !146, line: 150)
!191 = !DISubprogram(name: "fwscanf", linkageName: "__isoc99_fwscanf", scope: !152, file: !152, line: 657, type: !188, flags: DIFlagPrototyped, spFlags: 0)
!192 = !DIImportedEntity(tag: DW_TAG_imported_declaration, scope: !2, entity: !193, file: !146, line: 151)
!193 = !DISubprogram(name: "getwc", scope: !152, file: !152, line: 745, type: !157, flags: DIFlagPrototyped, spFlags: 0)
!194 = !DIImportedEntity(tag: DW_TAG_imported_declaration, scope: !2, entity: !195, file: !146, line: 152)
!195 = !DISubprogram(name: "getwchar", scope: !152, file: !152, line: 751, type: !196, flags: DIFlagPrototyped, spFlags: 0)
!196 = !DISubroutineType(types: !197)
!197 = !{!148}
!198 = !DIImportedEntity(tag: DW_TAG_imported_declaration, scope: !2, entity: !199, file: !146, line: 153)
!199 = !DISubprogram(name: "mbrlen", scope: !152, file: !152, line: 308, type: !200, flags: DIFlagPrototyped, spFlags: 0)
!200 = !DISubroutineType(types: !201)
!201 = !{!202, !204, !202, !206}
!202 = !DIDerivedType(tag: DW_TAG_typedef, name: "size_t", file: !203, line: 46, baseType: !32)
!203 = !DIFile(filename: "SVF/llvm-16.0.0.obj/lib/clang/16/include/stddef.h", directory: "/home/raj", checksumkind: CSK_MD5, checksum: "f95079da609b0e8f201cb8136304bf3b")
!204 = !DIDerivedType(tag: DW_TAG_restrict_type, baseType: !205)
!205 = !DIDerivedType(tag: DW_TAG_pointer_type, baseType: !11, size: 64)
!206 = !DIDerivedType(tag: DW_TAG_restrict_type, baseType: !207)
!207 = !DIDerivedType(tag: DW_TAG_pointer_type, baseType: !129, size: 64)
!208 = !DIImportedEntity(tag: DW_TAG_imported_declaration, scope: !2, entity: !209, file: !146, line: 154)
!209 = !DISubprogram(name: "mbrtowc", scope: !152, file: !152, line: 297, type: !210, flags: DIFlagPrototyped, spFlags: 0)
!210 = !DISubroutineType(types: !211)
!211 = !{!202, !169, !204, !202, !206}
!212 = !DIImportedEntity(tag: DW_TAG_imported_declaration, scope: !2, entity: !213, file: !146, line: 155)
!213 = !DISubprogram(name: "mbsinit", scope: !152, file: !152, line: 293, type: !214, flags: DIFlagPrototyped, spFlags: 0)
!214 = !DISubroutineType(types: !215)
!215 = !{!136, !216}
!216 = !DIDerivedType(tag: DW_TAG_pointer_type, baseType: !217, size: 64)
!217 = !DIDerivedType(tag: DW_TAG_const_type, baseType: !129)
!218 = !DIImportedEntity(tag: DW_TAG_imported_declaration, scope: !2, entity: !219, file: !146, line: 156)
!219 = !DISubprogram(name: "mbsrtowcs", scope: !152, file: !152, line: 338, type: !220, flags: DIFlagPrototyped, spFlags: 0)
!220 = !DISubroutineType(types: !221)
!221 = !{!202, !169, !222, !202, !206}
!222 = !DIDerivedType(tag: DW_TAG_restrict_type, baseType: !223)
!223 = !DIDerivedType(tag: DW_TAG_pointer_type, baseType: !205, size: 64)
!224 = !DIImportedEntity(tag: DW_TAG_imported_declaration, scope: !2, entity: !225, file: !146, line: 157)
!225 = !DISubprogram(name: "putwc", scope: !152, file: !152, line: 759, type: !173, flags: DIFlagPrototyped, spFlags: 0)
!226 = !DIImportedEntity(tag: DW_TAG_imported_declaration, scope: !2, entity: !227, file: !146, line: 158)
!227 = !DISubprogram(name: "putwchar", scope: !152, file: !152, line: 765, type: !228, flags: DIFlagPrototyped, spFlags: 0)
!228 = !DISubroutineType(types: !229)
!229 = !{!148, !168}
!230 = !DIImportedEntity(tag: DW_TAG_imported_declaration, scope: !2, entity: !231, file: !146, line: 160)
!231 = !DISubprogram(name: "swprintf", scope: !152, file: !152, line: 605, type: !232, flags: DIFlagPrototyped, spFlags: 0)
!232 = !DISubroutineType(types: !233)
!233 = !{!136, !169, !202, !179, null}
!234 = !DIImportedEntity(tag: DW_TAG_imported_declaration, scope: !2, entity: !235, file: !146, line: 162)
!235 = !DISubprogram(name: "swscanf", linkageName: "__isoc99_swscanf", scope: !152, file: !152, line: 664, type: !236, flags: DIFlagPrototyped, spFlags: 0)
!236 = !DISubroutineType(types: !237)
!237 = !{!136, !179, !179, null}
!238 = !DIImportedEntity(tag: DW_TAG_imported_declaration, scope: !2, entity: !239, file: !146, line: 163)
!239 = !DISubprogram(name: "ungetwc", scope: !152, file: !152, line: 788, type: !240, flags: DIFlagPrototyped, spFlags: 0)
!240 = !DISubroutineType(types: !241)
!241 = !{!148, !148, !159}
!242 = !DIImportedEntity(tag: DW_TAG_imported_declaration, scope: !2, entity: !243, file: !146, line: 164)
!243 = !DISubprogram(name: "vfwprintf", scope: !152, file: !152, line: 613, type: !244, flags: DIFlagPrototyped, spFlags: 0)
!244 = !DISubroutineType(types: !245)
!245 = !{!136, !170, !179, !246}
!246 = !DIDerivedType(tag: DW_TAG_pointer_type, baseType: !247, size: 64)
!247 = distinct !DICompositeType(tag: DW_TAG_structure_type, name: "__va_list_tag", size: 192, flags: DIFlagTypePassByValue, elements: !248, identifier: "_ZTS13__va_list_tag")
!248 = !{!249, !251, !252, !253}
!249 = !DIDerivedType(tag: DW_TAG_member, name: "gp_offset", scope: !247, file: !250, baseType: !141, size: 32)
!250 = !DIFile(filename: "../TrackingBenchmark/BodyPose.cpp", directory: "/home/raj/SVF_PAPER_BENCHMARKS/parsec-3.0/pkgs/apps/bodytrack/src/build")
!251 = !DIDerivedType(tag: DW_TAG_member, name: "fp_offset", scope: !247, file: !250, baseType: !141, size: 32, offset: 32)
!252 = !DIDerivedType(tag: DW_TAG_member, name: "overflow_arg_area", scope: !247, file: !250, baseType: !33, size: 64, offset: 64)
!253 = !DIDerivedType(tag: DW_TAG_member, name: "reg_save_area", scope: !247, file: !250, baseType: !33, size: 64, offset: 128)
!254 = !DIImportedEntity(tag: DW_TAG_imported_declaration, scope: !2, entity: !255, file: !146, line: 166)
!255 = !DISubprogram(name: "vfwscanf", linkageName: "__isoc99_vfwscanf", scope: !152, file: !152, line: 711, type: !244, flags: DIFlagPrototyped, spFlags: 0)
!256 = !DIImportedEntity(tag: DW_TAG_imported_declaration, scope: !2, entity: !257, file: !146, line: 169)
!257 = !DISubprogram(name: "vswprintf", scope: !152, file: !152, line: 626, type: !258, flags: DIFlagPrototyped, spFlags: 0)
!258 = !DISubroutineType(types: !259)
!259 = !{!136, !169, !202, !179, !246}
!260 = !DIImportedEntity(tag: DW_TAG_imported_declaration, scope: !2, entity: !261, file: !146, line: 172)
!261 = !DISubprogram(name: "vswscanf", linkageName: "__isoc99_vswscanf", scope: !152, file: !152, line: 718, type: !262, flags: DIFlagPrototyped, spFlags: 0)
!262 = !DISubroutineType(types: !263)
!263 = !{!136, !179, !179, !246}
!264 = !DIImportedEntity(tag: DW_TAG_imported_declaration, scope: !2, entity: !265, file: !146, line: 174)
!265 = !DISubprogram(name: "vwprintf", scope: !152, file: !152, line: 621, type: !266, flags: DIFlagPrototyped, spFlags: 0)
!266 = !DISubroutineType(types: !267)
!267 = !{!136, !179, !246}
!268 = !DIImportedEntity(tag: DW_TAG_imported_declaration, scope: !2, entity: !269, file: !146, line: 176)
!269 = !DISubprogram(name: "vwscanf", linkageName: "__isoc99_vwscanf", scope: !152, file: !152, line: 715, type: !266, flags: DIFlagPrototyped, spFlags: 0)
!270 = !DIImportedEntity(tag: DW_TAG_imported_declaration, scope: !2, entity: !271, file: !146, line: 178)
!271 = !DISubprogram(name: "wcrtomb", scope: !152, file: !152, line: 302, type: !272, flags: DIFlagPrototyped, spFlags: 0)
!272 = !DISubroutineType(types: !273)
!273 = !{!202, !274, !168, !206}
!274 = !DIDerivedType(tag: DW_TAG_restrict_type, baseType: !275)
!275 = !DIDerivedType(tag: DW_TAG_pointer_type, baseType: !12, size: 64)
!276 = !DIImportedEntity(tag: DW_TAG_imported_declaration, scope: !2, entity: !277, file: !146, line: 179)
!277 = !DISubprogram(name: "wcscat", scope: !152, file: !152, line: 97, type: !278, flags: DIFlagPrototyped, spFlags: 0)
!278 = !DISubroutineType(types: !279)
!279 = !{!167, !169, !179}
!280 = !DIImportedEntity(tag: DW_TAG_imported_declaration, scope: !2, entity: !281, file: !146, line: 180)
!281 = !DISubprogram(name: "wcscmp", scope: !152, file: !152, line: 106, type: !282, flags: DIFlagPrototyped, spFlags: 0)
!282 = !DISubroutineType(types: !283)
!283 = !{!136, !180, !180}
!284 = !DIImportedEntity(tag: DW_TAG_imported_declaration, scope: !2, entity: !285, file: !146, line: 181)
!285 = !DISubprogram(name: "wcscoll", scope: !152, file: !152, line: 131, type: !282, flags: DIFlagPrototyped, spFlags: 0)
!286 = !DIImportedEntity(tag: DW_TAG_imported_declaration, scope: !2, entity: !287, file: !146, line: 182)
!287 = !DISubprogram(name: "wcscpy", scope: !152, file: !152, line: 87, type: !278, flags: DIFlagPrototyped, spFlags: 0)
!288 = !DIImportedEntity(tag: DW_TAG_imported_declaration, scope: !2, entity: !289, file: !146, line: 183)
!289 = !DISubprogram(name: "wcscspn", scope: !152, file: !152, line: 188, type: !290, flags: DIFlagPrototyped, spFlags: 0)
!290 = !DISubroutineType(types: !291)
!291 = !{!202, !180, !180}
!292 = !DIImportedEntity(tag: DW_TAG_imported_declaration, scope: !2, entity: !293, file: !146, line: 184)
!293 = !DISubprogram(name: "wcsftime", scope: !152, file: !152, line: 852, type: !294, flags: DIFlagPrototyped, spFlags: 0)
!294 = !DISubroutineType(types: !295)
!295 = !{!202, !169, !202, !179, !296}
!296 = !DIDerivedType(tag: DW_TAG_restrict_type, baseType: !297)
!297 = !DIDerivedType(tag: DW_TAG_pointer_type, baseType: !298, size: 64)
!298 = !DIDerivedType(tag: DW_TAG_const_type, baseType: !299)
!299 = !DICompositeType(tag: DW_TAG_structure_type, name: "tm", file: !152, line: 83, flags: DIFlagFwdDecl | DIFlagNonTrivial, identifier: "_ZTS2tm")
!300 = !DIImportedEntity(tag: DW_TAG_imported_declaration, scope: !2, entity: !301, file: !146, line: 185)
!301 = !DISubprogram(name: "wcslen", scope: !152, file: !152, line: 223, type: !302, flags: DIFlagPrototyped, spFlags: 0)
!302 = !DISubroutineType(types: !303)
!303 = !{!202, !180}
!304 = !DIImportedEntity(tag: DW_TAG_imported_declaration, scope: !2, entity: !305, file: !146, line: 186)
!305 = !DISubprogram(name: "wcsncat", scope: !152, file: !152, line: 101, type: !306, flags: DIFlagPrototyped, spFlags: 0)
!306 = !DISubroutineType(types: !307)
!307 = !{!167, !169, !179, !202}
!308 = !DIImportedEntity(tag: DW_TAG_imported_declaration, scope: !2, entity: !309, file: !146, line: 187)
!309 = !DISubprogram(name: "wcsncmp", scope: !152, file: !152, line: 109, type: !310, flags: DIFlagPrototyped, spFlags: 0)
!310 = !DISubroutineType(types: !311)
!311 = !{!136, !180, !180, !202}
!312 = !DIImportedEntity(tag: DW_TAG_imported_declaration, scope: !2, entity: !313, file: !146, line: 188)
!313 = !DISubprogram(name: "wcsncpy", scope: !152, file: !152, line: 92, type: !306, flags: DIFlagPrototyped, spFlags: 0)
!314 = !DIImportedEntity(tag: DW_TAG_imported_declaration, scope: !2, entity: !315, file: !146, line: 189)
!315 = !DISubprogram(name: "wcsrtombs", scope: !152, file: !152, line: 344, type: !316, flags: DIFlagPrototyped, spFlags: 0)
!316 = !DISubroutineType(types: !317)
!317 = !{!202, !274, !318, !202, !206}
!318 = !DIDerivedType(tag: DW_TAG_restrict_type, baseType: !319)
!319 = !DIDerivedType(tag: DW_TAG_pointer_type, baseType: !180, size: 64)
!320 = !DIImportedEntity(tag: DW_TAG_imported_declaration, scope: !2, entity: !321, file: !146, line: 190)
!321 = !DISubprogram(name: "wcsspn", scope: !152, file: !152, line: 192, type: !290, flags: DIFlagPrototyped, spFlags: 0)
!322 = !DIImportedEntity(tag: DW_TAG_imported_declaration, scope: !2, entity: !323, file: !146, line: 191)
!323 = !DISubprogram(name: "wcstod", scope: !152, file: !152, line: 378, type: !324, flags: DIFlagPrototyped, spFlags: 0)
!324 = !DISubroutineType(types: !325)
!325 = !{!326, !179, !327}
!326 = !DIBasicType(name: "double", size: 64, encoding: DW_ATE_float)
!327 = !DIDerivedType(tag: DW_TAG_restrict_type, baseType: !328)
!328 = !DIDerivedType(tag: DW_TAG_pointer_type, baseType: !167, size: 64)
!329 = !DIImportedEntity(tag: DW_TAG_imported_declaration, scope: !2, entity: !330, file: !146, line: 193)
!330 = !DISubprogram(name: "wcstof", scope: !152, file: !152, line: 383, type: !331, flags: DIFlagPrototyped, spFlags: 0)
!331 = !DISubroutineType(types: !332)
!332 = !{!37, !179, !327}
!333 = !DIImportedEntity(tag: DW_TAG_imported_declaration, scope: !2, entity: !334, file: !146, line: 195)
!334 = !DISubprogram(name: "wcstok", scope: !152, file: !152, line: 218, type: !335, flags: DIFlagPrototyped, spFlags: 0)
!335 = !DISubroutineType(types: !336)
!336 = !{!167, !169, !179, !327}
!337 = !DIImportedEntity(tag: DW_TAG_imported_declaration, scope: !2, entity: !338, file: !146, line: 196)
!338 = !DISubprogram(name: "wcstol", scope: !152, file: !152, line: 429, type: !339, flags: DIFlagPrototyped, spFlags: 0)
!339 = !DISubroutineType(types: !340)
!340 = !{!341, !179, !327, !136}
!341 = !DIBasicType(name: "long", size: 64, encoding: DW_ATE_signed)
!342 = !DIImportedEntity(tag: DW_TAG_imported_declaration, scope: !2, entity: !343, file: !146, line: 197)
!343 = !DISubprogram(name: "wcstoul", scope: !152, file: !152, line: 434, type: !344, flags: DIFlagPrototyped, spFlags: 0)
!344 = !DISubroutineType(types: !345)
!345 = !{!32, !179, !327, !136}
!346 = !DIImportedEntity(tag: DW_TAG_imported_declaration, scope: !2, entity: !347, file: !146, line: 198)
!347 = !DISubprogram(name: "wcsxfrm", scope: !152, file: !152, line: 135, type: !348, flags: DIFlagPrototyped, spFlags: 0)
!348 = !DISubroutineType(types: !349)
!349 = !{!202, !169, !179, !202}
!350 = !DIImportedEntity(tag: DW_TAG_imported_declaration, scope: !2, entity: !351, file: !146, line: 199)
!351 = !DISubprogram(name: "wctob", scope: !152, file: !152, line: 289, type: !352, flags: DIFlagPrototyped, spFlags: 0)
!352 = !DISubroutineType(types: !353)
!353 = !{!136, !148}
!354 = !DIImportedEntity(tag: DW_TAG_imported_declaration, scope: !2, entity: !355, file: !146, line: 200)
!355 = !DISubprogram(name: "wmemcmp", scope: !152, file: !152, line: 259, type: !310, flags: DIFlagPrototyped, spFlags: 0)
!356 = !DIImportedEntity(tag: DW_TAG_imported_declaration, scope: !2, entity: !357, file: !146, line: 201)
!357 = !DISubprogram(name: "wmemcpy", scope: !152, file: !152, line: 263, type: !306, flags: DIFlagPrototyped, spFlags: 0)
!358 = !DIImportedEntity(tag: DW_TAG_imported_declaration, scope: !2, entity: !359, file: !146, line: 202)
!359 = !DISubprogram(name: "wmemmove", scope: !152, file: !152, line: 268, type: !360, flags: DIFlagPrototyped, spFlags: 0)
!360 = !DISubroutineType(types: !361)
!361 = !{!167, !167, !180, !202}
!362 = !DIImportedEntity(tag: DW_TAG_imported_declaration, scope: !2, entity: !363, file: !146, line: 203)
!363 = !DISubprogram(name: "wmemset", scope: !152, file: !152, line: 272, type: !364, flags: DIFlagPrototyped, spFlags: 0)
!364 = !DISubroutineType(types: !365)
!365 = !{!167, !167, !168, !202}
!366 = !DIImportedEntity(tag: DW_TAG_imported_declaration, scope: !2, entity: !367, file: !146, line: 204)
!367 = !DISubprogram(name: "wprintf", scope: !152, file: !152, line: 602, type: !368, flags: DIFlagPrototyped, spFlags: 0)
!368 = !DISubroutineType(types: !369)
!369 = !{!136, !179, null}
!370 = !DIImportedEntity(tag: DW_TAG_imported_declaration, scope: !2, entity: !371, file: !146, line: 205)
!371 = !DISubprogram(name: "wscanf", linkageName: "__isoc99_wscanf", scope: !152, file: !152, line: 661, type: !368, flags: DIFlagPrototyped, spFlags: 0)
!372 = !DIImportedEntity(tag: DW_TAG_imported_declaration, scope: !2, entity: !373, file: !146, line: 206)
!373 = !DISubprogram(name: "wcschr", scope: !152, file: !152, line: 165, type: !374, flags: DIFlagPrototyped, spFlags: 0)
!374 = !DISubroutineType(types: !375)
!375 = !{!167, !180, !168}
!376 = !DIImportedEntity(tag: DW_TAG_imported_declaration, scope: !2, entity: !377, file: !146, line: 207)
!377 = !DISubprogram(name: "wcspbrk", scope: !152, file: !152, line: 202, type: !378, flags: DIFlagPrototyped, spFlags: 0)
!378 = !DISubroutineType(types: !379)
!379 = !{!167, !180, !180}
!380 = !DIImportedEntity(tag: DW_TAG_imported_declaration, scope: !2, entity: !381, file: !146, line: 208)
!381 = !DISubprogram(name: "wcsrchr", scope: !152, file: !152, line: 175, type: !374, flags: DIFlagPrototyped, spFlags: 0)
!382 = !DIImportedEntity(tag: DW_TAG_imported_declaration, scope: !2, entity: !383, file: !146, line: 209)
!383 = !DISubprogram(name: "wcsstr", scope: !152, file: !152, line: 213, type: !378, flags: DIFlagPrototyped, spFlags: 0)
!384 = !DIImportedEntity(tag: DW_TAG_imported_declaration, scope: !2, entity: !385, file: !146, line: 210)
!385 = !DISubprogram(name: "wmemchr", scope: !152, file: !152, line: 254, type: !386, flags: DIFlagPrototyped, spFlags: 0)
!386 = !DISubroutineType(types: !387)
!387 = !{!167, !180, !168, !202}
!388 = !DIImportedEntity(tag: DW_TAG_imported_declaration, scope: !49, entity: !389, file: !146, line: 251)
!389 = !DISubprogram(name: "wcstold", scope: !152, file: !152, line: 385, type: !390, flags: DIFlagPrototyped, spFlags: 0)
!390 = !DISubroutineType(types: !391)
!391 = !{!392, !179, !327}
!392 = !DIBasicType(name: "long double", size: 128, encoding: DW_ATE_float)
!393 = !DIImportedEntity(tag: DW_TAG_imported_declaration, scope: !49, entity: !394, file: !146, line: 260)
!394 = !DISubprogram(name: "wcstoll", scope: !152, file: !152, line: 442, type: !395, flags: DIFlagPrototyped, spFlags: 0)
!395 = !DISubroutineType(types: !396)
!396 = !{!397, !179, !327, !136}
!397 = !DIBasicType(name: "long long", size: 64, encoding: DW_ATE_signed)
!398 = !DIImportedEntity(tag: DW_TAG_imported_declaration, scope: !49, entity: !399, file: !146, line: 261)
!399 = !DISubprogram(name: "wcstoull", scope: !152, file: !152, line: 449, type: !400, flags: DIFlagPrototyped, spFlags: 0)
!400 = !DISubroutineType(types: !401)
!401 = !{!402, !179, !327, !136}
!402 = !DIBasicType(name: "unsigned long long", size: 64, encoding: DW_ATE_unsigned)
!403 = !DIImportedEntity(tag: DW_TAG_imported_declaration, scope: !2, entity: !389, file: !146, line: 267)
!404 = !DIImportedEntity(tag: DW_TAG_imported_declaration, scope: !2, entity: !394, file: !146, line: 268)
!405 = !DIImportedEntity(tag: DW_TAG_imported_declaration, scope: !2, entity: !399, file: !146, line: 269)
!406 = !DIImportedEntity(tag: DW_TAG_imported_declaration, scope: !2, entity: !330, file: !146, line: 283)
!407 = !DIImportedEntity(tag: DW_TAG_imported_declaration, scope: !2, entity: !255, file: !146, line: 286)
!408 = !DIImportedEntity(tag: DW_TAG_imported_declaration, scope: !2, entity: !261, file: !146, line: 289)
!409 = !DIImportedEntity(tag: DW_TAG_imported_declaration, scope: !2, entity: !269, file: !146, line: 292)
!410 = !DIImportedEntity(tag: DW_TAG_imported_declaration, scope: !2, entity: !389, file: !146, line: 296)
!411 = !DIImportedEntity(tag: DW_TAG_imported_declaration, scope: !2, entity: !394, file: !146, line: 297)
!412 = !DIImportedEntity(tag: DW_TAG_imported_declaration, scope: !2, entity: !399, file: !146, line: 298)
!413 = !DIImportedEntity(tag: DW_TAG_imported_declaration, scope: !2, entity: !414, file: !415, line: 68)
!414 = !DICompositeType(tag: DW_TAG_class_type, name: "exception_ptr", scope: !416, file: !415, line: 90, size: 64, flags: DIFlagFwdDecl | DIFlagNonTrivial, identifier: "_ZTSNSt15__exception_ptr13exception_ptrE")
!415 = !DIFile(filename: "/usr/lib/gcc/x86_64-linux-gnu/11/../../../../include/c++/11/bits/exception_ptr.h", directory: "", checksumkind: CSK_MD5, checksum: "ed433011c81450fc2dabd9aa8a29a038")
!416 = !DINamespace(name: "__exception_ptr", scope: !2)
!417 = !DIImportedEntity(tag: DW_TAG_imported_declaration, scope: !416, entity: !418, file: !415, line: 84)
!418 = !DISubprogram(name: "rethrow_exception", linkageName: "_ZSt17rethrow_exceptionNSt15__exception_ptr13exception_ptrE", scope: !2, file: !415, line: 80, type: !419, flags: DIFlagPrototyped | DIFlagNoReturn, spFlags: 0)
!419 = !DISubroutineType(types: !420)
!420 = !{null, !414}
!421 = !DIImportedEntity(tag: DW_TAG_imported_module, scope: !422, entity: !423, file: !424, line: 58)
!422 = !DINamespace(name: "__gnu_debug", scope: null)
!423 = !DINamespace(name: "__debug", scope: !2)
!424 = !DIFile(filename: "/usr/lib/gcc/x86_64-linux-gnu/11/../../../../include/c++/11/debug/debug.h", directory: "", checksumkind: CSK_MD5, checksum: "982c0103e1e5f86b0818efdfc5273c3c")
!425 = !DIImportedEntity(tag: DW_TAG_imported_declaration, scope: !2, entity: !426, file: !431, line: 47)
!426 = !DIDerivedType(tag: DW_TAG_typedef, name: "int8_t", file: !427, line: 24, baseType: !428)
!427 = !DIFile(filename: "/usr/include/x86_64-linux-gnu/bits/stdint-intn.h", directory: "", checksumkind: CSK_MD5, checksum: "55bcbdc3159515ebd91d351a70d505f4")
!428 = !DIDerivedType(tag: DW_TAG_typedef, name: "__int8_t", file: !429, line: 37, baseType: !430)
!429 = !DIFile(filename: "/usr/include/x86_64-linux-gnu/bits/types.h", directory: "", checksumkind: CSK_MD5, checksum: "d108b5f93a74c50510d7d9bc0ab36df9")
!430 = !DIBasicType(name: "signed char", size: 8, encoding: DW_ATE_signed_char)
!431 = !DIFile(filename: "/usr/lib/gcc/x86_64-linux-gnu/11/../../../../include/c++/11/cstdint", directory: "")
!432 = !DIImportedEntity(tag: DW_TAG_imported_declaration, scope: !2, entity: !433, file: !431, line: 48)
!433 = !DIDerivedType(tag: DW_TAG_typedef, name: "int16_t", file: !427, line: 25, baseType: !434)
!434 = !DIDerivedType(tag: DW_TAG_typedef, name: "__int16_t", file: !429, line: 39, baseType: !435)
!435 = !DIBasicType(name: "short", size: 16, encoding: DW_ATE_signed)
!436 = !DIImportedEntity(tag: DW_TAG_imported_declaration, scope: !2, entity: !437, file: !431, line: 49)
!437 = !DIDerivedType(tag: DW_TAG_typedef, name: "int32_t", file: !427, line: 26, baseType: !438)
!438 = !DIDerivedType(tag: DW_TAG_typedef, name: "__int32_t", file: !429, line: 41, baseType: !136)
!439 = !DIImportedEntity(tag: DW_TAG_imported_declaration, scope: !2, entity: !440, file: !431, line: 50)
!440 = !DIDerivedType(tag: DW_TAG_typedef, name: "int64_t", file: !427, line: 27, baseType: !441)
!441 = !DIDerivedType(tag: DW_TAG_typedef, name: "__int64_t", file: !429, line: 44, baseType: !341)
!442 = !DIImportedEntity(tag: DW_TAG_imported_declaration, scope: !2, entity: !443, file: !431, line: 52)
!443 = !DIDerivedType(tag: DW_TAG_typedef, name: "int_fast8_t", file: !444, line: 58, baseType: !430)
!444 = !DIFile(filename: "/usr/include/stdint.h", directory: "", checksumkind: CSK_MD5, checksum: "a48e64edacc5b19f56c99745232c963c")
!445 = !DIImportedEntity(tag: DW_TAG_imported_declaration, scope: !2, entity: !446, file: !431, line: 53)
!446 = !DIDerivedType(tag: DW_TAG_typedef, name: "int_fast16_t", file: !444, line: 60, baseType: !341)
!447 = !DIImportedEntity(tag: DW_TAG_imported_declaration, scope: !2, entity: !448, file: !431, line: 54)
!448 = !DIDerivedType(tag: DW_TAG_typedef, name: "int_fast32_t", file: !444, line: 61, baseType: !341)
!449 = !DIImportedEntity(tag: DW_TAG_imported_declaration, scope: !2, entity: !450, file: !431, line: 55)
!450 = !DIDerivedType(tag: DW_TAG_typedef, name: "int_fast64_t", file: !444, line: 62, baseType: !341)
!451 = !DIImportedEntity(tag: DW_TAG_imported_declaration, scope: !2, entity: !452, file: !431, line: 57)
!452 = !DIDerivedType(tag: DW_TAG_typedef, name: "int_least8_t", file: !444, line: 43, baseType: !453)
!453 = !DIDerivedType(tag: DW_TAG_typedef, name: "__int_least8_t", file: !429, line: 52, baseType: !428)
!454 = !DIImportedEntity(tag: DW_TAG_imported_declaration, scope: !2, entity: !455, file: !431, line: 58)
!455 = !DIDerivedType(tag: DW_TAG_typedef, name: "int_least16_t", file: !444, line: 44, baseType: !456)
!456 = !DIDerivedType(tag: DW_TAG_typedef, name: "__int_least16_t", file: !429, line: 54, baseType: !434)
!457 = !DIImportedEntity(tag: DW_TAG_imported_declaration, scope: !2, entity: !458, file: !431, line: 59)
!458 = !DIDerivedType(tag: DW_TAG_typedef, name: "int_least32_t", file: !444, line: 45, baseType: !459)
!459 = !DIDerivedType(tag: DW_TAG_typedef, name: "__int_least32_t", file: !429, line: 56, baseType: !438)
!460 = !DIImportedEntity(tag: DW_TAG_imported_declaration, scope: !2, entity: !461, file: !431, line: 60)
!461 = !DIDerivedType(tag: DW_TAG_typedef, name: "int_least64_t", file: !444, line: 46, baseType: !462)
!462 = !DIDerivedType(tag: DW_TAG_typedef, name: "__int_least64_t", file: !429, line: 58, baseType: !441)
!463 = !DIImportedEntity(tag: DW_TAG_imported_declaration, scope: !2, entity: !464, file: !431, line: 62)
!464 = !DIDerivedType(tag: DW_TAG_typedef, name: "intmax_t", file: !444, line: 101, baseType: !465)
!465 = !DIDerivedType(tag: DW_TAG_typedef, name: "__intmax_t", file: !429, line: 72, baseType: !341)
!466 = !DIImportedEntity(tag: DW_TAG_imported_declaration, scope: !2, entity: !467, file: !431, line: 63)
!467 = !DIDerivedType(tag: DW_TAG_typedef, name: "intptr_t", file: !444, line: 87, baseType: !341)
!468 = !DIImportedEntity(tag: DW_TAG_imported_declaration, scope: !2, entity: !469, file: !431, line: 65)
!469 = !DIDerivedType(tag: DW_TAG_typedef, name: "uint8_t", file: !470, line: 24, baseType: !471)
!470 = !DIFile(filename: "/usr/include/x86_64-linux-gnu/bits/stdint-uintn.h", directory: "", checksumkind: CSK_MD5, checksum: "2bf2ae53c58c01b1a1b9383b5195125c")
!471 = !DIDerivedType(tag: DW_TAG_typedef, name: "__uint8_t", file: !429, line: 38, baseType: !472)
!472 = !DIBasicType(name: "unsigned char", size: 8, encoding: DW_ATE_unsigned_char)
!473 = !DIImportedEntity(tag: DW_TAG_imported_declaration, scope: !2, entity: !474, file: !431, line: 66)
!474 = !DIDerivedType(tag: DW_TAG_typedef, name: "uint16_t", file: !470, line: 25, baseType: !475)
!475 = !DIDerivedType(tag: DW_TAG_typedef, name: "__uint16_t", file: !429, line: 40, baseType: !476)
!476 = !DIBasicType(name: "unsigned short", size: 16, encoding: DW_ATE_unsigned)
!477 = !DIImportedEntity(tag: DW_TAG_imported_declaration, scope: !2, entity: !478, file: !431, line: 67)
!478 = !DIDerivedType(tag: DW_TAG_typedef, name: "uint32_t", file: !470, line: 26, baseType: !479)
!479 = !DIDerivedType(tag: DW_TAG_typedef, name: "__uint32_t", file: !429, line: 42, baseType: !141)
!480 = !DIImportedEntity(tag: DW_TAG_imported_declaration, scope: !2, entity: !481, file: !431, line: 68)
!481 = !DIDerivedType(tag: DW_TAG_typedef, name: "uint64_t", file: !470, line: 27, baseType: !482)
!482 = !DIDerivedType(tag: DW_TAG_typedef, name: "__uint64_t", file: !429, line: 45, baseType: !32)
!483 = !DIImportedEntity(tag: DW_TAG_imported_declaration, scope: !2, entity: !484, file: !431, line: 70)
!484 = !DIDerivedType(tag: DW_TAG_typedef, name: "uint_fast8_t", file: !444, line: 71, baseType: !472)
!485 = !DIImportedEntity(tag: DW_TAG_imported_declaration, scope: !2, entity: !486, file: !431, line: 71)
!486 = !DIDerivedType(tag: DW_TAG_typedef, name: "uint_fast16_t", file: !444, line: 73, baseType: !32)
!487 = !DIImportedEntity(tag: DW_TAG_imported_declaration, scope: !2, entity: !488, file: !431, line: 72)
!488 = !DIDerivedType(tag: DW_TAG_typedef, name: "uint_fast32_t", file: !444, line: 74, baseType: !32)
!489 = !DIImportedEntity(tag: DW_TAG_imported_declaration, scope: !2, entity: !490, file: !431, line: 73)
!490 = !DIDerivedType(tag: DW_TAG_typedef, name: "uint_fast64_t", file: !444, line: 75, baseType: !32)
!491 = !DIImportedEntity(tag: DW_TAG_imported_declaration, scope: !2, entity: !492, file: !431, line: 75)
!492 = !DIDerivedType(tag: DW_TAG_typedef, name: "uint_least8_t", file: !444, line: 49, baseType: !493)
!493 = !DIDerivedType(tag: DW_TAG_typedef, name: "__uint_least8_t", file: !429, line: 53, baseType: !471)
!494 = !DIImportedEntity(tag: DW_TAG_imported_declaration, scope: !2, entity: !495, file: !431, line: 76)
!495 = !DIDerivedType(tag: DW_TAG_typedef, name: "uint_least16_t", file: !444, line: 50, baseType: !496)
!496 = !DIDerivedType(tag: DW_TAG_typedef, name: "__uint_least16_t", file: !429, line: 55, baseType: !475)
!497 = !DIImportedEntity(tag: DW_TAG_imported_declaration, scope: !2, entity: !498, file: !431, line: 77)
!498 = !DIDerivedType(tag: DW_TAG_typedef, name: "uint_least32_t", file: !444, line: 51, baseType: !499)
!499 = !DIDerivedType(tag: DW_TAG_typedef, name: "__uint_least32_t", file: !429, line: 57, baseType: !479)
!500 = !DIImportedEntity(tag: DW_TAG_imported_declaration, scope: !2, entity: !501, file: !431, line: 78)
!501 = !DIDerivedType(tag: DW_TAG_typedef, name: "uint_least64_t", file: !444, line: 52, baseType: !502)
!502 = !DIDerivedType(tag: DW_TAG_typedef, name: "__uint_least64_t", file: !429, line: 59, baseType: !482)
!503 = !DIImportedEntity(tag: DW_TAG_imported_declaration, scope: !2, entity: !504, file: !431, line: 80)
!504 = !DIDerivedType(tag: DW_TAG_typedef, name: "uintmax_t", file: !444, line: 102, baseType: !505)
!505 = !DIDerivedType(tag: DW_TAG_typedef, name: "__uintmax_t", file: !429, line: 73, baseType: !32)
!506 = !DIImportedEntity(tag: DW_TAG_imported_declaration, scope: !2, entity: !507, file: !431, line: 81)
!507 = !DIDerivedType(tag: DW_TAG_typedef, name: "uintptr_t", file: !444, line: 90, baseType: !32)
!508 = !DIImportedEntity(tag: DW_TAG_imported_declaration, scope: !2, entity: !509, file: !511, line: 53)
!509 = !DICompositeType(tag: DW_TAG_structure_type, name: "lconv", file: !510, line: 51, size: 768, flags: DIFlagFwdDecl, identifier: "_ZTS5lconv")
!510 = !DIFile(filename: "/usr/include/locale.h", directory: "", checksumkind: CSK_MD5, checksum: "a1d177e0f311dc60a74cb347049d75bc")
!511 = !DIFile(filename: "/usr/lib/gcc/x86_64-linux-gnu/11/../../../../include/c++/11/clocale", directory: "")
!512 = !DIImportedEntity(tag: DW_TAG_imported_declaration, scope: !2, entity: !513, file: !511, line: 54)
!513 = !DISubprogram(name: "setlocale", scope: !510, file: !510, line: 122, type: !514, flags: DIFlagPrototyped, spFlags: 0)
!514 = !DISubroutineType(types: !515)
!515 = !{!275, !136, !205}
!516 = !DIImportedEntity(tag: DW_TAG_imported_declaration, scope: !2, entity: !517, file: !511, line: 55)
!517 = !DISubprogram(name: "localeconv", scope: !510, file: !510, line: 125, type: !518, flags: DIFlagPrototyped, spFlags: 0)
!518 = !DISubroutineType(types: !519)
!519 = !{!520}
!520 = !DIDerivedType(tag: DW_TAG_pointer_type, baseType: !509, size: 64)
!521 = !DIImportedEntity(tag: DW_TAG_imported_declaration, scope: !2, entity: !522, file: !526, line: 64)
!522 = !DISubprogram(name: "isalnum", scope: !523, file: !523, line: 108, type: !524, flags: DIFlagPrototyped, spFlags: 0)
!523 = !DIFile(filename: "/usr/include/ctype.h", directory: "", checksumkind: CSK_MD5, checksum: "3ab3dd7fdf2578005732722ee2393e59")
!524 = !DISubroutineType(types: !525)
!525 = !{!136, !136}
!526 = !DIFile(filename: "/usr/lib/gcc/x86_64-linux-gnu/11/../../../../include/c++/11/cctype", directory: "")
!527 = !DIImportedEntity(tag: DW_TAG_imported_declaration, scope: !2, entity: !528, file: !526, line: 65)
!528 = !DISubprogram(name: "isalpha", scope: !523, file: !523, line: 109, type: !524, flags: DIFlagPrototyped, spFlags: 0)
!529 = !DIImportedEntity(tag: DW_TAG_imported_declaration, scope: !2, entity: !530, file: !526, line: 66)
!530 = !DISubprogram(name: "iscntrl", scope: !523, file: !523, line: 110, type: !524, flags: DIFlagPrototyped, spFlags: 0)
!531 = !DIImportedEntity(tag: DW_TAG_imported_declaration, scope: !2, entity: !532, file: !526, line: 67)
!532 = !DISubprogram(name: "isdigit", scope: !523, file: !523, line: 111, type: !524, flags: DIFlagPrototyped, spFlags: 0)
!533 = !DIImportedEntity(tag: DW_TAG_imported_declaration, scope: !2, entity: !534, file: !526, line: 68)
!534 = !DISubprogram(name: "isgraph", scope: !523, file: !523, line: 113, type: !524, flags: DIFlagPrototyped, spFlags: 0)
!535 = !DIImportedEntity(tag: DW_TAG_imported_declaration, scope: !2, entity: !536, file: !526, line: 69)
!536 = !DISubprogram(name: "islower", scope: !523, file: !523, line: 112, type: !524, flags: DIFlagPrototyped, spFlags: 0)
!537 = !DIImportedEntity(tag: DW_TAG_imported_declaration, scope: !2, entity: !538, file: !526, line: 70)
!538 = !DISubprogram(name: "isprint", scope: !523, file: !523, line: 114, type: !524, flags: DIFlagPrototyped, spFlags: 0)
!539 = !DIImportedEntity(tag: DW_TAG_imported_declaration, scope: !2, entity: !540, file: !526, line: 71)
!540 = !DISubprogram(name: "ispunct", scope: !523, file: !523, line: 115, type: !524, flags: DIFlagPrototyped, spFlags: 0)
!541 = !DIImportedEntity(tag: DW_TAG_imported_declaration, scope: !2, entity: !542, file: !526, line: 72)
!542 = !DISubprogram(name: "isspace", scope: !523, file: !523, line: 116, type: !524, flags: DIFlagPrototyped, spFlags: 0)
!543 = !DIImportedEntity(tag: DW_TAG_imported_declaration, scope: !2, entity: !544, file: !526, line: 73)
!544 = !DISubprogram(name: "isupper", scope: !523, file: !523, line: 117, type: !524, flags: DIFlagPrototyped, spFlags: 0)
!545 = !DIImportedEntity(tag: DW_TAG_imported_declaration, scope: !2, entity: !546, file: !526, line: 74)
!546 = !DISubprogram(name: "isxdigit", scope: !523, file: !523, line: 118, type: !524, flags: DIFlagPrototyped, spFlags: 0)
!547 = !DIImportedEntity(tag: DW_TAG_imported_declaration, scope: !2, entity: !548, file: !526, line: 75)
!548 = !DISubprogram(name: "tolower", scope: !523, file: !523, line: 122, type: !524, flags: DIFlagPrototyped, spFlags: 0)
!549 = !DIImportedEntity(tag: DW_TAG_imported_declaration, scope: !2, entity: !550, file: !526, line: 76)
!550 = !DISubprogram(name: "toupper", scope: !523, file: !523, line: 125, type: !524, flags: DIFlagPrototyped, spFlags: 0)
!551 = !DIImportedEntity(tag: DW_TAG_imported_declaration, scope: !2, entity: !552, file: !526, line: 87)
!552 = !DISubprogram(name: "isblank", scope: !523, file: !523, line: 130, type: !524, flags: DIFlagPrototyped, spFlags: 0)
!553 = !DIImportedEntity(tag: DW_TAG_imported_declaration, scope: !2, entity: !554, file: !556, line: 52)
!554 = !DISubprogram(name: "abs", scope: !555, file: !555, line: 848, type: !524, flags: DIFlagPrototyped, spFlags: 0)
!555 = !DIFile(filename: "/usr/include/stdlib.h", directory: "", checksumkind: CSK_MD5, checksum: "02258fad21adf111bb9df9825e61954a")
!556 = !DIFile(filename: "/usr/lib/gcc/x86_64-linux-gnu/11/../../../../include/c++/11/bits/std_abs.h", directory: "")
!557 = !DIImportedEntity(tag: DW_TAG_imported_declaration, scope: !2, entity: !558, file: !560, line: 127)
!558 = !DIDerivedType(tag: DW_TAG_typedef, name: "div_t", file: !555, line: 63, baseType: !559)
!559 = !DICompositeType(tag: DW_TAG_structure_type, file: !555, line: 59, size: 64, flags: DIFlagFwdDecl, identifier: "_ZTS5div_t")
!560 = !DIFile(filename: "/usr/lib/gcc/x86_64-linux-gnu/11/../../../../include/c++/11/cstdlib", directory: "")
!561 = !DIImportedEntity(tag: DW_TAG_imported_declaration, scope: !2, entity: !562, file: !560, line: 128)
!562 = !DIDerivedType(tag: DW_TAG_typedef, name: "ldiv_t", file: !555, line: 71, baseType: !563)
!563 = distinct !DICompositeType(tag: DW_TAG_structure_type, file: !555, line: 67, size: 128, flags: DIFlagTypePassByValue, elements: !564, identifier: "_ZTS6ldiv_t")
!564 = !{!565, !566}
!565 = !DIDerivedType(tag: DW_TAG_member, name: "quot", scope: !563, file: !555, line: 69, baseType: !341, size: 64)
!566 = !DIDerivedType(tag: DW_TAG_member, name: "rem", scope: !563, file: !555, line: 70, baseType: !341, size: 64, offset: 64)
!567 = !DIImportedEntity(tag: DW_TAG_imported_declaration, scope: !2, entity: !568, file: !560, line: 130)
!568 = !DISubprogram(name: "abort", scope: !555, file: !555, line: 598, type: !569, flags: DIFlagPrototyped | DIFlagNoReturn, spFlags: 0)
!569 = !DISubroutineType(types: !570)
!570 = !{null}
!571 = !DIImportedEntity(tag: DW_TAG_imported_declaration, scope: !2, entity: !572, file: !560, line: 134)
!572 = !DISubprogram(name: "atexit", scope: !555, file: !555, line: 602, type: !573, flags: DIFlagPrototyped, spFlags: 0)
!573 = !DISubroutineType(types: !574)
!574 = !{!136, !575}
!575 = !DIDerivedType(tag: DW_TAG_pointer_type, baseType: !569, size: 64)
!576 = !DIImportedEntity(tag: DW_TAG_imported_declaration, scope: !2, entity: !577, file: !560, line: 137)
!577 = !DISubprogram(name: "at_quick_exit", scope: !555, file: !555, line: 607, type: !573, flags: DIFlagPrototyped, spFlags: 0)
!578 = !DIImportedEntity(tag: DW_TAG_imported_declaration, scope: !2, entity: !579, file: !560, line: 140)
!579 = !DISubprogram(name: "atof", scope: !555, file: !555, line: 102, type: !580, flags: DIFlagPrototyped, spFlags: 0)
!580 = !DISubroutineType(types: !581)
!581 = !{!326, !205}
!582 = !DIImportedEntity(tag: DW_TAG_imported_declaration, scope: !2, entity: !583, file: !560, line: 141)
!583 = !DISubprogram(name: "atoi", scope: !555, file: !555, line: 105, type: !584, flags: DIFlagPrototyped, spFlags: 0)
!584 = !DISubroutineType(types: !585)
!585 = !{!136, !205}
!586 = !DIImportedEntity(tag: DW_TAG_imported_declaration, scope: !2, entity: !587, file: !560, line: 142)
!587 = !DISubprogram(name: "atol", scope: !555, file: !555, line: 108, type: !588, flags: DIFlagPrototyped, spFlags: 0)
!588 = !DISubroutineType(types: !589)
!589 = !{!341, !205}
!590 = !DIImportedEntity(tag: DW_TAG_imported_declaration, scope: !2, entity: !591, file: !560, line: 143)
!591 = !DISubprogram(name: "bsearch", scope: !555, file: !555, line: 828, type: !592, flags: DIFlagPrototyped, spFlags: 0)
!592 = !DISubroutineType(types: !593)
!593 = !{!33, !34, !34, !202, !202, !594}
!594 = !DIDerivedType(tag: DW_TAG_typedef, name: "__compar_fn_t", file: !555, line: 816, baseType: !595)
!595 = !DIDerivedType(tag: DW_TAG_pointer_type, baseType: !596, size: 64)
!596 = !DISubroutineType(types: !597)
!597 = !{!136, !34, !34}
!598 = !DIImportedEntity(tag: DW_TAG_imported_declaration, scope: !2, entity: !599, file: !560, line: 144)
!599 = !DISubprogram(name: "calloc", scope: !555, file: !555, line: 543, type: !600, flags: DIFlagPrototyped, spFlags: 0)
!600 = !DISubroutineType(types: !601)
!601 = !{!33, !202, !202}
!602 = !DIImportedEntity(tag: DW_TAG_imported_declaration, scope: !2, entity: !603, file: !560, line: 145)
!603 = !DISubprogram(name: "div", scope: !555, file: !555, line: 860, type: !604, flags: DIFlagPrototyped, spFlags: 0)
!604 = !DISubroutineType(types: !605)
!605 = !{!558, !136, !136}
!606 = !DIImportedEntity(tag: DW_TAG_imported_declaration, scope: !2, entity: !607, file: !560, line: 146)
!607 = !DISubprogram(name: "exit", scope: !555, file: !555, line: 624, type: !608, flags: DIFlagPrototyped | DIFlagNoReturn, spFlags: 0)
!608 = !DISubroutineType(types: !609)
!609 = !{null, !136}
!610 = !DIImportedEntity(tag: DW_TAG_imported_declaration, scope: !2, entity: !611, file: !560, line: 147)
!611 = !DISubprogram(name: "free", scope: !555, file: !555, line: 555, type: !612, flags: DIFlagPrototyped, spFlags: 0)
!612 = !DISubroutineType(types: !613)
!613 = !{null, !33}
!614 = !DIImportedEntity(tag: DW_TAG_imported_declaration, scope: !2, entity: !615, file: !560, line: 148)
!615 = !DISubprogram(name: "getenv", scope: !555, file: !555, line: 641, type: !616, flags: DIFlagPrototyped, spFlags: 0)
!616 = !DISubroutineType(types: !617)
!617 = !{!275, !205}
!618 = !DIImportedEntity(tag: DW_TAG_imported_declaration, scope: !2, entity: !619, file: !560, line: 149)
!619 = !DISubprogram(name: "labs", scope: !555, file: !555, line: 849, type: !620, flags: DIFlagPrototyped, spFlags: 0)
!620 = !DISubroutineType(types: !621)
!621 = !{!341, !341}
!622 = !DIImportedEntity(tag: DW_TAG_imported_declaration, scope: !2, entity: !623, file: !560, line: 150)
!623 = !DISubprogram(name: "ldiv", scope: !555, file: !555, line: 862, type: !624, flags: DIFlagPrototyped, spFlags: 0)
!624 = !DISubroutineType(types: !625)
!625 = !{!562, !341, !341}
!626 = !DIImportedEntity(tag: DW_TAG_imported_declaration, scope: !2, entity: !627, file: !560, line: 151)
!627 = !DISubprogram(name: "malloc", scope: !555, file: !555, line: 540, type: !628, flags: DIFlagPrototyped, spFlags: 0)
!628 = !DISubroutineType(types: !629)
!629 = !{!33, !202}
!630 = !DIImportedEntity(tag: DW_TAG_imported_declaration, scope: !2, entity: !631, file: !560, line: 153)
!631 = !DISubprogram(name: "mblen", scope: !555, file: !555, line: 930, type: !632, flags: DIFlagPrototyped, spFlags: 0)
!632 = !DISubroutineType(types: !633)
!633 = !{!136, !205, !202}
!634 = !DIImportedEntity(tag: DW_TAG_imported_declaration, scope: !2, entity: !635, file: !560, line: 154)
!635 = !DISubprogram(name: "mbstowcs", scope: !555, file: !555, line: 941, type: !636, flags: DIFlagPrototyped, spFlags: 0)
!636 = !DISubroutineType(types: !637)
!637 = !{!202, !169, !204, !202}
!638 = !DIImportedEntity(tag: DW_TAG_imported_declaration, scope: !2, entity: !639, file: !560, line: 155)
!639 = !DISubprogram(name: "mbtowc", scope: !555, file: !555, line: 933, type: !640, flags: DIFlagPrototyped, spFlags: 0)
!640 = !DISubroutineType(types: !641)
!641 = !{!136, !169, !204, !202}
!642 = !DIImportedEntity(tag: DW_TAG_imported_declaration, scope: !2, entity: !643, file: !560, line: 157)
!643 = !DISubprogram(name: "qsort", scope: !555, file: !555, line: 838, type: !644, flags: DIFlagPrototyped, spFlags: 0)
!644 = !DISubroutineType(types: !645)
!645 = !{null, !33, !202, !202, !594}
!646 = !DIImportedEntity(tag: DW_TAG_imported_declaration, scope: !2, entity: !647, file: !560, line: 160)
!647 = !DISubprogram(name: "quick_exit", scope: !555, file: !555, line: 630, type: !608, flags: DIFlagPrototyped | DIFlagNoReturn, spFlags: 0)
!648 = !DIImportedEntity(tag: DW_TAG_imported_declaration, scope: !2, entity: !649, file: !560, line: 163)
!649 = !DISubprogram(name: "rand", scope: !555, file: !555, line: 454, type: !650, flags: DIFlagPrototyped, spFlags: 0)
!650 = !DISubroutineType(types: !651)
!651 = !{!136}
!652 = !DIImportedEntity(tag: DW_TAG_imported_declaration, scope: !2, entity: !653, file: !560, line: 164)
!653 = !DISubprogram(name: "realloc", scope: !555, file: !555, line: 551, type: !654, flags: DIFlagPrototyped, spFlags: 0)
!654 = !DISubroutineType(types: !655)
!655 = !{!33, !33, !202}
!656 = !DIImportedEntity(tag: DW_TAG_imported_declaration, scope: !2, entity: !657, file: !560, line: 165)
!657 = !DISubprogram(name: "srand", scope: !555, file: !555, line: 456, type: !658, flags: DIFlagPrototyped, spFlags: 0)
!658 = !DISubroutineType(types: !659)
!659 = !{null, !141}
!660 = !DIImportedEntity(tag: DW_TAG_imported_declaration, scope: !2, entity: !661, file: !560, line: 166)
!661 = !DISubprogram(name: "strtod", scope: !555, file: !555, line: 118, type: !662, flags: DIFlagPrototyped, spFlags: 0)
!662 = !DISubroutineType(types: !663)
!663 = !{!326, !204, !664}
!664 = !DIDerivedType(tag: DW_TAG_restrict_type, baseType: !665)
!665 = !DIDerivedType(tag: DW_TAG_pointer_type, baseType: !275, size: 64)
!666 = !DIImportedEntity(tag: DW_TAG_imported_declaration, scope: !2, entity: !667, file: !560, line: 167)
!667 = !DISubprogram(name: "strtol", scope: !555, file: !555, line: 177, type: !668, flags: DIFlagPrototyped, spFlags: 0)
!668 = !DISubroutineType(types: !669)
!669 = !{!341, !204, !664, !136}
!670 = !DIImportedEntity(tag: DW_TAG_imported_declaration, scope: !2, entity: !671, file: !560, line: 168)
!671 = !DISubprogram(name: "strtoul", scope: !555, file: !555, line: 181, type: !672, flags: DIFlagPrototyped, spFlags: 0)
!672 = !DISubroutineType(types: !673)
!673 = !{!32, !204, !664, !136}
!674 = !DIImportedEntity(tag: DW_TAG_imported_declaration, scope: !2, entity: !675, file: !560, line: 169)
!675 = !DISubprogram(name: "system", scope: !555, file: !555, line: 791, type: !584, flags: DIFlagPrototyped, spFlags: 0)
!676 = !DIImportedEntity(tag: DW_TAG_imported_declaration, scope: !2, entity: !677, file: !560, line: 171)
!677 = !DISubprogram(name: "wcstombs", scope: !555, file: !555, line: 945, type: !678, flags: DIFlagPrototyped, spFlags: 0)
!678 = !DISubroutineType(types: !679)
!679 = !{!202, !274, !179, !202}
!680 = !DIImportedEntity(tag: DW_TAG_imported_declaration, scope: !2, entity: !681, file: !560, line: 172)
!681 = !DISubprogram(name: "wctomb", scope: !555, file: !555, line: 937, type: !682, flags: DIFlagPrototyped, spFlags: 0)
!682 = !DISubroutineType(types: !683)
!683 = !{!136, !275, !168}
!684 = !DIImportedEntity(tag: DW_TAG_imported_declaration, scope: !49, entity: !685, file: !560, line: 200)
!685 = !DIDerivedType(tag: DW_TAG_typedef, name: "lldiv_t", file: !555, line: 81, baseType: !686)
!686 = distinct !DICompositeType(tag: DW_TAG_structure_type, file: !555, line: 77, size: 128, flags: DIFlagTypePassByValue, elements: !687, identifier: "_ZTS7lldiv_t")
!687 = !{!688, !689}
!688 = !DIDerivedType(tag: DW_TAG_member, name: "quot", scope: !686, file: !555, line: 79, baseType: !397, size: 64)
!689 = !DIDerivedType(tag: DW_TAG_member, name: "rem", scope: !686, file: !555, line: 80, baseType: !397, size: 64, offset: 64)
!690 = !DIImportedEntity(tag: DW_TAG_imported_declaration, scope: !49, entity: !691, file: !560, line: 206)
!691 = !DISubprogram(name: "_Exit", scope: !555, file: !555, line: 636, type: !608, flags: DIFlagPrototyped | DIFlagNoReturn, spFlags: 0)
!692 = !DIImportedEntity(tag: DW_TAG_imported_declaration, scope: !49, entity: !693, file: !560, line: 210)
!693 = !DISubprogram(name: "llabs", scope: !555, file: !555, line: 852, type: !694, flags: DIFlagPrototyped, spFlags: 0)
!694 = !DISubroutineType(types: !695)
!695 = !{!397, !397}
!696 = !DIImportedEntity(tag: DW_TAG_imported_declaration, scope: !49, entity: !697, file: !560, line: 216)
!697 = !DISubprogram(name: "lldiv", scope: !555, file: !555, line: 866, type: !698, flags: DIFlagPrototyped, spFlags: 0)
!698 = !DISubroutineType(types: !699)
!699 = !{!685, !397, !397}
!700 = !DIImportedEntity(tag: DW_TAG_imported_declaration, scope: !49, entity: !701, file: !560, line: 227)
!701 = !DISubprogram(name: "atoll", scope: !555, file: !555, line: 113, type: !702, flags: DIFlagPrototyped, spFlags: 0)
!702 = !DISubroutineType(types: !703)
!703 = !{!397, !205}
!704 = !DIImportedEntity(tag: DW_TAG_imported_declaration, scope: !49, entity: !705, file: !560, line: 228)
!705 = !DISubprogram(name: "strtoll", scope: !555, file: !555, line: 201, type: !706, flags: DIFlagPrototyped, spFlags: 0)
!706 = !DISubroutineType(types: !707)
!707 = !{!397, !204, !664, !136}
!708 = !DIImportedEntity(tag: DW_TAG_imported_declaration, scope: !49, entity: !709, file: !560, line: 229)
!709 = !DISubprogram(name: "strtoull", scope: !555, file: !555, line: 206, type: !710, flags: DIFlagPrototyped, spFlags: 0)
!710 = !DISubroutineType(types: !711)
!711 = !{!402, !204, !664, !136}
!712 = !DIImportedEntity(tag: DW_TAG_imported_declaration, scope: !49, entity: !713, file: !560, line: 231)
!713 = !DISubprogram(name: "strtof", scope: !555, file: !555, line: 124, type: !714, flags: DIFlagPrototyped, spFlags: 0)
!714 = !DISubroutineType(types: !715)
!715 = !{!37, !204, !664}
!716 = !DIImportedEntity(tag: DW_TAG_imported_declaration, scope: !49, entity: !717, file: !560, line: 232)
!717 = !DISubprogram(name: "strtold", scope: !555, file: !555, line: 127, type: !718, flags: DIFlagPrototyped, spFlags: 0)
!718 = !DISubroutineType(types: !719)
!719 = !{!392, !204, !664}
!720 = !DIImportedEntity(tag: DW_TAG_imported_declaration, scope: !2, entity: !685, file: !560, line: 240)
!721 = !DIImportedEntity(tag: DW_TAG_imported_declaration, scope: !2, entity: !691, file: !560, line: 242)
!722 = !DIImportedEntity(tag: DW_TAG_imported_declaration, scope: !2, entity: !693, file: !560, line: 244)
!723 = !DIImportedEntity(tag: DW_TAG_imported_declaration, scope: !2, entity: !724, file: !560, line: 245)
!724 = !DISubprogram(name: "div", linkageName: "_ZN9__gnu_cxx3divExx", scope: !49, file: !560, line: 213, type: !698, flags: DIFlagPrototyped, spFlags: 0)
!725 = !DIImportedEntity(tag: DW_TAG_imported_declaration, scope: !2, entity: !697, file: !560, line: 246)
!726 = !DIImportedEntity(tag: DW_TAG_imported_declaration, scope: !2, entity: !701, file: !560, line: 248)
!727 = !DIImportedEntity(tag: DW_TAG_imported_declaration, scope: !2, entity: !713, file: !560, line: 249)
!728 = !DIImportedEntity(tag: DW_TAG_imported_declaration, scope: !2, entity: !705, file: !560, line: 250)
!729 = !DIImportedEntity(tag: DW_TAG_imported_declaration, scope: !2, entity: !709, file: !560, line: 251)
!730 = !DIImportedEntity(tag: DW_TAG_imported_declaration, scope: !2, entity: !717, file: !560, line: 252)
!731 = !DIImportedEntity(tag: DW_TAG_imported_declaration, scope: !2, entity: !732, file: !734, line: 98)
!732 = !DIDerivedType(tag: DW_TAG_typedef, name: "FILE", file: !733, line: 7, baseType: !162)
!733 = !DIFile(filename: "/usr/include/x86_64-linux-gnu/bits/types/FILE.h", directory: "", checksumkind: CSK_MD5, checksum: "571f9fb6223c42439075fdde11a0de5d")
!734 = !DIFile(filename: "/usr/lib/gcc/x86_64-linux-gnu/11/../../../../include/c++/11/cstdio", directory: "")
!735 = !DIImportedEntity(tag: DW_TAG_imported_declaration, scope: !2, entity: !736, file: !734, line: 99)
!736 = !DIDerivedType(tag: DW_TAG_typedef, name: "fpos_t", file: !737, line: 84, baseType: !738)
!737 = !DIFile(filename: "/usr/include/stdio.h", directory: "", checksumkind: CSK_MD5, checksum: "f31eefcc3f15835fc5a4023a625cf609")
!738 = !DIDerivedType(tag: DW_TAG_typedef, name: "__fpos_t", file: !739, line: 14, baseType: !740)
!739 = !DIFile(filename: "/usr/include/x86_64-linux-gnu/bits/types/__fpos_t.h", directory: "", checksumkind: CSK_MD5, checksum: "32de8bdaf3551a6c0a9394f9af4389ce")
!740 = !DICompositeType(tag: DW_TAG_structure_type, name: "_G_fpos_t", file: !739, line: 10, size: 128, flags: DIFlagFwdDecl, identifier: "_ZTS9_G_fpos_t")
!741 = !DIImportedEntity(tag: DW_TAG_imported_declaration, scope: !2, entity: !742, file: !734, line: 101)
!742 = !DISubprogram(name: "clearerr", scope: !737, file: !737, line: 786, type: !743, flags: DIFlagPrototyped, spFlags: 0)
!743 = !DISubroutineType(types: !744)
!744 = !{null, !745}
!745 = !DIDerivedType(tag: DW_TAG_pointer_type, baseType: !732, size: 64)
!746 = !DIImportedEntity(tag: DW_TAG_imported_declaration, scope: !2, entity: !747, file: !734, line: 102)
!747 = !DISubprogram(name: "fclose", scope: !737, file: !737, line: 178, type: !748, flags: DIFlagPrototyped, spFlags: 0)
!748 = !DISubroutineType(types: !749)
!749 = !{!136, !745}
!750 = !DIImportedEntity(tag: DW_TAG_imported_declaration, scope: !2, entity: !751, file: !734, line: 103)
!751 = !DISubprogram(name: "feof", scope: !737, file: !737, line: 788, type: !748, flags: DIFlagPrototyped, spFlags: 0)
!752 = !DIImportedEntity(tag: DW_TAG_imported_declaration, scope: !2, entity: !753, file: !734, line: 104)
!753 = !DISubprogram(name: "ferror", scope: !737, file: !737, line: 790, type: !748, flags: DIFlagPrototyped, spFlags: 0)
!754 = !DIImportedEntity(tag: DW_TAG_imported_declaration, scope: !2, entity: !755, file: !734, line: 105)
!755 = !DISubprogram(name: "fflush", scope: !737, file: !737, line: 230, type: !748, flags: DIFlagPrototyped, spFlags: 0)
!756 = !DIImportedEntity(tag: DW_TAG_imported_declaration, scope: !2, entity: !757, file: !734, line: 106)
!757 = !DISubprogram(name: "fgetc", scope: !737, file: !737, line: 513, type: !748, flags: DIFlagPrototyped, spFlags: 0)
!758 = !DIImportedEntity(tag: DW_TAG_imported_declaration, scope: !2, entity: !759, file: !734, line: 107)
!759 = !DISubprogram(name: "fgetpos", scope: !737, file: !737, line: 760, type: !760, flags: DIFlagPrototyped, spFlags: 0)
!760 = !DISubroutineType(types: !761)
!761 = !{!136, !762, !763}
!762 = !DIDerivedType(tag: DW_TAG_restrict_type, baseType: !745)
!763 = !DIDerivedType(tag: DW_TAG_restrict_type, baseType: !764)
!764 = !DIDerivedType(tag: DW_TAG_pointer_type, baseType: !736, size: 64)
!765 = !DIImportedEntity(tag: DW_TAG_imported_declaration, scope: !2, entity: !766, file: !734, line: 108)
!766 = !DISubprogram(name: "fgets", scope: !737, file: !737, line: 592, type: !767, flags: DIFlagPrototyped, spFlags: 0)
!767 = !DISubroutineType(types: !768)
!768 = !{!275, !274, !136, !762}
!769 = !DIImportedEntity(tag: DW_TAG_imported_declaration, scope: !2, entity: !770, file: !734, line: 109)
!770 = !DISubprogram(name: "fopen", scope: !737, file: !737, line: 258, type: !771, flags: DIFlagPrototyped, spFlags: 0)
!771 = !DISubroutineType(types: !772)
!772 = !{!745, !204, !204}
!773 = !DIImportedEntity(tag: DW_TAG_imported_declaration, scope: !2, entity: !774, file: !734, line: 110)
!774 = !DISubprogram(name: "fprintf", scope: !737, file: !737, line: 350, type: !775, flags: DIFlagPrototyped, spFlags: 0)
!775 = !DISubroutineType(types: !776)
!776 = !{!136, !762, !204, null}
!777 = !DIImportedEntity(tag: DW_TAG_imported_declaration, scope: !2, entity: !778, file: !734, line: 111)
!778 = !DISubprogram(name: "fputc", scope: !737, file: !737, line: 549, type: !779, flags: DIFlagPrototyped, spFlags: 0)
!779 = !DISubroutineType(types: !780)
!780 = !{!136, !136, !745}
!781 = !DIImportedEntity(tag: DW_TAG_imported_declaration, scope: !2, entity: !782, file: !734, line: 112)
!782 = !DISubprogram(name: "fputs", scope: !737, file: !737, line: 655, type: !783, flags: DIFlagPrototyped, spFlags: 0)
!783 = !DISubroutineType(types: !784)
!784 = !{!136, !204, !762}
!785 = !DIImportedEntity(tag: DW_TAG_imported_declaration, scope: !2, entity: !786, file: !734, line: 113)
!786 = !DISubprogram(name: "fread", scope: !737, file: !737, line: 675, type: !787, flags: DIFlagPrototyped, spFlags: 0)
!787 = !DISubroutineType(types: !788)
!788 = !{!202, !789, !202, !202, !762}
!789 = !DIDerivedType(tag: DW_TAG_restrict_type, baseType: !33)
!790 = !DIImportedEntity(tag: DW_TAG_imported_declaration, scope: !2, entity: !791, file: !734, line: 114)
!791 = !DISubprogram(name: "freopen", scope: !737, file: !737, line: 265, type: !792, flags: DIFlagPrototyped, spFlags: 0)
!792 = !DISubroutineType(types: !793)
!793 = !{!745, !204, !204, !762}
!794 = !DIImportedEntity(tag: DW_TAG_imported_declaration, scope: !2, entity: !795, file: !734, line: 115)
!795 = !DISubprogram(name: "fscanf", linkageName: "__isoc99_fscanf", scope: !737, file: !737, line: 434, type: !775, flags: DIFlagPrototyped, spFlags: 0)
!796 = !DIImportedEntity(tag: DW_TAG_imported_declaration, scope: !2, entity: !797, file: !734, line: 116)
!797 = !DISubprogram(name: "fseek", scope: !737, file: !737, line: 713, type: !798, flags: DIFlagPrototyped, spFlags: 0)
!798 = !DISubroutineType(types: !799)
!799 = !{!136, !745, !341, !136}
!800 = !DIImportedEntity(tag: DW_TAG_imported_declaration, scope: !2, entity: !801, file: !734, line: 117)
!801 = !DISubprogram(name: "fsetpos", scope: !737, file: !737, line: 765, type: !802, flags: DIFlagPrototyped, spFlags: 0)
!802 = !DISubroutineType(types: !803)
!803 = !{!136, !745, !804}
!804 = !DIDerivedType(tag: DW_TAG_pointer_type, baseType: !805, size: 64)
!805 = !DIDerivedType(tag: DW_TAG_const_type, baseType: !736)
!806 = !DIImportedEntity(tag: DW_TAG_imported_declaration, scope: !2, entity: !807, file: !734, line: 118)
!807 = !DISubprogram(name: "ftell", scope: !737, file: !737, line: 718, type: !808, flags: DIFlagPrototyped, spFlags: 0)
!808 = !DISubroutineType(types: !809)
!809 = !{!341, !745}
!810 = !DIImportedEntity(tag: DW_TAG_imported_declaration, scope: !2, entity: !811, file: !734, line: 119)
!811 = !DISubprogram(name: "fwrite", scope: !737, file: !737, line: 681, type: !812, flags: DIFlagPrototyped, spFlags: 0)
!812 = !DISubroutineType(types: !813)
!813 = !{!202, !814, !202, !202, !762}
!814 = !DIDerivedType(tag: DW_TAG_restrict_type, baseType: !34)
!815 = !DIImportedEntity(tag: DW_TAG_imported_declaration, scope: !2, entity: !816, file: !734, line: 120)
!816 = !DISubprogram(name: "getc", scope: !737, file: !737, line: 514, type: !748, flags: DIFlagPrototyped, spFlags: 0)
!817 = !DIImportedEntity(tag: DW_TAG_imported_declaration, scope: !2, entity: !818, file: !734, line: 121)
!818 = !DISubprogram(name: "getchar", scope: !737, file: !737, line: 520, type: !650, flags: DIFlagPrototyped, spFlags: 0)
!819 = !DIImportedEntity(tag: DW_TAG_imported_declaration, scope: !2, entity: !820, file: !734, line: 124)
!820 = !DISubprogram(name: "gets", scope: !737, file: !737, line: 605, type: !821, flags: DIFlagPrototyped, spFlags: 0)
!821 = !DISubroutineType(types: !822)
!822 = !{!275, !275}
!823 = !DIImportedEntity(tag: DW_TAG_imported_declaration, scope: !2, entity: !824, file: !734, line: 126)
!824 = !DISubprogram(name: "perror", scope: !737, file: !737, line: 804, type: !825, flags: DIFlagPrototyped, spFlags: 0)
!825 = !DISubroutineType(types: !826)
!826 = !{null, !205}
!827 = !DIImportedEntity(tag: DW_TAG_imported_declaration, scope: !2, entity: !828, file: !734, line: 127)
!828 = !DISubprogram(name: "printf", scope: !737, file: !737, line: 356, type: !829, flags: DIFlagPrototyped, spFlags: 0)
!829 = !DISubroutineType(types: !830)
!830 = !{!136, !204, null}
!831 = !DIImportedEntity(tag: DW_TAG_imported_declaration, scope: !2, entity: !832, file: !734, line: 128)
!832 = !DISubprogram(name: "putc", scope: !737, file: !737, line: 550, type: !779, flags: DIFlagPrototyped, spFlags: 0)
!833 = !DIImportedEntity(tag: DW_TAG_imported_declaration, scope: !2, entity: !834, file: !734, line: 129)
!834 = !DISubprogram(name: "putchar", scope: !737, file: !737, line: 556, type: !524, flags: DIFlagPrototyped, spFlags: 0)
!835 = !DIImportedEntity(tag: DW_TAG_imported_declaration, scope: !2, entity: !836, file: !734, line: 130)
!836 = !DISubprogram(name: "puts", scope: !737, file: !737, line: 661, type: !584, flags: DIFlagPrototyped, spFlags: 0)
!837 = !DIImportedEntity(tag: DW_TAG_imported_declaration, scope: !2, entity: !838, file: !734, line: 131)
!838 = !DISubprogram(name: "remove", scope: !737, file: !737, line: 152, type: !584, flags: DIFlagPrototyped, spFlags: 0)
!839 = !DIImportedEntity(tag: DW_TAG_imported_declaration, scope: !2, entity: !840, file: !734, line: 132)
!840 = !DISubprogram(name: "rename", scope: !737, file: !737, line: 154, type: !841, flags: DIFlagPrototyped, spFlags: 0)
!841 = !DISubroutineType(types: !842)
!842 = !{!136, !205, !205}
!843 = !DIImportedEntity(tag: DW_TAG_imported_declaration, scope: !2, entity: !844, file: !734, line: 133)
!844 = !DISubprogram(name: "rewind", scope: !737, file: !737, line: 723, type: !743, flags: DIFlagPrototyped, spFlags: 0)
!845 = !DIImportedEntity(tag: DW_TAG_imported_declaration, scope: !2, entity: !846, file: !734, line: 134)
!846 = !DISubprogram(name: "scanf", linkageName: "__isoc99_scanf", scope: !737, file: !737, line: 437, type: !829, flags: DIFlagPrototyped, spFlags: 0)
!847 = !DIImportedEntity(tag: DW_TAG_imported_declaration, scope: !2, entity: !848, file: !734, line: 135)
!848 = !DISubprogram(name: "setbuf", scope: !737, file: !737, line: 328, type: !849, flags: DIFlagPrototyped, spFlags: 0)
!849 = !DISubroutineType(types: !850)
!850 = !{null, !762, !274}
!851 = !DIImportedEntity(tag: DW_TAG_imported_declaration, scope: !2, entity: !852, file: !734, line: 136)
!852 = !DISubprogram(name: "setvbuf", scope: !737, file: !737, line: 332, type: !853, flags: DIFlagPrototyped, spFlags: 0)
!853 = !DISubroutineType(types: !854)
!854 = !{!136, !762, !274, !136, !202}
!855 = !DIImportedEntity(tag: DW_TAG_imported_declaration, scope: !2, entity: !856, file: !734, line: 137)
!856 = !DISubprogram(name: "sprintf", scope: !737, file: !737, line: 358, type: !857, flags: DIFlagPrototyped, spFlags: 0)
!857 = !DISubroutineType(types: !858)
!858 = !{!136, !274, !204, null}
!859 = !DIImportedEntity(tag: DW_TAG_imported_declaration, scope: !2, entity: !860, file: !734, line: 138)
!860 = !DISubprogram(name: "sscanf", linkageName: "__isoc99_sscanf", scope: !737, file: !737, line: 439, type: !861, flags: DIFlagPrototyped, spFlags: 0)
!861 = !DISubroutineType(types: !862)
!862 = !{!136, !204, !204, null}
!863 = !DIImportedEntity(tag: DW_TAG_imported_declaration, scope: !2, entity: !864, file: !734, line: 139)
!864 = !DISubprogram(name: "tmpfile", scope: !737, file: !737, line: 188, type: !865, flags: DIFlagPrototyped, spFlags: 0)
!865 = !DISubroutineType(types: !866)
!866 = !{!745}
!867 = !DIImportedEntity(tag: DW_TAG_imported_declaration, scope: !2, entity: !868, file: !734, line: 141)
!868 = !DISubprogram(name: "tmpnam", scope: !737, file: !737, line: 205, type: !821, flags: DIFlagPrototyped, spFlags: 0)
!869 = !DIImportedEntity(tag: DW_TAG_imported_declaration, scope: !2, entity: !870, file: !734, line: 143)
!870 = !DISubprogram(name: "ungetc", scope: !737, file: !737, line: 668, type: !779, flags: DIFlagPrototyped, spFlags: 0)
!871 = !DIImportedEntity(tag: DW_TAG_imported_declaration, scope: !2, entity: !872, file: !734, line: 144)
!872 = !DISubprogram(name: "vfprintf", scope: !737, file: !737, line: 365, type: !873, flags: DIFlagPrototyped, spFlags: 0)
!873 = !DISubroutineType(types: !874)
!874 = !{!136, !762, !204, !246}
!875 = !DIImportedEntity(tag: DW_TAG_imported_declaration, scope: !2, entity: !876, file: !734, line: 145)
!876 = !DISubprogram(name: "vprintf", scope: !737, file: !737, line: 371, type: !877, flags: DIFlagPrototyped, spFlags: 0)
!877 = !DISubroutineType(types: !878)
!878 = !{!136, !204, !246}
!879 = !DIImportedEntity(tag: DW_TAG_imported_declaration, scope: !2, entity: !880, file: !734, line: 146)
!880 = !DISubprogram(name: "vsprintf", scope: !737, file: !737, line: 373, type: !881, flags: DIFlagPrototyped, spFlags: 0)
!881 = !DISubroutineType(types: !882)
!882 = !{!136, !274, !204, !246}
!883 = !DIImportedEntity(tag: DW_TAG_imported_declaration, scope: !49, entity: !884, file: !734, line: 175)
!884 = !DISubprogram(name: "snprintf", scope: !737, file: !737, line: 378, type: !885, flags: DIFlagPrototyped, spFlags: 0)
!885 = !DISubroutineType(types: !886)
!886 = !{!136, !274, !202, !204, null}
!887 = !DIImportedEntity(tag: DW_TAG_imported_declaration, scope: !49, entity: !888, file: !734, line: 176)
!888 = !DISubprogram(name: "vfscanf", linkageName: "__isoc99_vfscanf", scope: !737, file: !737, line: 479, type: !873, flags: DIFlagPrototyped, spFlags: 0)
!889 = !DIImportedEntity(tag: DW_TAG_imported_declaration, scope: !49, entity: !890, file: !734, line: 177)
!890 = !DISubprogram(name: "vscanf", linkageName: "__isoc99_vscanf", scope: !737, file: !737, line: 484, type: !877, flags: DIFlagPrototyped, spFlags: 0)
!891 = !DIImportedEntity(tag: DW_TAG_imported_declaration, scope: !49, entity: !892, file: !734, line: 178)
!892 = !DISubprogram(name: "vsnprintf", scope: !737, file: !737, line: 382, type: !893, flags: DIFlagPrototyped, spFlags: 0)
!893 = !DISubroutineType(types: !894)
!894 = !{!136, !274, !202, !204, !246}
!895 = !DIImportedEntity(tag: DW_TAG_imported_declaration, scope: !49, entity: !896, file: !734, line: 179)
!896 = !DISubprogram(name: "vsscanf", linkageName: "__isoc99_vsscanf", scope: !737, file: !737, line: 487, type: !897, flags: DIFlagPrototyped, spFlags: 0)
!897 = !DISubroutineType(types: !898)
!898 = !{!136, !204, !204, !246}
!899 = !DIImportedEntity(tag: DW_TAG_imported_declaration, scope: !2, entity: !884, file: !734, line: 185)
!900 = !DIImportedEntity(tag: DW_TAG_imported_declaration, scope: !2, entity: !888, file: !734, line: 186)
!901 = !DIImportedEntity(tag: DW_TAG_imported_declaration, scope: !2, entity: !890, file: !734, line: 187)
!902 = !DIImportedEntity(tag: DW_TAG_imported_declaration, scope: !2, entity: !892, file: !734, line: 188)
!903 = !DIImportedEntity(tag: DW_TAG_imported_declaration, scope: !2, entity: !896, file: !734, line: 189)
!904 = !DIImportedEntity(tag: DW_TAG_imported_declaration, scope: !2, entity: !905, file: !909, line: 82)
!905 = !DIDerivedType(tag: DW_TAG_typedef, name: "wctrans_t", file: !906, line: 48, baseType: !907)
!906 = !DIFile(filename: "/usr/include/wctype.h", directory: "", checksumkind: CSK_MD5, checksum: "9bcd8e8b8cd2078c8a6c42e262af7d7b")
!907 = !DIDerivedType(tag: DW_TAG_pointer_type, baseType: !908, size: 64)
!908 = !DIDerivedType(tag: DW_TAG_const_type, baseType: !438)
!909 = !DIFile(filename: "/usr/lib/gcc/x86_64-linux-gnu/11/../../../../include/c++/11/cwctype", directory: "")
!910 = !DIImportedEntity(tag: DW_TAG_imported_declaration, scope: !2, entity: !911, file: !909, line: 83)
!911 = !DIDerivedType(tag: DW_TAG_typedef, name: "wctype_t", file: !912, line: 38, baseType: !32)
!912 = !DIFile(filename: "/usr/include/x86_64-linux-gnu/bits/wctype-wchar.h", directory: "", checksumkind: CSK_MD5, checksum: "48fed714a84c77fca0455b433489fc47")
!913 = !DIImportedEntity(tag: DW_TAG_imported_declaration, scope: !2, entity: !148, file: !909, line: 84)
!914 = !DIImportedEntity(tag: DW_TAG_imported_declaration, scope: !2, entity: !915, file: !909, line: 86)
!915 = !DISubprogram(name: "iswalnum", scope: !912, file: !912, line: 95, type: !352, flags: DIFlagPrototyped, spFlags: 0)
!916 = !DIImportedEntity(tag: DW_TAG_imported_declaration, scope: !2, entity: !917, file: !909, line: 87)
!917 = !DISubprogram(name: "iswalpha", scope: !912, file: !912, line: 101, type: !352, flags: DIFlagPrototyped, spFlags: 0)
!918 = !DIImportedEntity(tag: DW_TAG_imported_declaration, scope: !2, entity: !919, file: !909, line: 89)
!919 = !DISubprogram(name: "iswblank", scope: !912, file: !912, line: 146, type: !352, flags: DIFlagPrototyped, spFlags: 0)
!920 = !DIImportedEntity(tag: DW_TAG_imported_declaration, scope: !2, entity: !921, file: !909, line: 91)
!921 = !DISubprogram(name: "iswcntrl", scope: !912, file: !912, line: 104, type: !352, flags: DIFlagPrototyped, spFlags: 0)
!922 = !DIImportedEntity(tag: DW_TAG_imported_declaration, scope: !2, entity: !923, file: !909, line: 92)
!923 = !DISubprogram(name: "iswctype", scope: !912, file: !912, line: 159, type: !924, flags: DIFlagPrototyped, spFlags: 0)
!924 = !DISubroutineType(types: !925)
!925 = !{!136, !148, !911}
!926 = !DIImportedEntity(tag: DW_TAG_imported_declaration, scope: !2, entity: !927, file: !909, line: 93)
!927 = !DISubprogram(name: "iswdigit", scope: !912, file: !912, line: 108, type: !352, flags: DIFlagPrototyped, spFlags: 0)
!928 = !DIImportedEntity(tag: DW_TAG_imported_declaration, scope: !2, entity: !929, file: !909, line: 94)
!929 = !DISubprogram(name: "iswgraph", scope: !912, file: !912, line: 112, type: !352, flags: DIFlagPrototyped, spFlags: 0)
!930 = !DIImportedEntity(tag: DW_TAG_imported_declaration, scope: !2, entity: !931, file: !909, line: 95)
!931 = !DISubprogram(name: "iswlower", scope: !912, file: !912, line: 117, type: !352, flags: DIFlagPrototyped, spFlags: 0)
!932 = !DIImportedEntity(tag: DW_TAG_imported_declaration, scope: !2, entity: !933, file: !909, line: 96)
!933 = !DISubprogram(name: "iswprint", scope: !912, file: !912, line: 120, type: !352, flags: DIFlagPrototyped, spFlags: 0)
!934 = !DIImportedEntity(tag: DW_TAG_imported_declaration, scope: !2, entity: !935, file: !909, line: 97)
!935 = !DISubprogram(name: "iswpunct", scope: !912, file: !912, line: 125, type: !352, flags: DIFlagPrototyped, spFlags: 0)
!936 = !DIImportedEntity(tag: DW_TAG_imported_declaration, scope: !2, entity: !937, file: !909, line: 98)
!937 = !DISubprogram(name: "iswspace", scope: !912, file: !912, line: 130, type: !352, flags: DIFlagPrototyped, spFlags: 0)
!938 = !DIImportedEntity(tag: DW_TAG_imported_declaration, scope: !2, entity: !939, file: !909, line: 99)
!939 = !DISubprogram(name: "iswupper", scope: !912, file: !912, line: 135, type: !352, flags: DIFlagPrototyped, spFlags: 0)
!940 = !DIImportedEntity(tag: DW_TAG_imported_declaration, scope: !2, entity: !941, file: !909, line: 100)
!941 = !DISubprogram(name: "iswxdigit", scope: !912, file: !912, line: 140, type: !352, flags: DIFlagPrototyped, spFlags: 0)
!942 = !DIImportedEntity(tag: DW_TAG_imported_declaration, scope: !2, entity: !943, file: !909, line: 101)
!943 = !DISubprogram(name: "towctrans", scope: !906, file: !906, line: 55, type: !944, flags: DIFlagPrototyped, spFlags: 0)
!944 = !DISubroutineType(types: !945)
!945 = !{!148, !148, !905}
!946 = !DIImportedEntity(tag: DW_TAG_imported_declaration, scope: !2, entity: !947, file: !909, line: 102)
!947 = !DISubprogram(name: "towlower", scope: !912, file: !912, line: 166, type: !948, flags: DIFlagPrototyped, spFlags: 0)
!948 = !DISubroutineType(types: !949)
!949 = !{!148, !148}
!950 = !DIImportedEntity(tag: DW_TAG_imported_declaration, scope: !2, entity: !951, file: !909, line: 103)
!951 = !DISubprogram(name: "towupper", scope: !912, file: !912, line: 169, type: !948, flags: DIFlagPrototyped, spFlags: 0)
!952 = !DIImportedEntity(tag: DW_TAG_imported_declaration, scope: !2, entity: !953, file: !909, line: 104)
!953 = !DISubprogram(name: "wctrans", scope: !906, file: !906, line: 52, type: !954, flags: DIFlagPrototyped, spFlags: 0)
!954 = !DISubroutineType(types: !955)
!955 = !{!905, !205}
!956 = !DIImportedEntity(tag: DW_TAG_imported_declaration, scope: !2, entity: !957, file: !909, line: 105)
!957 = !DISubprogram(name: "wctype", scope: !912, file: !912, line: 155, type: !958, flags: DIFlagPrototyped, spFlags: 0)
!958 = !DISubroutineType(types: !959)
!959 = !{!911, !205}
!960 = !DIImportedEntity(tag: DW_TAG_imported_module, scope: !26, entity: !2, file: !9, line: 26)
!961 = !{i32 7, !"Dwarf Version", i32 5}
!962 = !{i32 2, !"Debug Info Version", i32 3}
!963 = !{i32 1, !"wchar_size", i32 4}
!964 = !{i32 8, !"PIC Level", i32 2}
!965 = !{i32 7, !"PIE Level", i32 2}
!966 = !{i32 7, !"uwtable", i32 2}
!967 = !{i32 7, !"frame-pointer", i32 2}
!968 = !{!"clang version 16.0.0"}
!969 = distinct !DISubprogram(name: "__cxx_global_var_init", scope: !250, file: !250, type: !569, flags: DIFlagArtificial, spFlags: DISPFlagLocalToUnit | DISPFlagDefinition, unit: !26, retainedNodes: !106)
!970 = !DILocation(line: 74, column: 25, scope: !971)
!971 = !DILexicalBlockFile(scope: !969, file: !3, discriminator: 0)
!972 = !DILocation(line: 0, scope: !969)
!973 = distinct !DISubprogram(name: "Set", linkageName: "_ZN8BodyPose3SetEPfi", scope: !974, file: !9, line: 29, type: !976, scopeLine: 30, flags: DIFlagPrototyped, spFlags: DISPFlagDefinition, unit: !26, declaration: !979, retainedNodes: !106)
!974 = !DICompositeType(tag: DW_TAG_class_type, name: "BodyPose", file: !975, line: 50, size: 768, flags: DIFlagFwdDecl | DIFlagNonTrivial, identifier: "_ZTS8BodyPose")
!975 = !DIFile(filename: "../TrackingBenchmark/BodyPose.h", directory: "/home/raj/SVF_PAPER_BENCHMARKS/parsec-3.0/pkgs/apps/bodytrack/src/build", checksumkind: CSK_MD5, checksum: "e13df61e2e7b453f911267c3c565ab23")
!976 = !DISubroutineType(types: !977)
!977 = !{null, !978, !36, !136}
!978 = !DIDerivedType(tag: DW_TAG_pointer_type, baseType: !974, size: 64, flags: DIFlagArtificial | DIFlagObjectPointer)
!979 = !DISubprogram(name: "Set", linkageName: "_ZN8BodyPose3SetEPfi", scope: !974, file: !975, line: 63, type: !976, scopeLine: 63, flags: DIFlagPublic | DIFlagPrototyped, spFlags: 0)
!980 = !DILocalVariable(name: "this", arg: 1, scope: !973, type: !981, flags: DIFlagArtificial | DIFlagObjectPointer)
!981 = !DIDerivedType(tag: DW_TAG_pointer_type, baseType: !974, size: 64)
!982 = !DILocation(line: 0, scope: !973)
!983 = !DILocalVariable(name: "angle_values", arg: 2, scope: !973, file: !9, line: 29, type: !36)
!984 = !DILocation(line: 29, column: 27, scope: !973)
!985 = !DILocalVariable(name: "n", arg: 3, scope: !973, file: !9, line: 29, type: !136)
!986 = !DILocation(line: 29, column: 44, scope: !973)
!987 = !DILocation(line: 30, column: 3, scope: !973)
!988 = !DILocation(line: 30, column: 18, scope: !973)
!989 = !DILocation(line: 30, column: 11, scope: !973)
!990 = !DILocalVariable(name: "i", scope: !991, file: !9, line: 31, type: !136)
!991 = distinct !DILexicalBlock(scope: !973, file: !9, line: 31, column: 2)
!992 = !DILocation(line: 31, column: 10, scope: !991)
!993 = !DILocation(line: 31, column: 6, scope: !991)
!994 = !DILocation(line: 31, column: 14, scope: !995)
!995 = distinct !DILexicalBlock(scope: !991, file: !9, line: 31, column: 2)
!996 = !DILocation(line: 31, column: 16, scope: !995)
!997 = !DILocation(line: 31, column: 15, scope: !995)
!998 = !DILocation(line: 31, column: 2, scope: !991)
!999 = !DILocation(line: 32, column: 16, scope: !995)
!1000 = !DILocation(line: 32, column: 29, scope: !995)
!1001 = !DILocation(line: 32, column: 3, scope: !995)
!1002 = !DILocation(line: 32, column: 11, scope: !995)
!1003 = !DILocation(line: 32, column: 14, scope: !995)
!1004 = !DILocation(line: 31, column: 19, scope: !995)
!1005 = !DILocation(line: 31, column: 2, scope: !995)
!1006 = distinct !{!1006, !998, !1007, !1008}
!1007 = !DILocation(line: 32, column: 30, scope: !991)
!1008 = !{!"llvm.loop.mustprogress"}
!1009 = !DILocation(line: 33, column: 1, scope: !973)
!1010 = distinct !DISubprogram(name: "resize", linkageName: "_ZNSt6vectorIfSaIfEE6resizeEm", scope: !40, file: !29, line: 937, type: !1011, scopeLine: 938, flags: DIFlagPrototyped, spFlags: DISPFlagDefinition, unit: !26, declaration: !1014, retainedNodes: !106)
!1011 = !DISubroutineType(types: !1012)
!1012 = !{null, !1013, !28}
!1013 = !DIDerivedType(tag: DW_TAG_pointer_type, baseType: !40, size: 64, flags: DIFlagArtificial | DIFlagObjectPointer)
!1014 = !DISubprogram(name: "resize", linkageName: "_ZNSt6vectorIfSaIfEE6resizeEm", scope: !40, file: !29, line: 937, type: !1011, scopeLine: 937, flags: DIFlagPublic | DIFlagPrototyped, spFlags: 0)
!1015 = !DILocalVariable(name: "this", arg: 1, scope: !1010, type: !1016, flags: DIFlagArtificial | DIFlagObjectPointer)
!1016 = !DIDerivedType(tag: DW_TAG_pointer_type, baseType: !40, size: 64)
!1017 = !DILocation(line: 0, scope: !1010)
!1018 = !DILocalVariable(name: "__new_size", arg: 2, scope: !1010, file: !29, line: 937, type: !28)
!1019 = !DILocation(line: 937, column: 24, scope: !1010)
!1020 = !DILocation(line: 939, column: 6, scope: !1021)
!1021 = distinct !DILexicalBlock(scope: !1010, file: !29, line: 939, column: 6)
!1022 = !DILocation(line: 939, column: 19, scope: !1021)
!1023 = !DILocation(line: 939, column: 17, scope: !1021)
!1024 = !DILocation(line: 939, column: 6, scope: !1010)
!1025 = !DILocation(line: 940, column: 22, scope: !1021)
!1026 = !DILocation(line: 940, column: 35, scope: !1021)
!1027 = !DILocation(line: 940, column: 33, scope: !1021)
!1028 = !DILocation(line: 940, column: 4, scope: !1021)
!1029 = !DILocation(line: 941, column: 11, scope: !1030)
!1030 = distinct !DILexicalBlock(scope: !1021, file: !29, line: 941, column: 11)
!1031 = !DILocation(line: 941, column: 24, scope: !1030)
!1032 = !DILocation(line: 941, column: 22, scope: !1030)
!1033 = !DILocation(line: 941, column: 11, scope: !1021)
!1034 = !DILocation(line: 942, column: 26, scope: !1030)
!1035 = !DILocation(line: 942, column: 34, scope: !1030)
!1036 = !DILocation(line: 942, column: 45, scope: !1030)
!1037 = !DILocation(line: 942, column: 43, scope: !1030)
!1038 = !DILocation(line: 942, column: 4, scope: !1030)
!1039 = !DILocation(line: 943, column: 7, scope: !1010)
!1040 = distinct !DISubprogram(name: "operator[]", linkageName: "_ZNSt6vectorIfSaIfEEixEm", scope: !40, file: !29, line: 1043, type: !1041, scopeLine: 1044, flags: DIFlagPrototyped, spFlags: DISPFlagDefinition, unit: !26, declaration: !1048, retainedNodes: !106)
!1041 = !DISubroutineType(types: !1042)
!1042 = !{!1043, !1013, !28}
!1043 = !DIDerivedType(tag: DW_TAG_typedef, name: "reference", scope: !40, file: !29, line: 417, baseType: !1044, flags: DIFlagPublic)
!1044 = !DIDerivedType(tag: DW_TAG_typedef, name: "reference", scope: !48, file: !47, line: 62, baseType: !1045)
!1045 = !DIDerivedType(tag: DW_TAG_reference_type, baseType: !1046, size: 64)
!1046 = !DIDerivedType(tag: DW_TAG_typedef, name: "value_type", scope: !48, file: !47, line: 56, baseType: !1047)
!1047 = !DIDerivedType(tag: DW_TAG_typedef, name: "value_type", scope: !52, file: !53, line: 417, baseType: !37)
!1048 = !DISubprogram(name: "operator[]", linkageName: "_ZNSt6vectorIfSaIfEEixEm", scope: !40, file: !29, line: 1043, type: !1041, scopeLine: 1043, flags: DIFlagPublic | DIFlagPrototyped, spFlags: 0)
!1049 = !DILocalVariable(name: "this", arg: 1, scope: !1040, type: !1016, flags: DIFlagArtificial | DIFlagObjectPointer)
!1050 = !DILocation(line: 0, scope: !1040)
!1051 = !DILocalVariable(name: "__n", arg: 2, scope: !1040, file: !29, line: 1043, type: !28)
!1052 = !DILocation(line: 1043, column: 28, scope: !1040)
!1053 = !DILocation(line: 1046, column: 17, scope: !1040)
!1054 = !DILocation(line: 1046, column: 25, scope: !1040)
!1055 = !DILocation(line: 1046, column: 36, scope: !1040)
!1056 = !DILocation(line: 1046, column: 34, scope: !1040)
!1057 = !DILocation(line: 1046, column: 2, scope: !1040)
!1058 = distinct !DISubprogram(name: "Valid", linkageName: "_ZN8BodyPose5ValidER10PoseParams", scope: !974, file: !9, line: 36, type: !1059, scopeLine: 37, flags: DIFlagPrototyped, spFlags: DISPFlagDefinition, unit: !26, declaration: !1063, retainedNodes: !106)
!1059 = !DISubroutineType(types: !1060)
!1060 = !{!94, !978, !1061}
!1061 = !DIDerivedType(tag: DW_TAG_reference_type, baseType: !1062, size: 64)
!1062 = !DICompositeType(tag: DW_TAG_class_type, name: "PoseParams", file: !975, line: 32, size: 576, flags: DIFlagFwdDecl | DIFlagNonTrivial, identifier: "_ZTS10PoseParams")
!1063 = !DISubprogram(name: "Valid", linkageName: "_ZN8BodyPose5ValidER10PoseParams", scope: !974, file: !975, line: 67, type: !1059, scopeLine: 67, flags: DIFlagPublic | DIFlagPrototyped, spFlags: 0)
!1064 = !DILocalVariable(name: "this", arg: 1, scope: !1058, type: !981, flags: DIFlagArtificial | DIFlagObjectPointer)
!1065 = !DILocation(line: 0, scope: !1058)
!1066 = !DILocalVariable(name: "params", arg: 2, scope: !1058, file: !9, line: 36, type: !1061)
!1067 = !DILocation(line: 36, column: 34, scope: !1058)
!1068 = !DILocation(line: 38, column: 2, scope: !1058)
!1069 = distinct !DISubprogram(name: "Initialize", linkageName: "_ZN8BodyPose10InitializeENSt7__cxx1112basic_stringIcSt11char_traitsIcESaIcEEE", scope: !974, file: !9, line: 52, type: !1070, scopeLine: 53, flags: DIFlagPrototyped, spFlags: DISPFlagDefinition, unit: !26, declaration: !1077, retainedNodes: !106)
!1070 = !DISubroutineType(types: !1071)
!1071 = !{!94, !978, !1072}
!1072 = !DIDerivedType(tag: DW_TAG_typedef, name: "string", scope: !2, file: !1073, line: 79, baseType: !1074)
!1073 = !DIFile(filename: "/usr/lib/gcc/x86_64-linux-gnu/11/../../../../include/c++/11/bits/stringfwd.h", directory: "")
!1074 = !DICompositeType(tag: DW_TAG_class_type, name: "basic_string<char, std::char_traits<char>, std::allocator<char> >", scope: !1076, file: !1075, line: 1627, size: 256, flags: DIFlagFwdDecl | DIFlagNonTrivial, identifier: "_ZTSNSt7__cxx1112basic_stringIcSt11char_traitsIcESaIcEEE")
!1075 = !DIFile(filename: "/usr/lib/gcc/x86_64-linux-gnu/11/../../../../include/c++/11/bits/basic_string.tcc", directory: "")
!1076 = !DINamespace(name: "__cxx11", scope: !2, exportSymbols: true)
!1077 = !DISubprogram(name: "Initialize", linkageName: "_ZN8BodyPose10InitializeENSt7__cxx1112basic_stringIcSt11char_traitsIcESaIcEEE", scope: !974, file: !975, line: 57, type: !1070, scopeLine: 57, flags: DIFlagPublic | DIFlagPrototyped, spFlags: 0)
!1078 = !DILocalVariable(name: "this", arg: 1, scope: !1069, type: !981, flags: DIFlagArtificial | DIFlagObjectPointer)
!1079 = !DILocation(line: 0, scope: !1069)
!1080 = !DILocalVariable(name: "fname", arg: 2, scope: !1069, file: !9, line: 52, type: !1072)
!1081 = !DILocation(line: 52, column: 34, scope: !1069)
!1082 = !DILocation(line: 54, column: 2, scope: !1069)
!1083 = !DILocation(line: 54, column: 10, scope: !1069)
!1084 = !DILocalVariable(name: "f", scope: !1069, file: !9, line: 55, type: !1085)
!1085 = !DIDerivedType(tag: DW_TAG_typedef, name: "ifstream", scope: !2, file: !1086, line: 162, baseType: !1087)
!1086 = !DIFile(filename: "/usr/lib/gcc/x86_64-linux-gnu/11/../../../../include/c++/11/iosfwd", directory: "")
!1087 = !DICompositeType(tag: DW_TAG_class_type, name: "basic_ifstream<char, std::char_traits<char> >", scope: !2, file: !1088, line: 1087, size: 4160, flags: DIFlagFwdDecl | DIFlagNonTrivial)
!1088 = !DIFile(filename: "/usr/lib/gcc/x86_64-linux-gnu/11/../../../../include/c++/11/bits/fstream.tcc", directory: "")
!1089 = !DILocation(line: 55, column: 11, scope: !1069)
!1090 = !DILocation(line: 55, column: 19, scope: !1069)
!1091 = !DILocation(line: 56, column: 8, scope: !1092)
!1092 = distinct !DILexicalBlock(scope: !1069, file: !9, line: 56, column: 5)
!1093 = !DILocation(line: 56, column: 5, scope: !1069)
!1094 = !DILocation(line: 57, column: 9, scope: !1095)
!1095 = distinct !DILexicalBlock(scope: !1092, file: !9, line: 57, column: 2)
!1096 = !DILocation(line: 57, column: 50, scope: !1095)
!1097 = !DILocation(line: 57, column: 59, scope: !1095)
!1098 = !DILocation(line: 58, column: 3, scope: !1095)
!1099 = !DILocation(line: 63, column: 1, scope: !1092)
!1100 = !DILocation(line: 63, column: 1, scope: !1069)
!1101 = !DILocalVariable(name: "i", scope: !1102, file: !9, line: 60, type: !136)
!1102 = distinct !DILexicalBlock(scope: !1069, file: !9, line: 60, column: 2)
!1103 = !DILocation(line: 60, column: 10, scope: !1102)
!1104 = !DILocation(line: 60, column: 6, scope: !1102)
!1105 = !DILocation(line: 60, column: 15, scope: !1106)
!1106 = distinct !DILexicalBlock(scope: !1102, file: !9, line: 60, column: 2)
!1107 = !DILocation(line: 60, column: 16, scope: !1106)
!1108 = !DILocation(line: 60, column: 2, scope: !1102)
!1109 = !DILocation(line: 61, column: 8, scope: !1106)
!1110 = !DILocation(line: 61, column: 16, scope: !1106)
!1111 = !DILocation(line: 61, column: 5, scope: !1106)
!1112 = !DILocation(line: 61, column: 3, scope: !1106)
!1113 = !DILocation(line: 60, column: 28, scope: !1106)
!1114 = !DILocation(line: 60, column: 2, scope: !1106)
!1115 = distinct !{!1115, !1108, !1116, !1008}
!1116 = !DILocation(line: 61, column: 17, scope: !1102)
!1117 = !DILocation(line: 62, column: 2, scope: !1069)
!1118 = distinct !DISubprogram(name: "Initialize", linkageName: "_ZN10PoseParams10InitializeENSt7__cxx1112basic_stringIcSt11char_traitsIcESaIcEEE", scope: !1062, file: !9, line: 66, type: !1119, scopeLine: 67, flags: DIFlagPrototyped, spFlags: DISPFlagDefinition, unit: !26, declaration: !1122, retainedNodes: !106)
!1119 = !DISubroutineType(types: !1120)
!1120 = !{!94, !1121, !1072}
!1121 = !DIDerivedType(tag: DW_TAG_pointer_type, baseType: !1062, size: 64, flags: DIFlagArtificial | DIFlagObjectPointer)
!1122 = !DISubprogram(name: "Initialize", linkageName: "_ZN10PoseParams10InitializeENSt7__cxx1112basic_stringIcSt11char_traitsIcESaIcEEE", scope: !1062, file: !975, line: 40, type: !1119, scopeLine: 40, flags: DIFlagPublic | DIFlagPrototyped, spFlags: 0)
!1123 = !DILocalVariable(name: "this", arg: 1, scope: !1118, type: !1124, flags: DIFlagArtificial | DIFlagObjectPointer)
!1124 = !DIDerivedType(tag: DW_TAG_pointer_type, baseType: !1062, size: 64)
!1125 = !DILocation(line: 0, scope: !1118)
!1126 = !DILocalVariable(name: "fname", arg: 2, scope: !1118, file: !9, line: 66, type: !1072)
!1127 = !DILocation(line: 66, column: 36, scope: !1118)
!1128 = !DILocation(line: 68, column: 2, scope: !1118)
!1129 = !DILocation(line: 68, column: 11, scope: !1118)
!1130 = !DILocation(line: 69, column: 2, scope: !1118)
!1131 = !DILocation(line: 69, column: 12, scope: !1118)
!1132 = !DILocation(line: 70, column: 2, scope: !1118)
!1133 = !DILocation(line: 70, column: 12, scope: !1118)
!1134 = !DILocalVariable(name: "f", scope: !1118, file: !9, line: 72, type: !1085)
!1135 = !DILocation(line: 72, column: 11, scope: !1118)
!1136 = !DILocation(line: 72, column: 19, scope: !1118)
!1137 = !DILocation(line: 73, column: 8, scope: !1138)
!1138 = distinct !DILexicalBlock(scope: !1118, file: !9, line: 73, column: 5)
!1139 = !DILocation(line: 73, column: 5, scope: !1118)
!1140 = !DILocation(line: 74, column: 9, scope: !1141)
!1141 = distinct !DILexicalBlock(scope: !1138, file: !9, line: 74, column: 2)
!1142 = !DILocation(line: 74, column: 52, scope: !1141)
!1143 = !DILocation(line: 74, column: 61, scope: !1141)
!1144 = !DILocation(line: 75, column: 3, scope: !1141)
!1145 = !DILocation(line: 84, column: 1, scope: !1138)
!1146 = !DILocation(line: 84, column: 1, scope: !1118)
!1147 = !DILocalVariable(name: "i", scope: !1148, file: !9, line: 77, type: !136)
!1148 = distinct !DILexicalBlock(scope: !1118, file: !9, line: 77, column: 2)
!1149 = !DILocation(line: 77, column: 10, scope: !1148)
!1150 = !DILocation(line: 77, column: 6, scope: !1148)
!1151 = !DILocation(line: 77, column: 15, scope: !1152)
!1152 = distinct !DILexicalBlock(scope: !1148, file: !9, line: 77, column: 2)
!1153 = !DILocation(line: 77, column: 16, scope: !1152)
!1154 = !DILocation(line: 77, column: 2, scope: !1148)
!1155 = !DILocation(line: 78, column: 8, scope: !1152)
!1156 = !DILocation(line: 78, column: 17, scope: !1152)
!1157 = !DILocation(line: 78, column: 5, scope: !1152)
!1158 = !DILocation(line: 78, column: 3, scope: !1152)
!1159 = !DILocation(line: 77, column: 28, scope: !1152)
!1160 = !DILocation(line: 77, column: 2, scope: !1152)
!1161 = distinct !{!1161, !1154, !1162, !1008}
!1162 = !DILocation(line: 78, column: 18, scope: !1148)
!1163 = !DILocalVariable(name: "i", scope: !1164, file: !9, line: 79, type: !136)
!1164 = distinct !DILexicalBlock(scope: !1118, file: !9, line: 79, column: 2)
!1165 = !DILocation(line: 79, column: 10, scope: !1164)
!1166 = !DILocation(line: 79, column: 6, scope: !1164)
!1167 = !DILocation(line: 79, column: 15, scope: !1168)
!1168 = distinct !DILexicalBlock(scope: !1164, file: !9, line: 79, column: 2)
!1169 = !DILocation(line: 79, column: 16, scope: !1168)
!1170 = !DILocation(line: 79, column: 2, scope: !1164)
!1171 = !DILocation(line: 80, column: 8, scope: !1168)
!1172 = !DILocation(line: 80, column: 18, scope: !1168)
!1173 = !DILocation(line: 80, column: 5, scope: !1168)
!1174 = !DILocation(line: 80, column: 3, scope: !1168)
!1175 = !DILocation(line: 79, column: 28, scope: !1168)
!1176 = !DILocation(line: 79, column: 2, scope: !1168)
!1177 = distinct !{!1177, !1170, !1178, !1008}
!1178 = !DILocation(line: 80, column: 19, scope: !1164)
!1179 = !DILocalVariable(name: "i", scope: !1180, file: !9, line: 81, type: !136)
!1180 = distinct !DILexicalBlock(scope: !1118, file: !9, line: 81, column: 2)
!1181 = !DILocation(line: 81, column: 10, scope: !1180)
!1182 = !DILocation(line: 81, column: 6, scope: !1180)
!1183 = !DILocation(line: 81, column: 15, scope: !1184)
!1184 = distinct !DILexicalBlock(scope: !1180, file: !9, line: 81, column: 2)
!1185 = !DILocation(line: 81, column: 16, scope: !1184)
!1186 = !DILocation(line: 81, column: 2, scope: !1180)
!1187 = !DILocation(line: 82, column: 8, scope: !1184)
!1188 = !DILocation(line: 82, column: 18, scope: !1184)
!1189 = !DILocation(line: 82, column: 5, scope: !1184)
!1190 = !DILocation(line: 82, column: 3, scope: !1184)
!1191 = !DILocation(line: 81, column: 28, scope: !1184)
!1192 = !DILocation(line: 81, column: 2, scope: !1184)
!1193 = distinct !{!1193, !1186, !1194, !1008}
!1194 = !DILocation(line: 82, column: 19, scope: !1180)
!1195 = !DILocation(line: 83, column: 2, scope: !1118)
!1196 = distinct !DISubprogram(name: "size", linkageName: "_ZNKSt6vectorIfSaIfEE4sizeEv", scope: !40, file: !29, line: 918, type: !1197, scopeLine: 919, flags: DIFlagPrototyped, spFlags: DISPFlagDefinition, unit: !26, declaration: !1201, retainedNodes: !106)
!1197 = !DISubroutineType(types: !1198)
!1198 = !{!28, !1199}
!1199 = !DIDerivedType(tag: DW_TAG_pointer_type, baseType: !1200, size: 64, flags: DIFlagArtificial | DIFlagObjectPointer)
!1200 = !DIDerivedType(tag: DW_TAG_const_type, baseType: !40)
!1201 = !DISubprogram(name: "size", linkageName: "_ZNKSt6vectorIfSaIfEE4sizeEv", scope: !40, file: !29, line: 918, type: !1197, scopeLine: 918, flags: DIFlagPublic | DIFlagPrototyped, spFlags: 0)
!1202 = !DILocalVariable(name: "this", arg: 1, scope: !1196, type: !1203, flags: DIFlagArtificial | DIFlagObjectPointer)
!1203 = !DIDerivedType(tag: DW_TAG_pointer_type, baseType: !1200, size: 64)
!1204 = !DILocation(line: 0, scope: !1196)
!1205 = !DILocation(line: 919, column: 32, scope: !1196)
!1206 = !DILocation(line: 919, column: 40, scope: !1196)
!1207 = !DILocation(line: 919, column: 58, scope: !1196)
!1208 = !DILocation(line: 919, column: 66, scope: !1196)
!1209 = !DILocation(line: 919, column: 50, scope: !1196)
!1210 = !DILocation(line: 919, column: 9, scope: !1196)
!1211 = distinct !DISubprogram(name: "_M_default_append", linkageName: "_ZNSt6vectorIfSaIfEE17_M_default_appendEm", scope: !40, file: !22, line: 612, type: !1011, scopeLine: 613, flags: DIFlagPrototyped, spFlags: DISPFlagDefinition, unit: !26, declaration: !1212, retainedNodes: !106)
!1212 = !DISubprogram(name: "_M_default_append", linkageName: "_ZNSt6vectorIfSaIfEE17_M_default_appendEm", scope: !40, file: !29, line: 1689, type: !1011, scopeLine: 1689, flags: DIFlagProtected | DIFlagPrototyped, spFlags: 0)
!1213 = !DILocalVariable(name: "this", arg: 1, scope: !1211, type: !1016, flags: DIFlagArtificial | DIFlagObjectPointer)
!1214 = !DILocation(line: 0, scope: !1211)
!1215 = !DILocalVariable(name: "__n", arg: 2, scope: !1211, file: !29, line: 1689, type: !28)
!1216 = !DILocation(line: 1689, column: 35, scope: !1211)
!1217 = !DILocation(line: 614, column: 11, scope: !1218)
!1218 = distinct !DILexicalBlock(scope: !1211, file: !22, line: 614, column: 11)
!1219 = !DILocation(line: 614, column: 15, scope: !1218)
!1220 = !DILocation(line: 614, column: 11, scope: !1211)
!1221 = !DILocalVariable(name: "__size", scope: !1222, file: !22, line: 616, type: !1223)
!1222 = distinct !DILexicalBlock(scope: !1218, file: !22, line: 615, column: 2)
!1223 = !DIDerivedType(tag: DW_TAG_const_type, baseType: !28)
!1224 = !DILocation(line: 616, column: 20, scope: !1222)
!1225 = !DILocation(line: 616, column: 29, scope: !1222)
!1226 = !DILocalVariable(name: "__navail", scope: !1222, file: !22, line: 617, type: !28)
!1227 = !DILocation(line: 617, column: 14, scope: !1222)
!1228 = !DILocation(line: 617, column: 41, scope: !1222)
!1229 = !DILocation(line: 617, column: 49, scope: !1222)
!1230 = !DILocation(line: 618, column: 15, scope: !1222)
!1231 = !DILocation(line: 618, column: 23, scope: !1222)
!1232 = !DILocation(line: 618, column: 7, scope: !1222)
!1233 = !DILocation(line: 620, column: 8, scope: !1234)
!1234 = distinct !DILexicalBlock(scope: !1222, file: !22, line: 620, column: 8)
!1235 = !DILocation(line: 620, column: 17, scope: !1234)
!1236 = !DILocation(line: 620, column: 15, scope: !1234)
!1237 = !DILocation(line: 620, column: 28, scope: !1234)
!1238 = !DILocation(line: 620, column: 31, scope: !1234)
!1239 = !DILocation(line: 620, column: 42, scope: !1234)
!1240 = !DILocation(line: 620, column: 55, scope: !1234)
!1241 = !DILocation(line: 620, column: 53, scope: !1234)
!1242 = !DILocation(line: 620, column: 40, scope: !1234)
!1243 = !DILocation(line: 620, column: 8, scope: !1222)
!1244 = !DILocation(line: 621, column: 6, scope: !1234)
!1245 = !DILocation(line: 623, column: 8, scope: !1246)
!1246 = distinct !DILexicalBlock(scope: !1222, file: !22, line: 623, column: 8)
!1247 = !DILocation(line: 623, column: 20, scope: !1246)
!1248 = !DILocation(line: 623, column: 17, scope: !1246)
!1249 = !DILocation(line: 623, column: 8, scope: !1222)
!1250 = !DILocation(line: 627, column: 42, scope: !1251)
!1251 = distinct !DILexicalBlock(scope: !1246, file: !22, line: 624, column: 6)
!1252 = !DILocation(line: 627, column: 50, scope: !1251)
!1253 = !DILocation(line: 628, column: 8, scope: !1251)
!1254 = !DILocation(line: 628, column: 13, scope: !1251)
!1255 = !DILocation(line: 627, column: 3, scope: !1251)
!1256 = !DILocation(line: 626, column: 14, scope: !1251)
!1257 = !DILocation(line: 626, column: 22, scope: !1251)
!1258 = !DILocation(line: 626, column: 32, scope: !1251)
!1259 = !DILocation(line: 630, column: 6, scope: !1251)
!1260 = !DILocalVariable(name: "__len", scope: !1261, file: !22, line: 633, type: !1223)
!1261 = distinct !DILexicalBlock(scope: !1246, file: !22, line: 632, column: 6)
!1262 = !DILocation(line: 633, column: 24, scope: !1261)
!1263 = !DILocation(line: 634, column: 16, scope: !1261)
!1264 = !DILocation(line: 634, column: 3, scope: !1261)
!1265 = !DILocalVariable(name: "__new_start", scope: !1261, file: !22, line: 635, type: !43)
!1266 = !DILocation(line: 635, column: 16, scope: !1261)
!1267 = !DILocation(line: 635, column: 46, scope: !1261)
!1268 = !DILocation(line: 635, column: 34, scope: !1261)
!1269 = !DILocation(line: 640, column: 42, scope: !1270)
!1270 = distinct !DILexicalBlock(scope: !1271, file: !22, line: 639, column: 7)
!1271 = distinct !DILexicalBlock(scope: !1272, file: !22, line: 637, column: 3)
!1272 = distinct !DILexicalBlock(scope: !1261, file: !22, line: 636, column: 33)
!1273 = !DILocation(line: 640, column: 56, scope: !1270)
!1274 = !DILocation(line: 640, column: 54, scope: !1270)
!1275 = !DILocation(line: 641, column: 10, scope: !1270)
!1276 = !DILocation(line: 641, column: 15, scope: !1270)
!1277 = !DILocation(line: 640, column: 9, scope: !1270)
!1278 = !DILocation(line: 642, column: 7, scope: !1270)
!1279 = !DILocation(line: 683, column: 5, scope: !1270)
!1280 = !DILocation(line: 645, column: 23, scope: !1281)
!1281 = distinct !DILexicalBlock(scope: !1271, file: !22, line: 644, column: 7)
!1282 = !DILocation(line: 645, column: 36, scope: !1281)
!1283 = !DILocation(line: 645, column: 9, scope: !1281)
!1284 = !DILocation(line: 646, column: 9, scope: !1281)
!1285 = !DILocation(line: 683, column: 5, scope: !1281)
!1286 = !DILocation(line: 647, column: 7, scope: !1281)
!1287 = !DILocation(line: 648, column: 23, scope: !1271)
!1288 = !DILocation(line: 648, column: 31, scope: !1271)
!1289 = !DILocation(line: 648, column: 47, scope: !1271)
!1290 = !DILocation(line: 648, column: 55, scope: !1271)
!1291 = !DILocation(line: 649, column: 10, scope: !1271)
!1292 = !DILocation(line: 649, column: 23, scope: !1271)
!1293 = !DILocation(line: 648, column: 5, scope: !1271)
!1294 = !DILocation(line: 675, column: 28, scope: !1261)
!1295 = !DILocation(line: 675, column: 36, scope: !1261)
!1296 = !DILocation(line: 676, column: 14, scope: !1261)
!1297 = !DILocation(line: 676, column: 22, scope: !1261)
!1298 = !DILocation(line: 677, column: 16, scope: !1261)
!1299 = !DILocation(line: 677, column: 24, scope: !1261)
!1300 = !DILocation(line: 677, column: 8, scope: !1261)
!1301 = !DILocation(line: 675, column: 8, scope: !1261)
!1302 = !DILocation(line: 678, column: 33, scope: !1261)
!1303 = !DILocation(line: 678, column: 14, scope: !1261)
!1304 = !DILocation(line: 678, column: 22, scope: !1261)
!1305 = !DILocation(line: 678, column: 31, scope: !1261)
!1306 = !DILocation(line: 679, column: 34, scope: !1261)
!1307 = !DILocation(line: 679, column: 48, scope: !1261)
!1308 = !DILocation(line: 679, column: 46, scope: !1261)
!1309 = !DILocation(line: 679, column: 57, scope: !1261)
!1310 = !DILocation(line: 679, column: 55, scope: !1261)
!1311 = !DILocation(line: 679, column: 14, scope: !1261)
!1312 = !DILocation(line: 679, column: 22, scope: !1261)
!1313 = !DILocation(line: 679, column: 32, scope: !1261)
!1314 = !DILocation(line: 680, column: 42, scope: !1261)
!1315 = !DILocation(line: 680, column: 56, scope: !1261)
!1316 = !DILocation(line: 680, column: 54, scope: !1261)
!1317 = !DILocation(line: 680, column: 14, scope: !1261)
!1318 = !DILocation(line: 680, column: 22, scope: !1261)
!1319 = !DILocation(line: 680, column: 40, scope: !1261)
!1320 = !DILocation(line: 682, column: 2, scope: !1222)
!1321 = !DILocation(line: 683, column: 5, scope: !1211)
!1322 = distinct !DISubprogram(name: "_M_erase_at_end", linkageName: "_ZNSt6vectorIfSaIfEE15_M_erase_at_endEPf", scope: !40, file: !29, line: 1792, type: !1323, scopeLine: 1793, flags: DIFlagPrototyped, spFlags: DISPFlagDefinition, unit: !26, declaration: !1325, retainedNodes: !106)
!1323 = !DISubroutineType(types: !1324)
!1324 = !{null, !1013, !43}
!1325 = !DISubprogram(name: "_M_erase_at_end", linkageName: "_ZNSt6vectorIfSaIfEE15_M_erase_at_endEPf", scope: !40, file: !29, line: 1792, type: !1323, scopeLine: 1792, flags: DIFlagProtected | DIFlagPrototyped, spFlags: 0)
!1326 = !DILocalVariable(name: "this", arg: 1, scope: !1322, type: !1016, flags: DIFlagArtificial | DIFlagObjectPointer)
!1327 = !DILocation(line: 0, scope: !1322)
!1328 = !DILocalVariable(name: "__pos", arg: 2, scope: !1322, file: !29, line: 1792, type: !43)
!1329 = !DILocation(line: 1792, column: 31, scope: !1322)
!1330 = !DILocalVariable(name: "__n", scope: !1331, file: !29, line: 1794, type: !28)
!1331 = distinct !DILexicalBlock(scope: !1322, file: !29, line: 1794, column: 16)
!1332 = !DILocation(line: 1794, column: 16, scope: !1331)
!1333 = !DILocation(line: 1794, column: 28, scope: !1331)
!1334 = !DILocation(line: 1794, column: 36, scope: !1331)
!1335 = !DILocation(line: 1794, column: 48, scope: !1331)
!1336 = !DILocation(line: 1794, column: 46, scope: !1331)
!1337 = !DILocation(line: 1794, column: 16, scope: !1322)
!1338 = !DILocation(line: 1796, column: 20, scope: !1339)
!1339 = distinct !DILexicalBlock(scope: !1331, file: !29, line: 1795, column: 4)
!1340 = !DILocation(line: 1796, column: 33, scope: !1339)
!1341 = !DILocation(line: 1796, column: 41, scope: !1339)
!1342 = !DILocation(line: 1797, column: 6, scope: !1339)
!1343 = !DILocation(line: 1796, column: 6, scope: !1339)
!1344 = !DILocation(line: 1798, column: 32, scope: !1339)
!1345 = !DILocation(line: 1798, column: 12, scope: !1339)
!1346 = !DILocation(line: 1798, column: 20, scope: !1339)
!1347 = !DILocation(line: 1798, column: 30, scope: !1339)
!1348 = !DILocation(line: 1800, column: 4, scope: !1339)
!1349 = !DILocation(line: 1801, column: 7, scope: !1322)
!1350 = distinct !DISubprogram(name: "max_size", linkageName: "_ZNKSt6vectorIfSaIfEE8max_sizeEv", scope: !40, file: !29, line: 923, type: !1197, scopeLine: 924, flags: DIFlagPrototyped, spFlags: DISPFlagDefinition, unit: !26, declaration: !1351, retainedNodes: !106)
!1351 = !DISubprogram(name: "max_size", linkageName: "_ZNKSt6vectorIfSaIfEE8max_sizeEv", scope: !40, file: !29, line: 923, type: !1197, scopeLine: 923, flags: DIFlagPublic | DIFlagPrototyped, spFlags: 0)
!1352 = !DILocalVariable(name: "this", arg: 1, scope: !1350, type: !1203, flags: DIFlagArtificial | DIFlagObjectPointer)
!1353 = !DILocation(line: 0, scope: !1350)
!1354 = !DILocation(line: 924, column: 28, scope: !1350)
!1355 = !DILocation(line: 924, column: 16, scope: !1350)
!1356 = !DILocation(line: 924, column: 9, scope: !1350)
!1357 = distinct !DISubprogram(name: "__uninitialized_default_n_a<float *, unsigned long, float>", linkageName: "_ZSt27__uninitialized_default_n_aIPfmfET_S1_T0_RSaIT1_E", scope: !2, file: !1358, line: 702, type: !1359, scopeLine: 704, flags: DIFlagPrototyped, spFlags: DISPFlagDefinition, unit: !26, templateParams: !1361, retainedNodes: !106)
!1358 = !DIFile(filename: "/usr/lib/gcc/x86_64-linux-gnu/11/../../../../include/c++/11/bits/stl_uninitialized.h", directory: "", checksumkind: CSK_MD5, checksum: "e5b2dfda2795d428e8e4a9ac15177146")
!1359 = !DISubroutineType(types: !1360)
!1360 = !{!36, !36, !32, !90}
!1361 = !{!1362, !1363, !108}
!1362 = !DITemplateTypeParameter(name: "_ForwardIterator", type: !36)
!1363 = !DITemplateTypeParameter(name: "_Size", type: !32)
!1364 = !DILocalVariable(name: "__first", arg: 1, scope: !1357, file: !1358, line: 702, type: !36)
!1365 = !DILocation(line: 702, column: 50, scope: !1357)
!1366 = !DILocalVariable(name: "__n", arg: 2, scope: !1357, file: !1358, line: 702, type: !32)
!1367 = !DILocation(line: 702, column: 65, scope: !1357)
!1368 = !DILocalVariable(arg: 3, scope: !1357, file: !1358, line: 703, type: !90)
!1369 = !DILocation(line: 703, column: 20, scope: !1357)
!1370 = !DILocation(line: 704, column: 45, scope: !1357)
!1371 = !DILocation(line: 704, column: 54, scope: !1357)
!1372 = !DILocation(line: 704, column: 14, scope: !1357)
!1373 = !DILocation(line: 704, column: 7, scope: !1357)
!1374 = distinct !DISubprogram(name: "_M_get_Tp_allocator", linkageName: "_ZNSt12_Vector_baseIfSaIfEE19_M_get_Tp_allocatorEv", scope: !45, file: !29, line: 276, type: !1375, scopeLine: 277, flags: DIFlagPrototyped, spFlags: DISPFlagDefinition, unit: !26, declaration: !1379, retainedNodes: !106)
!1375 = !DISubroutineType(types: !1376)
!1376 = !{!1377, !1378}
!1377 = !DIDerivedType(tag: DW_TAG_reference_type, baseType: !103, size: 64)
!1378 = !DIDerivedType(tag: DW_TAG_pointer_type, baseType: !45, size: 64, flags: DIFlagArtificial | DIFlagObjectPointer)
!1379 = !DISubprogram(name: "_M_get_Tp_allocator", linkageName: "_ZNSt12_Vector_baseIfSaIfEE19_M_get_Tp_allocatorEv", scope: !45, file: !29, line: 276, type: !1375, scopeLine: 276, flags: DIFlagPrototyped, spFlags: 0)
!1380 = !DILocalVariable(name: "this", arg: 1, scope: !1374, type: !1381, flags: DIFlagArtificial | DIFlagObjectPointer)
!1381 = !DIDerivedType(tag: DW_TAG_pointer_type, baseType: !45, size: 64)
!1382 = !DILocation(line: 0, scope: !1374)
!1383 = !DILocation(line: 277, column: 22, scope: !1374)
!1384 = !DILocation(line: 277, column: 9, scope: !1374)
!1385 = distinct !DISubprogram(name: "_M_check_len", linkageName: "_ZNKSt6vectorIfSaIfEE12_M_check_lenEmPKc", scope: !40, file: !29, line: 1756, type: !1386, scopeLine: 1757, flags: DIFlagPrototyped, spFlags: DISPFlagDefinition, unit: !26, declaration: !1389, retainedNodes: !106)
!1386 = !DISubroutineType(types: !1387)
!1387 = !{!1388, !1199, !28, !205}
!1388 = !DIDerivedType(tag: DW_TAG_typedef, name: "size_type", scope: !40, file: !29, line: 424, baseType: !30, flags: DIFlagPublic)
!1389 = !DISubprogram(name: "_M_check_len", linkageName: "_ZNKSt6vectorIfSaIfEE12_M_check_lenEmPKc", scope: !40, file: !29, line: 1756, type: !1386, scopeLine: 1756, flags: DIFlagProtected | DIFlagPrototyped, spFlags: 0)
!1390 = !DILocalVariable(name: "this", arg: 1, scope: !1385, type: !1203, flags: DIFlagArtificial | DIFlagObjectPointer)
!1391 = !DILocation(line: 0, scope: !1385)
!1392 = !DILocalVariable(name: "__n", arg: 2, scope: !1385, file: !29, line: 1756, type: !28)
!1393 = !DILocation(line: 1756, column: 30, scope: !1385)
!1394 = !DILocalVariable(name: "__s", arg: 3, scope: !1385, file: !29, line: 1756, type: !205)
!1395 = !DILocation(line: 1756, column: 47, scope: !1385)
!1396 = !DILocation(line: 1758, column: 6, scope: !1397)
!1397 = distinct !DILexicalBlock(scope: !1385, file: !29, line: 1758, column: 6)
!1398 = !DILocation(line: 1758, column: 19, scope: !1397)
!1399 = !DILocation(line: 1758, column: 17, scope: !1397)
!1400 = !DILocation(line: 1758, column: 28, scope: !1397)
!1401 = !DILocation(line: 1758, column: 26, scope: !1397)
!1402 = !DILocation(line: 1758, column: 6, scope: !1385)
!1403 = !DILocation(line: 1759, column: 25, scope: !1397)
!1404 = !DILocation(line: 1759, column: 4, scope: !1397)
!1405 = !DILocalVariable(name: "__len", scope: !1385, file: !29, line: 1761, type: !1223)
!1406 = !DILocation(line: 1761, column: 18, scope: !1385)
!1407 = !DILocation(line: 1761, column: 26, scope: !1385)
!1408 = !DILocation(line: 1761, column: 46, scope: !1385)
!1409 = !DILocation(line: 1761, column: 35, scope: !1385)
!1410 = !DILocation(line: 1761, column: 33, scope: !1385)
!1411 = !DILocation(line: 1762, column: 10, scope: !1385)
!1412 = !DILocation(line: 1762, column: 18, scope: !1385)
!1413 = !DILocation(line: 1762, column: 16, scope: !1385)
!1414 = !DILocation(line: 1762, column: 25, scope: !1385)
!1415 = !DILocation(line: 1762, column: 28, scope: !1385)
!1416 = !DILocation(line: 1762, column: 36, scope: !1385)
!1417 = !DILocation(line: 1762, column: 34, scope: !1385)
!1418 = !DILocation(line: 1762, column: 9, scope: !1385)
!1419 = !DILocation(line: 1762, column: 50, scope: !1385)
!1420 = !DILocation(line: 1762, column: 63, scope: !1385)
!1421 = !DILocation(line: 1762, column: 2, scope: !1385)
!1422 = distinct !DISubprogram(name: "_M_allocate", linkageName: "_ZNSt12_Vector_baseIfSaIfEE11_M_allocateEm", scope: !45, file: !29, line: 343, type: !1423, scopeLine: 344, flags: DIFlagPrototyped, spFlags: DISPFlagDefinition, unit: !26, declaration: !1425, retainedNodes: !106)
!1423 = !DISubroutineType(types: !1424)
!1424 = !{!44, !1378, !30}
!1425 = !DISubprogram(name: "_M_allocate", linkageName: "_ZNSt12_Vector_baseIfSaIfEE11_M_allocateEm", scope: !45, file: !29, line: 343, type: !1423, scopeLine: 343, flags: DIFlagPrototyped, spFlags: 0)
!1426 = !DILocalVariable(name: "this", arg: 1, scope: !1422, type: !1381, flags: DIFlagArtificial | DIFlagObjectPointer)
!1427 = !DILocation(line: 0, scope: !1422)
!1428 = !DILocalVariable(name: "__n", arg: 2, scope: !1422, file: !29, line: 343, type: !30)
!1429 = !DILocation(line: 343, column: 26, scope: !1422)
!1430 = !DILocation(line: 346, column: 9, scope: !1422)
!1431 = !DILocation(line: 346, column: 13, scope: !1422)
!1432 = !DILocation(line: 346, column: 34, scope: !1422)
!1433 = !DILocation(line: 346, column: 43, scope: !1422)
!1434 = !DILocation(line: 346, column: 20, scope: !1422)
!1435 = !DILocation(line: 346, column: 2, scope: !1422)
!1436 = distinct !DISubprogram(name: "_M_deallocate", linkageName: "_ZNSt12_Vector_baseIfSaIfEE13_M_deallocateEPfm", scope: !45, file: !29, line: 350, type: !1437, scopeLine: 351, flags: DIFlagPrototyped, spFlags: DISPFlagDefinition, unit: !26, declaration: !1439, retainedNodes: !106)
!1437 = !DISubroutineType(types: !1438)
!1438 = !{null, !1378, !44, !30}
!1439 = !DISubprogram(name: "_M_deallocate", linkageName: "_ZNSt12_Vector_baseIfSaIfEE13_M_deallocateEPfm", scope: !45, file: !29, line: 350, type: !1437, scopeLine: 350, flags: DIFlagPrototyped, spFlags: 0)
!1440 = !DILocalVariable(name: "this", arg: 1, scope: !1436, type: !1381, flags: DIFlagArtificial | DIFlagObjectPointer)
!1441 = !DILocation(line: 0, scope: !1436)
!1442 = !DILocalVariable(name: "__p", arg: 2, scope: !1436, file: !29, line: 350, type: !44)
!1443 = !DILocation(line: 350, column: 29, scope: !1436)
!1444 = !DILocalVariable(name: "__n", arg: 3, scope: !1436, file: !29, line: 350, type: !30)
!1445 = !DILocation(line: 350, column: 41, scope: !1436)
!1446 = !DILocation(line: 353, column: 6, scope: !1447)
!1447 = distinct !DILexicalBlock(scope: !1436, file: !29, line: 353, column: 6)
!1448 = !DILocation(line: 353, column: 6, scope: !1436)
!1449 = !DILocation(line: 354, column: 20, scope: !1447)
!1450 = !DILocation(line: 354, column: 29, scope: !1447)
!1451 = !DILocation(line: 354, column: 34, scope: !1447)
!1452 = !DILocation(line: 354, column: 4, scope: !1447)
!1453 = !DILocation(line: 355, column: 7, scope: !1436)
!1454 = !DILocalVariable(name: "__first", arg: 1, scope: !39, file: !29, line: 465, type: !43)
!1455 = !DILocation(line: 465, column: 27, scope: !39)
!1456 = !DILocalVariable(name: "__last", arg: 2, scope: !39, file: !29, line: 465, type: !43)
!1457 = !DILocation(line: 465, column: 44, scope: !39)
!1458 = !DILocalVariable(name: "__result", arg: 3, scope: !39, file: !29, line: 465, type: !43)
!1459 = !DILocation(line: 465, column: 60, scope: !39)
!1460 = !DILocalVariable(name: "__alloc", arg: 4, scope: !39, file: !29, line: 466, type: !101)
!1461 = !DILocation(line: 466, column: 21, scope: !39)
!1462 = !DILocation(line: 469, column: 24, scope: !39)
!1463 = !DILocation(line: 469, column: 33, scope: !39)
!1464 = !DILocation(line: 469, column: 41, scope: !39)
!1465 = !DILocation(line: 469, column: 51, scope: !39)
!1466 = !DILocation(line: 469, column: 9, scope: !39)
!1467 = !DILocation(line: 469, column: 2, scope: !39)
!1468 = distinct !DISubprogram(name: "_S_max_size", linkageName: "_ZNSt6vectorIfSaIfEE11_S_max_sizeERKS0_", scope: !40, file: !29, line: 1776, type: !1469, scopeLine: 1777, flags: DIFlagPrototyped, spFlags: DISPFlagDefinition, unit: !26, declaration: !1473, retainedNodes: !106)
!1469 = !DISubroutineType(types: !1470)
!1470 = !{!1388, !1471}
!1471 = !DIDerivedType(tag: DW_TAG_reference_type, baseType: !1472, size: 64)
!1472 = !DIDerivedType(tag: DW_TAG_const_type, baseType: !102)
!1473 = !DISubprogram(name: "_S_max_size", linkageName: "_ZNSt6vectorIfSaIfEE11_S_max_sizeERKS0_", scope: !40, file: !29, line: 1776, type: !1469, scopeLine: 1776, flags: DIFlagProtected | DIFlagPrototyped | DIFlagStaticMember, spFlags: 0)
!1474 = !DILocalVariable(name: "__a", arg: 1, scope: !1468, file: !29, line: 1776, type: !1471)
!1475 = !DILocation(line: 1776, column: 41, scope: !1468)
!1476 = !DILocalVariable(name: "__diffmax", scope: !1468, file: !29, line: 1781, type: !1477)
!1477 = !DIDerivedType(tag: DW_TAG_const_type, baseType: !30)
!1478 = !DILocation(line: 1781, column: 15, scope: !1468)
!1479 = !DILocalVariable(name: "__allocmax", scope: !1468, file: !29, line: 1783, type: !1477)
!1480 = !DILocation(line: 1783, column: 15, scope: !1468)
!1481 = !DILocation(line: 1783, column: 52, scope: !1468)
!1482 = !DILocation(line: 1783, column: 28, scope: !1468)
!1483 = !DILocation(line: 1784, column: 9, scope: !1468)
!1484 = !DILocation(line: 1784, column: 2, scope: !1468)
!1485 = distinct !DISubprogram(name: "_M_get_Tp_allocator", linkageName: "_ZNKSt12_Vector_baseIfSaIfEE19_M_get_Tp_allocatorEv", scope: !45, file: !29, line: 280, type: !1486, scopeLine: 281, flags: DIFlagPrototyped, spFlags: DISPFlagDefinition, unit: !26, declaration: !1492, retainedNodes: !106)
!1486 = !DISubroutineType(types: !1487)
!1487 = !{!1488, !1490}
!1488 = !DIDerivedType(tag: DW_TAG_reference_type, baseType: !1489, size: 64)
!1489 = !DIDerivedType(tag: DW_TAG_const_type, baseType: !103)
!1490 = !DIDerivedType(tag: DW_TAG_pointer_type, baseType: !1491, size: 64, flags: DIFlagArtificial | DIFlagObjectPointer)
!1491 = !DIDerivedType(tag: DW_TAG_const_type, baseType: !45)
!1492 = !DISubprogram(name: "_M_get_Tp_allocator", linkageName: "_ZNKSt12_Vector_baseIfSaIfEE19_M_get_Tp_allocatorEv", scope: !45, file: !29, line: 280, type: !1486, scopeLine: 280, flags: DIFlagPrototyped, spFlags: 0)
!1493 = !DILocalVariable(name: "this", arg: 1, scope: !1485, type: !1494, flags: DIFlagArtificial | DIFlagObjectPointer)
!1494 = !DIDerivedType(tag: DW_TAG_pointer_type, baseType: !1491, size: 64)
!1495 = !DILocation(line: 0, scope: !1485)
!1496 = !DILocation(line: 281, column: 22, scope: !1485)
!1497 = !DILocation(line: 281, column: 9, scope: !1485)
!1498 = distinct !DISubprogram(name: "max_size", linkageName: "_ZNSt16allocator_traitsISaIfEE8max_sizeERKS0_", scope: !52, file: !53, line: 547, type: !72, scopeLine: 548, flags: DIFlagPrototyped, spFlags: DISPFlagDefinition, unit: !26, declaration: !71, retainedNodes: !106)
!1499 = !DILocalVariable(name: "__a", arg: 1, scope: !1498, file: !53, line: 547, type: !75)
!1500 = !DILocation(line: 547, column: 38, scope: !1498)
!1501 = !DILocation(line: 550, column: 9, scope: !1498)
!1502 = !DILocation(line: 550, column: 13, scope: !1498)
!1503 = !DILocation(line: 550, column: 2, scope: !1498)
!1504 = distinct !DISubprogram(name: "min<unsigned long>", linkageName: "_ZSt3minImERKT_S2_S2_", scope: !2, file: !1505, line: 230, type: !1506, scopeLine: 231, flags: DIFlagPrototyped, spFlags: DISPFlagDefinition, unit: !26, templateParams: !1510, retainedNodes: !106)
!1505 = !DIFile(filename: "/usr/lib/gcc/x86_64-linux-gnu/11/../../../../include/c++/11/bits/stl_algobase.h", directory: "", checksumkind: CSK_MD5, checksum: "906433670cd4a8daf96f73a1b6f6012b")
!1506 = !DISubroutineType(types: !1507)
!1507 = !{!1508, !1508, !1508}
!1508 = !DIDerivedType(tag: DW_TAG_reference_type, baseType: !1509, size: 64)
!1509 = !DIDerivedType(tag: DW_TAG_const_type, baseType: !32)
!1510 = !{!1511}
!1511 = !DITemplateTypeParameter(name: "_Tp", type: !32)
!1512 = !DILocalVariable(name: "__a", arg: 1, scope: !1504, file: !1505, line: 230, type: !1508)
!1513 = !DILocation(line: 230, column: 20, scope: !1504)
!1514 = !DILocalVariable(name: "__b", arg: 2, scope: !1504, file: !1505, line: 230, type: !1508)
!1515 = !DILocation(line: 230, column: 36, scope: !1504)
!1516 = !DILocation(line: 235, column: 11, scope: !1517)
!1517 = distinct !DILexicalBlock(scope: !1504, file: !1505, line: 235, column: 11)
!1518 = !DILocation(line: 235, column: 17, scope: !1517)
!1519 = !DILocation(line: 235, column: 15, scope: !1517)
!1520 = !DILocation(line: 235, column: 11, scope: !1504)
!1521 = !DILocation(line: 236, column: 9, scope: !1517)
!1522 = !DILocation(line: 236, column: 2, scope: !1517)
!1523 = !DILocation(line: 237, column: 14, scope: !1504)
!1524 = !DILocation(line: 237, column: 7, scope: !1504)
!1525 = !DILocation(line: 238, column: 5, scope: !1504)
!1526 = distinct !DISubprogram(name: "max_size", linkageName: "_ZNK9__gnu_cxx13new_allocatorIfE8max_sizeEv", scope: !1528, file: !1527, line: 154, type: !1529, scopeLine: 155, flags: DIFlagPrototyped, spFlags: DISPFlagDefinition, unit: !26, declaration: !1534, retainedNodes: !106)
!1527 = !DIFile(filename: "/usr/lib/gcc/x86_64-linux-gnu/11/../../../../include/c++/11/ext/new_allocator.h", directory: "", checksumkind: CSK_MD5, checksum: "4493add5a3fa57e0ec30b90cd4e81c11")
!1528 = !DICompositeType(tag: DW_TAG_class_type, name: "new_allocator<float>", scope: !49, file: !1527, line: 55, size: 8, flags: DIFlagFwdDecl | DIFlagNonTrivial, identifier: "_ZTSN9__gnu_cxx13new_allocatorIfEE")
!1529 = !DISubroutineType(types: !1530)
!1530 = !{!1531, !1532}
!1531 = !DIDerivedType(tag: DW_TAG_typedef, name: "size_type", file: !1527, line: 59, baseType: !30, flags: DIFlagPublic)
!1532 = !DIDerivedType(tag: DW_TAG_pointer_type, baseType: !1533, size: 64, flags: DIFlagArtificial | DIFlagObjectPointer)
!1533 = !DIDerivedType(tag: DW_TAG_const_type, baseType: !1528)
!1534 = !DISubprogram(name: "max_size", linkageName: "_ZNK9__gnu_cxx13new_allocatorIfE8max_sizeEv", scope: !1528, file: !1527, line: 154, type: !1529, scopeLine: 154, flags: DIFlagPublic | DIFlagPrototyped, spFlags: 0)
!1535 = !DILocalVariable(name: "this", arg: 1, scope: !1526, type: !1536, flags: DIFlagArtificial | DIFlagObjectPointer)
!1536 = !DIDerivedType(tag: DW_TAG_pointer_type, baseType: !1533, size: 64)
!1537 = !DILocation(line: 0, scope: !1526)
!1538 = !DILocation(line: 155, column: 16, scope: !1526)
!1539 = !DILocation(line: 155, column: 9, scope: !1526)
!1540 = distinct !DISubprogram(name: "_M_max_size", linkageName: "_ZNK9__gnu_cxx13new_allocatorIfE11_M_max_sizeEv", scope: !1528, file: !1527, line: 197, type: !1529, scopeLine: 198, flags: DIFlagPrototyped, spFlags: DISPFlagDefinition, unit: !26, declaration: !1541, retainedNodes: !106)
!1541 = !DISubprogram(name: "_M_max_size", linkageName: "_ZNK9__gnu_cxx13new_allocatorIfE11_M_max_sizeEv", scope: !1528, file: !1527, line: 197, type: !1529, scopeLine: 197, flags: DIFlagPrototyped, spFlags: 0)
!1542 = !DILocalVariable(name: "this", arg: 1, scope: !1540, type: !1536, flags: DIFlagArtificial | DIFlagObjectPointer)
!1543 = !DILocation(line: 0, scope: !1540)
!1544 = !DILocation(line: 200, column: 2, scope: !1540)
!1545 = distinct !DISubprogram(name: "__uninitialized_default_n<float *, unsigned long>", linkageName: "_ZSt25__uninitialized_default_nIPfmET_S1_T0_", scope: !2, file: !1358, line: 630, type: !1546, scopeLine: 631, flags: DIFlagPrototyped, spFlags: DISPFlagDefinition, unit: !26, templateParams: !1548, retainedNodes: !106)
!1546 = !DISubroutineType(types: !1547)
!1547 = !{!36, !36, !32}
!1548 = !{!1362, !1363}
!1549 = !DILocalVariable(name: "__first", arg: 1, scope: !1545, file: !1358, line: 630, type: !36)
!1550 = !DILocation(line: 630, column: 48, scope: !1545)
!1551 = !DILocalVariable(name: "__n", arg: 2, scope: !1545, file: !1358, line: 630, type: !32)
!1552 = !DILocation(line: 630, column: 63, scope: !1545)
!1553 = !DILocalVariable(name: "__can_fill", scope: !1545, file: !1358, line: 635, type: !116)
!1554 = !DILocation(line: 635, column: 22, scope: !1545)
!1555 = !DILocation(line: 640, column: 21, scope: !1545)
!1556 = !DILocation(line: 640, column: 30, scope: !1545)
!1557 = !DILocation(line: 638, column: 14, scope: !1545)
!1558 = !DILocation(line: 638, column: 7, scope: !1545)
!1559 = distinct !DISubprogram(name: "__uninit_default_n<float *, unsigned long>", linkageName: "_ZNSt27__uninitialized_default_n_1ILb1EE18__uninit_default_nIPfmEET_S3_T0_", scope: !1560, file: !1358, line: 595, type: !1546, scopeLine: 596, flags: DIFlagPrototyped, spFlags: DISPFlagDefinition, unit: !26, templateParams: !1548, declaration: !1563, retainedNodes: !106)
!1560 = distinct !DICompositeType(tag: DW_TAG_structure_type, name: "__uninitialized_default_n_1<true>", scope: !2, file: !1358, line: 591, size: 8, flags: DIFlagTypePassByValue, elements: !106, templateParams: !1561, identifier: "_ZTSSt27__uninitialized_default_n_1ILb1EE")
!1561 = !{!1562}
!1562 = !DITemplateValueParameter(name: "_TrivialValueType", type: !94, value: i8 1)
!1563 = !DISubprogram(name: "__uninit_default_n<float *, unsigned long>", linkageName: "_ZNSt27__uninitialized_default_n_1ILb1EE18__uninit_default_nIPfmEET_S3_T0_", scope: !1560, file: !1358, line: 595, type: !1546, scopeLine: 595, flags: DIFlagPrototyped | DIFlagStaticMember, spFlags: 0, templateParams: !1548)
!1564 = !DILocalVariable(name: "__first", arg: 1, scope: !1559, file: !1358, line: 595, type: !36)
!1565 = !DILocation(line: 595, column: 45, scope: !1559)
!1566 = !DILocalVariable(name: "__n", arg: 2, scope: !1559, file: !1358, line: 595, type: !32)
!1567 = !DILocation(line: 595, column: 60, scope: !1559)
!1568 = !DILocation(line: 597, column: 8, scope: !1569)
!1569 = distinct !DILexicalBlock(scope: !1559, file: !1358, line: 597, column: 8)
!1570 = !DILocation(line: 597, column: 12, scope: !1569)
!1571 = !DILocation(line: 597, column: 8, scope: !1559)
!1572 = !DILocalVariable(name: "__val", scope: !1573, file: !1358, line: 599, type: !1574)
!1573 = distinct !DILexicalBlock(scope: !1569, file: !1358, line: 598, column: 6)
!1574 = !DIDerivedType(tag: DW_TAG_pointer_type, baseType: !1575, size: 64)
!1575 = !DIDerivedType(tag: DW_TAG_typedef, name: "value_type", scope: !1577, file: !1576, line: 213, baseType: !37)
!1576 = !DIFile(filename: "/usr/lib/gcc/x86_64-linux-gnu/11/../../../../include/c++/11/bits/stl_iterator_base_types.h", directory: "")
!1577 = distinct !DICompositeType(tag: DW_TAG_structure_type, name: "iterator_traits<float *>", scope: !2, file: !1576, line: 210, size: 8, flags: DIFlagTypePassByValue, elements: !106, templateParams: !1578, identifier: "_ZTSSt15iterator_traitsIPfE")
!1578 = !{!1579}
!1579 = !DITemplateTypeParameter(name: "_Iterator", type: !36)
!1580 = !DILocation(line: 599, column: 64, scope: !1573)
!1581 = !DILocation(line: 600, column: 23, scope: !1573)
!1582 = !DILocation(line: 601, column: 24, scope: !1573)
!1583 = !DILocation(line: 601, column: 8, scope: !1573)
!1584 = !DILocation(line: 602, column: 8, scope: !1573)
!1585 = !DILocation(line: 603, column: 30, scope: !1573)
!1586 = !DILocation(line: 603, column: 39, scope: !1573)
!1587 = !DILocation(line: 603, column: 43, scope: !1573)
!1588 = !DILocation(line: 603, column: 49, scope: !1573)
!1589 = !DILocation(line: 603, column: 18, scope: !1573)
!1590 = !DILocation(line: 603, column: 16, scope: !1573)
!1591 = !DILocation(line: 604, column: 6, scope: !1573)
!1592 = !DILocation(line: 605, column: 11, scope: !1559)
!1593 = !DILocation(line: 605, column: 4, scope: !1559)
!1594 = distinct !DISubprogram(name: "_Construct<float>", linkageName: "_ZSt10_ConstructIfJEEvPT_DpOT0_", scope: !2, file: !1595, line: 109, type: !1596, scopeLine: 110, flags: DIFlagPrototyped, spFlags: DISPFlagDefinition, unit: !26, templateParams: !1598, retainedNodes: !106)
!1595 = !DIFile(filename: "/usr/lib/gcc/x86_64-linux-gnu/11/../../../../include/c++/11/bits/stl_construct.h", directory: "", checksumkind: CSK_MD5, checksum: "d13395651729d9a26632373217b7daf3")
!1596 = !DISubroutineType(types: !1597)
!1597 = !{null, !36}
!1598 = !{!108, !1599}
!1599 = !DITemplateValueParameter(tag: DW_TAG_GNU_template_parameter_pack, name: "_Args", value: !106)
!1600 = !DILocalVariable(name: "__p", arg: 1, scope: !1594, file: !1595, line: 109, type: !36)
!1601 = !DILocation(line: 109, column: 21, scope: !1594)
!1602 = !DILocation(line: 119, column: 20, scope: !1594)
!1603 = !DILocation(line: 119, column: 7, scope: !1594)
!1604 = !DILocation(line: 120, column: 5, scope: !1594)
!1605 = distinct !DISubprogram(name: "fill_n<float *, unsigned long, float>", linkageName: "_ZSt6fill_nIPfmfET_S1_T0_RKT1_", scope: !2, file: !1505, line: 1144, type: !1606, scopeLine: 1145, flags: DIFlagPrototyped, spFlags: DISPFlagDefinition, unit: !26, templateParams: !1610, retainedNodes: !106)
!1606 = !DISubroutineType(types: !1607)
!1607 = !{!36, !36, !32, !1608}
!1608 = !DIDerivedType(tag: DW_TAG_reference_type, baseType: !1609, size: 64)
!1609 = !DIDerivedType(tag: DW_TAG_const_type, baseType: !37)
!1610 = !{!1611, !1363, !108}
!1611 = !DITemplateTypeParameter(name: "_OI", type: !36)
!1612 = !DILocalVariable(name: "__first", arg: 1, scope: !1605, file: !1505, line: 1144, type: !36)
!1613 = !DILocation(line: 1144, column: 16, scope: !1605)
!1614 = !DILocalVariable(name: "__n", arg: 2, scope: !1605, file: !1505, line: 1144, type: !32)
!1615 = !DILocation(line: 1144, column: 31, scope: !1605)
!1616 = !DILocalVariable(name: "__value", arg: 3, scope: !1605, file: !1505, line: 1144, type: !1608)
!1617 = !DILocation(line: 1144, column: 47, scope: !1605)
!1618 = !DILocation(line: 1149, column: 30, scope: !1605)
!1619 = !DILocation(line: 1149, column: 62, scope: !1605)
!1620 = !DILocation(line: 1149, column: 39, scope: !1605)
!1621 = !DILocation(line: 1149, column: 68, scope: !1605)
!1622 = !DILocation(line: 1150, column: 11, scope: !1605)
!1623 = !DILocation(line: 1149, column: 14, scope: !1605)
!1624 = !DILocation(line: 1149, column: 7, scope: !1605)
!1625 = distinct !DISubprogram(name: "__fill_n_a<float *, unsigned long, float>", linkageName: "_ZSt10__fill_n_aIPfmfET_S1_T0_RKT1_St26random_access_iterator_tag", scope: !2, file: !1505, line: 1109, type: !1626, scopeLine: 1111, flags: DIFlagPrototyped, spFlags: DISPFlagDefinition, unit: !26, templateParams: !1638, retainedNodes: !106)
!1626 = !DISubroutineType(types: !1627)
!1627 = !{!36, !36, !32, !1608, !1628}
!1628 = distinct !DICompositeType(tag: DW_TAG_structure_type, name: "random_access_iterator_tag", scope: !2, file: !1576, line: 107, size: 8, flags: DIFlagTypePassByValue, elements: !1629, identifier: "_ZTSSt26random_access_iterator_tag")
!1629 = !{!1630}
!1630 = !DIDerivedType(tag: DW_TAG_inheritance, scope: !1628, baseType: !1631, extraData: i32 0)
!1631 = distinct !DICompositeType(tag: DW_TAG_structure_type, name: "bidirectional_iterator_tag", scope: !2, file: !1576, line: 103, size: 8, flags: DIFlagTypePassByValue, elements: !1632, identifier: "_ZTSSt26bidirectional_iterator_tag")
!1632 = !{!1633}
!1633 = !DIDerivedType(tag: DW_TAG_inheritance, scope: !1631, baseType: !1634, extraData: i32 0)
!1634 = distinct !DICompositeType(tag: DW_TAG_structure_type, name: "forward_iterator_tag", scope: !2, file: !1576, line: 99, size: 8, flags: DIFlagTypePassByValue, elements: !1635, identifier: "_ZTSSt20forward_iterator_tag")
!1635 = !{!1636}
!1636 = !DIDerivedType(tag: DW_TAG_inheritance, scope: !1634, baseType: !1637, extraData: i32 0)
!1637 = distinct !DICompositeType(tag: DW_TAG_structure_type, name: "input_iterator_tag", scope: !2, file: !1576, line: 93, size: 8, flags: DIFlagTypePassByValue, elements: !106, identifier: "_ZTSSt18input_iterator_tag")
!1638 = !{!1639, !1363, !108}
!1639 = !DITemplateTypeParameter(name: "_OutputIterator", type: !36)
!1640 = !DILocalVariable(name: "__first", arg: 1, scope: !1625, file: !1505, line: 1109, type: !36)
!1641 = !DILocation(line: 1109, column: 32, scope: !1625)
!1642 = !DILocalVariable(name: "__n", arg: 2, scope: !1625, file: !1505, line: 1109, type: !32)
!1643 = !DILocation(line: 1109, column: 47, scope: !1625)
!1644 = !DILocalVariable(name: "__value", arg: 3, scope: !1625, file: !1505, line: 1109, type: !1608)
!1645 = !DILocation(line: 1109, column: 63, scope: !1625)
!1646 = !DILocalVariable(arg: 4, scope: !1625, file: !1505, line: 1110, type: !1628)
!1647 = !DILocation(line: 1110, column: 40, scope: !1625)
!1648 = !DILocation(line: 1115, column: 11, scope: !1649)
!1649 = distinct !DILexicalBlock(scope: !1625, file: !1505, line: 1115, column: 11)
!1650 = !DILocation(line: 1115, column: 15, scope: !1649)
!1651 = !DILocation(line: 1115, column: 11, scope: !1625)
!1652 = !DILocation(line: 1116, column: 9, scope: !1649)
!1653 = !DILocation(line: 1116, column: 2, scope: !1649)
!1654 = !DILocation(line: 1120, column: 21, scope: !1625)
!1655 = !DILocation(line: 1120, column: 30, scope: !1625)
!1656 = !DILocation(line: 1120, column: 40, scope: !1625)
!1657 = !DILocation(line: 1120, column: 38, scope: !1625)
!1658 = !DILocation(line: 1120, column: 45, scope: !1625)
!1659 = !DILocation(line: 1120, column: 7, scope: !1625)
!1660 = !DILocation(line: 1121, column: 14, scope: !1625)
!1661 = !DILocation(line: 1121, column: 24, scope: !1625)
!1662 = !DILocation(line: 1121, column: 22, scope: !1625)
!1663 = !DILocation(line: 1121, column: 7, scope: !1625)
!1664 = !DILocation(line: 1122, column: 5, scope: !1625)
!1665 = distinct !DISubprogram(name: "__size_to_integer", linkageName: "_ZSt17__size_to_integerm", scope: !2, file: !1505, line: 1010, type: !1666, scopeLine: 1010, flags: DIFlagPrototyped, spFlags: DISPFlagDefinition, unit: !26, retainedNodes: !106)
!1666 = !DISubroutineType(types: !1667)
!1667 = !{!32, !32}
!1668 = !DILocalVariable(name: "__n", arg: 1, scope: !1665, file: !1505, line: 1010, type: !32)
!1669 = !DILocation(line: 1010, column: 35, scope: !1665)
!1670 = !DILocation(line: 1010, column: 49, scope: !1665)
!1671 = !DILocation(line: 1010, column: 42, scope: !1665)
!1672 = distinct !DISubprogram(name: "__iterator_category<float *>", linkageName: "_ZSt19__iterator_categoryIPfENSt15iterator_traitsIT_E17iterator_categoryERKS2_", scope: !2, file: !1576, line: 238, type: !1673, scopeLine: 239, flags: DIFlagPrototyped, spFlags: DISPFlagDefinition, unit: !26, templateParams: !1678, retainedNodes: !106)
!1673 = !DISubroutineType(types: !1674)
!1674 = !{!1675, !1676}
!1675 = !DIDerivedType(tag: DW_TAG_typedef, name: "iterator_category", scope: !1577, file: !1576, line: 212, baseType: !1628)
!1676 = !DIDerivedType(tag: DW_TAG_reference_type, baseType: !1677, size: 64)
!1677 = !DIDerivedType(tag: DW_TAG_const_type, baseType: !36)
!1678 = !{!1679}
!1679 = !DITemplateTypeParameter(name: "_Iter", type: !36)
!1680 = !DILocalVariable(arg: 1, scope: !1672, file: !1576, line: 238, type: !1676)
!1681 = !DILocation(line: 238, column: 37, scope: !1672)
!1682 = !DILocation(line: 239, column: 7, scope: !1672)
!1683 = distinct !DISubprogram(name: "__fill_a<float *, float>", linkageName: "_ZSt8__fill_aIPffEvT_S1_RKT0_", scope: !2, file: !1505, line: 968, type: !1684, scopeLine: 969, flags: DIFlagPrototyped, spFlags: DISPFlagDefinition, unit: !26, templateParams: !1686, retainedNodes: !106)
!1684 = !DISubroutineType(types: !1685)
!1685 = !{null, !36, !36, !1608}
!1686 = !{!1687, !108}
!1687 = !DITemplateTypeParameter(name: "_FIte", type: !36)
!1688 = !DILocalVariable(name: "__first", arg: 1, scope: !1683, file: !1505, line: 968, type: !36)
!1689 = !DILocation(line: 968, column: 20, scope: !1683)
!1690 = !DILocalVariable(name: "__last", arg: 2, scope: !1683, file: !1505, line: 968, type: !36)
!1691 = !DILocation(line: 968, column: 35, scope: !1683)
!1692 = !DILocalVariable(name: "__value", arg: 3, scope: !1683, file: !1505, line: 968, type: !1608)
!1693 = !DILocation(line: 968, column: 54, scope: !1683)
!1694 = !DILocation(line: 969, column: 22, scope: !1683)
!1695 = !DILocation(line: 969, column: 31, scope: !1683)
!1696 = !DILocation(line: 969, column: 39, scope: !1683)
!1697 = !DILocation(line: 969, column: 7, scope: !1683)
!1698 = !DILocation(line: 969, column: 49, scope: !1683)
!1699 = distinct !DISubprogram(name: "__fill_a1<float *, float>", linkageName: "_ZSt9__fill_a1IPffEN9__gnu_cxx11__enable_ifIXsr11__is_scalarIT0_EE7__valueEvE6__typeET_S6_RKS3_", scope: !2, file: !1505, line: 919, type: !1700, scopeLine: 921, flags: DIFlagPrototyped, spFlags: DISPFlagDefinition, unit: !26, templateParams: !1708, retainedNodes: !106)
!1700 = !DISubroutineType(types: !1701)
!1701 = !{!1702, !36, !36, !1608}
!1702 = !DIDerivedType(tag: DW_TAG_typedef, name: "__type", scope: !1704, file: !1703, line: 50, baseType: null)
!1703 = !DIFile(filename: "/usr/lib/gcc/x86_64-linux-gnu/11/../../../../include/c++/11/ext/type_traits.h", directory: "")
!1704 = distinct !DICompositeType(tag: DW_TAG_structure_type, name: "__enable_if<true, void>", scope: !49, file: !1703, line: 49, size: 8, flags: DIFlagTypePassByValue, elements: !106, templateParams: !1705, identifier: "_ZTSN9__gnu_cxx11__enable_ifILb1EvEE")
!1705 = !{!1706, !1707}
!1706 = !DITemplateValueParameter(type: !94, value: i8 1)
!1707 = !DITemplateTypeParameter(type: null)
!1708 = !{!1362, !108}
!1709 = !DILocalVariable(name: "__first", arg: 1, scope: !1699, file: !1505, line: 919, type: !36)
!1710 = !DILocation(line: 919, column: 32, scope: !1699)
!1711 = !DILocalVariable(name: "__last", arg: 2, scope: !1699, file: !1505, line: 919, type: !36)
!1712 = !DILocation(line: 919, column: 58, scope: !1699)
!1713 = !DILocalVariable(name: "__value", arg: 3, scope: !1699, file: !1505, line: 920, type: !1608)
!1714 = !DILocation(line: 920, column: 19, scope: !1699)
!1715 = !DILocalVariable(name: "__tmp", scope: !1699, file: !1505, line: 922, type: !1609)
!1716 = !DILocation(line: 922, column: 17, scope: !1699)
!1717 = !DILocation(line: 922, column: 25, scope: !1699)
!1718 = !DILocation(line: 923, column: 7, scope: !1699)
!1719 = !DILocation(line: 923, column: 14, scope: !1720)
!1720 = distinct !DILexicalBlock(scope: !1721, file: !1505, line: 923, column: 7)
!1721 = distinct !DILexicalBlock(scope: !1699, file: !1505, line: 923, column: 7)
!1722 = !DILocation(line: 923, column: 25, scope: !1720)
!1723 = !DILocation(line: 923, column: 22, scope: !1720)
!1724 = !DILocation(line: 923, column: 7, scope: !1721)
!1725 = !DILocation(line: 924, column: 13, scope: !1720)
!1726 = !DILocation(line: 924, column: 3, scope: !1720)
!1727 = !DILocation(line: 924, column: 11, scope: !1720)
!1728 = !DILocation(line: 924, column: 2, scope: !1720)
!1729 = !DILocation(line: 923, column: 33, scope: !1720)
!1730 = !DILocation(line: 923, column: 7, scope: !1720)
!1731 = distinct !{!1731, !1724, !1732, !1008}
!1732 = !DILocation(line: 924, column: 13, scope: !1721)
!1733 = !DILocation(line: 925, column: 5, scope: !1699)
!1734 = distinct !DISubprogram(name: "max<unsigned long>", linkageName: "_ZSt3maxImERKT_S2_S2_", scope: !2, file: !1505, line: 254, type: !1506, scopeLine: 255, flags: DIFlagPrototyped, spFlags: DISPFlagDefinition, unit: !26, templateParams: !1510, retainedNodes: !106)
!1735 = !DILocalVariable(name: "__a", arg: 1, scope: !1734, file: !1505, line: 254, type: !1508)
!1736 = !DILocation(line: 254, column: 20, scope: !1734)
!1737 = !DILocalVariable(name: "__b", arg: 2, scope: !1734, file: !1505, line: 254, type: !1508)
!1738 = !DILocation(line: 254, column: 36, scope: !1734)
!1739 = !DILocation(line: 259, column: 11, scope: !1740)
!1740 = distinct !DILexicalBlock(scope: !1734, file: !1505, line: 259, column: 11)
!1741 = !DILocation(line: 259, column: 17, scope: !1740)
!1742 = !DILocation(line: 259, column: 15, scope: !1740)
!1743 = !DILocation(line: 259, column: 11, scope: !1734)
!1744 = !DILocation(line: 260, column: 9, scope: !1740)
!1745 = !DILocation(line: 260, column: 2, scope: !1740)
!1746 = !DILocation(line: 261, column: 14, scope: !1734)
!1747 = !DILocation(line: 261, column: 7, scope: !1734)
!1748 = !DILocation(line: 262, column: 5, scope: !1734)
!1749 = distinct !DISubprogram(name: "allocate", linkageName: "_ZNSt16allocator_traitsISaIfEE8allocateERS0_m", scope: !52, file: !53, line: 463, type: !56, scopeLine: 464, flags: DIFlagPrototyped, spFlags: DISPFlagDefinition, unit: !26, declaration: !55, retainedNodes: !106)
!1750 = !DILocalVariable(name: "__a", arg: 1, scope: !1749, file: !53, line: 463, type: !59)
!1751 = !DILocation(line: 463, column: 32, scope: !1749)
!1752 = !DILocalVariable(name: "__n", arg: 2, scope: !1749, file: !53, line: 463, type: !63)
!1753 = !DILocation(line: 463, column: 47, scope: !1749)
!1754 = !DILocation(line: 464, column: 16, scope: !1749)
!1755 = !DILocation(line: 464, column: 29, scope: !1749)
!1756 = !DILocation(line: 464, column: 20, scope: !1749)
!1757 = !DILocation(line: 464, column: 9, scope: !1749)
!1758 = distinct !DISubprogram(name: "allocate", linkageName: "_ZN9__gnu_cxx13new_allocatorIfE8allocateEmPKv", scope: !1528, file: !1527, line: 103, type: !1759, scopeLine: 104, flags: DIFlagPrototyped, spFlags: DISPFlagDefinition, unit: !26, declaration: !1762, retainedNodes: !106)
!1759 = !DISubroutineType(types: !1760)
!1760 = !{!36, !1761, !1531, !34}
!1761 = !DIDerivedType(tag: DW_TAG_pointer_type, baseType: !1528, size: 64, flags: DIFlagArtificial | DIFlagObjectPointer)
!1762 = !DISubprogram(name: "allocate", linkageName: "_ZN9__gnu_cxx13new_allocatorIfE8allocateEmPKv", scope: !1528, file: !1527, line: 103, type: !1759, scopeLine: 103, flags: DIFlagPublic | DIFlagPrototyped, spFlags: 0)
!1763 = !DILocalVariable(name: "this", arg: 1, scope: !1758, type: !1764, flags: DIFlagArtificial | DIFlagObjectPointer)
!1764 = !DIDerivedType(tag: DW_TAG_pointer_type, baseType: !1528, size: 64)
!1765 = !DILocation(line: 0, scope: !1758)
!1766 = !DILocalVariable(name: "__n", arg: 2, scope: !1758, file: !1527, line: 103, type: !1531)
!1767 = !DILocation(line: 103, column: 26, scope: !1758)
!1768 = !DILocalVariable(arg: 3, scope: !1758, file: !1527, line: 103, type: !34)
!1769 = !DILocation(line: 103, column: 43, scope: !1758)
!1770 = !DILocation(line: 111, column: 23, scope: !1771)
!1771 = distinct !DILexicalBlock(scope: !1758, file: !1527, line: 111, column: 6)
!1772 = !DILocation(line: 111, column: 35, scope: !1771)
!1773 = !DILocation(line: 111, column: 27, scope: !1771)
!1774 = !DILocation(line: 111, column: 6, scope: !1758)
!1775 = !DILocation(line: 115, column: 10, scope: !1776)
!1776 = distinct !DILexicalBlock(scope: !1777, file: !1527, line: 115, column: 10)
!1777 = distinct !DILexicalBlock(scope: !1771, file: !1527, line: 112, column: 4)
!1778 = !DILocation(line: 115, column: 14, scope: !1776)
!1779 = !DILocation(line: 115, column: 10, scope: !1777)
!1780 = !DILocation(line: 116, column: 8, scope: !1776)
!1781 = !DILocation(line: 117, column: 6, scope: !1777)
!1782 = !DILocation(line: 127, column: 42, scope: !1758)
!1783 = !DILocation(line: 127, column: 46, scope: !1758)
!1784 = !DILocation(line: 127, column: 27, scope: !1758)
!1785 = !DILocation(line: 127, column: 2, scope: !1758)
!1786 = distinct !DISubprogram(name: "deallocate", linkageName: "_ZNSt16allocator_traitsISaIfEE10deallocateERS0_Pfm", scope: !52, file: !53, line: 495, type: !69, scopeLine: 496, flags: DIFlagPrototyped, spFlags: DISPFlagDefinition, unit: !26, declaration: !68, retainedNodes: !106)
!1787 = !DILocalVariable(name: "__a", arg: 1, scope: !1786, file: !53, line: 495, type: !59)
!1788 = !DILocation(line: 495, column: 34, scope: !1786)
!1789 = !DILocalVariable(name: "__p", arg: 2, scope: !1786, file: !53, line: 495, type: !58)
!1790 = !DILocation(line: 495, column: 47, scope: !1786)
!1791 = !DILocalVariable(name: "__n", arg: 3, scope: !1786, file: !53, line: 495, type: !63)
!1792 = !DILocation(line: 495, column: 62, scope: !1786)
!1793 = !DILocation(line: 496, column: 9, scope: !1786)
!1794 = !DILocation(line: 496, column: 24, scope: !1786)
!1795 = !DILocation(line: 496, column: 29, scope: !1786)
!1796 = !DILocation(line: 496, column: 13, scope: !1786)
!1797 = !DILocation(line: 496, column: 35, scope: !1786)
!1798 = distinct !DISubprogram(name: "deallocate", linkageName: "_ZN9__gnu_cxx13new_allocatorIfE10deallocateEPfm", scope: !1528, file: !1527, line: 132, type: !1799, scopeLine: 133, flags: DIFlagPrototyped, spFlags: DISPFlagDefinition, unit: !26, declaration: !1801, retainedNodes: !106)
!1799 = !DISubroutineType(types: !1800)
!1800 = !{null, !1761, !36, !1531}
!1801 = !DISubprogram(name: "deallocate", linkageName: "_ZN9__gnu_cxx13new_allocatorIfE10deallocateEPfm", scope: !1528, file: !1527, line: 132, type: !1799, scopeLine: 132, flags: DIFlagPublic | DIFlagPrototyped, spFlags: 0)
!1802 = !DILocalVariable(name: "this", arg: 1, scope: !1798, type: !1764, flags: DIFlagArtificial | DIFlagObjectPointer)
!1803 = !DILocation(line: 0, scope: !1798)
!1804 = !DILocalVariable(name: "__p", arg: 2, scope: !1798, file: !1527, line: 132, type: !36)
!1805 = !DILocation(line: 132, column: 23, scope: !1798)
!1806 = !DILocalVariable(name: "__t", arg: 3, scope: !1798, file: !1527, line: 132, type: !1531)
!1807 = !DILocation(line: 132, column: 38, scope: !1798)
!1808 = !DILocation(line: 145, column: 20, scope: !1798)
!1809 = !DILocation(line: 145, column: 2, scope: !1798)
!1810 = !DILocation(line: 150, column: 7, scope: !1798)
!1811 = distinct !DISubprogram(name: "_S_do_relocate", linkageName: "_ZNSt6vectorIfSaIfEE14_S_do_relocateEPfS2_S2_RS0_St17integral_constantIbLb1EE", scope: !40, file: !29, line: 453, type: !1812, scopeLine: 455, flags: DIFlagPrototyped, spFlags: DISPFlagDefinition, unit: !26, declaration: !1815, retainedNodes: !106)
!1812 = !DISubroutineType(types: !1813)
!1813 = !{!43, !43, !43, !43, !101, !1814}
!1814 = !DIDerivedType(tag: DW_TAG_typedef, name: "true_type", scope: !2, file: !112, line: 83, baseType: !113)
!1815 = !DISubprogram(name: "_S_do_relocate", linkageName: "_ZNSt6vectorIfSaIfEE14_S_do_relocateEPfS2_S2_RS0_St17integral_constantIbLb1EE", scope: !40, file: !29, line: 453, type: !1812, scopeLine: 453, flags: DIFlagPrototyped | DIFlagStaticMember, spFlags: 0)
!1816 = !DILocalVariable(name: "__first", arg: 1, scope: !1811, file: !29, line: 453, type: !43)
!1817 = !DILocation(line: 453, column: 30, scope: !1811)
!1818 = !DILocalVariable(name: "__last", arg: 2, scope: !1811, file: !29, line: 453, type: !43)
!1819 = !DILocation(line: 453, column: 47, scope: !1811)
!1820 = !DILocalVariable(name: "__result", arg: 3, scope: !1811, file: !29, line: 453, type: !43)
!1821 = !DILocation(line: 453, column: 63, scope: !1811)
!1822 = !DILocalVariable(name: "__alloc", arg: 4, scope: !1811, file: !29, line: 454, type: !101)
!1823 = !DILocation(line: 454, column: 24, scope: !1811)
!1824 = !DILocalVariable(arg: 5, scope: !1811, file: !29, line: 454, type: !1814)
!1825 = !DILocation(line: 454, column: 42, scope: !1811)
!1826 = !DILocation(line: 456, column: 27, scope: !1811)
!1827 = !DILocation(line: 456, column: 36, scope: !1811)
!1828 = !DILocation(line: 456, column: 44, scope: !1811)
!1829 = !DILocation(line: 456, column: 54, scope: !1811)
!1830 = !DILocation(line: 456, column: 9, scope: !1811)
!1831 = !DILocation(line: 456, column: 2, scope: !1811)
!1832 = distinct !DISubprogram(name: "__relocate_a<float *, float *, std::allocator<float> >", linkageName: "_ZSt12__relocate_aIPfS0_SaIfEET0_T_S3_S2_RT1_", scope: !2, file: !1358, line: 1040, type: !1833, scopeLine: 1045, flags: DIFlagPrototyped, spFlags: DISPFlagDefinition, unit: !26, templateParams: !1835, retainedNodes: !106)
!1833 = !DISubroutineType(types: !1834)
!1834 = !{!36, !36, !36, !36, !90}
!1835 = !{!1836, !1362, !1837}
!1836 = !DITemplateTypeParameter(name: "_InputIterator", type: !36)
!1837 = !DITemplateTypeParameter(name: "_Allocator", type: !61)
!1838 = !DILocalVariable(name: "__first", arg: 1, scope: !1832, file: !1358, line: 1040, type: !36)
!1839 = !DILocation(line: 1040, column: 33, scope: !1832)
!1840 = !DILocalVariable(name: "__last", arg: 2, scope: !1832, file: !1358, line: 1040, type: !36)
!1841 = !DILocation(line: 1040, column: 57, scope: !1832)
!1842 = !DILocalVariable(name: "__result", arg: 3, scope: !1832, file: !1358, line: 1041, type: !36)
!1843 = !DILocation(line: 1041, column: 21, scope: !1832)
!1844 = !DILocalVariable(name: "__alloc", arg: 4, scope: !1832, file: !1358, line: 1041, type: !90)
!1845 = !DILocation(line: 1041, column: 43, scope: !1832)
!1846 = !DILocation(line: 1046, column: 47, scope: !1832)
!1847 = !DILocation(line: 1046, column: 29, scope: !1832)
!1848 = !DILocation(line: 1047, column: 26, scope: !1832)
!1849 = !DILocation(line: 1047, column: 8, scope: !1832)
!1850 = !DILocation(line: 1048, column: 26, scope: !1832)
!1851 = !DILocation(line: 1048, column: 8, scope: !1832)
!1852 = !DILocation(line: 1048, column: 37, scope: !1832)
!1853 = !DILocation(line: 1046, column: 14, scope: !1832)
!1854 = !DILocation(line: 1046, column: 7, scope: !1832)
!1855 = distinct !DISubprogram(name: "__relocate_a_1<float, float>", linkageName: "_ZSt14__relocate_a_1IffENSt9enable_ifIXsr3std24__is_bitwise_relocatableIT_EE5valueEPS1_E4typeES2_S2_S2_RSaIT0_E", scope: !2, file: !1358, line: 1006, type: !1856, scopeLine: 1008, flags: DIFlagPrototyped, spFlags: DISPFlagDefinition, unit: !26, templateParams: !1863, retainedNodes: !106)
!1856 = !DISubroutineType(types: !1857)
!1857 = !{!1858, !36, !36, !36, !90}
!1858 = !DIDerivedType(tag: DW_TAG_typedef, name: "__enable_if_t<std::__is_bitwise_relocatable<float>::value, float *>", scope: !2, file: !112, line: 2205, baseType: !1859)
!1859 = !DIDerivedType(tag: DW_TAG_typedef, name: "type", scope: !1860, file: !112, line: 2199, baseType: !36)
!1860 = distinct !DICompositeType(tag: DW_TAG_structure_type, name: "enable_if<true, float *>", scope: !2, file: !112, line: 2198, size: 8, flags: DIFlagTypePassByValue, elements: !106, templateParams: !1861, identifier: "_ZTSSt9enable_ifILb1EPfE")
!1861 = !{!1706, !1862}
!1862 = !DITemplateTypeParameter(name: "_Tp", type: !36)
!1863 = !{!108, !1864}
!1864 = !DITemplateTypeParameter(name: "_Up", type: !37)
!1865 = !DILocalVariable(name: "__first", arg: 1, scope: !1855, file: !1358, line: 1006, type: !36)
!1866 = !DILocation(line: 1006, column: 25, scope: !1855)
!1867 = !DILocalVariable(name: "__last", arg: 2, scope: !1855, file: !1358, line: 1006, type: !36)
!1868 = !DILocation(line: 1006, column: 39, scope: !1855)
!1869 = !DILocalVariable(name: "__result", arg: 3, scope: !1855, file: !1358, line: 1007, type: !36)
!1870 = !DILocation(line: 1007, column: 11, scope: !1855)
!1871 = !DILocalVariable(arg: 4, scope: !1855, file: !1358, line: 1007, type: !90)
!1872 = !DILocation(line: 1007, column: 36, scope: !1855)
!1873 = !DILocalVariable(name: "__count", scope: !1855, file: !1358, line: 1009, type: !1874)
!1874 = !DIDerivedType(tag: DW_TAG_typedef, name: "ptrdiff_t", scope: !2, file: !31, line: 281, baseType: !341)
!1875 = !DILocation(line: 1009, column: 17, scope: !1855)
!1876 = !DILocation(line: 1009, column: 27, scope: !1855)
