; ModuleID = '../FlexImageLib/FlexIO.cpp'
source_filename = "../FlexImageLib/FlexIO.cpp"
target datalayout = "e-m:e-p270:32:32-p271:32:32-p272:64:64-i64:64-f80:128-n8:16:32:64-S128"
target triple = "x86_64-unknown-linux-gnu"

%union.anon = type { i16 }
%union.anon.0 = type { i16 }
%union.anon.1 = type { i64 }
%struct.tagBITMAPFILEHDR = type { i16, i64, i16, i16, i64 }
%struct.tagBITMAPINFOHDR = type { i64, i64, i64, i16, i16, i64, i64, i64, i64, i64, i64 }
%struct.tagRGBA = type { i8, i8, i8, i8 }
%class.FlexImage = type <{ ptr, ptr, i32, i32, %class.FISize, i32, [4 x i8] }>
%class.FISize = type { i32, i32 }
%class.FlexImage.2 = type <{ ptr, ptr, i32, i32, %class.FISize, i32, [4 x i8] }>

$_ZSt3absl = comdat any

$_ZNK9FlexImageIhLi1EE6HeightEv = comdat any

$_ZN9FlexImageIhLi1EEclEii = comdat any

$_ZNK9FlexImageIhLi1EE5WidthEv = comdat any

$_ZNK9FlexImageIhLi3EE6HeightEv = comdat any

$_ZN9FlexImageIhLi3EEclEii = comdat any

$_ZNK9FlexImageIhLi3EE5WidthEv = comdat any

$_Z12FlexCopyC1CMIhLi3EEiR9FlexImageIT_Li1EERS0_IS1_XT0_EEi = comdat any

$_Z13FlexRGBToGrayIhEiR9FlexImageIT_Li3EERS0_IS1_Li1EEb = comdat any

$_ZN9FlexImageIhLi1EEclEiii = comdat any

$_ZN9FlexImageIhLi3EEclEiii = comdat any

$_ZN9FlexImageIhLi1EE4DataEv = comdat any

$_ZN9FlexImageIhLi3EE4DataEv = comdat any

$_ZNK9FlexImageIhLi1EE9StepBytesEv = comdat any

$_ZNK9FlexImageIhLi3EE9StepBytesEv = comdat any

$_ZNK9FlexImageIhLi3EE4SizeEv = comdat any

$_ZSt3minIiERKT_S2_S2_ = comdat any

@.str = private unnamed_addr constant [3 x i8] c"rb\00", align 1, !dbg !0

; Function Attrs: mustprogress noinline nounwind optnone uwtable
define dso_local noundef zeroext i1 @_Z14isLittleEndianv() #0 !dbg !907 {
  %1 = alloca %union.anon, align 2
  call void @llvm.dbg.declare(metadata ptr %1, metadata !912, metadata !DIExpression()), !dbg !920
  store i16 255, ptr %1, align 2, !dbg !921
  %2 = load i8, ptr %1, align 2, !dbg !922
  %3 = zext i8 %2 to i32, !dbg !923
  %4 = icmp eq i32 %3, 255, !dbg !924
  ret i1 %4, !dbg !925
}

; Function Attrs: nocallback nofree nosync nounwind speculatable willreturn memory(none)
declare void @llvm.dbg.declare(metadata, metadata, metadata) #1

; Function Attrs: mustprogress noinline nounwind optnone uwtable
define dso_local noundef zeroext i16 @_Z7swap_16t(i16 noundef zeroext %0) #0 !dbg !926 {
  %2 = alloca i16, align 2
  %3 = alloca %union.anon.0, align 2
  %4 = alloca i8, align 1
  store i16 %0, ptr %2, align 2
  call void @llvm.dbg.declare(metadata ptr %2, metadata !929, metadata !DIExpression()), !dbg !930
  call void @llvm.dbg.declare(metadata ptr %3, metadata !931, metadata !DIExpression()), !dbg !939
  call void @llvm.dbg.declare(metadata ptr %4, metadata !940, metadata !DIExpression()), !dbg !941
  %5 = load i16, ptr %2, align 2, !dbg !942
  store i16 %5, ptr %3, align 2, !dbg !943
  %6 = getelementptr inbounds [2 x i8], ptr %3, i64 0, i64 0, !dbg !944
  %7 = load i8, ptr %6, align 2, !dbg !944
  store i8 %7, ptr %4, align 1, !dbg !945
  %8 = getelementptr inbounds [2 x i8], ptr %3, i64 0, i64 1, !dbg !946
  %9 = load i8, ptr %8, align 1, !dbg !946
  %10 = getelementptr inbounds [2 x i8], ptr %3, i64 0, i64 0, !dbg !947
  store i8 %9, ptr %10, align 2, !dbg !948
  %11 = load i8, ptr %4, align 1, !dbg !949
  %12 = getelementptr inbounds [2 x i8], ptr %3, i64 0, i64 1, !dbg !950
  store i8 %11, ptr %12, align 1, !dbg !951
  %13 = load i16, ptr %3, align 2, !dbg !952
  ret i16 %13, !dbg !953
}

; Function Attrs: mustprogress noinline nounwind optnone uwtable
define dso_local noundef i64 @_Z7swap_32m(i64 noundef %0) #0 !dbg !954 {
  %2 = alloca i64, align 8
  %3 = alloca %union.anon.1, align 8
  %4 = alloca i8, align 1
  store i64 %0, ptr %2, align 8
  call void @llvm.dbg.declare(metadata ptr %2, metadata !958, metadata !DIExpression()), !dbg !959
  call void @llvm.dbg.declare(metadata ptr %3, metadata !960, metadata !DIExpression()), !dbg !968
  call void @llvm.dbg.declare(metadata ptr %4, metadata !969, metadata !DIExpression()), !dbg !970
  %5 = load i64, ptr %2, align 8, !dbg !971
  store i64 %5, ptr %3, align 8, !dbg !972
  %6 = getelementptr inbounds [4 x i8], ptr %3, i64 0, i64 0, !dbg !973
  %7 = load i8, ptr %6, align 8, !dbg !973
  store i8 %7, ptr %4, align 1, !dbg !974
  %8 = getelementptr inbounds [4 x i8], ptr %3, i64 0, i64 3, !dbg !975
  %9 = load i8, ptr %8, align 1, !dbg !975
  %10 = getelementptr inbounds [4 x i8], ptr %3, i64 0, i64 0, !dbg !976
  store i8 %9, ptr %10, align 8, !dbg !977
  %11 = load i8, ptr %4, align 1, !dbg !978
  %12 = getelementptr inbounds [4 x i8], ptr %3, i64 0, i64 3, !dbg !979
  store i8 %11, ptr %12, align 1, !dbg !980
  %13 = getelementptr inbounds [4 x i8], ptr %3, i64 0, i64 1, !dbg !981
  %14 = load i8, ptr %13, align 1, !dbg !981
  store i8 %14, ptr %4, align 1, !dbg !982
  %15 = getelementptr inbounds [4 x i8], ptr %3, i64 0, i64 2, !dbg !983
  %16 = load i8, ptr %15, align 2, !dbg !983
  %17 = getelementptr inbounds [4 x i8], ptr %3, i64 0, i64 1, !dbg !984
  store i8 %16, ptr %17, align 1, !dbg !985
  %18 = load i8, ptr %4, align 1, !dbg !986
  %19 = getelementptr inbounds [4 x i8], ptr %3, i64 0, i64 2, !dbg !987
  store i8 %18, ptr %19, align 2, !dbg !988
  %20 = load i64, ptr %3, align 8, !dbg !989
  ret i64 %20, !dbg !990
}

; Function Attrs: mustprogress noinline nounwind optnone uwtable
define dso_local void @_Z11ConvertBmfhP16tagBITMAPFILEHDR(ptr noundef %0) #0 !dbg !991 {
  %2 = alloca ptr, align 8
  store ptr %0, ptr %2, align 8
  call void @llvm.dbg.declare(metadata ptr %2, metadata !1003, metadata !DIExpression()), !dbg !1004
  %3 = call noundef zeroext i1 @_Z14isLittleEndianv(), !dbg !1005
  br i1 %3, label %35, label %4, !dbg !1007

4:                                                ; preds = %1
  %5 = load ptr, ptr %2, align 8, !dbg !1008
  %6 = getelementptr inbounds %struct.tagBITMAPFILEHDR, ptr %5, i32 0, i32 0, !dbg !1010
  %7 = load i16, ptr %6, align 8, !dbg !1010
  %8 = call noundef zeroext i16 @_Z7swap_16t(i16 noundef zeroext %7), !dbg !1011
  %9 = load ptr, ptr %2, align 8, !dbg !1012
  %10 = getelementptr inbounds %struct.tagBITMAPFILEHDR, ptr %9, i32 0, i32 0, !dbg !1013
  store i16 %8, ptr %10, align 8, !dbg !1014
  %11 = load ptr, ptr %2, align 8, !dbg !1015
  %12 = getelementptr inbounds %struct.tagBITMAPFILEHDR, ptr %11, i32 0, i32 1, !dbg !1016
  %13 = load i64, ptr %12, align 8, !dbg !1016
  %14 = call noundef i64 @_Z7swap_32m(i64 noundef %13), !dbg !1017
  %15 = load ptr, ptr %2, align 8, !dbg !1018
  %16 = getelementptr inbounds %struct.tagBITMAPFILEHDR, ptr %15, i32 0, i32 1, !dbg !1019
  store i64 %14, ptr %16, align 8, !dbg !1020
  %17 = load ptr, ptr %2, align 8, !dbg !1021
  %18 = getelementptr inbounds %struct.tagBITMAPFILEHDR, ptr %17, i32 0, i32 2, !dbg !1022
  %19 = load i16, ptr %18, align 8, !dbg !1022
  %20 = call noundef zeroext i16 @_Z7swap_16t(i16 noundef zeroext %19), !dbg !1023
  %21 = load ptr, ptr %2, align 8, !dbg !1024
  %22 = getelementptr inbounds %struct.tagBITMAPFILEHDR, ptr %21, i32 0, i32 2, !dbg !1025
  store i16 %20, ptr %22, align 8, !dbg !1026
  %23 = load ptr, ptr %2, align 8, !dbg !1027
  %24 = getelementptr inbounds %struct.tagBITMAPFILEHDR, ptr %23, i32 0, i32 3, !dbg !1028
  %25 = load i16, ptr %24, align 2, !dbg !1028
  %26 = call noundef zeroext i16 @_Z7swap_16t(i16 noundef zeroext %25), !dbg !1029
  %27 = load ptr, ptr %2, align 8, !dbg !1030
  %28 = getelementptr inbounds %struct.tagBITMAPFILEHDR, ptr %27, i32 0, i32 3, !dbg !1031
  store i16 %26, ptr %28, align 2, !dbg !1032
  %29 = load ptr, ptr %2, align 8, !dbg !1033
  %30 = getelementptr inbounds %struct.tagBITMAPFILEHDR, ptr %29, i32 0, i32 4, !dbg !1034
  %31 = load i64, ptr %30, align 8, !dbg !1034
  %32 = call noundef i64 @_Z7swap_32m(i64 noundef %31), !dbg !1035
  %33 = load ptr, ptr %2, align 8, !dbg !1036
  %34 = getelementptr inbounds %struct.tagBITMAPFILEHDR, ptr %33, i32 0, i32 4, !dbg !1037
  store i64 %32, ptr %34, align 8, !dbg !1038
  br label %35, !dbg !1039

35:                                               ; preds = %4, %1
  ret void, !dbg !1040
}

; Function Attrs: mustprogress noinline nounwind optnone uwtable
define dso_local void @_Z11ConvertBmihP16tagBITMAPINFOHDR(ptr noundef %0) #0 !dbg !1041 {
  %2 = alloca ptr, align 8
  store ptr %0, ptr %2, align 8
  call void @llvm.dbg.declare(metadata ptr %2, metadata !1060, metadata !DIExpression()), !dbg !1061
  %3 = call noundef zeroext i1 @_Z14isLittleEndianv(), !dbg !1062
  br i1 %3, label %71, label %4, !dbg !1064

4:                                                ; preds = %1
  %5 = load ptr, ptr %2, align 8, !dbg !1065
  %6 = getelementptr inbounds %struct.tagBITMAPINFOHDR, ptr %5, i32 0, i32 0, !dbg !1067
  %7 = load i64, ptr %6, align 8, !dbg !1067
  %8 = call noundef i64 @_Z7swap_32m(i64 noundef %7), !dbg !1068
  %9 = load ptr, ptr %2, align 8, !dbg !1069
  %10 = getelementptr inbounds %struct.tagBITMAPINFOHDR, ptr %9, i32 0, i32 0, !dbg !1070
  store i64 %8, ptr %10, align 8, !dbg !1071
  %11 = load ptr, ptr %2, align 8, !dbg !1072
  %12 = getelementptr inbounds %struct.tagBITMAPINFOHDR, ptr %11, i32 0, i32 1, !dbg !1073
  %13 = load i64, ptr %12, align 8, !dbg !1073
  %14 = call noundef i64 @_Z7swap_32m(i64 noundef %13), !dbg !1074
  %15 = load ptr, ptr %2, align 8, !dbg !1075
  %16 = getelementptr inbounds %struct.tagBITMAPINFOHDR, ptr %15, i32 0, i32 1, !dbg !1076
  store i64 %14, ptr %16, align 8, !dbg !1077
  %17 = load ptr, ptr %2, align 8, !dbg !1078
  %18 = getelementptr inbounds %struct.tagBITMAPINFOHDR, ptr %17, i32 0, i32 2, !dbg !1079
  %19 = load i64, ptr %18, align 8, !dbg !1079
  %20 = call noundef i64 @_Z7swap_32m(i64 noundef %19), !dbg !1080
  %21 = load ptr, ptr %2, align 8, !dbg !1081
  %22 = getelementptr inbounds %struct.tagBITMAPINFOHDR, ptr %21, i32 0, i32 2, !dbg !1082
  store i64 %20, ptr %22, align 8, !dbg !1083
  %23 = load ptr, ptr %2, align 8, !dbg !1084
  %24 = getelementptr inbounds %struct.tagBITMAPINFOHDR, ptr %23, i32 0, i32 3, !dbg !1085
  %25 = load i16, ptr %24, align 8, !dbg !1085
  %26 = call noundef zeroext i16 @_Z7swap_16t(i16 noundef zeroext %25), !dbg !1086
  %27 = load ptr, ptr %2, align 8, !dbg !1087
  %28 = getelementptr inbounds %struct.tagBITMAPINFOHDR, ptr %27, i32 0, i32 3, !dbg !1088
  store i16 %26, ptr %28, align 8, !dbg !1089
  %29 = load ptr, ptr %2, align 8, !dbg !1090
  %30 = getelementptr inbounds %struct.tagBITMAPINFOHDR, ptr %29, i32 0, i32 4, !dbg !1091
  %31 = load i16, ptr %30, align 2, !dbg !1091
  %32 = call noundef zeroext i16 @_Z7swap_16t(i16 noundef zeroext %31), !dbg !1092
  %33 = load ptr, ptr %2, align 8, !dbg !1093
  %34 = getelementptr inbounds %struct.tagBITMAPINFOHDR, ptr %33, i32 0, i32 4, !dbg !1094
  store i16 %32, ptr %34, align 2, !dbg !1095
  %35 = load ptr, ptr %2, align 8, !dbg !1096
  %36 = getelementptr inbounds %struct.tagBITMAPINFOHDR, ptr %35, i32 0, i32 5, !dbg !1097
  %37 = load i64, ptr %36, align 8, !dbg !1097
  %38 = call noundef i64 @_Z7swap_32m(i64 noundef %37), !dbg !1098
  %39 = load ptr, ptr %2, align 8, !dbg !1099
  %40 = getelementptr inbounds %struct.tagBITMAPINFOHDR, ptr %39, i32 0, i32 5, !dbg !1100
  store i64 %38, ptr %40, align 8, !dbg !1101
  %41 = load ptr, ptr %2, align 8, !dbg !1102
  %42 = getelementptr inbounds %struct.tagBITMAPINFOHDR, ptr %41, i32 0, i32 6, !dbg !1103
  %43 = load i64, ptr %42, align 8, !dbg !1103
  %44 = call noundef i64 @_Z7swap_32m(i64 noundef %43), !dbg !1104
  %45 = load ptr, ptr %2, align 8, !dbg !1105
  %46 = getelementptr inbounds %struct.tagBITMAPINFOHDR, ptr %45, i32 0, i32 6, !dbg !1106
  store i64 %44, ptr %46, align 8, !dbg !1107
  %47 = load ptr, ptr %2, align 8, !dbg !1108
  %48 = getelementptr inbounds %struct.tagBITMAPINFOHDR, ptr %47, i32 0, i32 7, !dbg !1109
  %49 = load i64, ptr %48, align 8, !dbg !1109
  %50 = call noundef i64 @_Z7swap_32m(i64 noundef %49), !dbg !1110
  %51 = load ptr, ptr %2, align 8, !dbg !1111
  %52 = getelementptr inbounds %struct.tagBITMAPINFOHDR, ptr %51, i32 0, i32 7, !dbg !1112
  store i64 %50, ptr %52, align 8, !dbg !1113
  %53 = load ptr, ptr %2, align 8, !dbg !1114
  %54 = getelementptr inbounds %struct.tagBITMAPINFOHDR, ptr %53, i32 0, i32 8, !dbg !1115
  %55 = load i64, ptr %54, align 8, !dbg !1115
  %56 = call noundef i64 @_Z7swap_32m(i64 noundef %55), !dbg !1116
  %57 = load ptr, ptr %2, align 8, !dbg !1117
  %58 = getelementptr inbounds %struct.tagBITMAPINFOHDR, ptr %57, i32 0, i32 8, !dbg !1118
  store i64 %56, ptr %58, align 8, !dbg !1119
  %59 = load ptr, ptr %2, align 8, !dbg !1120
  %60 = getelementptr inbounds %struct.tagBITMAPINFOHDR, ptr %59, i32 0, i32 9, !dbg !1121
  %61 = load i64, ptr %60, align 8, !dbg !1121
  %62 = call noundef i64 @_Z7swap_32m(i64 noundef %61), !dbg !1122
  %63 = load ptr, ptr %2, align 8, !dbg !1123
  %64 = getelementptr inbounds %struct.tagBITMAPINFOHDR, ptr %63, i32 0, i32 9, !dbg !1124
  store i64 %62, ptr %64, align 8, !dbg !1125
  %65 = load ptr, ptr %2, align 8, !dbg !1126
  %66 = getelementptr inbounds %struct.tagBITMAPINFOHDR, ptr %65, i32 0, i32 10, !dbg !1127
  %67 = load i64, ptr %66, align 8, !dbg !1127
  %68 = call noundef i64 @_Z7swap_32m(i64 noundef %67), !dbg !1128
  %69 = load ptr, ptr %2, align 8, !dbg !1129
  %70 = getelementptr inbounds %struct.tagBITMAPINFOHDR, ptr %69, i32 0, i32 10, !dbg !1130
  store i64 %68, ptr %70, align 8, !dbg !1131
  br label %71, !dbg !1132

71:                                               ; preds = %4, %1
  ret void, !dbg !1133
}

; Function Attrs: mustprogress noinline optnone uwtable
define dso_local noundef zeroext i1 @_Z15FlexLoadBMPGrayPKcR9FlexImageIhLi1EE(ptr noundef %0, ptr noundef nonnull align 8 dereferenceable(36) %1) #2 !dbg !1134 {
  %3 = alloca i1, align 1
  %4 = alloca ptr, align 8
  %5 = alloca ptr, align 8
  %6 = alloca ptr, align 8
  %7 = alloca %struct.tagBITMAPFILEHDR, align 8
  %8 = alloca %struct.tagBITMAPINFOHDR, align 8
  %9 = alloca %struct.tagRGBA, align 1
  %10 = alloca i32, align 4
  %11 = alloca i32, align 4
  %12 = alloca i32, align 4
  %13 = alloca i32, align 4
  %14 = alloca i32, align 4
  %15 = alloca i8, align 1
  %16 = alloca i32, align 4
  store ptr %0, ptr %4, align 8
  call void @llvm.dbg.declare(metadata ptr %4, metadata !1140, metadata !DIExpression()), !dbg !1141
  store ptr %1, ptr %5, align 8
  call void @llvm.dbg.declare(metadata ptr %5, metadata !1142, metadata !DIExpression()), !dbg !1143
  call void @llvm.dbg.declare(metadata ptr %6, metadata !1144, metadata !DIExpression()), !dbg !1145
  call void @llvm.dbg.declare(metadata ptr %7, metadata !1146, metadata !DIExpression()), !dbg !1147
  call void @llvm.dbg.declare(metadata ptr %8, metadata !1148, metadata !DIExpression()), !dbg !1149
  %17 = load ptr, ptr %4, align 8, !dbg !1150
  %18 = call noalias ptr @fopen(ptr noundef %17, ptr noundef @.str), !dbg !1151
  store ptr %18, ptr %6, align 8, !dbg !1152
  %19 = load ptr, ptr %6, align 8, !dbg !1153
  %20 = icmp eq ptr %19, null, !dbg !1155
  br i1 %20, label %21, label %22, !dbg !1156

21:                                               ; preds = %2
  store i1 false, ptr %3, align 1, !dbg !1157
  br label %117, !dbg !1157

22:                                               ; preds = %2
  %23 = load ptr, ptr %6, align 8, !dbg !1158
  %24 = call i64 @fread(ptr noundef %7, i64 noundef 14, i64 noundef 1, ptr noundef %23), !dbg !1159
  call void @_Z11ConvertBmfhP16tagBITMAPFILEHDR(ptr noundef %7), !dbg !1160
  %25 = getelementptr inbounds %struct.tagBITMAPFILEHDR, ptr %7, i32 0, i32 0, !dbg !1161
  %26 = load i16, ptr %25, align 8, !dbg !1161
  %27 = zext i16 %26 to i32, !dbg !1163
  %28 = icmp ne i32 %27, 19778, !dbg !1164
  br i1 %28, label %29, label %30, !dbg !1165

29:                                               ; preds = %22
  store i1 false, ptr %3, align 1, !dbg !1166
  br label %117, !dbg !1166

30:                                               ; preds = %22
  %31 = load ptr, ptr %6, align 8, !dbg !1167
  %32 = call i64 @fread(ptr noundef %8, i64 noundef 40, i64 noundef 1, ptr noundef %31), !dbg !1168
  call void @_Z11ConvertBmihP16tagBITMAPINFOHDR(ptr noundef %8), !dbg !1169
  %33 = getelementptr inbounds %struct.tagBITMAPINFOHDR, ptr %8, i32 0, i32 4, !dbg !1170
  %34 = load i16, ptr %33, align 2, !dbg !1170
  %35 = zext i16 %34 to i32, !dbg !1172
  %36 = icmp ne i32 %35, 8, !dbg !1173
  br i1 %36, label %37, label %38, !dbg !1174

37:                                               ; preds = %30
  store i1 false, ptr %3, align 1, !dbg !1175
  br label %117, !dbg !1175

38:                                               ; preds = %30
  %39 = load ptr, ptr %5, align 8, !dbg !1176
  %40 = getelementptr inbounds %struct.tagBITMAPINFOHDR, ptr %8, i32 0, i32 1, !dbg !1177
  %41 = load i64, ptr %40, align 8, !dbg !1177
  %42 = trunc i64 %41 to i32, !dbg !1178
  %43 = getelementptr inbounds %struct.tagBITMAPINFOHDR, ptr %8, i32 0, i32 2, !dbg !1179
  %44 = load i64, ptr %43, align 8, !dbg !1179
  %45 = call noundef i64 @_ZSt3absl(i64 noundef %44), !dbg !1180
  %46 = trunc i64 %45 to i32, !dbg !1180
  %47 = call noundef zeroext i1 @_ZN9FlexImageIhLi1EE10ReallocateEii(ptr noundef nonnull align 8 dereferenceable(36) %39, i32 noundef %42, i32 noundef %46), !dbg !1181
  call void @llvm.dbg.declare(metadata ptr %9, metadata !1182, metadata !DIExpression()), !dbg !1190
  call void @llvm.dbg.declare(metadata ptr %10, metadata !1191, metadata !DIExpression()), !dbg !1193
  store i32 0, ptr %10, align 4, !dbg !1193
  br label %48, !dbg !1194

48:                                               ; preds = %57, %38
  %49 = load i32, ptr %10, align 4, !dbg !1195
  %50 = getelementptr inbounds %struct.tagBITMAPINFOHDR, ptr %8, i32 0, i32 9, !dbg !1197
  %51 = load i64, ptr %50, align 8, !dbg !1197
  %52 = trunc i64 %51 to i32, !dbg !1198
  %53 = icmp slt i32 %49, %52, !dbg !1199
  br i1 %53, label %54, label %60, !dbg !1200

54:                                               ; preds = %48
  %55 = load ptr, ptr %6, align 8, !dbg !1201
  %56 = call i64 @fread(ptr noundef %9, i64 noundef 4, i64 noundef 1, ptr noundef %55), !dbg !1202
  br label %57, !dbg !1202

57:                                               ; preds = %54
  %58 = load i32, ptr %10, align 4, !dbg !1203
  %59 = add nsw i32 %58, 1, !dbg !1203
  store i32 %59, ptr %10, align 4, !dbg !1203
  br label %48, !dbg !1204, !llvm.loop !1205

60:                                               ; preds = %48
  call void @llvm.dbg.declare(metadata ptr %11, metadata !1208, metadata !DIExpression()), !dbg !1209
  %61 = getelementptr inbounds %struct.tagBITMAPINFOHDR, ptr %8, i32 0, i32 1, !dbg !1210
  %62 = load i64, ptr %61, align 8, !dbg !1210
  %63 = trunc i64 %62 to i32, !dbg !1211
  store i32 %63, ptr %11, align 4, !dbg !1209
  br label %64, !dbg !1212

64:                                               ; preds = %68, %60
  %65 = load i32, ptr %11, align 4, !dbg !1213
  %66 = srem i32 %65, 4, !dbg !1214
  %67 = icmp ne i32 %66, 0, !dbg !1213
  br i1 %67, label %68, label %71, !dbg !1212

68:                                               ; preds = %64
  %69 = load i32, ptr %11, align 4, !dbg !1215
  %70 = add nsw i32 %69, 1, !dbg !1215
  store i32 %70, ptr %11, align 4, !dbg !1215
  br label %64, !dbg !1212, !llvm.loop !1216

71:                                               ; preds = %64
  call void @llvm.dbg.declare(metadata ptr %12, metadata !1217, metadata !DIExpression()), !dbg !1218
  store i32 1, ptr %12, align 4, !dbg !1218
  call void @llvm.dbg.declare(metadata ptr %13, metadata !1219, metadata !DIExpression()), !dbg !1220
  store i32 0, ptr %13, align 4, !dbg !1220
  %72 = getelementptr inbounds %struct.tagBITMAPINFOHDR, ptr %8, i32 0, i32 2, !dbg !1221
  %73 = load i64, ptr %72, align 8, !dbg !1221
  %74 = icmp sgt i64 %73, 0, !dbg !1223
  br i1 %74, label %75, label %79, !dbg !1224

75:                                               ; preds = %71
  store i32 -1, ptr %12, align 4, !dbg !1225
  %76 = load ptr, ptr %5, align 8, !dbg !1227
  %77 = call noundef i32 @_ZNK9FlexImageIhLi1EE6HeightEv(ptr noundef nonnull align 8 dereferenceable(36) %76), !dbg !1228
  %78 = sub nsw i32 %77, 1, !dbg !1229
  store i32 %78, ptr %13, align 4, !dbg !1230
  br label %79, !dbg !1231

79:                                               ; preds = %75, %71
  call void @llvm.dbg.declare(metadata ptr %14, metadata !1232, metadata !DIExpression()), !dbg !1234
  store i32 0, ptr %14, align 4, !dbg !1234
  br label %80, !dbg !1235

80:                                               ; preds = %111, %79
  %81 = load i32, ptr %14, align 4, !dbg !1236
  %82 = load ptr, ptr %5, align 8, !dbg !1238
  %83 = call noundef i32 @_ZNK9FlexImageIhLi1EE6HeightEv(ptr noundef nonnull align 8 dereferenceable(36) %82), !dbg !1239
  %84 = icmp slt i32 %81, %83, !dbg !1240
  br i1 %84, label %85, label %114, !dbg !1241

85:                                               ; preds = %80
  call void @llvm.dbg.declare(metadata ptr %15, metadata !1242, metadata !DIExpression()), !dbg !1244
  %86 = load ptr, ptr %5, align 8, !dbg !1245
  %87 = load i32, ptr %13, align 4, !dbg !1246
  %88 = call noundef nonnull align 1 dereferenceable(1) ptr @_ZN9FlexImageIhLi1EEclEii(ptr noundef nonnull align 8 dereferenceable(36) %86, i32 noundef 0, i32 noundef %87), !dbg !1245
  %89 = load ptr, ptr %5, align 8, !dbg !1247
  %90 = call noundef i32 @_ZNK9FlexImageIhLi1EE5WidthEv(ptr noundef nonnull align 8 dereferenceable(36) %89), !dbg !1248
  %91 = sext i32 %90 to i64, !dbg !1247
  %92 = load ptr, ptr %6, align 8, !dbg !1249
  %93 = call i64 @fread(ptr noundef %88, i64 noundef 1, i64 noundef %91, ptr noundef %92), !dbg !1250
  %94 = load i32, ptr %12, align 4, !dbg !1251
  %95 = load i32, ptr %13, align 4, !dbg !1252
  %96 = add nsw i32 %95, %94, !dbg !1252
  store i32 %96, ptr %13, align 4, !dbg !1252
  call void @llvm.dbg.declare(metadata ptr %16, metadata !1253, metadata !DIExpression()), !dbg !1255
  store i32 0, ptr %16, align 4, !dbg !1255
  br label %97, !dbg !1256

97:                                               ; preds = %107, %85
  %98 = load i32, ptr %16, align 4, !dbg !1257
  %99 = load i32, ptr %11, align 4, !dbg !1259
  %100 = load ptr, ptr %5, align 8, !dbg !1260
  %101 = call noundef i32 @_ZNK9FlexImageIhLi1EE5WidthEv(ptr noundef nonnull align 8 dereferenceable(36) %100), !dbg !1261
  %102 = sub nsw i32 %99, %101, !dbg !1262
  %103 = icmp slt i32 %98, %102, !dbg !1263
  br i1 %103, label %104, label %110, !dbg !1264

104:                                              ; preds = %97
  %105 = load ptr, ptr %6, align 8, !dbg !1265
  %106 = call i64 @fread(ptr noundef %15, i64 noundef 1, i64 noundef 1, ptr noundef %105), !dbg !1266
  br label %107, !dbg !1266

107:                                              ; preds = %104
  %108 = load i32, ptr %16, align 4, !dbg !1267
  %109 = add nsw i32 %108, 1, !dbg !1267
  store i32 %109, ptr %16, align 4, !dbg !1267
  br label %97, !dbg !1268, !llvm.loop !1269

110:                                              ; preds = %97
  br label %111, !dbg !1271

111:                                              ; preds = %110
  %112 = load i32, ptr %14, align 4, !dbg !1272
  %113 = add nsw i32 %112, 1, !dbg !1272
  store i32 %113, ptr %14, align 4, !dbg !1272
  br label %80, !dbg !1273, !llvm.loop !1274

114:                                              ; preds = %80
  %115 = load ptr, ptr %6, align 8, !dbg !1276
  %116 = call i32 @fclose(ptr noundef %115), !dbg !1277
  store i1 true, ptr %3, align 1, !dbg !1278
  br label %117, !dbg !1278

117:                                              ; preds = %114, %37, %29, %21
  %118 = load i1, ptr %3, align 1, !dbg !1279
  ret i1 %118, !dbg !1279
}

declare noalias ptr @fopen(ptr noundef, ptr noundef) #3

declare i64 @fread(ptr noundef, i64 noundef, i64 noundef, ptr noundef) #3

declare noundef zeroext i1 @_ZN9FlexImageIhLi1EE10ReallocateEii(ptr noundef nonnull align 8 dereferenceable(36), i32 noundef, i32 noundef) #3

; Function Attrs: mustprogress noinline nounwind optnone uwtable
define linkonce_odr dso_local noundef i64 @_ZSt3absl(i64 noundef %0) #0 comdat !dbg !1280 {
  %2 = alloca i64, align 8
  store i64 %0, ptr %2, align 8
  call void @llvm.dbg.declare(metadata ptr %2, metadata !1281, metadata !DIExpression()), !dbg !1282
  %3 = load i64, ptr %2, align 8, !dbg !1283
  %4 = sub nsw i64 0, %3, !dbg !1284
  %5 = icmp slt i64 %3, 0, !dbg !1284
  %6 = select i1 %5, i64 %4, i64 %3, !dbg !1284
  ret i64 %6, !dbg !1285
}

; Function Attrs: mustprogress noinline nounwind optnone uwtable
define linkonce_odr dso_local noundef i32 @_ZNK9FlexImageIhLi1EE6HeightEv(ptr noundef nonnull align 8 dereferenceable(36) %0) #0 comdat align 2 !dbg !1286 {
  %2 = alloca ptr, align 8
  store ptr %0, ptr %2, align 8
  call void @llvm.dbg.declare(metadata ptr %2, metadata !1292, metadata !DIExpression()), !dbg !1294
  %3 = load ptr, ptr %2, align 8
  %4 = getelementptr inbounds %class.FlexImage, ptr %3, i32 0, i32 4, !dbg !1295
  %5 = getelementptr inbounds %class.FISize, ptr %4, i32 0, i32 1, !dbg !1296
  %6 = load i32, ptr %5, align 4, !dbg !1296
  ret i32 %6, !dbg !1297
}

; Function Attrs: mustprogress noinline optnone uwtable
define linkonce_odr dso_local noundef nonnull align 1 dereferenceable(1) ptr @_ZN9FlexImageIhLi1EEclEii(ptr noundef nonnull align 8 dereferenceable(36) %0, i32 noundef %1, i32 noundef %2) #2 comdat align 2 !dbg !1298 {
  %4 = alloca ptr, align 8
  %5 = alloca i32, align 4
  %6 = alloca i32, align 4
  store ptr %0, ptr %4, align 8
  call void @llvm.dbg.declare(metadata ptr %4, metadata !1304, metadata !DIExpression()), !dbg !1306
  store i32 %1, ptr %5, align 4
  call void @llvm.dbg.declare(metadata ptr %5, metadata !1307, metadata !DIExpression()), !dbg !1308
  store i32 %2, ptr %6, align 4
  call void @llvm.dbg.declare(metadata ptr %6, metadata !1309, metadata !DIExpression()), !dbg !1310
  %7 = load ptr, ptr %4, align 8
  %8 = load i32, ptr %5, align 4, !dbg !1311
  %9 = load i32, ptr %6, align 4, !dbg !1312
  %10 = call noundef nonnull align 1 dereferenceable(1) ptr @_ZN9FlexImageIhLi1EEclEiii(ptr noundef nonnull align 8 dereferenceable(36) %7, i32 noundef %8, i32 noundef %9, i32 noundef 0), !dbg !1313
  ret ptr %10, !dbg !1314
}

; Function Attrs: mustprogress noinline nounwind optnone uwtable
define linkonce_odr dso_local noundef i32 @_ZNK9FlexImageIhLi1EE5WidthEv(ptr noundef nonnull align 8 dereferenceable(36) %0) #0 comdat align 2 !dbg !1315 {
  %2 = alloca ptr, align 8
  store ptr %0, ptr %2, align 8
  call void @llvm.dbg.declare(metadata ptr %2, metadata !1317, metadata !DIExpression()), !dbg !1318
  %3 = load ptr, ptr %2, align 8
  %4 = getelementptr inbounds %class.FlexImage, ptr %3, i32 0, i32 4, !dbg !1319
  %5 = getelementptr inbounds %class.FISize, ptr %4, i32 0, i32 0, !dbg !1320
  %6 = load i32, ptr %5, align 8, !dbg !1320
  ret i32 %6, !dbg !1321
}

declare i32 @fclose(ptr noundef) #3

; Function Attrs: mustprogress noinline optnone uwtable
define dso_local noundef zeroext i1 @_Z16FlexLoadBMPColorPKcR9FlexImageIhLi3EE(ptr noundef %0, ptr noundef nonnull align 8 dereferenceable(36) %1) #2 !dbg !1322 {
  %3 = alloca i1, align 1
  %4 = alloca ptr, align 8
  %5 = alloca ptr, align 8
  %6 = alloca ptr, align 8
  %7 = alloca %struct.tagBITMAPFILEHDR, align 8
  %8 = alloca %struct.tagBITMAPINFOHDR, align 8
  %9 = alloca %struct.tagRGBA, align 1
  %10 = alloca i32, align 4
  %11 = alloca i32, align 4
  %12 = alloca i32, align 4
  %13 = alloca i32, align 4
  %14 = alloca i32, align 4
  %15 = alloca i8, align 1
  %16 = alloca i32, align 4
  store ptr %0, ptr %4, align 8
  call void @llvm.dbg.declare(metadata ptr %4, metadata !1327, metadata !DIExpression()), !dbg !1328
  store ptr %1, ptr %5, align 8
  call void @llvm.dbg.declare(metadata ptr %5, metadata !1329, metadata !DIExpression()), !dbg !1330
  call void @llvm.dbg.declare(metadata ptr %6, metadata !1331, metadata !DIExpression()), !dbg !1332
  call void @llvm.dbg.declare(metadata ptr %7, metadata !1333, metadata !DIExpression()), !dbg !1334
  call void @llvm.dbg.declare(metadata ptr %8, metadata !1335, metadata !DIExpression()), !dbg !1336
  %17 = load ptr, ptr %4, align 8, !dbg !1337
  %18 = call noalias ptr @fopen(ptr noundef %17, ptr noundef @.str), !dbg !1338
  store ptr %18, ptr %6, align 8, !dbg !1339
  %19 = load ptr, ptr %6, align 8, !dbg !1340
  %20 = icmp eq ptr %19, null, !dbg !1342
  br i1 %20, label %21, label %22, !dbg !1343

21:                                               ; preds = %2
  store i1 false, ptr %3, align 1, !dbg !1344
  br label %120, !dbg !1344

22:                                               ; preds = %2
  %23 = load ptr, ptr %6, align 8, !dbg !1345
  %24 = call i64 @fread(ptr noundef %7, i64 noundef 14, i64 noundef 1, ptr noundef %23), !dbg !1346
  call void @_Z11ConvertBmfhP16tagBITMAPFILEHDR(ptr noundef %7), !dbg !1347
  %25 = getelementptr inbounds %struct.tagBITMAPFILEHDR, ptr %7, i32 0, i32 0, !dbg !1348
  %26 = load i16, ptr %25, align 8, !dbg !1348
  %27 = zext i16 %26 to i32, !dbg !1350
  %28 = icmp ne i32 %27, 19778, !dbg !1351
  br i1 %28, label %29, label %30, !dbg !1352

29:                                               ; preds = %22
  store i1 false, ptr %3, align 1, !dbg !1353
  br label %120, !dbg !1353

30:                                               ; preds = %22
  %31 = load ptr, ptr %6, align 8, !dbg !1354
  %32 = call i64 @fread(ptr noundef %8, i64 noundef 40, i64 noundef 1, ptr noundef %31), !dbg !1355
  call void @_Z11ConvertBmihP16tagBITMAPINFOHDR(ptr noundef %8), !dbg !1356
  %33 = getelementptr inbounds %struct.tagBITMAPINFOHDR, ptr %8, i32 0, i32 4, !dbg !1357
  %34 = load i16, ptr %33, align 2, !dbg !1357
  %35 = zext i16 %34 to i32, !dbg !1359
  %36 = icmp ne i32 %35, 24, !dbg !1360
  br i1 %36, label %37, label %38, !dbg !1361

37:                                               ; preds = %30
  store i1 false, ptr %3, align 1, !dbg !1362
  br label %120, !dbg !1362

38:                                               ; preds = %30
  %39 = load ptr, ptr %5, align 8, !dbg !1363
  %40 = getelementptr inbounds %struct.tagBITMAPINFOHDR, ptr %8, i32 0, i32 1, !dbg !1364
  %41 = load i64, ptr %40, align 8, !dbg !1364
  %42 = trunc i64 %41 to i32, !dbg !1365
  %43 = getelementptr inbounds %struct.tagBITMAPINFOHDR, ptr %8, i32 0, i32 2, !dbg !1366
  %44 = load i64, ptr %43, align 8, !dbg !1366
  %45 = call noundef i64 @_ZSt3absl(i64 noundef %44), !dbg !1367
  %46 = trunc i64 %45 to i32, !dbg !1367
  %47 = call noundef zeroext i1 @_ZN9FlexImageIhLi3EE10ReallocateEii(ptr noundef nonnull align 8 dereferenceable(36) %39, i32 noundef %42, i32 noundef %46), !dbg !1368
  call void @llvm.dbg.declare(metadata ptr %9, metadata !1369, metadata !DIExpression()), !dbg !1370
  call void @llvm.dbg.declare(metadata ptr %10, metadata !1371, metadata !DIExpression()), !dbg !1373
  store i32 0, ptr %10, align 4, !dbg !1373
  br label %48, !dbg !1374

48:                                               ; preds = %57, %38
  %49 = load i32, ptr %10, align 4, !dbg !1375
  %50 = getelementptr inbounds %struct.tagBITMAPINFOHDR, ptr %8, i32 0, i32 9, !dbg !1377
  %51 = load i64, ptr %50, align 8, !dbg !1377
  %52 = trunc i64 %51 to i32, !dbg !1378
  %53 = icmp slt i32 %49, %52, !dbg !1379
  br i1 %53, label %54, label %60, !dbg !1380

54:                                               ; preds = %48
  %55 = load ptr, ptr %6, align 8, !dbg !1381
  %56 = call i64 @fread(ptr noundef %9, i64 noundef 4, i64 noundef 1, ptr noundef %55), !dbg !1382
  br label %57, !dbg !1382

57:                                               ; preds = %54
  %58 = load i32, ptr %10, align 4, !dbg !1383
  %59 = add nsw i32 %58, 1, !dbg !1383
  store i32 %59, ptr %10, align 4, !dbg !1383
  br label %48, !dbg !1384, !llvm.loop !1385

60:                                               ; preds = %48
  call void @llvm.dbg.declare(metadata ptr %11, metadata !1387, metadata !DIExpression()), !dbg !1388
  %61 = getelementptr inbounds %struct.tagBITMAPINFOHDR, ptr %8, i32 0, i32 1, !dbg !1389
  %62 = load i64, ptr %61, align 8, !dbg !1389
  %63 = mul nsw i64 3, %62, !dbg !1390
  %64 = trunc i64 %63 to i32, !dbg !1391
  store i32 %64, ptr %11, align 4, !dbg !1388
  br label %65, !dbg !1392

65:                                               ; preds = %69, %60
  %66 = load i32, ptr %11, align 4, !dbg !1393
  %67 = srem i32 %66, 4, !dbg !1394
  %68 = icmp ne i32 %67, 0, !dbg !1393
  br i1 %68, label %69, label %72, !dbg !1392

69:                                               ; preds = %65
  %70 = load i32, ptr %11, align 4, !dbg !1395
  %71 = add nsw i32 %70, 1, !dbg !1395
  store i32 %71, ptr %11, align 4, !dbg !1395
  br label %65, !dbg !1392, !llvm.loop !1396

72:                                               ; preds = %65
  call void @llvm.dbg.declare(metadata ptr %12, metadata !1397, metadata !DIExpression()), !dbg !1398
  store i32 1, ptr %12, align 4, !dbg !1398
  call void @llvm.dbg.declare(metadata ptr %13, metadata !1399, metadata !DIExpression()), !dbg !1400
  store i32 0, ptr %13, align 4, !dbg !1400
  %73 = getelementptr inbounds %struct.tagBITMAPINFOHDR, ptr %8, i32 0, i32 2, !dbg !1401
  %74 = load i64, ptr %73, align 8, !dbg !1401
  %75 = icmp sgt i64 %74, 0, !dbg !1403
  br i1 %75, label %76, label %80, !dbg !1404

76:                                               ; preds = %72
  store i32 -1, ptr %12, align 4, !dbg !1405
  %77 = load ptr, ptr %5, align 8, !dbg !1407
  %78 = call noundef i32 @_ZNK9FlexImageIhLi3EE6HeightEv(ptr noundef nonnull align 8 dereferenceable(36) %77), !dbg !1408
  %79 = sub nsw i32 %78, 1, !dbg !1409
  store i32 %79, ptr %13, align 4, !dbg !1410
  br label %80, !dbg !1411

80:                                               ; preds = %76, %72
  call void @llvm.dbg.declare(metadata ptr %14, metadata !1412, metadata !DIExpression()), !dbg !1414
  store i32 0, ptr %14, align 4, !dbg !1414
  br label %81, !dbg !1415

81:                                               ; preds = %114, %80
  %82 = load i32, ptr %14, align 4, !dbg !1416
  %83 = load ptr, ptr %5, align 8, !dbg !1418
  %84 = call noundef i32 @_ZNK9FlexImageIhLi3EE6HeightEv(ptr noundef nonnull align 8 dereferenceable(36) %83), !dbg !1419
  %85 = icmp slt i32 %82, %84, !dbg !1420
  br i1 %85, label %86, label %117, !dbg !1421

86:                                               ; preds = %81
  call void @llvm.dbg.declare(metadata ptr %15, metadata !1422, metadata !DIExpression()), !dbg !1424
  %87 = load ptr, ptr %5, align 8, !dbg !1425
  %88 = load i32, ptr %13, align 4, !dbg !1426
  %89 = call noundef nonnull align 1 dereferenceable(1) ptr @_ZN9FlexImageIhLi3EEclEii(ptr noundef nonnull align 8 dereferenceable(36) %87, i32 noundef 0, i32 noundef %88), !dbg !1425
  %90 = load ptr, ptr %5, align 8, !dbg !1427
  %91 = call noundef i32 @_ZNK9FlexImageIhLi3EE5WidthEv(ptr noundef nonnull align 8 dereferenceable(36) %90), !dbg !1428
  %92 = mul nsw i32 %91, 3, !dbg !1429
  %93 = sext i32 %92 to i64, !dbg !1427
  %94 = load ptr, ptr %6, align 8, !dbg !1430
  %95 = call i64 @fread(ptr noundef %89, i64 noundef 1, i64 noundef %93, ptr noundef %94), !dbg !1431
  %96 = load i32, ptr %12, align 4, !dbg !1432
  %97 = load i32, ptr %13, align 4, !dbg !1433
  %98 = add nsw i32 %97, %96, !dbg !1433
  store i32 %98, ptr %13, align 4, !dbg !1433
  call void @llvm.dbg.declare(metadata ptr %16, metadata !1434, metadata !DIExpression()), !dbg !1436
  store i32 0, ptr %16, align 4, !dbg !1436
  br label %99, !dbg !1437

99:                                               ; preds = %110, %86
  %100 = load i32, ptr %16, align 4, !dbg !1438
  %101 = load i32, ptr %11, align 4, !dbg !1440
  %102 = load ptr, ptr %5, align 8, !dbg !1441
  %103 = call noundef i32 @_ZNK9FlexImageIhLi3EE5WidthEv(ptr noundef nonnull align 8 dereferenceable(36) %102), !dbg !1442
  %104 = mul nsw i32 %103, 3, !dbg !1443
  %105 = sub nsw i32 %101, %104, !dbg !1444
  %106 = icmp slt i32 %100, %105, !dbg !1445
  br i1 %106, label %107, label %113, !dbg !1446

107:                                              ; preds = %99
  %108 = load ptr, ptr %6, align 8, !dbg !1447
  %109 = call i64 @fread(ptr noundef %15, i64 noundef 1, i64 noundef 1, ptr noundef %108), !dbg !1448
  br label %110, !dbg !1448

110:                                              ; preds = %107
  %111 = load i32, ptr %16, align 4, !dbg !1449
  %112 = add nsw i32 %111, 1, !dbg !1449
  store i32 %112, ptr %16, align 4, !dbg !1449
  br label %99, !dbg !1450, !llvm.loop !1451

113:                                              ; preds = %99
  br label %114, !dbg !1453

114:                                              ; preds = %113
  %115 = load i32, ptr %14, align 4, !dbg !1454
  %116 = add nsw i32 %115, 1, !dbg !1454
  store i32 %116, ptr %14, align 4, !dbg !1454
  br label %81, !dbg !1455, !llvm.loop !1456

117:                                              ; preds = %81
  %118 = load ptr, ptr %6, align 8, !dbg !1458
  %119 = call i32 @fclose(ptr noundef %118), !dbg !1459
  store i1 true, ptr %3, align 1, !dbg !1460
  br label %120, !dbg !1460

120:                                              ; preds = %117, %37, %29, %21
  %121 = load i1, ptr %3, align 1, !dbg !1461
  ret i1 %121, !dbg !1461
}

declare noundef zeroext i1 @_ZN9FlexImageIhLi3EE10ReallocateEii(ptr noundef nonnull align 8 dereferenceable(36), i32 noundef, i32 noundef) #3

; Function Attrs: mustprogress noinline nounwind optnone uwtable
define linkonce_odr dso_local noundef i32 @_ZNK9FlexImageIhLi3EE6HeightEv(ptr noundef nonnull align 8 dereferenceable(36) %0) #0 comdat align 2 !dbg !1462 {
  %2 = alloca ptr, align 8
  store ptr %0, ptr %2, align 8
  call void @llvm.dbg.declare(metadata ptr %2, metadata !1468, metadata !DIExpression()), !dbg !1470
  %3 = load ptr, ptr %2, align 8
  %4 = getelementptr inbounds %class.FlexImage.2, ptr %3, i32 0, i32 4, !dbg !1471
  %5 = getelementptr inbounds %class.FISize, ptr %4, i32 0, i32 1, !dbg !1472
  %6 = load i32, ptr %5, align 4, !dbg !1472
  ret i32 %6, !dbg !1473
}

; Function Attrs: mustprogress noinline optnone uwtable
define linkonce_odr dso_local noundef nonnull align 1 dereferenceable(1) ptr @_ZN9FlexImageIhLi3EEclEii(ptr noundef nonnull align 8 dereferenceable(36) %0, i32 noundef %1, i32 noundef %2) #2 comdat align 2 !dbg !1474 {
  %4 = alloca ptr, align 8
  %5 = alloca i32, align 4
  %6 = alloca i32, align 4
  store ptr %0, ptr %4, align 8
  call void @llvm.dbg.declare(metadata ptr %4, metadata !1479, metadata !DIExpression()), !dbg !1481
  store i32 %1, ptr %5, align 4
  call void @llvm.dbg.declare(metadata ptr %5, metadata !1482, metadata !DIExpression()), !dbg !1483
  store i32 %2, ptr %6, align 4
  call void @llvm.dbg.declare(metadata ptr %6, metadata !1484, metadata !DIExpression()), !dbg !1485
  %7 = load ptr, ptr %4, align 8
  %8 = load i32, ptr %5, align 4, !dbg !1486
  %9 = load i32, ptr %6, align 4, !dbg !1487
  %10 = call noundef nonnull align 1 dereferenceable(1) ptr @_ZN9FlexImageIhLi3EEclEiii(ptr noundef nonnull align 8 dereferenceable(36) %7, i32 noundef %8, i32 noundef %9, i32 noundef 0), !dbg !1488
  ret ptr %10, !dbg !1489
}

; Function Attrs: mustprogress noinline nounwind optnone uwtable
define linkonce_odr dso_local noundef i32 @_ZNK9FlexImageIhLi3EE5WidthEv(ptr noundef nonnull align 8 dereferenceable(36) %0) #0 comdat align 2 !dbg !1490 {
  %2 = alloca ptr, align 8
  store ptr %0, ptr %2, align 8
  call void @llvm.dbg.declare(metadata ptr %2, metadata !1492, metadata !DIExpression()), !dbg !1493
  %3 = load ptr, ptr %2, align 8
  %4 = getelementptr inbounds %class.FlexImage.2, ptr %3, i32 0, i32 4, !dbg !1494
  %5 = getelementptr inbounds %class.FISize, ptr %4, i32 0, i32 0, !dbg !1495
  %6 = load i32, ptr %5, align 8, !dbg !1495
  ret i32 %6, !dbg !1496
}

; Function Attrs: mustprogress noinline optnone uwtable
define dso_local noundef zeroext i1 @_Z13FlexLoadBMP8uPKcR9FlexImageIhLi3EE(ptr noundef %0, ptr noundef nonnull align 8 dereferenceable(36) %1) #2 personality ptr @__gxx_personality_v0 !dbg !1497 {
  %3 = alloca i1, align 1
  %4 = alloca ptr, align 8
  %5 = alloca ptr, align 8
  %6 = alloca ptr, align 8
  %7 = alloca %struct.tagBITMAPFILEHDR, align 8
  %8 = alloca %struct.tagBITMAPINFOHDR, align 8
  %9 = alloca %class.FlexImage, align 8
  %10 = alloca ptr, align 8
  %11 = alloca i32, align 4
  store ptr %0, ptr %4, align 8
  call void @llvm.dbg.declare(metadata ptr %4, metadata !1498, metadata !DIExpression()), !dbg !1499
  store ptr %1, ptr %5, align 8
  call void @llvm.dbg.declare(metadata ptr %5, metadata !1500, metadata !DIExpression()), !dbg !1501
  call void @llvm.dbg.declare(metadata ptr %6, metadata !1502, metadata !DIExpression()), !dbg !1503
  call void @llvm.dbg.declare(metadata ptr %7, metadata !1504, metadata !DIExpression()), !dbg !1505
  call void @llvm.dbg.declare(metadata ptr %8, metadata !1506, metadata !DIExpression()), !dbg !1507
  %12 = load ptr, ptr %4, align 8, !dbg !1508
  %13 = call noalias ptr @fopen(ptr noundef %12, ptr noundef @.str), !dbg !1509
  store ptr %13, ptr %6, align 8, !dbg !1510
  %14 = load ptr, ptr %6, align 8, !dbg !1511
  %15 = icmp eq ptr %14, null, !dbg !1513
  br i1 %15, label %16, label %17, !dbg !1514

16:                                               ; preds = %2
  store i1 false, ptr %3, align 1, !dbg !1515
  br label %72, !dbg !1515

17:                                               ; preds = %2
  %18 = load ptr, ptr %6, align 8, !dbg !1516
  %19 = call i64 @fread(ptr noundef %7, i64 noundef 14, i64 noundef 1, ptr noundef %18), !dbg !1517
  call void @_Z11ConvertBmfhP16tagBITMAPFILEHDR(ptr noundef %7), !dbg !1518
  %20 = getelementptr inbounds %struct.tagBITMAPFILEHDR, ptr %7, i32 0, i32 0, !dbg !1519
  %21 = load i16, ptr %20, align 8, !dbg !1519
  %22 = zext i16 %21 to i32, !dbg !1521
  %23 = icmp ne i32 %22, 19778, !dbg !1522
  br i1 %23, label %24, label %25, !dbg !1523

24:                                               ; preds = %17
  store i1 false, ptr %3, align 1, !dbg !1524
  br label %72, !dbg !1524

25:                                               ; preds = %17
  %26 = load ptr, ptr %6, align 8, !dbg !1525
  %27 = call i64 @fread(ptr noundef %8, i64 noundef 40, i64 noundef 1, ptr noundef %26), !dbg !1526
  call void @_Z11ConvertBmihP16tagBITMAPINFOHDR(ptr noundef %8), !dbg !1527
  %28 = getelementptr inbounds %struct.tagBITMAPINFOHDR, ptr %8, i32 0, i32 4, !dbg !1528
  %29 = load i16, ptr %28, align 2, !dbg !1528
  %30 = zext i16 %29 to i32, !dbg !1530
  %31 = icmp eq i32 %30, 8, !dbg !1531
  br i1 %31, label %32, label %58, !dbg !1532

32:                                               ; preds = %25
  %33 = load ptr, ptr %6, align 8, !dbg !1533
  %34 = call i32 @fclose(ptr noundef %33), !dbg !1535
  call void @llvm.dbg.declare(metadata ptr %9, metadata !1536, metadata !DIExpression()), !dbg !1537
  call void @_ZN9FlexImageIhLi1EEC1Ev(ptr noundef nonnull align 8 dereferenceable(36) %9), !dbg !1537
  %35 = load ptr, ptr %4, align 8, !dbg !1538
  %36 = invoke noundef zeroext i1 @_Z15FlexLoadBMPGrayPKcR9FlexImageIhLi1EE(ptr noundef %35, ptr noundef nonnull align 8 dereferenceable(36) %9)
          to label %37 unwind label %54, !dbg !1539

37:                                               ; preds = %32
  %38 = load ptr, ptr %5, align 8, !dbg !1540
  %39 = invoke noundef i32 @_ZNK9FlexImageIhLi1EE5WidthEv(ptr noundef nonnull align 8 dereferenceable(36) %9)
          to label %40 unwind label %54, !dbg !1541

40:                                               ; preds = %37
  %41 = invoke noundef i32 @_ZNK9FlexImageIhLi1EE6HeightEv(ptr noundef nonnull align 8 dereferenceable(36) %9)
          to label %42 unwind label %54, !dbg !1542

42:                                               ; preds = %40
  %43 = invoke noundef zeroext i1 @_ZN9FlexImageIhLi3EE12ReallocateNEEii(ptr noundef nonnull align 8 dereferenceable(36) %38, i32 noundef %39, i32 noundef %41)
          to label %44 unwind label %54, !dbg !1543

44:                                               ; preds = %42
  %45 = load ptr, ptr %5, align 8, !dbg !1544
  %46 = invoke noundef i32 @_Z12FlexCopyC1CMIhLi3EEiR9FlexImageIT_Li1EERS0_IS1_XT0_EEi(ptr noundef nonnull align 8 dereferenceable(36) %9, ptr noundef nonnull align 8 dereferenceable(36) %45, i32 noundef 0)
          to label %47 unwind label %54, !dbg !1545

47:                                               ; preds = %44
  %48 = load ptr, ptr %5, align 8, !dbg !1546
  %49 = invoke noundef i32 @_Z12FlexCopyC1CMIhLi3EEiR9FlexImageIT_Li1EERS0_IS1_XT0_EEi(ptr noundef nonnull align 8 dereferenceable(36) %9, ptr noundef nonnull align 8 dereferenceable(36) %48, i32 noundef 1)
          to label %50 unwind label %54, !dbg !1547

50:                                               ; preds = %47
  %51 = load ptr, ptr %5, align 8, !dbg !1548
  %52 = invoke noundef i32 @_Z12FlexCopyC1CMIhLi3EEiR9FlexImageIT_Li1EERS0_IS1_XT0_EEi(ptr noundef nonnull align 8 dereferenceable(36) %9, ptr noundef nonnull align 8 dereferenceable(36) %51, i32 noundef 2)
          to label %53 unwind label %54, !dbg !1549

53:                                               ; preds = %50
  store i1 true, ptr %3, align 1, !dbg !1550
  call void @_ZN9FlexImageIhLi1EED1Ev(ptr noundef nonnull align 8 dereferenceable(36) %9) #6, !dbg !1551
  br label %72

54:                                               ; preds = %50, %47, %44, %42, %40, %37, %32
  %55 = landingpad { ptr, i32 }
          cleanup, !dbg !1552
  %56 = extractvalue { ptr, i32 } %55, 0, !dbg !1552
  store ptr %56, ptr %10, align 8, !dbg !1552
  %57 = extractvalue { ptr, i32 } %55, 1, !dbg !1552
  store i32 %57, ptr %11, align 4, !dbg !1552
  call void @_ZN9FlexImageIhLi1EED1Ev(ptr noundef nonnull align 8 dereferenceable(36) %9) #6, !dbg !1551
  br label %74, !dbg !1551

58:                                               ; preds = %25
  %59 = getelementptr inbounds %struct.tagBITMAPINFOHDR, ptr %8, i32 0, i32 4, !dbg !1553
  %60 = load i16, ptr %59, align 2, !dbg !1553
  %61 = zext i16 %60 to i32, !dbg !1555
  %62 = icmp eq i32 %61, 24, !dbg !1556
  br i1 %62, label %63, label %69, !dbg !1557

63:                                               ; preds = %58
  %64 = load ptr, ptr %6, align 8, !dbg !1558
  %65 = call i32 @fclose(ptr noundef %64), !dbg !1560
  %66 = load ptr, ptr %4, align 8, !dbg !1561
  %67 = load ptr, ptr %5, align 8, !dbg !1562
  %68 = call noundef zeroext i1 @_Z16FlexLoadBMPColorPKcR9FlexImageIhLi3EE(ptr noundef %66, ptr noundef nonnull align 8 dereferenceable(36) %67), !dbg !1563
  store i1 true, ptr %3, align 1, !dbg !1564
  br label %72, !dbg !1564

69:                                               ; preds = %58
  %70 = load ptr, ptr %6, align 8, !dbg !1565
  %71 = call i32 @fclose(ptr noundef %70), !dbg !1566
  store i1 false, ptr %3, align 1, !dbg !1567
  br label %72, !dbg !1567

72:                                               ; preds = %69, %63, %53, %24, %16
  %73 = load i1, ptr %3, align 1, !dbg !1568
  ret i1 %73, !dbg !1568

74:                                               ; preds = %54
  %75 = load ptr, ptr %10, align 8, !dbg !1551
  %76 = load i32, ptr %11, align 4, !dbg !1551
  %77 = insertvalue { ptr, i32 } poison, ptr %75, 0, !dbg !1551
  %78 = insertvalue { ptr, i32 } %77, i32 %76, 1, !dbg !1551
  resume { ptr, i32 } %78, !dbg !1551
}

declare void @_ZN9FlexImageIhLi1EEC1Ev(ptr noundef nonnull align 8 dereferenceable(36)) unnamed_addr #3

declare i32 @__gxx_personality_v0(...)

declare noundef zeroext i1 @_ZN9FlexImageIhLi3EE12ReallocateNEEii(ptr noundef nonnull align 8 dereferenceable(36), i32 noundef, i32 noundef) #3

; Function Attrs: mustprogress noinline optnone uwtable
define linkonce_odr dso_local noundef i32 @_Z12FlexCopyC1CMIhLi3EEiR9FlexImageIT_Li1EERS0_IS1_XT0_EEi(ptr noundef nonnull align 8 dereferenceable(36) %0, ptr noundef nonnull align 8 dereferenceable(36) %1, i32 noundef %2) #2 comdat !dbg !1569 {
  %4 = alloca i32, align 4
  %5 = alloca ptr, align 8
  %6 = alloca ptr, align 8
  %7 = alloca i32, align 4
  %8 = alloca i32, align 4
  %9 = alloca i32, align 4
  %10 = alloca ptr, align 8
  %11 = alloca ptr, align 8
  %12 = alloca i32, align 4
  %13 = alloca ptr, align 8
  %14 = alloca ptr, align 8
  %15 = alloca i32, align 4
  store ptr %0, ptr %5, align 8
  call void @llvm.dbg.declare(metadata ptr %5, metadata !1576, metadata !DIExpression()), !dbg !1577
  store ptr %1, ptr %6, align 8
  call void @llvm.dbg.declare(metadata ptr %6, metadata !1578, metadata !DIExpression()), !dbg !1579
  store i32 %2, ptr %7, align 4
  call void @llvm.dbg.declare(metadata ptr %7, metadata !1580, metadata !DIExpression()), !dbg !1581
  %16 = load i32, ptr %7, align 4, !dbg !1582
  %17 = add nsw i32 %16, 1, !dbg !1584
  %18 = icmp slt i32 3, %17, !dbg !1585
  br i1 %18, label %19, label %20, !dbg !1586

19:                                               ; preds = %3
  store i32 -1, ptr %4, align 4, !dbg !1587
  br label %90, !dbg !1587

20:                                               ; preds = %3
  call void @llvm.dbg.declare(metadata ptr %8, metadata !1588, metadata !DIExpression()), !dbg !1589
  %21 = load ptr, ptr %5, align 8, !dbg !1590
  %22 = call noundef i32 @_ZNK9FlexImageIhLi1EE5WidthEv(ptr noundef nonnull align 8 dereferenceable(36) %21), !dbg !1590
  %23 = load ptr, ptr %6, align 8, !dbg !1590
  %24 = call noundef i32 @_ZNK9FlexImageIhLi3EE5WidthEv(ptr noundef nonnull align 8 dereferenceable(36) %23), !dbg !1590
  %25 = icmp slt i32 %22, %24, !dbg !1590
  br i1 %25, label %26, label %29, !dbg !1590

26:                                               ; preds = %20
  %27 = load ptr, ptr %5, align 8, !dbg !1590
  %28 = call noundef i32 @_ZNK9FlexImageIhLi1EE5WidthEv(ptr noundef nonnull align 8 dereferenceable(36) %27), !dbg !1590
  br label %32, !dbg !1590

29:                                               ; preds = %20
  %30 = load ptr, ptr %6, align 8, !dbg !1590
  %31 = call noundef i32 @_ZNK9FlexImageIhLi3EE5WidthEv(ptr noundef nonnull align 8 dereferenceable(36) %30), !dbg !1590
  br label %32, !dbg !1590

32:                                               ; preds = %29, %26
  %33 = phi i32 [ %28, %26 ], [ %31, %29 ], !dbg !1590
  store i32 %33, ptr %8, align 4, !dbg !1589
  call void @llvm.dbg.declare(metadata ptr %9, metadata !1591, metadata !DIExpression()), !dbg !1592
  %34 = load ptr, ptr %5, align 8, !dbg !1593
  %35 = call noundef i32 @_ZNK9FlexImageIhLi1EE6HeightEv(ptr noundef nonnull align 8 dereferenceable(36) %34), !dbg !1593
  %36 = load ptr, ptr %6, align 8, !dbg !1593
  %37 = call noundef i32 @_ZNK9FlexImageIhLi3EE6HeightEv(ptr noundef nonnull align 8 dereferenceable(36) %36), !dbg !1593
  %38 = icmp slt i32 %35, %37, !dbg !1593
  br i1 %38, label %39, label %42, !dbg !1593

39:                                               ; preds = %32
  %40 = load ptr, ptr %5, align 8, !dbg !1593
  %41 = call noundef i32 @_ZNK9FlexImageIhLi1EE6HeightEv(ptr noundef nonnull align 8 dereferenceable(36) %40), !dbg !1593
  br label %45, !dbg !1593

42:                                               ; preds = %32
  %43 = load ptr, ptr %6, align 8, !dbg !1593
  %44 = call noundef i32 @_ZNK9FlexImageIhLi3EE6HeightEv(ptr noundef nonnull align 8 dereferenceable(36) %43), !dbg !1593
  br label %45, !dbg !1593

45:                                               ; preds = %42, %39
  %46 = phi i32 [ %41, %39 ], [ %44, %42 ], !dbg !1593
  store i32 %46, ptr %9, align 4, !dbg !1592
  call void @llvm.dbg.declare(metadata ptr %10, metadata !1594, metadata !DIExpression()), !dbg !1595
  %47 = load ptr, ptr %5, align 8, !dbg !1596
  %48 = call noundef ptr @_ZN9FlexImageIhLi1EE4DataEv(ptr noundef nonnull align 8 dereferenceable(36) %47), !dbg !1597
  store ptr %48, ptr %10, align 8, !dbg !1595
  call void @llvm.dbg.declare(metadata ptr %11, metadata !1598, metadata !DIExpression()), !dbg !1599
  %49 = load ptr, ptr %6, align 8, !dbg !1600
  %50 = call noundef ptr @_ZN9FlexImageIhLi3EE4DataEv(ptr noundef nonnull align 8 dereferenceable(36) %49), !dbg !1601
  %51 = load i32, ptr %7, align 4, !dbg !1602
  %52 = sext i32 %51 to i64, !dbg !1603
  %53 = getelementptr inbounds i8, ptr %50, i64 %52, !dbg !1603
  store ptr %53, ptr %11, align 8, !dbg !1599
  call void @llvm.dbg.declare(metadata ptr %12, metadata !1604, metadata !DIExpression()), !dbg !1606
  store i32 0, ptr %12, align 4, !dbg !1606
  br label %54, !dbg !1607

54:                                               ; preds = %86, %45
  %55 = load i32, ptr %12, align 4, !dbg !1608
  %56 = load i32, ptr %9, align 4, !dbg !1610
  %57 = icmp slt i32 %55, %56, !dbg !1611
  br i1 %57, label %58, label %89, !dbg !1612

58:                                               ; preds = %54
  call void @llvm.dbg.declare(metadata ptr %13, metadata !1613, metadata !DIExpression()), !dbg !1615
  %59 = load ptr, ptr %10, align 8, !dbg !1616
  store ptr %59, ptr %13, align 8, !dbg !1615
  call void @llvm.dbg.declare(metadata ptr %14, metadata !1617, metadata !DIExpression()), !dbg !1618
  %60 = load ptr, ptr %11, align 8, !dbg !1619
  store ptr %60, ptr %14, align 8, !dbg !1618
  call void @llvm.dbg.declare(metadata ptr %15, metadata !1620, metadata !DIExpression()), !dbg !1622
  store i32 0, ptr %15, align 4, !dbg !1622
  br label %61, !dbg !1623

61:                                               ; preds = %72, %58
  %62 = load i32, ptr %15, align 4, !dbg !1624
  %63 = load i32, ptr %8, align 4, !dbg !1626
  %64 = icmp slt i32 %62, %63, !dbg !1627
  br i1 %64, label %65, label %75, !dbg !1628

65:                                               ; preds = %61
  %66 = load ptr, ptr %13, align 8, !dbg !1629
  %67 = getelementptr inbounds i8, ptr %66, i32 1, !dbg !1629
  store ptr %67, ptr %13, align 8, !dbg !1629
  %68 = load i8, ptr %66, align 1, !dbg !1631
  %69 = load ptr, ptr %14, align 8, !dbg !1632
  store i8 %68, ptr %69, align 1, !dbg !1633
  %70 = load ptr, ptr %14, align 8, !dbg !1634
  %71 = getelementptr inbounds i8, ptr %70, i64 3, !dbg !1634
  store ptr %71, ptr %14, align 8, !dbg !1634
  br label %72, !dbg !1635

72:                                               ; preds = %65
  %73 = load i32, ptr %15, align 4, !dbg !1636
  %74 = add nsw i32 %73, 1, !dbg !1636
  store i32 %74, ptr %15, align 4, !dbg !1636
  br label %61, !dbg !1637, !llvm.loop !1638

75:                                               ; preds = %61
  %76 = load ptr, ptr %10, align 8, !dbg !1640
  %77 = load ptr, ptr %5, align 8, !dbg !1641
  %78 = call noundef i32 @_ZNK9FlexImageIhLi1EE9StepBytesEv(ptr noundef nonnull align 8 dereferenceable(36) %77), !dbg !1642
  %79 = sext i32 %78 to i64, !dbg !1643
  %80 = getelementptr inbounds i8, ptr %76, i64 %79, !dbg !1643
  store ptr %80, ptr %10, align 8, !dbg !1644
  %81 = load ptr, ptr %11, align 8, !dbg !1645
  %82 = load ptr, ptr %6, align 8, !dbg !1646
  %83 = call noundef i32 @_ZNK9FlexImageIhLi3EE9StepBytesEv(ptr noundef nonnull align 8 dereferenceable(36) %82), !dbg !1647
  %84 = sext i32 %83 to i64, !dbg !1648
  %85 = getelementptr inbounds i8, ptr %81, i64 %84, !dbg !1648
  store ptr %85, ptr %11, align 8, !dbg !1649
  br label %86, !dbg !1650

86:                                               ; preds = %75
  %87 = load i32, ptr %12, align 4, !dbg !1651
  %88 = add nsw i32 %87, 1, !dbg !1651
  store i32 %88, ptr %12, align 4, !dbg !1651
  br label %54, !dbg !1652, !llvm.loop !1653

89:                                               ; preds = %54
  store i32 0, ptr %4, align 4, !dbg !1655
  br label %90, !dbg !1655

90:                                               ; preds = %89, %19
  %91 = load i32, ptr %4, align 4, !dbg !1656
  ret i32 %91, !dbg !1656
}

; Function Attrs: nounwind
declare void @_ZN9FlexImageIhLi1EED1Ev(ptr noundef nonnull align 8 dereferenceable(36)) unnamed_addr #4

; Function Attrs: mustprogress noinline optnone uwtable
define dso_local noundef zeroext i1 @_Z13FlexLoadBMP8uPKcR9FlexImageIhLi1EE(ptr noundef %0, ptr noundef nonnull align 8 dereferenceable(36) %1) #2 personality ptr @__gxx_personality_v0 !dbg !1657 {
  %3 = alloca i1, align 1
  %4 = alloca ptr, align 8
  %5 = alloca ptr, align 8
  %6 = alloca ptr, align 8
  %7 = alloca %struct.tagBITMAPFILEHDR, align 8
  %8 = alloca %struct.tagBITMAPINFOHDR, align 8
  %9 = alloca %class.FlexImage.2, align 8
  %10 = alloca i8, align 1
  %11 = alloca ptr, align 8
  %12 = alloca i32, align 4
  store ptr %0, ptr %4, align 8
  call void @llvm.dbg.declare(metadata ptr %4, metadata !1658, metadata !DIExpression()), !dbg !1659
  store ptr %1, ptr %5, align 8
  call void @llvm.dbg.declare(metadata ptr %5, metadata !1660, metadata !DIExpression()), !dbg !1661
  call void @llvm.dbg.declare(metadata ptr %6, metadata !1662, metadata !DIExpression()), !dbg !1663
  call void @llvm.dbg.declare(metadata ptr %7, metadata !1664, metadata !DIExpression()), !dbg !1665
  call void @llvm.dbg.declare(metadata ptr %8, metadata !1666, metadata !DIExpression()), !dbg !1667
  %13 = load ptr, ptr %4, align 8, !dbg !1668
  %14 = call noalias ptr @fopen(ptr noundef %13, ptr noundef @.str), !dbg !1669
  store ptr %14, ptr %6, align 8, !dbg !1670
  %15 = load ptr, ptr %6, align 8, !dbg !1671
  %16 = icmp eq ptr %15, null, !dbg !1673
  br i1 %16, label %17, label %18, !dbg !1674

17:                                               ; preds = %2
  store i1 false, ptr %3, align 1, !dbg !1675
  br label %74, !dbg !1675

18:                                               ; preds = %2
  %19 = load ptr, ptr %6, align 8, !dbg !1676
  %20 = call i64 @fread(ptr noundef %7, i64 noundef 14, i64 noundef 1, ptr noundef %19), !dbg !1677
  call void @_Z11ConvertBmfhP16tagBITMAPFILEHDR(ptr noundef %7), !dbg !1678
  %21 = getelementptr inbounds %struct.tagBITMAPFILEHDR, ptr %7, i32 0, i32 0, !dbg !1679
  %22 = load i16, ptr %21, align 8, !dbg !1679
  %23 = zext i16 %22 to i32, !dbg !1681
  %24 = icmp ne i32 %23, 19778, !dbg !1682
  br i1 %24, label %25, label %26, !dbg !1683

25:                                               ; preds = %18
  store i1 false, ptr %3, align 1, !dbg !1684
  br label %74, !dbg !1684

26:                                               ; preds = %18
  %27 = load ptr, ptr %6, align 8, !dbg !1685
  %28 = call i64 @fread(ptr noundef %8, i64 noundef 40, i64 noundef 1, ptr noundef %27), !dbg !1686
  call void @_Z11ConvertBmihP16tagBITMAPINFOHDR(ptr noundef %8), !dbg !1687
  %29 = getelementptr inbounds %struct.tagBITMAPINFOHDR, ptr %8, i32 0, i32 4, !dbg !1688
  %30 = load i16, ptr %29, align 2, !dbg !1688
  %31 = zext i16 %30 to i32, !dbg !1690
  %32 = icmp eq i32 %31, 8, !dbg !1691
  br i1 %32, label %33, label %39, !dbg !1692

33:                                               ; preds = %26
  %34 = load ptr, ptr %6, align 8, !dbg !1693
  %35 = call i32 @fclose(ptr noundef %34), !dbg !1695
  %36 = load ptr, ptr %4, align 8, !dbg !1696
  %37 = load ptr, ptr %5, align 8, !dbg !1697
  %38 = call noundef zeroext i1 @_Z15FlexLoadBMPGrayPKcR9FlexImageIhLi1EE(ptr noundef %36, ptr noundef nonnull align 8 dereferenceable(36) %37), !dbg !1698
  store i1 %38, ptr %3, align 1, !dbg !1699
  br label %74, !dbg !1699

39:                                               ; preds = %26
  %40 = getelementptr inbounds %struct.tagBITMAPINFOHDR, ptr %8, i32 0, i32 4, !dbg !1700
  %41 = load i16, ptr %40, align 2, !dbg !1700
  %42 = zext i16 %41 to i32, !dbg !1702
  %43 = icmp eq i32 %42, 24, !dbg !1703
  br i1 %43, label %44, label %71, !dbg !1704

44:                                               ; preds = %39
  %45 = load ptr, ptr %6, align 8, !dbg !1705
  %46 = call i32 @fclose(ptr noundef %45), !dbg !1707
  call void @llvm.dbg.declare(metadata ptr %9, metadata !1708, metadata !DIExpression()), !dbg !1709
  call void @_ZN9FlexImageIhLi3EEC1Ev(ptr noundef nonnull align 8 dereferenceable(36) %9), !dbg !1709
  call void @llvm.dbg.declare(metadata ptr %10, metadata !1710, metadata !DIExpression()), !dbg !1711
  %47 = load ptr, ptr %4, align 8, !dbg !1712
  %48 = invoke noundef zeroext i1 @_Z16FlexLoadBMPColorPKcR9FlexImageIhLi3EE(ptr noundef %47, ptr noundef nonnull align 8 dereferenceable(36) %9)
          to label %49 unwind label %64, !dbg !1713

49:                                               ; preds = %44
  %50 = zext i1 %48 to i8, !dbg !1711
  store i8 %50, ptr %10, align 1, !dbg !1711
  %51 = load i8, ptr %10, align 1, !dbg !1714
  %52 = trunc i8 %51 to i1, !dbg !1714
  br i1 %52, label %53, label %68, !dbg !1716

53:                                               ; preds = %49
  %54 = load ptr, ptr %5, align 8, !dbg !1717
  %55 = invoke noundef i32 @_ZNK9FlexImageIhLi3EE5WidthEv(ptr noundef nonnull align 8 dereferenceable(36) %9)
          to label %56 unwind label %64, !dbg !1719

56:                                               ; preds = %53
  %57 = invoke noundef i32 @_ZNK9FlexImageIhLi3EE6HeightEv(ptr noundef nonnull align 8 dereferenceable(36) %9)
          to label %58 unwind label %64, !dbg !1720

58:                                               ; preds = %56
  %59 = invoke noundef zeroext i1 @_ZN9FlexImageIhLi1EE12ReallocateNEEii(ptr noundef nonnull align 8 dereferenceable(36) %54, i32 noundef %55, i32 noundef %57)
          to label %60 unwind label %64, !dbg !1721

60:                                               ; preds = %58
  %61 = load ptr, ptr %5, align 8, !dbg !1722
  %62 = invoke noundef i32 @_Z13FlexRGBToGrayIhEiR9FlexImageIT_Li3EERS0_IS1_Li1EEb(ptr noundef nonnull align 8 dereferenceable(36) %9, ptr noundef nonnull align 8 dereferenceable(36) %61, i1 noundef zeroext false)
          to label %63 unwind label %64, !dbg !1723

63:                                               ; preds = %60
  br label %68, !dbg !1724

64:                                               ; preds = %60, %58, %56, %53, %44
  %65 = landingpad { ptr, i32 }
          cleanup, !dbg !1725
  %66 = extractvalue { ptr, i32 } %65, 0, !dbg !1725
  store ptr %66, ptr %11, align 8, !dbg !1725
  %67 = extractvalue { ptr, i32 } %65, 1, !dbg !1725
  store i32 %67, ptr %12, align 4, !dbg !1725
  call void @_ZN9FlexImageIhLi3EED1Ev(ptr noundef nonnull align 8 dereferenceable(36) %9) #6, !dbg !1726
  br label %76, !dbg !1726

68:                                               ; preds = %63, %49
  %69 = load i8, ptr %10, align 1, !dbg !1727
  %70 = trunc i8 %69 to i1, !dbg !1727
  store i1 %70, ptr %3, align 1, !dbg !1728
  call void @_ZN9FlexImageIhLi3EED1Ev(ptr noundef nonnull align 8 dereferenceable(36) %9) #6, !dbg !1726
  br label %74

71:                                               ; preds = %39
  %72 = load ptr, ptr %6, align 8, !dbg !1729
  %73 = call i32 @fclose(ptr noundef %72), !dbg !1730
  store i1 false, ptr %3, align 1, !dbg !1731
  br label %74, !dbg !1731

74:                                               ; preds = %71, %68, %33, %25, %17
  %75 = load i1, ptr %3, align 1, !dbg !1732
  ret i1 %75, !dbg !1732

76:                                               ; preds = %64
  %77 = load ptr, ptr %11, align 8, !dbg !1726
  %78 = load i32, ptr %12, align 4, !dbg !1726
  %79 = insertvalue { ptr, i32 } poison, ptr %77, 0, !dbg !1726
  %80 = insertvalue { ptr, i32 } %79, i32 %78, 1, !dbg !1726
  resume { ptr, i32 } %80, !dbg !1726
}

declare void @_ZN9FlexImageIhLi3EEC1Ev(ptr noundef nonnull align 8 dereferenceable(36)) unnamed_addr #3

declare noundef zeroext i1 @_ZN9FlexImageIhLi1EE12ReallocateNEEii(ptr noundef nonnull align 8 dereferenceable(36), i32 noundef, i32 noundef) #3

; Function Attrs: mustprogress noinline optnone uwtable
define linkonce_odr dso_local noundef i32 @_Z13FlexRGBToGrayIhEiR9FlexImageIT_Li3EERS0_IS1_Li1EEb(ptr noundef nonnull align 8 dereferenceable(36) %0, ptr noundef nonnull align 8 dereferenceable(36) %1, i1 noundef zeroext %2) #2 comdat !dbg !1733 {
  %4 = alloca ptr, align 8
  %5 = alloca ptr, align 8
  %6 = alloca i8, align 1
  %7 = alloca %class.FISize, align 4
  %8 = alloca i32, align 4
  %9 = alloca i32, align 4
  %10 = alloca i32, align 4
  %11 = alloca i32, align 4
  %12 = alloca i32, align 4
  %13 = alloca i32, align 4
  %14 = alloca ptr, align 8
  %15 = alloca ptr, align 8
  %16 = alloca i32, align 4
  %17 = alloca ptr, align 8
  %18 = alloca ptr, align 8
  %19 = alloca i32, align 4
  store ptr %0, ptr %4, align 8
  call void @llvm.dbg.declare(metadata ptr %4, metadata !1738, metadata !DIExpression()), !dbg !1739
  store ptr %1, ptr %5, align 8
  call void @llvm.dbg.declare(metadata ptr %5, metadata !1740, metadata !DIExpression()), !dbg !1741
  %20 = zext i1 %2 to i8
  store i8 %20, ptr %6, align 1
  call void @llvm.dbg.declare(metadata ptr %6, metadata !1742, metadata !DIExpression()), !dbg !1743
  %21 = load i8, ptr %6, align 1, !dbg !1744
  %22 = trunc i8 %21 to i1, !dbg !1744
  br i1 %22, label %23, label %29, !dbg !1746

23:                                               ; preds = %3
  %24 = load ptr, ptr %5, align 8, !dbg !1747
  %25 = load ptr, ptr %4, align 8, !dbg !1748
  %26 = call i64 @_ZNK9FlexImageIhLi3EE4SizeEv(ptr noundef nonnull align 8 dereferenceable(36) %25), !dbg !1749
  store i64 %26, ptr %7, align 4, !dbg !1749
  %27 = load i64, ptr %7, align 4, !dbg !1750
  %28 = call noundef zeroext i1 @_ZN9FlexImageIhLi1EE10ReallocateE6FISize(ptr noundef nonnull align 8 dereferenceable(36) %24, i64 %27), !dbg !1750
  br label %29, !dbg !1747

29:                                               ; preds = %23, %3
  call void @llvm.dbg.declare(metadata ptr %8, metadata !1751, metadata !DIExpression()), !dbg !1752
  %30 = load ptr, ptr %4, align 8, !dbg !1753
  %31 = call noundef i32 @_ZNK9FlexImageIhLi3EE5WidthEv(ptr noundef nonnull align 8 dereferenceable(36) %30), !dbg !1754
  store i32 %31, ptr %9, align 4, !dbg !1753
  %32 = load ptr, ptr %5, align 8, !dbg !1755
  %33 = call noundef i32 @_ZNK9FlexImageIhLi1EE5WidthEv(ptr noundef nonnull align 8 dereferenceable(36) %32), !dbg !1756
  store i32 %33, ptr %10, align 4, !dbg !1755
  %34 = call noundef nonnull align 4 dereferenceable(4) ptr @_ZSt3minIiERKT_S2_S2_(ptr noundef nonnull align 4 dereferenceable(4) %9, ptr noundef nonnull align 4 dereferenceable(4) %10), !dbg !1757
  %35 = load i32, ptr %34, align 4, !dbg !1757
  store i32 %35, ptr %8, align 4, !dbg !1752
  call void @llvm.dbg.declare(metadata ptr %11, metadata !1758, metadata !DIExpression()), !dbg !1759
  %36 = load ptr, ptr %4, align 8, !dbg !1760
  %37 = call noundef i32 @_ZNK9FlexImageIhLi3EE6HeightEv(ptr noundef nonnull align 8 dereferenceable(36) %36), !dbg !1761
  store i32 %37, ptr %12, align 4, !dbg !1760
  %38 = load ptr, ptr %5, align 8, !dbg !1762
  %39 = call noundef i32 @_ZNK9FlexImageIhLi1EE6HeightEv(ptr noundef nonnull align 8 dereferenceable(36) %38), !dbg !1763
  store i32 %39, ptr %13, align 4, !dbg !1762
  %40 = call noundef nonnull align 4 dereferenceable(4) ptr @_ZSt3minIiERKT_S2_S2_(ptr noundef nonnull align 4 dereferenceable(4) %12, ptr noundef nonnull align 4 dereferenceable(4) %13), !dbg !1764
  %41 = load i32, ptr %40, align 4, !dbg !1764
  store i32 %41, ptr %11, align 4, !dbg !1759
  call void @llvm.dbg.declare(metadata ptr %14, metadata !1765, metadata !DIExpression()), !dbg !1766
  %42 = load ptr, ptr %4, align 8, !dbg !1767
  %43 = call noundef ptr @_ZN9FlexImageIhLi3EE4DataEv(ptr noundef nonnull align 8 dereferenceable(36) %42), !dbg !1768
  store ptr %43, ptr %14, align 8, !dbg !1766
  call void @llvm.dbg.declare(metadata ptr %15, metadata !1769, metadata !DIExpression()), !dbg !1770
  %44 = load ptr, ptr %5, align 8, !dbg !1771
  %45 = call noundef ptr @_ZN9FlexImageIhLi1EE4DataEv(ptr noundef nonnull align 8 dereferenceable(36) %44), !dbg !1772
  store ptr %45, ptr %15, align 8, !dbg !1770
  call void @llvm.dbg.declare(metadata ptr %16, metadata !1773, metadata !DIExpression()), !dbg !1775
  store i32 0, ptr %16, align 4, !dbg !1775
  br label %46, !dbg !1776

46:                                               ; preds = %95, %29
  %47 = load i32, ptr %16, align 4, !dbg !1777
  %48 = load i32, ptr %11, align 4, !dbg !1779
  %49 = icmp slt i32 %47, %48, !dbg !1780
  br i1 %49, label %50, label %98, !dbg !1781

50:                                               ; preds = %46
  call void @llvm.dbg.declare(metadata ptr %17, metadata !1782, metadata !DIExpression()), !dbg !1784
  %51 = load ptr, ptr %14, align 8, !dbg !1785
  store ptr %51, ptr %17, align 8, !dbg !1784
  call void @llvm.dbg.declare(metadata ptr %18, metadata !1786, metadata !DIExpression()), !dbg !1787
  %52 = load ptr, ptr %15, align 8, !dbg !1788
  store ptr %52, ptr %18, align 8, !dbg !1787
  call void @llvm.dbg.declare(metadata ptr %19, metadata !1789, metadata !DIExpression()), !dbg !1791
  store i32 0, ptr %19, align 4, !dbg !1791
  br label %53, !dbg !1792

53:                                               ; preds = %81, %50
  %54 = load i32, ptr %19, align 4, !dbg !1793
  %55 = load i32, ptr %8, align 4, !dbg !1795
  %56 = icmp slt i32 %54, %55, !dbg !1796
  br i1 %56, label %57, label %84, !dbg !1797

57:                                               ; preds = %53
  %58 = load ptr, ptr %17, align 8, !dbg !1798
  %59 = getelementptr inbounds i8, ptr %58, i64 0, !dbg !1798
  %60 = load i8, ptr %59, align 1, !dbg !1798
  %61 = zext i8 %60 to i32, !dbg !1798
  %62 = sitofp i32 %61 to float, !dbg !1798
  %63 = load ptr, ptr %17, align 8, !dbg !1800
  %64 = getelementptr inbounds i8, ptr %63, i64 1, !dbg !1800
  %65 = load i8, ptr %64, align 1, !dbg !1800
  %66 = zext i8 %65 to i32, !dbg !1800
  %67 = sitofp i32 %66 to float, !dbg !1800
  %68 = fmul float %67, 0x3FE2C8B440000000, !dbg !1801
  %69 = call float @llvm.fmuladd.f32(float %62, float 0x3FD322D0E0000000, float %68), !dbg !1802
  %70 = load ptr, ptr %17, align 8, !dbg !1803
  %71 = getelementptr inbounds i8, ptr %70, i64 2, !dbg !1803
  %72 = load i8, ptr %71, align 1, !dbg !1803
  %73 = zext i8 %72 to i32, !dbg !1803
  %74 = sitofp i32 %73 to float, !dbg !1803
  %75 = call float @llvm.fmuladd.f32(float %74, float 0x3FBD2F1AA0000000, float %69), !dbg !1804
  %76 = fptoui float %75 to i8, !dbg !1805
  %77 = load ptr, ptr %18, align 8, !dbg !1806
  %78 = getelementptr inbounds i8, ptr %77, i32 1, !dbg !1806
  store ptr %78, ptr %18, align 8, !dbg !1806
  store i8 %76, ptr %77, align 1, !dbg !1807
  %79 = load ptr, ptr %17, align 8, !dbg !1808
  %80 = getelementptr inbounds i8, ptr %79, i64 3, !dbg !1808
  store ptr %80, ptr %17, align 8, !dbg !1808
  br label %81, !dbg !1809

81:                                               ; preds = %57
  %82 = load i32, ptr %19, align 4, !dbg !1810
  %83 = add nsw i32 %82, 1, !dbg !1810
  store i32 %83, ptr %19, align 4, !dbg !1810
  br label %53, !dbg !1811, !llvm.loop !1812

84:                                               ; preds = %53
  %85 = load ptr, ptr %14, align 8, !dbg !1814
  %86 = load ptr, ptr %4, align 8, !dbg !1815
  %87 = call noundef i32 @_ZNK9FlexImageIhLi3EE9StepBytesEv(ptr noundef nonnull align 8 dereferenceable(36) %86), !dbg !1816
  %88 = sext i32 %87 to i64, !dbg !1817
  %89 = getelementptr inbounds i8, ptr %85, i64 %88, !dbg !1817
  store ptr %89, ptr %14, align 8, !dbg !1818
  %90 = load ptr, ptr %15, align 8, !dbg !1819
  %91 = load ptr, ptr %5, align 8, !dbg !1820
  %92 = call noundef i32 @_ZNK9FlexImageIhLi1EE9StepBytesEv(ptr noundef nonnull align 8 dereferenceable(36) %91), !dbg !1821
  %93 = sext i32 %92 to i64, !dbg !1822
  %94 = getelementptr inbounds i8, ptr %90, i64 %93, !dbg !1822
  store ptr %94, ptr %15, align 8, !dbg !1823
  br label %95, !dbg !1824

95:                                               ; preds = %84
  %96 = load i32, ptr %16, align 4, !dbg !1825
  %97 = add nsw i32 %96, 1, !dbg !1825
  store i32 %97, ptr %16, align 4, !dbg !1825
  br label %46, !dbg !1826, !llvm.loop !1827

98:                                               ; preds = %46
  ret i32 0, !dbg !1829
}

; Function Attrs: nounwind
declare void @_ZN9FlexImageIhLi3EED1Ev(ptr noundef nonnull align 8 dereferenceable(36)) unnamed_addr #4

; Function Attrs: mustprogress noinline nounwind optnone uwtable
define linkonce_odr dso_local noundef nonnull align 1 dereferenceable(1) ptr @_ZN9FlexImageIhLi1EEclEiii(ptr noundef nonnull align 8 dereferenceable(36) %0, i32 noundef %1, i32 noundef %2, i32 noundef %3) #0 comdat align 2 !dbg !1830 {
  %5 = alloca ptr, align 8
  %6 = alloca i32, align 4
  %7 = alloca i32, align 4
  %8 = alloca i32, align 4
  store ptr %0, ptr %5, align 8
  call void @llvm.dbg.declare(metadata ptr %5, metadata !1834, metadata !DIExpression()), !dbg !1835
  store i32 %1, ptr %6, align 4
  call void @llvm.dbg.declare(metadata ptr %6, metadata !1836, metadata !DIExpression()), !dbg !1837
  store i32 %2, ptr %7, align 4
  call void @llvm.dbg.declare(metadata ptr %7, metadata !1838, metadata !DIExpression()), !dbg !1839
  store i32 %3, ptr %8, align 4
  call void @llvm.dbg.declare(metadata ptr %8, metadata !1840, metadata !DIExpression()), !dbg !1841
  %9 = load ptr, ptr %5, align 8
  %10 = getelementptr inbounds %class.FlexImage, ptr %9, i32 0, i32 1, !dbg !1842
  %11 = load ptr, ptr %10, align 8, !dbg !1842
  %12 = getelementptr inbounds %class.FlexImage, ptr %9, i32 0, i32 3, !dbg !1843
  %13 = load i32, ptr %12, align 4, !dbg !1843
  %14 = load i32, ptr %7, align 4, !dbg !1844
  %15 = mul nsw i32 %13, %14, !dbg !1845
  %16 = sext i32 %15 to i64, !dbg !1846
  %17 = getelementptr inbounds i8, ptr %11, i64 %16, !dbg !1846
  %18 = getelementptr inbounds %class.FlexImage, ptr %9, i32 0, i32 2, !dbg !1847
  %19 = load i32, ptr %18, align 8, !dbg !1847
  %20 = load i32, ptr %6, align 4, !dbg !1848
  %21 = mul nsw i32 %19, %20, !dbg !1849
  %22 = sext i32 %21 to i64, !dbg !1850
  %23 = getelementptr inbounds i8, ptr %17, i64 %22, !dbg !1850
  %24 = load i32, ptr %8, align 4, !dbg !1851
  %25 = sext i32 %24 to i64, !dbg !1851
  %26 = mul i64 %25, 1, !dbg !1852
  %27 = getelementptr inbounds i8, ptr %23, i64 %26, !dbg !1853
  ret ptr %27, !dbg !1854
}

; Function Attrs: mustprogress noinline nounwind optnone uwtable
define linkonce_odr dso_local noundef nonnull align 1 dereferenceable(1) ptr @_ZN9FlexImageIhLi3EEclEiii(ptr noundef nonnull align 8 dereferenceable(36) %0, i32 noundef %1, i32 noundef %2, i32 noundef %3) #0 comdat align 2 !dbg !1855 {
  %5 = alloca ptr, align 8
  %6 = alloca i32, align 4
  %7 = alloca i32, align 4
  %8 = alloca i32, align 4
  store ptr %0, ptr %5, align 8
  call void @llvm.dbg.declare(metadata ptr %5, metadata !1859, metadata !DIExpression()), !dbg !1860
  store i32 %1, ptr %6, align 4
  call void @llvm.dbg.declare(metadata ptr %6, metadata !1861, metadata !DIExpression()), !dbg !1862
  store i32 %2, ptr %7, align 4
  call void @llvm.dbg.declare(metadata ptr %7, metadata !1863, metadata !DIExpression()), !dbg !1864
  store i32 %3, ptr %8, align 4
  call void @llvm.dbg.declare(metadata ptr %8, metadata !1865, metadata !DIExpression()), !dbg !1866
  %9 = load ptr, ptr %5, align 8
  %10 = getelementptr inbounds %class.FlexImage.2, ptr %9, i32 0, i32 1, !dbg !1867
  %11 = load ptr, ptr %10, align 8, !dbg !1867
  %12 = getelementptr inbounds %class.FlexImage.2, ptr %9, i32 0, i32 3, !dbg !1868
  %13 = load i32, ptr %12, align 4, !dbg !1868
  %14 = load i32, ptr %7, align 4, !dbg !1869
  %15 = mul nsw i32 %13, %14, !dbg !1870
  %16 = sext i32 %15 to i64, !dbg !1871
  %17 = getelementptr inbounds i8, ptr %11, i64 %16, !dbg !1871
  %18 = getelementptr inbounds %class.FlexImage.2, ptr %9, i32 0, i32 2, !dbg !1872
  %19 = load i32, ptr %18, align 8, !dbg !1872
  %20 = load i32, ptr %6, align 4, !dbg !1873
  %21 = mul nsw i32 %19, %20, !dbg !1874
  %22 = sext i32 %21 to i64, !dbg !1875
  %23 = getelementptr inbounds i8, ptr %17, i64 %22, !dbg !1875
  %24 = load i32, ptr %8, align 4, !dbg !1876
  %25 = sext i32 %24 to i64, !dbg !1876
  %26 = mul i64 %25, 1, !dbg !1877
  %27 = getelementptr inbounds i8, ptr %23, i64 %26, !dbg !1878
  ret ptr %27, !dbg !1879
}

; Function Attrs: mustprogress noinline nounwind optnone uwtable
define linkonce_odr dso_local noundef ptr @_ZN9FlexImageIhLi1EE4DataEv(ptr noundef nonnull align 8 dereferenceable(36) %0) #0 comdat align 2 !dbg !1880 {
  %2 = alloca ptr, align 8
  store ptr %0, ptr %2, align 8
  call void @llvm.dbg.declare(metadata ptr %2, metadata !1884, metadata !DIExpression()), !dbg !1885
  %3 = load ptr, ptr %2, align 8
  %4 = getelementptr inbounds %class.FlexImage, ptr %3, i32 0, i32 1, !dbg !1886
  %5 = load ptr, ptr %4, align 8, !dbg !1886
  ret ptr %5, !dbg !1887
}

; Function Attrs: mustprogress noinline nounwind optnone uwtable
define linkonce_odr dso_local noundef ptr @_ZN9FlexImageIhLi3EE4DataEv(ptr noundef nonnull align 8 dereferenceable(36) %0) #0 comdat align 2 !dbg !1888 {
  %2 = alloca ptr, align 8
  store ptr %0, ptr %2, align 8
  call void @llvm.dbg.declare(metadata ptr %2, metadata !1892, metadata !DIExpression()), !dbg !1893
  %3 = load ptr, ptr %2, align 8
  %4 = getelementptr inbounds %class.FlexImage.2, ptr %3, i32 0, i32 1, !dbg !1894
  %5 = load ptr, ptr %4, align 8, !dbg !1894
  ret ptr %5, !dbg !1895
}

; Function Attrs: mustprogress noinline nounwind optnone uwtable
define linkonce_odr dso_local noundef i32 @_ZNK9FlexImageIhLi1EE9StepBytesEv(ptr noundef nonnull align 8 dereferenceable(36) %0) #0 comdat align 2 !dbg !1896 {
  %2 = alloca ptr, align 8
  store ptr %0, ptr %2, align 8
  call void @llvm.dbg.declare(metadata ptr %2, metadata !1898, metadata !DIExpression()), !dbg !1899
  %3 = load ptr, ptr %2, align 8
  %4 = getelementptr inbounds %class.FlexImage, ptr %3, i32 0, i32 3, !dbg !1900
  %5 = load i32, ptr %4, align 4, !dbg !1900
  ret i32 %5, !dbg !1901
}

; Function Attrs: mustprogress noinline nounwind optnone uwtable
define linkonce_odr dso_local noundef i32 @_ZNK9FlexImageIhLi3EE9StepBytesEv(ptr noundef nonnull align 8 dereferenceable(36) %0) #0 comdat align 2 !dbg !1902 {
  %2 = alloca ptr, align 8
  store ptr %0, ptr %2, align 8
  call void @llvm.dbg.declare(metadata ptr %2, metadata !1904, metadata !DIExpression()), !dbg !1905
  %3 = load ptr, ptr %2, align 8
  %4 = getelementptr inbounds %class.FlexImage.2, ptr %3, i32 0, i32 3, !dbg !1906
  %5 = load i32, ptr %4, align 4, !dbg !1906
  ret i32 %5, !dbg !1907
}

declare noundef zeroext i1 @_ZN9FlexImageIhLi1EE10ReallocateE6FISize(ptr noundef nonnull align 8 dereferenceable(36), i64) #3

; Function Attrs: mustprogress noinline nounwind optnone uwtable
define linkonce_odr dso_local i64 @_ZNK9FlexImageIhLi3EE4SizeEv(ptr noundef nonnull align 8 dereferenceable(36) %0) #0 comdat align 2 !dbg !1908 {
  %2 = alloca %class.FISize, align 4
  %3 = alloca ptr, align 8
  store ptr %0, ptr %3, align 8
  call void @llvm.dbg.declare(metadata ptr %3, metadata !1917, metadata !DIExpression()), !dbg !1918
  %4 = load ptr, ptr %3, align 8
  %5 = getelementptr inbounds %class.FlexImage.2, ptr %4, i32 0, i32 4, !dbg !1919
  call void @llvm.memcpy.p0.p0.i64(ptr align 4 %2, ptr align 8 %5, i64 8, i1 false), !dbg !1920
  %6 = load i64, ptr %2, align 4, !dbg !1921
  ret i64 %6, !dbg !1921
}

; Function Attrs: mustprogress noinline nounwind optnone uwtable
define linkonce_odr dso_local noundef nonnull align 4 dereferenceable(4) ptr @_ZSt3minIiERKT_S2_S2_(ptr noundef nonnull align 4 dereferenceable(4) %0, ptr noundef nonnull align 4 dereferenceable(4) %1) #0 comdat !dbg !1922 {
  %3 = alloca ptr, align 8
  %4 = alloca ptr, align 8
  %5 = alloca ptr, align 8
  store ptr %0, ptr %4, align 8
  call void @llvm.dbg.declare(metadata ptr %4, metadata !1930, metadata !DIExpression()), !dbg !1932
  store ptr %1, ptr %5, align 8
  call void @llvm.dbg.declare(metadata ptr %5, metadata !1933, metadata !DIExpression()), !dbg !1934
  %6 = load ptr, ptr %5, align 8, !dbg !1935
  %7 = load i32, ptr %6, align 4, !dbg !1935
  %8 = load ptr, ptr %4, align 8, !dbg !1937
  %9 = load i32, ptr %8, align 4, !dbg !1937
  %10 = icmp slt i32 %7, %9, !dbg !1938
  br i1 %10, label %11, label %13, !dbg !1939

11:                                               ; preds = %2
  %12 = load ptr, ptr %5, align 8, !dbg !1940
  store ptr %12, ptr %3, align 8, !dbg !1941
  br label %15, !dbg !1941

13:                                               ; preds = %2
  %14 = load ptr, ptr %4, align 8, !dbg !1942
  store ptr %14, ptr %3, align 8, !dbg !1943
  br label %15, !dbg !1943

15:                                               ; preds = %13, %11
  %16 = load ptr, ptr %3, align 8, !dbg !1944
  ret ptr %16, !dbg !1944
}

; Function Attrs: nocallback nofree nosync nounwind speculatable willreturn memory(none)
declare float @llvm.fmuladd.f32(float, float, float) #1

; Function Attrs: nocallback nofree nounwind willreturn memory(argmem: readwrite)
declare void @llvm.memcpy.p0.p0.i64(ptr noalias nocapture writeonly, ptr noalias nocapture readonly, i64, i1 immarg) #5

attributes #0 = { mustprogress noinline nounwind optnone uwtable "frame-pointer"="all" "min-legal-vector-width"="0" "no-trapping-math"="true" "stack-protector-buffer-size"="8" "target-cpu"="x86-64" "target-features"="+cx8,+fxsr,+mmx,+sse,+sse2,+x87" "tune-cpu"="generic" }
attributes #1 = { nocallback nofree nosync nounwind speculatable willreturn memory(none) }
attributes #2 = { mustprogress noinline optnone uwtable "frame-pointer"="all" "min-legal-vector-width"="0" "no-trapping-math"="true" "stack-protector-buffer-size"="8" "target-cpu"="x86-64" "target-features"="+cx8,+fxsr,+mmx,+sse,+sse2,+x87" "tune-cpu"="generic" }
attributes #3 = { "frame-pointer"="all" "no-trapping-math"="true" "stack-protector-buffer-size"="8" "target-cpu"="x86-64" "target-features"="+cx8,+fxsr,+mmx,+sse,+sse2,+x87" "tune-cpu"="generic" }
attributes #4 = { nounwind "frame-pointer"="all" "no-trapping-math"="true" "stack-protector-buffer-size"="8" "target-cpu"="x86-64" "target-features"="+cx8,+fxsr,+mmx,+sse,+sse2,+x87" "tune-cpu"="generic" }
attributes #5 = { nocallback nofree nounwind willreturn memory(argmem: readwrite) }
attributes #6 = { nounwind }

!llvm.dbg.cu = !{!8}
!llvm.module.flags = !{!899, !900, !901, !902, !903, !904, !905}
!llvm.ident = !{!906}

!0 = !DIGlobalVariableExpression(var: !1, expr: !DIExpression())
!1 = distinct !DIGlobalVariable(scope: null, file: !2, line: 108, type: !3, isLocal: true, isDefinition: true)
!2 = !DIFile(filename: "../FlexImageLib/FlexIO.cpp", directory: "/home/raj/SVF_PAPER_BENCHMARKS/parsec-3.0/pkgs/apps/bodytrack/src/build", checksumkind: CSK_MD5, checksum: "4c64b8065db08dfdf0b6039fb906f5bf")
!3 = !DICompositeType(tag: DW_TAG_array_type, baseType: !4, size: 24, elements: !6)
!4 = !DIDerivedType(tag: DW_TAG_const_type, baseType: !5)
!5 = !DIBasicType(name: "char", size: 8, encoding: DW_ATE_signed_char)
!6 = !{!7}
!7 = !DISubrange(count: 3)
!8 = distinct !DICompileUnit(language: DW_LANG_C_plus_plus_11, file: !2, producer: "clang version 16.0.0", isOptimized: false, runtimeVersion: 0, emissionKind: FullDebug, retainedTypes: !9, globals: !14, imports: !15, splitDebugInlining: false, nameTableKind: None)
!9 = !{!10, !11, !13, !12}
!10 = !DIBasicType(name: "int", size: 32, encoding: DW_ATE_signed)
!11 = !DIDerivedType(tag: DW_TAG_pointer_type, baseType: !12, size: 64)
!12 = !DIBasicType(name: "unsigned char", size: 8, encoding: DW_ATE_unsigned_char)
!13 = !DIDerivedType(tag: DW_TAG_pointer_type, baseType: !5, size: 64)
!14 = !{!0}
!15 = !{!16, !21, !39, !42, !47, !56, !64, !68, !75, !79, !83, !85, !87, !91, !102, !106, !112, !118, !120, !124, !128, !132, !136, !149, !151, !155, !159, !163, !165, !170, !174, !178, !180, !182, !186, !194, !198, !202, !206, !208, !214, !216, !223, !228, !232, !237, !241, !245, !249, !251, !253, !257, !261, !265, !267, !271, !275, !277, !279, !283, !289, !294, !299, !300, !301, !302, !303, !304, !305, !306, !307, !308, !309, !316, !320, !323, !326, !329, !331, !333, !335, !338, !341, !344, !347, !350, !352, !356, !360, !363, !366, !368, !370, !372, !374, !377, !380, !383, !386, !389, !391, !395, !399, !404, !410, !412, !414, !416, !418, !420, !422, !424, !426, !428, !430, !432, !434, !436, !440, !444, !450, !454, !459, !461, !465, !469, !473, !483, !487, !491, !495, !499, !503, !507, !511, !515, !519, !523, !527, !531, !533, !537, !541, !545, !551, !555, !559, !561, !565, !569, !575, !577, !581, !585, !589, !593, !597, !601, !605, !606, !607, !608, !610, !611, !612, !613, !614, !615, !616, !620, !626, !631, !635, !637, !639, !641, !643, !650, !654, !658, !662, !666, !670, !675, !679, !681, !685, !691, !695, !700, !702, !704, !708, !712, !716, !718, !720, !722, !724, !728, !730, !732, !736, !740, !744, !748, !752, !754, !756, !760, !764, !768, !772, !774, !776, !780, !784, !785, !786, !787, !788, !789, !791, !792, !793, !794, !795, !796, !797, !801, !802, !803, !804, !805, !806, !807, !808, !809, !810, !811, !812, !813, !814, !815, !816, !817, !818, !819, !820, !821, !822, !823, !824, !825, !831, !835, !839, !843, !847, !851, !853, !855, !857, !861, !865, !869, !873, !877, !879, !881, !883, !887, !891, !895, !897}
!16 = !DIImportedEntity(tag: DW_TAG_imported_module, scope: !17, entity: !18, file: !20, line: 58)
!17 = !DINamespace(name: "__gnu_debug", scope: null)
!18 = !DINamespace(name: "__debug", scope: !19)
!19 = !DINamespace(name: "std", scope: null)
!20 = !DIFile(filename: "/usr/lib/gcc/x86_64-linux-gnu/11/../../../../include/c++/11/debug/debug.h", directory: "", checksumkind: CSK_MD5, checksum: "982c0103e1e5f86b0818efdfc5273c3c")
!21 = !DIImportedEntity(tag: DW_TAG_imported_declaration, scope: !19, entity: !22, file: !38, line: 64)
!22 = !DIDerivedType(tag: DW_TAG_typedef, name: "mbstate_t", file: !23, line: 6, baseType: !24)
!23 = !DIFile(filename: "/usr/include/x86_64-linux-gnu/bits/types/mbstate_t.h", directory: "", checksumkind: CSK_MD5, checksum: "ba8742313715e20e434cf6ccb2db98e3")
!24 = !DIDerivedType(tag: DW_TAG_typedef, name: "__mbstate_t", file: !25, line: 21, baseType: !26)
!25 = !DIFile(filename: "/usr/include/x86_64-linux-gnu/bits/types/__mbstate_t.h", directory: "", checksumkind: CSK_MD5, checksum: "82911a3e689448e3691ded3e0b471a55")
!26 = distinct !DICompositeType(tag: DW_TAG_structure_type, file: !25, line: 13, size: 64, flags: DIFlagTypePassByValue, elements: !27, identifier: "_ZTS11__mbstate_t")
!27 = !{!28, !29}
!28 = !DIDerivedType(tag: DW_TAG_member, name: "__count", scope: !26, file: !25, line: 15, baseType: !10, size: 32)
!29 = !DIDerivedType(tag: DW_TAG_member, name: "__value", scope: !26, file: !25, line: 20, baseType: !30, size: 32, offset: 32)
!30 = distinct !DICompositeType(tag: DW_TAG_union_type, scope: !26, file: !25, line: 16, size: 32, flags: DIFlagTypePassByValue, elements: !31, identifier: "_ZTSN11__mbstate_tUt_E")
!31 = !{!32, !34}
!32 = !DIDerivedType(tag: DW_TAG_member, name: "__wch", scope: !30, file: !25, line: 18, baseType: !33, size: 32)
!33 = !DIBasicType(name: "unsigned int", size: 32, encoding: DW_ATE_unsigned)
!34 = !DIDerivedType(tag: DW_TAG_member, name: "__wchb", scope: !30, file: !25, line: 19, baseType: !35, size: 32)
!35 = !DICompositeType(tag: DW_TAG_array_type, baseType: !5, size: 32, elements: !36)
!36 = !{!37}
!37 = !DISubrange(count: 4)
!38 = !DIFile(filename: "/usr/lib/gcc/x86_64-linux-gnu/11/../../../../include/c++/11/cwchar", directory: "")
!39 = !DIImportedEntity(tag: DW_TAG_imported_declaration, scope: !19, entity: !40, file: !38, line: 141)
!40 = !DIDerivedType(tag: DW_TAG_typedef, name: "wint_t", file: !41, line: 20, baseType: !33)
!41 = !DIFile(filename: "/usr/include/x86_64-linux-gnu/bits/types/wint_t.h", directory: "", checksumkind: CSK_MD5, checksum: "aa31b53ef28dc23152ceb41e2763ded3")
!42 = !DIImportedEntity(tag: DW_TAG_imported_declaration, scope: !19, entity: !43, file: !38, line: 143)
!43 = !DISubprogram(name: "btowc", scope: !44, file: !44, line: 285, type: !45, flags: DIFlagPrototyped, spFlags: 0)
!44 = !DIFile(filename: "/usr/include/wchar.h", directory: "", checksumkind: CSK_MD5, checksum: "484b7adbbc849bb51cdbcb2d985b07a0")
!45 = !DISubroutineType(types: !46)
!46 = !{!40, !10}
!47 = !DIImportedEntity(tag: DW_TAG_imported_declaration, scope: !19, entity: !48, file: !38, line: 144)
!48 = !DISubprogram(name: "fgetwc", scope: !44, file: !44, line: 744, type: !49, flags: DIFlagPrototyped, spFlags: 0)
!49 = !DISubroutineType(types: !50)
!50 = !{!40, !51}
!51 = !DIDerivedType(tag: DW_TAG_pointer_type, baseType: !52, size: 64)
!52 = !DIDerivedType(tag: DW_TAG_typedef, name: "__FILE", file: !53, line: 5, baseType: !54)
!53 = !DIFile(filename: "/usr/include/x86_64-linux-gnu/bits/types/__FILE.h", directory: "", checksumkind: CSK_MD5, checksum: "72a8fe90981f484acae7c6f3dfc5c2b7")
!54 = !DICompositeType(tag: DW_TAG_structure_type, name: "_IO_FILE", file: !55, line: 49, size: 1728, flags: DIFlagFwdDecl, identifier: "_ZTS8_IO_FILE")
!55 = !DIFile(filename: "/usr/include/x86_64-linux-gnu/bits/types/struct_FILE.h", directory: "", checksumkind: CSK_MD5, checksum: "1bad07471b7974df4ecc1d1c2ca207e6")
!56 = !DIImportedEntity(tag: DW_TAG_imported_declaration, scope: !19, entity: !57, file: !38, line: 145)
!57 = !DISubprogram(name: "fgetws", scope: !44, file: !44, line: 773, type: !58, flags: DIFlagPrototyped, spFlags: 0)
!58 = !DISubroutineType(types: !59)
!59 = !{!60, !62, !10, !63}
!60 = !DIDerivedType(tag: DW_TAG_pointer_type, baseType: !61, size: 64)
!61 = !DIBasicType(name: "wchar_t", size: 32, encoding: DW_ATE_signed)
!62 = !DIDerivedType(tag: DW_TAG_restrict_type, baseType: !60)
!63 = !DIDerivedType(tag: DW_TAG_restrict_type, baseType: !51)
!64 = !DIImportedEntity(tag: DW_TAG_imported_declaration, scope: !19, entity: !65, file: !38, line: 146)
!65 = !DISubprogram(name: "fputwc", scope: !44, file: !44, line: 758, type: !66, flags: DIFlagPrototyped, spFlags: 0)
!66 = !DISubroutineType(types: !67)
!67 = !{!40, !61, !51}
!68 = !DIImportedEntity(tag: DW_TAG_imported_declaration, scope: !19, entity: !69, file: !38, line: 147)
!69 = !DISubprogram(name: "fputws", scope: !44, file: !44, line: 780, type: !70, flags: DIFlagPrototyped, spFlags: 0)
!70 = !DISubroutineType(types: !71)
!71 = !{!10, !72, !63}
!72 = !DIDerivedType(tag: DW_TAG_restrict_type, baseType: !73)
!73 = !DIDerivedType(tag: DW_TAG_pointer_type, baseType: !74, size: 64)
!74 = !DIDerivedType(tag: DW_TAG_const_type, baseType: !61)
!75 = !DIImportedEntity(tag: DW_TAG_imported_declaration, scope: !19, entity: !76, file: !38, line: 148)
!76 = !DISubprogram(name: "fwide", scope: !44, file: !44, line: 588, type: !77, flags: DIFlagPrototyped, spFlags: 0)
!77 = !DISubroutineType(types: !78)
!78 = !{!10, !51, !10}
!79 = !DIImportedEntity(tag: DW_TAG_imported_declaration, scope: !19, entity: !80, file: !38, line: 149)
!80 = !DISubprogram(name: "fwprintf", scope: !44, file: !44, line: 595, type: !81, flags: DIFlagPrototyped, spFlags: 0)
!81 = !DISubroutineType(types: !82)
!82 = !{!10, !63, !72, null}
!83 = !DIImportedEntity(tag: DW_TAG_imported_declaration, scope: !19, entity: !84, file: !38, line: 150)
!84 = !DISubprogram(name: "fwscanf", linkageName: "__isoc99_fwscanf", scope: !44, file: !44, line: 657, type: !81, flags: DIFlagPrototyped, spFlags: 0)
!85 = !DIImportedEntity(tag: DW_TAG_imported_declaration, scope: !19, entity: !86, file: !38, line: 151)
!86 = !DISubprogram(name: "getwc", scope: !44, file: !44, line: 745, type: !49, flags: DIFlagPrototyped, spFlags: 0)
!87 = !DIImportedEntity(tag: DW_TAG_imported_declaration, scope: !19, entity: !88, file: !38, line: 152)
!88 = !DISubprogram(name: "getwchar", scope: !44, file: !44, line: 751, type: !89, flags: DIFlagPrototyped, spFlags: 0)
!89 = !DISubroutineType(types: !90)
!90 = !{!40}
!91 = !DIImportedEntity(tag: DW_TAG_imported_declaration, scope: !19, entity: !92, file: !38, line: 153)
!92 = !DISubprogram(name: "mbrlen", scope: !44, file: !44, line: 308, type: !93, flags: DIFlagPrototyped, spFlags: 0)
!93 = !DISubroutineType(types: !94)
!94 = !{!95, !98, !95, !100}
!95 = !DIDerivedType(tag: DW_TAG_typedef, name: "size_t", file: !96, line: 46, baseType: !97)
!96 = !DIFile(filename: "SVF/llvm-16.0.0.obj/lib/clang/16/include/stddef.h", directory: "/home/raj", checksumkind: CSK_MD5, checksum: "f95079da609b0e8f201cb8136304bf3b")
!97 = !DIBasicType(name: "unsigned long", size: 64, encoding: DW_ATE_unsigned)
!98 = !DIDerivedType(tag: DW_TAG_restrict_type, baseType: !99)
!99 = !DIDerivedType(tag: DW_TAG_pointer_type, baseType: !4, size: 64)
!100 = !DIDerivedType(tag: DW_TAG_restrict_type, baseType: !101)
!101 = !DIDerivedType(tag: DW_TAG_pointer_type, baseType: !22, size: 64)
!102 = !DIImportedEntity(tag: DW_TAG_imported_declaration, scope: !19, entity: !103, file: !38, line: 154)
!103 = !DISubprogram(name: "mbrtowc", scope: !44, file: !44, line: 297, type: !104, flags: DIFlagPrototyped, spFlags: 0)
!104 = !DISubroutineType(types: !105)
!105 = !{!95, !62, !98, !95, !100}
!106 = !DIImportedEntity(tag: DW_TAG_imported_declaration, scope: !19, entity: !107, file: !38, line: 155)
!107 = !DISubprogram(name: "mbsinit", scope: !44, file: !44, line: 293, type: !108, flags: DIFlagPrototyped, spFlags: 0)
!108 = !DISubroutineType(types: !109)
!109 = !{!10, !110}
!110 = !DIDerivedType(tag: DW_TAG_pointer_type, baseType: !111, size: 64)
!111 = !DIDerivedType(tag: DW_TAG_const_type, baseType: !22)
!112 = !DIImportedEntity(tag: DW_TAG_imported_declaration, scope: !19, entity: !113, file: !38, line: 156)
!113 = !DISubprogram(name: "mbsrtowcs", scope: !44, file: !44, line: 338, type: !114, flags: DIFlagPrototyped, spFlags: 0)
!114 = !DISubroutineType(types: !115)
!115 = !{!95, !62, !116, !95, !100}
!116 = !DIDerivedType(tag: DW_TAG_restrict_type, baseType: !117)
!117 = !DIDerivedType(tag: DW_TAG_pointer_type, baseType: !99, size: 64)
!118 = !DIImportedEntity(tag: DW_TAG_imported_declaration, scope: !19, entity: !119, file: !38, line: 157)
!119 = !DISubprogram(name: "putwc", scope: !44, file: !44, line: 759, type: !66, flags: DIFlagPrototyped, spFlags: 0)
!120 = !DIImportedEntity(tag: DW_TAG_imported_declaration, scope: !19, entity: !121, file: !38, line: 158)
!121 = !DISubprogram(name: "putwchar", scope: !44, file: !44, line: 765, type: !122, flags: DIFlagPrototyped, spFlags: 0)
!122 = !DISubroutineType(types: !123)
!123 = !{!40, !61}
!124 = !DIImportedEntity(tag: DW_TAG_imported_declaration, scope: !19, entity: !125, file: !38, line: 160)
!125 = !DISubprogram(name: "swprintf", scope: !44, file: !44, line: 605, type: !126, flags: DIFlagPrototyped, spFlags: 0)
!126 = !DISubroutineType(types: !127)
!127 = !{!10, !62, !95, !72, null}
!128 = !DIImportedEntity(tag: DW_TAG_imported_declaration, scope: !19, entity: !129, file: !38, line: 162)
!129 = !DISubprogram(name: "swscanf", linkageName: "__isoc99_swscanf", scope: !44, file: !44, line: 664, type: !130, flags: DIFlagPrototyped, spFlags: 0)
!130 = !DISubroutineType(types: !131)
!131 = !{!10, !72, !72, null}
!132 = !DIImportedEntity(tag: DW_TAG_imported_declaration, scope: !19, entity: !133, file: !38, line: 163)
!133 = !DISubprogram(name: "ungetwc", scope: !44, file: !44, line: 788, type: !134, flags: DIFlagPrototyped, spFlags: 0)
!134 = !DISubroutineType(types: !135)
!135 = !{!40, !40, !51}
!136 = !DIImportedEntity(tag: DW_TAG_imported_declaration, scope: !19, entity: !137, file: !38, line: 164)
!137 = !DISubprogram(name: "vfwprintf", scope: !44, file: !44, line: 613, type: !138, flags: DIFlagPrototyped, spFlags: 0)
!138 = !DISubroutineType(types: !139)
!139 = !{!10, !63, !72, !140}
!140 = !DIDerivedType(tag: DW_TAG_pointer_type, baseType: !141, size: 64)
!141 = distinct !DICompositeType(tag: DW_TAG_structure_type, name: "__va_list_tag", size: 192, flags: DIFlagTypePassByValue, elements: !142, identifier: "_ZTS13__va_list_tag")
!142 = !{!143, !145, !146, !148}
!143 = !DIDerivedType(tag: DW_TAG_member, name: "gp_offset", scope: !141, file: !144, baseType: !33, size: 32)
!144 = !DIFile(filename: "../FlexImageLib/FlexIO.cpp", directory: "/home/raj/SVF_PAPER_BENCHMARKS/parsec-3.0/pkgs/apps/bodytrack/src/build")
!145 = !DIDerivedType(tag: DW_TAG_member, name: "fp_offset", scope: !141, file: !144, baseType: !33, size: 32, offset: 32)
!146 = !DIDerivedType(tag: DW_TAG_member, name: "overflow_arg_area", scope: !141, file: !144, baseType: !147, size: 64, offset: 64)
!147 = !DIDerivedType(tag: DW_TAG_pointer_type, baseType: null, size: 64)
!148 = !DIDerivedType(tag: DW_TAG_member, name: "reg_save_area", scope: !141, file: !144, baseType: !147, size: 64, offset: 128)
!149 = !DIImportedEntity(tag: DW_TAG_imported_declaration, scope: !19, entity: !150, file: !38, line: 166)
!150 = !DISubprogram(name: "vfwscanf", linkageName: "__isoc99_vfwscanf", scope: !44, file: !44, line: 711, type: !138, flags: DIFlagPrototyped, spFlags: 0)
!151 = !DIImportedEntity(tag: DW_TAG_imported_declaration, scope: !19, entity: !152, file: !38, line: 169)
!152 = !DISubprogram(name: "vswprintf", scope: !44, file: !44, line: 626, type: !153, flags: DIFlagPrototyped, spFlags: 0)
!153 = !DISubroutineType(types: !154)
!154 = !{!10, !62, !95, !72, !140}
!155 = !DIImportedEntity(tag: DW_TAG_imported_declaration, scope: !19, entity: !156, file: !38, line: 172)
!156 = !DISubprogram(name: "vswscanf", linkageName: "__isoc99_vswscanf", scope: !44, file: !44, line: 718, type: !157, flags: DIFlagPrototyped, spFlags: 0)
!157 = !DISubroutineType(types: !158)
!158 = !{!10, !72, !72, !140}
!159 = !DIImportedEntity(tag: DW_TAG_imported_declaration, scope: !19, entity: !160, file: !38, line: 174)
!160 = !DISubprogram(name: "vwprintf", scope: !44, file: !44, line: 621, type: !161, flags: DIFlagPrototyped, spFlags: 0)
!161 = !DISubroutineType(types: !162)
!162 = !{!10, !72, !140}
!163 = !DIImportedEntity(tag: DW_TAG_imported_declaration, scope: !19, entity: !164, file: !38, line: 176)
!164 = !DISubprogram(name: "vwscanf", linkageName: "__isoc99_vwscanf", scope: !44, file: !44, line: 715, type: !161, flags: DIFlagPrototyped, spFlags: 0)
!165 = !DIImportedEntity(tag: DW_TAG_imported_declaration, scope: !19, entity: !166, file: !38, line: 178)
!166 = !DISubprogram(name: "wcrtomb", scope: !44, file: !44, line: 302, type: !167, flags: DIFlagPrototyped, spFlags: 0)
!167 = !DISubroutineType(types: !168)
!168 = !{!95, !169, !61, !100}
!169 = !DIDerivedType(tag: DW_TAG_restrict_type, baseType: !13)
!170 = !DIImportedEntity(tag: DW_TAG_imported_declaration, scope: !19, entity: !171, file: !38, line: 179)
!171 = !DISubprogram(name: "wcscat", scope: !44, file: !44, line: 97, type: !172, flags: DIFlagPrototyped, spFlags: 0)
!172 = !DISubroutineType(types: !173)
!173 = !{!60, !62, !72}
!174 = !DIImportedEntity(tag: DW_TAG_imported_declaration, scope: !19, entity: !175, file: !38, line: 180)
!175 = !DISubprogram(name: "wcscmp", scope: !44, file: !44, line: 106, type: !176, flags: DIFlagPrototyped, spFlags: 0)
!176 = !DISubroutineType(types: !177)
!177 = !{!10, !73, !73}
!178 = !DIImportedEntity(tag: DW_TAG_imported_declaration, scope: !19, entity: !179, file: !38, line: 181)
!179 = !DISubprogram(name: "wcscoll", scope: !44, file: !44, line: 131, type: !176, flags: DIFlagPrototyped, spFlags: 0)
!180 = !DIImportedEntity(tag: DW_TAG_imported_declaration, scope: !19, entity: !181, file: !38, line: 182)
!181 = !DISubprogram(name: "wcscpy", scope: !44, file: !44, line: 87, type: !172, flags: DIFlagPrototyped, spFlags: 0)
!182 = !DIImportedEntity(tag: DW_TAG_imported_declaration, scope: !19, entity: !183, file: !38, line: 183)
!183 = !DISubprogram(name: "wcscspn", scope: !44, file: !44, line: 188, type: !184, flags: DIFlagPrototyped, spFlags: 0)
!184 = !DISubroutineType(types: !185)
!185 = !{!95, !73, !73}
!186 = !DIImportedEntity(tag: DW_TAG_imported_declaration, scope: !19, entity: !187, file: !38, line: 184)
!187 = !DISubprogram(name: "wcsftime", scope: !44, file: !44, line: 852, type: !188, flags: DIFlagPrototyped, spFlags: 0)
!188 = !DISubroutineType(types: !189)
!189 = !{!95, !62, !95, !72, !190}
!190 = !DIDerivedType(tag: DW_TAG_restrict_type, baseType: !191)
!191 = !DIDerivedType(tag: DW_TAG_pointer_type, baseType: !192, size: 64)
!192 = !DIDerivedType(tag: DW_TAG_const_type, baseType: !193)
!193 = !DICompositeType(tag: DW_TAG_structure_type, name: "tm", file: !44, line: 83, flags: DIFlagFwdDecl | DIFlagNonTrivial, identifier: "_ZTS2tm")
!194 = !DIImportedEntity(tag: DW_TAG_imported_declaration, scope: !19, entity: !195, file: !38, line: 185)
!195 = !DISubprogram(name: "wcslen", scope: !44, file: !44, line: 223, type: !196, flags: DIFlagPrototyped, spFlags: 0)
!196 = !DISubroutineType(types: !197)
!197 = !{!95, !73}
!198 = !DIImportedEntity(tag: DW_TAG_imported_declaration, scope: !19, entity: !199, file: !38, line: 186)
!199 = !DISubprogram(name: "wcsncat", scope: !44, file: !44, line: 101, type: !200, flags: DIFlagPrototyped, spFlags: 0)
!200 = !DISubroutineType(types: !201)
!201 = !{!60, !62, !72, !95}
!202 = !DIImportedEntity(tag: DW_TAG_imported_declaration, scope: !19, entity: !203, file: !38, line: 187)
!203 = !DISubprogram(name: "wcsncmp", scope: !44, file: !44, line: 109, type: !204, flags: DIFlagPrototyped, spFlags: 0)
!204 = !DISubroutineType(types: !205)
!205 = !{!10, !73, !73, !95}
!206 = !DIImportedEntity(tag: DW_TAG_imported_declaration, scope: !19, entity: !207, file: !38, line: 188)
!207 = !DISubprogram(name: "wcsncpy", scope: !44, file: !44, line: 92, type: !200, flags: DIFlagPrototyped, spFlags: 0)
!208 = !DIImportedEntity(tag: DW_TAG_imported_declaration, scope: !19, entity: !209, file: !38, line: 189)
!209 = !DISubprogram(name: "wcsrtombs", scope: !44, file: !44, line: 344, type: !210, flags: DIFlagPrototyped, spFlags: 0)
!210 = !DISubroutineType(types: !211)
!211 = !{!95, !169, !212, !95, !100}
!212 = !DIDerivedType(tag: DW_TAG_restrict_type, baseType: !213)
!213 = !DIDerivedType(tag: DW_TAG_pointer_type, baseType: !73, size: 64)
!214 = !DIImportedEntity(tag: DW_TAG_imported_declaration, scope: !19, entity: !215, file: !38, line: 190)
!215 = !DISubprogram(name: "wcsspn", scope: !44, file: !44, line: 192, type: !184, flags: DIFlagPrototyped, spFlags: 0)
!216 = !DIImportedEntity(tag: DW_TAG_imported_declaration, scope: !19, entity: !217, file: !38, line: 191)
!217 = !DISubprogram(name: "wcstod", scope: !44, file: !44, line: 378, type: !218, flags: DIFlagPrototyped, spFlags: 0)
!218 = !DISubroutineType(types: !219)
!219 = !{!220, !72, !221}
!220 = !DIBasicType(name: "double", size: 64, encoding: DW_ATE_float)
!221 = !DIDerivedType(tag: DW_TAG_restrict_type, baseType: !222)
!222 = !DIDerivedType(tag: DW_TAG_pointer_type, baseType: !60, size: 64)
!223 = !DIImportedEntity(tag: DW_TAG_imported_declaration, scope: !19, entity: !224, file: !38, line: 193)
!224 = !DISubprogram(name: "wcstof", scope: !44, file: !44, line: 383, type: !225, flags: DIFlagPrototyped, spFlags: 0)
!225 = !DISubroutineType(types: !226)
!226 = !{!227, !72, !221}
!227 = !DIBasicType(name: "float", size: 32, encoding: DW_ATE_float)
!228 = !DIImportedEntity(tag: DW_TAG_imported_declaration, scope: !19, entity: !229, file: !38, line: 195)
!229 = !DISubprogram(name: "wcstok", scope: !44, file: !44, line: 218, type: !230, flags: DIFlagPrototyped, spFlags: 0)
!230 = !DISubroutineType(types: !231)
!231 = !{!60, !62, !72, !221}
!232 = !DIImportedEntity(tag: DW_TAG_imported_declaration, scope: !19, entity: !233, file: !38, line: 196)
!233 = !DISubprogram(name: "wcstol", scope: !44, file: !44, line: 429, type: !234, flags: DIFlagPrototyped, spFlags: 0)
!234 = !DISubroutineType(types: !235)
!235 = !{!236, !72, !221, !10}
!236 = !DIBasicType(name: "long", size: 64, encoding: DW_ATE_signed)
!237 = !DIImportedEntity(tag: DW_TAG_imported_declaration, scope: !19, entity: !238, file: !38, line: 197)
!238 = !DISubprogram(name: "wcstoul", scope: !44, file: !44, line: 434, type: !239, flags: DIFlagPrototyped, spFlags: 0)
!239 = !DISubroutineType(types: !240)
!240 = !{!97, !72, !221, !10}
!241 = !DIImportedEntity(tag: DW_TAG_imported_declaration, scope: !19, entity: !242, file: !38, line: 198)
!242 = !DISubprogram(name: "wcsxfrm", scope: !44, file: !44, line: 135, type: !243, flags: DIFlagPrototyped, spFlags: 0)
!243 = !DISubroutineType(types: !244)
!244 = !{!95, !62, !72, !95}
!245 = !DIImportedEntity(tag: DW_TAG_imported_declaration, scope: !19, entity: !246, file: !38, line: 199)
!246 = !DISubprogram(name: "wctob", scope: !44, file: !44, line: 289, type: !247, flags: DIFlagPrototyped, spFlags: 0)
!247 = !DISubroutineType(types: !248)
!248 = !{!10, !40}
!249 = !DIImportedEntity(tag: DW_TAG_imported_declaration, scope: !19, entity: !250, file: !38, line: 200)
!250 = !DISubprogram(name: "wmemcmp", scope: !44, file: !44, line: 259, type: !204, flags: DIFlagPrototyped, spFlags: 0)
!251 = !DIImportedEntity(tag: DW_TAG_imported_declaration, scope: !19, entity: !252, file: !38, line: 201)
!252 = !DISubprogram(name: "wmemcpy", scope: !44, file: !44, line: 263, type: !200, flags: DIFlagPrototyped, spFlags: 0)
!253 = !DIImportedEntity(tag: DW_TAG_imported_declaration, scope: !19, entity: !254, file: !38, line: 202)
!254 = !DISubprogram(name: "wmemmove", scope: !44, file: !44, line: 268, type: !255, flags: DIFlagPrototyped, spFlags: 0)
!255 = !DISubroutineType(types: !256)
!256 = !{!60, !60, !73, !95}
!257 = !DIImportedEntity(tag: DW_TAG_imported_declaration, scope: !19, entity: !258, file: !38, line: 203)
!258 = !DISubprogram(name: "wmemset", scope: !44, file: !44, line: 272, type: !259, flags: DIFlagPrototyped, spFlags: 0)
!259 = !DISubroutineType(types: !260)
!260 = !{!60, !60, !61, !95}
!261 = !DIImportedEntity(tag: DW_TAG_imported_declaration, scope: !19, entity: !262, file: !38, line: 204)
!262 = !DISubprogram(name: "wprintf", scope: !44, file: !44, line: 602, type: !263, flags: DIFlagPrototyped, spFlags: 0)
!263 = !DISubroutineType(types: !264)
!264 = !{!10, !72, null}
!265 = !DIImportedEntity(tag: DW_TAG_imported_declaration, scope: !19, entity: !266, file: !38, line: 205)
!266 = !DISubprogram(name: "wscanf", linkageName: "__isoc99_wscanf", scope: !44, file: !44, line: 661, type: !263, flags: DIFlagPrototyped, spFlags: 0)
!267 = !DIImportedEntity(tag: DW_TAG_imported_declaration, scope: !19, entity: !268, file: !38, line: 206)
!268 = !DISubprogram(name: "wcschr", scope: !44, file: !44, line: 165, type: !269, flags: DIFlagPrototyped, spFlags: 0)
!269 = !DISubroutineType(types: !270)
!270 = !{!60, !73, !61}
!271 = !DIImportedEntity(tag: DW_TAG_imported_declaration, scope: !19, entity: !272, file: !38, line: 207)
!272 = !DISubprogram(name: "wcspbrk", scope: !44, file: !44, line: 202, type: !273, flags: DIFlagPrototyped, spFlags: 0)
!273 = !DISubroutineType(types: !274)
!274 = !{!60, !73, !73}
!275 = !DIImportedEntity(tag: DW_TAG_imported_declaration, scope: !19, entity: !276, file: !38, line: 208)
!276 = !DISubprogram(name: "wcsrchr", scope: !44, file: !44, line: 175, type: !269, flags: DIFlagPrototyped, spFlags: 0)
!277 = !DIImportedEntity(tag: DW_TAG_imported_declaration, scope: !19, entity: !278, file: !38, line: 209)
!278 = !DISubprogram(name: "wcsstr", scope: !44, file: !44, line: 213, type: !273, flags: DIFlagPrototyped, spFlags: 0)
!279 = !DIImportedEntity(tag: DW_TAG_imported_declaration, scope: !19, entity: !280, file: !38, line: 210)
!280 = !DISubprogram(name: "wmemchr", scope: !44, file: !44, line: 254, type: !281, flags: DIFlagPrototyped, spFlags: 0)
!281 = !DISubroutineType(types: !282)
!282 = !{!60, !73, !61, !95}
!283 = !DIImportedEntity(tag: DW_TAG_imported_declaration, scope: !284, entity: !285, file: !38, line: 251)
!284 = !DINamespace(name: "__gnu_cxx", scope: null)
!285 = !DISubprogram(name: "wcstold", scope: !44, file: !44, line: 385, type: !286, flags: DIFlagPrototyped, spFlags: 0)
!286 = !DISubroutineType(types: !287)
!287 = !{!288, !72, !221}
!288 = !DIBasicType(name: "long double", size: 128, encoding: DW_ATE_float)
!289 = !DIImportedEntity(tag: DW_TAG_imported_declaration, scope: !284, entity: !290, file: !38, line: 260)
!290 = !DISubprogram(name: "wcstoll", scope: !44, file: !44, line: 442, type: !291, flags: DIFlagPrototyped, spFlags: 0)
!291 = !DISubroutineType(types: !292)
!292 = !{!293, !72, !221, !10}
!293 = !DIBasicType(name: "long long", size: 64, encoding: DW_ATE_signed)
!294 = !DIImportedEntity(tag: DW_TAG_imported_declaration, scope: !284, entity: !295, file: !38, line: 261)
!295 = !DISubprogram(name: "wcstoull", scope: !44, file: !44, line: 449, type: !296, flags: DIFlagPrototyped, spFlags: 0)
!296 = !DISubroutineType(types: !297)
!297 = !{!298, !72, !221, !10}
!298 = !DIBasicType(name: "unsigned long long", size: 64, encoding: DW_ATE_unsigned)
!299 = !DIImportedEntity(tag: DW_TAG_imported_declaration, scope: !19, entity: !285, file: !38, line: 267)
!300 = !DIImportedEntity(tag: DW_TAG_imported_declaration, scope: !19, entity: !290, file: !38, line: 268)
!301 = !DIImportedEntity(tag: DW_TAG_imported_declaration, scope: !19, entity: !295, file: !38, line: 269)
!302 = !DIImportedEntity(tag: DW_TAG_imported_declaration, scope: !19, entity: !224, file: !38, line: 283)
!303 = !DIImportedEntity(tag: DW_TAG_imported_declaration, scope: !19, entity: !150, file: !38, line: 286)
!304 = !DIImportedEntity(tag: DW_TAG_imported_declaration, scope: !19, entity: !156, file: !38, line: 289)
!305 = !DIImportedEntity(tag: DW_TAG_imported_declaration, scope: !19, entity: !164, file: !38, line: 292)
!306 = !DIImportedEntity(tag: DW_TAG_imported_declaration, scope: !19, entity: !285, file: !38, line: 296)
!307 = !DIImportedEntity(tag: DW_TAG_imported_declaration, scope: !19, entity: !290, file: !38, line: 297)
!308 = !DIImportedEntity(tag: DW_TAG_imported_declaration, scope: !19, entity: !295, file: !38, line: 298)
!309 = !DIImportedEntity(tag: DW_TAG_imported_declaration, scope: !19, entity: !310, file: !315, line: 47)
!310 = !DIDerivedType(tag: DW_TAG_typedef, name: "int8_t", file: !311, line: 24, baseType: !312)
!311 = !DIFile(filename: "/usr/include/x86_64-linux-gnu/bits/stdint-intn.h", directory: "", checksumkind: CSK_MD5, checksum: "55bcbdc3159515ebd91d351a70d505f4")
!312 = !DIDerivedType(tag: DW_TAG_typedef, name: "__int8_t", file: !313, line: 37, baseType: !314)
!313 = !DIFile(filename: "/usr/include/x86_64-linux-gnu/bits/types.h", directory: "", checksumkind: CSK_MD5, checksum: "d108b5f93a74c50510d7d9bc0ab36df9")
!314 = !DIBasicType(name: "signed char", size: 8, encoding: DW_ATE_signed_char)
!315 = !DIFile(filename: "/usr/lib/gcc/x86_64-linux-gnu/11/../../../../include/c++/11/cstdint", directory: "")
!316 = !DIImportedEntity(tag: DW_TAG_imported_declaration, scope: !19, entity: !317, file: !315, line: 48)
!317 = !DIDerivedType(tag: DW_TAG_typedef, name: "int16_t", file: !311, line: 25, baseType: !318)
!318 = !DIDerivedType(tag: DW_TAG_typedef, name: "__int16_t", file: !313, line: 39, baseType: !319)
!319 = !DIBasicType(name: "short", size: 16, encoding: DW_ATE_signed)
!320 = !DIImportedEntity(tag: DW_TAG_imported_declaration, scope: !19, entity: !321, file: !315, line: 49)
!321 = !DIDerivedType(tag: DW_TAG_typedef, name: "int32_t", file: !311, line: 26, baseType: !322)
!322 = !DIDerivedType(tag: DW_TAG_typedef, name: "__int32_t", file: !313, line: 41, baseType: !10)
!323 = !DIImportedEntity(tag: DW_TAG_imported_declaration, scope: !19, entity: !324, file: !315, line: 50)
!324 = !DIDerivedType(tag: DW_TAG_typedef, name: "int64_t", file: !311, line: 27, baseType: !325)
!325 = !DIDerivedType(tag: DW_TAG_typedef, name: "__int64_t", file: !313, line: 44, baseType: !236)
!326 = !DIImportedEntity(tag: DW_TAG_imported_declaration, scope: !19, entity: !327, file: !315, line: 52)
!327 = !DIDerivedType(tag: DW_TAG_typedef, name: "int_fast8_t", file: !328, line: 58, baseType: !314)
!328 = !DIFile(filename: "/usr/include/stdint.h", directory: "", checksumkind: CSK_MD5, checksum: "a48e64edacc5b19f56c99745232c963c")
!329 = !DIImportedEntity(tag: DW_TAG_imported_declaration, scope: !19, entity: !330, file: !315, line: 53)
!330 = !DIDerivedType(tag: DW_TAG_typedef, name: "int_fast16_t", file: !328, line: 60, baseType: !236)
!331 = !DIImportedEntity(tag: DW_TAG_imported_declaration, scope: !19, entity: !332, file: !315, line: 54)
!332 = !DIDerivedType(tag: DW_TAG_typedef, name: "int_fast32_t", file: !328, line: 61, baseType: !236)
!333 = !DIImportedEntity(tag: DW_TAG_imported_declaration, scope: !19, entity: !334, file: !315, line: 55)
!334 = !DIDerivedType(tag: DW_TAG_typedef, name: "int_fast64_t", file: !328, line: 62, baseType: !236)
!335 = !DIImportedEntity(tag: DW_TAG_imported_declaration, scope: !19, entity: !336, file: !315, line: 57)
!336 = !DIDerivedType(tag: DW_TAG_typedef, name: "int_least8_t", file: !328, line: 43, baseType: !337)
!337 = !DIDerivedType(tag: DW_TAG_typedef, name: "__int_least8_t", file: !313, line: 52, baseType: !312)
!338 = !DIImportedEntity(tag: DW_TAG_imported_declaration, scope: !19, entity: !339, file: !315, line: 58)
!339 = !DIDerivedType(tag: DW_TAG_typedef, name: "int_least16_t", file: !328, line: 44, baseType: !340)
!340 = !DIDerivedType(tag: DW_TAG_typedef, name: "__int_least16_t", file: !313, line: 54, baseType: !318)
!341 = !DIImportedEntity(tag: DW_TAG_imported_declaration, scope: !19, entity: !342, file: !315, line: 59)
!342 = !DIDerivedType(tag: DW_TAG_typedef, name: "int_least32_t", file: !328, line: 45, baseType: !343)
!343 = !DIDerivedType(tag: DW_TAG_typedef, name: "__int_least32_t", file: !313, line: 56, baseType: !322)
!344 = !DIImportedEntity(tag: DW_TAG_imported_declaration, scope: !19, entity: !345, file: !315, line: 60)
!345 = !DIDerivedType(tag: DW_TAG_typedef, name: "int_least64_t", file: !328, line: 46, baseType: !346)
!346 = !DIDerivedType(tag: DW_TAG_typedef, name: "__int_least64_t", file: !313, line: 58, baseType: !325)
!347 = !DIImportedEntity(tag: DW_TAG_imported_declaration, scope: !19, entity: !348, file: !315, line: 62)
!348 = !DIDerivedType(tag: DW_TAG_typedef, name: "intmax_t", file: !328, line: 101, baseType: !349)
!349 = !DIDerivedType(tag: DW_TAG_typedef, name: "__intmax_t", file: !313, line: 72, baseType: !236)
!350 = !DIImportedEntity(tag: DW_TAG_imported_declaration, scope: !19, entity: !351, file: !315, line: 63)
!351 = !DIDerivedType(tag: DW_TAG_typedef, name: "intptr_t", file: !328, line: 87, baseType: !236)
!352 = !DIImportedEntity(tag: DW_TAG_imported_declaration, scope: !19, entity: !353, file: !315, line: 65)
!353 = !DIDerivedType(tag: DW_TAG_typedef, name: "uint8_t", file: !354, line: 24, baseType: !355)
!354 = !DIFile(filename: "/usr/include/x86_64-linux-gnu/bits/stdint-uintn.h", directory: "", checksumkind: CSK_MD5, checksum: "2bf2ae53c58c01b1a1b9383b5195125c")
!355 = !DIDerivedType(tag: DW_TAG_typedef, name: "__uint8_t", file: !313, line: 38, baseType: !12)
!356 = !DIImportedEntity(tag: DW_TAG_imported_declaration, scope: !19, entity: !357, file: !315, line: 66)
!357 = !DIDerivedType(tag: DW_TAG_typedef, name: "uint16_t", file: !354, line: 25, baseType: !358)
!358 = !DIDerivedType(tag: DW_TAG_typedef, name: "__uint16_t", file: !313, line: 40, baseType: !359)
!359 = !DIBasicType(name: "unsigned short", size: 16, encoding: DW_ATE_unsigned)
!360 = !DIImportedEntity(tag: DW_TAG_imported_declaration, scope: !19, entity: !361, file: !315, line: 67)
!361 = !DIDerivedType(tag: DW_TAG_typedef, name: "uint32_t", file: !354, line: 26, baseType: !362)
!362 = !DIDerivedType(tag: DW_TAG_typedef, name: "__uint32_t", file: !313, line: 42, baseType: !33)
!363 = !DIImportedEntity(tag: DW_TAG_imported_declaration, scope: !19, entity: !364, file: !315, line: 68)
!364 = !DIDerivedType(tag: DW_TAG_typedef, name: "uint64_t", file: !354, line: 27, baseType: !365)
!365 = !DIDerivedType(tag: DW_TAG_typedef, name: "__uint64_t", file: !313, line: 45, baseType: !97)
!366 = !DIImportedEntity(tag: DW_TAG_imported_declaration, scope: !19, entity: !367, file: !315, line: 70)
!367 = !DIDerivedType(tag: DW_TAG_typedef, name: "uint_fast8_t", file: !328, line: 71, baseType: !12)
!368 = !DIImportedEntity(tag: DW_TAG_imported_declaration, scope: !19, entity: !369, file: !315, line: 71)
!369 = !DIDerivedType(tag: DW_TAG_typedef, name: "uint_fast16_t", file: !328, line: 73, baseType: !97)
!370 = !DIImportedEntity(tag: DW_TAG_imported_declaration, scope: !19, entity: !371, file: !315, line: 72)
!371 = !DIDerivedType(tag: DW_TAG_typedef, name: "uint_fast32_t", file: !328, line: 74, baseType: !97)
!372 = !DIImportedEntity(tag: DW_TAG_imported_declaration, scope: !19, entity: !373, file: !315, line: 73)
!373 = !DIDerivedType(tag: DW_TAG_typedef, name: "uint_fast64_t", file: !328, line: 75, baseType: !97)
!374 = !DIImportedEntity(tag: DW_TAG_imported_declaration, scope: !19, entity: !375, file: !315, line: 75)
!375 = !DIDerivedType(tag: DW_TAG_typedef, name: "uint_least8_t", file: !328, line: 49, baseType: !376)
!376 = !DIDerivedType(tag: DW_TAG_typedef, name: "__uint_least8_t", file: !313, line: 53, baseType: !355)
!377 = !DIImportedEntity(tag: DW_TAG_imported_declaration, scope: !19, entity: !378, file: !315, line: 76)
!378 = !DIDerivedType(tag: DW_TAG_typedef, name: "uint_least16_t", file: !328, line: 50, baseType: !379)
!379 = !DIDerivedType(tag: DW_TAG_typedef, name: "__uint_least16_t", file: !313, line: 55, baseType: !358)
!380 = !DIImportedEntity(tag: DW_TAG_imported_declaration, scope: !19, entity: !381, file: !315, line: 77)
!381 = !DIDerivedType(tag: DW_TAG_typedef, name: "uint_least32_t", file: !328, line: 51, baseType: !382)
!382 = !DIDerivedType(tag: DW_TAG_typedef, name: "__uint_least32_t", file: !313, line: 57, baseType: !362)
!383 = !DIImportedEntity(tag: DW_TAG_imported_declaration, scope: !19, entity: !384, file: !315, line: 78)
!384 = !DIDerivedType(tag: DW_TAG_typedef, name: "uint_least64_t", file: !328, line: 52, baseType: !385)
!385 = !DIDerivedType(tag: DW_TAG_typedef, name: "__uint_least64_t", file: !313, line: 59, baseType: !365)
!386 = !DIImportedEntity(tag: DW_TAG_imported_declaration, scope: !19, entity: !387, file: !315, line: 80)
!387 = !DIDerivedType(tag: DW_TAG_typedef, name: "uintmax_t", file: !328, line: 102, baseType: !388)
!388 = !DIDerivedType(tag: DW_TAG_typedef, name: "__uintmax_t", file: !313, line: 73, baseType: !97)
!389 = !DIImportedEntity(tag: DW_TAG_imported_declaration, scope: !19, entity: !390, file: !315, line: 81)
!390 = !DIDerivedType(tag: DW_TAG_typedef, name: "uintptr_t", file: !328, line: 90, baseType: !97)
!391 = !DIImportedEntity(tag: DW_TAG_imported_declaration, scope: !19, entity: !392, file: !394, line: 53)
!392 = !DICompositeType(tag: DW_TAG_structure_type, name: "lconv", file: !393, line: 51, size: 768, flags: DIFlagFwdDecl, identifier: "_ZTS5lconv")
!393 = !DIFile(filename: "/usr/include/locale.h", directory: "", checksumkind: CSK_MD5, checksum: "a1d177e0f311dc60a74cb347049d75bc")
!394 = !DIFile(filename: "/usr/lib/gcc/x86_64-linux-gnu/11/../../../../include/c++/11/clocale", directory: "")
!395 = !DIImportedEntity(tag: DW_TAG_imported_declaration, scope: !19, entity: !396, file: !394, line: 54)
!396 = !DISubprogram(name: "setlocale", scope: !393, file: !393, line: 122, type: !397, flags: DIFlagPrototyped, spFlags: 0)
!397 = !DISubroutineType(types: !398)
!398 = !{!13, !10, !99}
!399 = !DIImportedEntity(tag: DW_TAG_imported_declaration, scope: !19, entity: !400, file: !394, line: 55)
!400 = !DISubprogram(name: "localeconv", scope: !393, file: !393, line: 125, type: !401, flags: DIFlagPrototyped, spFlags: 0)
!401 = !DISubroutineType(types: !402)
!402 = !{!403}
!403 = !DIDerivedType(tag: DW_TAG_pointer_type, baseType: !392, size: 64)
!404 = !DIImportedEntity(tag: DW_TAG_imported_declaration, scope: !19, entity: !405, file: !409, line: 64)
!405 = !DISubprogram(name: "isalnum", scope: !406, file: !406, line: 108, type: !407, flags: DIFlagPrototyped, spFlags: 0)
!406 = !DIFile(filename: "/usr/include/ctype.h", directory: "", checksumkind: CSK_MD5, checksum: "3ab3dd7fdf2578005732722ee2393e59")
!407 = !DISubroutineType(types: !408)
!408 = !{!10, !10}
!409 = !DIFile(filename: "/usr/lib/gcc/x86_64-linux-gnu/11/../../../../include/c++/11/cctype", directory: "")
!410 = !DIImportedEntity(tag: DW_TAG_imported_declaration, scope: !19, entity: !411, file: !409, line: 65)
!411 = !DISubprogram(name: "isalpha", scope: !406, file: !406, line: 109, type: !407, flags: DIFlagPrototyped, spFlags: 0)
!412 = !DIImportedEntity(tag: DW_TAG_imported_declaration, scope: !19, entity: !413, file: !409, line: 66)
!413 = !DISubprogram(name: "iscntrl", scope: !406, file: !406, line: 110, type: !407, flags: DIFlagPrototyped, spFlags: 0)
!414 = !DIImportedEntity(tag: DW_TAG_imported_declaration, scope: !19, entity: !415, file: !409, line: 67)
!415 = !DISubprogram(name: "isdigit", scope: !406, file: !406, line: 111, type: !407, flags: DIFlagPrototyped, spFlags: 0)
!416 = !DIImportedEntity(tag: DW_TAG_imported_declaration, scope: !19, entity: !417, file: !409, line: 68)
!417 = !DISubprogram(name: "isgraph", scope: !406, file: !406, line: 113, type: !407, flags: DIFlagPrototyped, spFlags: 0)
!418 = !DIImportedEntity(tag: DW_TAG_imported_declaration, scope: !19, entity: !419, file: !409, line: 69)
!419 = !DISubprogram(name: "islower", scope: !406, file: !406, line: 112, type: !407, flags: DIFlagPrototyped, spFlags: 0)
!420 = !DIImportedEntity(tag: DW_TAG_imported_declaration, scope: !19, entity: !421, file: !409, line: 70)
!421 = !DISubprogram(name: "isprint", scope: !406, file: !406, line: 114, type: !407, flags: DIFlagPrototyped, spFlags: 0)
!422 = !DIImportedEntity(tag: DW_TAG_imported_declaration, scope: !19, entity: !423, file: !409, line: 71)
!423 = !DISubprogram(name: "ispunct", scope: !406, file: !406, line: 115, type: !407, flags: DIFlagPrototyped, spFlags: 0)
!424 = !DIImportedEntity(tag: DW_TAG_imported_declaration, scope: !19, entity: !425, file: !409, line: 72)
!425 = !DISubprogram(name: "isspace", scope: !406, file: !406, line: 116, type: !407, flags: DIFlagPrototyped, spFlags: 0)
!426 = !DIImportedEntity(tag: DW_TAG_imported_declaration, scope: !19, entity: !427, file: !409, line: 73)
!427 = !DISubprogram(name: "isupper", scope: !406, file: !406, line: 117, type: !407, flags: DIFlagPrototyped, spFlags: 0)
!428 = !DIImportedEntity(tag: DW_TAG_imported_declaration, scope: !19, entity: !429, file: !409, line: 74)
!429 = !DISubprogram(name: "isxdigit", scope: !406, file: !406, line: 118, type: !407, flags: DIFlagPrototyped, spFlags: 0)
!430 = !DIImportedEntity(tag: DW_TAG_imported_declaration, scope: !19, entity: !431, file: !409, line: 75)
!431 = !DISubprogram(name: "tolower", scope: !406, file: !406, line: 122, type: !407, flags: DIFlagPrototyped, spFlags: 0)
!432 = !DIImportedEntity(tag: DW_TAG_imported_declaration, scope: !19, entity: !433, file: !409, line: 76)
!433 = !DISubprogram(name: "toupper", scope: !406, file: !406, line: 125, type: !407, flags: DIFlagPrototyped, spFlags: 0)
!434 = !DIImportedEntity(tag: DW_TAG_imported_declaration, scope: !19, entity: !435, file: !409, line: 87)
!435 = !DISubprogram(name: "isblank", scope: !406, file: !406, line: 130, type: !407, flags: DIFlagPrototyped, spFlags: 0)
!436 = !DIImportedEntity(tag: DW_TAG_imported_declaration, scope: !19, entity: !437, file: !439, line: 52)
!437 = !DISubprogram(name: "abs", scope: !438, file: !438, line: 848, type: !407, flags: DIFlagPrototyped, spFlags: 0)
!438 = !DIFile(filename: "/usr/include/stdlib.h", directory: "", checksumkind: CSK_MD5, checksum: "02258fad21adf111bb9df9825e61954a")
!439 = !DIFile(filename: "/usr/lib/gcc/x86_64-linux-gnu/11/../../../../include/c++/11/bits/std_abs.h", directory: "")
!440 = !DIImportedEntity(tag: DW_TAG_imported_declaration, scope: !19, entity: !441, file: !443, line: 127)
!441 = !DIDerivedType(tag: DW_TAG_typedef, name: "div_t", file: !438, line: 63, baseType: !442)
!442 = !DICompositeType(tag: DW_TAG_structure_type, file: !438, line: 59, size: 64, flags: DIFlagFwdDecl, identifier: "_ZTS5div_t")
!443 = !DIFile(filename: "/usr/lib/gcc/x86_64-linux-gnu/11/../../../../include/c++/11/cstdlib", directory: "")
!444 = !DIImportedEntity(tag: DW_TAG_imported_declaration, scope: !19, entity: !445, file: !443, line: 128)
!445 = !DIDerivedType(tag: DW_TAG_typedef, name: "ldiv_t", file: !438, line: 71, baseType: !446)
!446 = distinct !DICompositeType(tag: DW_TAG_structure_type, file: !438, line: 67, size: 128, flags: DIFlagTypePassByValue, elements: !447, identifier: "_ZTS6ldiv_t")
!447 = !{!448, !449}
!448 = !DIDerivedType(tag: DW_TAG_member, name: "quot", scope: !446, file: !438, line: 69, baseType: !236, size: 64)
!449 = !DIDerivedType(tag: DW_TAG_member, name: "rem", scope: !446, file: !438, line: 70, baseType: !236, size: 64, offset: 64)
!450 = !DIImportedEntity(tag: DW_TAG_imported_declaration, scope: !19, entity: !451, file: !443, line: 130)
!451 = !DISubprogram(name: "abort", scope: !438, file: !438, line: 598, type: !452, flags: DIFlagPrototyped | DIFlagNoReturn, spFlags: 0)
!452 = !DISubroutineType(types: !453)
!453 = !{null}
!454 = !DIImportedEntity(tag: DW_TAG_imported_declaration, scope: !19, entity: !455, file: !443, line: 134)
!455 = !DISubprogram(name: "atexit", scope: !438, file: !438, line: 602, type: !456, flags: DIFlagPrototyped, spFlags: 0)
!456 = !DISubroutineType(types: !457)
!457 = !{!10, !458}
!458 = !DIDerivedType(tag: DW_TAG_pointer_type, baseType: !452, size: 64)
!459 = !DIImportedEntity(tag: DW_TAG_imported_declaration, scope: !19, entity: !460, file: !443, line: 137)
!460 = !DISubprogram(name: "at_quick_exit", scope: !438, file: !438, line: 607, type: !456, flags: DIFlagPrototyped, spFlags: 0)
!461 = !DIImportedEntity(tag: DW_TAG_imported_declaration, scope: !19, entity: !462, file: !443, line: 140)
!462 = !DISubprogram(name: "atof", scope: !438, file: !438, line: 102, type: !463, flags: DIFlagPrototyped, spFlags: 0)
!463 = !DISubroutineType(types: !464)
!464 = !{!220, !99}
!465 = !DIImportedEntity(tag: DW_TAG_imported_declaration, scope: !19, entity: !466, file: !443, line: 141)
!466 = !DISubprogram(name: "atoi", scope: !438, file: !438, line: 105, type: !467, flags: DIFlagPrototyped, spFlags: 0)
!467 = !DISubroutineType(types: !468)
!468 = !{!10, !99}
!469 = !DIImportedEntity(tag: DW_TAG_imported_declaration, scope: !19, entity: !470, file: !443, line: 142)
!470 = !DISubprogram(name: "atol", scope: !438, file: !438, line: 108, type: !471, flags: DIFlagPrototyped, spFlags: 0)
!471 = !DISubroutineType(types: !472)
!472 = !{!236, !99}
!473 = !DIImportedEntity(tag: DW_TAG_imported_declaration, scope: !19, entity: !474, file: !443, line: 143)
!474 = !DISubprogram(name: "bsearch", scope: !438, file: !438, line: 828, type: !475, flags: DIFlagPrototyped, spFlags: 0)
!475 = !DISubroutineType(types: !476)
!476 = !{!147, !477, !477, !95, !95, !479}
!477 = !DIDerivedType(tag: DW_TAG_pointer_type, baseType: !478, size: 64)
!478 = !DIDerivedType(tag: DW_TAG_const_type, baseType: null)
!479 = !DIDerivedType(tag: DW_TAG_typedef, name: "__compar_fn_t", file: !438, line: 816, baseType: !480)
!480 = !DIDerivedType(tag: DW_TAG_pointer_type, baseType: !481, size: 64)
!481 = !DISubroutineType(types: !482)
!482 = !{!10, !477, !477}
!483 = !DIImportedEntity(tag: DW_TAG_imported_declaration, scope: !19, entity: !484, file: !443, line: 144)
!484 = !DISubprogram(name: "calloc", scope: !438, file: !438, line: 543, type: !485, flags: DIFlagPrototyped, spFlags: 0)
!485 = !DISubroutineType(types: !486)
!486 = !{!147, !95, !95}
!487 = !DIImportedEntity(tag: DW_TAG_imported_declaration, scope: !19, entity: !488, file: !443, line: 145)
!488 = !DISubprogram(name: "div", scope: !438, file: !438, line: 860, type: !489, flags: DIFlagPrototyped, spFlags: 0)
!489 = !DISubroutineType(types: !490)
!490 = !{!441, !10, !10}
!491 = !DIImportedEntity(tag: DW_TAG_imported_declaration, scope: !19, entity: !492, file: !443, line: 146)
!492 = !DISubprogram(name: "exit", scope: !438, file: !438, line: 624, type: !493, flags: DIFlagPrototyped | DIFlagNoReturn, spFlags: 0)
!493 = !DISubroutineType(types: !494)
!494 = !{null, !10}
!495 = !DIImportedEntity(tag: DW_TAG_imported_declaration, scope: !19, entity: !496, file: !443, line: 147)
!496 = !DISubprogram(name: "free", scope: !438, file: !438, line: 555, type: !497, flags: DIFlagPrototyped, spFlags: 0)
!497 = !DISubroutineType(types: !498)
!498 = !{null, !147}
!499 = !DIImportedEntity(tag: DW_TAG_imported_declaration, scope: !19, entity: !500, file: !443, line: 148)
!500 = !DISubprogram(name: "getenv", scope: !438, file: !438, line: 641, type: !501, flags: DIFlagPrototyped, spFlags: 0)
!501 = !DISubroutineType(types: !502)
!502 = !{!13, !99}
!503 = !DIImportedEntity(tag: DW_TAG_imported_declaration, scope: !19, entity: !504, file: !443, line: 149)
!504 = !DISubprogram(name: "labs", scope: !438, file: !438, line: 849, type: !505, flags: DIFlagPrototyped, spFlags: 0)
!505 = !DISubroutineType(types: !506)
!506 = !{!236, !236}
!507 = !DIImportedEntity(tag: DW_TAG_imported_declaration, scope: !19, entity: !508, file: !443, line: 150)
!508 = !DISubprogram(name: "ldiv", scope: !438, file: !438, line: 862, type: !509, flags: DIFlagPrototyped, spFlags: 0)
!509 = !DISubroutineType(types: !510)
!510 = !{!445, !236, !236}
!511 = !DIImportedEntity(tag: DW_TAG_imported_declaration, scope: !19, entity: !512, file: !443, line: 151)
!512 = !DISubprogram(name: "malloc", scope: !438, file: !438, line: 540, type: !513, flags: DIFlagPrototyped, spFlags: 0)
!513 = !DISubroutineType(types: !514)
!514 = !{!147, !95}
!515 = !DIImportedEntity(tag: DW_TAG_imported_declaration, scope: !19, entity: !516, file: !443, line: 153)
!516 = !DISubprogram(name: "mblen", scope: !438, file: !438, line: 930, type: !517, flags: DIFlagPrototyped, spFlags: 0)
!517 = !DISubroutineType(types: !518)
!518 = !{!10, !99, !95}
!519 = !DIImportedEntity(tag: DW_TAG_imported_declaration, scope: !19, entity: !520, file: !443, line: 154)
!520 = !DISubprogram(name: "mbstowcs", scope: !438, file: !438, line: 941, type: !521, flags: DIFlagPrototyped, spFlags: 0)
!521 = !DISubroutineType(types: !522)
!522 = !{!95, !62, !98, !95}
!523 = !DIImportedEntity(tag: DW_TAG_imported_declaration, scope: !19, entity: !524, file: !443, line: 155)
!524 = !DISubprogram(name: "mbtowc", scope: !438, file: !438, line: 933, type: !525, flags: DIFlagPrototyped, spFlags: 0)
!525 = !DISubroutineType(types: !526)
!526 = !{!10, !62, !98, !95}
!527 = !DIImportedEntity(tag: DW_TAG_imported_declaration, scope: !19, entity: !528, file: !443, line: 157)
!528 = !DISubprogram(name: "qsort", scope: !438, file: !438, line: 838, type: !529, flags: DIFlagPrototyped, spFlags: 0)
!529 = !DISubroutineType(types: !530)
!530 = !{null, !147, !95, !95, !479}
!531 = !DIImportedEntity(tag: DW_TAG_imported_declaration, scope: !19, entity: !532, file: !443, line: 160)
!532 = !DISubprogram(name: "quick_exit", scope: !438, file: !438, line: 630, type: !493, flags: DIFlagPrototyped | DIFlagNoReturn, spFlags: 0)
!533 = !DIImportedEntity(tag: DW_TAG_imported_declaration, scope: !19, entity: !534, file: !443, line: 163)
!534 = !DISubprogram(name: "rand", scope: !438, file: !438, line: 454, type: !535, flags: DIFlagPrototyped, spFlags: 0)
!535 = !DISubroutineType(types: !536)
!536 = !{!10}
!537 = !DIImportedEntity(tag: DW_TAG_imported_declaration, scope: !19, entity: !538, file: !443, line: 164)
!538 = !DISubprogram(name: "realloc", scope: !438, file: !438, line: 551, type: !539, flags: DIFlagPrototyped, spFlags: 0)
!539 = !DISubroutineType(types: !540)
!540 = !{!147, !147, !95}
!541 = !DIImportedEntity(tag: DW_TAG_imported_declaration, scope: !19, entity: !542, file: !443, line: 165)
!542 = !DISubprogram(name: "srand", scope: !438, file: !438, line: 456, type: !543, flags: DIFlagPrototyped, spFlags: 0)
!543 = !DISubroutineType(types: !544)
!544 = !{null, !33}
!545 = !DIImportedEntity(tag: DW_TAG_imported_declaration, scope: !19, entity: !546, file: !443, line: 166)
!546 = !DISubprogram(name: "strtod", scope: !438, file: !438, line: 118, type: !547, flags: DIFlagPrototyped, spFlags: 0)
!547 = !DISubroutineType(types: !548)
!548 = !{!220, !98, !549}
!549 = !DIDerivedType(tag: DW_TAG_restrict_type, baseType: !550)
!550 = !DIDerivedType(tag: DW_TAG_pointer_type, baseType: !13, size: 64)
!551 = !DIImportedEntity(tag: DW_TAG_imported_declaration, scope: !19, entity: !552, file: !443, line: 167)
!552 = !DISubprogram(name: "strtol", scope: !438, file: !438, line: 177, type: !553, flags: DIFlagPrototyped, spFlags: 0)
!553 = !DISubroutineType(types: !554)
!554 = !{!236, !98, !549, !10}
!555 = !DIImportedEntity(tag: DW_TAG_imported_declaration, scope: !19, entity: !556, file: !443, line: 168)
!556 = !DISubprogram(name: "strtoul", scope: !438, file: !438, line: 181, type: !557, flags: DIFlagPrototyped, spFlags: 0)
!557 = !DISubroutineType(types: !558)
!558 = !{!97, !98, !549, !10}
!559 = !DIImportedEntity(tag: DW_TAG_imported_declaration, scope: !19, entity: !560, file: !443, line: 169)
!560 = !DISubprogram(name: "system", scope: !438, file: !438, line: 791, type: !467, flags: DIFlagPrototyped, spFlags: 0)
!561 = !DIImportedEntity(tag: DW_TAG_imported_declaration, scope: !19, entity: !562, file: !443, line: 171)
!562 = !DISubprogram(name: "wcstombs", scope: !438, file: !438, line: 945, type: !563, flags: DIFlagPrototyped, spFlags: 0)
!563 = !DISubroutineType(types: !564)
!564 = !{!95, !169, !72, !95}
!565 = !DIImportedEntity(tag: DW_TAG_imported_declaration, scope: !19, entity: !566, file: !443, line: 172)
!566 = !DISubprogram(name: "wctomb", scope: !438, file: !438, line: 937, type: !567, flags: DIFlagPrototyped, spFlags: 0)
!567 = !DISubroutineType(types: !568)
!568 = !{!10, !13, !61}
!569 = !DIImportedEntity(tag: DW_TAG_imported_declaration, scope: !284, entity: !570, file: !443, line: 200)
!570 = !DIDerivedType(tag: DW_TAG_typedef, name: "lldiv_t", file: !438, line: 81, baseType: !571)
!571 = distinct !DICompositeType(tag: DW_TAG_structure_type, file: !438, line: 77, size: 128, flags: DIFlagTypePassByValue, elements: !572, identifier: "_ZTS7lldiv_t")
!572 = !{!573, !574}
!573 = !DIDerivedType(tag: DW_TAG_member, name: "quot", scope: !571, file: !438, line: 79, baseType: !293, size: 64)
!574 = !DIDerivedType(tag: DW_TAG_member, name: "rem", scope: !571, file: !438, line: 80, baseType: !293, size: 64, offset: 64)
!575 = !DIImportedEntity(tag: DW_TAG_imported_declaration, scope: !284, entity: !576, file: !443, line: 206)
!576 = !DISubprogram(name: "_Exit", scope: !438, file: !438, line: 636, type: !493, flags: DIFlagPrototyped | DIFlagNoReturn, spFlags: 0)
!577 = !DIImportedEntity(tag: DW_TAG_imported_declaration, scope: !284, entity: !578, file: !443, line: 210)
!578 = !DISubprogram(name: "llabs", scope: !438, file: !438, line: 852, type: !579, flags: DIFlagPrototyped, spFlags: 0)
!579 = !DISubroutineType(types: !580)
!580 = !{!293, !293}
!581 = !DIImportedEntity(tag: DW_TAG_imported_declaration, scope: !284, entity: !582, file: !443, line: 216)
!582 = !DISubprogram(name: "lldiv", scope: !438, file: !438, line: 866, type: !583, flags: DIFlagPrototyped, spFlags: 0)
!583 = !DISubroutineType(types: !584)
!584 = !{!570, !293, !293}
!585 = !DIImportedEntity(tag: DW_TAG_imported_declaration, scope: !284, entity: !586, file: !443, line: 227)
!586 = !DISubprogram(name: "atoll", scope: !438, file: !438, line: 113, type: !587, flags: DIFlagPrototyped, spFlags: 0)
!587 = !DISubroutineType(types: !588)
!588 = !{!293, !99}
!589 = !DIImportedEntity(tag: DW_TAG_imported_declaration, scope: !284, entity: !590, file: !443, line: 228)
!590 = !DISubprogram(name: "strtoll", scope: !438, file: !438, line: 201, type: !591, flags: DIFlagPrototyped, spFlags: 0)
!591 = !DISubroutineType(types: !592)
!592 = !{!293, !98, !549, !10}
!593 = !DIImportedEntity(tag: DW_TAG_imported_declaration, scope: !284, entity: !594, file: !443, line: 229)
!594 = !DISubprogram(name: "strtoull", scope: !438, file: !438, line: 206, type: !595, flags: DIFlagPrototyped, spFlags: 0)
!595 = !DISubroutineType(types: !596)
!596 = !{!298, !98, !549, !10}
!597 = !DIImportedEntity(tag: DW_TAG_imported_declaration, scope: !284, entity: !598, file: !443, line: 231)
!598 = !DISubprogram(name: "strtof", scope: !438, file: !438, line: 124, type: !599, flags: DIFlagPrototyped, spFlags: 0)
!599 = !DISubroutineType(types: !600)
!600 = !{!227, !98, !549}
!601 = !DIImportedEntity(tag: DW_TAG_imported_declaration, scope: !284, entity: !602, file: !443, line: 232)
!602 = !DISubprogram(name: "strtold", scope: !438, file: !438, line: 127, type: !603, flags: DIFlagPrototyped, spFlags: 0)
!603 = !DISubroutineType(types: !604)
!604 = !{!288, !98, !549}
!605 = !DIImportedEntity(tag: DW_TAG_imported_declaration, scope: !19, entity: !570, file: !443, line: 240)
!606 = !DIImportedEntity(tag: DW_TAG_imported_declaration, scope: !19, entity: !576, file: !443, line: 242)
!607 = !DIImportedEntity(tag: DW_TAG_imported_declaration, scope: !19, entity: !578, file: !443, line: 244)
!608 = !DIImportedEntity(tag: DW_TAG_imported_declaration, scope: !19, entity: !609, file: !443, line: 245)
!609 = !DISubprogram(name: "div", linkageName: "_ZN9__gnu_cxx3divExx", scope: !284, file: !443, line: 213, type: !583, flags: DIFlagPrototyped, spFlags: 0)
!610 = !DIImportedEntity(tag: DW_TAG_imported_declaration, scope: !19, entity: !582, file: !443, line: 246)
!611 = !DIImportedEntity(tag: DW_TAG_imported_declaration, scope: !19, entity: !586, file: !443, line: 248)
!612 = !DIImportedEntity(tag: DW_TAG_imported_declaration, scope: !19, entity: !598, file: !443, line: 249)
!613 = !DIImportedEntity(tag: DW_TAG_imported_declaration, scope: !19, entity: !590, file: !443, line: 250)
!614 = !DIImportedEntity(tag: DW_TAG_imported_declaration, scope: !19, entity: !594, file: !443, line: 251)
!615 = !DIImportedEntity(tag: DW_TAG_imported_declaration, scope: !19, entity: !602, file: !443, line: 252)
!616 = !DIImportedEntity(tag: DW_TAG_imported_declaration, scope: !19, entity: !617, file: !619, line: 98)
!617 = !DIDerivedType(tag: DW_TAG_typedef, name: "FILE", file: !618, line: 7, baseType: !54)
!618 = !DIFile(filename: "/usr/include/x86_64-linux-gnu/bits/types/FILE.h", directory: "", checksumkind: CSK_MD5, checksum: "571f9fb6223c42439075fdde11a0de5d")
!619 = !DIFile(filename: "/usr/lib/gcc/x86_64-linux-gnu/11/../../../../include/c++/11/cstdio", directory: "")
!620 = !DIImportedEntity(tag: DW_TAG_imported_declaration, scope: !19, entity: !621, file: !619, line: 99)
!621 = !DIDerivedType(tag: DW_TAG_typedef, name: "fpos_t", file: !622, line: 84, baseType: !623)
!622 = !DIFile(filename: "/usr/include/stdio.h", directory: "", checksumkind: CSK_MD5, checksum: "f31eefcc3f15835fc5a4023a625cf609")
!623 = !DIDerivedType(tag: DW_TAG_typedef, name: "__fpos_t", file: !624, line: 14, baseType: !625)
!624 = !DIFile(filename: "/usr/include/x86_64-linux-gnu/bits/types/__fpos_t.h", directory: "", checksumkind: CSK_MD5, checksum: "32de8bdaf3551a6c0a9394f9af4389ce")
!625 = !DICompositeType(tag: DW_TAG_structure_type, name: "_G_fpos_t", file: !624, line: 10, size: 128, flags: DIFlagFwdDecl, identifier: "_ZTS9_G_fpos_t")
!626 = !DIImportedEntity(tag: DW_TAG_imported_declaration, scope: !19, entity: !627, file: !619, line: 101)
!627 = !DISubprogram(name: "clearerr", scope: !622, file: !622, line: 786, type: !628, flags: DIFlagPrototyped, spFlags: 0)
!628 = !DISubroutineType(types: !629)
!629 = !{null, !630}
!630 = !DIDerivedType(tag: DW_TAG_pointer_type, baseType: !617, size: 64)
!631 = !DIImportedEntity(tag: DW_TAG_imported_declaration, scope: !19, entity: !632, file: !619, line: 102)
!632 = !DISubprogram(name: "fclose", scope: !622, file: !622, line: 178, type: !633, flags: DIFlagPrototyped, spFlags: 0)
!633 = !DISubroutineType(types: !634)
!634 = !{!10, !630}
!635 = !DIImportedEntity(tag: DW_TAG_imported_declaration, scope: !19, entity: !636, file: !619, line: 103)
!636 = !DISubprogram(name: "feof", scope: !622, file: !622, line: 788, type: !633, flags: DIFlagPrototyped, spFlags: 0)
!637 = !DIImportedEntity(tag: DW_TAG_imported_declaration, scope: !19, entity: !638, file: !619, line: 104)
!638 = !DISubprogram(name: "ferror", scope: !622, file: !622, line: 790, type: !633, flags: DIFlagPrototyped, spFlags: 0)
!639 = !DIImportedEntity(tag: DW_TAG_imported_declaration, scope: !19, entity: !640, file: !619, line: 105)
!640 = !DISubprogram(name: "fflush", scope: !622, file: !622, line: 230, type: !633, flags: DIFlagPrototyped, spFlags: 0)
!641 = !DIImportedEntity(tag: DW_TAG_imported_declaration, scope: !19, entity: !642, file: !619, line: 106)
!642 = !DISubprogram(name: "fgetc", scope: !622, file: !622, line: 513, type: !633, flags: DIFlagPrototyped, spFlags: 0)
!643 = !DIImportedEntity(tag: DW_TAG_imported_declaration, scope: !19, entity: !644, file: !619, line: 107)
!644 = !DISubprogram(name: "fgetpos", scope: !622, file: !622, line: 760, type: !645, flags: DIFlagPrototyped, spFlags: 0)
!645 = !DISubroutineType(types: !646)
!646 = !{!10, !647, !648}
!647 = !DIDerivedType(tag: DW_TAG_restrict_type, baseType: !630)
!648 = !DIDerivedType(tag: DW_TAG_restrict_type, baseType: !649)
!649 = !DIDerivedType(tag: DW_TAG_pointer_type, baseType: !621, size: 64)
!650 = !DIImportedEntity(tag: DW_TAG_imported_declaration, scope: !19, entity: !651, file: !619, line: 108)
!651 = !DISubprogram(name: "fgets", scope: !622, file: !622, line: 592, type: !652, flags: DIFlagPrototyped, spFlags: 0)
!652 = !DISubroutineType(types: !653)
!653 = !{!13, !169, !10, !647}
!654 = !DIImportedEntity(tag: DW_TAG_imported_declaration, scope: !19, entity: !655, file: !619, line: 109)
!655 = !DISubprogram(name: "fopen", scope: !622, file: !622, line: 258, type: !656, flags: DIFlagPrototyped, spFlags: 0)
!656 = !DISubroutineType(types: !657)
!657 = !{!630, !98, !98}
!658 = !DIImportedEntity(tag: DW_TAG_imported_declaration, scope: !19, entity: !659, file: !619, line: 110)
!659 = !DISubprogram(name: "fprintf", scope: !622, file: !622, line: 350, type: !660, flags: DIFlagPrototyped, spFlags: 0)
!660 = !DISubroutineType(types: !661)
!661 = !{!10, !647, !98, null}
!662 = !DIImportedEntity(tag: DW_TAG_imported_declaration, scope: !19, entity: !663, file: !619, line: 111)
!663 = !DISubprogram(name: "fputc", scope: !622, file: !622, line: 549, type: !664, flags: DIFlagPrototyped, spFlags: 0)
!664 = !DISubroutineType(types: !665)
!665 = !{!10, !10, !630}
!666 = !DIImportedEntity(tag: DW_TAG_imported_declaration, scope: !19, entity: !667, file: !619, line: 112)
!667 = !DISubprogram(name: "fputs", scope: !622, file: !622, line: 655, type: !668, flags: DIFlagPrototyped, spFlags: 0)
!668 = !DISubroutineType(types: !669)
!669 = !{!10, !98, !647}
!670 = !DIImportedEntity(tag: DW_TAG_imported_declaration, scope: !19, entity: !671, file: !619, line: 113)
!671 = !DISubprogram(name: "fread", scope: !622, file: !622, line: 675, type: !672, flags: DIFlagPrototyped, spFlags: 0)
!672 = !DISubroutineType(types: !673)
!673 = !{!95, !674, !95, !95, !647}
!674 = !DIDerivedType(tag: DW_TAG_restrict_type, baseType: !147)
!675 = !DIImportedEntity(tag: DW_TAG_imported_declaration, scope: !19, entity: !676, file: !619, line: 114)
!676 = !DISubprogram(name: "freopen", scope: !622, file: !622, line: 265, type: !677, flags: DIFlagPrototyped, spFlags: 0)
!677 = !DISubroutineType(types: !678)
!678 = !{!630, !98, !98, !647}
!679 = !DIImportedEntity(tag: DW_TAG_imported_declaration, scope: !19, entity: !680, file: !619, line: 115)
!680 = !DISubprogram(name: "fscanf", linkageName: "__isoc99_fscanf", scope: !622, file: !622, line: 434, type: !660, flags: DIFlagPrototyped, spFlags: 0)
!681 = !DIImportedEntity(tag: DW_TAG_imported_declaration, scope: !19, entity: !682, file: !619, line: 116)
!682 = !DISubprogram(name: "fseek", scope: !622, file: !622, line: 713, type: !683, flags: DIFlagPrototyped, spFlags: 0)
!683 = !DISubroutineType(types: !684)
!684 = !{!10, !630, !236, !10}
!685 = !DIImportedEntity(tag: DW_TAG_imported_declaration, scope: !19, entity: !686, file: !619, line: 117)
!686 = !DISubprogram(name: "fsetpos", scope: !622, file: !622, line: 765, type: !687, flags: DIFlagPrototyped, spFlags: 0)
!687 = !DISubroutineType(types: !688)
!688 = !{!10, !630, !689}
!689 = !DIDerivedType(tag: DW_TAG_pointer_type, baseType: !690, size: 64)
!690 = !DIDerivedType(tag: DW_TAG_const_type, baseType: !621)
!691 = !DIImportedEntity(tag: DW_TAG_imported_declaration, scope: !19, entity: !692, file: !619, line: 118)
!692 = !DISubprogram(name: "ftell", scope: !622, file: !622, line: 718, type: !693, flags: DIFlagPrototyped, spFlags: 0)
!693 = !DISubroutineType(types: !694)
!694 = !{!236, !630}
!695 = !DIImportedEntity(tag: DW_TAG_imported_declaration, scope: !19, entity: !696, file: !619, line: 119)
!696 = !DISubprogram(name: "fwrite", scope: !622, file: !622, line: 681, type: !697, flags: DIFlagPrototyped, spFlags: 0)
!697 = !DISubroutineType(types: !698)
!698 = !{!95, !699, !95, !95, !647}
!699 = !DIDerivedType(tag: DW_TAG_restrict_type, baseType: !477)
!700 = !DIImportedEntity(tag: DW_TAG_imported_declaration, scope: !19, entity: !701, file: !619, line: 120)
!701 = !DISubprogram(name: "getc", scope: !622, file: !622, line: 514, type: !633, flags: DIFlagPrototyped, spFlags: 0)
!702 = !DIImportedEntity(tag: DW_TAG_imported_declaration, scope: !19, entity: !703, file: !619, line: 121)
!703 = !DISubprogram(name: "getchar", scope: !622, file: !622, line: 520, type: !535, flags: DIFlagPrototyped, spFlags: 0)
!704 = !DIImportedEntity(tag: DW_TAG_imported_declaration, scope: !19, entity: !705, file: !619, line: 124)
!705 = !DISubprogram(name: "gets", scope: !622, file: !622, line: 605, type: !706, flags: DIFlagPrototyped, spFlags: 0)
!706 = !DISubroutineType(types: !707)
!707 = !{!13, !13}
!708 = !DIImportedEntity(tag: DW_TAG_imported_declaration, scope: !19, entity: !709, file: !619, line: 126)
!709 = !DISubprogram(name: "perror", scope: !622, file: !622, line: 804, type: !710, flags: DIFlagPrototyped, spFlags: 0)
!710 = !DISubroutineType(types: !711)
!711 = !{null, !99}
!712 = !DIImportedEntity(tag: DW_TAG_imported_declaration, scope: !19, entity: !713, file: !619, line: 127)
!713 = !DISubprogram(name: "printf", scope: !622, file: !622, line: 356, type: !714, flags: DIFlagPrototyped, spFlags: 0)
!714 = !DISubroutineType(types: !715)
!715 = !{!10, !98, null}
!716 = !DIImportedEntity(tag: DW_TAG_imported_declaration, scope: !19, entity: !717, file: !619, line: 128)
!717 = !DISubprogram(name: "putc", scope: !622, file: !622, line: 550, type: !664, flags: DIFlagPrototyped, spFlags: 0)
!718 = !DIImportedEntity(tag: DW_TAG_imported_declaration, scope: !19, entity: !719, file: !619, line: 129)
!719 = !DISubprogram(name: "putchar", scope: !622, file: !622, line: 556, type: !407, flags: DIFlagPrototyped, spFlags: 0)
!720 = !DIImportedEntity(tag: DW_TAG_imported_declaration, scope: !19, entity: !721, file: !619, line: 130)
!721 = !DISubprogram(name: "puts", scope: !622, file: !622, line: 661, type: !467, flags: DIFlagPrototyped, spFlags: 0)
!722 = !DIImportedEntity(tag: DW_TAG_imported_declaration, scope: !19, entity: !723, file: !619, line: 131)
!723 = !DISubprogram(name: "remove", scope: !622, file: !622, line: 152, type: !467, flags: DIFlagPrototyped, spFlags: 0)
!724 = !DIImportedEntity(tag: DW_TAG_imported_declaration, scope: !19, entity: !725, file: !619, line: 132)
!725 = !DISubprogram(name: "rename", scope: !622, file: !622, line: 154, type: !726, flags: DIFlagPrototyped, spFlags: 0)
!726 = !DISubroutineType(types: !727)
!727 = !{!10, !99, !99}
!728 = !DIImportedEntity(tag: DW_TAG_imported_declaration, scope: !19, entity: !729, file: !619, line: 133)
!729 = !DISubprogram(name: "rewind", scope: !622, file: !622, line: 723, type: !628, flags: DIFlagPrototyped, spFlags: 0)
!730 = !DIImportedEntity(tag: DW_TAG_imported_declaration, scope: !19, entity: !731, file: !619, line: 134)
!731 = !DISubprogram(name: "scanf", linkageName: "__isoc99_scanf", scope: !622, file: !622, line: 437, type: !714, flags: DIFlagPrototyped, spFlags: 0)
!732 = !DIImportedEntity(tag: DW_TAG_imported_declaration, scope: !19, entity: !733, file: !619, line: 135)
!733 = !DISubprogram(name: "setbuf", scope: !622, file: !622, line: 328, type: !734, flags: DIFlagPrototyped, spFlags: 0)
!734 = !DISubroutineType(types: !735)
!735 = !{null, !647, !169}
!736 = !DIImportedEntity(tag: DW_TAG_imported_declaration, scope: !19, entity: !737, file: !619, line: 136)
!737 = !DISubprogram(name: "setvbuf", scope: !622, file: !622, line: 332, type: !738, flags: DIFlagPrototyped, spFlags: 0)
!738 = !DISubroutineType(types: !739)
!739 = !{!10, !647, !169, !10, !95}
!740 = !DIImportedEntity(tag: DW_TAG_imported_declaration, scope: !19, entity: !741, file: !619, line: 137)
!741 = !DISubprogram(name: "sprintf", scope: !622, file: !622, line: 358, type: !742, flags: DIFlagPrototyped, spFlags: 0)
!742 = !DISubroutineType(types: !743)
!743 = !{!10, !169, !98, null}
!744 = !DIImportedEntity(tag: DW_TAG_imported_declaration, scope: !19, entity: !745, file: !619, line: 138)
!745 = !DISubprogram(name: "sscanf", linkageName: "__isoc99_sscanf", scope: !622, file: !622, line: 439, type: !746, flags: DIFlagPrototyped, spFlags: 0)
!746 = !DISubroutineType(types: !747)
!747 = !{!10, !98, !98, null}
!748 = !DIImportedEntity(tag: DW_TAG_imported_declaration, scope: !19, entity: !749, file: !619, line: 139)
!749 = !DISubprogram(name: "tmpfile", scope: !622, file: !622, line: 188, type: !750, flags: DIFlagPrototyped, spFlags: 0)
!750 = !DISubroutineType(types: !751)
!751 = !{!630}
!752 = !DIImportedEntity(tag: DW_TAG_imported_declaration, scope: !19, entity: !753, file: !619, line: 141)
!753 = !DISubprogram(name: "tmpnam", scope: !622, file: !622, line: 205, type: !706, flags: DIFlagPrototyped, spFlags: 0)
!754 = !DIImportedEntity(tag: DW_TAG_imported_declaration, scope: !19, entity: !755, file: !619, line: 143)
!755 = !DISubprogram(name: "ungetc", scope: !622, file: !622, line: 668, type: !664, flags: DIFlagPrototyped, spFlags: 0)
!756 = !DIImportedEntity(tag: DW_TAG_imported_declaration, scope: !19, entity: !757, file: !619, line: 144)
!757 = !DISubprogram(name: "vfprintf", scope: !622, file: !622, line: 365, type: !758, flags: DIFlagPrototyped, spFlags: 0)
!758 = !DISubroutineType(types: !759)
!759 = !{!10, !647, !98, !140}
!760 = !DIImportedEntity(tag: DW_TAG_imported_declaration, scope: !19, entity: !761, file: !619, line: 145)
!761 = !DISubprogram(name: "vprintf", scope: !622, file: !622, line: 371, type: !762, flags: DIFlagPrototyped, spFlags: 0)
!762 = !DISubroutineType(types: !763)
!763 = !{!10, !98, !140}
!764 = !DIImportedEntity(tag: DW_TAG_imported_declaration, scope: !19, entity: !765, file: !619, line: 146)
!765 = !DISubprogram(name: "vsprintf", scope: !622, file: !622, line: 373, type: !766, flags: DIFlagPrototyped, spFlags: 0)
!766 = !DISubroutineType(types: !767)
!767 = !{!10, !169, !98, !140}
!768 = !DIImportedEntity(tag: DW_TAG_imported_declaration, scope: !284, entity: !769, file: !619, line: 175)
!769 = !DISubprogram(name: "snprintf", scope: !622, file: !622, line: 378, type: !770, flags: DIFlagPrototyped, spFlags: 0)
!770 = !DISubroutineType(types: !771)
!771 = !{!10, !169, !95, !98, null}
!772 = !DIImportedEntity(tag: DW_TAG_imported_declaration, scope: !284, entity: !773, file: !619, line: 176)
!773 = !DISubprogram(name: "vfscanf", linkageName: "__isoc99_vfscanf", scope: !622, file: !622, line: 479, type: !758, flags: DIFlagPrototyped, spFlags: 0)
!774 = !DIImportedEntity(tag: DW_TAG_imported_declaration, scope: !284, entity: !775, file: !619, line: 177)
!775 = !DISubprogram(name: "vscanf", linkageName: "__isoc99_vscanf", scope: !622, file: !622, line: 484, type: !762, flags: DIFlagPrototyped, spFlags: 0)
!776 = !DIImportedEntity(tag: DW_TAG_imported_declaration, scope: !284, entity: !777, file: !619, line: 178)
!777 = !DISubprogram(name: "vsnprintf", scope: !622, file: !622, line: 382, type: !778, flags: DIFlagPrototyped, spFlags: 0)
!778 = !DISubroutineType(types: !779)
!779 = !{!10, !169, !95, !98, !140}
!780 = !DIImportedEntity(tag: DW_TAG_imported_declaration, scope: !284, entity: !781, file: !619, line: 179)
!781 = !DISubprogram(name: "vsscanf", linkageName: "__isoc99_vsscanf", scope: !622, file: !622, line: 487, type: !782, flags: DIFlagPrototyped, spFlags: 0)
!782 = !DISubroutineType(types: !783)
!783 = !{!10, !98, !98, !140}
!784 = !DIImportedEntity(tag: DW_TAG_imported_declaration, scope: !19, entity: !769, file: !619, line: 185)
!785 = !DIImportedEntity(tag: DW_TAG_imported_declaration, scope: !19, entity: !773, file: !619, line: 186)
!786 = !DIImportedEntity(tag: DW_TAG_imported_declaration, scope: !19, entity: !775, file: !619, line: 187)
!787 = !DIImportedEntity(tag: DW_TAG_imported_declaration, scope: !19, entity: !777, file: !619, line: 188)
!788 = !DIImportedEntity(tag: DW_TAG_imported_declaration, scope: !19, entity: !781, file: !619, line: 189)
!789 = !DIImportedEntity(tag: DW_TAG_imported_declaration, scope: !8, entity: !451, file: !790, line: 38)
!790 = !DIFile(filename: "/usr/lib/gcc/x86_64-linux-gnu/11/../../../../include/c++/11/stdlib.h", directory: "", checksumkind: CSK_MD5, checksum: "0f5b773a303c24013fb112082e6d18a5")
!791 = !DIImportedEntity(tag: DW_TAG_imported_declaration, scope: !8, entity: !455, file: !790, line: 39)
!792 = !DIImportedEntity(tag: DW_TAG_imported_declaration, scope: !8, entity: !492, file: !790, line: 40)
!793 = !DIImportedEntity(tag: DW_TAG_imported_declaration, scope: !8, entity: !460, file: !790, line: 43)
!794 = !DIImportedEntity(tag: DW_TAG_imported_declaration, scope: !8, entity: !532, file: !790, line: 46)
!795 = !DIImportedEntity(tag: DW_TAG_imported_declaration, scope: !8, entity: !441, file: !790, line: 51)
!796 = !DIImportedEntity(tag: DW_TAG_imported_declaration, scope: !8, entity: !445, file: !790, line: 52)
!797 = !DIImportedEntity(tag: DW_TAG_imported_declaration, scope: !8, entity: !798, file: !790, line: 54)
!798 = !DISubprogram(name: "abs", linkageName: "_ZSt3abse", scope: !19, file: !439, line: 79, type: !799, flags: DIFlagPrototyped, spFlags: 0)
!799 = !DISubroutineType(types: !800)
!800 = !{!288, !288}
!801 = !DIImportedEntity(tag: DW_TAG_imported_declaration, scope: !8, entity: !462, file: !790, line: 55)
!802 = !DIImportedEntity(tag: DW_TAG_imported_declaration, scope: !8, entity: !466, file: !790, line: 56)
!803 = !DIImportedEntity(tag: DW_TAG_imported_declaration, scope: !8, entity: !470, file: !790, line: 57)
!804 = !DIImportedEntity(tag: DW_TAG_imported_declaration, scope: !8, entity: !474, file: !790, line: 58)
!805 = !DIImportedEntity(tag: DW_TAG_imported_declaration, scope: !8, entity: !484, file: !790, line: 59)
!806 = !DIImportedEntity(tag: DW_TAG_imported_declaration, scope: !8, entity: !609, file: !790, line: 60)
!807 = !DIImportedEntity(tag: DW_TAG_imported_declaration, scope: !8, entity: !496, file: !790, line: 61)
!808 = !DIImportedEntity(tag: DW_TAG_imported_declaration, scope: !8, entity: !500, file: !790, line: 62)
!809 = !DIImportedEntity(tag: DW_TAG_imported_declaration, scope: !8, entity: !504, file: !790, line: 63)
!810 = !DIImportedEntity(tag: DW_TAG_imported_declaration, scope: !8, entity: !508, file: !790, line: 64)
!811 = !DIImportedEntity(tag: DW_TAG_imported_declaration, scope: !8, entity: !512, file: !790, line: 65)
!812 = !DIImportedEntity(tag: DW_TAG_imported_declaration, scope: !8, entity: !516, file: !790, line: 67)
!813 = !DIImportedEntity(tag: DW_TAG_imported_declaration, scope: !8, entity: !520, file: !790, line: 68)
!814 = !DIImportedEntity(tag: DW_TAG_imported_declaration, scope: !8, entity: !524, file: !790, line: 69)
!815 = !DIImportedEntity(tag: DW_TAG_imported_declaration, scope: !8, entity: !528, file: !790, line: 71)
!816 = !DIImportedEntity(tag: DW_TAG_imported_declaration, scope: !8, entity: !534, file: !790, line: 72)
!817 = !DIImportedEntity(tag: DW_TAG_imported_declaration, scope: !8, entity: !538, file: !790, line: 73)
!818 = !DIImportedEntity(tag: DW_TAG_imported_declaration, scope: !8, entity: !542, file: !790, line: 74)
!819 = !DIImportedEntity(tag: DW_TAG_imported_declaration, scope: !8, entity: !546, file: !790, line: 75)
!820 = !DIImportedEntity(tag: DW_TAG_imported_declaration, scope: !8, entity: !552, file: !790, line: 76)
!821 = !DIImportedEntity(tag: DW_TAG_imported_declaration, scope: !8, entity: !556, file: !790, line: 77)
!822 = !DIImportedEntity(tag: DW_TAG_imported_declaration, scope: !8, entity: !560, file: !790, line: 78)
!823 = !DIImportedEntity(tag: DW_TAG_imported_declaration, scope: !8, entity: !562, file: !790, line: 80)
!824 = !DIImportedEntity(tag: DW_TAG_imported_declaration, scope: !8, entity: !566, file: !790, line: 81)
!825 = !DIImportedEntity(tag: DW_TAG_imported_declaration, scope: !19, entity: !826, file: !830, line: 77)
!826 = !DISubprogram(name: "memchr", scope: !827, file: !827, line: 89, type: !828, flags: DIFlagPrototyped, spFlags: 0)
!827 = !DIFile(filename: "/usr/include/string.h", directory: "", checksumkind: CSK_MD5, checksum: "f443da8025a0b7c1498fb6c554ec788d")
!828 = !DISubroutineType(types: !829)
!829 = !{!477, !477, !10, !95}
!830 = !DIFile(filename: "/usr/lib/gcc/x86_64-linux-gnu/11/../../../../include/c++/11/cstring", directory: "")
!831 = !DIImportedEntity(tag: DW_TAG_imported_declaration, scope: !19, entity: !832, file: !830, line: 78)
!832 = !DISubprogram(name: "memcmp", scope: !827, file: !827, line: 64, type: !833, flags: DIFlagPrototyped, spFlags: 0)
!833 = !DISubroutineType(types: !834)
!834 = !{!10, !477, !477, !95}
!835 = !DIImportedEntity(tag: DW_TAG_imported_declaration, scope: !19, entity: !836, file: !830, line: 79)
!836 = !DISubprogram(name: "memcpy", scope: !827, file: !827, line: 43, type: !837, flags: DIFlagPrototyped, spFlags: 0)
!837 = !DISubroutineType(types: !838)
!838 = !{!147, !674, !699, !95}
!839 = !DIImportedEntity(tag: DW_TAG_imported_declaration, scope: !19, entity: !840, file: !830, line: 80)
!840 = !DISubprogram(name: "memmove", scope: !827, file: !827, line: 47, type: !841, flags: DIFlagPrototyped, spFlags: 0)
!841 = !DISubroutineType(types: !842)
!842 = !{!147, !147, !477, !95}
!843 = !DIImportedEntity(tag: DW_TAG_imported_declaration, scope: !19, entity: !844, file: !830, line: 81)
!844 = !DISubprogram(name: "memset", scope: !827, file: !827, line: 61, type: !845, flags: DIFlagPrototyped, spFlags: 0)
!845 = !DISubroutineType(types: !846)
!846 = !{!147, !147, !10, !95}
!847 = !DIImportedEntity(tag: DW_TAG_imported_declaration, scope: !19, entity: !848, file: !830, line: 82)
!848 = !DISubprogram(name: "strcat", scope: !827, file: !827, line: 149, type: !849, flags: DIFlagPrototyped, spFlags: 0)
!849 = !DISubroutineType(types: !850)
!850 = !{!13, !169, !98}
!851 = !DIImportedEntity(tag: DW_TAG_imported_declaration, scope: !19, entity: !852, file: !830, line: 83)
!852 = !DISubprogram(name: "strcmp", scope: !827, file: !827, line: 156, type: !726, flags: DIFlagPrototyped, spFlags: 0)
!853 = !DIImportedEntity(tag: DW_TAG_imported_declaration, scope: !19, entity: !854, file: !830, line: 84)
!854 = !DISubprogram(name: "strcoll", scope: !827, file: !827, line: 163, type: !726, flags: DIFlagPrototyped, spFlags: 0)
!855 = !DIImportedEntity(tag: DW_TAG_imported_declaration, scope: !19, entity: !856, file: !830, line: 85)
!856 = !DISubprogram(name: "strcpy", scope: !827, file: !827, line: 141, type: !849, flags: DIFlagPrototyped, spFlags: 0)
!857 = !DIImportedEntity(tag: DW_TAG_imported_declaration, scope: !19, entity: !858, file: !830, line: 86)
!858 = !DISubprogram(name: "strcspn", scope: !827, file: !827, line: 293, type: !859, flags: DIFlagPrototyped, spFlags: 0)
!859 = !DISubroutineType(types: !860)
!860 = !{!95, !99, !99}
!861 = !DIImportedEntity(tag: DW_TAG_imported_declaration, scope: !19, entity: !862, file: !830, line: 87)
!862 = !DISubprogram(name: "strerror", scope: !827, file: !827, line: 419, type: !863, flags: DIFlagPrototyped, spFlags: 0)
!863 = !DISubroutineType(types: !864)
!864 = !{!13, !10}
!865 = !DIImportedEntity(tag: DW_TAG_imported_declaration, scope: !19, entity: !866, file: !830, line: 88)
!866 = !DISubprogram(name: "strlen", scope: !827, file: !827, line: 407, type: !867, flags: DIFlagPrototyped, spFlags: 0)
!867 = !DISubroutineType(types: !868)
!868 = !{!95, !99}
!869 = !DIImportedEntity(tag: DW_TAG_imported_declaration, scope: !19, entity: !870, file: !830, line: 89)
!870 = !DISubprogram(name: "strncat", scope: !827, file: !827, line: 152, type: !871, flags: DIFlagPrototyped, spFlags: 0)
!871 = !DISubroutineType(types: !872)
!872 = !{!13, !169, !98, !95}
!873 = !DIImportedEntity(tag: DW_TAG_imported_declaration, scope: !19, entity: !874, file: !830, line: 90)
!874 = !DISubprogram(name: "strncmp", scope: !827, file: !827, line: 159, type: !875, flags: DIFlagPrototyped, spFlags: 0)
!875 = !DISubroutineType(types: !876)
!876 = !{!10, !99, !99, !95}
!877 = !DIImportedEntity(tag: DW_TAG_imported_declaration, scope: !19, entity: !878, file: !830, line: 91)
!878 = !DISubprogram(name: "strncpy", scope: !827, file: !827, line: 144, type: !871, flags: DIFlagPrototyped, spFlags: 0)
!879 = !DIImportedEntity(tag: DW_TAG_imported_declaration, scope: !19, entity: !880, file: !830, line: 92)
!880 = !DISubprogram(name: "strspn", scope: !827, file: !827, line: 297, type: !859, flags: DIFlagPrototyped, spFlags: 0)
!881 = !DIImportedEntity(tag: DW_TAG_imported_declaration, scope: !19, entity: !882, file: !830, line: 93)
!882 = !DISubprogram(name: "strtok", scope: !827, file: !827, line: 356, type: !849, flags: DIFlagPrototyped, spFlags: 0)
!883 = !DIImportedEntity(tag: DW_TAG_imported_declaration, scope: !19, entity: !884, file: !830, line: 94)
!884 = !DISubprogram(name: "strxfrm", scope: !827, file: !827, line: 166, type: !885, flags: DIFlagPrototyped, spFlags: 0)
!885 = !DISubroutineType(types: !886)
!886 = !{!95, !169, !98, !95}
!887 = !DIImportedEntity(tag: DW_TAG_imported_declaration, scope: !19, entity: !888, file: !830, line: 95)
!888 = !DISubprogram(name: "strchr", scope: !827, file: !827, line: 228, type: !889, flags: DIFlagPrototyped, spFlags: 0)
!889 = !DISubroutineType(types: !890)
!890 = !{!99, !99, !10}
!891 = !DIImportedEntity(tag: DW_TAG_imported_declaration, scope: !19, entity: !892, file: !830, line: 96)
!892 = !DISubprogram(name: "strpbrk", scope: !827, file: !827, line: 305, type: !893, flags: DIFlagPrototyped, spFlags: 0)
!893 = !DISubroutineType(types: !894)
!894 = !{!99, !99, !99}
!895 = !DIImportedEntity(tag: DW_TAG_imported_declaration, scope: !19, entity: !896, file: !830, line: 97)
!896 = !DISubprogram(name: "strrchr", scope: !827, file: !827, line: 255, type: !889, flags: DIFlagPrototyped, spFlags: 0)
!897 = !DIImportedEntity(tag: DW_TAG_imported_declaration, scope: !19, entity: !898, file: !830, line: 98)
!898 = !DISubprogram(name: "strstr", scope: !827, file: !827, line: 332, type: !893, flags: DIFlagPrototyped, spFlags: 0)
!899 = !{i32 7, !"Dwarf Version", i32 5}
!900 = !{i32 2, !"Debug Info Version", i32 3}
!901 = !{i32 1, !"wchar_size", i32 4}
!902 = !{i32 8, !"PIC Level", i32 2}
!903 = !{i32 7, !"PIE Level", i32 2}
!904 = !{i32 7, !"uwtable", i32 2}
!905 = !{i32 7, !"frame-pointer", i32 2}
!906 = !{!"clang version 16.0.0"}
!907 = distinct !DISubprogram(name: "isLittleEndian", linkageName: "_Z14isLittleEndianv", scope: !2, file: !2, line: 24, type: !908, scopeLine: 24, flags: DIFlagPrototyped, spFlags: DISPFlagDefinition, unit: !8, retainedNodes: !911)
!908 = !DISubroutineType(types: !909)
!909 = !{!910}
!910 = !DIBasicType(name: "bool", size: 8, encoding: DW_ATE_boolean)
!911 = !{}
!912 = !DILocalVariable(name: "endian_test", scope: !907, file: !2, line: 28, type: !913)
!913 = distinct !DICompositeType(tag: DW_TAG_union_type, scope: !907, file: !2, line: 25, size: 16, flags: DIFlagTypePassByValue, elements: !914)
!914 = !{!915, !918}
!915 = !DIDerivedType(tag: DW_TAG_member, name: "word", scope: !913, file: !2, line: 26, baseType: !916, size: 16)
!916 = !DIDerivedType(tag: DW_TAG_typedef, name: "WORD", file: !917, line: 61, baseType: !359)
!917 = !DIFile(filename: "../FlexImageLib/FlexIO.h", directory: "/home/raj/SVF_PAPER_BENCHMARKS/parsec-3.0/pkgs/apps/bodytrack/src/build", checksumkind: CSK_MD5, checksum: "9b8cc79d25a1930e65ad6997c8f78280")
!918 = !DIDerivedType(tag: DW_TAG_member, name: "byte", scope: !913, file: !2, line: 27, baseType: !919, size: 8)
!919 = !DIDerivedType(tag: DW_TAG_typedef, name: "BYTE", file: !917, line: 60, baseType: !12)
!920 = !DILocation(line: 28, column: 5, scope: !907)
!921 = !DILocation(line: 30, column: 20, scope: !907)
!922 = !DILocation(line: 31, column: 23, scope: !907)
!923 = !DILocation(line: 31, column: 11, scope: !907)
!924 = !DILocation(line: 31, column: 28, scope: !907)
!925 = !DILocation(line: 31, column: 3, scope: !907)
!926 = distinct !DISubprogram(name: "swap_16", linkageName: "_Z7swap_16t", scope: !2, file: !2, line: 35, type: !927, scopeLine: 35, flags: DIFlagPrototyped, spFlags: DISPFlagDefinition, unit: !8, retainedNodes: !911)
!927 = !DISubroutineType(types: !928)
!928 = !{!916, !916}
!929 = !DILocalVariable(name: "x", arg: 1, scope: !926, file: !2, line: 35, type: !916)
!930 = !DILocation(line: 35, column: 19, scope: !926)
!931 = !DILocalVariable(name: "mem_array", scope: !926, file: !2, line: 39, type: !932)
!932 = distinct !DICompositeType(tag: DW_TAG_union_type, scope: !926, file: !2, line: 36, size: 16, flags: DIFlagTypePassByValue, elements: !933)
!933 = !{!934, !935}
!934 = !DIDerivedType(tag: DW_TAG_member, name: "x_16", scope: !932, file: !2, line: 37, baseType: !916, size: 16)
!935 = !DIDerivedType(tag: DW_TAG_member, name: "x_8", scope: !932, file: !2, line: 38, baseType: !936, size: 16)
!936 = !DICompositeType(tag: DW_TAG_array_type, baseType: !919, size: 16, elements: !937)
!937 = !{!938}
!938 = !DISubrange(count: 2)
!939 = !DILocation(line: 39, column: 5, scope: !926)
!940 = !DILocalVariable(name: "temp", scope: !926, file: !2, line: 40, type: !919)
!941 = !DILocation(line: 40, column: 8, scope: !926)
!942 = !DILocation(line: 42, column: 20, scope: !926)
!943 = !DILocation(line: 42, column: 18, scope: !926)
!944 = !DILocation(line: 43, column: 10, scope: !926)
!945 = !DILocation(line: 43, column: 8, scope: !926)
!946 = !DILocation(line: 44, column: 22, scope: !926)
!947 = !DILocation(line: 44, column: 3, scope: !926)
!948 = !DILocation(line: 44, column: 20, scope: !926)
!949 = !DILocation(line: 45, column: 22, scope: !926)
!950 = !DILocation(line: 45, column: 3, scope: !926)
!951 = !DILocation(line: 45, column: 20, scope: !926)
!952 = !DILocation(line: 47, column: 20, scope: !926)
!953 = !DILocation(line: 47, column: 3, scope: !926)
!954 = distinct !DISubprogram(name: "swap_32", linkageName: "_Z7swap_32m", scope: !2, file: !2, line: 51, type: !955, scopeLine: 51, flags: DIFlagPrototyped, spFlags: DISPFlagDefinition, unit: !8, retainedNodes: !911)
!955 = !DISubroutineType(types: !956)
!956 = !{!957, !957}
!957 = !DIDerivedType(tag: DW_TAG_typedef, name: "DWORD", file: !917, line: 62, baseType: !97)
!958 = !DILocalVariable(name: "x", arg: 1, scope: !954, file: !2, line: 51, type: !957)
!959 = !DILocation(line: 51, column: 21, scope: !954)
!960 = !DILocalVariable(name: "mem_array", scope: !954, file: !2, line: 56, type: !961)
!961 = distinct !DICompositeType(tag: DW_TAG_union_type, scope: !954, file: !2, line: 52, size: 64, flags: DIFlagTypePassByValue, elements: !962)
!962 = !{!963, !964, !966}
!963 = !DIDerivedType(tag: DW_TAG_member, name: "x_32", scope: !961, file: !2, line: 53, baseType: !957, size: 64)
!964 = !DIDerivedType(tag: DW_TAG_member, name: "x_16", scope: !961, file: !2, line: 54, baseType: !965, size: 32)
!965 = !DICompositeType(tag: DW_TAG_array_type, baseType: !916, size: 32, elements: !937)
!966 = !DIDerivedType(tag: DW_TAG_member, name: "x_8", scope: !961, file: !2, line: 55, baseType: !967, size: 32)
!967 = !DICompositeType(tag: DW_TAG_array_type, baseType: !919, size: 32, elements: !36)
!968 = !DILocation(line: 56, column: 5, scope: !954)
!969 = !DILocalVariable(name: "temp", scope: !954, file: !2, line: 57, type: !919)
!970 = !DILocation(line: 57, column: 8, scope: !954)
!971 = !DILocation(line: 59, column: 20, scope: !954)
!972 = !DILocation(line: 59, column: 18, scope: !954)
!973 = !DILocation(line: 61, column: 10, scope: !954)
!974 = !DILocation(line: 61, column: 8, scope: !954)
!975 = !DILocation(line: 62, column: 22, scope: !954)
!976 = !DILocation(line: 62, column: 3, scope: !954)
!977 = !DILocation(line: 62, column: 20, scope: !954)
!978 = !DILocation(line: 63, column: 22, scope: !954)
!979 = !DILocation(line: 63, column: 3, scope: !954)
!980 = !DILocation(line: 63, column: 20, scope: !954)
!981 = !DILocation(line: 65, column: 10, scope: !954)
!982 = !DILocation(line: 65, column: 8, scope: !954)
!983 = !DILocation(line: 66, column: 22, scope: !954)
!984 = !DILocation(line: 66, column: 3, scope: !954)
!985 = !DILocation(line: 66, column: 20, scope: !954)
!986 = !DILocation(line: 67, column: 22, scope: !954)
!987 = !DILocation(line: 67, column: 3, scope: !954)
!988 = !DILocation(line: 67, column: 20, scope: !954)
!989 = !DILocation(line: 69, column: 20, scope: !954)
!990 = !DILocation(line: 69, column: 3, scope: !954)
!991 = distinct !DISubprogram(name: "ConvertBmfh", linkageName: "_Z11ConvertBmfhP16tagBITMAPFILEHDR", scope: !2, file: !2, line: 73, type: !992, scopeLine: 73, flags: DIFlagPrototyped, spFlags: DISPFlagDefinition, unit: !8, retainedNodes: !911)
!992 = !DISubroutineType(types: !993)
!993 = !{null, !994}
!994 = !DIDerivedType(tag: DW_TAG_pointer_type, baseType: !995, size: 64)
!995 = !DIDerivedType(tag: DW_TAG_typedef, name: "BITMAPFILEHDR", file: !917, line: 79, baseType: !996)
!996 = distinct !DICompositeType(tag: DW_TAG_structure_type, name: "tagBITMAPFILEHDR", file: !917, line: 73, size: 256, flags: DIFlagTypePassByValue, elements: !997, identifier: "_ZTS16tagBITMAPFILEHDR")
!997 = !{!998, !999, !1000, !1001, !1002}
!998 = !DIDerivedType(tag: DW_TAG_member, name: "bfType", scope: !996, file: !917, line: 74, baseType: !916, size: 16)
!999 = !DIDerivedType(tag: DW_TAG_member, name: "bfSize", scope: !996, file: !917, line: 75, baseType: !957, size: 64, offset: 64)
!1000 = !DIDerivedType(tag: DW_TAG_member, name: "bfReserved1", scope: !996, file: !917, line: 76, baseType: !916, size: 16, offset: 128)
!1001 = !DIDerivedType(tag: DW_TAG_member, name: "bfReserved2", scope: !996, file: !917, line: 77, baseType: !916, size: 16, offset: 144)
!1002 = !DIDerivedType(tag: DW_TAG_member, name: "bfOffBits", scope: !996, file: !917, line: 78, baseType: !957, size: 64, offset: 192)
!1003 = !DILocalVariable(name: "bmfh", arg: 1, scope: !991, file: !2, line: 73, type: !994)
!1004 = !DILocation(line: 73, column: 33, scope: !991)
!1005 = !DILocation(line: 74, column: 7, scope: !1006)
!1006 = distinct !DILexicalBlock(scope: !991, file: !2, line: 74, column: 6)
!1007 = !DILocation(line: 74, column: 6, scope: !991)
!1008 = !DILocation(line: 75, column: 28, scope: !1009)
!1009 = distinct !DILexicalBlock(scope: !1006, file: !2, line: 74, column: 25)
!1010 = !DILocation(line: 75, column: 34, scope: !1009)
!1011 = !DILocation(line: 75, column: 20, scope: !1009)
!1012 = !DILocation(line: 75, column: 5, scope: !1009)
!1013 = !DILocation(line: 75, column: 11, scope: !1009)
!1014 = !DILocation(line: 75, column: 18, scope: !1009)
!1015 = !DILocation(line: 76, column: 28, scope: !1009)
!1016 = !DILocation(line: 76, column: 34, scope: !1009)
!1017 = !DILocation(line: 76, column: 20, scope: !1009)
!1018 = !DILocation(line: 76, column: 5, scope: !1009)
!1019 = !DILocation(line: 76, column: 11, scope: !1009)
!1020 = !DILocation(line: 76, column: 18, scope: !1009)
!1021 = !DILocation(line: 77, column: 33, scope: !1009)
!1022 = !DILocation(line: 77, column: 39, scope: !1009)
!1023 = !DILocation(line: 77, column: 25, scope: !1009)
!1024 = !DILocation(line: 77, column: 5, scope: !1009)
!1025 = !DILocation(line: 77, column: 11, scope: !1009)
!1026 = !DILocation(line: 77, column: 23, scope: !1009)
!1027 = !DILocation(line: 78, column: 33, scope: !1009)
!1028 = !DILocation(line: 78, column: 39, scope: !1009)
!1029 = !DILocation(line: 78, column: 25, scope: !1009)
!1030 = !DILocation(line: 78, column: 5, scope: !1009)
!1031 = !DILocation(line: 78, column: 11, scope: !1009)
!1032 = !DILocation(line: 78, column: 23, scope: !1009)
!1033 = !DILocation(line: 79, column: 31, scope: !1009)
!1034 = !DILocation(line: 79, column: 37, scope: !1009)
!1035 = !DILocation(line: 79, column: 23, scope: !1009)
!1036 = !DILocation(line: 79, column: 5, scope: !1009)
!1037 = !DILocation(line: 79, column: 11, scope: !1009)
!1038 = !DILocation(line: 79, column: 21, scope: !1009)
!1039 = !DILocation(line: 80, column: 3, scope: !1009)
!1040 = !DILocation(line: 81, column: 1, scope: !991)
!1041 = distinct !DISubprogram(name: "ConvertBmih", linkageName: "_Z11ConvertBmihP16tagBITMAPINFOHDR", scope: !2, file: !2, line: 84, type: !1042, scopeLine: 84, flags: DIFlagPrototyped, spFlags: DISPFlagDefinition, unit: !8, retainedNodes: !911)
!1042 = !DISubroutineType(types: !1043)
!1043 = !{null, !1044}
!1044 = !DIDerivedType(tag: DW_TAG_pointer_type, baseType: !1045, size: 64)
!1045 = !DIDerivedType(tag: DW_TAG_typedef, name: "BITMAPINFOHDR", file: !917, line: 93, baseType: !1046)
!1046 = distinct !DICompositeType(tag: DW_TAG_structure_type, name: "tagBITMAPINFOHDR", file: !917, line: 81, size: 640, flags: DIFlagTypePassByValue, elements: !1047, identifier: "_ZTS16tagBITMAPINFOHDR")
!1047 = !{!1048, !1049, !1051, !1052, !1053, !1054, !1055, !1056, !1057, !1058, !1059}
!1048 = !DIDerivedType(tag: DW_TAG_member, name: "biSize", scope: !1046, file: !917, line: 82, baseType: !957, size: 64)
!1049 = !DIDerivedType(tag: DW_TAG_member, name: "biWidth", scope: !1046, file: !917, line: 83, baseType: !1050, size: 64, offset: 64)
!1050 = !DIDerivedType(tag: DW_TAG_typedef, name: "LONG", file: !917, line: 63, baseType: !236)
!1051 = !DIDerivedType(tag: DW_TAG_member, name: "biHeight", scope: !1046, file: !917, line: 84, baseType: !1050, size: 64, offset: 128)
!1052 = !DIDerivedType(tag: DW_TAG_member, name: "biPlanes", scope: !1046, file: !917, line: 85, baseType: !916, size: 16, offset: 192)
!1053 = !DIDerivedType(tag: DW_TAG_member, name: "biBitCount", scope: !1046, file: !917, line: 86, baseType: !916, size: 16, offset: 208)
!1054 = !DIDerivedType(tag: DW_TAG_member, name: "biCompression", scope: !1046, file: !917, line: 87, baseType: !957, size: 64, offset: 256)
!1055 = !DIDerivedType(tag: DW_TAG_member, name: "biSizeImage", scope: !1046, file: !917, line: 88, baseType: !957, size: 64, offset: 320)
!1056 = !DIDerivedType(tag: DW_TAG_member, name: "biXPelsPerMeter", scope: !1046, file: !917, line: 89, baseType: !1050, size: 64, offset: 384)
!1057 = !DIDerivedType(tag: DW_TAG_member, name: "biYPelsPerMeter", scope: !1046, file: !917, line: 90, baseType: !1050, size: 64, offset: 448)
!1058 = !DIDerivedType(tag: DW_TAG_member, name: "biClrUsed", scope: !1046, file: !917, line: 91, baseType: !957, size: 64, offset: 512)
!1059 = !DIDerivedType(tag: DW_TAG_member, name: "biClrImportant", scope: !1046, file: !917, line: 92, baseType: !957, size: 64, offset: 576)
!1060 = !DILocalVariable(name: "bmih", arg: 1, scope: !1041, file: !2, line: 84, type: !1044)
!1061 = !DILocation(line: 84, column: 33, scope: !1041)
!1062 = !DILocation(line: 85, column: 7, scope: !1063)
!1063 = distinct !DILexicalBlock(scope: !1041, file: !2, line: 85, column: 6)
!1064 = !DILocation(line: 85, column: 6, scope: !1041)
!1065 = !DILocation(line: 86, column: 28, scope: !1066)
!1066 = distinct !DILexicalBlock(scope: !1063, file: !2, line: 85, column: 25)
!1067 = !DILocation(line: 86, column: 34, scope: !1066)
!1068 = !DILocation(line: 86, column: 20, scope: !1066)
!1069 = !DILocation(line: 86, column: 5, scope: !1066)
!1070 = !DILocation(line: 86, column: 11, scope: !1066)
!1071 = !DILocation(line: 86, column: 18, scope: !1066)
!1072 = !DILocation(line: 87, column: 29, scope: !1066)
!1073 = !DILocation(line: 87, column: 35, scope: !1066)
!1074 = !DILocation(line: 87, column: 21, scope: !1066)
!1075 = !DILocation(line: 87, column: 5, scope: !1066)
!1076 = !DILocation(line: 87, column: 11, scope: !1066)
!1077 = !DILocation(line: 87, column: 19, scope: !1066)
!1078 = !DILocation(line: 88, column: 30, scope: !1066)
!1079 = !DILocation(line: 88, column: 36, scope: !1066)
!1080 = !DILocation(line: 88, column: 22, scope: !1066)
!1081 = !DILocation(line: 88, column: 5, scope: !1066)
!1082 = !DILocation(line: 88, column: 11, scope: !1066)
!1083 = !DILocation(line: 88, column: 20, scope: !1066)
!1084 = !DILocation(line: 89, column: 30, scope: !1066)
!1085 = !DILocation(line: 89, column: 36, scope: !1066)
!1086 = !DILocation(line: 89, column: 22, scope: !1066)
!1087 = !DILocation(line: 89, column: 5, scope: !1066)
!1088 = !DILocation(line: 89, column: 11, scope: !1066)
!1089 = !DILocation(line: 89, column: 20, scope: !1066)
!1090 = !DILocation(line: 90, column: 32, scope: !1066)
!1091 = !DILocation(line: 90, column: 38, scope: !1066)
!1092 = !DILocation(line: 90, column: 24, scope: !1066)
!1093 = !DILocation(line: 90, column: 5, scope: !1066)
!1094 = !DILocation(line: 90, column: 11, scope: !1066)
!1095 = !DILocation(line: 90, column: 22, scope: !1066)
!1096 = !DILocation(line: 91, column: 35, scope: !1066)
!1097 = !DILocation(line: 91, column: 41, scope: !1066)
!1098 = !DILocation(line: 91, column: 27, scope: !1066)
!1099 = !DILocation(line: 91, column: 5, scope: !1066)
!1100 = !DILocation(line: 91, column: 11, scope: !1066)
!1101 = !DILocation(line: 91, column: 25, scope: !1066)
!1102 = !DILocation(line: 92, column: 33, scope: !1066)
!1103 = !DILocation(line: 92, column: 39, scope: !1066)
!1104 = !DILocation(line: 92, column: 25, scope: !1066)
!1105 = !DILocation(line: 92, column: 5, scope: !1066)
!1106 = !DILocation(line: 92, column: 11, scope: !1066)
!1107 = !DILocation(line: 92, column: 23, scope: !1066)
!1108 = !DILocation(line: 93, column: 37, scope: !1066)
!1109 = !DILocation(line: 93, column: 43, scope: !1066)
!1110 = !DILocation(line: 93, column: 29, scope: !1066)
!1111 = !DILocation(line: 93, column: 5, scope: !1066)
!1112 = !DILocation(line: 93, column: 11, scope: !1066)
!1113 = !DILocation(line: 93, column: 27, scope: !1066)
!1114 = !DILocation(line: 94, column: 37, scope: !1066)
!1115 = !DILocation(line: 94, column: 43, scope: !1066)
!1116 = !DILocation(line: 94, column: 29, scope: !1066)
!1117 = !DILocation(line: 94, column: 5, scope: !1066)
!1118 = !DILocation(line: 94, column: 11, scope: !1066)
!1119 = !DILocation(line: 94, column: 27, scope: !1066)
!1120 = !DILocation(line: 95, column: 31, scope: !1066)
!1121 = !DILocation(line: 95, column: 37, scope: !1066)
!1122 = !DILocation(line: 95, column: 23, scope: !1066)
!1123 = !DILocation(line: 95, column: 5, scope: !1066)
!1124 = !DILocation(line: 95, column: 11, scope: !1066)
!1125 = !DILocation(line: 95, column: 21, scope: !1066)
!1126 = !DILocation(line: 96, column: 36, scope: !1066)
!1127 = !DILocation(line: 96, column: 42, scope: !1066)
!1128 = !DILocation(line: 96, column: 28, scope: !1066)
!1129 = !DILocation(line: 96, column: 5, scope: !1066)
!1130 = !DILocation(line: 96, column: 11, scope: !1066)
!1131 = !DILocation(line: 96, column: 26, scope: !1066)
!1132 = !DILocation(line: 97, column: 3, scope: !1066)
!1133 = !DILocation(line: 98, column: 1, scope: !1041)
!1134 = distinct !DISubprogram(name: "FlexLoadBMPGray", linkageName: "_Z15FlexLoadBMPGrayPKcR9FlexImageIhLi1EE", scope: !2, file: !2, line: 102, type: !1135, scopeLine: 103, flags: DIFlagPrototyped, spFlags: DISPFlagDefinition, unit: !8, retainedNodes: !911)
!1135 = !DISubroutineType(types: !1136)
!1136 = !{!910, !99, !1137}
!1137 = !DIDerivedType(tag: DW_TAG_reference_type, baseType: !1138, size: 64)
!1138 = !DICompositeType(tag: DW_TAG_class_type, name: "FlexImage<unsigned char, 1>", file: !1139, line: 31, size: 320, flags: DIFlagFwdDecl | DIFlagNonTrivial, identifier: "_ZTS9FlexImageIhLi1EE")
!1139 = !DIFile(filename: "../FlexImageLib/FlexImage.h", directory: "/home/raj/SVF_PAPER_BENCHMARKS/parsec-3.0/pkgs/apps/bodytrack/src/build", checksumkind: CSK_MD5, checksum: "c48c5603df53b5adb28beda0f0ac2f29")
!1140 = !DILocalVariable(name: "file", arg: 1, scope: !1134, file: !2, line: 102, type: !99)
!1141 = !DILocation(line: 102, column: 34, scope: !1134)
!1142 = !DILocalVariable(name: "img", arg: 2, scope: !1134, file: !2, line: 102, type: !1137)
!1143 = !DILocation(line: 102, column: 59, scope: !1134)
!1144 = !DILocalVariable(name: "in", scope: !1134, file: !2, line: 104, type: !630)
!1145 = !DILocation(line: 104, column: 11, scope: !1134)
!1146 = !DILocalVariable(name: "bmfh", scope: !1134, file: !2, line: 105, type: !995)
!1147 = !DILocation(line: 105, column: 16, scope: !1134)
!1148 = !DILocalVariable(name: "bmih", scope: !1134, file: !2, line: 106, type: !1045)
!1149 = !DILocation(line: 106, column: 16, scope: !1134)
!1150 = !DILocation(line: 108, column: 11, scope: !1134)
!1151 = !DILocation(line: 108, column: 5, scope: !1134)
!1152 = !DILocation(line: 108, column: 4, scope: !1134)
!1153 = !DILocation(line: 109, column: 5, scope: !1154)
!1154 = distinct !DILexicalBlock(scope: !1134, file: !2, line: 109, column: 5)
!1155 = !DILocation(line: 109, column: 8, scope: !1154)
!1156 = !DILocation(line: 109, column: 5, scope: !1134)
!1157 = !DILocation(line: 110, column: 3, scope: !1154)
!1158 = !DILocation(line: 112, column: 24, scope: !1134)
!1159 = !DILocation(line: 112, column: 2, scope: !1134)
!1160 = !DILocation(line: 113, column: 9, scope: !1134)
!1161 = !DILocation(line: 114, column: 10, scope: !1162)
!1162 = distinct !DILexicalBlock(scope: !1134, file: !2, line: 114, column: 5)
!1163 = !DILocation(line: 114, column: 5, scope: !1162)
!1164 = !DILocation(line: 114, column: 17, scope: !1162)
!1165 = !DILocation(line: 114, column: 5, scope: !1134)
!1166 = !DILocation(line: 115, column: 3, scope: !1162)
!1167 = !DILocation(line: 116, column: 24, scope: !1134)
!1168 = !DILocation(line: 116, column: 2, scope: !1134)
!1169 = !DILocation(line: 117, column: 9, scope: !1134)
!1170 = !DILocation(line: 118, column: 10, scope: !1171)
!1171 = distinct !DILexicalBlock(scope: !1134, file: !2, line: 118, column: 5)
!1172 = !DILocation(line: 118, column: 5, scope: !1171)
!1173 = !DILocation(line: 118, column: 21, scope: !1171)
!1174 = !DILocation(line: 118, column: 5, scope: !1134)
!1175 = !DILocation(line: 119, column: 3, scope: !1171)
!1176 = !DILocation(line: 120, column: 2, scope: !1134)
!1177 = !DILocation(line: 120, column: 22, scope: !1134)
!1178 = !DILocation(line: 120, column: 17, scope: !1134)
!1179 = !DILocation(line: 120, column: 40, scope: !1134)
!1180 = !DILocation(line: 120, column: 31, scope: !1134)
!1181 = !DILocation(line: 120, column: 6, scope: !1134)
!1182 = !DILocalVariable(name: "tmp", scope: !1134, file: !2, line: 121, type: !1183)
!1183 = !DIDerivedType(tag: DW_TAG_typedef, name: "RGBA", file: !917, line: 100, baseType: !1184)
!1184 = distinct !DICompositeType(tag: DW_TAG_structure_type, name: "tagRGBA", file: !917, line: 95, size: 32, flags: DIFlagTypePassByValue, elements: !1185, identifier: "_ZTS7tagRGBA")
!1185 = !{!1186, !1187, !1188, !1189}
!1186 = !DIDerivedType(tag: DW_TAG_member, name: "rgbBlue", scope: !1184, file: !917, line: 96, baseType: !919, size: 8)
!1187 = !DIDerivedType(tag: DW_TAG_member, name: "rgbGreen", scope: !1184, file: !917, line: 97, baseType: !919, size: 8, offset: 8)
!1188 = !DIDerivedType(tag: DW_TAG_member, name: "rgbRed", scope: !1184, file: !917, line: 98, baseType: !919, size: 8, offset: 16)
!1189 = !DIDerivedType(tag: DW_TAG_member, name: "rgbReserved", scope: !1184, file: !917, line: 99, baseType: !919, size: 8, offset: 24)
!1190 = !DILocation(line: 121, column: 7, scope: !1134)
!1191 = !DILocalVariable(name: "i", scope: !1192, file: !2, line: 122, type: !10)
!1192 = distinct !DILexicalBlock(scope: !1134, file: !2, line: 122, column: 2)
!1193 = !DILocation(line: 122, column: 10, scope: !1192)
!1194 = !DILocation(line: 122, column: 6, scope: !1192)
!1195 = !DILocation(line: 122, column: 17, scope: !1196)
!1196 = distinct !DILexicalBlock(scope: !1192, file: !2, line: 122, column: 2)
!1197 = !DILocation(line: 122, column: 31, scope: !1196)
!1198 = !DILocation(line: 122, column: 26, scope: !1196)
!1199 = !DILocation(line: 122, column: 19, scope: !1196)
!1200 = !DILocation(line: 122, column: 2, scope: !1192)
!1201 = !DILocation(line: 123, column: 32, scope: !1196)
!1202 = !DILocation(line: 123, column: 3, scope: !1196)
!1203 = !DILocation(line: 122, column: 43, scope: !1196)
!1204 = !DILocation(line: 122, column: 2, scope: !1196)
!1205 = distinct !{!1205, !1200, !1206, !1207}
!1206 = !DILocation(line: 123, column: 34, scope: !1192)
!1207 = !{!"llvm.loop.mustprogress"}
!1208 = !DILocalVariable(name: "padWidth", scope: !1134, file: !2, line: 125, type: !10)
!1209 = !DILocation(line: 125, column: 6, scope: !1134)
!1210 = !DILocation(line: 125, column: 22, scope: !1134)
!1211 = !DILocation(line: 125, column: 17, scope: !1134)
!1212 = !DILocation(line: 126, column: 2, scope: !1134)
!1213 = !DILocation(line: 126, column: 8, scope: !1134)
!1214 = !DILocation(line: 126, column: 16, scope: !1134)
!1215 = !DILocation(line: 126, column: 28, scope: !1134)
!1216 = distinct !{!1216, !1212, !1215, !1207}
!1217 = !DILocalVariable(name: "dir", scope: !1134, file: !2, line: 127, type: !10)
!1218 = !DILocation(line: 127, column: 6, scope: !1134)
!1219 = !DILocalVariable(name: "yv", scope: !1134, file: !2, line: 127, type: !10)
!1220 = !DILocation(line: 127, column: 15, scope: !1134)
!1221 = !DILocation(line: 128, column: 10, scope: !1222)
!1222 = distinct !DILexicalBlock(scope: !1134, file: !2, line: 128, column: 5)
!1223 = !DILocation(line: 128, column: 19, scope: !1222)
!1224 = !DILocation(line: 128, column: 5, scope: !1134)
!1225 = !DILocation(line: 129, column: 8, scope: !1226)
!1226 = distinct !DILexicalBlock(scope: !1222, file: !2, line: 129, column: 2)
!1227 = !DILocation(line: 130, column: 8, scope: !1226)
!1228 = !DILocation(line: 130, column: 12, scope: !1226)
!1229 = !DILocation(line: 130, column: 21, scope: !1226)
!1230 = !DILocation(line: 130, column: 6, scope: !1226)
!1231 = !DILocation(line: 131, column: 2, scope: !1226)
!1232 = !DILocalVariable(name: "y", scope: !1233, file: !2, line: 132, type: !10)
!1233 = distinct !DILexicalBlock(scope: !1134, file: !2, line: 132, column: 2)
!1234 = !DILocation(line: 132, column: 10, scope: !1233)
!1235 = !DILocation(line: 132, column: 6, scope: !1233)
!1236 = !DILocation(line: 132, column: 17, scope: !1237)
!1237 = distinct !DILexicalBlock(scope: !1233, file: !2, line: 132, column: 2)
!1238 = !DILocation(line: 132, column: 21, scope: !1237)
!1239 = !DILocation(line: 132, column: 25, scope: !1237)
!1240 = !DILocation(line: 132, column: 19, scope: !1237)
!1241 = !DILocation(line: 132, column: 2, scope: !1233)
!1242 = !DILocalVariable(name: "tmp", scope: !1243, file: !2, line: 133, type: !5)
!1243 = distinct !DILexicalBlock(scope: !1237, file: !2, line: 133, column: 2)
!1244 = !DILocation(line: 133, column: 9, scope: !1243)
!1245 = !DILocation(line: 134, column: 10, scope: !1243)
!1246 = !DILocation(line: 134, column: 16, scope: !1243)
!1247 = !DILocation(line: 134, column: 24, scope: !1243)
!1248 = !DILocation(line: 134, column: 28, scope: !1243)
!1249 = !DILocation(line: 134, column: 37, scope: !1243)
!1250 = !DILocation(line: 134, column: 3, scope: !1243)
!1251 = !DILocation(line: 135, column: 9, scope: !1243)
!1252 = !DILocation(line: 135, column: 6, scope: !1243)
!1253 = !DILocalVariable(name: "i", scope: !1254, file: !2, line: 136, type: !10)
!1254 = distinct !DILexicalBlock(scope: !1243, file: !2, line: 136, column: 3)
!1255 = !DILocation(line: 136, column: 11, scope: !1254)
!1256 = !DILocation(line: 136, column: 7, scope: !1254)
!1257 = !DILocation(line: 136, column: 18, scope: !1258)
!1258 = distinct !DILexicalBlock(scope: !1254, file: !2, line: 136, column: 3)
!1259 = !DILocation(line: 136, column: 22, scope: !1258)
!1260 = !DILocation(line: 136, column: 33, scope: !1258)
!1261 = !DILocation(line: 136, column: 37, scope: !1258)
!1262 = !DILocation(line: 136, column: 31, scope: !1258)
!1263 = !DILocation(line: 136, column: 20, scope: !1258)
!1264 = !DILocation(line: 136, column: 3, scope: !1254)
!1265 = !DILocation(line: 137, column: 22, scope: !1258)
!1266 = !DILocation(line: 137, column: 4, scope: !1258)
!1267 = !DILocation(line: 136, column: 47, scope: !1258)
!1268 = !DILocation(line: 136, column: 3, scope: !1258)
!1269 = distinct !{!1269, !1264, !1270, !1207}
!1270 = !DILocation(line: 137, column: 24, scope: !1254)
!1271 = !DILocation(line: 138, column: 2, scope: !1243)
!1272 = !DILocation(line: 132, column: 36, scope: !1237)
!1273 = !DILocation(line: 132, column: 2, scope: !1237)
!1274 = distinct !{!1274, !1241, !1275, !1207}
!1275 = !DILocation(line: 138, column: 2, scope: !1233)
!1276 = !DILocation(line: 139, column: 9, scope: !1134)
!1277 = !DILocation(line: 139, column: 2, scope: !1134)
!1278 = !DILocation(line: 140, column: 2, scope: !1134)
!1279 = !DILocation(line: 141, column: 1, scope: !1134)
!1280 = distinct !DISubprogram(name: "abs", linkageName: "_ZSt3absl", scope: !19, file: !439, line: 56, type: !505, scopeLine: 56, flags: DIFlagPrototyped, spFlags: DISPFlagDefinition, unit: !8, retainedNodes: !911)
!1281 = !DILocalVariable(name: "__i", arg: 1, scope: !1280, file: !439, line: 56, type: !236)
!1282 = !DILocation(line: 56, column: 12, scope: !1280)
!1283 = !DILocation(line: 56, column: 41, scope: !1280)
!1284 = !DILocation(line: 56, column: 26, scope: !1280)
!1285 = !DILocation(line: 56, column: 19, scope: !1280)
!1286 = distinct !DISubprogram(name: "Height", linkageName: "_ZNK9FlexImageIhLi1EE6HeightEv", scope: !1138, file: !1139, line: 87, type: !1287, scopeLine: 87, flags: DIFlagPrototyped, spFlags: DISPFlagDefinition, unit: !8, declaration: !1291, retainedNodes: !911)
!1287 = !DISubroutineType(types: !1288)
!1288 = !{!10, !1289}
!1289 = !DIDerivedType(tag: DW_TAG_pointer_type, baseType: !1290, size: 64, flags: DIFlagArtificial | DIFlagObjectPointer)
!1290 = !DIDerivedType(tag: DW_TAG_const_type, baseType: !1138)
!1291 = !DISubprogram(name: "Height", linkageName: "_ZNK9FlexImageIhLi1EE6HeightEv", scope: !1138, file: !1139, line: 87, type: !1287, scopeLine: 87, flags: DIFlagPublic | DIFlagPrototyped, spFlags: 0)
!1292 = !DILocalVariable(name: "this", arg: 1, scope: !1286, type: !1293, flags: DIFlagArtificial | DIFlagObjectPointer)
!1293 = !DIDerivedType(tag: DW_TAG_pointer_type, baseType: !1290, size: 64)
!1294 = !DILocation(line: 0, scope: !1286)
!1295 = !DILocation(line: 87, column: 39, scope: !1286)
!1296 = !DILocation(line: 87, column: 45, scope: !1286)
!1297 = !DILocation(line: 87, column: 32, scope: !1286)
!1298 = distinct !DISubprogram(name: "operator()", linkageName: "_ZN9FlexImageIhLi1EEclEii", scope: !1138, file: !1139, line: 114, type: !1299, scopeLine: 114, flags: DIFlagPrototyped, spFlags: DISPFlagDefinition, unit: !8, declaration: !1303, retainedNodes: !911)
!1299 = !DISubroutineType(types: !1300)
!1300 = !{!1301, !1302, !10, !10}
!1301 = !DIDerivedType(tag: DW_TAG_reference_type, baseType: !12, size: 64)
!1302 = !DIDerivedType(tag: DW_TAG_pointer_type, baseType: !1138, size: 64, flags: DIFlagArtificial | DIFlagObjectPointer)
!1303 = !DISubprogram(name: "operator()", linkageName: "_ZN9FlexImageIhLi1EEclEii", scope: !1138, file: !1139, line: 114, type: !1299, scopeLine: 114, flags: DIFlagPublic | DIFlagPrototyped, spFlags: 0)
!1304 = !DILocalVariable(name: "this", arg: 1, scope: !1298, type: !1305, flags: DIFlagArtificial | DIFlagObjectPointer)
!1305 = !DIDerivedType(tag: DW_TAG_pointer_type, baseType: !1138, size: 64)
!1306 = !DILocation(line: 0, scope: !1298)
!1307 = !DILocalVariable(name: "x", arg: 2, scope: !1298, file: !1139, line: 114, type: !10)
!1308 = !DILocation(line: 114, column: 28, scope: !1298)
!1309 = !DILocalVariable(name: "y", arg: 3, scope: !1298, file: !1139, line: 114, type: !10)
!1310 = !DILocation(line: 114, column: 35, scope: !1298)
!1311 = !DILocation(line: 114, column: 59, scope: !1298)
!1312 = !DILocation(line: 114, column: 62, scope: !1298)
!1313 = !DILocation(line: 114, column: 48, scope: !1298)
!1314 = !DILocation(line: 114, column: 40, scope: !1298)
!1315 = distinct !DISubprogram(name: "Width", linkageName: "_ZNK9FlexImageIhLi1EE5WidthEv", scope: !1138, file: !1139, line: 86, type: !1287, scopeLine: 86, flags: DIFlagPrototyped, spFlags: DISPFlagDefinition, unit: !8, declaration: !1316, retainedNodes: !911)
!1316 = !DISubprogram(name: "Width", linkageName: "_ZNK9FlexImageIhLi1EE5WidthEv", scope: !1138, file: !1139, line: 86, type: !1287, scopeLine: 86, flags: DIFlagPublic | DIFlagPrototyped, spFlags: 0)
!1317 = !DILocalVariable(name: "this", arg: 1, scope: !1315, type: !1293, flags: DIFlagArtificial | DIFlagObjectPointer)
!1318 = !DILocation(line: 0, scope: !1315)
!1319 = !DILocation(line: 86, column: 38, scope: !1315)
!1320 = !DILocation(line: 86, column: 44, scope: !1315)
!1321 = !DILocation(line: 86, column: 31, scope: !1315)
!1322 = distinct !DISubprogram(name: "FlexLoadBMPColor", linkageName: "_Z16FlexLoadBMPColorPKcR9FlexImageIhLi3EE", scope: !2, file: !2, line: 143, type: !1323, scopeLine: 144, flags: DIFlagPrototyped, spFlags: DISPFlagDefinition, unit: !8, retainedNodes: !911)
!1323 = !DISubroutineType(types: !1324)
!1324 = !{!910, !99, !1325}
!1325 = !DIDerivedType(tag: DW_TAG_reference_type, baseType: !1326, size: 64)
!1326 = !DICompositeType(tag: DW_TAG_class_type, name: "FlexImage<unsigned char, 3>", file: !1139, line: 31, size: 320, flags: DIFlagFwdDecl | DIFlagNonTrivial, identifier: "_ZTS9FlexImageIhLi3EE")
!1327 = !DILocalVariable(name: "file", arg: 1, scope: !1322, file: !2, line: 143, type: !99)
!1328 = !DILocation(line: 143, column: 35, scope: !1322)
!1329 = !DILocalVariable(name: "img", arg: 2, scope: !1322, file: !2, line: 143, type: !1325)
!1330 = !DILocation(line: 143, column: 60, scope: !1322)
!1331 = !DILocalVariable(name: "in", scope: !1322, file: !2, line: 145, type: !630)
!1332 = !DILocation(line: 145, column: 11, scope: !1322)
!1333 = !DILocalVariable(name: "bmfh", scope: !1322, file: !2, line: 146, type: !995)
!1334 = !DILocation(line: 146, column: 16, scope: !1322)
!1335 = !DILocalVariable(name: "bmih", scope: !1322, file: !2, line: 147, type: !1045)
!1336 = !DILocation(line: 147, column: 16, scope: !1322)
!1337 = !DILocation(line: 149, column: 11, scope: !1322)
!1338 = !DILocation(line: 149, column: 5, scope: !1322)
!1339 = !DILocation(line: 149, column: 4, scope: !1322)
!1340 = !DILocation(line: 150, column: 5, scope: !1341)
!1341 = distinct !DILexicalBlock(scope: !1322, file: !2, line: 150, column: 5)
!1342 = !DILocation(line: 150, column: 8, scope: !1341)
!1343 = !DILocation(line: 150, column: 5, scope: !1322)
!1344 = !DILocation(line: 151, column: 3, scope: !1341)
!1345 = !DILocation(line: 153, column: 24, scope: !1322)
!1346 = !DILocation(line: 153, column: 2, scope: !1322)
!1347 = !DILocation(line: 154, column: 9, scope: !1322)
!1348 = !DILocation(line: 155, column: 10, scope: !1349)
!1349 = distinct !DILexicalBlock(scope: !1322, file: !2, line: 155, column: 5)
!1350 = !DILocation(line: 155, column: 5, scope: !1349)
!1351 = !DILocation(line: 155, column: 17, scope: !1349)
!1352 = !DILocation(line: 155, column: 5, scope: !1322)
!1353 = !DILocation(line: 156, column: 3, scope: !1349)
!1354 = !DILocation(line: 157, column: 24, scope: !1322)
!1355 = !DILocation(line: 157, column: 2, scope: !1322)
!1356 = !DILocation(line: 158, column: 9, scope: !1322)
!1357 = !DILocation(line: 159, column: 10, scope: !1358)
!1358 = distinct !DILexicalBlock(scope: !1322, file: !2, line: 159, column: 5)
!1359 = !DILocation(line: 159, column: 5, scope: !1358)
!1360 = !DILocation(line: 159, column: 21, scope: !1358)
!1361 = !DILocation(line: 159, column: 5, scope: !1322)
!1362 = !DILocation(line: 160, column: 3, scope: !1358)
!1363 = !DILocation(line: 161, column: 2, scope: !1322)
!1364 = !DILocation(line: 161, column: 22, scope: !1322)
!1365 = !DILocation(line: 161, column: 17, scope: !1322)
!1366 = !DILocation(line: 161, column: 40, scope: !1322)
!1367 = !DILocation(line: 161, column: 31, scope: !1322)
!1368 = !DILocation(line: 161, column: 6, scope: !1322)
!1369 = !DILocalVariable(name: "tmp", scope: !1322, file: !2, line: 163, type: !1183)
!1370 = !DILocation(line: 163, column: 7, scope: !1322)
!1371 = !DILocalVariable(name: "i", scope: !1372, file: !2, line: 164, type: !10)
!1372 = distinct !DILexicalBlock(scope: !1322, file: !2, line: 164, column: 2)
!1373 = !DILocation(line: 164, column: 10, scope: !1372)
!1374 = !DILocation(line: 164, column: 6, scope: !1372)
!1375 = !DILocation(line: 164, column: 17, scope: !1376)
!1376 = distinct !DILexicalBlock(scope: !1372, file: !2, line: 164, column: 2)
!1377 = !DILocation(line: 164, column: 31, scope: !1376)
!1378 = !DILocation(line: 164, column: 26, scope: !1376)
!1379 = !DILocation(line: 164, column: 19, scope: !1376)
!1380 = !DILocation(line: 164, column: 2, scope: !1372)
!1381 = !DILocation(line: 165, column: 32, scope: !1376)
!1382 = !DILocation(line: 165, column: 3, scope: !1376)
!1383 = !DILocation(line: 164, column: 43, scope: !1376)
!1384 = !DILocation(line: 164, column: 2, scope: !1376)
!1385 = distinct !{!1385, !1380, !1386, !1207}
!1386 = !DILocation(line: 165, column: 34, scope: !1372)
!1387 = !DILocalVariable(name: "padWidth", scope: !1322, file: !2, line: 167, type: !10)
!1388 = !DILocation(line: 167, column: 6, scope: !1322)
!1389 = !DILocation(line: 167, column: 26, scope: !1322)
!1390 = !DILocation(line: 167, column: 19, scope: !1322)
!1391 = !DILocation(line: 167, column: 17, scope: !1322)
!1392 = !DILocation(line: 168, column: 2, scope: !1322)
!1393 = !DILocation(line: 168, column: 8, scope: !1322)
!1394 = !DILocation(line: 168, column: 16, scope: !1322)
!1395 = !DILocation(line: 168, column: 28, scope: !1322)
!1396 = distinct !{!1396, !1392, !1395, !1207}
!1397 = !DILocalVariable(name: "dir", scope: !1322, file: !2, line: 169, type: !10)
!1398 = !DILocation(line: 169, column: 6, scope: !1322)
!1399 = !DILocalVariable(name: "yv", scope: !1322, file: !2, line: 169, type: !10)
!1400 = !DILocation(line: 169, column: 15, scope: !1322)
!1401 = !DILocation(line: 170, column: 10, scope: !1402)
!1402 = distinct !DILexicalBlock(scope: !1322, file: !2, line: 170, column: 5)
!1403 = !DILocation(line: 170, column: 19, scope: !1402)
!1404 = !DILocation(line: 170, column: 5, scope: !1322)
!1405 = !DILocation(line: 171, column: 8, scope: !1406)
!1406 = distinct !DILexicalBlock(scope: !1402, file: !2, line: 171, column: 2)
!1407 = !DILocation(line: 172, column: 8, scope: !1406)
!1408 = !DILocation(line: 172, column: 12, scope: !1406)
!1409 = !DILocation(line: 172, column: 21, scope: !1406)
!1410 = !DILocation(line: 172, column: 6, scope: !1406)
!1411 = !DILocation(line: 173, column: 2, scope: !1406)
!1412 = !DILocalVariable(name: "y", scope: !1413, file: !2, line: 174, type: !10)
!1413 = distinct !DILexicalBlock(scope: !1322, file: !2, line: 174, column: 2)
!1414 = !DILocation(line: 174, column: 10, scope: !1413)
!1415 = !DILocation(line: 174, column: 6, scope: !1413)
!1416 = !DILocation(line: 174, column: 17, scope: !1417)
!1417 = distinct !DILexicalBlock(scope: !1413, file: !2, line: 174, column: 2)
!1418 = !DILocation(line: 174, column: 21, scope: !1417)
!1419 = !DILocation(line: 174, column: 25, scope: !1417)
!1420 = !DILocation(line: 174, column: 19, scope: !1417)
!1421 = !DILocation(line: 174, column: 2, scope: !1413)
!1422 = !DILocalVariable(name: "tmp", scope: !1423, file: !2, line: 175, type: !5)
!1423 = distinct !DILexicalBlock(scope: !1417, file: !2, line: 175, column: 2)
!1424 = !DILocation(line: 175, column: 9, scope: !1423)
!1425 = !DILocation(line: 176, column: 10, scope: !1423)
!1426 = !DILocation(line: 176, column: 16, scope: !1423)
!1427 = !DILocation(line: 176, column: 24, scope: !1423)
!1428 = !DILocation(line: 176, column: 28, scope: !1423)
!1429 = !DILocation(line: 176, column: 36, scope: !1423)
!1430 = !DILocation(line: 176, column: 41, scope: !1423)
!1431 = !DILocation(line: 176, column: 3, scope: !1423)
!1432 = !DILocation(line: 177, column: 9, scope: !1423)
!1433 = !DILocation(line: 177, column: 6, scope: !1423)
!1434 = !DILocalVariable(name: "i", scope: !1435, file: !2, line: 178, type: !10)
!1435 = distinct !DILexicalBlock(scope: !1423, file: !2, line: 178, column: 3)
!1436 = !DILocation(line: 178, column: 11, scope: !1435)
!1437 = !DILocation(line: 178, column: 7, scope: !1435)
!1438 = !DILocation(line: 178, column: 18, scope: !1439)
!1439 = distinct !DILexicalBlock(scope: !1435, file: !2, line: 178, column: 3)
!1440 = !DILocation(line: 178, column: 22, scope: !1439)
!1441 = !DILocation(line: 178, column: 33, scope: !1439)
!1442 = !DILocation(line: 178, column: 37, scope: !1439)
!1443 = !DILocation(line: 178, column: 45, scope: !1439)
!1444 = !DILocation(line: 178, column: 31, scope: !1439)
!1445 = !DILocation(line: 178, column: 20, scope: !1439)
!1446 = !DILocation(line: 178, column: 3, scope: !1435)
!1447 = !DILocation(line: 179, column: 22, scope: !1439)
!1448 = !DILocation(line: 179, column: 4, scope: !1439)
!1449 = !DILocation(line: 178, column: 51, scope: !1439)
!1450 = !DILocation(line: 178, column: 3, scope: !1439)
!1451 = distinct !{!1451, !1446, !1452, !1207}
!1452 = !DILocation(line: 179, column: 24, scope: !1435)
!1453 = !DILocation(line: 180, column: 2, scope: !1423)
!1454 = !DILocation(line: 174, column: 36, scope: !1417)
!1455 = !DILocation(line: 174, column: 2, scope: !1417)
!1456 = distinct !{!1456, !1421, !1457, !1207}
!1457 = !DILocation(line: 180, column: 2, scope: !1413)
!1458 = !DILocation(line: 181, column: 9, scope: !1322)
!1459 = !DILocation(line: 181, column: 2, scope: !1322)
!1460 = !DILocation(line: 182, column: 2, scope: !1322)
!1461 = !DILocation(line: 183, column: 1, scope: !1322)
!1462 = distinct !DISubprogram(name: "Height", linkageName: "_ZNK9FlexImageIhLi3EE6HeightEv", scope: !1326, file: !1139, line: 87, type: !1463, scopeLine: 87, flags: DIFlagPrototyped, spFlags: DISPFlagDefinition, unit: !8, declaration: !1467, retainedNodes: !911)
!1463 = !DISubroutineType(types: !1464)
!1464 = !{!10, !1465}
!1465 = !DIDerivedType(tag: DW_TAG_pointer_type, baseType: !1466, size: 64, flags: DIFlagArtificial | DIFlagObjectPointer)
!1466 = !DIDerivedType(tag: DW_TAG_const_type, baseType: !1326)
!1467 = !DISubprogram(name: "Height", linkageName: "_ZNK9FlexImageIhLi3EE6HeightEv", scope: !1326, file: !1139, line: 87, type: !1463, scopeLine: 87, flags: DIFlagPublic | DIFlagPrototyped, spFlags: 0)
!1468 = !DILocalVariable(name: "this", arg: 1, scope: !1462, type: !1469, flags: DIFlagArtificial | DIFlagObjectPointer)
!1469 = !DIDerivedType(tag: DW_TAG_pointer_type, baseType: !1466, size: 64)
!1470 = !DILocation(line: 0, scope: !1462)
!1471 = !DILocation(line: 87, column: 39, scope: !1462)
!1472 = !DILocation(line: 87, column: 45, scope: !1462)
!1473 = !DILocation(line: 87, column: 32, scope: !1462)
!1474 = distinct !DISubprogram(name: "operator()", linkageName: "_ZN9FlexImageIhLi3EEclEii", scope: !1326, file: !1139, line: 114, type: !1475, scopeLine: 114, flags: DIFlagPrototyped, spFlags: DISPFlagDefinition, unit: !8, declaration: !1478, retainedNodes: !911)
!1475 = !DISubroutineType(types: !1476)
!1476 = !{!1301, !1477, !10, !10}
!1477 = !DIDerivedType(tag: DW_TAG_pointer_type, baseType: !1326, size: 64, flags: DIFlagArtificial | DIFlagObjectPointer)
!1478 = !DISubprogram(name: "operator()", linkageName: "_ZN9FlexImageIhLi3EEclEii", scope: !1326, file: !1139, line: 114, type: !1475, scopeLine: 114, flags: DIFlagPublic | DIFlagPrototyped, spFlags: 0)
!1479 = !DILocalVariable(name: "this", arg: 1, scope: !1474, type: !1480, flags: DIFlagArtificial | DIFlagObjectPointer)
!1480 = !DIDerivedType(tag: DW_TAG_pointer_type, baseType: !1326, size: 64)
!1481 = !DILocation(line: 0, scope: !1474)
!1482 = !DILocalVariable(name: "x", arg: 2, scope: !1474, file: !1139, line: 114, type: !10)
!1483 = !DILocation(line: 114, column: 28, scope: !1474)
!1484 = !DILocalVariable(name: "y", arg: 3, scope: !1474, file: !1139, line: 114, type: !10)
!1485 = !DILocation(line: 114, column: 35, scope: !1474)
!1486 = !DILocation(line: 114, column: 59, scope: !1474)
!1487 = !DILocation(line: 114, column: 62, scope: !1474)
!1488 = !DILocation(line: 114, column: 48, scope: !1474)
!1489 = !DILocation(line: 114, column: 40, scope: !1474)
!1490 = distinct !DISubprogram(name: "Width", linkageName: "_ZNK9FlexImageIhLi3EE5WidthEv", scope: !1326, file: !1139, line: 86, type: !1463, scopeLine: 86, flags: DIFlagPrototyped, spFlags: DISPFlagDefinition, unit: !8, declaration: !1491, retainedNodes: !911)
!1491 = !DISubprogram(name: "Width", linkageName: "_ZNK9FlexImageIhLi3EE5WidthEv", scope: !1326, file: !1139, line: 86, type: !1463, scopeLine: 86, flags: DIFlagPublic | DIFlagPrototyped, spFlags: 0)
!1492 = !DILocalVariable(name: "this", arg: 1, scope: !1490, type: !1469, flags: DIFlagArtificial | DIFlagObjectPointer)
!1493 = !DILocation(line: 0, scope: !1490)
!1494 = !DILocation(line: 86, column: 38, scope: !1490)
!1495 = !DILocation(line: 86, column: 44, scope: !1490)
!1496 = !DILocation(line: 86, column: 31, scope: !1490)
!1497 = distinct !DISubprogram(name: "FlexLoadBMP8u", linkageName: "_Z13FlexLoadBMP8uPKcR9FlexImageIhLi3EE", scope: !2, file: !2, line: 185, type: !1323, scopeLine: 186, flags: DIFlagPrototyped, spFlags: DISPFlagDefinition, unit: !8, retainedNodes: !911)
!1498 = !DILocalVariable(name: "file", arg: 1, scope: !1497, file: !2, line: 185, type: !99)
!1499 = !DILocation(line: 185, column: 32, scope: !1497)
!1500 = !DILocalVariable(name: "img", arg: 2, scope: !1497, file: !2, line: 185, type: !1325)
!1501 = !DILocation(line: 185, column: 57, scope: !1497)
!1502 = !DILocalVariable(name: "in", scope: !1497, file: !2, line: 187, type: !630)
!1503 = !DILocation(line: 187, column: 11, scope: !1497)
!1504 = !DILocalVariable(name: "bmfh", scope: !1497, file: !2, line: 188, type: !995)
!1505 = !DILocation(line: 188, column: 16, scope: !1497)
!1506 = !DILocalVariable(name: "bmih", scope: !1497, file: !2, line: 189, type: !1045)
!1507 = !DILocation(line: 189, column: 16, scope: !1497)
!1508 = !DILocation(line: 191, column: 11, scope: !1497)
!1509 = !DILocation(line: 191, column: 5, scope: !1497)
!1510 = !DILocation(line: 191, column: 4, scope: !1497)
!1511 = !DILocation(line: 192, column: 5, scope: !1512)
!1512 = distinct !DILexicalBlock(scope: !1497, file: !2, line: 192, column: 5)
!1513 = !DILocation(line: 192, column: 8, scope: !1512)
!1514 = !DILocation(line: 192, column: 5, scope: !1497)
!1515 = !DILocation(line: 193, column: 3, scope: !1512)
!1516 = !DILocation(line: 195, column: 24, scope: !1497)
!1517 = !DILocation(line: 195, column: 2, scope: !1497)
!1518 = !DILocation(line: 196, column: 9, scope: !1497)
!1519 = !DILocation(line: 197, column: 10, scope: !1520)
!1520 = distinct !DILexicalBlock(scope: !1497, file: !2, line: 197, column: 5)
!1521 = !DILocation(line: 197, column: 5, scope: !1520)
!1522 = !DILocation(line: 197, column: 17, scope: !1520)
!1523 = !DILocation(line: 197, column: 5, scope: !1497)
!1524 = !DILocation(line: 198, column: 3, scope: !1520)
!1525 = !DILocation(line: 199, column: 24, scope: !1497)
!1526 = !DILocation(line: 199, column: 2, scope: !1497)
!1527 = !DILocation(line: 200, column: 9, scope: !1497)
!1528 = !DILocation(line: 201, column: 10, scope: !1529)
!1529 = distinct !DILexicalBlock(scope: !1497, file: !2, line: 201, column: 5)
!1530 = !DILocation(line: 201, column: 5, scope: !1529)
!1531 = !DILocation(line: 201, column: 21, scope: !1529)
!1532 = !DILocation(line: 201, column: 5, scope: !1497)
!1533 = !DILocation(line: 202, column: 11, scope: !1534)
!1534 = distinct !DILexicalBlock(scope: !1529, file: !2, line: 202, column: 2)
!1535 = !DILocation(line: 202, column: 4, scope: !1534)
!1536 = !DILocalVariable(name: "tmp", scope: !1534, file: !2, line: 203, type: !1138)
!1537 = !DILocation(line: 203, column: 21, scope: !1534)
!1538 = !DILocation(line: 204, column: 19, scope: !1534)
!1539 = !DILocation(line: 204, column: 3, scope: !1534)
!1540 = !DILocation(line: 205, column: 3, scope: !1534)
!1541 = !DILocation(line: 205, column: 24, scope: !1534)
!1542 = !DILocation(line: 205, column: 37, scope: !1534)
!1543 = !DILocation(line: 205, column: 7, scope: !1534)
!1544 = !DILocation(line: 206, column: 21, scope: !1534)
!1545 = !DILocation(line: 206, column: 3, scope: !1534)
!1546 = !DILocation(line: 207, column: 21, scope: !1534)
!1547 = !DILocation(line: 207, column: 3, scope: !1534)
!1548 = !DILocation(line: 208, column: 21, scope: !1534)
!1549 = !DILocation(line: 208, column: 3, scope: !1534)
!1550 = !DILocation(line: 209, column: 3, scope: !1534)
!1551 = !DILocation(line: 210, column: 2, scope: !1529)
!1552 = !DILocation(line: 218, column: 1, scope: !1534)
!1553 = !DILocation(line: 211, column: 10, scope: !1554)
!1554 = distinct !DILexicalBlock(scope: !1497, file: !2, line: 211, column: 5)
!1555 = !DILocation(line: 211, column: 5, scope: !1554)
!1556 = !DILocation(line: 211, column: 21, scope: !1554)
!1557 = !DILocation(line: 211, column: 5, scope: !1497)
!1558 = !DILocation(line: 212, column: 11, scope: !1559)
!1559 = distinct !DILexicalBlock(scope: !1554, file: !2, line: 212, column: 2)
!1560 = !DILocation(line: 212, column: 4, scope: !1559)
!1561 = !DILocation(line: 213, column: 20, scope: !1559)
!1562 = !DILocation(line: 213, column: 26, scope: !1559)
!1563 = !DILocation(line: 213, column: 3, scope: !1559)
!1564 = !DILocation(line: 214, column: 3, scope: !1559)
!1565 = !DILocation(line: 216, column: 9, scope: !1497)
!1566 = !DILocation(line: 216, column: 2, scope: !1497)
!1567 = !DILocation(line: 217, column: 2, scope: !1497)
!1568 = !DILocation(line: 218, column: 1, scope: !1497)
!1569 = distinct !DISubprogram(name: "FlexCopyC1CM<unsigned char, 3>", linkageName: "_Z12FlexCopyC1CMIhLi3EEiR9FlexImageIT_Li1EERS0_IS1_XT0_EEi", scope: !1570, file: !1570, line: 192, type: !1571, scopeLine: 193, flags: DIFlagPrototyped, spFlags: DISPFlagDefinition, unit: !8, templateParams: !1573, retainedNodes: !911)
!1570 = !DIFile(filename: "../FlexImageLib/FlexDataExchange.h", directory: "/home/raj/SVF_PAPER_BENCHMARKS/parsec-3.0/pkgs/apps/bodytrack/src/build", checksumkind: CSK_MD5, checksum: "f08fdc81ddd01066cfa11989037dd594")
!1571 = !DISubroutineType(types: !1572)
!1572 = !{!10, !1137, !1325, !10}
!1573 = !{!1574, !1575}
!1574 = !DITemplateTypeParameter(name: "T", type: !12)
!1575 = !DITemplateValueParameter(name: "C", type: !10, value: i32 3)
!1576 = !DILocalVariable(name: "src", arg: 1, scope: !1569, file: !1570, line: 192, type: !1137)
!1577 = !DILocation(line: 192, column: 39, scope: !1569)
!1578 = !DILocalVariable(name: "dst", arg: 2, scope: !1569, file: !1570, line: 192, type: !1325)
!1579 = !DILocation(line: 192, column: 60, scope: !1569)
!1580 = !DILocalVariable(name: "dstChannel", arg: 3, scope: !1569, file: !1570, line: 192, type: !10)
!1581 = !DILocation(line: 192, column: 69, scope: !1569)
!1582 = !DILocation(line: 194, column: 9, scope: !1583)
!1583 = distinct !DILexicalBlock(scope: !1569, file: !1570, line: 194, column: 5)
!1584 = !DILocation(line: 194, column: 20, scope: !1583)
!1585 = !DILocation(line: 194, column: 7, scope: !1583)
!1586 = !DILocation(line: 194, column: 5, scope: !1569)
!1587 = !DILocation(line: 195, column: 3, scope: !1583)
!1588 = !DILocalVariable(name: "w", scope: !1569, file: !1570, line: 196, type: !10)
!1589 = !DILocation(line: 196, column: 6, scope: !1569)
!1590 = !DILocation(line: 196, column: 10, scope: !1569)
!1591 = !DILocalVariable(name: "h", scope: !1569, file: !1570, line: 197, type: !10)
!1592 = !DILocation(line: 197, column: 6, scope: !1569)
!1593 = !DILocation(line: 197, column: 10, scope: !1569)
!1594 = !DILocalVariable(name: "pSrc", scope: !1569, file: !1570, line: 198, type: !11)
!1595 = !DILocation(line: 198, column: 5, scope: !1569)
!1596 = !DILocation(line: 198, column: 17, scope: !1569)
!1597 = !DILocation(line: 198, column: 21, scope: !1569)
!1598 = !DILocalVariable(name: "pDst", scope: !1569, file: !1570, line: 198, type: !11)
!1599 = !DILocation(line: 198, column: 30, scope: !1569)
!1600 = !DILocation(line: 198, column: 42, scope: !1569)
!1601 = !DILocation(line: 198, column: 46, scope: !1569)
!1602 = !DILocation(line: 198, column: 55, scope: !1569)
!1603 = !DILocation(line: 198, column: 53, scope: !1569)
!1604 = !DILocalVariable(name: "j", scope: !1605, file: !1570, line: 199, type: !10)
!1605 = distinct !DILexicalBlock(scope: !1569, file: !1570, line: 199, column: 2)
!1606 = !DILocation(line: 199, column: 10, scope: !1605)
!1607 = !DILocation(line: 199, column: 6, scope: !1605)
!1608 = !DILocation(line: 199, column: 17, scope: !1609)
!1609 = distinct !DILexicalBlock(scope: !1605, file: !1570, line: 199, column: 2)
!1610 = !DILocation(line: 199, column: 21, scope: !1609)
!1611 = !DILocation(line: 199, column: 19, scope: !1609)
!1612 = !DILocation(line: 199, column: 2, scope: !1605)
!1613 = !DILocalVariable(name: "ps", scope: !1614, file: !1570, line: 200, type: !11)
!1614 = distinct !DILexicalBlock(scope: !1609, file: !1570, line: 200, column: 2)
!1615 = !DILocation(line: 200, column: 7, scope: !1614)
!1616 = !DILocation(line: 200, column: 12, scope: !1614)
!1617 = !DILocalVariable(name: "pd", scope: !1614, file: !1570, line: 200, type: !11)
!1618 = !DILocation(line: 200, column: 19, scope: !1614)
!1619 = !DILocation(line: 200, column: 24, scope: !1614)
!1620 = !DILocalVariable(name: "i", scope: !1621, file: !1570, line: 201, type: !10)
!1621 = distinct !DILexicalBlock(scope: !1614, file: !1570, line: 201, column: 3)
!1622 = !DILocation(line: 201, column: 11, scope: !1621)
!1623 = !DILocation(line: 201, column: 7, scope: !1621)
!1624 = !DILocation(line: 201, column: 18, scope: !1625)
!1625 = distinct !DILexicalBlock(scope: !1621, file: !1570, line: 201, column: 3)
!1626 = !DILocation(line: 201, column: 22, scope: !1625)
!1627 = !DILocation(line: 201, column: 20, scope: !1625)
!1628 = !DILocation(line: 201, column: 3, scope: !1621)
!1629 = !DILocation(line: 202, column: 15, scope: !1630)
!1630 = distinct !DILexicalBlock(scope: !1625, file: !1570, line: 202, column: 3)
!1631 = !DILocation(line: 202, column: 11, scope: !1630)
!1632 = !DILocation(line: 202, column: 6, scope: !1630)
!1633 = !DILocation(line: 202, column: 9, scope: !1630)
!1634 = !DILocation(line: 203, column: 7, scope: !1630)
!1635 = !DILocation(line: 204, column: 3, scope: !1630)
!1636 = !DILocation(line: 201, column: 26, scope: !1625)
!1637 = !DILocation(line: 201, column: 3, scope: !1625)
!1638 = distinct !{!1638, !1628, !1639, !1207}
!1639 = !DILocation(line: 204, column: 3, scope: !1621)
!1640 = !DILocation(line: 205, column: 24, scope: !1614)
!1641 = !DILocation(line: 205, column: 31, scope: !1614)
!1642 = !DILocation(line: 205, column: 35, scope: !1614)
!1643 = !DILocation(line: 205, column: 29, scope: !1614)
!1644 = !DILocation(line: 205, column: 8, scope: !1614)
!1645 = !DILocation(line: 206, column: 24, scope: !1614)
!1646 = !DILocation(line: 206, column: 31, scope: !1614)
!1647 = !DILocation(line: 206, column: 35, scope: !1614)
!1648 = !DILocation(line: 206, column: 29, scope: !1614)
!1649 = !DILocation(line: 206, column: 8, scope: !1614)
!1650 = !DILocation(line: 207, column: 2, scope: !1614)
!1651 = !DILocation(line: 199, column: 25, scope: !1609)
!1652 = !DILocation(line: 199, column: 2, scope: !1609)
!1653 = distinct !{!1653, !1612, !1654, !1207}
!1654 = !DILocation(line: 207, column: 2, scope: !1605)
!1655 = !DILocation(line: 208, column: 2, scope: !1569)
!1656 = !DILocation(line: 209, column: 1, scope: !1569)
!1657 = distinct !DISubprogram(name: "FlexLoadBMP8u", linkageName: "_Z13FlexLoadBMP8uPKcR9FlexImageIhLi1EE", scope: !2, file: !2, line: 220, type: !1135, scopeLine: 221, flags: DIFlagPrototyped, spFlags: DISPFlagDefinition, unit: !8, retainedNodes: !911)
!1658 = !DILocalVariable(name: "file", arg: 1, scope: !1657, file: !2, line: 220, type: !99)
!1659 = !DILocation(line: 220, column: 32, scope: !1657)
!1660 = !DILocalVariable(name: "img", arg: 2, scope: !1657, file: !2, line: 220, type: !1137)
!1661 = !DILocation(line: 220, column: 57, scope: !1657)
!1662 = !DILocalVariable(name: "in", scope: !1657, file: !2, line: 222, type: !630)
!1663 = !DILocation(line: 222, column: 11, scope: !1657)
!1664 = !DILocalVariable(name: "bmfh", scope: !1657, file: !2, line: 223, type: !995)
!1665 = !DILocation(line: 223, column: 16, scope: !1657)
!1666 = !DILocalVariable(name: "bmih", scope: !1657, file: !2, line: 224, type: !1045)
!1667 = !DILocation(line: 224, column: 16, scope: !1657)
!1668 = !DILocation(line: 226, column: 11, scope: !1657)
!1669 = !DILocation(line: 226, column: 5, scope: !1657)
!1670 = !DILocation(line: 226, column: 4, scope: !1657)
!1671 = !DILocation(line: 227, column: 5, scope: !1672)
!1672 = distinct !DILexicalBlock(scope: !1657, file: !2, line: 227, column: 5)
!1673 = !DILocation(line: 227, column: 8, scope: !1672)
!1674 = !DILocation(line: 227, column: 5, scope: !1657)
!1675 = !DILocation(line: 228, column: 3, scope: !1672)
!1676 = !DILocation(line: 230, column: 24, scope: !1657)
!1677 = !DILocation(line: 230, column: 2, scope: !1657)
!1678 = !DILocation(line: 231, column: 9, scope: !1657)
!1679 = !DILocation(line: 232, column: 10, scope: !1680)
!1680 = distinct !DILexicalBlock(scope: !1657, file: !2, line: 232, column: 5)
!1681 = !DILocation(line: 232, column: 5, scope: !1680)
!1682 = !DILocation(line: 232, column: 17, scope: !1680)
!1683 = !DILocation(line: 232, column: 5, scope: !1657)
!1684 = !DILocation(line: 233, column: 3, scope: !1680)
!1685 = !DILocation(line: 234, column: 24, scope: !1657)
!1686 = !DILocation(line: 234, column: 2, scope: !1657)
!1687 = !DILocation(line: 235, column: 9, scope: !1657)
!1688 = !DILocation(line: 236, column: 10, scope: !1689)
!1689 = distinct !DILexicalBlock(scope: !1657, file: !2, line: 236, column: 5)
!1690 = !DILocation(line: 236, column: 5, scope: !1689)
!1691 = !DILocation(line: 236, column: 21, scope: !1689)
!1692 = !DILocation(line: 236, column: 5, scope: !1657)
!1693 = !DILocation(line: 237, column: 11, scope: !1694)
!1694 = distinct !DILexicalBlock(scope: !1689, file: !2, line: 237, column: 2)
!1695 = !DILocation(line: 237, column: 4, scope: !1694)
!1696 = !DILocation(line: 238, column: 26, scope: !1694)
!1697 = !DILocation(line: 238, column: 32, scope: !1694)
!1698 = !DILocation(line: 238, column: 10, scope: !1694)
!1699 = !DILocation(line: 238, column: 3, scope: !1694)
!1700 = !DILocation(line: 240, column: 10, scope: !1701)
!1701 = distinct !DILexicalBlock(scope: !1657, file: !2, line: 240, column: 5)
!1702 = !DILocation(line: 240, column: 5, scope: !1701)
!1703 = !DILocation(line: 240, column: 21, scope: !1701)
!1704 = !DILocation(line: 240, column: 5, scope: !1657)
!1705 = !DILocation(line: 241, column: 11, scope: !1706)
!1706 = distinct !DILexicalBlock(scope: !1701, file: !2, line: 241, column: 2)
!1707 = !DILocation(line: 241, column: 4, scope: !1706)
!1708 = !DILocalVariable(name: "tmp", scope: !1706, file: !2, line: 242, type: !1326)
!1709 = !DILocation(line: 242, column: 21, scope: !1706)
!1710 = !DILocalVariable(name: "ok", scope: !1706, file: !2, line: 243, type: !910)
!1711 = !DILocation(line: 243, column: 8, scope: !1706)
!1712 = !DILocation(line: 243, column: 30, scope: !1706)
!1713 = !DILocation(line: 243, column: 13, scope: !1706)
!1714 = !DILocation(line: 244, column: 6, scope: !1715)
!1715 = distinct !DILexicalBlock(scope: !1706, file: !2, line: 244, column: 6)
!1716 = !DILocation(line: 244, column: 6, scope: !1706)
!1717 = !DILocation(line: 245, column: 5, scope: !1718)
!1718 = distinct !DILexicalBlock(scope: !1715, file: !2, line: 245, column: 3)
!1719 = !DILocation(line: 245, column: 26, scope: !1718)
!1720 = !DILocation(line: 245, column: 39, scope: !1718)
!1721 = !DILocation(line: 245, column: 9, scope: !1718)
!1722 = !DILocation(line: 246, column: 23, scope: !1718)
!1723 = !DILocation(line: 246, column: 4, scope: !1718)
!1724 = !DILocation(line: 247, column: 3, scope: !1718)
!1725 = !DILocation(line: 252, column: 1, scope: !1706)
!1726 = !DILocation(line: 249, column: 2, scope: !1701)
!1727 = !DILocation(line: 248, column: 10, scope: !1706)
!1728 = !DILocation(line: 248, column: 3, scope: !1706)
!1729 = !DILocation(line: 250, column: 9, scope: !1657)
!1730 = !DILocation(line: 250, column: 2, scope: !1657)
!1731 = !DILocation(line: 251, column: 2, scope: !1657)
!1732 = !DILocation(line: 252, column: 1, scope: !1657)
!1733 = distinct !DISubprogram(name: "FlexRGBToGray<unsigned char>", linkageName: "_Z13FlexRGBToGrayIhEiR9FlexImageIT_Li3EERS0_IS1_Li1EEb", scope: !1734, file: !1734, line: 45, type: !1735, scopeLine: 46, flags: DIFlagPrototyped, spFlags: DISPFlagDefinition, unit: !8, templateParams: !1737, retainedNodes: !911)
!1734 = !DIFile(filename: "../FlexImageLib/FlexColor.h", directory: "/home/raj/SVF_PAPER_BENCHMARKS/parsec-3.0/pkgs/apps/bodytrack/src/build", checksumkind: CSK_MD5, checksum: "1efb3f27c633e78bfc321b5f3d2daa29")
!1735 = !DISubroutineType(types: !1736)
!1736 = !{!10, !1325, !1137, !910}
!1737 = !{!1574}
!1738 = !DILocalVariable(name: "src", arg: 1, scope: !1733, file: !1734, line: 45, type: !1325)
!1739 = !DILocation(line: 45, column: 40, scope: !1733)
!1740 = !DILocalVariable(name: "dst", arg: 2, scope: !1733, file: !1734, line: 45, type: !1137)
!1741 = !DILocation(line: 45, column: 61, scope: !1733)
!1742 = !DILocalVariable(name: "allocate", arg: 3, scope: !1733, file: !1734, line: 45, type: !910)
!1743 = !DILocation(line: 45, column: 71, scope: !1733)
!1744 = !DILocation(line: 47, column: 5, scope: !1745)
!1745 = distinct !DILexicalBlock(scope: !1733, file: !1734, line: 47, column: 5)
!1746 = !DILocation(line: 47, column: 5, scope: !1733)
!1747 = !DILocation(line: 48, column: 3, scope: !1745)
!1748 = !DILocation(line: 48, column: 18, scope: !1745)
!1749 = !DILocation(line: 48, column: 22, scope: !1745)
!1750 = !DILocation(line: 48, column: 7, scope: !1745)
!1751 = !DILocalVariable(name: "w", scope: !1733, file: !1734, line: 49, type: !10)
!1752 = !DILocation(line: 49, column: 6, scope: !1733)
!1753 = !DILocation(line: 49, column: 19, scope: !1733)
!1754 = !DILocation(line: 49, column: 23, scope: !1733)
!1755 = !DILocation(line: 49, column: 32, scope: !1733)
!1756 = !DILocation(line: 49, column: 36, scope: !1733)
!1757 = !DILocation(line: 49, column: 10, scope: !1733)
!1758 = !DILocalVariable(name: "h", scope: !1733, file: !1734, line: 50, type: !10)
!1759 = !DILocation(line: 50, column: 6, scope: !1733)
!1760 = !DILocation(line: 50, column: 19, scope: !1733)
!1761 = !DILocation(line: 50, column: 23, scope: !1733)
!1762 = !DILocation(line: 50, column: 33, scope: !1733)
!1763 = !DILocation(line: 50, column: 37, scope: !1733)
!1764 = !DILocation(line: 50, column: 10, scope: !1733)
!1765 = !DILocalVariable(name: "pSrc", scope: !1733, file: !1734, line: 51, type: !11)
!1766 = !DILocation(line: 51, column: 5, scope: !1733)
!1767 = !DILocation(line: 51, column: 17, scope: !1733)
!1768 = !DILocation(line: 51, column: 21, scope: !1733)
!1769 = !DILocalVariable(name: "pDst", scope: !1733, file: !1734, line: 51, type: !11)
!1770 = !DILocation(line: 51, column: 30, scope: !1733)
!1771 = !DILocation(line: 51, column: 42, scope: !1733)
!1772 = !DILocation(line: 51, column: 46, scope: !1733)
!1773 = !DILocalVariable(name: "j", scope: !1774, file: !1734, line: 52, type: !10)
!1774 = distinct !DILexicalBlock(scope: !1733, file: !1734, line: 52, column: 2)
!1775 = !DILocation(line: 52, column: 10, scope: !1774)
!1776 = !DILocation(line: 52, column: 6, scope: !1774)
!1777 = !DILocation(line: 52, column: 17, scope: !1778)
!1778 = distinct !DILexicalBlock(scope: !1774, file: !1734, line: 52, column: 2)
!1779 = !DILocation(line: 52, column: 21, scope: !1778)
!1780 = !DILocation(line: 52, column: 19, scope: !1778)
!1781 = !DILocation(line: 52, column: 2, scope: !1774)
!1782 = !DILocalVariable(name: "ps", scope: !1783, file: !1734, line: 53, type: !11)
!1783 = distinct !DILexicalBlock(scope: !1778, file: !1734, line: 53, column: 2)
!1784 = !DILocation(line: 53, column: 7, scope: !1783)
!1785 = !DILocation(line: 53, column: 12, scope: !1783)
!1786 = !DILocalVariable(name: "pd", scope: !1783, file: !1734, line: 53, type: !11)
!1787 = !DILocation(line: 53, column: 19, scope: !1783)
!1788 = !DILocation(line: 53, column: 24, scope: !1783)
!1789 = !DILocalVariable(name: "i", scope: !1790, file: !1734, line: 54, type: !10)
!1790 = distinct !DILexicalBlock(scope: !1783, file: !1734, line: 54, column: 3)
!1791 = !DILocation(line: 54, column: 11, scope: !1790)
!1792 = !DILocation(line: 54, column: 7, scope: !1790)
!1793 = !DILocation(line: 54, column: 18, scope: !1794)
!1794 = distinct !DILexicalBlock(scope: !1790, file: !1734, line: 54, column: 3)
!1795 = !DILocation(line: 54, column: 22, scope: !1794)
!1796 = !DILocation(line: 54, column: 20, scope: !1794)
!1797 = !DILocation(line: 54, column: 3, scope: !1790)
!1798 = !DILocation(line: 55, column: 19, scope: !1799)
!1799 = distinct !DILexicalBlock(scope: !1794, file: !1734, line: 55, column: 3)
!1800 = !DILocation(line: 55, column: 36, scope: !1799)
!1801 = !DILocation(line: 55, column: 42, scope: !1799)
!1802 = !DILocation(line: 55, column: 34, scope: !1799)
!1803 = !DILocation(line: 55, column: 52, scope: !1799)
!1804 = !DILocation(line: 55, column: 50, scope: !1799)
!1805 = !DILocation(line: 55, column: 18, scope: !1799)
!1806 = !DILocation(line: 55, column: 9, scope: !1799)
!1807 = !DILocation(line: 55, column: 13, scope: !1799)
!1808 = !DILocation(line: 56, column: 7, scope: !1799)
!1809 = !DILocation(line: 57, column: 3, scope: !1799)
!1810 = !DILocation(line: 54, column: 26, scope: !1794)
!1811 = !DILocation(line: 54, column: 3, scope: !1794)
!1812 = distinct !{!1812, !1797, !1813, !1207}
!1813 = !DILocation(line: 57, column: 3, scope: !1790)
!1814 = !DILocation(line: 58, column: 24, scope: !1783)
!1815 = !DILocation(line: 58, column: 31, scope: !1783)
!1816 = !DILocation(line: 58, column: 35, scope: !1783)
!1817 = !DILocation(line: 58, column: 29, scope: !1783)
!1818 = !DILocation(line: 58, column: 8, scope: !1783)
!1819 = !DILocation(line: 59, column: 24, scope: !1783)
!1820 = !DILocation(line: 59, column: 31, scope: !1783)
!1821 = !DILocation(line: 59, column: 35, scope: !1783)
!1822 = !DILocation(line: 59, column: 29, scope: !1783)
!1823 = !DILocation(line: 59, column: 8, scope: !1783)
!1824 = !DILocation(line: 60, column: 2, scope: !1783)
!1825 = !DILocation(line: 52, column: 25, scope: !1778)
!1826 = !DILocation(line: 52, column: 2, scope: !1778)
!1827 = distinct !{!1827, !1781, !1828, !1207}
!1828 = !DILocation(line: 60, column: 2, scope: !1774)
!1829 = !DILocation(line: 61, column: 2, scope: !1733)
!1830 = distinct !DISubprogram(name: "operator()", linkageName: "_ZN9FlexImageIhLi1EEclEiii", scope: !1138, file: !1139, line: 111, type: !1831, scopeLine: 111, flags: DIFlagPrototyped, spFlags: DISPFlagDefinition, unit: !8, declaration: !1833, retainedNodes: !911)
!1831 = !DISubroutineType(types: !1832)
!1832 = !{!1301, !1302, !10, !10, !10}
!1833 = !DISubprogram(name: "operator()", linkageName: "_ZN9FlexImageIhLi1EEclEiii", scope: !1138, file: !1139, line: 111, type: !1831, scopeLine: 111, flags: DIFlagPublic | DIFlagPrototyped, spFlags: 0)
!1834 = !DILocalVariable(name: "this", arg: 1, scope: !1830, type: !1305, flags: DIFlagArtificial | DIFlagObjectPointer)
!1835 = !DILocation(line: 0, scope: !1830)
!1836 = !DILocalVariable(name: "x", arg: 2, scope: !1830, file: !1139, line: 111, type: !10)
!1837 = !DILocation(line: 111, column: 28, scope: !1830)
!1838 = !DILocalVariable(name: "y", arg: 3, scope: !1830, file: !1139, line: 111, type: !10)
!1839 = !DILocation(line: 111, column: 35, scope: !1830)
!1840 = !DILocalVariable(name: "c", arg: 4, scope: !1830, file: !1139, line: 111, type: !10)
!1841 = !DILocation(line: 111, column: 42, scope: !1830)
!1842 = !DILocation(line: 111, column: 69, scope: !1830)
!1843 = !DILocation(line: 111, column: 77, scope: !1830)
!1844 = !DILocation(line: 111, column: 90, scope: !1830)
!1845 = !DILocation(line: 111, column: 88, scope: !1830)
!1846 = !DILocation(line: 111, column: 75, scope: !1830)
!1847 = !DILocation(line: 111, column: 94, scope: !1830)
!1848 = !DILocation(line: 111, column: 101, scope: !1830)
!1849 = !DILocation(line: 111, column: 99, scope: !1830)
!1850 = !DILocation(line: 111, column: 92, scope: !1830)
!1851 = !DILocation(line: 111, column: 105, scope: !1830)
!1852 = !DILocation(line: 111, column: 106, scope: !1830)
!1853 = !DILocation(line: 111, column: 103, scope: !1830)
!1854 = !DILocation(line: 111, column: 46, scope: !1830)
!1855 = distinct !DISubprogram(name: "operator()", linkageName: "_ZN9FlexImageIhLi3EEclEiii", scope: !1326, file: !1139, line: 111, type: !1856, scopeLine: 111, flags: DIFlagPrototyped, spFlags: DISPFlagDefinition, unit: !8, declaration: !1858, retainedNodes: !911)
!1856 = !DISubroutineType(types: !1857)
!1857 = !{!1301, !1477, !10, !10, !10}
!1858 = !DISubprogram(name: "operator()", linkageName: "_ZN9FlexImageIhLi3EEclEiii", scope: !1326, file: !1139, line: 111, type: !1856, scopeLine: 111, flags: DIFlagPublic | DIFlagPrototyped, spFlags: 0)
!1859 = !DILocalVariable(name: "this", arg: 1, scope: !1855, type: !1480, flags: DIFlagArtificial | DIFlagObjectPointer)
!1860 = !DILocation(line: 0, scope: !1855)
!1861 = !DILocalVariable(name: "x", arg: 2, scope: !1855, file: !1139, line: 111, type: !10)
!1862 = !DILocation(line: 111, column: 28, scope: !1855)
!1863 = !DILocalVariable(name: "y", arg: 3, scope: !1855, file: !1139, line: 111, type: !10)
!1864 = !DILocation(line: 111, column: 35, scope: !1855)
!1865 = !DILocalVariable(name: "c", arg: 4, scope: !1855, file: !1139, line: 111, type: !10)
!1866 = !DILocation(line: 111, column: 42, scope: !1855)
!1867 = !DILocation(line: 111, column: 69, scope: !1855)
!1868 = !DILocation(line: 111, column: 77, scope: !1855)
!1869 = !DILocation(line: 111, column: 90, scope: !1855)
!1870 = !DILocation(line: 111, column: 88, scope: !1855)
!1871 = !DILocation(line: 111, column: 75, scope: !1855)
!1872 = !DILocation(line: 111, column: 94, scope: !1855)
!1873 = !DILocation(line: 111, column: 101, scope: !1855)
!1874 = !DILocation(line: 111, column: 99, scope: !1855)
!1875 = !DILocation(line: 111, column: 92, scope: !1855)
!1876 = !DILocation(line: 111, column: 105, scope: !1855)
!1877 = !DILocation(line: 111, column: 106, scope: !1855)
!1878 = !DILocation(line: 111, column: 103, scope: !1855)
!1879 = !DILocation(line: 111, column: 46, scope: !1855)
!1880 = distinct !DISubprogram(name: "Data", linkageName: "_ZN9FlexImageIhLi1EE4DataEv", scope: !1138, file: !1139, line: 79, type: !1881, scopeLine: 79, flags: DIFlagPrototyped, spFlags: DISPFlagDefinition, unit: !8, declaration: !1883, retainedNodes: !911)
!1881 = !DISubroutineType(types: !1882)
!1882 = !{!11, !1302}
!1883 = !DISubprogram(name: "Data", linkageName: "_ZN9FlexImageIhLi1EE4DataEv", scope: !1138, file: !1139, line: 79, type: !1881, scopeLine: 79, flags: DIFlagPublic | DIFlagPrototyped, spFlags: 0)
!1884 = !DILocalVariable(name: "this", arg: 1, scope: !1880, type: !1305, flags: DIFlagArtificial | DIFlagObjectPointer)
!1885 = !DILocation(line: 0, scope: !1880)
!1886 = !DILocation(line: 79, column: 32, scope: !1880)
!1887 = !DILocation(line: 79, column: 25, scope: !1880)
!1888 = distinct !DISubprogram(name: "Data", linkageName: "_ZN9FlexImageIhLi3EE4DataEv", scope: !1326, file: !1139, line: 79, type: !1889, scopeLine: 79, flags: DIFlagPrototyped, spFlags: DISPFlagDefinition, unit: !8, declaration: !1891, retainedNodes: !911)
!1889 = !DISubroutineType(types: !1890)
!1890 = !{!11, !1477}
!1891 = !DISubprogram(name: "Data", linkageName: "_ZN9FlexImageIhLi3EE4DataEv", scope: !1326, file: !1139, line: 79, type: !1889, scopeLine: 79, flags: DIFlagPublic | DIFlagPrototyped, spFlags: 0)
!1892 = !DILocalVariable(name: "this", arg: 1, scope: !1888, type: !1480, flags: DIFlagArtificial | DIFlagObjectPointer)
!1893 = !DILocation(line: 0, scope: !1888)
!1894 = !DILocation(line: 79, column: 32, scope: !1888)
!1895 = !DILocation(line: 79, column: 25, scope: !1888)
!1896 = distinct !DISubprogram(name: "StepBytes", linkageName: "_ZNK9FlexImageIhLi1EE9StepBytesEv", scope: !1138, file: !1139, line: 83, type: !1287, scopeLine: 83, flags: DIFlagPrototyped, spFlags: DISPFlagDefinition, unit: !8, declaration: !1897, retainedNodes: !911)
!1897 = !DISubprogram(name: "StepBytes", linkageName: "_ZNK9FlexImageIhLi1EE9StepBytesEv", scope: !1138, file: !1139, line: 83, type: !1287, scopeLine: 83, flags: DIFlagPublic | DIFlagPrototyped, spFlags: 0)
!1898 = !DILocalVariable(name: "this", arg: 1, scope: !1896, type: !1293, flags: DIFlagArtificial | DIFlagObjectPointer)
!1899 = !DILocation(line: 0, scope: !1896)
!1900 = !DILocation(line: 83, column: 41, scope: !1896)
!1901 = !DILocation(line: 83, column: 34, scope: !1896)
!1902 = distinct !DISubprogram(name: "StepBytes", linkageName: "_ZNK9FlexImageIhLi3EE9StepBytesEv", scope: !1326, file: !1139, line: 83, type: !1463, scopeLine: 83, flags: DIFlagPrototyped, spFlags: DISPFlagDefinition, unit: !8, declaration: !1903, retainedNodes: !911)
!1903 = !DISubprogram(name: "StepBytes", linkageName: "_ZNK9FlexImageIhLi3EE9StepBytesEv", scope: !1326, file: !1139, line: 83, type: !1463, scopeLine: 83, flags: DIFlagPublic | DIFlagPrototyped, spFlags: 0)
!1904 = !DILocalVariable(name: "this", arg: 1, scope: !1902, type: !1469, flags: DIFlagArtificial | DIFlagObjectPointer)
!1905 = !DILocation(line: 0, scope: !1902)
!1906 = !DILocation(line: 83, column: 41, scope: !1902)
!1907 = !DILocation(line: 83, column: 34, scope: !1902)
!1908 = distinct !DISubprogram(name: "Size", linkageName: "_ZNK9FlexImageIhLi3EE4SizeEv", scope: !1326, file: !1139, line: 85, type: !1909, scopeLine: 85, flags: DIFlagPrototyped, spFlags: DISPFlagDefinition, unit: !8, declaration: !1916, retainedNodes: !911)
!1909 = !DISubroutineType(types: !1910)
!1910 = !{!1911, !1465}
!1911 = distinct !DICompositeType(tag: DW_TAG_class_type, name: "FISize", file: !1912, line: 52, size: 64, flags: DIFlagTypePassByValue, elements: !1913, identifier: "_ZTS6FISize")
!1912 = !DIFile(filename: "../FlexImageLib/FlexDefs.h", directory: "/home/raj/SVF_PAPER_BENCHMARKS/parsec-3.0/pkgs/apps/bodytrack/src/build", checksumkind: CSK_MD5, checksum: "b32d013e48990efa4edf814bb2a5e09f")
!1913 = !{!1914, !1915}
!1914 = !DIDerivedType(tag: DW_TAG_member, name: "width", scope: !1911, file: !1912, line: 54, baseType: !10, size: 32, flags: DIFlagPublic)
!1915 = !DIDerivedType(tag: DW_TAG_member, name: "height", scope: !1911, file: !1912, line: 55, baseType: !10, size: 32, offset: 32, flags: DIFlagPublic)
!1916 = !DISubprogram(name: "Size", linkageName: "_ZNK9FlexImageIhLi3EE4SizeEv", scope: !1326, file: !1139, line: 85, type: !1909, scopeLine: 85, flags: DIFlagPublic | DIFlagPrototyped, spFlags: 0)
!1917 = !DILocalVariable(name: "this", arg: 1, scope: !1908, type: !1469, flags: DIFlagArtificial | DIFlagObjectPointer)
!1918 = !DILocation(line: 0, scope: !1908)
!1919 = !DILocation(line: 85, column: 39, scope: !1908)
!1920 = !DILocation(line: 85, column: 38, scope: !1908)
!1921 = !DILocation(line: 85, column: 32, scope: !1908)
!1922 = distinct !DISubprogram(name: "min<int>", linkageName: "_ZSt3minIiERKT_S2_S2_", scope: !19, file: !1923, line: 230, type: !1924, scopeLine: 231, flags: DIFlagPrototyped, spFlags: DISPFlagDefinition, unit: !8, templateParams: !1928, retainedNodes: !911)
!1923 = !DIFile(filename: "/usr/lib/gcc/x86_64-linux-gnu/11/../../../../include/c++/11/bits/stl_algobase.h", directory: "", checksumkind: CSK_MD5, checksum: "906433670cd4a8daf96f73a1b6f6012b")
!1924 = !DISubroutineType(types: !1925)
!1925 = !{!1926, !1926, !1926}
!1926 = !DIDerivedType(tag: DW_TAG_reference_type, baseType: !1927, size: 64)
!1927 = !DIDerivedType(tag: DW_TAG_const_type, baseType: !10)
!1928 = !{!1929}
!1929 = !DITemplateTypeParameter(name: "_Tp", type: !10)
!1930 = !DILocalVariable(name: "__a", arg: 1, scope: !1922, file: !1931, line: 420, type: !1926)
!1931 = !DIFile(filename: "/usr/lib/gcc/x86_64-linux-gnu/11/../../../../include/c++/11/bits/algorithmfwd.h", directory: "")
!1932 = !DILocation(line: 420, column: 19, scope: !1922)
!1933 = !DILocalVariable(name: "__b", arg: 2, scope: !1922, file: !1931, line: 420, type: !1926)
!1934 = !DILocation(line: 420, column: 31, scope: !1922)
!1935 = !DILocation(line: 235, column: 11, scope: !1936)
!1936 = distinct !DILexicalBlock(scope: !1922, file: !1923, line: 235, column: 11)
!1937 = !DILocation(line: 235, column: 17, scope: !1936)
!1938 = !DILocation(line: 235, column: 15, scope: !1936)
!1939 = !DILocation(line: 235, column: 11, scope: !1922)
!1940 = !DILocation(line: 236, column: 9, scope: !1936)
!1941 = !DILocation(line: 236, column: 2, scope: !1936)
!1942 = !DILocation(line: 237, column: 14, scope: !1922)
!1943 = !DILocation(line: 237, column: 7, scope: !1922)
!1944 = !DILocation(line: 238, column: 5, scope: !1922)
