; ModuleID = '../TrackingBenchmark/ImageProjection.cpp'
source_filename = "../TrackingBenchmark/ImageProjection.cpp"
target datalayout = "e-m:e-p270:32:32-p271:32:32-p272:64:64-i64:64-f80:128-n8:16:32:64-S128"
target triple = "x86_64-unknown-linux-gnu"

%"class.std::ios_base::Init" = type { i8 }
%class.Vector3 = type { float, float, float }
%class.DMatrix = type { [3 x [4 x float]] }
%class.KTCylinder = type { float, float, float, %class.DMatrix }
%class.Camera = type { %class.Point, %class.Point, float, [5 x float], [3 x [3 x float]], %class.Vector3, %class.Vector3, %class.DMatrix, %class.Vector3 }
%class.Point = type { float, float }
%class.ProjectedCylinder = type { [4 x %class.Point] }
%class.ProjectedBody = type { %"class.std::vector" }
%"class.std::vector" = type { %"struct.std::_Vector_base" }
%"struct.std::_Vector_base" = type { %"struct.std::_Vector_base<ProjectedCylinder, std::allocator<ProjectedCylinder>>::_Vector_impl" }
%"struct.std::_Vector_base<ProjectedCylinder, std::allocator<ProjectedCylinder>>::_Vector_impl" = type { %"struct.std::_Vector_base<ProjectedCylinder, std::allocator<ProjectedCylinder>>::_Vector_impl_data" }
%"struct.std::_Vector_base<ProjectedCylinder, std::allocator<ProjectedCylinder>>::_Vector_impl_data" = type { ptr, ptr, ptr }
%class.BodyGeometry = type { %"class.std::vector.0", %class.BodyParameters, %"class.std::vector.5", %"class.std::vector.5", %"class.std::vector.10", %"class.std::vector.10" }
%"class.std::vector.0" = type { %"struct.std::_Vector_base.1" }
%"struct.std::_Vector_base.1" = type { %"struct.std::_Vector_base<KTCylinder, std::allocator<KTCylinder>>::_Vector_impl" }
%"struct.std::_Vector_base<KTCylinder, std::allocator<KTCylinder>>::_Vector_impl" = type { %"struct.std::_Vector_base<KTCylinder, std::allocator<KTCylinder>>::_Vector_impl_data" }
%"struct.std::_Vector_base<KTCylinder, std::allocator<KTCylinder>>::_Vector_impl_data" = type { ptr, ptr, ptr }
%class.BodyParameters = type { [10 x [4 x float]], [18 x float] }
%"class.std::vector.5" = type { %"struct.std::_Vector_base.6" }
%"struct.std::_Vector_base.6" = type { %"struct.std::_Vector_base<Vector3<float>, std::allocator<Vector3<float>>>::_Vector_impl" }
%"struct.std::_Vector_base<Vector3<float>, std::allocator<Vector3<float>>>::_Vector_impl" = type { %"struct.std::_Vector_base<Vector3<float>, std::allocator<Vector3<float>>>::_Vector_impl_data" }
%"struct.std::_Vector_base<Vector3<float>, std::allocator<Vector3<float>>>::_Vector_impl_data" = type { ptr, ptr, ptr }
%"class.std::vector.10" = type { %"struct.std::_Vector_base.11" }
%"struct.std::_Vector_base.11" = type { %"struct.std::_Vector_base<float, std::allocator<float>>::_Vector_impl" }
%"struct.std::_Vector_base<float, std::allocator<float>>::_Vector_impl" = type { %"struct.std::_Vector_base<float, std::allocator<float>>::_Vector_impl_data" }
%"struct.std::_Vector_base<float, std::allocator<float>>::_Vector_impl_data" = type { ptr, ptr, ptr }
%class.MultiCameraProjectedBody = type { %"class.std::vector.15" }
%"class.std::vector.15" = type { %"struct.std::_Vector_base.16" }
%"struct.std::_Vector_base.16" = type { %"struct.std::_Vector_base<ProjectedBody, std::allocator<ProjectedBody>>::_Vector_impl" }
%"struct.std::_Vector_base<ProjectedBody, std::allocator<ProjectedBody>>::_Vector_impl" = type { %"struct.std::_Vector_base<ProjectedBody, std::allocator<ProjectedBody>>::_Vector_impl_data" }
%"struct.std::_Vector_base<ProjectedBody, std::allocator<ProjectedBody>>::_Vector_impl_data" = type { ptr, ptr, ptr }
%class.MultiCamera = type { %"class.std::vector.20" }
%"class.std::vector.20" = type { %"struct.std::_Vector_base.21" }
%"struct.std::_Vector_base.21" = type { %"struct.std::_Vector_base<Camera, std::allocator<Camera>>::_Vector_impl" }
%"struct.std::_Vector_base<Camera, std::allocator<Camera>>::_Vector_impl" = type { %"struct.std::_Vector_base<Camera, std::allocator<Camera>>::_Vector_impl_data" }
%"struct.std::_Vector_base<Camera, std::allocator<Camera>>::_Vector_impl_data" = type { ptr, ptr, ptr }
%"struct.std::integral_constant" = type { i8 }
%"class.std::allocator" = type { i8 }
%"class.__gnu_cxx::__normal_iterator" = type { ptr }

$_ZN7Vector3IfEC2Efff = comdat any

$_ZNK7Vector3IfEmiERKS0_ = comdat any

$_ZmlIffE7Vector3IT_ERK7DMatrixIT0_ERKS2_ = comdat any

$_Z7InverseIfE7DMatrixIT_ERKS2_ = comdat any

$_ZN7Vector3IfED2Ev = comdat any

$_ZN7DMatrixIfED2Ev = comdat any

$_ZN7Vector3IfEC2Ev = comdat any

$_ZN7Vector3IfE3SetEfff = comdat any

$_Z13ProjectPointsR7Vector3IfER5PointR6Camera = comdat any

$_ZNK12BodyGeometry16GetBodyPartCountEv = comdat any

$_ZNSt6vectorI17ProjectedCylinderSaIS0_EE6resizeEm = comdat any

$_ZNSt6vectorI17ProjectedCylinderSaIS0_EEixEm = comdat any

$_ZNK12BodyGeometryclEi = comdat any

$_ZN11MultiCamera14GetCameraCountEv = comdat any

$_ZNSt6vectorI13ProjectedBodySaIS0_EE6resizeEm = comdat any

$_ZNSt6vectorI13ProjectedBodySaIS0_EEixEm = comdat any

$_ZN11MultiCameraclEi = comdat any

$_ZN5PointC2Eff = comdat any

$_ZN5Point3SetEff = comdat any

$_ZN5PointD2Ev = comdat any

$_ZNKSt6vectorI10KTCylinderSaIS0_EE4sizeEv = comdat any

$_ZNKSt6vectorI10KTCylinderSaIS0_EEixEm = comdat any

$_ZNKSt6vectorI6CameraSaIS0_EE4sizeEv = comdat any

$_ZNSt6vectorI6CameraSaIS0_EEixEm = comdat any

$_ZN7DMatrixIfEclEii = comdat any

$_ZN7DMatrixIfEC2Ev = comdat any

$_ZN7DMatrixIfE5ClearEv = comdat any

$_ZNKSt6vectorI17ProjectedCylinderSaIS0_EE4sizeEv = comdat any

$_ZNSt6vectorI17ProjectedCylinderSaIS0_EE17_M_default_appendEm = comdat any

$_ZNSt6vectorI17ProjectedCylinderSaIS0_EE15_M_erase_at_endEPS0_ = comdat any

$_ZNKSt6vectorI17ProjectedCylinderSaIS0_EE8max_sizeEv = comdat any

$_ZSt27__uninitialized_default_n_aIP17ProjectedCylindermS0_ET_S2_T0_RSaIT1_E = comdat any

$_ZNSt12_Vector_baseI17ProjectedCylinderSaIS0_EE19_M_get_Tp_allocatorEv = comdat any

$_ZNKSt6vectorI17ProjectedCylinderSaIS0_EE12_M_check_lenEmPKc = comdat any

$_ZNSt12_Vector_baseI17ProjectedCylinderSaIS0_EE11_M_allocateEm = comdat any

$_ZNSt12_Vector_baseI17ProjectedCylinderSaIS0_EE13_M_deallocateEPS0_m = comdat any

$__clang_call_terminate = comdat any

$_ZNSt6vectorI17ProjectedCylinderSaIS0_EE11_S_relocateEPS0_S3_S3_RS1_ = comdat any

$_ZNSt6vectorI17ProjectedCylinderSaIS0_EE11_S_max_sizeERKS1_ = comdat any

$_ZNKSt12_Vector_baseI17ProjectedCylinderSaIS0_EE19_M_get_Tp_allocatorEv = comdat any

$_ZNSt16allocator_traitsISaI17ProjectedCylinderEE8max_sizeERKS1_ = comdat any

$_ZSt3minImERKT_S2_S2_ = comdat any

$_ZNK9__gnu_cxx13new_allocatorI17ProjectedCylinderE8max_sizeEv = comdat any

$_ZNK9__gnu_cxx13new_allocatorI17ProjectedCylinderE11_M_max_sizeEv = comdat any

$_ZSt25__uninitialized_default_nIP17ProjectedCylindermET_S2_T0_ = comdat any

$_ZNSt27__uninitialized_default_n_1ILb0EE18__uninit_default_nIP17ProjectedCylindermEET_S4_T0_ = comdat any

$_ZSt10_ConstructI17ProjectedCylinderJEEvPT_DpOT0_ = comdat any

$_ZSt8_DestroyIP17ProjectedCylinderEvT_S2_ = comdat any

$_ZN17ProjectedCylinderC2Ev = comdat any

$_ZN5PointC2Ev = comdat any

$_ZNSt12_Destroy_auxILb0EE9__destroyIP17ProjectedCylinderEEvT_S4_ = comdat any

$_ZSt8_DestroyI17ProjectedCylinderEvPT_ = comdat any

$_ZN17ProjectedCylinderD2Ev = comdat any

$_ZSt3maxImERKT_S2_S2_ = comdat any

$_ZNSt16allocator_traitsISaI17ProjectedCylinderEE8allocateERS1_m = comdat any

$_ZN9__gnu_cxx13new_allocatorI17ProjectedCylinderE8allocateEmPKv = comdat any

$_ZNSt16allocator_traitsISaI17ProjectedCylinderEE10deallocateERS1_PS0_m = comdat any

$_ZN9__gnu_cxx13new_allocatorI17ProjectedCylinderE10deallocateEPS1_m = comdat any

$_ZNSt6vectorI17ProjectedCylinderSaIS0_EE14_S_do_relocateEPS0_S3_S3_RS1_St17integral_constantIbLb1EE = comdat any

$_ZSt12__relocate_aIP17ProjectedCylinderS1_SaIS0_EET0_T_S4_S3_RT1_ = comdat any

$_ZSt14__relocate_a_1IP17ProjectedCylinderS1_SaIS0_EET0_T_S4_S3_RT1_ = comdat any

$_ZSt12__niter_baseIP17ProjectedCylinderET_S2_ = comdat any

$_ZSt19__relocate_object_aI17ProjectedCylinderS0_SaIS0_EEvPT_PT0_RT1_ = comdat any

$_ZNSt16allocator_traitsISaI17ProjectedCylinderEE9constructIS0_JS0_EEEvRS1_PT_DpOT0_ = comdat any

$_ZNSt16allocator_traitsISaI17ProjectedCylinderEE7destroyIS0_EEvRS1_PT_ = comdat any

$_ZN9__gnu_cxx13new_allocatorI17ProjectedCylinderE9constructIS1_JS1_EEEvPT_DpOT0_ = comdat any

$_ZN9__gnu_cxx13new_allocatorI17ProjectedCylinderE7destroyIS1_EEvPT_ = comdat any

$_ZSt8_DestroyIP17ProjectedCylinderS0_EvT_S2_RSaIT0_E = comdat any

$_ZNKSt6vectorI13ProjectedBodySaIS0_EE4sizeEv = comdat any

$_ZNSt6vectorI13ProjectedBodySaIS0_EE17_M_default_appendEm = comdat any

$_ZNSt6vectorI13ProjectedBodySaIS0_EE15_M_erase_at_endEPS0_ = comdat any

$_ZNKSt6vectorI13ProjectedBodySaIS0_EE8max_sizeEv = comdat any

$_ZSt27__uninitialized_default_n_aIP13ProjectedBodymS0_ET_S2_T0_RSaIT1_E = comdat any

$_ZNSt12_Vector_baseI13ProjectedBodySaIS0_EE19_M_get_Tp_allocatorEv = comdat any

$_ZNKSt6vectorI13ProjectedBodySaIS0_EE12_M_check_lenEmPKc = comdat any

$_ZNSt12_Vector_baseI13ProjectedBodySaIS0_EE11_M_allocateEm = comdat any

$_ZSt34__uninitialized_move_if_noexcept_aIP13ProjectedBodyS1_SaIS0_EET0_T_S4_S3_RT1_ = comdat any

$_ZSt8_DestroyIP13ProjectedBodyS0_EvT_S2_RSaIT0_E = comdat any

$_ZNSt12_Vector_baseI13ProjectedBodySaIS0_EE13_M_deallocateEPS0_m = comdat any

$_ZNSt6vectorI13ProjectedBodySaIS0_EE11_S_max_sizeERKS1_ = comdat any

$_ZNKSt12_Vector_baseI13ProjectedBodySaIS0_EE19_M_get_Tp_allocatorEv = comdat any

$_ZNSt16allocator_traitsISaI13ProjectedBodyEE8max_sizeERKS1_ = comdat any

$_ZNK9__gnu_cxx13new_allocatorI13ProjectedBodyE8max_sizeEv = comdat any

$_ZNK9__gnu_cxx13new_allocatorI13ProjectedBodyE11_M_max_sizeEv = comdat any

$_ZSt25__uninitialized_default_nIP13ProjectedBodymET_S2_T0_ = comdat any

$_ZNSt27__uninitialized_default_n_1ILb0EE18__uninit_default_nIP13ProjectedBodymEET_S4_T0_ = comdat any

$_ZSt10_ConstructI13ProjectedBodyJEEvPT_DpOT0_ = comdat any

$_ZSt8_DestroyIP13ProjectedBodyEvT_S2_ = comdat any

$_ZN13ProjectedBodyC2Ev = comdat any

$_ZNSt6vectorI17ProjectedCylinderSaIS0_EEC2Ev = comdat any

$_ZNSt12_Vector_baseI17ProjectedCylinderSaIS0_EEC2Ev = comdat any

$_ZNSt12_Vector_baseI17ProjectedCylinderSaIS0_EE12_Vector_implC2Ev = comdat any

$_ZNSaI17ProjectedCylinderEC2Ev = comdat any

$_ZNSt12_Vector_baseI17ProjectedCylinderSaIS0_EE17_Vector_impl_dataC2Ev = comdat any

$_ZN9__gnu_cxx13new_allocatorI17ProjectedCylinderEC2Ev = comdat any

$_ZNSt12_Destroy_auxILb0EE9__destroyIP13ProjectedBodyEEvT_S4_ = comdat any

$_ZSt8_DestroyI13ProjectedBodyEvPT_ = comdat any

$_ZN13ProjectedBodyD2Ev = comdat any

$_ZNSt6vectorI17ProjectedCylinderSaIS0_EED2Ev = comdat any

$_ZNSt12_Vector_baseI17ProjectedCylinderSaIS0_EED2Ev = comdat any

$_ZNSt12_Vector_baseI17ProjectedCylinderSaIS0_EE12_Vector_implD2Ev = comdat any

$_ZN9__gnu_cxx13new_allocatorI17ProjectedCylinderED2Ev = comdat any

$_ZNSt16allocator_traitsISaI13ProjectedBodyEE8allocateERS1_m = comdat any

$_ZN9__gnu_cxx13new_allocatorI13ProjectedBodyE8allocateEmPKv = comdat any

$_ZSt22__uninitialized_copy_aIPK13ProjectedBodyPS0_S0_ET0_T_S5_S4_RSaIT1_E = comdat any

$_ZSt32__make_move_if_noexcept_iteratorI13ProjectedBodyPKS0_ET0_PT_ = comdat any

$_ZSt18uninitialized_copyIPK13ProjectedBodyPS0_ET0_T_S5_S4_ = comdat any

$_ZNSt20__uninitialized_copyILb0EE13__uninit_copyIPK13ProjectedBodyPS2_EET0_T_S7_S6_ = comdat any

$_ZSt10_ConstructI13ProjectedBodyJRKS0_EEvPT_DpOT0_ = comdat any

$_ZN13ProjectedBodyC2ERKS_ = comdat any

$_ZNSt6vectorI17ProjectedCylinderSaIS0_EEC2ERKS2_ = comdat any

$_ZN9__gnu_cxx14__alloc_traitsISaI17ProjectedCylinderES1_E17_S_select_on_copyERKS2_ = comdat any

$_ZNSt12_Vector_baseI17ProjectedCylinderSaIS0_EEC2EmRKS1_ = comdat any

$_ZNSaI17ProjectedCylinderED2Ev = comdat any

$_ZSt22__uninitialized_copy_aIN9__gnu_cxx17__normal_iteratorIPK17ProjectedCylinderSt6vectorIS2_SaIS2_EEEEPS2_S2_ET0_T_SB_SA_RSaIT1_E = comdat any

$_ZNKSt6vectorI17ProjectedCylinderSaIS0_EE5beginEv = comdat any

$_ZNKSt6vectorI17ProjectedCylinderSaIS0_EE3endEv = comdat any

$_ZNSt16allocator_traitsISaI17ProjectedCylinderEE37select_on_container_copy_constructionERKS1_ = comdat any

$_ZNSaI17ProjectedCylinderEC2ERKS0_ = comdat any

$_ZN9__gnu_cxx13new_allocatorI17ProjectedCylinderEC2ERKS2_ = comdat any

$_ZNSt12_Vector_baseI17ProjectedCylinderSaIS0_EE12_Vector_implC2ERKS1_ = comdat any

$_ZNSt12_Vector_baseI17ProjectedCylinderSaIS0_EE17_M_create_storageEm = comdat any

$_ZSt18uninitialized_copyIN9__gnu_cxx17__normal_iteratorIPK17ProjectedCylinderSt6vectorIS2_SaIS2_EEEEPS2_ET0_T_SB_SA_ = comdat any

$_ZNSt20__uninitialized_copyILb0EE13__uninit_copyIN9__gnu_cxx17__normal_iteratorIPK17ProjectedCylinderSt6vectorIS4_SaIS4_EEEEPS4_EET0_T_SD_SC_ = comdat any

$_ZN9__gnu_cxxneIPK17ProjectedCylinderSt6vectorIS1_SaIS1_EEEEbRKNS_17__normal_iteratorIT_T0_EESC_ = comdat any

$_ZSt10_ConstructI17ProjectedCylinderJRKS0_EEvPT_DpOT0_ = comdat any

$_ZNK9__gnu_cxx17__normal_iteratorIPK17ProjectedCylinderSt6vectorIS1_SaIS1_EEEdeEv = comdat any

$_ZN9__gnu_cxx17__normal_iteratorIPK17ProjectedCylinderSt6vectorIS1_SaIS1_EEEppEv = comdat any

$_ZNK9__gnu_cxx17__normal_iteratorIPK17ProjectedCylinderSt6vectorIS1_SaIS1_EEE4baseEv = comdat any

$_ZN9__gnu_cxx17__normal_iteratorIPK17ProjectedCylinderSt6vectorIS1_SaIS1_EEEC2ERKS3_ = comdat any

$_ZNSt16allocator_traitsISaI13ProjectedBodyEE10deallocateERS1_PS0_m = comdat any

$_ZN9__gnu_cxx13new_allocatorI13ProjectedBodyE10deallocateEPS1_m = comdat any

@_ZStL8__ioinit = internal global %"class.std::ios_base::Init" zeroinitializer, align 1, !dbg !0
@__dso_handle = external hidden global i8
@.str = private unnamed_addr constant [26 x i8] c"vector::_M_default_append\00", align 1, !dbg !7
@llvm.global_ctors = appending global [1 x { i32, ptr, ptr }] [{ i32, ptr, ptr } { i32 65535, ptr @_GLOBAL__sub_I_ImageProjection.cpp, ptr null }]

; Function Attrs: noinline uwtable
define internal void @__cxx_global_var_init() #0 section ".text.startup" !dbg !1994 {
  call void @_ZNSt8ios_base4InitC1Ev(ptr noundef nonnull align 1 dereferenceable(1) @_ZStL8__ioinit), !dbg !1995
  %1 = call i32 @__cxa_atexit(ptr @_ZNSt8ios_base4InitD1Ev, ptr @_ZStL8__ioinit, ptr @__dso_handle) #3, !dbg !1997
  ret void, !dbg !1995
}

declare void @_ZNSt8ios_base4InitC1Ev(ptr noundef nonnull align 1 dereferenceable(1)) unnamed_addr #1

; Function Attrs: nounwind
declare void @_ZNSt8ios_base4InitD1Ev(ptr noundef nonnull align 1 dereferenceable(1)) unnamed_addr #2

; Function Attrs: nounwind
declare i32 @__cxa_atexit(ptr, ptr, ptr) #3

; Function Attrs: mustprogress noinline optnone uwtable
define dso_local void @_ZN17ProjectedCylinder15ImageProjectionERK10KTCylinderR6Camera(ptr noundef nonnull align 4 dereferenceable(32) %0, ptr noundef nonnull align 4 dereferenceable(60) %1, ptr noundef nonnull align 4 dereferenceable(160) %2) #4 align 2 personality ptr @__gxx_personality_v0 !dbg !1998 {
  %4 = alloca ptr, align 8
  %5 = alloca ptr, align 8
  %6 = alloca ptr, align 8
  %7 = alloca %class.Vector3, align 4
  %8 = alloca %class.Vector3, align 4
  %9 = alloca %class.Vector3, align 4
  %10 = alloca %class.DMatrix, align 4
  %11 = alloca ptr, align 8
  %12 = alloca i32, align 4
  %13 = alloca double, align 8
  %14 = alloca float, align 4
  %15 = alloca %class.Vector3, align 4
  %16 = alloca [4 x %class.Vector3], align 16
  %17 = alloca %class.Vector3, align 4
  %18 = alloca %class.Vector3, align 4
  %19 = alloca %class.Vector3, align 4
  %20 = alloca %class.Vector3, align 4
  %21 = alloca i32, align 4
  store ptr %0, ptr %4, align 8
  call void @llvm.dbg.declare(metadata ptr %4, metadata !1999, metadata !DIExpression()), !dbg !2000
  store ptr %1, ptr %5, align 8
  call void @llvm.dbg.declare(metadata ptr %5, metadata !2001, metadata !DIExpression()), !dbg !2002
  store ptr %2, ptr %6, align 8
  call void @llvm.dbg.declare(metadata ptr %6, metadata !2003, metadata !DIExpression()), !dbg !2004
  %22 = load ptr, ptr %4, align 8
  call void @llvm.dbg.declare(metadata ptr %7, metadata !2005, metadata !DIExpression()), !dbg !2006
  %23 = load ptr, ptr %5, align 8, !dbg !2007
  %24 = getelementptr inbounds %class.KTCylinder, ptr %23, i32 0, i32 2, !dbg !2008
  %25 = load float, ptr %24, align 4, !dbg !2008
  %26 = fdiv float %25, 2.000000e+00, !dbg !2009
  call void @_ZN7Vector3IfEC2Efff(ptr noundef nonnull align 4 dereferenceable(12) %7, float noundef 0.000000e+00, float noundef 0.000000e+00, float noundef %26), !dbg !2006
  call void @llvm.dbg.declare(metadata ptr %8, metadata !2010, metadata !DIExpression()), !dbg !2011
  %27 = load ptr, ptr %5, align 8, !dbg !2012
  %28 = getelementptr inbounds %class.KTCylinder, ptr %27, i32 0, i32 3, !dbg !2013
  invoke void @_Z7InverseIfE7DMatrixIT_ERKS2_(ptr sret(%class.DMatrix) align 4 %10, ptr noundef nonnull align 4 dereferenceable(48) %28)
          to label %29 unwind label %194, !dbg !2014

29:                                               ; preds = %3
  %30 = load ptr, ptr %6, align 8, !dbg !2015
  %31 = getelementptr inbounds %class.Camera, ptr %30, i32 0, i32 8, !dbg !2016
  invoke void @_ZmlIffE7Vector3IT_ERK7DMatrixIT0_ERKS2_(ptr sret(%class.Vector3) align 4 %9, ptr noundef nonnull align 4 dereferenceable(48) %10, ptr noundef nonnull align 4 dereferenceable(12) %31)
          to label %32 unwind label %198, !dbg !2017

32:                                               ; preds = %29
  invoke void @_ZNK7Vector3IfEmiERKS0_(ptr sret(%class.Vector3) align 4 %8, ptr noundef nonnull align 4 dereferenceable(12) %7, ptr noundef nonnull align 4 dereferenceable(12) %9)
          to label %33 unwind label %202, !dbg !2018

33:                                               ; preds = %32
  call void @_ZN7Vector3IfED2Ev(ptr noundef nonnull align 4 dereferenceable(12) %9) #3, !dbg !2019
  call void @_ZN7DMatrixIfED2Ev(ptr noundef nonnull align 4 dereferenceable(48) %10) #3, !dbg !2019
  call void @llvm.dbg.declare(metadata ptr %13, metadata !2020, metadata !DIExpression()), !dbg !2021
  %34 = getelementptr inbounds %class.Vector3, ptr %8, i32 0, i32 0, !dbg !2022
  %35 = load float, ptr %34, align 4, !dbg !2022
  %36 = getelementptr inbounds %class.Vector3, ptr %8, i32 0, i32 0, !dbg !2023
  %37 = load float, ptr %36, align 4, !dbg !2023
  %38 = getelementptr inbounds %class.Vector3, ptr %8, i32 0, i32 1, !dbg !2024
  %39 = load float, ptr %38, align 4, !dbg !2024
  %40 = getelementptr inbounds %class.Vector3, ptr %8, i32 0, i32 1, !dbg !2025
  %41 = load float, ptr %40, align 4, !dbg !2025
  %42 = fmul float %39, %41, !dbg !2026
  %43 = call float @llvm.fmuladd.f32(float %35, float %37, float %42), !dbg !2027
  %44 = fpext float %43 to double, !dbg !2028
  store double %44, ptr %13, align 8, !dbg !2021
  call void @llvm.dbg.declare(metadata ptr %14, metadata !2029, metadata !DIExpression()), !dbg !2030
  %45 = load double, ptr %13, align 8, !dbg !2031
  %46 = call double @sqrt(double noundef %45) #3, !dbg !2032
  %47 = fptrunc double %46 to float, !dbg !2032
  store float %47, ptr %14, align 4, !dbg !2030
  call void @llvm.dbg.declare(metadata ptr %15, metadata !2033, metadata !DIExpression()), !dbg !2034
  %48 = getelementptr inbounds %class.Vector3, ptr %8, i32 0, i32 1, !dbg !2035
  %49 = load float, ptr %48, align 4, !dbg !2035
  %50 = fneg float %49, !dbg !2036
  %51 = load float, ptr %14, align 4, !dbg !2037
  %52 = fdiv float %50, %51, !dbg !2038
  %53 = getelementptr inbounds %class.Vector3, ptr %8, i32 0, i32 0, !dbg !2039
  %54 = load float, ptr %53, align 4, !dbg !2039
  %55 = load float, ptr %14, align 4, !dbg !2040
  %56 = fdiv float %54, %55, !dbg !2041
  invoke void @_ZN7Vector3IfEC2Efff(ptr noundef nonnull align 4 dereferenceable(12) %15, float noundef %52, float noundef %56, float noundef 0.000000e+00)
          to label %57 unwind label %207, !dbg !2034

57:                                               ; preds = %33
  call void @llvm.dbg.declare(metadata ptr %16, metadata !2042, metadata !DIExpression()), !dbg !2044
  %58 = getelementptr inbounds [4 x %class.Vector3], ptr %16, i32 0, i32 0, !dbg !2044
  %59 = getelementptr inbounds %class.Vector3, ptr %58, i64 4, !dbg !2044
  br label %60, !dbg !2044

60:                                               ; preds = %62, %57
  %61 = phi ptr [ %58, %57 ], [ %63, %62 ], !dbg !2044
  invoke void @_ZN7Vector3IfEC2Ev(ptr noundef nonnull align 4 dereferenceable(12) %61)
          to label %62 unwind label %211, !dbg !2044

62:                                               ; preds = %60
  %63 = getelementptr inbounds %class.Vector3, ptr %61, i64 1, !dbg !2044
  %64 = icmp eq ptr %63, %59, !dbg !2044
  br i1 %64, label %65, label %60, !dbg !2044

65:                                               ; preds = %62
  %66 = getelementptr inbounds [4 x %class.Vector3], ptr %16, i64 0, i64 0, !dbg !2045
  %67 = load ptr, ptr %5, align 8, !dbg !2046
  %68 = getelementptr inbounds %class.KTCylinder, ptr %67, i32 0, i32 0, !dbg !2047
  %69 = load float, ptr %68, align 4, !dbg !2047
  %70 = fneg float %69, !dbg !2048
  %71 = getelementptr inbounds %class.Vector3, ptr %15, i32 0, i32 0, !dbg !2049
  %72 = load float, ptr %71, align 4, !dbg !2049
  %73 = fmul float %70, %72, !dbg !2050
  %74 = load ptr, ptr %5, align 8, !dbg !2051
  %75 = getelementptr inbounds %class.KTCylinder, ptr %74, i32 0, i32 0, !dbg !2052
  %76 = load float, ptr %75, align 4, !dbg !2052
  %77 = fneg float %76, !dbg !2053
  %78 = getelementptr inbounds %class.Vector3, ptr %15, i32 0, i32 1, !dbg !2054
  %79 = load float, ptr %78, align 4, !dbg !2054
  %80 = fmul float %77, %79, !dbg !2055
  %81 = load ptr, ptr %5, align 8, !dbg !2056
  %82 = getelementptr inbounds %class.KTCylinder, ptr %81, i32 0, i32 0, !dbg !2057
  %83 = load float, ptr %82, align 4, !dbg !2057
  %84 = fneg float %83, !dbg !2058
  %85 = getelementptr inbounds %class.Vector3, ptr %15, i32 0, i32 2, !dbg !2059
  %86 = load float, ptr %85, align 4, !dbg !2059
  %87 = fmul float %84, %86, !dbg !2060
  invoke void @_ZN7Vector3IfE3SetEfff(ptr noundef nonnull align 4 dereferenceable(12) %66, float noundef %73, float noundef %80, float noundef %87)
          to label %88 unwind label %221, !dbg !2061

88:                                               ; preds = %65
  %89 = getelementptr inbounds [4 x %class.Vector3], ptr %16, i64 0, i64 1, !dbg !2062
  %90 = load ptr, ptr %5, align 8, !dbg !2063
  %91 = getelementptr inbounds %class.KTCylinder, ptr %90, i32 0, i32 1, !dbg !2064
  %92 = load float, ptr %91, align 4, !dbg !2064
  %93 = fneg float %92, !dbg !2065
  %94 = getelementptr inbounds %class.Vector3, ptr %15, i32 0, i32 0, !dbg !2066
  %95 = load float, ptr %94, align 4, !dbg !2066
  %96 = fmul float %93, %95, !dbg !2067
  %97 = load ptr, ptr %5, align 8, !dbg !2068
  %98 = getelementptr inbounds %class.KTCylinder, ptr %97, i32 0, i32 1, !dbg !2069
  %99 = load float, ptr %98, align 4, !dbg !2069
  %100 = fneg float %99, !dbg !2070
  %101 = getelementptr inbounds %class.Vector3, ptr %15, i32 0, i32 1, !dbg !2071
  %102 = load float, ptr %101, align 4, !dbg !2071
  %103 = fmul float %100, %102, !dbg !2072
  %104 = load ptr, ptr %5, align 8, !dbg !2073
  %105 = getelementptr inbounds %class.KTCylinder, ptr %104, i32 0, i32 2, !dbg !2074
  %106 = load float, ptr %105, align 4, !dbg !2074
  %107 = load ptr, ptr %5, align 8, !dbg !2075
  %108 = getelementptr inbounds %class.KTCylinder, ptr %107, i32 0, i32 1, !dbg !2076
  %109 = load float, ptr %108, align 4, !dbg !2076
  %110 = getelementptr inbounds %class.Vector3, ptr %15, i32 0, i32 2, !dbg !2077
  %111 = load float, ptr %110, align 4, !dbg !2077
  %112 = fneg float %109, !dbg !2078
  %113 = call float @llvm.fmuladd.f32(float %112, float %111, float %106), !dbg !2078
  invoke void @_ZN7Vector3IfE3SetEfff(ptr noundef nonnull align 4 dereferenceable(12) %89, float noundef %96, float noundef %103, float noundef %113)
          to label %114 unwind label %221, !dbg !2079

114:                                              ; preds = %88
  %115 = getelementptr inbounds [4 x %class.Vector3], ptr %16, i64 0, i64 2, !dbg !2080
  %116 = load ptr, ptr %5, align 8, !dbg !2081
  %117 = getelementptr inbounds %class.KTCylinder, ptr %116, i32 0, i32 1, !dbg !2082
  %118 = load float, ptr %117, align 4, !dbg !2082
  %119 = getelementptr inbounds %class.Vector3, ptr %15, i32 0, i32 0, !dbg !2083
  %120 = load float, ptr %119, align 4, !dbg !2083
  %121 = fmul float %118, %120, !dbg !2084
  %122 = load ptr, ptr %5, align 8, !dbg !2085
  %123 = getelementptr inbounds %class.KTCylinder, ptr %122, i32 0, i32 1, !dbg !2086
  %124 = load float, ptr %123, align 4, !dbg !2086
  %125 = getelementptr inbounds %class.Vector3, ptr %15, i32 0, i32 1, !dbg !2087
  %126 = load float, ptr %125, align 4, !dbg !2087
  %127 = fmul float %124, %126, !dbg !2088
  %128 = load ptr, ptr %5, align 8, !dbg !2089
  %129 = getelementptr inbounds %class.KTCylinder, ptr %128, i32 0, i32 2, !dbg !2090
  %130 = load float, ptr %129, align 4, !dbg !2090
  %131 = load ptr, ptr %5, align 8, !dbg !2091
  %132 = getelementptr inbounds %class.KTCylinder, ptr %131, i32 0, i32 1, !dbg !2092
  %133 = load float, ptr %132, align 4, !dbg !2092
  %134 = getelementptr inbounds %class.Vector3, ptr %15, i32 0, i32 2, !dbg !2093
  %135 = load float, ptr %134, align 4, !dbg !2093
  %136 = call float @llvm.fmuladd.f32(float %133, float %135, float %130), !dbg !2094
  invoke void @_ZN7Vector3IfE3SetEfff(ptr noundef nonnull align 4 dereferenceable(12) %115, float noundef %121, float noundef %127, float noundef %136)
          to label %137 unwind label %221, !dbg !2095

137:                                              ; preds = %114
  %138 = getelementptr inbounds [4 x %class.Vector3], ptr %16, i64 0, i64 3, !dbg !2096
  %139 = load ptr, ptr %5, align 8, !dbg !2097
  %140 = getelementptr inbounds %class.KTCylinder, ptr %139, i32 0, i32 0, !dbg !2098
  %141 = load float, ptr %140, align 4, !dbg !2098
  %142 = getelementptr inbounds %class.Vector3, ptr %15, i32 0, i32 0, !dbg !2099
  %143 = load float, ptr %142, align 4, !dbg !2099
  %144 = fmul float %141, %143, !dbg !2100
  %145 = load ptr, ptr %5, align 8, !dbg !2101
  %146 = getelementptr inbounds %class.KTCylinder, ptr %145, i32 0, i32 0, !dbg !2102
  %147 = load float, ptr %146, align 4, !dbg !2102
  %148 = getelementptr inbounds %class.Vector3, ptr %15, i32 0, i32 1, !dbg !2103
  %149 = load float, ptr %148, align 4, !dbg !2103
  %150 = fmul float %147, %149, !dbg !2104
  %151 = load ptr, ptr %5, align 8, !dbg !2105
  %152 = getelementptr inbounds %class.KTCylinder, ptr %151, i32 0, i32 0, !dbg !2106
  %153 = load float, ptr %152, align 4, !dbg !2106
  %154 = getelementptr inbounds %class.Vector3, ptr %15, i32 0, i32 2, !dbg !2107
  %155 = load float, ptr %154, align 4, !dbg !2107
  %156 = fmul float %153, %155, !dbg !2108
  invoke void @_ZN7Vector3IfE3SetEfff(ptr noundef nonnull align 4 dereferenceable(12) %138, float noundef %144, float noundef %150, float noundef %156)
          to label %157 unwind label %221, !dbg !2109

157:                                              ; preds = %137
  %158 = load ptr, ptr %5, align 8, !dbg !2110
  %159 = getelementptr inbounds %class.KTCylinder, ptr %158, i32 0, i32 3, !dbg !2111
  %160 = getelementptr inbounds [4 x %class.Vector3], ptr %16, i64 0, i64 0, !dbg !2112
  invoke void @_ZmlIffE7Vector3IT_ERK7DMatrixIT0_ERKS2_(ptr sret(%class.Vector3) align 4 %17, ptr noundef nonnull align 4 dereferenceable(48) %159, ptr noundef nonnull align 4 dereferenceable(12) %160)
          to label %161 unwind label %221, !dbg !2113

161:                                              ; preds = %157
  %162 = getelementptr inbounds [4 x %class.Vector3], ptr %16, i64 0, i64 0, !dbg !2114
  call void @llvm.memcpy.p0.p0.i64(ptr align 16 %162, ptr align 4 %17, i64 12, i1 false), !dbg !2115
  call void @_ZN7Vector3IfED2Ev(ptr noundef nonnull align 4 dereferenceable(12) %17) #3, !dbg !2114
  %163 = load ptr, ptr %5, align 8, !dbg !2116
  %164 = getelementptr inbounds %class.KTCylinder, ptr %163, i32 0, i32 3, !dbg !2117
  %165 = getelementptr inbounds [4 x %class.Vector3], ptr %16, i64 0, i64 1, !dbg !2118
  invoke void @_ZmlIffE7Vector3IT_ERK7DMatrixIT0_ERKS2_(ptr sret(%class.Vector3) align 4 %18, ptr noundef nonnull align 4 dereferenceable(48) %164, ptr noundef nonnull align 4 dereferenceable(12) %165)
          to label %166 unwind label %221, !dbg !2119

166:                                              ; preds = %161
  %167 = getelementptr inbounds [4 x %class.Vector3], ptr %16, i64 0, i64 1, !dbg !2120
  call void @llvm.memcpy.p0.p0.i64(ptr align 4 %167, ptr align 4 %18, i64 12, i1 false), !dbg !2121
  call void @_ZN7Vector3IfED2Ev(ptr noundef nonnull align 4 dereferenceable(12) %18) #3, !dbg !2120
  %168 = load ptr, ptr %5, align 8, !dbg !2122
  %169 = getelementptr inbounds %class.KTCylinder, ptr %168, i32 0, i32 3, !dbg !2123
  %170 = getelementptr inbounds [4 x %class.Vector3], ptr %16, i64 0, i64 2, !dbg !2124
  invoke void @_ZmlIffE7Vector3IT_ERK7DMatrixIT0_ERKS2_(ptr sret(%class.Vector3) align 4 %19, ptr noundef nonnull align 4 dereferenceable(48) %169, ptr noundef nonnull align 4 dereferenceable(12) %170)
          to label %171 unwind label %221, !dbg !2125

171:                                              ; preds = %166
  %172 = getelementptr inbounds [4 x %class.Vector3], ptr %16, i64 0, i64 2, !dbg !2126
  call void @llvm.memcpy.p0.p0.i64(ptr align 8 %172, ptr align 4 %19, i64 12, i1 false), !dbg !2127
  call void @_ZN7Vector3IfED2Ev(ptr noundef nonnull align 4 dereferenceable(12) %19) #3, !dbg !2126
  %173 = load ptr, ptr %5, align 8, !dbg !2128
  %174 = getelementptr inbounds %class.KTCylinder, ptr %173, i32 0, i32 3, !dbg !2129
  %175 = getelementptr inbounds [4 x %class.Vector3], ptr %16, i64 0, i64 3, !dbg !2130
  invoke void @_ZmlIffE7Vector3IT_ERK7DMatrixIT0_ERKS2_(ptr sret(%class.Vector3) align 4 %20, ptr noundef nonnull align 4 dereferenceable(48) %174, ptr noundef nonnull align 4 dereferenceable(12) %175)
          to label %176 unwind label %221, !dbg !2131

176:                                              ; preds = %171
  %177 = getelementptr inbounds [4 x %class.Vector3], ptr %16, i64 0, i64 3, !dbg !2132
  call void @llvm.memcpy.p0.p0.i64(ptr align 4 %177, ptr align 4 %20, i64 12, i1 false), !dbg !2133
  call void @_ZN7Vector3IfED2Ev(ptr noundef nonnull align 4 dereferenceable(12) %20) #3, !dbg !2132
  call void @llvm.dbg.declare(metadata ptr %21, metadata !2134, metadata !DIExpression()), !dbg !2136
  store i32 0, ptr %21, align 4, !dbg !2136
  br label %178, !dbg !2137

178:                                              ; preds = %191, %176
  %179 = load i32, ptr %21, align 4, !dbg !2138
  %180 = icmp slt i32 %179, 4, !dbg !2140
  br i1 %180, label %181, label %227, !dbg !2141

181:                                              ; preds = %178
  %182 = load i32, ptr %21, align 4, !dbg !2142
  %183 = sext i32 %182 to i64, !dbg !2143
  %184 = getelementptr inbounds [4 x %class.Vector3], ptr %16, i64 0, i64 %183, !dbg !2143
  %185 = getelementptr inbounds %class.ProjectedCylinder, ptr %22, i32 0, i32 0, !dbg !2144
  %186 = load i32, ptr %21, align 4, !dbg !2145
  %187 = sext i32 %186 to i64, !dbg !2144
  %188 = getelementptr inbounds [4 x %class.Point], ptr %185, i64 0, i64 %187, !dbg !2144
  %189 = load ptr, ptr %6, align 8, !dbg !2146
  invoke void @_Z13ProjectPointsR7Vector3IfER5PointR6Camera(ptr noundef nonnull align 4 dereferenceable(12) %184, ptr noundef nonnull align 4 dereferenceable(8) %188, ptr noundef nonnull align 4 dereferenceable(160) %189)
          to label %190 unwind label %221, !dbg !2147

190:                                              ; preds = %181
  br label %191, !dbg !2147

191:                                              ; preds = %190
  %192 = load i32, ptr %21, align 4, !dbg !2148
  %193 = add nsw i32 %192, 1, !dbg !2148
  store i32 %193, ptr %21, align 4, !dbg !2148
  br label %178, !dbg !2149, !llvm.loop !2150

194:                                              ; preds = %3
  %195 = landingpad { ptr, i32 }
          cleanup, !dbg !2153
  %196 = extractvalue { ptr, i32 } %195, 0, !dbg !2153
  store ptr %196, ptr %11, align 8, !dbg !2153
  %197 = extractvalue { ptr, i32 } %195, 1, !dbg !2153
  store i32 %197, ptr %12, align 4, !dbg !2153
  br label %242, !dbg !2153

198:                                              ; preds = %29
  %199 = landingpad { ptr, i32 }
          cleanup, !dbg !2153
  %200 = extractvalue { ptr, i32 } %199, 0, !dbg !2153
  store ptr %200, ptr %11, align 8, !dbg !2153
  %201 = extractvalue { ptr, i32 } %199, 1, !dbg !2153
  store i32 %201, ptr %12, align 4, !dbg !2153
  br label %206, !dbg !2153

202:                                              ; preds = %32
  %203 = landingpad { ptr, i32 }
          cleanup, !dbg !2153
  %204 = extractvalue { ptr, i32 } %203, 0, !dbg !2153
  store ptr %204, ptr %11, align 8, !dbg !2153
  %205 = extractvalue { ptr, i32 } %203, 1, !dbg !2153
  store i32 %205, ptr %12, align 4, !dbg !2153
  call void @_ZN7Vector3IfED2Ev(ptr noundef nonnull align 4 dereferenceable(12) %9) #3, !dbg !2019
  br label %206, !dbg !2019

206:                                              ; preds = %202, %198
  call void @_ZN7DMatrixIfED2Ev(ptr noundef nonnull align 4 dereferenceable(48) %10) #3, !dbg !2019
  br label %242, !dbg !2019

207:                                              ; preds = %33
  %208 = landingpad { ptr, i32 }
          cleanup, !dbg !2153
  %209 = extractvalue { ptr, i32 } %208, 0, !dbg !2153
  store ptr %209, ptr %11, align 8, !dbg !2153
  %210 = extractvalue { ptr, i32 } %208, 1, !dbg !2153
  store i32 %210, ptr %12, align 4, !dbg !2153
  br label %241, !dbg !2153

211:                                              ; preds = %60
  %212 = landingpad { ptr, i32 }
          cleanup, !dbg !2153
  %213 = extractvalue { ptr, i32 } %212, 0, !dbg !2153
  store ptr %213, ptr %11, align 8, !dbg !2153
  %214 = extractvalue { ptr, i32 } %212, 1, !dbg !2153
  store i32 %214, ptr %12, align 4, !dbg !2153
  %215 = icmp eq ptr %58, %61, !dbg !2044
  br i1 %215, label %220, label %216, !dbg !2044

216:                                              ; preds = %216, %211
  %217 = phi ptr [ %61, %211 ], [ %218, %216 ], !dbg !2044
  %218 = getelementptr inbounds %class.Vector3, ptr %217, i64 -1, !dbg !2044
  call void @_ZN7Vector3IfED2Ev(ptr noundef nonnull align 4 dereferenceable(12) %218) #3, !dbg !2044
  %219 = icmp eq ptr %218, %58, !dbg !2044
  br i1 %219, label %220, label %216, !dbg !2044

220:                                              ; preds = %216, %211
  br label %240, !dbg !2044

221:                                              ; preds = %181, %171, %166, %161, %157, %137, %114, %88, %65
  %222 = landingpad { ptr, i32 }
          cleanup, !dbg !2153
  %223 = extractvalue { ptr, i32 } %222, 0, !dbg !2153
  store ptr %223, ptr %11, align 8, !dbg !2153
  %224 = extractvalue { ptr, i32 } %222, 1, !dbg !2153
  store i32 %224, ptr %12, align 4, !dbg !2153
  %225 = getelementptr inbounds [4 x %class.Vector3], ptr %16, i32 0, i32 0, !dbg !2153
  %226 = getelementptr inbounds %class.Vector3, ptr %225, i64 4, !dbg !2153
  br label %235, !dbg !2153

227:                                              ; preds = %178
  %228 = getelementptr inbounds [4 x %class.Vector3], ptr %16, i32 0, i32 0, !dbg !2153
  %229 = getelementptr inbounds %class.Vector3, ptr %228, i64 4, !dbg !2153
  br label %230, !dbg !2153

230:                                              ; preds = %230, %227
  %231 = phi ptr [ %229, %227 ], [ %232, %230 ], !dbg !2153
  %232 = getelementptr inbounds %class.Vector3, ptr %231, i64 -1, !dbg !2153
  call void @_ZN7Vector3IfED2Ev(ptr noundef nonnull align 4 dereferenceable(12) %232) #3, !dbg !2153
  %233 = icmp eq ptr %232, %228, !dbg !2153
  br i1 %233, label %234, label %230, !dbg !2153

234:                                              ; preds = %230
  call void @_ZN7Vector3IfED2Ev(ptr noundef nonnull align 4 dereferenceable(12) %15) #3, !dbg !2153
  call void @_ZN7Vector3IfED2Ev(ptr noundef nonnull align 4 dereferenceable(12) %8) #3, !dbg !2153
  call void @_ZN7Vector3IfED2Ev(ptr noundef nonnull align 4 dereferenceable(12) %7) #3, !dbg !2153
  ret void, !dbg !2153

235:                                              ; preds = %235, %221
  %236 = phi ptr [ %226, %221 ], [ %237, %235 ], !dbg !2153
  %237 = getelementptr inbounds %class.Vector3, ptr %236, i64 -1, !dbg !2153
  call void @_ZN7Vector3IfED2Ev(ptr noundef nonnull align 4 dereferenceable(12) %237) #3, !dbg !2153
  %238 = icmp eq ptr %237, %225, !dbg !2153
  br i1 %238, label %239, label %235, !dbg !2153

239:                                              ; preds = %235
  br label %240, !dbg !2153

240:                                              ; preds = %239, %220
  call void @_ZN7Vector3IfED2Ev(ptr noundef nonnull align 4 dereferenceable(12) %15) #3, !dbg !2153
  br label %241, !dbg !2153

241:                                              ; preds = %240, %207
  call void @_ZN7Vector3IfED2Ev(ptr noundef nonnull align 4 dereferenceable(12) %8) #3, !dbg !2153
  br label %242, !dbg !2153

242:                                              ; preds = %241, %206, %194
  call void @_ZN7Vector3IfED2Ev(ptr noundef nonnull align 4 dereferenceable(12) %7) #3, !dbg !2153
  br label %243, !dbg !2153

243:                                              ; preds = %242
  %244 = load ptr, ptr %11, align 8, !dbg !2153
  %245 = load i32, ptr %12, align 4, !dbg !2153
  %246 = insertvalue { ptr, i32 } poison, ptr %244, 0, !dbg !2153
  %247 = insertvalue { ptr, i32 } %246, i32 %245, 1, !dbg !2153
  resume { ptr, i32 } %247, !dbg !2153
}

; Function Attrs: nocallback nofree nosync nounwind speculatable willreturn memory(none)
declare void @llvm.dbg.declare(metadata, metadata, metadata) #5

; Function Attrs: noinline nounwind optnone uwtable
define linkonce_odr dso_local void @_ZN7Vector3IfEC2Efff(ptr noundef nonnull align 4 dereferenceable(12) %0, float noundef %1, float noundef %2, float noundef %3) unnamed_addr #6 comdat align 2 !dbg !2154 {
  %5 = alloca ptr, align 8
  %6 = alloca float, align 4
  %7 = alloca float, align 4
  %8 = alloca float, align 4
  store ptr %0, ptr %5, align 8
  call void @llvm.dbg.declare(metadata ptr %5, metadata !2155, metadata !DIExpression()), !dbg !2157
  store float %1, ptr %6, align 4
  call void @llvm.dbg.declare(metadata ptr %6, metadata !2158, metadata !DIExpression()), !dbg !2159
  store float %2, ptr %7, align 4
  call void @llvm.dbg.declare(metadata ptr %7, metadata !2160, metadata !DIExpression()), !dbg !2161
  store float %3, ptr %8, align 4
  call void @llvm.dbg.declare(metadata ptr %8, metadata !2162, metadata !DIExpression()), !dbg !2163
  %9 = load ptr, ptr %5, align 8
  %10 = load float, ptr %6, align 4, !dbg !2164
  %11 = getelementptr inbounds %class.Vector3, ptr %9, i32 0, i32 0, !dbg !2166
  store float %10, ptr %11, align 4, !dbg !2167
  %12 = load float, ptr %7, align 4, !dbg !2168
  %13 = getelementptr inbounds %class.Vector3, ptr %9, i32 0, i32 1, !dbg !2169
  store float %12, ptr %13, align 4, !dbg !2170
  %14 = load float, ptr %8, align 4, !dbg !2171
  %15 = getelementptr inbounds %class.Vector3, ptr %9, i32 0, i32 2, !dbg !2172
  store float %14, ptr %15, align 4, !dbg !2173
  ret void, !dbg !2174
}

; Function Attrs: mustprogress noinline optnone uwtable
define linkonce_odr dso_local void @_ZNK7Vector3IfEmiERKS0_(ptr noalias sret(%class.Vector3) align 4 %0, ptr noundef nonnull align 4 dereferenceable(12) %1, ptr noundef nonnull align 4 dereferenceable(12) %2) #4 comdat align 2 !dbg !2175 {
  %4 = alloca ptr, align 8
  %5 = alloca ptr, align 8
  %6 = alloca ptr, align 8
  store ptr %0, ptr %4, align 8
  store ptr %1, ptr %5, align 8
  call void @llvm.dbg.declare(metadata ptr %5, metadata !2176, metadata !DIExpression()), !dbg !2178
  store ptr %2, ptr %6, align 8
  call void @llvm.dbg.declare(metadata ptr %6, metadata !2179, metadata !DIExpression()), !dbg !2180
  %7 = load ptr, ptr %5, align 8
  %8 = getelementptr inbounds %class.Vector3, ptr %7, i32 0, i32 0, !dbg !2181
  %9 = load float, ptr %8, align 4, !dbg !2181
  %10 = load ptr, ptr %6, align 8, !dbg !2182
  %11 = getelementptr inbounds %class.Vector3, ptr %10, i32 0, i32 0, !dbg !2183
  %12 = load float, ptr %11, align 4, !dbg !2183
  %13 = fsub float %9, %12, !dbg !2184
  %14 = getelementptr inbounds %class.Vector3, ptr %7, i32 0, i32 1, !dbg !2185
  %15 = load float, ptr %14, align 4, !dbg !2185
  %16 = load ptr, ptr %6, align 8, !dbg !2186
  %17 = getelementptr inbounds %class.Vector3, ptr %16, i32 0, i32 1, !dbg !2187
  %18 = load float, ptr %17, align 4, !dbg !2187
  %19 = fsub float %15, %18, !dbg !2188
  %20 = getelementptr inbounds %class.Vector3, ptr %7, i32 0, i32 2, !dbg !2189
  %21 = load float, ptr %20, align 4, !dbg !2189
  %22 = load ptr, ptr %6, align 8, !dbg !2190
  %23 = getelementptr inbounds %class.Vector3, ptr %22, i32 0, i32 2, !dbg !2191
  %24 = load float, ptr %23, align 4, !dbg !2191
  %25 = fsub float %21, %24, !dbg !2192
  call void @_ZN7Vector3IfEC2Efff(ptr noundef nonnull align 4 dereferenceable(12) %0, float noundef %13, float noundef %19, float noundef %25), !dbg !2193
  ret void, !dbg !2194
}

; Function Attrs: mustprogress noinline optnone uwtable
define linkonce_odr dso_local void @_ZmlIffE7Vector3IT_ERK7DMatrixIT0_ERKS2_(ptr noalias sret(%class.Vector3) align 4 %0, ptr noundef nonnull align 4 dereferenceable(48) %1, ptr noundef nonnull align 4 dereferenceable(12) %2) #4 comdat personality ptr @__gxx_personality_v0 !dbg !2195 {
  %4 = alloca ptr, align 8
  %5 = alloca ptr, align 8
  %6 = alloca ptr, align 8
  %7 = alloca i1, align 1
  %8 = alloca ptr, align 8
  %9 = alloca ptr, align 8
  %10 = alloca i32, align 4
  store ptr %0, ptr %4, align 8
  store ptr %1, ptr %5, align 8
  call void @llvm.dbg.declare(metadata ptr %5, metadata !2203, metadata !DIExpression()), !dbg !2204
  store ptr %2, ptr %6, align 8
  call void @llvm.dbg.declare(metadata ptr %6, metadata !2205, metadata !DIExpression()), !dbg !2206
  store i1 false, ptr %7, align 1, !dbg !2207
  call void @llvm.dbg.declare(metadata ptr %4, metadata !2208, metadata !DIExpression(DW_OP_deref)), !dbg !2209
  call void @_ZN7Vector3IfEC2Ev(ptr noundef nonnull align 4 dereferenceable(12) %0), !dbg !2209
  call void @llvm.dbg.declare(metadata ptr %8, metadata !2210, metadata !DIExpression()), !dbg !2212
  %11 = load ptr, ptr %5, align 8, !dbg !2213
  store ptr %11, ptr %8, align 8, !dbg !2212
  %12 = load ptr, ptr %8, align 8, !dbg !2214
  %13 = invoke noundef nonnull align 4 dereferenceable(4) ptr @_ZN7DMatrixIfEclEii(ptr noundef nonnull align 4 dereferenceable(48) %12, i32 noundef 0, i32 noundef 0)
          to label %14 unwind label %103, !dbg !2214

14:                                               ; preds = %3
  %15 = load float, ptr %13, align 4, !dbg !2214
  %16 = load ptr, ptr %6, align 8, !dbg !2215
  %17 = getelementptr inbounds %class.Vector3, ptr %16, i32 0, i32 0, !dbg !2216
  %18 = load float, ptr %17, align 4, !dbg !2216
  %19 = load ptr, ptr %8, align 8, !dbg !2217
  %20 = invoke noundef nonnull align 4 dereferenceable(4) ptr @_ZN7DMatrixIfEclEii(ptr noundef nonnull align 4 dereferenceable(48) %19, i32 noundef 0, i32 noundef 1)
          to label %21 unwind label %103, !dbg !2217

21:                                               ; preds = %14
  %22 = load float, ptr %20, align 4, !dbg !2217
  %23 = load ptr, ptr %6, align 8, !dbg !2218
  %24 = getelementptr inbounds %class.Vector3, ptr %23, i32 0, i32 1, !dbg !2219
  %25 = load float, ptr %24, align 4, !dbg !2219
  %26 = fmul float %22, %25, !dbg !2220
  %27 = call float @llvm.fmuladd.f32(float %15, float %18, float %26), !dbg !2221
  %28 = load ptr, ptr %8, align 8, !dbg !2222
  %29 = invoke noundef nonnull align 4 dereferenceable(4) ptr @_ZN7DMatrixIfEclEii(ptr noundef nonnull align 4 dereferenceable(48) %28, i32 noundef 0, i32 noundef 2)
          to label %30 unwind label %103, !dbg !2222

30:                                               ; preds = %21
  %31 = load float, ptr %29, align 4, !dbg !2222
  %32 = load ptr, ptr %6, align 8, !dbg !2223
  %33 = getelementptr inbounds %class.Vector3, ptr %32, i32 0, i32 2, !dbg !2224
  %34 = load float, ptr %33, align 4, !dbg !2224
  %35 = call float @llvm.fmuladd.f32(float %31, float %34, float %27), !dbg !2225
  %36 = load ptr, ptr %8, align 8, !dbg !2226
  %37 = invoke noundef nonnull align 4 dereferenceable(4) ptr @_ZN7DMatrixIfEclEii(ptr noundef nonnull align 4 dereferenceable(48) %36, i32 noundef 0, i32 noundef 3)
          to label %38 unwind label %103, !dbg !2226

38:                                               ; preds = %30
  %39 = load float, ptr %37, align 4, !dbg !2226
  %40 = fadd float %35, %39, !dbg !2227
  %41 = getelementptr inbounds %class.Vector3, ptr %0, i32 0, i32 0, !dbg !2228
  store float %40, ptr %41, align 4, !dbg !2229
  %42 = load ptr, ptr %8, align 8, !dbg !2230
  %43 = invoke noundef nonnull align 4 dereferenceable(4) ptr @_ZN7DMatrixIfEclEii(ptr noundef nonnull align 4 dereferenceable(48) %42, i32 noundef 1, i32 noundef 0)
          to label %44 unwind label %103, !dbg !2230

44:                                               ; preds = %38
  %45 = load float, ptr %43, align 4, !dbg !2230
  %46 = load ptr, ptr %6, align 8, !dbg !2231
  %47 = getelementptr inbounds %class.Vector3, ptr %46, i32 0, i32 0, !dbg !2232
  %48 = load float, ptr %47, align 4, !dbg !2232
  %49 = load ptr, ptr %8, align 8, !dbg !2233
  %50 = invoke noundef nonnull align 4 dereferenceable(4) ptr @_ZN7DMatrixIfEclEii(ptr noundef nonnull align 4 dereferenceable(48) %49, i32 noundef 1, i32 noundef 1)
          to label %51 unwind label %103, !dbg !2233

51:                                               ; preds = %44
  %52 = load float, ptr %50, align 4, !dbg !2233
  %53 = load ptr, ptr %6, align 8, !dbg !2234
  %54 = getelementptr inbounds %class.Vector3, ptr %53, i32 0, i32 1, !dbg !2235
  %55 = load float, ptr %54, align 4, !dbg !2235
  %56 = fmul float %52, %55, !dbg !2236
  %57 = call float @llvm.fmuladd.f32(float %45, float %48, float %56), !dbg !2237
  %58 = load ptr, ptr %8, align 8, !dbg !2238
  %59 = invoke noundef nonnull align 4 dereferenceable(4) ptr @_ZN7DMatrixIfEclEii(ptr noundef nonnull align 4 dereferenceable(48) %58, i32 noundef 1, i32 noundef 2)
          to label %60 unwind label %103, !dbg !2238

60:                                               ; preds = %51
  %61 = load float, ptr %59, align 4, !dbg !2238
  %62 = load ptr, ptr %6, align 8, !dbg !2239
  %63 = getelementptr inbounds %class.Vector3, ptr %62, i32 0, i32 2, !dbg !2240
  %64 = load float, ptr %63, align 4, !dbg !2240
  %65 = call float @llvm.fmuladd.f32(float %61, float %64, float %57), !dbg !2241
  %66 = load ptr, ptr %8, align 8, !dbg !2242
  %67 = invoke noundef nonnull align 4 dereferenceable(4) ptr @_ZN7DMatrixIfEclEii(ptr noundef nonnull align 4 dereferenceable(48) %66, i32 noundef 1, i32 noundef 3)
          to label %68 unwind label %103, !dbg !2242

68:                                               ; preds = %60
  %69 = load float, ptr %67, align 4, !dbg !2242
  %70 = fadd float %65, %69, !dbg !2243
  %71 = getelementptr inbounds %class.Vector3, ptr %0, i32 0, i32 1, !dbg !2244
  store float %70, ptr %71, align 4, !dbg !2245
  %72 = load ptr, ptr %8, align 8, !dbg !2246
  %73 = invoke noundef nonnull align 4 dereferenceable(4) ptr @_ZN7DMatrixIfEclEii(ptr noundef nonnull align 4 dereferenceable(48) %72, i32 noundef 2, i32 noundef 0)
          to label %74 unwind label %103, !dbg !2246

74:                                               ; preds = %68
  %75 = load float, ptr %73, align 4, !dbg !2246
  %76 = load ptr, ptr %6, align 8, !dbg !2247
  %77 = getelementptr inbounds %class.Vector3, ptr %76, i32 0, i32 0, !dbg !2248
  %78 = load float, ptr %77, align 4, !dbg !2248
  %79 = load ptr, ptr %8, align 8, !dbg !2249
  %80 = invoke noundef nonnull align 4 dereferenceable(4) ptr @_ZN7DMatrixIfEclEii(ptr noundef nonnull align 4 dereferenceable(48) %79, i32 noundef 2, i32 noundef 1)
          to label %81 unwind label %103, !dbg !2249

81:                                               ; preds = %74
  %82 = load float, ptr %80, align 4, !dbg !2249
  %83 = load ptr, ptr %6, align 8, !dbg !2250
  %84 = getelementptr inbounds %class.Vector3, ptr %83, i32 0, i32 1, !dbg !2251
  %85 = load float, ptr %84, align 4, !dbg !2251
  %86 = fmul float %82, %85, !dbg !2252
  %87 = call float @llvm.fmuladd.f32(float %75, float %78, float %86), !dbg !2253
  %88 = load ptr, ptr %8, align 8, !dbg !2254
  %89 = invoke noundef nonnull align 4 dereferenceable(4) ptr @_ZN7DMatrixIfEclEii(ptr noundef nonnull align 4 dereferenceable(48) %88, i32 noundef 2, i32 noundef 2)
          to label %90 unwind label %103, !dbg !2254

90:                                               ; preds = %81
  %91 = load float, ptr %89, align 4, !dbg !2254
  %92 = load ptr, ptr %6, align 8, !dbg !2255
  %93 = getelementptr inbounds %class.Vector3, ptr %92, i32 0, i32 2, !dbg !2256
  %94 = load float, ptr %93, align 4, !dbg !2256
  %95 = call float @llvm.fmuladd.f32(float %91, float %94, float %87), !dbg !2257
  %96 = load ptr, ptr %8, align 8, !dbg !2258
  %97 = invoke noundef nonnull align 4 dereferenceable(4) ptr @_ZN7DMatrixIfEclEii(ptr noundef nonnull align 4 dereferenceable(48) %96, i32 noundef 2, i32 noundef 3)
          to label %98 unwind label %103, !dbg !2258

98:                                               ; preds = %90
  %99 = load float, ptr %97, align 4, !dbg !2258
  %100 = fadd float %95, %99, !dbg !2259
  %101 = getelementptr inbounds %class.Vector3, ptr %0, i32 0, i32 2, !dbg !2260
  store float %100, ptr %101, align 4, !dbg !2261
  store i1 true, ptr %7, align 1, !dbg !2262
  %102 = load i1, ptr %7, align 1, !dbg !2263
  br i1 %102, label %108, label %107, !dbg !2263

103:                                              ; preds = %90, %81, %74, %68, %60, %51, %44, %38, %30, %21, %14, %3
  %104 = landingpad { ptr, i32 }
          cleanup, !dbg !2263
  %105 = extractvalue { ptr, i32 } %104, 0, !dbg !2263
  store ptr %105, ptr %9, align 8, !dbg !2263
  %106 = extractvalue { ptr, i32 } %104, 1, !dbg !2263
  store i32 %106, ptr %10, align 4, !dbg !2263
  call void @_ZN7Vector3IfED2Ev(ptr noundef nonnull align 4 dereferenceable(12) %0) #3, !dbg !2263
  br label %109, !dbg !2263

107:                                              ; preds = %98
  call void @_ZN7Vector3IfED2Ev(ptr noundef nonnull align 4 dereferenceable(12) %0) #3, !dbg !2263
  br label %108, !dbg !2263

108:                                              ; preds = %107, %98
  ret void, !dbg !2263

109:                                              ; preds = %103
  %110 = load ptr, ptr %9, align 8, !dbg !2263
  %111 = load i32, ptr %10, align 4, !dbg !2263
  %112 = insertvalue { ptr, i32 } poison, ptr %110, 0, !dbg !2263
  %113 = insertvalue { ptr, i32 } %112, i32 %111, 1, !dbg !2263
  resume { ptr, i32 } %113, !dbg !2263
}

; Function Attrs: mustprogress noinline optnone uwtable
define linkonce_odr dso_local void @_Z7InverseIfE7DMatrixIT_ERKS2_(ptr noalias sret(%class.DMatrix) align 4 %0, ptr noundef nonnull align 4 dereferenceable(48) %1) #4 comdat personality ptr @__gxx_personality_v0 !dbg !2264 {
  %3 = alloca ptr, align 8
  %4 = alloca ptr, align 8
  %5 = alloca i1, align 1
  %6 = alloca ptr, align 8
  %7 = alloca ptr, align 8
  %8 = alloca i32, align 4
  %9 = alloca float, align 4
  %10 = alloca float, align 4
  %11 = alloca float, align 4
  %12 = alloca float, align 4
  %13 = alloca %class.Vector3, align 4
  %14 = alloca %class.Vector3, align 4
  store ptr %0, ptr %3, align 8
  store ptr %1, ptr %4, align 8
  call void @llvm.dbg.declare(metadata ptr %4, metadata !2267, metadata !DIExpression()), !dbg !2268
  store i1 false, ptr %5, align 1, !dbg !2269
  call void @llvm.dbg.declare(metadata ptr %3, metadata !2270, metadata !DIExpression(DW_OP_deref)), !dbg !2271
  call void @_ZN7DMatrixIfEC2Ev(ptr noundef nonnull align 4 dereferenceable(48) %0), !dbg !2271
  call void @llvm.dbg.declare(metadata ptr %6, metadata !2272, metadata !DIExpression()), !dbg !2273
  %15 = load ptr, ptr %4, align 8, !dbg !2274
  store ptr %15, ptr %6, align 8, !dbg !2273
  invoke void @_ZN7DMatrixIfE5ClearEv(ptr noundef nonnull align 4 dereferenceable(48) %0)
          to label %16 unwind label %224, !dbg !2275

16:                                               ; preds = %2
  call void @llvm.dbg.declare(metadata ptr %9, metadata !2276, metadata !DIExpression()), !dbg !2277
  %17 = load ptr, ptr %6, align 8, !dbg !2278
  %18 = call noundef nonnull align 4 dereferenceable(4) ptr @_ZN7DMatrixIfEclEii(ptr noundef nonnull align 4 dereferenceable(48) %17, i32 noundef 1, i32 noundef 1), !dbg !2278
  %19 = load float, ptr %18, align 4, !dbg !2278
  %20 = load ptr, ptr %6, align 8, !dbg !2279
  %21 = call noundef nonnull align 4 dereferenceable(4) ptr @_ZN7DMatrixIfEclEii(ptr noundef nonnull align 4 dereferenceable(48) %20, i32 noundef 2, i32 noundef 2), !dbg !2279
  %22 = load float, ptr %21, align 4, !dbg !2279
  %23 = load ptr, ptr %6, align 8, !dbg !2280
  %24 = call noundef nonnull align 4 dereferenceable(4) ptr @_ZN7DMatrixIfEclEii(ptr noundef nonnull align 4 dereferenceable(48) %23, i32 noundef 1, i32 noundef 2), !dbg !2280
  %25 = load float, ptr %24, align 4, !dbg !2280
  %26 = load ptr, ptr %6, align 8, !dbg !2281
  %27 = call noundef nonnull align 4 dereferenceable(4) ptr @_ZN7DMatrixIfEclEii(ptr noundef nonnull align 4 dereferenceable(48) %26, i32 noundef 2, i32 noundef 1), !dbg !2281
  %28 = load float, ptr %27, align 4, !dbg !2281
  %29 = fmul float %25, %28, !dbg !2282
  %30 = fneg float %29, !dbg !2283
  %31 = call float @llvm.fmuladd.f32(float %19, float %22, float %30), !dbg !2283
  store float %31, ptr %9, align 4, !dbg !2277
  call void @llvm.dbg.declare(metadata ptr %10, metadata !2284, metadata !DIExpression()), !dbg !2285
  %32 = load ptr, ptr %6, align 8, !dbg !2286
  %33 = call noundef nonnull align 4 dereferenceable(4) ptr @_ZN7DMatrixIfEclEii(ptr noundef nonnull align 4 dereferenceable(48) %32, i32 noundef 1, i32 noundef 0), !dbg !2286
  %34 = load float, ptr %33, align 4, !dbg !2286
  %35 = load ptr, ptr %6, align 8, !dbg !2287
  %36 = call noundef nonnull align 4 dereferenceable(4) ptr @_ZN7DMatrixIfEclEii(ptr noundef nonnull align 4 dereferenceable(48) %35, i32 noundef 2, i32 noundef 2), !dbg !2287
  %37 = load float, ptr %36, align 4, !dbg !2287
  %38 = load ptr, ptr %6, align 8, !dbg !2288
  %39 = call noundef nonnull align 4 dereferenceable(4) ptr @_ZN7DMatrixIfEclEii(ptr noundef nonnull align 4 dereferenceable(48) %38, i32 noundef 1, i32 noundef 2), !dbg !2288
  %40 = load float, ptr %39, align 4, !dbg !2288
  %41 = load ptr, ptr %6, align 8, !dbg !2289
  %42 = call noundef nonnull align 4 dereferenceable(4) ptr @_ZN7DMatrixIfEclEii(ptr noundef nonnull align 4 dereferenceable(48) %41, i32 noundef 2, i32 noundef 0), !dbg !2289
  %43 = load float, ptr %42, align 4, !dbg !2289
  %44 = fmul float %40, %43, !dbg !2290
  %45 = fneg float %44, !dbg !2291
  %46 = call float @llvm.fmuladd.f32(float %34, float %37, float %45), !dbg !2291
  store float %46, ptr %10, align 4, !dbg !2285
  call void @llvm.dbg.declare(metadata ptr %11, metadata !2292, metadata !DIExpression()), !dbg !2293
  %47 = load ptr, ptr %6, align 8, !dbg !2294
  %48 = call noundef nonnull align 4 dereferenceable(4) ptr @_ZN7DMatrixIfEclEii(ptr noundef nonnull align 4 dereferenceable(48) %47, i32 noundef 1, i32 noundef 0), !dbg !2294
  %49 = load float, ptr %48, align 4, !dbg !2294
  %50 = load ptr, ptr %6, align 8, !dbg !2295
  %51 = call noundef nonnull align 4 dereferenceable(4) ptr @_ZN7DMatrixIfEclEii(ptr noundef nonnull align 4 dereferenceable(48) %50, i32 noundef 2, i32 noundef 1), !dbg !2295
  %52 = load float, ptr %51, align 4, !dbg !2295
  %53 = load ptr, ptr %6, align 8, !dbg !2296
  %54 = call noundef nonnull align 4 dereferenceable(4) ptr @_ZN7DMatrixIfEclEii(ptr noundef nonnull align 4 dereferenceable(48) %53, i32 noundef 1, i32 noundef 1), !dbg !2296
  %55 = load float, ptr %54, align 4, !dbg !2296
  %56 = load ptr, ptr %6, align 8, !dbg !2297
  %57 = call noundef nonnull align 4 dereferenceable(4) ptr @_ZN7DMatrixIfEclEii(ptr noundef nonnull align 4 dereferenceable(48) %56, i32 noundef 2, i32 noundef 0), !dbg !2297
  %58 = load float, ptr %57, align 4, !dbg !2297
  %59 = fmul float %55, %58, !dbg !2298
  %60 = fneg float %59, !dbg !2299
  %61 = call float @llvm.fmuladd.f32(float %49, float %52, float %60), !dbg !2299
  store float %61, ptr %11, align 4, !dbg !2293
  call void @llvm.dbg.declare(metadata ptr %12, metadata !2300, metadata !DIExpression()), !dbg !2301
  %62 = load ptr, ptr %6, align 8, !dbg !2302
  %63 = call noundef nonnull align 4 dereferenceable(4) ptr @_ZN7DMatrixIfEclEii(ptr noundef nonnull align 4 dereferenceable(48) %62, i32 noundef 0, i32 noundef 0), !dbg !2302
  %64 = load float, ptr %63, align 4, !dbg !2302
  %65 = load float, ptr %9, align 4, !dbg !2303
  %66 = load ptr, ptr %6, align 8, !dbg !2304
  %67 = call noundef nonnull align 4 dereferenceable(4) ptr @_ZN7DMatrixIfEclEii(ptr noundef nonnull align 4 dereferenceable(48) %66, i32 noundef 0, i32 noundef 1), !dbg !2304
  %68 = load float, ptr %67, align 4, !dbg !2304
  %69 = load float, ptr %10, align 4, !dbg !2305
  %70 = fmul float %68, %69, !dbg !2306
  %71 = fneg float %70, !dbg !2307
  %72 = call float @llvm.fmuladd.f32(float %64, float %65, float %71), !dbg !2307
  %73 = load ptr, ptr %6, align 8, !dbg !2308
  %74 = call noundef nonnull align 4 dereferenceable(4) ptr @_ZN7DMatrixIfEclEii(ptr noundef nonnull align 4 dereferenceable(48) %73, i32 noundef 0, i32 noundef 2), !dbg !2308
  %75 = load float, ptr %74, align 4, !dbg !2308
  %76 = load float, ptr %11, align 4, !dbg !2309
  %77 = call float @llvm.fmuladd.f32(float %75, float %76, float %72), !dbg !2310
  %78 = fdiv float 1.000000e+00, %77, !dbg !2311
  store float %78, ptr %12, align 4, !dbg !2301
  %79 = load float, ptr %12, align 4, !dbg !2312
  %80 = load float, ptr %9, align 4, !dbg !2313
  %81 = fmul float %79, %80, !dbg !2314
  %82 = call noundef nonnull align 4 dereferenceable(4) ptr @_ZN7DMatrixIfEclEii(ptr noundef nonnull align 4 dereferenceable(48) %0, i32 noundef 0, i32 noundef 0), !dbg !2315
  store float %81, ptr %82, align 4, !dbg !2316
  %83 = load float, ptr %12, align 4, !dbg !2317
  %84 = load ptr, ptr %6, align 8, !dbg !2318
  %85 = call noundef nonnull align 4 dereferenceable(4) ptr @_ZN7DMatrixIfEclEii(ptr noundef nonnull align 4 dereferenceable(48) %84, i32 noundef 0, i32 noundef 2), !dbg !2318
  %86 = load float, ptr %85, align 4, !dbg !2318
  %87 = load ptr, ptr %6, align 8, !dbg !2319
  %88 = call noundef nonnull align 4 dereferenceable(4) ptr @_ZN7DMatrixIfEclEii(ptr noundef nonnull align 4 dereferenceable(48) %87, i32 noundef 2, i32 noundef 1), !dbg !2319
  %89 = load float, ptr %88, align 4, !dbg !2319
  %90 = load ptr, ptr %6, align 8, !dbg !2320
  %91 = call noundef nonnull align 4 dereferenceable(4) ptr @_ZN7DMatrixIfEclEii(ptr noundef nonnull align 4 dereferenceable(48) %90, i32 noundef 0, i32 noundef 1), !dbg !2320
  %92 = load float, ptr %91, align 4, !dbg !2320
  %93 = load ptr, ptr %6, align 8, !dbg !2321
  %94 = call noundef nonnull align 4 dereferenceable(4) ptr @_ZN7DMatrixIfEclEii(ptr noundef nonnull align 4 dereferenceable(48) %93, i32 noundef 2, i32 noundef 2), !dbg !2321
  %95 = load float, ptr %94, align 4, !dbg !2321
  %96 = fmul float %92, %95, !dbg !2322
  %97 = fneg float %96, !dbg !2323
  %98 = call float @llvm.fmuladd.f32(float %86, float %89, float %97), !dbg !2323
  %99 = fmul float %83, %98, !dbg !2324
  %100 = call noundef nonnull align 4 dereferenceable(4) ptr @_ZN7DMatrixIfEclEii(ptr noundef nonnull align 4 dereferenceable(48) %0, i32 noundef 0, i32 noundef 1), !dbg !2325
  store float %99, ptr %100, align 4, !dbg !2326
  %101 = load float, ptr %12, align 4, !dbg !2327
  %102 = load ptr, ptr %6, align 8, !dbg !2328
  %103 = call noundef nonnull align 4 dereferenceable(4) ptr @_ZN7DMatrixIfEclEii(ptr noundef nonnull align 4 dereferenceable(48) %102, i32 noundef 0, i32 noundef 1), !dbg !2328
  %104 = load float, ptr %103, align 4, !dbg !2328
  %105 = load ptr, ptr %6, align 8, !dbg !2329
  %106 = call noundef nonnull align 4 dereferenceable(4) ptr @_ZN7DMatrixIfEclEii(ptr noundef nonnull align 4 dereferenceable(48) %105, i32 noundef 1, i32 noundef 2), !dbg !2329
  %107 = load float, ptr %106, align 4, !dbg !2329
  %108 = load ptr, ptr %6, align 8, !dbg !2330
  %109 = call noundef nonnull align 4 dereferenceable(4) ptr @_ZN7DMatrixIfEclEii(ptr noundef nonnull align 4 dereferenceable(48) %108, i32 noundef 0, i32 noundef 2), !dbg !2330
  %110 = load float, ptr %109, align 4, !dbg !2330
  %111 = load ptr, ptr %6, align 8, !dbg !2331
  %112 = call noundef nonnull align 4 dereferenceable(4) ptr @_ZN7DMatrixIfEclEii(ptr noundef nonnull align 4 dereferenceable(48) %111, i32 noundef 1, i32 noundef 1), !dbg !2331
  %113 = load float, ptr %112, align 4, !dbg !2331
  %114 = fmul float %110, %113, !dbg !2332
  %115 = fneg float %114, !dbg !2333
  %116 = call float @llvm.fmuladd.f32(float %104, float %107, float %115), !dbg !2333
  %117 = fmul float %101, %116, !dbg !2334
  %118 = call noundef nonnull align 4 dereferenceable(4) ptr @_ZN7DMatrixIfEclEii(ptr noundef nonnull align 4 dereferenceable(48) %0, i32 noundef 0, i32 noundef 2), !dbg !2335
  store float %117, ptr %118, align 4, !dbg !2336
  %119 = load float, ptr %12, align 4, !dbg !2337
  %120 = load float, ptr %10, align 4, !dbg !2338
  %121 = fneg float %120, !dbg !2339
  %122 = fmul float %119, %121, !dbg !2340
  %123 = call noundef nonnull align 4 dereferenceable(4) ptr @_ZN7DMatrixIfEclEii(ptr noundef nonnull align 4 dereferenceable(48) %0, i32 noundef 1, i32 noundef 0), !dbg !2341
  store float %122, ptr %123, align 4, !dbg !2342
  %124 = load float, ptr %12, align 4, !dbg !2343
  %125 = load ptr, ptr %6, align 8, !dbg !2344
  %126 = call noundef nonnull align 4 dereferenceable(4) ptr @_ZN7DMatrixIfEclEii(ptr noundef nonnull align 4 dereferenceable(48) %125, i32 noundef 0, i32 noundef 0), !dbg !2344
  %127 = load float, ptr %126, align 4, !dbg !2344
  %128 = load ptr, ptr %6, align 8, !dbg !2345
  %129 = call noundef nonnull align 4 dereferenceable(4) ptr @_ZN7DMatrixIfEclEii(ptr noundef nonnull align 4 dereferenceable(48) %128, i32 noundef 2, i32 noundef 2), !dbg !2345
  %130 = load float, ptr %129, align 4, !dbg !2345
  %131 = load ptr, ptr %6, align 8, !dbg !2346
  %132 = call noundef nonnull align 4 dereferenceable(4) ptr @_ZN7DMatrixIfEclEii(ptr noundef nonnull align 4 dereferenceable(48) %131, i32 noundef 0, i32 noundef 2), !dbg !2346
  %133 = load float, ptr %132, align 4, !dbg !2346
  %134 = load ptr, ptr %6, align 8, !dbg !2347
  %135 = call noundef nonnull align 4 dereferenceable(4) ptr @_ZN7DMatrixIfEclEii(ptr noundef nonnull align 4 dereferenceable(48) %134, i32 noundef 2, i32 noundef 0), !dbg !2347
  %136 = load float, ptr %135, align 4, !dbg !2347
  %137 = fmul float %133, %136, !dbg !2348
  %138 = fneg float %137, !dbg !2349
  %139 = call float @llvm.fmuladd.f32(float %127, float %130, float %138), !dbg !2349
  %140 = fmul float %124, %139, !dbg !2350
  %141 = call noundef nonnull align 4 dereferenceable(4) ptr @_ZN7DMatrixIfEclEii(ptr noundef nonnull align 4 dereferenceable(48) %0, i32 noundef 1, i32 noundef 1), !dbg !2351
  store float %140, ptr %141, align 4, !dbg !2352
  %142 = load float, ptr %12, align 4, !dbg !2353
  %143 = load ptr, ptr %6, align 8, !dbg !2354
  %144 = call noundef nonnull align 4 dereferenceable(4) ptr @_ZN7DMatrixIfEclEii(ptr noundef nonnull align 4 dereferenceable(48) %143, i32 noundef 0, i32 noundef 2), !dbg !2354
  %145 = load float, ptr %144, align 4, !dbg !2354
  %146 = load ptr, ptr %6, align 8, !dbg !2355
  %147 = call noundef nonnull align 4 dereferenceable(4) ptr @_ZN7DMatrixIfEclEii(ptr noundef nonnull align 4 dereferenceable(48) %146, i32 noundef 1, i32 noundef 0), !dbg !2355
  %148 = load float, ptr %147, align 4, !dbg !2355
  %149 = load ptr, ptr %6, align 8, !dbg !2356
  %150 = call noundef nonnull align 4 dereferenceable(4) ptr @_ZN7DMatrixIfEclEii(ptr noundef nonnull align 4 dereferenceable(48) %149, i32 noundef 0, i32 noundef 0), !dbg !2356
  %151 = load float, ptr %150, align 4, !dbg !2356
  %152 = load ptr, ptr %6, align 8, !dbg !2357
  %153 = call noundef nonnull align 4 dereferenceable(4) ptr @_ZN7DMatrixIfEclEii(ptr noundef nonnull align 4 dereferenceable(48) %152, i32 noundef 1, i32 noundef 2), !dbg !2357
  %154 = load float, ptr %153, align 4, !dbg !2357
  %155 = fmul float %151, %154, !dbg !2358
  %156 = fneg float %155, !dbg !2359
  %157 = call float @llvm.fmuladd.f32(float %145, float %148, float %156), !dbg !2359
  %158 = fmul float %142, %157, !dbg !2360
  %159 = call noundef nonnull align 4 dereferenceable(4) ptr @_ZN7DMatrixIfEclEii(ptr noundef nonnull align 4 dereferenceable(48) %0, i32 noundef 1, i32 noundef 2), !dbg !2361
  store float %158, ptr %159, align 4, !dbg !2362
  %160 = load float, ptr %12, align 4, !dbg !2363
  %161 = load float, ptr %11, align 4, !dbg !2364
  %162 = fmul float %160, %161, !dbg !2365
  %163 = call noundef nonnull align 4 dereferenceable(4) ptr @_ZN7DMatrixIfEclEii(ptr noundef nonnull align 4 dereferenceable(48) %0, i32 noundef 2, i32 noundef 0), !dbg !2366
  store float %162, ptr %163, align 4, !dbg !2367
  %164 = load float, ptr %12, align 4, !dbg !2368
  %165 = load ptr, ptr %6, align 8, !dbg !2369
  %166 = call noundef nonnull align 4 dereferenceable(4) ptr @_ZN7DMatrixIfEclEii(ptr noundef nonnull align 4 dereferenceable(48) %165, i32 noundef 0, i32 noundef 1), !dbg !2369
  %167 = load float, ptr %166, align 4, !dbg !2369
  %168 = load ptr, ptr %6, align 8, !dbg !2370
  %169 = call noundef nonnull align 4 dereferenceable(4) ptr @_ZN7DMatrixIfEclEii(ptr noundef nonnull align 4 dereferenceable(48) %168, i32 noundef 2, i32 noundef 0), !dbg !2370
  %170 = load float, ptr %169, align 4, !dbg !2370
  %171 = load ptr, ptr %6, align 8, !dbg !2371
  %172 = call noundef nonnull align 4 dereferenceable(4) ptr @_ZN7DMatrixIfEclEii(ptr noundef nonnull align 4 dereferenceable(48) %171, i32 noundef 0, i32 noundef 0), !dbg !2371
  %173 = load float, ptr %172, align 4, !dbg !2371
  %174 = load ptr, ptr %6, align 8, !dbg !2372
  %175 = call noundef nonnull align 4 dereferenceable(4) ptr @_ZN7DMatrixIfEclEii(ptr noundef nonnull align 4 dereferenceable(48) %174, i32 noundef 2, i32 noundef 1), !dbg !2372
  %176 = load float, ptr %175, align 4, !dbg !2372
  %177 = fmul float %173, %176, !dbg !2373
  %178 = fneg float %177, !dbg !2374
  %179 = call float @llvm.fmuladd.f32(float %167, float %170, float %178), !dbg !2374
  %180 = fmul float %164, %179, !dbg !2375
  %181 = call noundef nonnull align 4 dereferenceable(4) ptr @_ZN7DMatrixIfEclEii(ptr noundef nonnull align 4 dereferenceable(48) %0, i32 noundef 2, i32 noundef 1), !dbg !2376
  store float %180, ptr %181, align 4, !dbg !2377
  %182 = load float, ptr %12, align 4, !dbg !2378
  %183 = load ptr, ptr %6, align 8, !dbg !2379
  %184 = call noundef nonnull align 4 dereferenceable(4) ptr @_ZN7DMatrixIfEclEii(ptr noundef nonnull align 4 dereferenceable(48) %183, i32 noundef 0, i32 noundef 0), !dbg !2379
  %185 = load float, ptr %184, align 4, !dbg !2379
  %186 = load ptr, ptr %6, align 8, !dbg !2380
  %187 = call noundef nonnull align 4 dereferenceable(4) ptr @_ZN7DMatrixIfEclEii(ptr noundef nonnull align 4 dereferenceable(48) %186, i32 noundef 1, i32 noundef 1), !dbg !2380
  %188 = load float, ptr %187, align 4, !dbg !2380
  %189 = load ptr, ptr %6, align 8, !dbg !2381
  %190 = call noundef nonnull align 4 dereferenceable(4) ptr @_ZN7DMatrixIfEclEii(ptr noundef nonnull align 4 dereferenceable(48) %189, i32 noundef 0, i32 noundef 1), !dbg !2381
  %191 = load float, ptr %190, align 4, !dbg !2381
  %192 = load ptr, ptr %6, align 8, !dbg !2382
  %193 = call noundef nonnull align 4 dereferenceable(4) ptr @_ZN7DMatrixIfEclEii(ptr noundef nonnull align 4 dereferenceable(48) %192, i32 noundef 1, i32 noundef 0), !dbg !2382
  %194 = load float, ptr %193, align 4, !dbg !2382
  %195 = fmul float %191, %194, !dbg !2383
  %196 = fneg float %195, !dbg !2384
  %197 = call float @llvm.fmuladd.f32(float %185, float %188, float %196), !dbg !2384
  %198 = fmul float %182, %197, !dbg !2385
  %199 = call noundef nonnull align 4 dereferenceable(4) ptr @_ZN7DMatrixIfEclEii(ptr noundef nonnull align 4 dereferenceable(48) %0, i32 noundef 2, i32 noundef 2), !dbg !2386
  store float %198, ptr %199, align 4, !dbg !2387
  call void @llvm.dbg.declare(metadata ptr %13, metadata !2388, metadata !DIExpression()), !dbg !2389
  %200 = load ptr, ptr %6, align 8, !dbg !2390
  %201 = call noundef nonnull align 4 dereferenceable(4) ptr @_ZN7DMatrixIfEclEii(ptr noundef nonnull align 4 dereferenceable(48) %200, i32 noundef 0, i32 noundef 3), !dbg !2390
  %202 = load float, ptr %201, align 4, !dbg !2390
  %203 = fneg float %202, !dbg !2391
  %204 = load ptr, ptr %6, align 8, !dbg !2392
  %205 = call noundef nonnull align 4 dereferenceable(4) ptr @_ZN7DMatrixIfEclEii(ptr noundef nonnull align 4 dereferenceable(48) %204, i32 noundef 1, i32 noundef 3), !dbg !2392
  %206 = load float, ptr %205, align 4, !dbg !2392
  %207 = fneg float %206, !dbg !2393
  %208 = load ptr, ptr %6, align 8, !dbg !2394
  %209 = call noundef nonnull align 4 dereferenceable(4) ptr @_ZN7DMatrixIfEclEii(ptr noundef nonnull align 4 dereferenceable(48) %208, i32 noundef 2, i32 noundef 3), !dbg !2394
  %210 = load float, ptr %209, align 4, !dbg !2394
  %211 = fneg float %210, !dbg !2395
  invoke void @_ZN7Vector3IfEC2Efff(ptr noundef nonnull align 4 dereferenceable(12) %13, float noundef %203, float noundef %207, float noundef %211)
          to label %212 unwind label %224, !dbg !2389

212:                                              ; preds = %16
  call void @llvm.dbg.declare(metadata ptr %14, metadata !2396, metadata !DIExpression()), !dbg !2397
  invoke void @_ZmlIffE7Vector3IT_ERK7DMatrixIT0_ERKS2_(ptr sret(%class.Vector3) align 4 %14, ptr noundef nonnull align 4 dereferenceable(48) %0, ptr noundef nonnull align 4 dereferenceable(12) %13)
          to label %213 unwind label %228, !dbg !2398

213:                                              ; preds = %212
  %214 = getelementptr inbounds %class.Vector3, ptr %14, i32 0, i32 0, !dbg !2399
  %215 = load float, ptr %214, align 4, !dbg !2399
  %216 = call noundef nonnull align 4 dereferenceable(4) ptr @_ZN7DMatrixIfEclEii(ptr noundef nonnull align 4 dereferenceable(48) %0, i32 noundef 0, i32 noundef 3), !dbg !2400
  store float %215, ptr %216, align 4, !dbg !2401
  %217 = getelementptr inbounds %class.Vector3, ptr %14, i32 0, i32 1, !dbg !2402
  %218 = load float, ptr %217, align 4, !dbg !2402
  %219 = call noundef nonnull align 4 dereferenceable(4) ptr @_ZN7DMatrixIfEclEii(ptr noundef nonnull align 4 dereferenceable(48) %0, i32 noundef 1, i32 noundef 3), !dbg !2403
  store float %218, ptr %219, align 4, !dbg !2404
  %220 = getelementptr inbounds %class.Vector3, ptr %14, i32 0, i32 2, !dbg !2405
  %221 = load float, ptr %220, align 4, !dbg !2405
  %222 = call noundef nonnull align 4 dereferenceable(4) ptr @_ZN7DMatrixIfEclEii(ptr noundef nonnull align 4 dereferenceable(48) %0, i32 noundef 2, i32 noundef 3), !dbg !2406
  store float %221, ptr %222, align 4, !dbg !2407
  store i1 true, ptr %5, align 1, !dbg !2408
  call void @_ZN7Vector3IfED2Ev(ptr noundef nonnull align 4 dereferenceable(12) %14) #3, !dbg !2409
  call void @_ZN7Vector3IfED2Ev(ptr noundef nonnull align 4 dereferenceable(12) %13) #3, !dbg !2409
  %223 = load i1, ptr %5, align 1, !dbg !2409
  br i1 %223, label %233, label %232, !dbg !2409

224:                                              ; preds = %16, %2
  %225 = landingpad { ptr, i32 }
          cleanup, !dbg !2409
  %226 = extractvalue { ptr, i32 } %225, 0, !dbg !2409
  store ptr %226, ptr %7, align 8, !dbg !2409
  %227 = extractvalue { ptr, i32 } %225, 1, !dbg !2409
  store i32 %227, ptr %8, align 4, !dbg !2409
  br label %234, !dbg !2409

228:                                              ; preds = %212
  %229 = landingpad { ptr, i32 }
          cleanup, !dbg !2409
  %230 = extractvalue { ptr, i32 } %229, 0, !dbg !2409
  store ptr %230, ptr %7, align 8, !dbg !2409
  %231 = extractvalue { ptr, i32 } %229, 1, !dbg !2409
  store i32 %231, ptr %8, align 4, !dbg !2409
  call void @_ZN7Vector3IfED2Ev(ptr noundef nonnull align 4 dereferenceable(12) %13) #3, !dbg !2409
  br label %234, !dbg !2409

232:                                              ; preds = %213
  call void @_ZN7DMatrixIfED2Ev(ptr noundef nonnull align 4 dereferenceable(48) %0) #3, !dbg !2409
  br label %233, !dbg !2409

233:                                              ; preds = %232, %213
  ret void, !dbg !2409

234:                                              ; preds = %228, %224
  call void @_ZN7DMatrixIfED2Ev(ptr noundef nonnull align 4 dereferenceable(48) %0) #3, !dbg !2409
  br label %235, !dbg !2409

235:                                              ; preds = %234
  %236 = load ptr, ptr %7, align 8, !dbg !2409
  %237 = load i32, ptr %8, align 4, !dbg !2409
  %238 = insertvalue { ptr, i32 } poison, ptr %236, 0, !dbg !2409
  %239 = insertvalue { ptr, i32 } %238, i32 %237, 1, !dbg !2409
  resume { ptr, i32 } %239, !dbg !2409
}

declare i32 @__gxx_personality_v0(...)

; Function Attrs: noinline nounwind optnone uwtable
define linkonce_odr dso_local void @_ZN7Vector3IfED2Ev(ptr noundef nonnull align 4 dereferenceable(12) %0) unnamed_addr #6 comdat align 2 !dbg !2410 {
  %2 = alloca ptr, align 8
  store ptr %0, ptr %2, align 8
  call void @llvm.dbg.declare(metadata ptr %2, metadata !2411, metadata !DIExpression()), !dbg !2412
  %3 = load ptr, ptr %2, align 8
  ret void, !dbg !2413
}

; Function Attrs: noinline nounwind optnone uwtable
define linkonce_odr dso_local void @_ZN7DMatrixIfED2Ev(ptr noundef nonnull align 4 dereferenceable(48) %0) unnamed_addr #6 comdat align 2 !dbg !2414 {
  %2 = alloca ptr, align 8
  store ptr %0, ptr %2, align 8
  call void @llvm.dbg.declare(metadata ptr %2, metadata !2415, metadata !DIExpression()), !dbg !2416
  %3 = load ptr, ptr %2, align 8
  ret void, !dbg !2417
}

; Function Attrs: nocallback nofree nosync nounwind speculatable willreturn memory(none)
declare float @llvm.fmuladd.f32(float, float, float) #5

; Function Attrs: nounwind
declare double @sqrt(double noundef) #2

; Function Attrs: noinline nounwind optnone uwtable
define linkonce_odr dso_local void @_ZN7Vector3IfEC2Ev(ptr noundef nonnull align 4 dereferenceable(12) %0) unnamed_addr #6 comdat align 2 !dbg !2418 {
  %2 = alloca ptr, align 8
  store ptr %0, ptr %2, align 8
  call void @llvm.dbg.declare(metadata ptr %2, metadata !2419, metadata !DIExpression()), !dbg !2420
  %3 = load ptr, ptr %2, align 8
  ret void, !dbg !2421
}

; Function Attrs: mustprogress noinline nounwind optnone uwtable
define linkonce_odr dso_local void @_ZN7Vector3IfE3SetEfff(ptr noundef nonnull align 4 dereferenceable(12) %0, float noundef %1, float noundef %2, float noundef %3) #7 comdat align 2 !dbg !2422 {
  %5 = alloca ptr, align 8
  %6 = alloca float, align 4
  %7 = alloca float, align 4
  %8 = alloca float, align 4
  store ptr %0, ptr %5, align 8
  call void @llvm.dbg.declare(metadata ptr %5, metadata !2423, metadata !DIExpression()), !dbg !2424
  store float %1, ptr %6, align 4
  call void @llvm.dbg.declare(metadata ptr %6, metadata !2425, metadata !DIExpression()), !dbg !2426
  store float %2, ptr %7, align 4
  call void @llvm.dbg.declare(metadata ptr %7, metadata !2427, metadata !DIExpression()), !dbg !2428
  store float %3, ptr %8, align 4
  call void @llvm.dbg.declare(metadata ptr %8, metadata !2429, metadata !DIExpression()), !dbg !2430
  %9 = load ptr, ptr %5, align 8
  %10 = load float, ptr %6, align 4, !dbg !2431
  %11 = getelementptr inbounds %class.Vector3, ptr %9, i32 0, i32 0, !dbg !2432
  store float %10, ptr %11, align 4, !dbg !2433
  %12 = load float, ptr %7, align 4, !dbg !2434
  %13 = getelementptr inbounds %class.Vector3, ptr %9, i32 0, i32 1, !dbg !2435
  store float %12, ptr %13, align 4, !dbg !2436
  %14 = load float, ptr %8, align 4, !dbg !2437
  %15 = getelementptr inbounds %class.Vector3, ptr %9, i32 0, i32 2, !dbg !2438
  store float %14, ptr %15, align 4, !dbg !2439
  ret void, !dbg !2440
}

; Function Attrs: nocallback nofree nounwind willreturn memory(argmem: readwrite)
declare void @llvm.memcpy.p0.p0.i64(ptr noalias nocapture writeonly, ptr noalias nocapture readonly, i64, i1 immarg) #8

; Function Attrs: mustprogress noinline optnone uwtable
define linkonce_odr dso_local void @_Z13ProjectPointsR7Vector3IfER5PointR6Camera(ptr noundef nonnull align 4 dereferenceable(12) %0, ptr noundef nonnull align 4 dereferenceable(8) %1, ptr noundef nonnull align 4 dereferenceable(160) %2) #4 comdat personality ptr @__gxx_personality_v0 !dbg !2441 {
  %4 = alloca ptr, align 8
  %5 = alloca ptr, align 8
  %6 = alloca ptr, align 8
  %7 = alloca %class.Vector3, align 4
  %8 = alloca float, align 4
  %9 = alloca %class.Point, align 4
  %10 = alloca ptr, align 8
  %11 = alloca i32, align 4
  %12 = alloca float, align 4
  %13 = alloca float, align 4
  %14 = alloca float, align 4
  %15 = alloca float, align 4
  %16 = alloca %class.Point, align 4
  %17 = alloca float, align 4
  %18 = alloca float, align 4
  %19 = alloca float, align 4
  %20 = alloca %class.Point, align 4
  %21 = alloca %class.Point, align 4
  store ptr %0, ptr %4, align 8
  call void @llvm.dbg.declare(metadata ptr %4, metadata !2446, metadata !DIExpression()), !dbg !2447
  store ptr %1, ptr %5, align 8
  call void @llvm.dbg.declare(metadata ptr %5, metadata !2448, metadata !DIExpression()), !dbg !2449
  store ptr %2, ptr %6, align 8
  call void @llvm.dbg.declare(metadata ptr %6, metadata !2450, metadata !DIExpression()), !dbg !2451
  call void @llvm.dbg.declare(metadata ptr %7, metadata !2452, metadata !DIExpression()), !dbg !2453
  %22 = load ptr, ptr %6, align 8, !dbg !2454
  %23 = getelementptr inbounds %class.Camera, ptr %22, i32 0, i32 7, !dbg !2455
  %24 = load ptr, ptr %4, align 8, !dbg !2456
  call void @_ZmlIffE7Vector3IT_ERK7DMatrixIT0_ERKS2_(ptr sret(%class.Vector3) align 4 %7, ptr noundef nonnull align 4 dereferenceable(48) %23, ptr noundef nonnull align 4 dereferenceable(12) %24), !dbg !2457
  call void @llvm.dbg.declare(metadata ptr %8, metadata !2458, metadata !DIExpression()), !dbg !2459
  %25 = getelementptr inbounds %class.Vector3, ptr %7, i32 0, i32 2, !dbg !2460
  %26 = load float, ptr %25, align 4, !dbg !2460
  %27 = fdiv float 1.000000e+00, %26, !dbg !2461
  store float %27, ptr %8, align 4, !dbg !2459
  call void @llvm.dbg.declare(metadata ptr %9, metadata !2462, metadata !DIExpression()), !dbg !2463
  %28 = load float, ptr %8, align 4, !dbg !2464
  %29 = getelementptr inbounds %class.Vector3, ptr %7, i32 0, i32 0, !dbg !2465
  %30 = load float, ptr %29, align 4, !dbg !2465
  %31 = fmul float %28, %30, !dbg !2466
  %32 = load float, ptr %8, align 4, !dbg !2467
  %33 = getelementptr inbounds %class.Vector3, ptr %7, i32 0, i32 1, !dbg !2468
  %34 = load float, ptr %33, align 4, !dbg !2468
  %35 = fmul float %32, %34, !dbg !2469
  invoke void @_ZN5PointC2Eff(ptr noundef nonnull align 4 dereferenceable(8) %9, float noundef %31, float noundef %35)
          to label %36 unwind label %164, !dbg !2463

36:                                               ; preds = %3
  call void @llvm.dbg.declare(metadata ptr %12, metadata !2470, metadata !DIExpression()), !dbg !2471
  %37 = getelementptr inbounds %class.Point, ptr %9, i32 0, i32 0, !dbg !2472
  %38 = load float, ptr %37, align 4, !dbg !2472
  %39 = getelementptr inbounds %class.Point, ptr %9, i32 0, i32 0, !dbg !2473
  %40 = load float, ptr %39, align 4, !dbg !2473
  %41 = getelementptr inbounds %class.Point, ptr %9, i32 0, i32 1, !dbg !2474
  %42 = load float, ptr %41, align 4, !dbg !2474
  %43 = getelementptr inbounds %class.Point, ptr %9, i32 0, i32 1, !dbg !2475
  %44 = load float, ptr %43, align 4, !dbg !2475
  %45 = fmul float %42, %44, !dbg !2476
  %46 = call float @llvm.fmuladd.f32(float %38, float %40, float %45), !dbg !2477
  store float %46, ptr %12, align 4, !dbg !2471
  call void @llvm.dbg.declare(metadata ptr %13, metadata !2478, metadata !DIExpression()), !dbg !2479
  %47 = load float, ptr %12, align 4, !dbg !2480
  %48 = load float, ptr %12, align 4, !dbg !2481
  %49 = fmul float %47, %48, !dbg !2482
  store float %49, ptr %13, align 4, !dbg !2479
  call void @llvm.dbg.declare(metadata ptr %14, metadata !2483, metadata !DIExpression()), !dbg !2484
  %50 = load float, ptr %13, align 4, !dbg !2485
  %51 = load float, ptr %12, align 4, !dbg !2486
  %52 = fmul float %50, %51, !dbg !2487
  store float %52, ptr %14, align 4, !dbg !2484
  call void @llvm.dbg.declare(metadata ptr %15, metadata !2488, metadata !DIExpression()), !dbg !2489
  %53 = load ptr, ptr %6, align 8, !dbg !2490
  %54 = getelementptr inbounds %class.Camera, ptr %53, i32 0, i32 3, !dbg !2491
  %55 = getelementptr inbounds [5 x float], ptr %54, i64 0, i64 0, !dbg !2490
  %56 = load float, ptr %55, align 4, !dbg !2490
  %57 = load float, ptr %12, align 4, !dbg !2492
  %58 = call float @llvm.fmuladd.f32(float %56, float %57, float 1.000000e+00), !dbg !2493
  %59 = load ptr, ptr %6, align 8, !dbg !2494
  %60 = getelementptr inbounds %class.Camera, ptr %59, i32 0, i32 3, !dbg !2495
  %61 = getelementptr inbounds [5 x float], ptr %60, i64 0, i64 1, !dbg !2494
  %62 = load float, ptr %61, align 4, !dbg !2494
  %63 = load float, ptr %13, align 4, !dbg !2496
  %64 = call float @llvm.fmuladd.f32(float %62, float %63, float %58), !dbg !2497
  %65 = load ptr, ptr %6, align 8, !dbg !2498
  %66 = getelementptr inbounds %class.Camera, ptr %65, i32 0, i32 3, !dbg !2499
  %67 = getelementptr inbounds [5 x float], ptr %66, i64 0, i64 4, !dbg !2498
  %68 = load float, ptr %67, align 4, !dbg !2498
  %69 = load float, ptr %14, align 4, !dbg !2500
  %70 = call float @llvm.fmuladd.f32(float %68, float %69, float %64), !dbg !2501
  store float %70, ptr %15, align 4, !dbg !2489
  call void @llvm.dbg.declare(metadata ptr %16, metadata !2502, metadata !DIExpression()), !dbg !2503
  %71 = load float, ptr %15, align 4, !dbg !2504
  %72 = getelementptr inbounds %class.Point, ptr %9, i32 0, i32 0, !dbg !2505
  %73 = load float, ptr %72, align 4, !dbg !2505
  %74 = fmul float %71, %73, !dbg !2506
  %75 = load float, ptr %15, align 4, !dbg !2507
  %76 = getelementptr inbounds %class.Point, ptr %9, i32 0, i32 1, !dbg !2508
  %77 = load float, ptr %76, align 4, !dbg !2508
  %78 = fmul float %75, %77, !dbg !2509
  invoke void @_ZN5PointC2Eff(ptr noundef nonnull align 4 dereferenceable(8) %16, float noundef %74, float noundef %78)
          to label %79 unwind label %168, !dbg !2503

79:                                               ; preds = %36
  call void @llvm.dbg.declare(metadata ptr %17, metadata !2510, metadata !DIExpression()), !dbg !2511
  %80 = getelementptr inbounds %class.Point, ptr %9, i32 0, i32 0, !dbg !2512
  %81 = load float, ptr %80, align 4, !dbg !2512
  %82 = fmul float 2.000000e+00, %81, !dbg !2513
  %83 = getelementptr inbounds %class.Point, ptr %9, i32 0, i32 1, !dbg !2514
  %84 = load float, ptr %83, align 4, !dbg !2514
  %85 = fmul float %82, %84, !dbg !2515
  store float %85, ptr %17, align 4, !dbg !2511
  call void @llvm.dbg.declare(metadata ptr %18, metadata !2516, metadata !DIExpression()), !dbg !2517
  %86 = load float, ptr %12, align 4, !dbg !2518
  %87 = getelementptr inbounds %class.Point, ptr %9, i32 0, i32 0, !dbg !2519
  %88 = load float, ptr %87, align 4, !dbg !2519
  %89 = getelementptr inbounds %class.Point, ptr %9, i32 0, i32 0, !dbg !2520
  %90 = load float, ptr %89, align 4, !dbg !2520
  %91 = fmul float %88, %90, !dbg !2521
  %92 = call float @llvm.fmuladd.f32(float 2.000000e+00, float %91, float %86), !dbg !2522
  store float %92, ptr %18, align 4, !dbg !2517
  call void @llvm.dbg.declare(metadata ptr %19, metadata !2523, metadata !DIExpression()), !dbg !2524
  %93 = load float, ptr %12, align 4, !dbg !2525
  %94 = getelementptr inbounds %class.Point, ptr %9, i32 0, i32 1, !dbg !2526
  %95 = load float, ptr %94, align 4, !dbg !2526
  %96 = getelementptr inbounds %class.Point, ptr %9, i32 0, i32 1, !dbg !2527
  %97 = load float, ptr %96, align 4, !dbg !2527
  %98 = fmul float %95, %97, !dbg !2528
  %99 = call float @llvm.fmuladd.f32(float 2.000000e+00, float %98, float %93), !dbg !2529
  store float %99, ptr %19, align 4, !dbg !2524
  call void @llvm.dbg.declare(metadata ptr %20, metadata !2530, metadata !DIExpression()), !dbg !2531
  %100 = getelementptr inbounds %class.Point, ptr %16, i32 0, i32 0, !dbg !2532
  %101 = load float, ptr %100, align 4, !dbg !2532
  %102 = load ptr, ptr %6, align 8, !dbg !2533
  %103 = getelementptr inbounds %class.Camera, ptr %102, i32 0, i32 3, !dbg !2534
  %104 = getelementptr inbounds [5 x float], ptr %103, i64 0, i64 2, !dbg !2533
  %105 = load float, ptr %104, align 4, !dbg !2533
  %106 = load float, ptr %17, align 4, !dbg !2535
  %107 = call float @llvm.fmuladd.f32(float %105, float %106, float %101), !dbg !2536
  %108 = load ptr, ptr %6, align 8, !dbg !2537
  %109 = getelementptr inbounds %class.Camera, ptr %108, i32 0, i32 3, !dbg !2538
  %110 = getelementptr inbounds [5 x float], ptr %109, i64 0, i64 2, !dbg !2537
  %111 = load float, ptr %110, align 4, !dbg !2537
  %112 = load float, ptr %18, align 4, !dbg !2539
  %113 = call float @llvm.fmuladd.f32(float %111, float %112, float %107), !dbg !2540
  %114 = getelementptr inbounds %class.Point, ptr %16, i32 0, i32 1, !dbg !2541
  %115 = load float, ptr %114, align 4, !dbg !2541
  %116 = load ptr, ptr %6, align 8, !dbg !2542
  %117 = getelementptr inbounds %class.Camera, ptr %116, i32 0, i32 3, !dbg !2543
  %118 = getelementptr inbounds [5 x float], ptr %117, i64 0, i64 2, !dbg !2542
  %119 = load float, ptr %118, align 4, !dbg !2542
  %120 = load float, ptr %19, align 4, !dbg !2544
  %121 = call float @llvm.fmuladd.f32(float %119, float %120, float %115), !dbg !2545
  %122 = load ptr, ptr %6, align 8, !dbg !2546
  %123 = getelementptr inbounds %class.Camera, ptr %122, i32 0, i32 3, !dbg !2547
  %124 = getelementptr inbounds [5 x float], ptr %123, i64 0, i64 2, !dbg !2546
  %125 = load float, ptr %124, align 4, !dbg !2546
  %126 = load float, ptr %17, align 4, !dbg !2548
  %127 = call float @llvm.fmuladd.f32(float %125, float %126, float %121), !dbg !2549
  invoke void @_ZN5PointC2Eff(ptr noundef nonnull align 4 dereferenceable(8) %20, float noundef %113, float noundef %127)
          to label %128 unwind label %172, !dbg !2531

128:                                              ; preds = %79
  call void @llvm.dbg.declare(metadata ptr %21, metadata !2550, metadata !DIExpression()), !dbg !2551
  %129 = getelementptr inbounds %class.Point, ptr %20, i32 0, i32 0, !dbg !2552
  %130 = load float, ptr %129, align 4, !dbg !2552
  %131 = load ptr, ptr %6, align 8, !dbg !2553
  %132 = getelementptr inbounds %class.Camera, ptr %131, i32 0, i32 2, !dbg !2554
  %133 = load float, ptr %132, align 4, !dbg !2554
  %134 = getelementptr inbounds %class.Point, ptr %20, i32 0, i32 1, !dbg !2555
  %135 = load float, ptr %134, align 4, !dbg !2555
  %136 = call float @llvm.fmuladd.f32(float %133, float %135, float %130), !dbg !2556
  %137 = getelementptr inbounds %class.Point, ptr %20, i32 0, i32 1, !dbg !2557
  %138 = load float, ptr %137, align 4, !dbg !2557
  invoke void @_ZN5PointC2Eff(ptr noundef nonnull align 4 dereferenceable(8) %21, float noundef %136, float noundef %138)
          to label %139 unwind label %176, !dbg !2551

139:                                              ; preds = %128
  %140 = load ptr, ptr %5, align 8, !dbg !2558
  %141 = load ptr, ptr %6, align 8, !dbg !2559
  %142 = getelementptr inbounds %class.Camera, ptr %141, i32 0, i32 0, !dbg !2560
  %143 = getelementptr inbounds %class.Point, ptr %142, i32 0, i32 0, !dbg !2561
  %144 = load float, ptr %143, align 4, !dbg !2561
  %145 = getelementptr inbounds %class.Point, ptr %21, i32 0, i32 0, !dbg !2562
  %146 = load float, ptr %145, align 4, !dbg !2562
  %147 = load ptr, ptr %6, align 8, !dbg !2563
  %148 = getelementptr inbounds %class.Camera, ptr %147, i32 0, i32 1, !dbg !2564
  %149 = getelementptr inbounds %class.Point, ptr %148, i32 0, i32 0, !dbg !2565
  %150 = load float, ptr %149, align 4, !dbg !2565
  %151 = call float @llvm.fmuladd.f32(float %144, float %146, float %150), !dbg !2566
  %152 = load ptr, ptr %6, align 8, !dbg !2567
  %153 = getelementptr inbounds %class.Camera, ptr %152, i32 0, i32 0, !dbg !2568
  %154 = getelementptr inbounds %class.Point, ptr %153, i32 0, i32 1, !dbg !2569
  %155 = load float, ptr %154, align 4, !dbg !2569
  %156 = getelementptr inbounds %class.Point, ptr %21, i32 0, i32 1, !dbg !2570
  %157 = load float, ptr %156, align 4, !dbg !2570
  %158 = load ptr, ptr %6, align 8, !dbg !2571
  %159 = getelementptr inbounds %class.Camera, ptr %158, i32 0, i32 1, !dbg !2572
  %160 = getelementptr inbounds %class.Point, ptr %159, i32 0, i32 1, !dbg !2573
  %161 = load float, ptr %160, align 4, !dbg !2573
  %162 = call float @llvm.fmuladd.f32(float %155, float %157, float %161), !dbg !2574
  invoke void @_ZN5Point3SetEff(ptr noundef nonnull align 4 dereferenceable(8) %140, float noundef %151, float noundef %162)
          to label %163 unwind label %180, !dbg !2575

163:                                              ; preds = %139
  call void @_ZN5PointD2Ev(ptr noundef nonnull align 4 dereferenceable(8) %21) #3, !dbg !2576
  call void @_ZN5PointD2Ev(ptr noundef nonnull align 4 dereferenceable(8) %20) #3, !dbg !2576
  call void @_ZN5PointD2Ev(ptr noundef nonnull align 4 dereferenceable(8) %16) #3, !dbg !2576
  call void @_ZN5PointD2Ev(ptr noundef nonnull align 4 dereferenceable(8) %9) #3, !dbg !2576
  call void @_ZN7Vector3IfED2Ev(ptr noundef nonnull align 4 dereferenceable(12) %7) #3, !dbg !2576
  ret void, !dbg !2576

164:                                              ; preds = %3
  %165 = landingpad { ptr, i32 }
          cleanup, !dbg !2576
  %166 = extractvalue { ptr, i32 } %165, 0, !dbg !2576
  store ptr %166, ptr %10, align 8, !dbg !2576
  %167 = extractvalue { ptr, i32 } %165, 1, !dbg !2576
  store i32 %167, ptr %11, align 4, !dbg !2576
  br label %187, !dbg !2576

168:                                              ; preds = %36
  %169 = landingpad { ptr, i32 }
          cleanup, !dbg !2576
  %170 = extractvalue { ptr, i32 } %169, 0, !dbg !2576
  store ptr %170, ptr %10, align 8, !dbg !2576
  %171 = extractvalue { ptr, i32 } %169, 1, !dbg !2576
  store i32 %171, ptr %11, align 4, !dbg !2576
  br label %186, !dbg !2576

172:                                              ; preds = %79
  %173 = landingpad { ptr, i32 }
          cleanup, !dbg !2576
  %174 = extractvalue { ptr, i32 } %173, 0, !dbg !2576
  store ptr %174, ptr %10, align 8, !dbg !2576
  %175 = extractvalue { ptr, i32 } %173, 1, !dbg !2576
  store i32 %175, ptr %11, align 4, !dbg !2576
  br label %185, !dbg !2576

176:                                              ; preds = %128
  %177 = landingpad { ptr, i32 }
          cleanup, !dbg !2576
  %178 = extractvalue { ptr, i32 } %177, 0, !dbg !2576
  store ptr %178, ptr %10, align 8, !dbg !2576
  %179 = extractvalue { ptr, i32 } %177, 1, !dbg !2576
  store i32 %179, ptr %11, align 4, !dbg !2576
  br label %184, !dbg !2576

180:                                              ; preds = %139
  %181 = landingpad { ptr, i32 }
          cleanup, !dbg !2576
  %182 = extractvalue { ptr, i32 } %181, 0, !dbg !2576
  store ptr %182, ptr %10, align 8, !dbg !2576
  %183 = extractvalue { ptr, i32 } %181, 1, !dbg !2576
  store i32 %183, ptr %11, align 4, !dbg !2576
  call void @_ZN5PointD2Ev(ptr noundef nonnull align 4 dereferenceable(8) %21) #3, !dbg !2576
  br label %184, !dbg !2576

184:                                              ; preds = %180, %176
  call void @_ZN5PointD2Ev(ptr noundef nonnull align 4 dereferenceable(8) %20) #3, !dbg !2576
  br label %185, !dbg !2576

185:                                              ; preds = %184, %172
  call void @_ZN5PointD2Ev(ptr noundef nonnull align 4 dereferenceable(8) %16) #3, !dbg !2576
  br label %186, !dbg !2576

186:                                              ; preds = %185, %168
  call void @_ZN5PointD2Ev(ptr noundef nonnull align 4 dereferenceable(8) %9) #3, !dbg !2576
  br label %187, !dbg !2576

187:                                              ; preds = %186, %164
  call void @_ZN7Vector3IfED2Ev(ptr noundef nonnull align 4 dereferenceable(12) %7) #3, !dbg !2576
  br label %188, !dbg !2576

188:                                              ; preds = %187
  %189 = load ptr, ptr %10, align 8, !dbg !2576
  %190 = load i32, ptr %11, align 4, !dbg !2576
  %191 = insertvalue { ptr, i32 } poison, ptr %189, 0, !dbg !2576
  %192 = insertvalue { ptr, i32 } %191, i32 %190, 1, !dbg !2576
  resume { ptr, i32 } %192, !dbg !2576
}

; Function Attrs: mustprogress noinline optnone uwtable
define dso_local void @_ZN13ProjectedBody15ImageProjectionERK12BodyGeometryR6Camera(ptr noundef nonnull align 8 dereferenceable(24) %0, ptr noundef nonnull align 8 dereferenceable(352) %1, ptr noundef nonnull align 4 dereferenceable(160) %2) #4 align 2 !dbg !2577 {
  %4 = alloca ptr, align 8
  %5 = alloca ptr, align 8
  %6 = alloca ptr, align 8
  %7 = alloca i32, align 4
  %8 = alloca i32, align 4
  store ptr %0, ptr %4, align 8
  call void @llvm.dbg.declare(metadata ptr %4, metadata !2578, metadata !DIExpression()), !dbg !2579
  store ptr %1, ptr %5, align 8
  call void @llvm.dbg.declare(metadata ptr %5, metadata !2580, metadata !DIExpression()), !dbg !2581
  store ptr %2, ptr %6, align 8
  call void @llvm.dbg.declare(metadata ptr %6, metadata !2582, metadata !DIExpression()), !dbg !2583
  %9 = load ptr, ptr %4, align 8
  call void @llvm.dbg.declare(metadata ptr %7, metadata !2584, metadata !DIExpression()), !dbg !2585
  %10 = load ptr, ptr %5, align 8, !dbg !2586
  %11 = call noundef i32 @_ZNK12BodyGeometry16GetBodyPartCountEv(ptr noundef nonnull align 8 dereferenceable(352) %10), !dbg !2587
  store i32 %11, ptr %7, align 4, !dbg !2585
  %12 = getelementptr inbounds %class.ProjectedBody, ptr %9, i32 0, i32 0, !dbg !2588
  %13 = load i32, ptr %7, align 4, !dbg !2589
  %14 = sext i32 %13 to i64, !dbg !2589
  call void @_ZNSt6vectorI17ProjectedCylinderSaIS0_EE6resizeEm(ptr noundef nonnull align 8 dereferenceable(24) %12, i64 noundef %14), !dbg !2590
  call void @llvm.dbg.declare(metadata ptr %8, metadata !2591, metadata !DIExpression()), !dbg !2593
  store i32 0, ptr %8, align 4, !dbg !2593
  br label %15, !dbg !2594

15:                                               ; preds = %28, %3
  %16 = load i32, ptr %8, align 4, !dbg !2595
  %17 = load i32, ptr %7, align 4, !dbg !2597
  %18 = icmp slt i32 %16, %17, !dbg !2598
  br i1 %18, label %19, label %31, !dbg !2599

19:                                               ; preds = %15
  %20 = getelementptr inbounds %class.ProjectedBody, ptr %9, i32 0, i32 0, !dbg !2600
  %21 = load i32, ptr %8, align 4, !dbg !2601
  %22 = sext i32 %21 to i64, !dbg !2601
  %23 = call noundef nonnull align 4 dereferenceable(32) ptr @_ZNSt6vectorI17ProjectedCylinderSaIS0_EEixEm(ptr noundef nonnull align 8 dereferenceable(24) %20, i64 noundef %22) #3, !dbg !2600
  %24 = load ptr, ptr %5, align 8, !dbg !2602
  %25 = load i32, ptr %8, align 4, !dbg !2603
  %26 = call noundef nonnull align 4 dereferenceable(60) ptr @_ZNK12BodyGeometryclEi(ptr noundef nonnull align 8 dereferenceable(352) %24, i32 noundef %25), !dbg !2602
  %27 = load ptr, ptr %6, align 8, !dbg !2604
  call void @_ZN17ProjectedCylinder15ImageProjectionERK10KTCylinderR6Camera(ptr noundef nonnull align 4 dereferenceable(32) %23, ptr noundef nonnull align 4 dereferenceable(60) %26, ptr noundef nonnull align 4 dereferenceable(160) %27), !dbg !2605
  br label %28, !dbg !2600

28:                                               ; preds = %19
  %29 = load i32, ptr %8, align 4, !dbg !2606
  %30 = add nsw i32 %29, 1, !dbg !2606
  store i32 %30, ptr %8, align 4, !dbg !2606
  br label %15, !dbg !2607, !llvm.loop !2608

31:                                               ; preds = %15
  ret void, !dbg !2610
}

; Function Attrs: mustprogress noinline nounwind optnone uwtable
define linkonce_odr dso_local noundef i32 @_ZNK12BodyGeometry16GetBodyPartCountEv(ptr noundef nonnull align 8 dereferenceable(352) %0) #7 comdat align 2 !dbg !2611 {
  %2 = alloca ptr, align 8
  store ptr %0, ptr %2, align 8
  call void @llvm.dbg.declare(metadata ptr %2, metadata !2616, metadata !DIExpression()), !dbg !2618
  %3 = load ptr, ptr %2, align 8
  %4 = getelementptr inbounds %class.BodyGeometry, ptr %3, i32 0, i32 0, !dbg !2619
  %5 = call noundef i64 @_ZNKSt6vectorI10KTCylinderSaIS0_EE4sizeEv(ptr noundef nonnull align 8 dereferenceable(24) %4) #3, !dbg !2620
  %6 = trunc i64 %5 to i32, !dbg !2619
  ret i32 %6, !dbg !2621
}

; Function Attrs: mustprogress noinline optnone uwtable
define linkonce_odr dso_local void @_ZNSt6vectorI17ProjectedCylinderSaIS0_EE6resizeEm(ptr noundef nonnull align 8 dereferenceable(24) %0, i64 noundef %1) #4 comdat align 2 !dbg !2622 {
  %3 = alloca ptr, align 8
  %4 = alloca i64, align 8
  store ptr %0, ptr %3, align 8
  call void @llvm.dbg.declare(metadata ptr %3, metadata !2623, metadata !DIExpression()), !dbg !2625
  store i64 %1, ptr %4, align 8
  call void @llvm.dbg.declare(metadata ptr %4, metadata !2626, metadata !DIExpression()), !dbg !2627
  %5 = load ptr, ptr %3, align 8
  %6 = load i64, ptr %4, align 8, !dbg !2628
  %7 = call noundef i64 @_ZNKSt6vectorI17ProjectedCylinderSaIS0_EE4sizeEv(ptr noundef nonnull align 8 dereferenceable(24) %5) #3, !dbg !2630
  %8 = icmp ugt i64 %6, %7, !dbg !2631
  br i1 %8, label %9, label %13, !dbg !2632

9:                                                ; preds = %2
  %10 = load i64, ptr %4, align 8, !dbg !2633
  %11 = call noundef i64 @_ZNKSt6vectorI17ProjectedCylinderSaIS0_EE4sizeEv(ptr noundef nonnull align 8 dereferenceable(24) %5) #3, !dbg !2634
  %12 = sub i64 %10, %11, !dbg !2635
  call void @_ZNSt6vectorI17ProjectedCylinderSaIS0_EE17_M_default_appendEm(ptr noundef nonnull align 8 dereferenceable(24) %5, i64 noundef %12), !dbg !2636
  br label %24, !dbg !2636

13:                                               ; preds = %2
  %14 = load i64, ptr %4, align 8, !dbg !2637
  %15 = call noundef i64 @_ZNKSt6vectorI17ProjectedCylinderSaIS0_EE4sizeEv(ptr noundef nonnull align 8 dereferenceable(24) %5) #3, !dbg !2639
  %16 = icmp ult i64 %14, %15, !dbg !2640
  br i1 %16, label %17, label %23, !dbg !2641

17:                                               ; preds = %13
  %18 = getelementptr inbounds %"struct.std::_Vector_base", ptr %5, i32 0, i32 0, !dbg !2642
  %19 = getelementptr inbounds %"struct.std::_Vector_base<ProjectedCylinder, std::allocator<ProjectedCylinder>>::_Vector_impl_data", ptr %18, i32 0, i32 0, !dbg !2643
  %20 = load ptr, ptr %19, align 8, !dbg !2643
  %21 = load i64, ptr %4, align 8, !dbg !2644
  %22 = getelementptr inbounds %class.ProjectedCylinder, ptr %20, i64 %21, !dbg !2645
  call void @_ZNSt6vectorI17ProjectedCylinderSaIS0_EE15_M_erase_at_endEPS0_(ptr noundef nonnull align 8 dereferenceable(24) %5, ptr noundef %22) #3, !dbg !2646
  br label %23, !dbg !2646

23:                                               ; preds = %17, %13
  br label %24

24:                                               ; preds = %23, %9
  ret void, !dbg !2647
}

; Function Attrs: mustprogress noinline nounwind optnone uwtable
define linkonce_odr dso_local noundef nonnull align 4 dereferenceable(32) ptr @_ZNSt6vectorI17ProjectedCylinderSaIS0_EEixEm(ptr noundef nonnull align 8 dereferenceable(24) %0, i64 noundef %1) #7 comdat align 2 !dbg !2648 {
  %3 = alloca ptr, align 8
  %4 = alloca i64, align 8
  store ptr %0, ptr %3, align 8
  call void @llvm.dbg.declare(metadata ptr %3, metadata !2649, metadata !DIExpression()), !dbg !2650
  store i64 %1, ptr %4, align 8
  call void @llvm.dbg.declare(metadata ptr %4, metadata !2651, metadata !DIExpression()), !dbg !2652
  %5 = load ptr, ptr %3, align 8
  %6 = getelementptr inbounds %"struct.std::_Vector_base", ptr %5, i32 0, i32 0, !dbg !2653
  %7 = getelementptr inbounds %"struct.std::_Vector_base<ProjectedCylinder, std::allocator<ProjectedCylinder>>::_Vector_impl_data", ptr %6, i32 0, i32 0, !dbg !2654
  %8 = load ptr, ptr %7, align 8, !dbg !2654
  %9 = load i64, ptr %4, align 8, !dbg !2655
  %10 = getelementptr inbounds %class.ProjectedCylinder, ptr %8, i64 %9, !dbg !2656
  ret ptr %10, !dbg !2657
}

; Function Attrs: mustprogress noinline nounwind optnone uwtable
define linkonce_odr dso_local noundef nonnull align 4 dereferenceable(60) ptr @_ZNK12BodyGeometryclEi(ptr noundef nonnull align 8 dereferenceable(352) %0, i32 noundef %1) #7 comdat align 2 !dbg !2658 {
  %3 = alloca ptr, align 8
  %4 = alloca i32, align 4
  store ptr %0, ptr %3, align 8
  call void @llvm.dbg.declare(metadata ptr %3, metadata !2662, metadata !DIExpression()), !dbg !2663
  store i32 %1, ptr %4, align 4
  call void @llvm.dbg.declare(metadata ptr %4, metadata !2664, metadata !DIExpression()), !dbg !2665
  %5 = load ptr, ptr %3, align 8
  %6 = getelementptr inbounds %class.BodyGeometry, ptr %5, i32 0, i32 0, !dbg !2666
  %7 = load i32, ptr %4, align 4, !dbg !2667
  %8 = sext i32 %7 to i64, !dbg !2667
  %9 = call noundef nonnull align 4 dereferenceable(60) ptr @_ZNKSt6vectorI10KTCylinderSaIS0_EEixEm(ptr noundef nonnull align 8 dereferenceable(24) %6, i64 noundef %8) #3, !dbg !2666
  ret ptr %9, !dbg !2668
}

; Function Attrs: mustprogress noinline optnone uwtable
define dso_local void @_ZN24MultiCameraProjectedBody15ImageProjectionERK12BodyGeometryR11MultiCamera(ptr noundef nonnull align 8 dereferenceable(24) %0, ptr noundef nonnull align 8 dereferenceable(352) %1, ptr noundef nonnull align 8 dereferenceable(24) %2) #4 align 2 !dbg !2669 {
  %4 = alloca ptr, align 8
  %5 = alloca ptr, align 8
  %6 = alloca ptr, align 8
  %7 = alloca i32, align 4
  %8 = alloca i32, align 4
  store ptr %0, ptr %4, align 8
  call void @llvm.dbg.declare(metadata ptr %4, metadata !2677, metadata !DIExpression()), !dbg !2679
  store ptr %1, ptr %5, align 8
  call void @llvm.dbg.declare(metadata ptr %5, metadata !2680, metadata !DIExpression()), !dbg !2681
  store ptr %2, ptr %6, align 8
  call void @llvm.dbg.declare(metadata ptr %6, metadata !2682, metadata !DIExpression()), !dbg !2683
  %9 = load ptr, ptr %4, align 8
  call void @llvm.dbg.declare(metadata ptr %7, metadata !2684, metadata !DIExpression()), !dbg !2685
  %10 = load ptr, ptr %6, align 8, !dbg !2686
  %11 = call noundef i32 @_ZN11MultiCamera14GetCameraCountEv(ptr noundef nonnull align 8 dereferenceable(24) %10), !dbg !2687
  store i32 %11, ptr %7, align 4, !dbg !2685
  %12 = getelementptr inbounds %class.MultiCameraProjectedBody, ptr %9, i32 0, i32 0, !dbg !2688
  %13 = load i32, ptr %7, align 4, !dbg !2689
  %14 = sext i32 %13 to i64, !dbg !2689
  call void @_ZNSt6vectorI13ProjectedBodySaIS0_EE6resizeEm(ptr noundef nonnull align 8 dereferenceable(24) %12, i64 noundef %14), !dbg !2690
  call void @llvm.dbg.declare(metadata ptr %8, metadata !2691, metadata !DIExpression()), !dbg !2693
  store i32 0, ptr %8, align 4, !dbg !2693
  br label %15, !dbg !2694

15:                                               ; preds = %28, %3
  %16 = load i32, ptr %8, align 4, !dbg !2695
  %17 = load i32, ptr %7, align 4, !dbg !2697
  %18 = icmp slt i32 %16, %17, !dbg !2698
  br i1 %18, label %19, label %31, !dbg !2699

19:                                               ; preds = %15
  %20 = getelementptr inbounds %class.MultiCameraProjectedBody, ptr %9, i32 0, i32 0, !dbg !2700
  %21 = load i32, ptr %8, align 4, !dbg !2701
  %22 = sext i32 %21 to i64, !dbg !2701
  %23 = call noundef nonnull align 8 dereferenceable(24) ptr @_ZNSt6vectorI13ProjectedBodySaIS0_EEixEm(ptr noundef nonnull align 8 dereferenceable(24) %20, i64 noundef %22) #3, !dbg !2700
  %24 = load ptr, ptr %5, align 8, !dbg !2702
  %25 = load ptr, ptr %6, align 8, !dbg !2703
  %26 = load i32, ptr %8, align 4, !dbg !2704
  %27 = call noundef nonnull align 4 dereferenceable(160) ptr @_ZN11MultiCameraclEi(ptr noundef nonnull align 8 dereferenceable(24) %25, i32 noundef %26), !dbg !2703
  call void @_ZN13ProjectedBody15ImageProjectionERK12BodyGeometryR6Camera(ptr noundef nonnull align 8 dereferenceable(24) %23, ptr noundef nonnull align 8 dereferenceable(352) %24, ptr noundef nonnull align 4 dereferenceable(160) %27), !dbg !2705
  br label %28, !dbg !2700

28:                                               ; preds = %19
  %29 = load i32, ptr %8, align 4, !dbg !2706
  %30 = add nsw i32 %29, 1, !dbg !2706
  store i32 %30, ptr %8, align 4, !dbg !2706
  br label %15, !dbg !2707, !llvm.loop !2708

31:                                               ; preds = %15
  ret void, !dbg !2710
}

; Function Attrs: mustprogress noinline nounwind optnone uwtable
define linkonce_odr dso_local noundef i32 @_ZN11MultiCamera14GetCameraCountEv(ptr noundef nonnull align 8 dereferenceable(24) %0) #7 comdat align 2 !dbg !2711 {
  %2 = alloca ptr, align 8
  store ptr %0, ptr %2, align 8
  call void @llvm.dbg.declare(metadata ptr %2, metadata !2716, metadata !DIExpression()), !dbg !2718
  %3 = load ptr, ptr %2, align 8
  %4 = getelementptr inbounds %class.MultiCamera, ptr %3, i32 0, i32 0, !dbg !2719
  %5 = call noundef i64 @_ZNKSt6vectorI6CameraSaIS0_EE4sizeEv(ptr noundef nonnull align 8 dereferenceable(24) %4) #3, !dbg !2720
  %6 = trunc i64 %5 to i32, !dbg !2719
  ret i32 %6, !dbg !2721
}

; Function Attrs: mustprogress noinline optnone uwtable
define linkonce_odr dso_local void @_ZNSt6vectorI13ProjectedBodySaIS0_EE6resizeEm(ptr noundef nonnull align 8 dereferenceable(24) %0, i64 noundef %1) #4 comdat align 2 !dbg !2722 {
  %3 = alloca ptr, align 8
  %4 = alloca i64, align 8
  store ptr %0, ptr %3, align 8
  call void @llvm.dbg.declare(metadata ptr %3, metadata !2728, metadata !DIExpression()), !dbg !2730
  store i64 %1, ptr %4, align 8
  call void @llvm.dbg.declare(metadata ptr %4, metadata !2731, metadata !DIExpression()), !dbg !2732
  %5 = load ptr, ptr %3, align 8
  %6 = load i64, ptr %4, align 8, !dbg !2733
  %7 = call noundef i64 @_ZNKSt6vectorI13ProjectedBodySaIS0_EE4sizeEv(ptr noundef nonnull align 8 dereferenceable(24) %5) #3, !dbg !2735
  %8 = icmp ugt i64 %6, %7, !dbg !2736
  br i1 %8, label %9, label %13, !dbg !2737

9:                                                ; preds = %2
  %10 = load i64, ptr %4, align 8, !dbg !2738
  %11 = call noundef i64 @_ZNKSt6vectorI13ProjectedBodySaIS0_EE4sizeEv(ptr noundef nonnull align 8 dereferenceable(24) %5) #3, !dbg !2739
  %12 = sub i64 %10, %11, !dbg !2740
  call void @_ZNSt6vectorI13ProjectedBodySaIS0_EE17_M_default_appendEm(ptr noundef nonnull align 8 dereferenceable(24) %5, i64 noundef %12), !dbg !2741
  br label %24, !dbg !2741

13:                                               ; preds = %2
  %14 = load i64, ptr %4, align 8, !dbg !2742
  %15 = call noundef i64 @_ZNKSt6vectorI13ProjectedBodySaIS0_EE4sizeEv(ptr noundef nonnull align 8 dereferenceable(24) %5) #3, !dbg !2744
  %16 = icmp ult i64 %14, %15, !dbg !2745
  br i1 %16, label %17, label %23, !dbg !2746

17:                                               ; preds = %13
  %18 = getelementptr inbounds %"struct.std::_Vector_base.16", ptr %5, i32 0, i32 0, !dbg !2747
  %19 = getelementptr inbounds %"struct.std::_Vector_base<ProjectedBody, std::allocator<ProjectedBody>>::_Vector_impl_data", ptr %18, i32 0, i32 0, !dbg !2748
  %20 = load ptr, ptr %19, align 8, !dbg !2748
  %21 = load i64, ptr %4, align 8, !dbg !2749
  %22 = getelementptr inbounds %class.ProjectedBody, ptr %20, i64 %21, !dbg !2750
  call void @_ZNSt6vectorI13ProjectedBodySaIS0_EE15_M_erase_at_endEPS0_(ptr noundef nonnull align 8 dereferenceable(24) %5, ptr noundef %22) #3, !dbg !2751
  br label %23, !dbg !2751

23:                                               ; preds = %17, %13
  br label %24

24:                                               ; preds = %23, %9
  ret void, !dbg !2752
}

; Function Attrs: mustprogress noinline nounwind optnone uwtable
define linkonce_odr dso_local noundef nonnull align 8 dereferenceable(24) ptr @_ZNSt6vectorI13ProjectedBodySaIS0_EEixEm(ptr noundef nonnull align 8 dereferenceable(24) %0, i64 noundef %1) #7 comdat align 2 !dbg !2753 {
  %3 = alloca ptr, align 8
  %4 = alloca i64, align 8
  store ptr %0, ptr %3, align 8
  call void @llvm.dbg.declare(metadata ptr %3, metadata !2807, metadata !DIExpression()), !dbg !2808
  store i64 %1, ptr %4, align 8
  call void @llvm.dbg.declare(metadata ptr %4, metadata !2809, metadata !DIExpression()), !dbg !2810
  %5 = load ptr, ptr %3, align 8
  %6 = getelementptr inbounds %"struct.std::_Vector_base.16", ptr %5, i32 0, i32 0, !dbg !2811
  %7 = getelementptr inbounds %"struct.std::_Vector_base<ProjectedBody, std::allocator<ProjectedBody>>::_Vector_impl_data", ptr %6, i32 0, i32 0, !dbg !2812
  %8 = load ptr, ptr %7, align 8, !dbg !2812
  %9 = load i64, ptr %4, align 8, !dbg !2813
  %10 = getelementptr inbounds %class.ProjectedBody, ptr %8, i64 %9, !dbg !2814
  ret ptr %10, !dbg !2815
}

; Function Attrs: mustprogress noinline nounwind optnone uwtable
define linkonce_odr dso_local noundef nonnull align 4 dereferenceable(160) ptr @_ZN11MultiCameraclEi(ptr noundef nonnull align 8 dereferenceable(24) %0, i32 noundef %1) #7 comdat align 2 !dbg !2816 {
  %3 = alloca ptr, align 8
  %4 = alloca i32, align 4
  store ptr %0, ptr %3, align 8
  call void @llvm.dbg.declare(metadata ptr %3, metadata !2820, metadata !DIExpression()), !dbg !2821
  store i32 %1, ptr %4, align 4
  call void @llvm.dbg.declare(metadata ptr %4, metadata !2822, metadata !DIExpression()), !dbg !2823
  %5 = load ptr, ptr %3, align 8
  %6 = getelementptr inbounds %class.MultiCamera, ptr %5, i32 0, i32 0, !dbg !2824
  %7 = load i32, ptr %4, align 4, !dbg !2825
  %8 = sext i32 %7 to i64, !dbg !2825
  %9 = call noundef nonnull align 4 dereferenceable(160) ptr @_ZNSt6vectorI6CameraSaIS0_EEixEm(ptr noundef nonnull align 8 dereferenceable(24) %6, i64 noundef %8) #3, !dbg !2824
  ret ptr %9, !dbg !2826
}

; Function Attrs: noinline nounwind optnone uwtable
define linkonce_odr dso_local void @_ZN5PointC2Eff(ptr noundef nonnull align 4 dereferenceable(8) %0, float noundef %1, float noundef %2) unnamed_addr #6 comdat align 2 !dbg !2827 {
  %4 = alloca ptr, align 8
  %5 = alloca float, align 4
  %6 = alloca float, align 4
  store ptr %0, ptr %4, align 8
  call void @llvm.dbg.declare(metadata ptr %4, metadata !2828, metadata !DIExpression()), !dbg !2830
  store float %1, ptr %5, align 4
  call void @llvm.dbg.declare(metadata ptr %5, metadata !2831, metadata !DIExpression()), !dbg !2832
  store float %2, ptr %6, align 4
  call void @llvm.dbg.declare(metadata ptr %6, metadata !2833, metadata !DIExpression()), !dbg !2834
  %7 = load ptr, ptr %4, align 8
  %8 = load float, ptr %5, align 4, !dbg !2835
  %9 = getelementptr inbounds %class.Point, ptr %7, i32 0, i32 0, !dbg !2837
  store float %8, ptr %9, align 4, !dbg !2838
  %10 = load float, ptr %6, align 4, !dbg !2839
  %11 = getelementptr inbounds %class.Point, ptr %7, i32 0, i32 1, !dbg !2840
  store float %10, ptr %11, align 4, !dbg !2841
  ret void, !dbg !2842
}

; Function Attrs: mustprogress noinline nounwind optnone uwtable
define linkonce_odr dso_local void @_ZN5Point3SetEff(ptr noundef nonnull align 4 dereferenceable(8) %0, float noundef %1, float noundef %2) #7 comdat align 2 !dbg !2843 {
  %4 = alloca ptr, align 8
  %5 = alloca float, align 4
  %6 = alloca float, align 4
  store ptr %0, ptr %4, align 8
  call void @llvm.dbg.declare(metadata ptr %4, metadata !2844, metadata !DIExpression()), !dbg !2845
  store float %1, ptr %5, align 4
  call void @llvm.dbg.declare(metadata ptr %5, metadata !2846, metadata !DIExpression()), !dbg !2847
  store float %2, ptr %6, align 4
  call void @llvm.dbg.declare(metadata ptr %6, metadata !2848, metadata !DIExpression()), !dbg !2849
  %7 = load ptr, ptr %4, align 8
  %8 = load float, ptr %5, align 4, !dbg !2850
  %9 = getelementptr inbounds %class.Point, ptr %7, i32 0, i32 0, !dbg !2851
  store float %8, ptr %9, align 4, !dbg !2852
  %10 = load float, ptr %6, align 4, !dbg !2853
  %11 = getelementptr inbounds %class.Point, ptr %7, i32 0, i32 1, !dbg !2854
  store float %10, ptr %11, align 4, !dbg !2855
  ret void, !dbg !2856
}

; Function Attrs: noinline nounwind optnone uwtable
define linkonce_odr dso_local void @_ZN5PointD2Ev(ptr noundef nonnull align 4 dereferenceable(8) %0) unnamed_addr #6 comdat align 2 !dbg !2857 {
  %2 = alloca ptr, align 8
  store ptr %0, ptr %2, align 8
  call void @llvm.dbg.declare(metadata ptr %2, metadata !2858, metadata !DIExpression()), !dbg !2859
  %3 = load ptr, ptr %2, align 8
  ret void, !dbg !2860
}

; Function Attrs: mustprogress noinline nounwind optnone uwtable
define linkonce_odr dso_local noundef i64 @_ZNKSt6vectorI10KTCylinderSaIS0_EE4sizeEv(ptr noundef nonnull align 8 dereferenceable(24) %0) #7 comdat align 2 !dbg !2861 {
  %2 = alloca ptr, align 8
  store ptr %0, ptr %2, align 8
  call void @llvm.dbg.declare(metadata ptr %2, metadata !2868, metadata !DIExpression()), !dbg !2870
  %3 = load ptr, ptr %2, align 8
  %4 = getelementptr inbounds %"struct.std::_Vector_base.1", ptr %3, i32 0, i32 0, !dbg !2871
  %5 = getelementptr inbounds %"struct.std::_Vector_base<KTCylinder, std::allocator<KTCylinder>>::_Vector_impl_data", ptr %4, i32 0, i32 1, !dbg !2872
  %6 = load ptr, ptr %5, align 8, !dbg !2872
  %7 = getelementptr inbounds %"struct.std::_Vector_base.1", ptr %3, i32 0, i32 0, !dbg !2873
  %8 = getelementptr inbounds %"struct.std::_Vector_base<KTCylinder, std::allocator<KTCylinder>>::_Vector_impl_data", ptr %7, i32 0, i32 0, !dbg !2874
  %9 = load ptr, ptr %8, align 8, !dbg !2874
  %10 = ptrtoint ptr %6 to i64, !dbg !2875
  %11 = ptrtoint ptr %9 to i64, !dbg !2875
  %12 = sub i64 %10, %11, !dbg !2875
  %13 = sdiv exact i64 %12, 60, !dbg !2875
  ret i64 %13, !dbg !2876
}

; Function Attrs: mustprogress noinline nounwind optnone uwtable
define linkonce_odr dso_local noundef nonnull align 4 dereferenceable(60) ptr @_ZNKSt6vectorI10KTCylinderSaIS0_EEixEm(ptr noundef nonnull align 8 dereferenceable(24) %0, i64 noundef %1) #7 comdat align 2 !dbg !2877 {
  %3 = alloca ptr, align 8
  %4 = alloca i64, align 8
  store ptr %0, ptr %3, align 8
  call void @llvm.dbg.declare(metadata ptr %3, metadata !2933, metadata !DIExpression()), !dbg !2934
  store i64 %1, ptr %4, align 8
  call void @llvm.dbg.declare(metadata ptr %4, metadata !2935, metadata !DIExpression()), !dbg !2936
  %5 = load ptr, ptr %3, align 8
  %6 = getelementptr inbounds %"struct.std::_Vector_base.1", ptr %5, i32 0, i32 0, !dbg !2937
  %7 = getelementptr inbounds %"struct.std::_Vector_base<KTCylinder, std::allocator<KTCylinder>>::_Vector_impl_data", ptr %6, i32 0, i32 0, !dbg !2938
  %8 = load ptr, ptr %7, align 8, !dbg !2938
  %9 = load i64, ptr %4, align 8, !dbg !2939
  %10 = getelementptr inbounds %class.KTCylinder, ptr %8, i64 %9, !dbg !2940
  ret ptr %10, !dbg !2941
}

; Function Attrs: mustprogress noinline nounwind optnone uwtable
define linkonce_odr dso_local noundef i64 @_ZNKSt6vectorI6CameraSaIS0_EE4sizeEv(ptr noundef nonnull align 8 dereferenceable(24) %0) #7 comdat align 2 !dbg !2942 {
  %2 = alloca ptr, align 8
  store ptr %0, ptr %2, align 8
  call void @llvm.dbg.declare(metadata ptr %2, metadata !2949, metadata !DIExpression()), !dbg !2951
  %3 = load ptr, ptr %2, align 8
  %4 = getelementptr inbounds %"struct.std::_Vector_base.21", ptr %3, i32 0, i32 0, !dbg !2952
  %5 = getelementptr inbounds %"struct.std::_Vector_base<Camera, std::allocator<Camera>>::_Vector_impl_data", ptr %4, i32 0, i32 1, !dbg !2953
  %6 = load ptr, ptr %5, align 8, !dbg !2953
  %7 = getelementptr inbounds %"struct.std::_Vector_base.21", ptr %3, i32 0, i32 0, !dbg !2954
  %8 = getelementptr inbounds %"struct.std::_Vector_base<Camera, std::allocator<Camera>>::_Vector_impl_data", ptr %7, i32 0, i32 0, !dbg !2955
  %9 = load ptr, ptr %8, align 8, !dbg !2955
  %10 = ptrtoint ptr %6 to i64, !dbg !2956
  %11 = ptrtoint ptr %9 to i64, !dbg !2956
  %12 = sub i64 %10, %11, !dbg !2956
  %13 = sdiv exact i64 %12, 160, !dbg !2956
  ret i64 %13, !dbg !2957
}

; Function Attrs: mustprogress noinline nounwind optnone uwtable
define linkonce_odr dso_local noundef nonnull align 4 dereferenceable(160) ptr @_ZNSt6vectorI6CameraSaIS0_EEixEm(ptr noundef nonnull align 8 dereferenceable(24) %0, i64 noundef %1) #7 comdat align 2 !dbg !2958 {
  %3 = alloca ptr, align 8
  %4 = alloca i64, align 8
  store ptr %0, ptr %3, align 8
  call void @llvm.dbg.declare(metadata ptr %3, metadata !3014, metadata !DIExpression()), !dbg !3016
  store i64 %1, ptr %4, align 8
  call void @llvm.dbg.declare(metadata ptr %4, metadata !3017, metadata !DIExpression()), !dbg !3018
  %5 = load ptr, ptr %3, align 8
  %6 = getelementptr inbounds %"struct.std::_Vector_base.21", ptr %5, i32 0, i32 0, !dbg !3019
  %7 = getelementptr inbounds %"struct.std::_Vector_base<Camera, std::allocator<Camera>>::_Vector_impl_data", ptr %6, i32 0, i32 0, !dbg !3020
  %8 = load ptr, ptr %7, align 8, !dbg !3020
  %9 = load i64, ptr %4, align 8, !dbg !3021
  %10 = getelementptr inbounds %class.Camera, ptr %8, i64 %9, !dbg !3022
  ret ptr %10, !dbg !3023
}

; Function Attrs: mustprogress noinline nounwind optnone uwtable
define linkonce_odr dso_local noundef nonnull align 4 dereferenceable(4) ptr @_ZN7DMatrixIfEclEii(ptr noundef nonnull align 4 dereferenceable(48) %0, i32 noundef %1, i32 noundef %2) #7 comdat align 2 !dbg !3024 {
  %4 = alloca ptr, align 8
  %5 = alloca i32, align 4
  %6 = alloca i32, align 4
  store ptr %0, ptr %4, align 8
  call void @llvm.dbg.declare(metadata ptr %4, metadata !3025, metadata !DIExpression()), !dbg !3026
  store i32 %1, ptr %5, align 4
  call void @llvm.dbg.declare(metadata ptr %5, metadata !3027, metadata !DIExpression()), !dbg !3028
  store i32 %2, ptr %6, align 4
  call void @llvm.dbg.declare(metadata ptr %6, metadata !3029, metadata !DIExpression()), !dbg !3030
  %7 = load ptr, ptr %4, align 8
  %8 = getelementptr inbounds %class.DMatrix, ptr %7, i32 0, i32 0, !dbg !3031
  %9 = load i32, ptr %5, align 4, !dbg !3032
  %10 = sext i32 %9 to i64, !dbg !3031
  %11 = getelementptr inbounds [3 x [4 x float]], ptr %8, i64 0, i64 %10, !dbg !3031
  %12 = load i32, ptr %6, align 4, !dbg !3033
  %13 = sext i32 %12 to i64, !dbg !3031
  %14 = getelementptr inbounds [4 x float], ptr %11, i64 0, i64 %13, !dbg !3031
  ret ptr %14, !dbg !3034
}

; Function Attrs: noinline nounwind optnone uwtable
define linkonce_odr dso_local void @_ZN7DMatrixIfEC2Ev(ptr noundef nonnull align 4 dereferenceable(48) %0) unnamed_addr #6 comdat align 2 !dbg !3035 {
  %2 = alloca ptr, align 8
  store ptr %0, ptr %2, align 8
  call void @llvm.dbg.declare(metadata ptr %2, metadata !3036, metadata !DIExpression()), !dbg !3037
  %3 = load ptr, ptr %2, align 8
  ret void, !dbg !3038
}

; Function Attrs: mustprogress noinline nounwind optnone uwtable
define linkonce_odr dso_local void @_ZN7DMatrixIfE5ClearEv(ptr noundef nonnull align 4 dereferenceable(48) %0) #7 comdat align 2 !dbg !3039 {
  %2 = alloca ptr, align 8
  store ptr %0, ptr %2, align 8
  call void @llvm.dbg.declare(metadata ptr %2, metadata !3040, metadata !DIExpression()), !dbg !3041
  %3 = load ptr, ptr %2, align 8
  %4 = getelementptr inbounds %class.DMatrix, ptr %3, i32 0, i32 0, !dbg !3042
  %5 = getelementptr inbounds [3 x [4 x float]], ptr %4, i64 0, i64 0, !dbg !3043
  call void @llvm.memset.p0.i64(ptr align 4 %5, i8 0, i64 48, i1 false), !dbg !3043
  ret void, !dbg !3044
}

; Function Attrs: nocallback nofree nounwind willreturn memory(argmem: write)
declare void @llvm.memset.p0.i64(ptr nocapture writeonly, i8, i64, i1 immarg) #9

; Function Attrs: mustprogress noinline nounwind optnone uwtable
define linkonce_odr dso_local noundef i64 @_ZNKSt6vectorI17ProjectedCylinderSaIS0_EE4sizeEv(ptr noundef nonnull align 8 dereferenceable(24) %0) #7 comdat align 2 !dbg !3045 {
  %2 = alloca ptr, align 8
  store ptr %0, ptr %2, align 8
  call void @llvm.dbg.declare(metadata ptr %2, metadata !3046, metadata !DIExpression()), !dbg !3048
  %3 = load ptr, ptr %2, align 8
  %4 = getelementptr inbounds %"struct.std::_Vector_base", ptr %3, i32 0, i32 0, !dbg !3049
  %5 = getelementptr inbounds %"struct.std::_Vector_base<ProjectedCylinder, std::allocator<ProjectedCylinder>>::_Vector_impl_data", ptr %4, i32 0, i32 1, !dbg !3050
  %6 = load ptr, ptr %5, align 8, !dbg !3050
  %7 = getelementptr inbounds %"struct.std::_Vector_base", ptr %3, i32 0, i32 0, !dbg !3051
  %8 = getelementptr inbounds %"struct.std::_Vector_base<ProjectedCylinder, std::allocator<ProjectedCylinder>>::_Vector_impl_data", ptr %7, i32 0, i32 0, !dbg !3052
  %9 = load ptr, ptr %8, align 8, !dbg !3052
  %10 = ptrtoint ptr %6 to i64, !dbg !3053
  %11 = ptrtoint ptr %9 to i64, !dbg !3053
  %12 = sub i64 %10, %11, !dbg !3053
  %13 = sdiv exact i64 %12, 32, !dbg !3053
  ret i64 %13, !dbg !3054
}

; Function Attrs: mustprogress noinline optnone uwtable
define linkonce_odr dso_local void @_ZNSt6vectorI17ProjectedCylinderSaIS0_EE17_M_default_appendEm(ptr noundef nonnull align 8 dereferenceable(24) %0, i64 noundef %1) #4 comdat align 2 personality ptr @__gxx_personality_v0 !dbg !3055 {
  %3 = alloca ptr, align 8
  %4 = alloca i64, align 8
  %5 = alloca i64, align 8
  %6 = alloca i64, align 8
  %7 = alloca i64, align 8
  %8 = alloca ptr, align 8
  %9 = alloca ptr, align 8
  %10 = alloca i32, align 4
  store ptr %0, ptr %3, align 8
  call void @llvm.dbg.declare(metadata ptr %3, metadata !3056, metadata !DIExpression()), !dbg !3057
  store i64 %1, ptr %4, align 8
  call void @llvm.dbg.declare(metadata ptr %4, metadata !3058, metadata !DIExpression()), !dbg !3059
  %11 = load ptr, ptr %3, align 8
  %12 = load i64, ptr %4, align 8, !dbg !3060
  %13 = icmp ne i64 %12, 0, !dbg !3062
  br i1 %13, label %14, label %115, !dbg !3063

14:                                               ; preds = %2
  call void @llvm.dbg.declare(metadata ptr %5, metadata !3064, metadata !DIExpression()), !dbg !3067
  %15 = call noundef i64 @_ZNKSt6vectorI17ProjectedCylinderSaIS0_EE4sizeEv(ptr noundef nonnull align 8 dereferenceable(24) %11) #3, !dbg !3068
  store i64 %15, ptr %5, align 8, !dbg !3067
  call void @llvm.dbg.declare(metadata ptr %6, metadata !3069, metadata !DIExpression()), !dbg !3070
  %16 = getelementptr inbounds %"struct.std::_Vector_base", ptr %11, i32 0, i32 0, !dbg !3071
  %17 = getelementptr inbounds %"struct.std::_Vector_base<ProjectedCylinder, std::allocator<ProjectedCylinder>>::_Vector_impl_data", ptr %16, i32 0, i32 2, !dbg !3072
  %18 = load ptr, ptr %17, align 8, !dbg !3072
  %19 = getelementptr inbounds %"struct.std::_Vector_base", ptr %11, i32 0, i32 0, !dbg !3073
  %20 = getelementptr inbounds %"struct.std::_Vector_base<ProjectedCylinder, std::allocator<ProjectedCylinder>>::_Vector_impl_data", ptr %19, i32 0, i32 1, !dbg !3074
  %21 = load ptr, ptr %20, align 8, !dbg !3074
  %22 = ptrtoint ptr %18 to i64, !dbg !3075
  %23 = ptrtoint ptr %21 to i64, !dbg !3075
  %24 = sub i64 %22, %23, !dbg !3075
  %25 = sdiv exact i64 %24, 32, !dbg !3075
  store i64 %25, ptr %6, align 8, !dbg !3070
  %26 = load i64, ptr %5, align 8, !dbg !3076
  %27 = call noundef i64 @_ZNKSt6vectorI17ProjectedCylinderSaIS0_EE8max_sizeEv(ptr noundef nonnull align 8 dereferenceable(24) %11) #3, !dbg !3078
  %28 = icmp ugt i64 %26, %27, !dbg !3079
  br i1 %28, label %35, label %29, !dbg !3080

29:                                               ; preds = %14
  %30 = load i64, ptr %6, align 8, !dbg !3081
  %31 = call noundef i64 @_ZNKSt6vectorI17ProjectedCylinderSaIS0_EE8max_sizeEv(ptr noundef nonnull align 8 dereferenceable(24) %11) #3, !dbg !3082
  %32 = load i64, ptr %5, align 8, !dbg !3083
  %33 = sub i64 %31, %32, !dbg !3084
  %34 = icmp ugt i64 %30, %33, !dbg !3085
  br i1 %34, label %35, label %36, !dbg !3086

35:                                               ; preds = %29, %14
  unreachable, !dbg !3087

36:                                               ; preds = %29
  %37 = load i64, ptr %6, align 8, !dbg !3088
  %38 = load i64, ptr %4, align 8, !dbg !3090
  %39 = icmp uge i64 %37, %38, !dbg !3091
  br i1 %39, label %40, label %49, !dbg !3092

40:                                               ; preds = %36
  %41 = getelementptr inbounds %"struct.std::_Vector_base", ptr %11, i32 0, i32 0, !dbg !3093
  %42 = getelementptr inbounds %"struct.std::_Vector_base<ProjectedCylinder, std::allocator<ProjectedCylinder>>::_Vector_impl_data", ptr %41, i32 0, i32 1, !dbg !3095
  %43 = load ptr, ptr %42, align 8, !dbg !3095
  %44 = load i64, ptr %4, align 8, !dbg !3096
  %45 = call noundef nonnull align 1 dereferenceable(1) ptr @_ZNSt12_Vector_baseI17ProjectedCylinderSaIS0_EE19_M_get_Tp_allocatorEv(ptr noundef nonnull align 8 dereferenceable(24) %11) #3, !dbg !3097
  %46 = call noundef ptr @_ZSt27__uninitialized_default_n_aIP17ProjectedCylindermS0_ET_S2_T0_RSaIT1_E(ptr noundef %43, i64 noundef %44, ptr noundef nonnull align 1 dereferenceable(1) %45), !dbg !3098
  %47 = getelementptr inbounds %"struct.std::_Vector_base", ptr %11, i32 0, i32 0, !dbg !3099
  %48 = getelementptr inbounds %"struct.std::_Vector_base<ProjectedCylinder, std::allocator<ProjectedCylinder>>::_Vector_impl_data", ptr %47, i32 0, i32 1, !dbg !3100
  store ptr %46, ptr %48, align 8, !dbg !3101
  br label %114, !dbg !3102

49:                                               ; preds = %36
  call void @llvm.dbg.declare(metadata ptr %7, metadata !3103, metadata !DIExpression()), !dbg !3105
  %50 = load i64, ptr %4, align 8, !dbg !3106
  %51 = call noundef i64 @_ZNKSt6vectorI17ProjectedCylinderSaIS0_EE12_M_check_lenEmPKc(ptr noundef nonnull align 8 dereferenceable(24) %11, i64 noundef %50, ptr noundef @.str), !dbg !3107
  store i64 %51, ptr %7, align 8, !dbg !3105
  call void @llvm.dbg.declare(metadata ptr %8, metadata !3108, metadata !DIExpression()), !dbg !3109
  %52 = load i64, ptr %7, align 8, !dbg !3110
  %53 = call noundef ptr @_ZNSt12_Vector_baseI17ProjectedCylinderSaIS0_EE11_M_allocateEm(ptr noundef nonnull align 8 dereferenceable(24) %11, i64 noundef %52), !dbg !3111
  store ptr %53, ptr %8, align 8, !dbg !3109
  %54 = load ptr, ptr %8, align 8, !dbg !3112
  %55 = load i64, ptr %5, align 8, !dbg !3116
  %56 = getelementptr inbounds %class.ProjectedCylinder, ptr %54, i64 %55, !dbg !3117
  %57 = load i64, ptr %4, align 8, !dbg !3118
  %58 = call noundef nonnull align 1 dereferenceable(1) ptr @_ZNSt12_Vector_baseI17ProjectedCylinderSaIS0_EE19_M_get_Tp_allocatorEv(ptr noundef nonnull align 8 dereferenceable(24) %11) #3, !dbg !3119
  %59 = invoke noundef ptr @_ZSt27__uninitialized_default_n_aIP17ProjectedCylindermS0_ET_S2_T0_RSaIT1_E(ptr noundef %56, i64 noundef %57, ptr noundef nonnull align 1 dereferenceable(1) %58)
          to label %60 unwind label %61, !dbg !3120

60:                                               ; preds = %49
  br label %76, !dbg !3121

61:                                               ; preds = %49
  %62 = landingpad { ptr, i32 }
          catch ptr null, !dbg !3122
  %63 = extractvalue { ptr, i32 } %62, 0, !dbg !3122
  store ptr %63, ptr %9, align 8, !dbg !3122
  %64 = extractvalue { ptr, i32 } %62, 1, !dbg !3122
  store i32 %64, ptr %10, align 4, !dbg !3122
  br label %65, !dbg !3122

65:                                               ; preds = %61
  %66 = load ptr, ptr %9, align 8, !dbg !3121
  %67 = call ptr @__cxa_begin_catch(ptr %66) #3, !dbg !3121
  %68 = load ptr, ptr %8, align 8, !dbg !3123
  %69 = load i64, ptr %7, align 8, !dbg !3125
  invoke void @_ZNSt12_Vector_baseI17ProjectedCylinderSaIS0_EE13_M_deallocateEPS0_m(ptr noundef nonnull align 8 dereferenceable(24) %11, ptr noundef %68, i64 noundef %69)
          to label %70 unwind label %71, !dbg !3126

70:                                               ; preds = %65
  invoke void @__cxa_rethrow() #16
          to label %124 unwind label %71, !dbg !3127

71:                                               ; preds = %70, %65
  %72 = landingpad { ptr, i32 }
          cleanup, !dbg !3128
  %73 = extractvalue { ptr, i32 } %72, 0, !dbg !3128
  store ptr %73, ptr %9, align 8, !dbg !3128
  %74 = extractvalue { ptr, i32 } %72, 1, !dbg !3128
  store i32 %74, ptr %10, align 4, !dbg !3128
  invoke void @__cxa_end_catch()
          to label %75 unwind label %121, !dbg !3129

75:                                               ; preds = %71
  br label %116, !dbg !3129

76:                                               ; preds = %60
  %77 = getelementptr inbounds %"struct.std::_Vector_base", ptr %11, i32 0, i32 0, !dbg !3130
  %78 = getelementptr inbounds %"struct.std::_Vector_base<ProjectedCylinder, std::allocator<ProjectedCylinder>>::_Vector_impl_data", ptr %77, i32 0, i32 0, !dbg !3131
  %79 = load ptr, ptr %78, align 8, !dbg !3131
  %80 = getelementptr inbounds %"struct.std::_Vector_base", ptr %11, i32 0, i32 0, !dbg !3132
  %81 = getelementptr inbounds %"struct.std::_Vector_base<ProjectedCylinder, std::allocator<ProjectedCylinder>>::_Vector_impl_data", ptr %80, i32 0, i32 1, !dbg !3133
  %82 = load ptr, ptr %81, align 8, !dbg !3133
  %83 = load ptr, ptr %8, align 8, !dbg !3134
  %84 = call noundef nonnull align 1 dereferenceable(1) ptr @_ZNSt12_Vector_baseI17ProjectedCylinderSaIS0_EE19_M_get_Tp_allocatorEv(ptr noundef nonnull align 8 dereferenceable(24) %11) #3, !dbg !3135
  %85 = call noundef ptr @_ZNSt6vectorI17ProjectedCylinderSaIS0_EE11_S_relocateEPS0_S3_S3_RS1_(ptr noundef %79, ptr noundef %82, ptr noundef %83, ptr noundef nonnull align 1 dereferenceable(1) %84) #3, !dbg !3136
  %86 = getelementptr inbounds %"struct.std::_Vector_base", ptr %11, i32 0, i32 0, !dbg !3137
  %87 = getelementptr inbounds %"struct.std::_Vector_base<ProjectedCylinder, std::allocator<ProjectedCylinder>>::_Vector_impl_data", ptr %86, i32 0, i32 0, !dbg !3138
  %88 = load ptr, ptr %87, align 8, !dbg !3138
  %89 = getelementptr inbounds %"struct.std::_Vector_base", ptr %11, i32 0, i32 0, !dbg !3139
  %90 = getelementptr inbounds %"struct.std::_Vector_base<ProjectedCylinder, std::allocator<ProjectedCylinder>>::_Vector_impl_data", ptr %89, i32 0, i32 2, !dbg !3140
  %91 = load ptr, ptr %90, align 8, !dbg !3140
  %92 = getelementptr inbounds %"struct.std::_Vector_base", ptr %11, i32 0, i32 0, !dbg !3141
  %93 = getelementptr inbounds %"struct.std::_Vector_base<ProjectedCylinder, std::allocator<ProjectedCylinder>>::_Vector_impl_data", ptr %92, i32 0, i32 0, !dbg !3142
  %94 = load ptr, ptr %93, align 8, !dbg !3142
  %95 = ptrtoint ptr %91 to i64, !dbg !3143
  %96 = ptrtoint ptr %94 to i64, !dbg !3143
  %97 = sub i64 %95, %96, !dbg !3143
  %98 = sdiv exact i64 %97, 32, !dbg !3143
  call void @_ZNSt12_Vector_baseI17ProjectedCylinderSaIS0_EE13_M_deallocateEPS0_m(ptr noundef nonnull align 8 dereferenceable(24) %11, ptr noundef %88, i64 noundef %98), !dbg !3144
  %99 = load ptr, ptr %8, align 8, !dbg !3145
  %100 = getelementptr inbounds %"struct.std::_Vector_base", ptr %11, i32 0, i32 0, !dbg !3146
  %101 = getelementptr inbounds %"struct.std::_Vector_base<ProjectedCylinder, std::allocator<ProjectedCylinder>>::_Vector_impl_data", ptr %100, i32 0, i32 0, !dbg !3147
  store ptr %99, ptr %101, align 8, !dbg !3148
  %102 = load ptr, ptr %8, align 8, !dbg !3149
  %103 = load i64, ptr %5, align 8, !dbg !3150
  %104 = getelementptr inbounds %class.ProjectedCylinder, ptr %102, i64 %103, !dbg !3151
  %105 = load i64, ptr %4, align 8, !dbg !3152
  %106 = getelementptr inbounds %class.ProjectedCylinder, ptr %104, i64 %105, !dbg !3153
  %107 = getelementptr inbounds %"struct.std::_Vector_base", ptr %11, i32 0, i32 0, !dbg !3154
  %108 = getelementptr inbounds %"struct.std::_Vector_base<ProjectedCylinder, std::allocator<ProjectedCylinder>>::_Vector_impl_data", ptr %107, i32 0, i32 1, !dbg !3155
  store ptr %106, ptr %108, align 8, !dbg !3156
  %109 = load ptr, ptr %8, align 8, !dbg !3157
  %110 = load i64, ptr %7, align 8, !dbg !3158
  %111 = getelementptr inbounds %class.ProjectedCylinder, ptr %109, i64 %110, !dbg !3159
  %112 = getelementptr inbounds %"struct.std::_Vector_base", ptr %11, i32 0, i32 0, !dbg !3160
  %113 = getelementptr inbounds %"struct.std::_Vector_base<ProjectedCylinder, std::allocator<ProjectedCylinder>>::_Vector_impl_data", ptr %112, i32 0, i32 2, !dbg !3161
  store ptr %111, ptr %113, align 8, !dbg !3162
  br label %114

114:                                              ; preds = %76, %40
  br label %115, !dbg !3163

115:                                              ; preds = %114, %2
  ret void, !dbg !3164

116:                                              ; preds = %75
  %117 = load ptr, ptr %9, align 8, !dbg !3129
  %118 = load i32, ptr %10, align 4, !dbg !3129
  %119 = insertvalue { ptr, i32 } poison, ptr %117, 0, !dbg !3129
  %120 = insertvalue { ptr, i32 } %119, i32 %118, 1, !dbg !3129
  resume { ptr, i32 } %120, !dbg !3129

121:                                              ; preds = %71
  %122 = landingpad { ptr, i32 }
          catch ptr null, !dbg !3129
  %123 = extractvalue { ptr, i32 } %122, 0, !dbg !3129
  call void @__clang_call_terminate(ptr %123) #17, !dbg !3129
  unreachable, !dbg !3129

124:                                              ; preds = %70
  unreachable
}

; Function Attrs: mustprogress noinline nounwind optnone uwtable
define linkonce_odr dso_local void @_ZNSt6vectorI17ProjectedCylinderSaIS0_EE15_M_erase_at_endEPS0_(ptr noundef nonnull align 8 dereferenceable(24) %0, ptr noundef %1) #7 comdat align 2 personality ptr @__gxx_personality_v0 !dbg !3165 {
  %3 = alloca ptr, align 8
  %4 = alloca ptr, align 8
  %5 = alloca i64, align 8
  store ptr %0, ptr %3, align 8
  call void @llvm.dbg.declare(metadata ptr %3, metadata !3166, metadata !DIExpression()), !dbg !3167
  store ptr %1, ptr %4, align 8
  call void @llvm.dbg.declare(metadata ptr %4, metadata !3168, metadata !DIExpression()), !dbg !3169
  %6 = load ptr, ptr %3, align 8
  call void @llvm.dbg.declare(metadata ptr %5, metadata !3170, metadata !DIExpression()), !dbg !3172
  %7 = getelementptr inbounds %"struct.std::_Vector_base", ptr %6, i32 0, i32 0, !dbg !3173
  %8 = getelementptr inbounds %"struct.std::_Vector_base<ProjectedCylinder, std::allocator<ProjectedCylinder>>::_Vector_impl_data", ptr %7, i32 0, i32 1, !dbg !3174
  %9 = load ptr, ptr %8, align 8, !dbg !3174
  %10 = load ptr, ptr %4, align 8, !dbg !3175
  %11 = ptrtoint ptr %9 to i64, !dbg !3176
  %12 = ptrtoint ptr %10 to i64, !dbg !3176
  %13 = sub i64 %11, %12, !dbg !3176
  %14 = sdiv exact i64 %13, 32, !dbg !3176
  store i64 %14, ptr %5, align 8, !dbg !3172
  %15 = load i64, ptr %5, align 8, !dbg !3172
  %16 = icmp ne i64 %15, 0, !dbg !3172
  br i1 %16, label %17, label %27, !dbg !3177

17:                                               ; preds = %2
  %18 = load ptr, ptr %4, align 8, !dbg !3178
  %19 = getelementptr inbounds %"struct.std::_Vector_base", ptr %6, i32 0, i32 0, !dbg !3180
  %20 = getelementptr inbounds %"struct.std::_Vector_base<ProjectedCylinder, std::allocator<ProjectedCylinder>>::_Vector_impl_data", ptr %19, i32 0, i32 1, !dbg !3181
  %21 = load ptr, ptr %20, align 8, !dbg !3181
  %22 = call noundef nonnull align 1 dereferenceable(1) ptr @_ZNSt12_Vector_baseI17ProjectedCylinderSaIS0_EE19_M_get_Tp_allocatorEv(ptr noundef nonnull align 8 dereferenceable(24) %6) #3, !dbg !3182
  invoke void @_ZSt8_DestroyIP17ProjectedCylinderS0_EvT_S2_RSaIT0_E(ptr noundef %18, ptr noundef %21, ptr noundef nonnull align 1 dereferenceable(1) %22)
          to label %23 unwind label %28, !dbg !3183

23:                                               ; preds = %17
  %24 = load ptr, ptr %4, align 8, !dbg !3184
  %25 = getelementptr inbounds %"struct.std::_Vector_base", ptr %6, i32 0, i32 0, !dbg !3185
  %26 = getelementptr inbounds %"struct.std::_Vector_base<ProjectedCylinder, std::allocator<ProjectedCylinder>>::_Vector_impl_data", ptr %25, i32 0, i32 1, !dbg !3186
  store ptr %24, ptr %26, align 8, !dbg !3187
  br label %27, !dbg !3188

27:                                               ; preds = %23, %2
  ret void, !dbg !3189

28:                                               ; preds = %17
  %29 = landingpad { ptr, i32 }
          catch ptr null, !dbg !3183
  %30 = extractvalue { ptr, i32 } %29, 0, !dbg !3183
  call void @__clang_call_terminate(ptr %30) #17, !dbg !3183
  unreachable, !dbg !3183
}

; Function Attrs: mustprogress noinline nounwind optnone uwtable
define linkonce_odr dso_local noundef i64 @_ZNKSt6vectorI17ProjectedCylinderSaIS0_EE8max_sizeEv(ptr noundef nonnull align 8 dereferenceable(24) %0) #7 comdat align 2 !dbg !3190 {
  %2 = alloca ptr, align 8
  store ptr %0, ptr %2, align 8
  call void @llvm.dbg.declare(metadata ptr %2, metadata !3191, metadata !DIExpression()), !dbg !3192
  %3 = load ptr, ptr %2, align 8
  %4 = call noundef nonnull align 1 dereferenceable(1) ptr @_ZNKSt12_Vector_baseI17ProjectedCylinderSaIS0_EE19_M_get_Tp_allocatorEv(ptr noundef nonnull align 8 dereferenceable(24) %3) #3, !dbg !3193
  %5 = call noundef i64 @_ZNSt6vectorI17ProjectedCylinderSaIS0_EE11_S_max_sizeERKS1_(ptr noundef nonnull align 1 dereferenceable(1) %4) #3, !dbg !3194
  ret i64 %5, !dbg !3195
}

; Function Attrs: mustprogress noinline optnone uwtable
define linkonce_odr dso_local noundef ptr @_ZSt27__uninitialized_default_n_aIP17ProjectedCylindermS0_ET_S2_T0_RSaIT1_E(ptr noundef %0, i64 noundef %1, ptr noundef nonnull align 1 dereferenceable(1) %2) #4 comdat !dbg !3196 {
  %4 = alloca ptr, align 8
  %5 = alloca i64, align 8
  %6 = alloca ptr, align 8
  store ptr %0, ptr %4, align 8
  call void @llvm.dbg.declare(metadata ptr %4, metadata !3203, metadata !DIExpression()), !dbg !3204
  store i64 %1, ptr %5, align 8
  call void @llvm.dbg.declare(metadata ptr %5, metadata !3205, metadata !DIExpression()), !dbg !3206
  store ptr %2, ptr %6, align 8
  call void @llvm.dbg.declare(metadata ptr %6, metadata !3207, metadata !DIExpression()), !dbg !3208
  %7 = load ptr, ptr %4, align 8, !dbg !3209
  %8 = load i64, ptr %5, align 8, !dbg !3210
  %9 = call noundef ptr @_ZSt25__uninitialized_default_nIP17ProjectedCylindermET_S2_T0_(ptr noundef %7, i64 noundef %8), !dbg !3211
  ret ptr %9, !dbg !3212
}

; Function Attrs: mustprogress noinline nounwind optnone uwtable
define linkonce_odr dso_local noundef nonnull align 1 dereferenceable(1) ptr @_ZNSt12_Vector_baseI17ProjectedCylinderSaIS0_EE19_M_get_Tp_allocatorEv(ptr noundef nonnull align 8 dereferenceable(24) %0) #7 comdat align 2 !dbg !3213 {
  %2 = alloca ptr, align 8
  store ptr %0, ptr %2, align 8
  call void @llvm.dbg.declare(metadata ptr %2, metadata !3214, metadata !DIExpression()), !dbg !3216
  %3 = load ptr, ptr %2, align 8
  %4 = getelementptr inbounds %"struct.std::_Vector_base", ptr %3, i32 0, i32 0, !dbg !3217
  ret ptr %4, !dbg !3218
}

; Function Attrs: mustprogress noinline optnone uwtable
define linkonce_odr dso_local noundef i64 @_ZNKSt6vectorI17ProjectedCylinderSaIS0_EE12_M_check_lenEmPKc(ptr noundef nonnull align 8 dereferenceable(24) %0, i64 noundef %1, ptr noundef %2) #4 comdat align 2 !dbg !3219 {
  %4 = alloca ptr, align 8
  %5 = alloca i64, align 8
  %6 = alloca ptr, align 8
  %7 = alloca i64, align 8
  %8 = alloca i64, align 8
  store ptr %0, ptr %4, align 8
  call void @llvm.dbg.declare(metadata ptr %4, metadata !3220, metadata !DIExpression()), !dbg !3221
  store i64 %1, ptr %5, align 8
  call void @llvm.dbg.declare(metadata ptr %5, metadata !3222, metadata !DIExpression()), !dbg !3223
  store ptr %2, ptr %6, align 8
  call void @llvm.dbg.declare(metadata ptr %6, metadata !3224, metadata !DIExpression()), !dbg !3225
  %9 = load ptr, ptr %4, align 8
  %10 = call noundef i64 @_ZNKSt6vectorI17ProjectedCylinderSaIS0_EE8max_sizeEv(ptr noundef nonnull align 8 dereferenceable(24) %9) #3, !dbg !3226
  %11 = call noundef i64 @_ZNKSt6vectorI17ProjectedCylinderSaIS0_EE4sizeEv(ptr noundef nonnull align 8 dereferenceable(24) %9) #3, !dbg !3228
  %12 = sub i64 %10, %11, !dbg !3229
  %13 = load i64, ptr %5, align 8, !dbg !3230
  %14 = icmp ult i64 %12, %13, !dbg !3231
  br i1 %14, label %15, label %17, !dbg !3232

15:                                               ; preds = %3
  %16 = load ptr, ptr %6, align 8, !dbg !3233
  call void @_ZSt20__throw_length_errorPKc(ptr noundef %16) #16, !dbg !3234
  unreachable, !dbg !3234

17:                                               ; preds = %3
  call void @llvm.dbg.declare(metadata ptr %7, metadata !3235, metadata !DIExpression()), !dbg !3236
  %18 = call noundef i64 @_ZNKSt6vectorI17ProjectedCylinderSaIS0_EE4sizeEv(ptr noundef nonnull align 8 dereferenceable(24) %9) #3, !dbg !3237
  %19 = call noundef i64 @_ZNKSt6vectorI17ProjectedCylinderSaIS0_EE4sizeEv(ptr noundef nonnull align 8 dereferenceable(24) %9) #3, !dbg !3238
  store i64 %19, ptr %8, align 8, !dbg !3238
  %20 = call noundef nonnull align 8 dereferenceable(8) ptr @_ZSt3maxImERKT_S2_S2_(ptr noundef nonnull align 8 dereferenceable(8) %8, ptr noundef nonnull align 8 dereferenceable(8) %5), !dbg !3239
  %21 = load i64, ptr %20, align 8, !dbg !3239
  %22 = add i64 %18, %21, !dbg !3240
  store i64 %22, ptr %7, align 8, !dbg !3236
  %23 = load i64, ptr %7, align 8, !dbg !3241
  %24 = call noundef i64 @_ZNKSt6vectorI17ProjectedCylinderSaIS0_EE4sizeEv(ptr noundef nonnull align 8 dereferenceable(24) %9) #3, !dbg !3242
  %25 = icmp ult i64 %23, %24, !dbg !3243
  br i1 %25, label %30, label %26, !dbg !3244

26:                                               ; preds = %17
  %27 = load i64, ptr %7, align 8, !dbg !3245
  %28 = call noundef i64 @_ZNKSt6vectorI17ProjectedCylinderSaIS0_EE8max_sizeEv(ptr noundef nonnull align 8 dereferenceable(24) %9) #3, !dbg !3246
  %29 = icmp ugt i64 %27, %28, !dbg !3247
  br i1 %29, label %30, label %32, !dbg !3248

30:                                               ; preds = %26, %17
  %31 = call noundef i64 @_ZNKSt6vectorI17ProjectedCylinderSaIS0_EE8max_sizeEv(ptr noundef nonnull align 8 dereferenceable(24) %9) #3, !dbg !3249
  br label %34, !dbg !3248

32:                                               ; preds = %26
  %33 = load i64, ptr %7, align 8, !dbg !3250
  br label %34, !dbg !3248

34:                                               ; preds = %32, %30
  %35 = phi i64 [ %31, %30 ], [ %33, %32 ], !dbg !3248
  ret i64 %35, !dbg !3251
}

; Function Attrs: mustprogress noinline optnone uwtable
define linkonce_odr dso_local noundef ptr @_ZNSt12_Vector_baseI17ProjectedCylinderSaIS0_EE11_M_allocateEm(ptr noundef nonnull align 8 dereferenceable(24) %0, i64 noundef %1) #4 comdat align 2 !dbg !3252 {
  %3 = alloca ptr, align 8
  %4 = alloca i64, align 8
  store ptr %0, ptr %3, align 8
  call void @llvm.dbg.declare(metadata ptr %3, metadata !3253, metadata !DIExpression()), !dbg !3254
  store i64 %1, ptr %4, align 8
  call void @llvm.dbg.declare(metadata ptr %4, metadata !3255, metadata !DIExpression()), !dbg !3256
  %5 = load ptr, ptr %3, align 8
  %6 = load i64, ptr %4, align 8, !dbg !3257
  %7 = icmp ne i64 %6, 0, !dbg !3258
  br i1 %7, label %8, label %12, !dbg !3257

8:                                                ; preds = %2
  %9 = getelementptr inbounds %"struct.std::_Vector_base", ptr %5, i32 0, i32 0, !dbg !3259
  %10 = load i64, ptr %4, align 8, !dbg !3260
  %11 = call noundef ptr @_ZNSt16allocator_traitsISaI17ProjectedCylinderEE8allocateERS1_m(ptr noundef nonnull align 1 dereferenceable(1) %9, i64 noundef %10), !dbg !3261
  br label %13, !dbg !3257

12:                                               ; preds = %2
  br label %13, !dbg !3257

13:                                               ; preds = %12, %8
  %14 = phi ptr [ %11, %8 ], [ null, %12 ], !dbg !3257
  ret ptr %14, !dbg !3262
}

declare ptr @__cxa_begin_catch(ptr)

; Function Attrs: mustprogress noinline optnone uwtable
define linkonce_odr dso_local void @_ZNSt12_Vector_baseI17ProjectedCylinderSaIS0_EE13_M_deallocateEPS0_m(ptr noundef nonnull align 8 dereferenceable(24) %0, ptr noundef %1, i64 noundef %2) #4 comdat align 2 !dbg !3263 {
  %4 = alloca ptr, align 8
  %5 = alloca ptr, align 8
  %6 = alloca i64, align 8
  store ptr %0, ptr %4, align 8
  call void @llvm.dbg.declare(metadata ptr %4, metadata !3264, metadata !DIExpression()), !dbg !3265
  store ptr %1, ptr %5, align 8
  call void @llvm.dbg.declare(metadata ptr %5, metadata !3266, metadata !DIExpression()), !dbg !3267
  store i64 %2, ptr %6, align 8
  call void @llvm.dbg.declare(metadata ptr %6, metadata !3268, metadata !DIExpression()), !dbg !3269
  %7 = load ptr, ptr %4, align 8
  %8 = load ptr, ptr %5, align 8, !dbg !3270
  %9 = icmp ne ptr %8, null, !dbg !3270
  br i1 %9, label %10, label %14, !dbg !3272

10:                                               ; preds = %3
  %11 = getelementptr inbounds %"struct.std::_Vector_base", ptr %7, i32 0, i32 0, !dbg !3273
  %12 = load ptr, ptr %5, align 8, !dbg !3274
  %13 = load i64, ptr %6, align 8, !dbg !3275
  call void @_ZNSt16allocator_traitsISaI17ProjectedCylinderEE10deallocateERS1_PS0_m(ptr noundef nonnull align 1 dereferenceable(1) %11, ptr noundef %12, i64 noundef %13), !dbg !3276
  br label %14, !dbg !3276

14:                                               ; preds = %10, %3
  ret void, !dbg !3277
}

declare void @__cxa_rethrow()

declare void @__cxa_end_catch()

; Function Attrs: noinline noreturn nounwind
define linkonce_odr hidden void @__clang_call_terminate(ptr noundef %0) #10 comdat {
  %2 = call ptr @__cxa_begin_catch(ptr %0) #3
  call void @_ZSt9terminatev() #17
  unreachable
}

declare void @_ZSt9terminatev()

; Function Attrs: mustprogress noinline nounwind optnone uwtable
define linkonce_odr dso_local noundef ptr @_ZNSt6vectorI17ProjectedCylinderSaIS0_EE11_S_relocateEPS0_S3_S3_RS1_(ptr noundef %0, ptr noundef %1, ptr noundef %2, ptr noundef nonnull align 1 dereferenceable(1) %3) #7 comdat align 2 !dbg !130 {
  %5 = alloca ptr, align 8
  %6 = alloca ptr, align 8
  %7 = alloca ptr, align 8
  %8 = alloca ptr, align 8
  %9 = alloca %"struct.std::integral_constant", align 1
  store ptr %0, ptr %5, align 8
  call void @llvm.dbg.declare(metadata ptr %5, metadata !3278, metadata !DIExpression()), !dbg !3279
  store ptr %1, ptr %6, align 8
  call void @llvm.dbg.declare(metadata ptr %6, metadata !3280, metadata !DIExpression()), !dbg !3281
  store ptr %2, ptr %7, align 8
  call void @llvm.dbg.declare(metadata ptr %7, metadata !3282, metadata !DIExpression()), !dbg !3283
  store ptr %3, ptr %8, align 8
  call void @llvm.dbg.declare(metadata ptr %8, metadata !3284, metadata !DIExpression()), !dbg !3285
  %10 = load ptr, ptr %5, align 8, !dbg !3286
  %11 = load ptr, ptr %6, align 8, !dbg !3287
  %12 = load ptr, ptr %7, align 8, !dbg !3288
  %13 = load ptr, ptr %8, align 8, !dbg !3289
  %14 = call noundef ptr @_ZNSt6vectorI17ProjectedCylinderSaIS0_EE14_S_do_relocateEPS0_S3_S3_RS1_St17integral_constantIbLb1EE(ptr noundef %10, ptr noundef %11, ptr noundef %12, ptr noundef nonnull align 1 dereferenceable(1) %13) #3, !dbg !3290
  ret ptr %14, !dbg !3291
}

; Function Attrs: mustprogress noinline nounwind optnone uwtable
define linkonce_odr dso_local noundef i64 @_ZNSt6vectorI17ProjectedCylinderSaIS0_EE11_S_max_sizeERKS1_(ptr noundef nonnull align 1 dereferenceable(1) %0) #7 comdat align 2 personality ptr @__gxx_personality_v0 !dbg !3292 {
  %2 = alloca ptr, align 8
  %3 = alloca i64, align 8
  %4 = alloca i64, align 8
  store ptr %0, ptr %2, align 8
  call void @llvm.dbg.declare(metadata ptr %2, metadata !3293, metadata !DIExpression()), !dbg !3294
  call void @llvm.dbg.declare(metadata ptr %3, metadata !3295, metadata !DIExpression()), !dbg !3297
  store i64 288230376151711743, ptr %3, align 8, !dbg !3297
  call void @llvm.dbg.declare(metadata ptr %4, metadata !3298, metadata !DIExpression()), !dbg !3299
  %5 = load ptr, ptr %2, align 8, !dbg !3300
  %6 = call noundef i64 @_ZNSt16allocator_traitsISaI17ProjectedCylinderEE8max_sizeERKS1_(ptr noundef nonnull align 1 dereferenceable(1) %5) #3, !dbg !3301
  store i64 %6, ptr %4, align 8, !dbg !3299
  %7 = invoke noundef nonnull align 8 dereferenceable(8) ptr @_ZSt3minImERKT_S2_S2_(ptr noundef nonnull align 8 dereferenceable(8) %3, ptr noundef nonnull align 8 dereferenceable(8) %4)
          to label %8 unwind label %10, !dbg !3302

8:                                                ; preds = %1
  %9 = load i64, ptr %7, align 8, !dbg !3302
  ret i64 %9, !dbg !3303

10:                                               ; preds = %1
  %11 = landingpad { ptr, i32 }
          catch ptr null, !dbg !3302
  %12 = extractvalue { ptr, i32 } %11, 0, !dbg !3302
  call void @__clang_call_terminate(ptr %12) #17, !dbg !3302
  unreachable, !dbg !3302
}

; Function Attrs: mustprogress noinline nounwind optnone uwtable
define linkonce_odr dso_local noundef nonnull align 1 dereferenceable(1) ptr @_ZNKSt12_Vector_baseI17ProjectedCylinderSaIS0_EE19_M_get_Tp_allocatorEv(ptr noundef nonnull align 8 dereferenceable(24) %0) #7 comdat align 2 !dbg !3304 {
  %2 = alloca ptr, align 8
  store ptr %0, ptr %2, align 8
  call void @llvm.dbg.declare(metadata ptr %2, metadata !3305, metadata !DIExpression()), !dbg !3307
  %3 = load ptr, ptr %2, align 8
  %4 = getelementptr inbounds %"struct.std::_Vector_base", ptr %3, i32 0, i32 0, !dbg !3308
  ret ptr %4, !dbg !3309
}

; Function Attrs: mustprogress noinline nounwind optnone uwtable
define linkonce_odr dso_local noundef i64 @_ZNSt16allocator_traitsISaI17ProjectedCylinderEE8max_sizeERKS1_(ptr noundef nonnull align 1 dereferenceable(1) %0) #7 comdat align 2 !dbg !3310 {
  %2 = alloca ptr, align 8
  store ptr %0, ptr %2, align 8
  call void @llvm.dbg.declare(metadata ptr %2, metadata !3311, metadata !DIExpression()), !dbg !3312
  %3 = load ptr, ptr %2, align 8, !dbg !3313
  %4 = call noundef i64 @_ZNK9__gnu_cxx13new_allocatorI17ProjectedCylinderE8max_sizeEv(ptr noundef nonnull align 1 dereferenceable(1) %3) #3, !dbg !3314
  ret i64 %4, !dbg !3315
}

; Function Attrs: mustprogress noinline nounwind optnone uwtable
define linkonce_odr dso_local noundef nonnull align 8 dereferenceable(8) ptr @_ZSt3minImERKT_S2_S2_(ptr noundef nonnull align 8 dereferenceable(8) %0, ptr noundef nonnull align 8 dereferenceable(8) %1) #7 comdat !dbg !3316 {
  %3 = alloca ptr, align 8
  %4 = alloca ptr, align 8
  %5 = alloca ptr, align 8
  store ptr %0, ptr %4, align 8
  call void @llvm.dbg.declare(metadata ptr %4, metadata !3324, metadata !DIExpression()), !dbg !3325
  store ptr %1, ptr %5, align 8
  call void @llvm.dbg.declare(metadata ptr %5, metadata !3326, metadata !DIExpression()), !dbg !3327
  %6 = load ptr, ptr %5, align 8, !dbg !3328
  %7 = load i64, ptr %6, align 8, !dbg !3328
  %8 = load ptr, ptr %4, align 8, !dbg !3330
  %9 = load i64, ptr %8, align 8, !dbg !3330
  %10 = icmp ult i64 %7, %9, !dbg !3331
  br i1 %10, label %11, label %13, !dbg !3332

11:                                               ; preds = %2
  %12 = load ptr, ptr %5, align 8, !dbg !3333
  store ptr %12, ptr %3, align 8, !dbg !3334
  br label %15, !dbg !3334

13:                                               ; preds = %2
  %14 = load ptr, ptr %4, align 8, !dbg !3335
  store ptr %14, ptr %3, align 8, !dbg !3336
  br label %15, !dbg !3336

15:                                               ; preds = %13, %11
  %16 = load ptr, ptr %3, align 8, !dbg !3337
  ret ptr %16, !dbg !3337
}

; Function Attrs: mustprogress noinline nounwind optnone uwtable
define linkonce_odr dso_local noundef i64 @_ZNK9__gnu_cxx13new_allocatorI17ProjectedCylinderE8max_sizeEv(ptr noundef nonnull align 1 dereferenceable(1) %0) #7 comdat align 2 !dbg !3338 {
  %2 = alloca ptr, align 8
  store ptr %0, ptr %2, align 8
  call void @llvm.dbg.declare(metadata ptr %2, metadata !3339, metadata !DIExpression()), !dbg !3341
  %3 = load ptr, ptr %2, align 8
  %4 = call noundef i64 @_ZNK9__gnu_cxx13new_allocatorI17ProjectedCylinderE11_M_max_sizeEv(ptr noundef nonnull align 1 dereferenceable(1) %3) #3, !dbg !3342
  ret i64 %4, !dbg !3343
}

; Function Attrs: mustprogress noinline nounwind optnone uwtable
define linkonce_odr dso_local noundef i64 @_ZNK9__gnu_cxx13new_allocatorI17ProjectedCylinderE11_M_max_sizeEv(ptr noundef nonnull align 1 dereferenceable(1) %0) #7 comdat align 2 !dbg !3344 {
  %2 = alloca ptr, align 8
  store ptr %0, ptr %2, align 8
  call void @llvm.dbg.declare(metadata ptr %2, metadata !3345, metadata !DIExpression()), !dbg !3346
  %3 = load ptr, ptr %2, align 8
  ret i64 288230376151711743, !dbg !3347
}

; Function Attrs: mustprogress noinline optnone uwtable
define linkonce_odr dso_local noundef ptr @_ZSt25__uninitialized_default_nIP17ProjectedCylindermET_S2_T0_(ptr noundef %0, i64 noundef %1) #4 comdat !dbg !3348 {
  %3 = alloca ptr, align 8
  %4 = alloca i64, align 8
  %5 = alloca i8, align 1
  store ptr %0, ptr %3, align 8
  call void @llvm.dbg.declare(metadata ptr %3, metadata !3352, metadata !DIExpression()), !dbg !3353
  store i64 %1, ptr %4, align 8
  call void @llvm.dbg.declare(metadata ptr %4, metadata !3354, metadata !DIExpression()), !dbg !3355
  call void @llvm.dbg.declare(metadata ptr %5, metadata !3356, metadata !DIExpression()), !dbg !3357
  store i8 1, ptr %5, align 1, !dbg !3357
  %6 = load ptr, ptr %3, align 8, !dbg !3358
  %7 = load i64, ptr %4, align 8, !dbg !3359
  %8 = call noundef ptr @_ZNSt27__uninitialized_default_n_1ILb0EE18__uninit_default_nIP17ProjectedCylindermEET_S4_T0_(ptr noundef %6, i64 noundef %7), !dbg !3360
  ret ptr %8, !dbg !3361
}

; Function Attrs: mustprogress noinline optnone uwtable
define linkonce_odr dso_local noundef ptr @_ZNSt27__uninitialized_default_n_1ILb0EE18__uninit_default_nIP17ProjectedCylindermEET_S4_T0_(ptr noundef %0, i64 noundef %1) #4 comdat align 2 personality ptr @__gxx_personality_v0 !dbg !3362 {
  %3 = alloca ptr, align 8
  %4 = alloca i64, align 8
  %5 = alloca ptr, align 8
  %6 = alloca ptr, align 8
  %7 = alloca i32, align 4
  store ptr %0, ptr %3, align 8
  call void @llvm.dbg.declare(metadata ptr %3, metadata !3367, metadata !DIExpression()), !dbg !3368
  store i64 %1, ptr %4, align 8
  call void @llvm.dbg.declare(metadata ptr %4, metadata !3369, metadata !DIExpression()), !dbg !3370
  call void @llvm.dbg.declare(metadata ptr %5, metadata !3371, metadata !DIExpression()), !dbg !3372
  %8 = load ptr, ptr %3, align 8, !dbg !3373
  store ptr %8, ptr %5, align 8, !dbg !3372
  br label %9, !dbg !3374

9:                                                ; preds = %15, %2
  %10 = load i64, ptr %4, align 8, !dbg !3376
  %11 = icmp ugt i64 %10, 0, !dbg !3379
  br i1 %11, label %12, label %30, !dbg !3380

12:                                               ; preds = %9
  %13 = load ptr, ptr %5, align 8, !dbg !3381
  invoke void @_ZSt10_ConstructI17ProjectedCylinderJEEvPT_DpOT0_(ptr noundef %13)
          to label %14 unwind label %20, !dbg !3382

14:                                               ; preds = %12
  br label %15, !dbg !3382

15:                                               ; preds = %14
  %16 = load i64, ptr %4, align 8, !dbg !3383
  %17 = add i64 %16, -1, !dbg !3383
  store i64 %17, ptr %4, align 8, !dbg !3383
  %18 = load ptr, ptr %5, align 8, !dbg !3384
  %19 = getelementptr inbounds %class.ProjectedCylinder, ptr %18, i32 1, !dbg !3384
  store ptr %19, ptr %5, align 8, !dbg !3384
  br label %9, !dbg !3385, !llvm.loop !3386

20:                                               ; preds = %12
  %21 = landingpad { ptr, i32 }
          catch ptr null, !dbg !3388
  %22 = extractvalue { ptr, i32 } %21, 0, !dbg !3388
  store ptr %22, ptr %6, align 8, !dbg !3388
  %23 = extractvalue { ptr, i32 } %21, 1, !dbg !3388
  store i32 %23, ptr %7, align 4, !dbg !3388
  br label %24, !dbg !3388

24:                                               ; preds = %20
  %25 = load ptr, ptr %6, align 8, !dbg !3389
  %26 = call ptr @__cxa_begin_catch(ptr %25) #3, !dbg !3389
  %27 = load ptr, ptr %3, align 8, !dbg !3390
  %28 = load ptr, ptr %5, align 8, !dbg !3392
  invoke void @_ZSt8_DestroyIP17ProjectedCylinderEvT_S2_(ptr noundef %27, ptr noundef %28)
          to label %29 unwind label %32, !dbg !3393

29:                                               ; preds = %24
  invoke void @__cxa_rethrow() #16
          to label %46 unwind label %32, !dbg !3394

30:                                               ; preds = %9
  %31 = load ptr, ptr %5, align 8, !dbg !3395
  ret ptr %31, !dbg !3396

32:                                               ; preds = %29, %24
  %33 = landingpad { ptr, i32 }
          cleanup, !dbg !3397
  %34 = extractvalue { ptr, i32 } %33, 0, !dbg !3397
  store ptr %34, ptr %6, align 8, !dbg !3397
  %35 = extractvalue { ptr, i32 } %33, 1, !dbg !3397
  store i32 %35, ptr %7, align 4, !dbg !3397
  invoke void @__cxa_end_catch()
          to label %36 unwind label %43, !dbg !3398

36:                                               ; preds = %32
  br label %38, !dbg !3398

37:                                               ; No predecessors!
  call void @llvm.trap(), !dbg !3398
  unreachable, !dbg !3398

38:                                               ; preds = %36
  %39 = load ptr, ptr %6, align 8, !dbg !3398
  %40 = load i32, ptr %7, align 4, !dbg !3398
  %41 = insertvalue { ptr, i32 } poison, ptr %39, 0, !dbg !3398
  %42 = insertvalue { ptr, i32 } %41, i32 %40, 1, !dbg !3398
  resume { ptr, i32 } %42, !dbg !3398

43:                                               ; preds = %32
  %44 = landingpad { ptr, i32 }
          catch ptr null, !dbg !3398
  %45 = extractvalue { ptr, i32 } %44, 0, !dbg !3398
  call void @__clang_call_terminate(ptr %45) #17, !dbg !3398
  unreachable, !dbg !3398

46:                                               ; preds = %29
  unreachable
}

; Function Attrs: mustprogress noinline optnone uwtable
define linkonce_odr dso_local void @_ZSt10_ConstructI17ProjectedCylinderJEEvPT_DpOT0_(ptr noundef %0) #4 comdat !dbg !3399 {
  %2 = alloca ptr, align 8
  store ptr %0, ptr %2, align 8
  call void @llvm.dbg.declare(metadata ptr %2, metadata !3405, metadata !DIExpression()), !dbg !3406
  %3 = load ptr, ptr %2, align 8, !dbg !3407
  call void @_ZN17ProjectedCylinderC2Ev(ptr noundef nonnull align 4 dereferenceable(32) %3), !dbg !3408
  ret void, !dbg !3409
}

; Function Attrs: mustprogress noinline optnone uwtable
define linkonce_odr dso_local void @_ZSt8_DestroyIP17ProjectedCylinderEvT_S2_(ptr noundef %0, ptr noundef %1) #4 comdat !dbg !3410 {
  %3 = alloca ptr, align 8
  %4 = alloca ptr, align 8
  store ptr %0, ptr %3, align 8
  call void @llvm.dbg.declare(metadata ptr %3, metadata !3414, metadata !DIExpression()), !dbg !3415
  store ptr %1, ptr %4, align 8
  call void @llvm.dbg.declare(metadata ptr %4, metadata !3416, metadata !DIExpression()), !dbg !3417
  %5 = load ptr, ptr %3, align 8, !dbg !3418
  %6 = load ptr, ptr %4, align 8, !dbg !3419
  call void @_ZNSt12_Destroy_auxILb0EE9__destroyIP17ProjectedCylinderEEvT_S4_(ptr noundef %5, ptr noundef %6), !dbg !3420
  ret void, !dbg !3421
}

; Function Attrs: cold noreturn nounwind
declare void @llvm.trap() #11

; Function Attrs: noinline optnone uwtable
define linkonce_odr dso_local void @_ZN17ProjectedCylinderC2Ev(ptr noundef nonnull align 4 dereferenceable(32) %0) unnamed_addr #12 comdat align 2 personality ptr @__gxx_personality_v0 !dbg !3422 {
  %2 = alloca ptr, align 8
  %3 = alloca ptr, align 8
  %4 = alloca i32, align 4
  store ptr %0, ptr %2, align 8
  call void @llvm.dbg.declare(metadata ptr %2, metadata !3423, metadata !DIExpression()), !dbg !3424
  %5 = load ptr, ptr %2, align 8
  %6 = getelementptr inbounds %class.ProjectedCylinder, ptr %5, i32 0, i32 0, !dbg !3425
  %7 = getelementptr inbounds [4 x %class.Point], ptr %6, i32 0, i32 0, !dbg !3425
  %8 = getelementptr inbounds %class.Point, ptr %7, i64 4, !dbg !3425
  br label %9, !dbg !3425

9:                                                ; preds = %11, %1
  %10 = phi ptr [ %7, %1 ], [ %12, %11 ], !dbg !3425
  invoke void @_ZN5PointC2Ev(ptr noundef nonnull align 4 dereferenceable(8) %10)
          to label %11 unwind label %15, !dbg !3425

11:                                               ; preds = %9
  %12 = getelementptr inbounds %class.Point, ptr %10, i64 1, !dbg !3425
  %13 = icmp eq ptr %12, %8, !dbg !3425
  br i1 %13, label %14, label %9, !dbg !3425

14:                                               ; preds = %11
  ret void, !dbg !3426

15:                                               ; preds = %9
  %16 = landingpad { ptr, i32 }
          cleanup, !dbg !3426
  %17 = extractvalue { ptr, i32 } %16, 0, !dbg !3426
  store ptr %17, ptr %3, align 8, !dbg !3426
  %18 = extractvalue { ptr, i32 } %16, 1, !dbg !3426
  store i32 %18, ptr %4, align 4, !dbg !3426
  %19 = icmp eq ptr %7, %10, !dbg !3425
  br i1 %19, label %24, label %20, !dbg !3425

20:                                               ; preds = %20, %15
  %21 = phi ptr [ %10, %15 ], [ %22, %20 ], !dbg !3425
  %22 = getelementptr inbounds %class.Point, ptr %21, i64 -1, !dbg !3425
  call void @_ZN5PointD2Ev(ptr noundef nonnull align 4 dereferenceable(8) %22) #3, !dbg !3425
  %23 = icmp eq ptr %22, %7, !dbg !3425
  br i1 %23, label %24, label %20, !dbg !3425

24:                                               ; preds = %20, %15
  br label %25, !dbg !3425

25:                                               ; preds = %24
  %26 = load ptr, ptr %3, align 8, !dbg !3425
  %27 = load i32, ptr %4, align 4, !dbg !3425
  %28 = insertvalue { ptr, i32 } poison, ptr %26, 0, !dbg !3425
  %29 = insertvalue { ptr, i32 } %28, i32 %27, 1, !dbg !3425
  resume { ptr, i32 } %29, !dbg !3425
}

; Function Attrs: noinline nounwind optnone uwtable
define linkonce_odr dso_local void @_ZN5PointC2Ev(ptr noundef nonnull align 4 dereferenceable(8) %0) unnamed_addr #6 comdat align 2 !dbg !3427 {
  %2 = alloca ptr, align 8
  store ptr %0, ptr %2, align 8
  call void @llvm.dbg.declare(metadata ptr %2, metadata !3428, metadata !DIExpression()), !dbg !3429
  %3 = load ptr, ptr %2, align 8
  ret void, !dbg !3430
}

; Function Attrs: mustprogress noinline optnone uwtable
define linkonce_odr dso_local void @_ZNSt12_Destroy_auxILb0EE9__destroyIP17ProjectedCylinderEEvT_S4_(ptr noundef %0, ptr noundef %1) #4 comdat align 2 !dbg !3431 {
  %3 = alloca ptr, align 8
  %4 = alloca ptr, align 8
  store ptr %0, ptr %3, align 8
  call void @llvm.dbg.declare(metadata ptr %3, metadata !3436, metadata !DIExpression()), !dbg !3437
  store ptr %1, ptr %4, align 8
  call void @llvm.dbg.declare(metadata ptr %4, metadata !3438, metadata !DIExpression()), !dbg !3439
  br label %5, !dbg !3440

5:                                                ; preds = %11, %2
  %6 = load ptr, ptr %3, align 8, !dbg !3441
  %7 = load ptr, ptr %4, align 8, !dbg !3444
  %8 = icmp ne ptr %6, %7, !dbg !3445
  br i1 %8, label %9, label %14, !dbg !3446

9:                                                ; preds = %5
  %10 = load ptr, ptr %3, align 8, !dbg !3447
  call void @_ZSt8_DestroyI17ProjectedCylinderEvPT_(ptr noundef %10), !dbg !3448
  br label %11, !dbg !3448

11:                                               ; preds = %9
  %12 = load ptr, ptr %3, align 8, !dbg !3449
  %13 = getelementptr inbounds %class.ProjectedCylinder, ptr %12, i32 1, !dbg !3449
  store ptr %13, ptr %3, align 8, !dbg !3449
  br label %5, !dbg !3450, !llvm.loop !3451

14:                                               ; preds = %5
  ret void, !dbg !3453
}

; Function Attrs: mustprogress noinline nounwind optnone uwtable
define linkonce_odr dso_local void @_ZSt8_DestroyI17ProjectedCylinderEvPT_(ptr noundef %0) #7 comdat !dbg !3454 {
  %2 = alloca ptr, align 8
  store ptr %0, ptr %2, align 8
  call void @llvm.dbg.declare(metadata ptr %2, metadata !3455, metadata !DIExpression()), !dbg !3456
  %3 = load ptr, ptr %2, align 8, !dbg !3457
  call void @_ZN17ProjectedCylinderD2Ev(ptr noundef nonnull align 4 dereferenceable(32) %3) #3, !dbg !3458
  ret void, !dbg !3459
}

; Function Attrs: noinline nounwind optnone uwtable
define linkonce_odr dso_local void @_ZN17ProjectedCylinderD2Ev(ptr noundef nonnull align 4 dereferenceable(32) %0) unnamed_addr #6 comdat align 2 !dbg !3460 {
  %2 = alloca ptr, align 8
  store ptr %0, ptr %2, align 8
  call void @llvm.dbg.declare(metadata ptr %2, metadata !3461, metadata !DIExpression()), !dbg !3462
  %3 = load ptr, ptr %2, align 8
  %4 = getelementptr inbounds %class.ProjectedCylinder, ptr %3, i32 0, i32 0, !dbg !3463
  %5 = getelementptr inbounds [4 x %class.Point], ptr %4, i32 0, i32 0, !dbg !3463
  %6 = getelementptr inbounds %class.Point, ptr %5, i64 4, !dbg !3463
  br label %7, !dbg !3463

7:                                                ; preds = %7, %1
  %8 = phi ptr [ %6, %1 ], [ %9, %7 ], !dbg !3463
  %9 = getelementptr inbounds %class.Point, ptr %8, i64 -1, !dbg !3463
  call void @_ZN5PointD2Ev(ptr noundef nonnull align 4 dereferenceable(8) %9) #3, !dbg !3463
  %10 = icmp eq ptr %9, %5, !dbg !3463
  br i1 %10, label %11, label %7, !dbg !3463

11:                                               ; preds = %7
  ret void, !dbg !3465
}

; Function Attrs: noreturn
declare void @_ZSt20__throw_length_errorPKc(ptr noundef) #13

; Function Attrs: mustprogress noinline nounwind optnone uwtable
define linkonce_odr dso_local noundef nonnull align 8 dereferenceable(8) ptr @_ZSt3maxImERKT_S2_S2_(ptr noundef nonnull align 8 dereferenceable(8) %0, ptr noundef nonnull align 8 dereferenceable(8) %1) #7 comdat !dbg !3466 {
  %3 = alloca ptr, align 8
  %4 = alloca ptr, align 8
  %5 = alloca ptr, align 8
  store ptr %0, ptr %4, align 8
  call void @llvm.dbg.declare(metadata ptr %4, metadata !3467, metadata !DIExpression()), !dbg !3468
  store ptr %1, ptr %5, align 8
  call void @llvm.dbg.declare(metadata ptr %5, metadata !3469, metadata !DIExpression()), !dbg !3470
  %6 = load ptr, ptr %4, align 8, !dbg !3471
  %7 = load i64, ptr %6, align 8, !dbg !3471
  %8 = load ptr, ptr %5, align 8, !dbg !3473
  %9 = load i64, ptr %8, align 8, !dbg !3473
  %10 = icmp ult i64 %7, %9, !dbg !3474
  br i1 %10, label %11, label %13, !dbg !3475

11:                                               ; preds = %2
  %12 = load ptr, ptr %5, align 8, !dbg !3476
  store ptr %12, ptr %3, align 8, !dbg !3477
  br label %15, !dbg !3477

13:                                               ; preds = %2
  %14 = load ptr, ptr %4, align 8, !dbg !3478
  store ptr %14, ptr %3, align 8, !dbg !3479
  br label %15, !dbg !3479

15:                                               ; preds = %13, %11
  %16 = load ptr, ptr %3, align 8, !dbg !3480
  ret ptr %16, !dbg !3480
}

; Function Attrs: mustprogress noinline optnone uwtable
define linkonce_odr dso_local noundef ptr @_ZNSt16allocator_traitsISaI17ProjectedCylinderEE8allocateERS1_m(ptr noundef nonnull align 1 dereferenceable(1) %0, i64 noundef %1) #4 comdat align 2 !dbg !3481 {
  %3 = alloca ptr, align 8
  %4 = alloca i64, align 8
  store ptr %0, ptr %3, align 8
  call void @llvm.dbg.declare(metadata ptr %3, metadata !3482, metadata !DIExpression()), !dbg !3483
  store i64 %1, ptr %4, align 8
  call void @llvm.dbg.declare(metadata ptr %4, metadata !3484, metadata !DIExpression()), !dbg !3485
  %5 = load ptr, ptr %3, align 8, !dbg !3486
  %6 = load i64, ptr %4, align 8, !dbg !3487
  %7 = call noundef ptr @_ZN9__gnu_cxx13new_allocatorI17ProjectedCylinderE8allocateEmPKv(ptr noundef nonnull align 1 dereferenceable(1) %5, i64 noundef %6, ptr noundef null), !dbg !3488
  ret ptr %7, !dbg !3489
}

; Function Attrs: mustprogress noinline optnone uwtable
define linkonce_odr dso_local noundef ptr @_ZN9__gnu_cxx13new_allocatorI17ProjectedCylinderE8allocateEmPKv(ptr noundef nonnull align 1 dereferenceable(1) %0, i64 noundef %1, ptr noundef %2) #4 comdat align 2 !dbg !3490 {
  %4 = alloca ptr, align 8
  %5 = alloca i64, align 8
  %6 = alloca ptr, align 8
  store ptr %0, ptr %4, align 8
  call void @llvm.dbg.declare(metadata ptr %4, metadata !3491, metadata !DIExpression()), !dbg !3493
  store i64 %1, ptr %5, align 8
  call void @llvm.dbg.declare(metadata ptr %5, metadata !3494, metadata !DIExpression()), !dbg !3495
  store ptr %2, ptr %6, align 8
  call void @llvm.dbg.declare(metadata ptr %6, metadata !3496, metadata !DIExpression()), !dbg !3497
  %7 = load ptr, ptr %4, align 8
  %8 = load i64, ptr %5, align 8, !dbg !3498
  %9 = call noundef i64 @_ZNK9__gnu_cxx13new_allocatorI17ProjectedCylinderE11_M_max_sizeEv(ptr noundef nonnull align 1 dereferenceable(1) %7) #3, !dbg !3500
  %10 = icmp ugt i64 %8, %9, !dbg !3501
  br i1 %10, label %11, label %16, !dbg !3502

11:                                               ; preds = %3
  %12 = load i64, ptr %5, align 8, !dbg !3503
  %13 = icmp ugt i64 %12, 576460752303423487, !dbg !3506
  br i1 %13, label %14, label %15, !dbg !3507

14:                                               ; preds = %11
  call void @_ZSt28__throw_bad_array_new_lengthv() #16, !dbg !3508
  unreachable, !dbg !3508

15:                                               ; preds = %11
  call void @_ZSt17__throw_bad_allocv() #16, !dbg !3509
  unreachable, !dbg !3509

16:                                               ; preds = %3
  %17 = load i64, ptr %5, align 8, !dbg !3510
  %18 = mul i64 %17, 32, !dbg !3511
  %19 = call noalias noundef nonnull ptr @_Znwm(i64 noundef %18) #18, !dbg !3512
  ret ptr %19, !dbg !3513
}

; Function Attrs: noreturn
declare void @_ZSt28__throw_bad_array_new_lengthv() #13

; Function Attrs: noreturn
declare void @_ZSt17__throw_bad_allocv() #13

; Function Attrs: nobuiltin allocsize(0)
declare noundef nonnull ptr @_Znwm(i64 noundef) #14

; Function Attrs: mustprogress noinline optnone uwtable
define linkonce_odr dso_local void @_ZNSt16allocator_traitsISaI17ProjectedCylinderEE10deallocateERS1_PS0_m(ptr noundef nonnull align 1 dereferenceable(1) %0, ptr noundef %1, i64 noundef %2) #4 comdat align 2 !dbg !3514 {
  %4 = alloca ptr, align 8
  %5 = alloca ptr, align 8
  %6 = alloca i64, align 8
  store ptr %0, ptr %4, align 8
  call void @llvm.dbg.declare(metadata ptr %4, metadata !3515, metadata !DIExpression()), !dbg !3516
  store ptr %1, ptr %5, align 8
  call void @llvm.dbg.declare(metadata ptr %5, metadata !3517, metadata !DIExpression()), !dbg !3518
  store i64 %2, ptr %6, align 8
  call void @llvm.dbg.declare(metadata ptr %6, metadata !3519, metadata !DIExpression()), !dbg !3520
  %7 = load ptr, ptr %4, align 8, !dbg !3521
  %8 = load ptr, ptr %5, align 8, !dbg !3522
  %9 = load i64, ptr %6, align 8, !dbg !3523
  call void @_ZN9__gnu_cxx13new_allocatorI17ProjectedCylinderE10deallocateEPS1_m(ptr noundef nonnull align 1 dereferenceable(1) %7, ptr noundef %8, i64 noundef %9), !dbg !3524
  ret void, !dbg !3525
}

; Function Attrs: mustprogress noinline nounwind optnone uwtable
define linkonce_odr dso_local void @_ZN9__gnu_cxx13new_allocatorI17ProjectedCylinderE10deallocateEPS1_m(ptr noundef nonnull align 1 dereferenceable(1) %0, ptr noundef %1, i64 noundef %2) #7 comdat align 2 !dbg !3526 {
  %4 = alloca ptr, align 8
  %5 = alloca ptr, align 8
  %6 = alloca i64, align 8
  store ptr %0, ptr %4, align 8
  call void @llvm.dbg.declare(metadata ptr %4, metadata !3527, metadata !DIExpression()), !dbg !3528
  store ptr %1, ptr %5, align 8
  call void @llvm.dbg.declare(metadata ptr %5, metadata !3529, metadata !DIExpression()), !dbg !3530
  store i64 %2, ptr %6, align 8
  call void @llvm.dbg.declare(metadata ptr %6, metadata !3531, metadata !DIExpression()), !dbg !3532
  %7 = load ptr, ptr %4, align 8
  %8 = load ptr, ptr %5, align 8, !dbg !3533
  call void @_ZdlPv(ptr noundef %8) #3, !dbg !3534
  ret void, !dbg !3535
}

; Function Attrs: nobuiltin nounwind
declare void @_ZdlPv(ptr noundef) #15

; Function Attrs: mustprogress noinline nounwind optnone uwtable
define linkonce_odr dso_local noundef ptr @_ZNSt6vectorI17ProjectedCylinderSaIS0_EE14_S_do_relocateEPS0_S3_S3_RS1_St17integral_constantIbLb1EE(ptr noundef %0, ptr noundef %1, ptr noundef %2, ptr noundef nonnull align 1 dereferenceable(1) %3) #7 comdat align 2 !dbg !3536 {
  %5 = alloca %"struct.std::integral_constant", align 1
  %6 = alloca ptr, align 8
  %7 = alloca ptr, align 8
  %8 = alloca ptr, align 8
  %9 = alloca ptr, align 8
  store ptr %0, ptr %6, align 8
  call void @llvm.dbg.declare(metadata ptr %6, metadata !3537, metadata !DIExpression()), !dbg !3538
  store ptr %1, ptr %7, align 8
  call void @llvm.dbg.declare(metadata ptr %7, metadata !3539, metadata !DIExpression()), !dbg !3540
  store ptr %2, ptr %8, align 8
  call void @llvm.dbg.declare(metadata ptr %8, metadata !3541, metadata !DIExpression()), !dbg !3542
  store ptr %3, ptr %9, align 8
  call void @llvm.dbg.declare(metadata ptr %9, metadata !3543, metadata !DIExpression()), !dbg !3544
  call void @llvm.dbg.declare(metadata ptr %5, metadata !3545, metadata !DIExpression()), !dbg !3546
  %10 = load ptr, ptr %6, align 8, !dbg !3547
  %11 = load ptr, ptr %7, align 8, !dbg !3548
  %12 = load ptr, ptr %8, align 8, !dbg !3549
  %13 = load ptr, ptr %9, align 8, !dbg !3550
  %14 = call noundef ptr @_ZSt12__relocate_aIP17ProjectedCylinderS1_SaIS0_EET0_T_S4_S3_RT1_(ptr noundef %10, ptr noundef %11, ptr noundef %12, ptr noundef nonnull align 1 dereferenceable(1) %13) #3, !dbg !3551
  ret ptr %14, !dbg !3552
}

; Function Attrs: mustprogress noinline nounwind optnone uwtable
define linkonce_odr dso_local noundef ptr @_ZSt12__relocate_aIP17ProjectedCylinderS1_SaIS0_EET0_T_S4_S3_RT1_(ptr noundef %0, ptr noundef %1, ptr noundef %2, ptr noundef nonnull align 1 dereferenceable(1) %3) #7 comdat !dbg !3553 {
  %5 = alloca ptr, align 8
  %6 = alloca ptr, align 8
  %7 = alloca ptr, align 8
  %8 = alloca ptr, align 8
  store ptr %0, ptr %5, align 8
  call void @llvm.dbg.declare(metadata ptr %5, metadata !3559, metadata !DIExpression()), !dbg !3560
  store ptr %1, ptr %6, align 8
  call void @llvm.dbg.declare(metadata ptr %6, metadata !3561, metadata !DIExpression()), !dbg !3562
  store ptr %2, ptr %7, align 8
  call void @llvm.dbg.declare(metadata ptr %7, metadata !3563, metadata !DIExpression()), !dbg !3564
  store ptr %3, ptr %8, align 8
  call void @llvm.dbg.declare(metadata ptr %8, metadata !3565, metadata !DIExpression()), !dbg !3566
  %9 = load ptr, ptr %5, align 8, !dbg !3567
  %10 = call noundef ptr @_ZSt12__niter_baseIP17ProjectedCylinderET_S2_(ptr noundef %9) #3, !dbg !3568
  %11 = load ptr, ptr %6, align 8, !dbg !3569
  %12 = call noundef ptr @_ZSt12__niter_baseIP17ProjectedCylinderET_S2_(ptr noundef %11) #3, !dbg !3570
  %13 = load ptr, ptr %7, align 8, !dbg !3571
  %14 = call noundef ptr @_ZSt12__niter_baseIP17ProjectedCylinderET_S2_(ptr noundef %13) #3, !dbg !3572
  %15 = load ptr, ptr %8, align 8, !dbg !3573
  %16 = call noundef ptr @_ZSt14__relocate_a_1IP17ProjectedCylinderS1_SaIS0_EET0_T_S4_S3_RT1_(ptr noundef %10, ptr noundef %12, ptr noundef %14, ptr noundef nonnull align 1 dereferenceable(1) %15) #3, !dbg !3574
  ret ptr %16, !dbg !3575
}

; Function Attrs: mustprogress noinline nounwind optnone uwtable
define linkonce_odr dso_local noundef ptr @_ZSt14__relocate_a_1IP17ProjectedCylinderS1_SaIS0_EET0_T_S4_S3_RT1_(ptr noundef %0, ptr noundef %1, ptr noundef %2, ptr noundef nonnull align 1 dereferenceable(1) %3) #7 comdat !dbg !3576 {
  %5 = alloca ptr, align 8
  %6 = alloca ptr, align 8
  %7 = alloca ptr, align 8
  %8 = alloca ptr, align 8
  %9 = alloca ptr, align 8
  store ptr %0, ptr %5, align 8
  call void @llvm.dbg.declare(metadata ptr %5, metadata !3577, metadata !DIExpression()), !dbg !3578
  store ptr %1, ptr %6, align 8
  call void @llvm.dbg.declare(metadata ptr %6, metadata !3579, metadata !DIExpression()), !dbg !3580
  store ptr %2, ptr %7, align 8
  call void @llvm.dbg.declare(metadata ptr %7, metadata !3581, metadata !DIExpression()), !dbg !3582
  store ptr %3, ptr %8, align 8
  call void @llvm.dbg.declare(metadata ptr %8, metadata !3583, metadata !DIExpression()), !dbg !3584
  call void @llvm.dbg.declare(metadata ptr %9, metadata !3585, metadata !DIExpression()), !dbg !3586
  %10 = load ptr, ptr %7, align 8, !dbg !3587
  store ptr %10, ptr %9, align 8, !dbg !3586
  br label %11, !dbg !3588

11:                                               ; preds = %19, %4
  %12 = load ptr, ptr %5, align 8, !dbg !3589
  %13 = load ptr, ptr %6, align 8, !dbg !3592
  %14 = icmp ne ptr %12, %13, !dbg !3593
  br i1 %14, label %15, label %24, !dbg !3594

15:                                               ; preds = %11
  %16 = load ptr, ptr %9, align 8, !dbg !3595
  %17 = load ptr, ptr %5, align 8, !dbg !3596
  %18 = load ptr, ptr %8, align 8, !dbg !3597
  call void @_ZSt19__relocate_object_aI17ProjectedCylinderS0_SaIS0_EEvPT_PT0_RT1_(ptr noundef %16, ptr noundef %17, ptr noundef nonnull align 1 dereferenceable(1) %18) #3, !dbg !3598
  br label %19, !dbg !3598

19:                                               ; preds = %15
  %20 = load ptr, ptr %5, align 8, !dbg !3599
  %21 = getelementptr inbounds %class.ProjectedCylinder, ptr %20, i32 1, !dbg !3599
  store ptr %21, ptr %5, align 8, !dbg !3599
  %22 = load ptr, ptr %9, align 8, !dbg !3600
  %23 = getelementptr inbounds %class.ProjectedCylinder, ptr %22, i32 1, !dbg !3600
  store ptr %23, ptr %9, align 8, !dbg !3600
  br label %11, !dbg !3601, !llvm.loop !3602

24:                                               ; preds = %11
  %25 = load ptr, ptr %9, align 8, !dbg !3604
  ret ptr %25, !dbg !3605
}

; Function Attrs: mustprogress noinline nounwind optnone uwtable
define linkonce_odr dso_local noundef ptr @_ZSt12__niter_baseIP17ProjectedCylinderET_S2_(ptr noundef %0) #7 comdat !dbg !3606 {
  %2 = alloca ptr, align 8
  store ptr %0, ptr %2, align 8
  call void @llvm.dbg.declare(metadata ptr %2, metadata !3611, metadata !DIExpression()), !dbg !3612
  %3 = load ptr, ptr %2, align 8, !dbg !3613
  ret ptr %3, !dbg !3614
}

; Function Attrs: mustprogress noinline nounwind optnone uwtable
define linkonce_odr dso_local void @_ZSt19__relocate_object_aI17ProjectedCylinderS0_SaIS0_EEvPT_PT0_RT1_(ptr noalias noundef %0, ptr noalias noundef %1, ptr noundef nonnull align 1 dereferenceable(1) %2) #7 comdat !dbg !3615 {
  %4 = alloca ptr, align 8
  %5 = alloca ptr, align 8
  %6 = alloca ptr, align 8
  store ptr %0, ptr %4, align 8
  call void @llvm.dbg.declare(metadata ptr %4, metadata !3621, metadata !DIExpression()), !dbg !3622
  store ptr %1, ptr %5, align 8
  call void @llvm.dbg.declare(metadata ptr %5, metadata !3623, metadata !DIExpression()), !dbg !3624
  store ptr %2, ptr %6, align 8
  call void @llvm.dbg.declare(metadata ptr %6, metadata !3625, metadata !DIExpression()), !dbg !3626
  %7 = load ptr, ptr %6, align 8, !dbg !3627
  %8 = load ptr, ptr %4, align 8, !dbg !3628
  %9 = load ptr, ptr %5, align 8, !dbg !3629
  call void @_ZNSt16allocator_traitsISaI17ProjectedCylinderEE9constructIS0_JS0_EEEvRS1_PT_DpOT0_(ptr noundef nonnull align 1 dereferenceable(1) %7, ptr noundef %8, ptr noundef nonnull align 4 dereferenceable(32) %9) #3, !dbg !3630
  %10 = load ptr, ptr %6, align 8, !dbg !3631
  %11 = load ptr, ptr %5, align 8, !dbg !3632
  call void @_ZNSt16allocator_traitsISaI17ProjectedCylinderEE7destroyIS0_EEvRS1_PT_(ptr noundef nonnull align 1 dereferenceable(1) %10, ptr noundef %11) #3, !dbg !3633
  ret void, !dbg !3634
}

; Function Attrs: mustprogress noinline nounwind optnone uwtable
define linkonce_odr dso_local void @_ZNSt16allocator_traitsISaI17ProjectedCylinderEE9constructIS0_JS0_EEEvRS1_PT_DpOT0_(ptr noundef nonnull align 1 dereferenceable(1) %0, ptr noundef %1, ptr noundef nonnull align 4 dereferenceable(32) %2) #7 comdat align 2 !dbg !3635 {
  %4 = alloca ptr, align 8
  %5 = alloca ptr, align 8
  %6 = alloca ptr, align 8
  store ptr %0, ptr %4, align 8
  call void @llvm.dbg.declare(metadata ptr %4, metadata !3643, metadata !DIExpression()), !dbg !3644
  store ptr %1, ptr %5, align 8
  call void @llvm.dbg.declare(metadata ptr %5, metadata !3645, metadata !DIExpression()), !dbg !3646
  store ptr %2, ptr %6, align 8
  call void @llvm.dbg.declare(metadata ptr %6, metadata !3647, metadata !DIExpression()), !dbg !3648
  %7 = load ptr, ptr %4, align 8, !dbg !3649
  %8 = load ptr, ptr %5, align 8, !dbg !3650
  %9 = load ptr, ptr %6, align 8, !dbg !3651
  call void @_ZN9__gnu_cxx13new_allocatorI17ProjectedCylinderE9constructIS1_JS1_EEEvPT_DpOT0_(ptr noundef nonnull align 1 dereferenceable(1) %7, ptr noundef %8, ptr noundef nonnull align 4 dereferenceable(32) %9) #3, !dbg !3652
  ret void, !dbg !3653
}

; Function Attrs: mustprogress noinline nounwind optnone uwtable
define linkonce_odr dso_local void @_ZNSt16allocator_traitsISaI17ProjectedCylinderEE7destroyIS0_EEvRS1_PT_(ptr noundef nonnull align 1 dereferenceable(1) %0, ptr noundef %1) #7 comdat align 2 !dbg !3654 {
  %3 = alloca ptr, align 8
  %4 = alloca ptr, align 8
  store ptr %0, ptr %3, align 8
  call void @llvm.dbg.declare(metadata ptr %3, metadata !3659, metadata !DIExpression()), !dbg !3660
  store ptr %1, ptr %4, align 8
  call void @llvm.dbg.declare(metadata ptr %4, metadata !3661, metadata !DIExpression()), !dbg !3662
  %5 = load ptr, ptr %3, align 8, !dbg !3663
  %6 = load ptr, ptr %4, align 8, !dbg !3664
  call void @_ZN9__gnu_cxx13new_allocatorI17ProjectedCylinderE7destroyIS1_EEvPT_(ptr noundef nonnull align 1 dereferenceable(1) %5, ptr noundef %6) #3, !dbg !3665
  ret void, !dbg !3666
}

; Function Attrs: mustprogress noinline nounwind optnone uwtable
define linkonce_odr dso_local void @_ZN9__gnu_cxx13new_allocatorI17ProjectedCylinderE9constructIS1_JS1_EEEvPT_DpOT0_(ptr noundef nonnull align 1 dereferenceable(1) %0, ptr noundef %1, ptr noundef nonnull align 4 dereferenceable(32) %2) #7 comdat align 2 !dbg !3667 {
  %4 = alloca ptr, align 8
  %5 = alloca ptr, align 8
  %6 = alloca ptr, align 8
  store ptr %0, ptr %4, align 8
  call void @llvm.dbg.declare(metadata ptr %4, metadata !3671, metadata !DIExpression()), !dbg !3672
  store ptr %1, ptr %5, align 8
  call void @llvm.dbg.declare(metadata ptr %5, metadata !3673, metadata !DIExpression()), !dbg !3674
  store ptr %2, ptr %6, align 8
  call void @llvm.dbg.declare(metadata ptr %6, metadata !3675, metadata !DIExpression()), !dbg !3676
  %7 = load ptr, ptr %4, align 8
  %8 = load ptr, ptr %5, align 8, !dbg !3677
  %9 = load ptr, ptr %6, align 8, !dbg !3678
  call void @llvm.memcpy.p0.p0.i64(ptr align 4 %8, ptr align 4 %9, i64 32, i1 false), !dbg !3679
  ret void, !dbg !3680
}

; Function Attrs: mustprogress noinline nounwind optnone uwtable
define linkonce_odr dso_local void @_ZN9__gnu_cxx13new_allocatorI17ProjectedCylinderE7destroyIS1_EEvPT_(ptr noundef nonnull align 1 dereferenceable(1) %0, ptr noundef %1) #7 comdat align 2 !dbg !3681 {
  %3 = alloca ptr, align 8
  %4 = alloca ptr, align 8
  store ptr %0, ptr %3, align 8
  call void @llvm.dbg.declare(metadata ptr %3, metadata !3685, metadata !DIExpression()), !dbg !3686
  store ptr %1, ptr %4, align 8
  call void @llvm.dbg.declare(metadata ptr %4, metadata !3687, metadata !DIExpression()), !dbg !3688
  %5 = load ptr, ptr %3, align 8
  %6 = load ptr, ptr %4, align 8, !dbg !3689
  call void @_ZN17ProjectedCylinderD2Ev(ptr noundef nonnull align 4 dereferenceable(32) %6) #3, !dbg !3690
  ret void, !dbg !3691
}

; Function Attrs: mustprogress noinline optnone uwtable
define linkonce_odr dso_local void @_ZSt8_DestroyIP17ProjectedCylinderS0_EvT_S2_RSaIT0_E(ptr noundef %0, ptr noundef %1, ptr noundef nonnull align 1 dereferenceable(1) %2) #4 comdat !dbg !3692 {
  %4 = alloca ptr, align 8
  %5 = alloca ptr, align 8
  %6 = alloca ptr, align 8
  store ptr %0, ptr %4, align 8
  call void @llvm.dbg.declare(metadata ptr %4, metadata !3696, metadata !DIExpression()), !dbg !3697
  store ptr %1, ptr %5, align 8
  call void @llvm.dbg.declare(metadata ptr %5, metadata !3698, metadata !DIExpression()), !dbg !3699
  store ptr %2, ptr %6, align 8
  call void @llvm.dbg.declare(metadata ptr %6, metadata !3700, metadata !DIExpression()), !dbg !3701
  %7 = load ptr, ptr %4, align 8, !dbg !3702
  %8 = load ptr, ptr %5, align 8, !dbg !3703
  call void @_ZSt8_DestroyIP17ProjectedCylinderEvT_S2_(ptr noundef %7, ptr noundef %8), !dbg !3704
  ret void, !dbg !3705
}

; Function Attrs: mustprogress noinline nounwind optnone uwtable
define linkonce_odr dso_local noundef i64 @_ZNKSt6vectorI13ProjectedBodySaIS0_EE4sizeEv(ptr noundef nonnull align 8 dereferenceable(24) %0) #7 comdat align 2 !dbg !3706 {
  %2 = alloca ptr, align 8
  store ptr %0, ptr %2, align 8
  call void @llvm.dbg.declare(metadata ptr %2, metadata !3712, metadata !DIExpression()), !dbg !3714
  %3 = load ptr, ptr %2, align 8
  %4 = getelementptr inbounds %"struct.std::_Vector_base.16", ptr %3, i32 0, i32 0, !dbg !3715
  %5 = getelementptr inbounds %"struct.std::_Vector_base<ProjectedBody, std::allocator<ProjectedBody>>::_Vector_impl_data", ptr %4, i32 0, i32 1, !dbg !3716
  %6 = load ptr, ptr %5, align 8, !dbg !3716
  %7 = getelementptr inbounds %"struct.std::_Vector_base.16", ptr %3, i32 0, i32 0, !dbg !3717
  %8 = getelementptr inbounds %"struct.std::_Vector_base<ProjectedBody, std::allocator<ProjectedBody>>::_Vector_impl_data", ptr %7, i32 0, i32 0, !dbg !3718
  %9 = load ptr, ptr %8, align 8, !dbg !3718
  %10 = ptrtoint ptr %6 to i64, !dbg !3719
  %11 = ptrtoint ptr %9 to i64, !dbg !3719
  %12 = sub i64 %10, %11, !dbg !3719
  %13 = sdiv exact i64 %12, 24, !dbg !3719
  ret i64 %13, !dbg !3720
}

; Function Attrs: mustprogress noinline optnone uwtable
define linkonce_odr dso_local void @_ZNSt6vectorI13ProjectedBodySaIS0_EE17_M_default_appendEm(ptr noundef nonnull align 8 dereferenceable(24) %0, i64 noundef %1) #4 comdat align 2 personality ptr @__gxx_personality_v0 !dbg !3721 {
  %3 = alloca ptr, align 8
  %4 = alloca i64, align 8
  %5 = alloca i64, align 8
  %6 = alloca i64, align 8
  %7 = alloca i64, align 8
  %8 = alloca ptr, align 8
  %9 = alloca ptr, align 8
  %10 = alloca ptr, align 8
  %11 = alloca i32, align 4
  store ptr %0, ptr %3, align 8
  call void @llvm.dbg.declare(metadata ptr %3, metadata !3723, metadata !DIExpression()), !dbg !3724
  store i64 %1, ptr %4, align 8
  call void @llvm.dbg.declare(metadata ptr %4, metadata !3725, metadata !DIExpression()), !dbg !3726
  %12 = load ptr, ptr %3, align 8
  %13 = load i64, ptr %4, align 8, !dbg !3727
  %14 = icmp ne i64 %13, 0, !dbg !3729
  br i1 %14, label %15, label %137, !dbg !3730

15:                                               ; preds = %2
  call void @llvm.dbg.declare(metadata ptr %5, metadata !3731, metadata !DIExpression()), !dbg !3733
  %16 = call noundef i64 @_ZNKSt6vectorI13ProjectedBodySaIS0_EE4sizeEv(ptr noundef nonnull align 8 dereferenceable(24) %12) #3, !dbg !3734
  store i64 %16, ptr %5, align 8, !dbg !3733
  call void @llvm.dbg.declare(metadata ptr %6, metadata !3735, metadata !DIExpression()), !dbg !3736
  %17 = getelementptr inbounds %"struct.std::_Vector_base.16", ptr %12, i32 0, i32 0, !dbg !3737
  %18 = getelementptr inbounds %"struct.std::_Vector_base<ProjectedBody, std::allocator<ProjectedBody>>::_Vector_impl_data", ptr %17, i32 0, i32 2, !dbg !3738
  %19 = load ptr, ptr %18, align 8, !dbg !3738
  %20 = getelementptr inbounds %"struct.std::_Vector_base.16", ptr %12, i32 0, i32 0, !dbg !3739
  %21 = getelementptr inbounds %"struct.std::_Vector_base<ProjectedBody, std::allocator<ProjectedBody>>::_Vector_impl_data", ptr %20, i32 0, i32 1, !dbg !3740
  %22 = load ptr, ptr %21, align 8, !dbg !3740
  %23 = ptrtoint ptr %19 to i64, !dbg !3741
  %24 = ptrtoint ptr %22 to i64, !dbg !3741
  %25 = sub i64 %23, %24, !dbg !3741
  %26 = sdiv exact i64 %25, 24, !dbg !3741
  store i64 %26, ptr %6, align 8, !dbg !3736
  %27 = load i64, ptr %5, align 8, !dbg !3742
  %28 = call noundef i64 @_ZNKSt6vectorI13ProjectedBodySaIS0_EE8max_sizeEv(ptr noundef nonnull align 8 dereferenceable(24) %12) #3, !dbg !3744
  %29 = icmp ugt i64 %27, %28, !dbg !3745
  br i1 %29, label %36, label %30, !dbg !3746

30:                                               ; preds = %15
  %31 = load i64, ptr %6, align 8, !dbg !3747
  %32 = call noundef i64 @_ZNKSt6vectorI13ProjectedBodySaIS0_EE8max_sizeEv(ptr noundef nonnull align 8 dereferenceable(24) %12) #3, !dbg !3748
  %33 = load i64, ptr %5, align 8, !dbg !3749
  %34 = sub i64 %32, %33, !dbg !3750
  %35 = icmp ugt i64 %31, %34, !dbg !3751
  br i1 %35, label %36, label %37, !dbg !3752

36:                                               ; preds = %30, %15
  unreachable, !dbg !3753

37:                                               ; preds = %30
  %38 = load i64, ptr %6, align 8, !dbg !3754
  %39 = load i64, ptr %4, align 8, !dbg !3756
  %40 = icmp uge i64 %38, %39, !dbg !3757
  br i1 %40, label %41, label %50, !dbg !3758

41:                                               ; preds = %37
  %42 = getelementptr inbounds %"struct.std::_Vector_base.16", ptr %12, i32 0, i32 0, !dbg !3759
  %43 = getelementptr inbounds %"struct.std::_Vector_base<ProjectedBody, std::allocator<ProjectedBody>>::_Vector_impl_data", ptr %42, i32 0, i32 1, !dbg !3761
  %44 = load ptr, ptr %43, align 8, !dbg !3761
  %45 = load i64, ptr %4, align 8, !dbg !3762
  %46 = call noundef nonnull align 1 dereferenceable(1) ptr @_ZNSt12_Vector_baseI13ProjectedBodySaIS0_EE19_M_get_Tp_allocatorEv(ptr noundef nonnull align 8 dereferenceable(24) %12) #3, !dbg !3763
  %47 = call noundef ptr @_ZSt27__uninitialized_default_n_aIP13ProjectedBodymS0_ET_S2_T0_RSaIT1_E(ptr noundef %44, i64 noundef %45, ptr noundef nonnull align 1 dereferenceable(1) %46), !dbg !3764
  %48 = getelementptr inbounds %"struct.std::_Vector_base.16", ptr %12, i32 0, i32 0, !dbg !3765
  %49 = getelementptr inbounds %"struct.std::_Vector_base<ProjectedBody, std::allocator<ProjectedBody>>::_Vector_impl_data", ptr %48, i32 0, i32 1, !dbg !3766
  store ptr %47, ptr %49, align 8, !dbg !3767
  br label %136, !dbg !3768

50:                                               ; preds = %37
  call void @llvm.dbg.declare(metadata ptr %7, metadata !3769, metadata !DIExpression()), !dbg !3771
  %51 = load i64, ptr %4, align 8, !dbg !3772
  %52 = call noundef i64 @_ZNKSt6vectorI13ProjectedBodySaIS0_EE12_M_check_lenEmPKc(ptr noundef nonnull align 8 dereferenceable(24) %12, i64 noundef %51, ptr noundef @.str), !dbg !3773
  store i64 %52, ptr %7, align 8, !dbg !3771
  call void @llvm.dbg.declare(metadata ptr %8, metadata !3774, metadata !DIExpression()), !dbg !3779
  %53 = load i64, ptr %7, align 8, !dbg !3780
  %54 = call noundef ptr @_ZNSt12_Vector_baseI13ProjectedBodySaIS0_EE11_M_allocateEm(ptr noundef nonnull align 8 dereferenceable(24) %12, i64 noundef %53), !dbg !3781
  store ptr %54, ptr %8, align 8, !dbg !3779
  call void @llvm.dbg.declare(metadata ptr %9, metadata !3782, metadata !DIExpression()), !dbg !3785
  store ptr null, ptr %9, align 8, !dbg !3785
  %55 = load ptr, ptr %8, align 8, !dbg !3786
  %56 = load i64, ptr %5, align 8, !dbg !3788
  %57 = getelementptr inbounds %class.ProjectedBody, ptr %55, i64 %56, !dbg !3789
  %58 = load i64, ptr %4, align 8, !dbg !3790
  %59 = call noundef nonnull align 1 dereferenceable(1) ptr @_ZNSt12_Vector_baseI13ProjectedBodySaIS0_EE19_M_get_Tp_allocatorEv(ptr noundef nonnull align 8 dereferenceable(24) %12) #3, !dbg !3791
  %60 = invoke noundef ptr @_ZSt27__uninitialized_default_n_aIP13ProjectedBodymS0_ET_S2_T0_RSaIT1_E(ptr noundef %57, i64 noundef %58, ptr noundef nonnull align 1 dereferenceable(1) %59)
          to label %61 unwind label %75, !dbg !3792

61:                                               ; preds = %50
  %62 = load ptr, ptr %8, align 8, !dbg !3793
  %63 = load i64, ptr %5, align 8, !dbg !3794
  %64 = getelementptr inbounds %class.ProjectedBody, ptr %62, i64 %63, !dbg !3795
  store ptr %64, ptr %9, align 8, !dbg !3796
  %65 = getelementptr inbounds %"struct.std::_Vector_base.16", ptr %12, i32 0, i32 0, !dbg !3797
  %66 = getelementptr inbounds %"struct.std::_Vector_base<ProjectedBody, std::allocator<ProjectedBody>>::_Vector_impl_data", ptr %65, i32 0, i32 0, !dbg !3798
  %67 = load ptr, ptr %66, align 8, !dbg !3798
  %68 = getelementptr inbounds %"struct.std::_Vector_base.16", ptr %12, i32 0, i32 0, !dbg !3799
  %69 = getelementptr inbounds %"struct.std::_Vector_base<ProjectedBody, std::allocator<ProjectedBody>>::_Vector_impl_data", ptr %68, i32 0, i32 1, !dbg !3800
  %70 = load ptr, ptr %69, align 8, !dbg !3800
  %71 = load ptr, ptr %8, align 8, !dbg !3801
  %72 = call noundef nonnull align 1 dereferenceable(1) ptr @_ZNSt12_Vector_baseI13ProjectedBodySaIS0_EE19_M_get_Tp_allocatorEv(ptr noundef nonnull align 8 dereferenceable(24) %12) #3, !dbg !3802
  %73 = invoke noundef ptr @_ZSt34__uninitialized_move_if_noexcept_aIP13ProjectedBodyS1_SaIS0_EET0_T_S4_S3_RT1_(ptr noundef %67, ptr noundef %70, ptr noundef %71, ptr noundef nonnull align 1 dereferenceable(1) %72)
          to label %74 unwind label %75, !dbg !3803

74:                                               ; preds = %61
  br label %100, !dbg !3804

75:                                               ; preds = %61, %50
  %76 = landingpad { ptr, i32 }
          catch ptr null, !dbg !3805
  %77 = extractvalue { ptr, i32 } %76, 0, !dbg !3805
  store ptr %77, ptr %10, align 8, !dbg !3805
  %78 = extractvalue { ptr, i32 } %76, 1, !dbg !3805
  store i32 %78, ptr %11, align 4, !dbg !3805
  br label %79, !dbg !3805

79:                                               ; preds = %75
  %80 = load ptr, ptr %10, align 8, !dbg !3804
  %81 = call ptr @__cxa_begin_catch(ptr %80) #3, !dbg !3804
  %82 = load ptr, ptr %9, align 8, !dbg !3806
  %83 = icmp ne ptr %82, null, !dbg !3806
  br i1 %83, label %84, label %95, !dbg !3809

84:                                               ; preds = %79
  %85 = load ptr, ptr %9, align 8, !dbg !3810
  %86 = load ptr, ptr %9, align 8, !dbg !3811
  %87 = load i64, ptr %4, align 8, !dbg !3812
  %88 = getelementptr inbounds %class.ProjectedBody, ptr %86, i64 %87, !dbg !3813
  %89 = call noundef nonnull align 1 dereferenceable(1) ptr @_ZNSt12_Vector_baseI13ProjectedBodySaIS0_EE19_M_get_Tp_allocatorEv(ptr noundef nonnull align 8 dereferenceable(24) %12) #3, !dbg !3814
  invoke void @_ZSt8_DestroyIP13ProjectedBodyS0_EvT_S2_RSaIT0_E(ptr noundef %85, ptr noundef %88, ptr noundef nonnull align 1 dereferenceable(1) %89)
          to label %90 unwind label %91, !dbg !3815

90:                                               ; preds = %84
  br label %95, !dbg !3815

91:                                               ; preds = %98, %95, %84
  %92 = landingpad { ptr, i32 }
          cleanup, !dbg !3816
  %93 = extractvalue { ptr, i32 } %92, 0, !dbg !3816
  store ptr %93, ptr %10, align 8, !dbg !3816
  %94 = extractvalue { ptr, i32 } %92, 1, !dbg !3816
  store i32 %94, ptr %11, align 4, !dbg !3816
  invoke void @__cxa_end_catch()
          to label %99 unwind label %143, !dbg !3817

95:                                               ; preds = %90, %79
  %96 = load ptr, ptr %8, align 8, !dbg !3818
  %97 = load i64, ptr %7, align 8, !dbg !3819
  invoke void @_ZNSt12_Vector_baseI13ProjectedBodySaIS0_EE13_M_deallocateEPS0_m(ptr noundef nonnull align 8 dereferenceable(24) %12, ptr noundef %96, i64 noundef %97)
          to label %98 unwind label %91, !dbg !3820

98:                                               ; preds = %95
  invoke void @__cxa_rethrow() #16
          to label %146 unwind label %91, !dbg !3821

99:                                               ; preds = %91
  br label %138, !dbg !3817

100:                                              ; preds = %74
  %101 = getelementptr inbounds %"struct.std::_Vector_base.16", ptr %12, i32 0, i32 0, !dbg !3822
  %102 = getelementptr inbounds %"struct.std::_Vector_base<ProjectedBody, std::allocator<ProjectedBody>>::_Vector_impl_data", ptr %101, i32 0, i32 0, !dbg !3823
  %103 = load ptr, ptr %102, align 8, !dbg !3823
  %104 = getelementptr inbounds %"struct.std::_Vector_base.16", ptr %12, i32 0, i32 0, !dbg !3824
  %105 = getelementptr inbounds %"struct.std::_Vector_base<ProjectedBody, std::allocator<ProjectedBody>>::_Vector_impl_data", ptr %104, i32 0, i32 1, !dbg !3825
  %106 = load ptr, ptr %105, align 8, !dbg !3825
  %107 = call noundef nonnull align 1 dereferenceable(1) ptr @_ZNSt12_Vector_baseI13ProjectedBodySaIS0_EE19_M_get_Tp_allocatorEv(ptr noundef nonnull align 8 dereferenceable(24) %12) #3, !dbg !3826
  call void @_ZSt8_DestroyIP13ProjectedBodyS0_EvT_S2_RSaIT0_E(ptr noundef %103, ptr noundef %106, ptr noundef nonnull align 1 dereferenceable(1) %107), !dbg !3827
  %108 = getelementptr inbounds %"struct.std::_Vector_base.16", ptr %12, i32 0, i32 0, !dbg !3828
  %109 = getelementptr inbounds %"struct.std::_Vector_base<ProjectedBody, std::allocator<ProjectedBody>>::_Vector_impl_data", ptr %108, i32 0, i32 0, !dbg !3829
  %110 = load ptr, ptr %109, align 8, !dbg !3829
  %111 = getelementptr inbounds %"struct.std::_Vector_base.16", ptr %12, i32 0, i32 0, !dbg !3830
  %112 = getelementptr inbounds %"struct.std::_Vector_base<ProjectedBody, std::allocator<ProjectedBody>>::_Vector_impl_data", ptr %111, i32 0, i32 2, !dbg !3831
  %113 = load ptr, ptr %112, align 8, !dbg !3831
  %114 = getelementptr inbounds %"struct.std::_Vector_base.16", ptr %12, i32 0, i32 0, !dbg !3832
  %115 = getelementptr inbounds %"struct.std::_Vector_base<ProjectedBody, std::allocator<ProjectedBody>>::_Vector_impl_data", ptr %114, i32 0, i32 0, !dbg !3833
  %116 = load ptr, ptr %115, align 8, !dbg !3833
  %117 = ptrtoint ptr %113 to i64, !dbg !3834
  %118 = ptrtoint ptr %116 to i64, !dbg !3834
  %119 = sub i64 %117, %118, !dbg !3834
  %120 = sdiv exact i64 %119, 24, !dbg !3834
  call void @_ZNSt12_Vector_baseI13ProjectedBodySaIS0_EE13_M_deallocateEPS0_m(ptr noundef nonnull align 8 dereferenceable(24) %12, ptr noundef %110, i64 noundef %120), !dbg !3835
  %121 = load ptr, ptr %8, align 8, !dbg !3836
  %122 = getelementptr inbounds %"struct.std::_Vector_base.16", ptr %12, i32 0, i32 0, !dbg !3837
  %123 = getelementptr inbounds %"struct.std::_Vector_base<ProjectedBody, std::allocator<ProjectedBody>>::_Vector_impl_data", ptr %122, i32 0, i32 0, !dbg !3838
  store ptr %121, ptr %123, align 8, !dbg !3839
  %124 = load ptr, ptr %8, align 8, !dbg !3840
  %125 = load i64, ptr %5, align 8, !dbg !3841
  %126 = getelementptr inbounds %class.ProjectedBody, ptr %124, i64 %125, !dbg !3842
  %127 = load i64, ptr %4, align 8, !dbg !3843
  %128 = getelementptr inbounds %class.ProjectedBody, ptr %126, i64 %127, !dbg !3844
  %129 = getelementptr inbounds %"struct.std::_Vector_base.16", ptr %12, i32 0, i32 0, !dbg !3845
  %130 = getelementptr inbounds %"struct.std::_Vector_base<ProjectedBody, std::allocator<ProjectedBody>>::_Vector_impl_data", ptr %129, i32 0, i32 1, !dbg !3846
  store ptr %128, ptr %130, align 8, !dbg !3847
  %131 = load ptr, ptr %8, align 8, !dbg !3848
  %132 = load i64, ptr %7, align 8, !dbg !3849
  %133 = getelementptr inbounds %class.ProjectedBody, ptr %131, i64 %132, !dbg !3850
  %134 = getelementptr inbounds %"struct.std::_Vector_base.16", ptr %12, i32 0, i32 0, !dbg !3851
  %135 = getelementptr inbounds %"struct.std::_Vector_base<ProjectedBody, std::allocator<ProjectedBody>>::_Vector_impl_data", ptr %134, i32 0, i32 2, !dbg !3852
  store ptr %133, ptr %135, align 8, !dbg !3853
  br label %136

136:                                              ; preds = %100, %41
  br label %137, !dbg !3854

137:                                              ; preds = %136, %2
  ret void, !dbg !3855

138:                                              ; preds = %99
  %139 = load ptr, ptr %10, align 8, !dbg !3817
  %140 = load i32, ptr %11, align 4, !dbg !3817
  %141 = insertvalue { ptr, i32 } poison, ptr %139, 0, !dbg !3817
  %142 = insertvalue { ptr, i32 } %141, i32 %140, 1, !dbg !3817
  resume { ptr, i32 } %142, !dbg !3817

143:                                              ; preds = %91
  %144 = landingpad { ptr, i32 }
          catch ptr null, !dbg !3817
  %145 = extractvalue { ptr, i32 } %144, 0, !dbg !3817
  call void @__clang_call_terminate(ptr %145) #17, !dbg !3817
  unreachable, !dbg !3817

146:                                              ; preds = %98
  unreachable
}

; Function Attrs: mustprogress noinline nounwind optnone uwtable
define linkonce_odr dso_local void @_ZNSt6vectorI13ProjectedBodySaIS0_EE15_M_erase_at_endEPS0_(ptr noundef nonnull align 8 dereferenceable(24) %0, ptr noundef %1) #7 comdat align 2 personality ptr @__gxx_personality_v0 !dbg !3856 {
  %3 = alloca ptr, align 8
  %4 = alloca ptr, align 8
  %5 = alloca i64, align 8
  store ptr %0, ptr %3, align 8
  call void @llvm.dbg.declare(metadata ptr %3, metadata !3860, metadata !DIExpression()), !dbg !3861
  store ptr %1, ptr %4, align 8
  call void @llvm.dbg.declare(metadata ptr %4, metadata !3862, metadata !DIExpression()), !dbg !3863
  %6 = load ptr, ptr %3, align 8
  call void @llvm.dbg.declare(metadata ptr %5, metadata !3864, metadata !DIExpression()), !dbg !3866
  %7 = getelementptr inbounds %"struct.std::_Vector_base.16", ptr %6, i32 0, i32 0, !dbg !3867
  %8 = getelementptr inbounds %"struct.std::_Vector_base<ProjectedBody, std::allocator<ProjectedBody>>::_Vector_impl_data", ptr %7, i32 0, i32 1, !dbg !3868
  %9 = load ptr, ptr %8, align 8, !dbg !3868
  %10 = load ptr, ptr %4, align 8, !dbg !3869
  %11 = ptrtoint ptr %9 to i64, !dbg !3870
  %12 = ptrtoint ptr %10 to i64, !dbg !3870
  %13 = sub i64 %11, %12, !dbg !3870
  %14 = sdiv exact i64 %13, 24, !dbg !3870
  store i64 %14, ptr %5, align 8, !dbg !3866
  %15 = load i64, ptr %5, align 8, !dbg !3866
  %16 = icmp ne i64 %15, 0, !dbg !3866
  br i1 %16, label %17, label %27, !dbg !3871

17:                                               ; preds = %2
  %18 = load ptr, ptr %4, align 8, !dbg !3872
  %19 = getelementptr inbounds %"struct.std::_Vector_base.16", ptr %6, i32 0, i32 0, !dbg !3874
  %20 = getelementptr inbounds %"struct.std::_Vector_base<ProjectedBody, std::allocator<ProjectedBody>>::_Vector_impl_data", ptr %19, i32 0, i32 1, !dbg !3875
  %21 = load ptr, ptr %20, align 8, !dbg !3875
  %22 = call noundef nonnull align 1 dereferenceable(1) ptr @_ZNSt12_Vector_baseI13ProjectedBodySaIS0_EE19_M_get_Tp_allocatorEv(ptr noundef nonnull align 8 dereferenceable(24) %6) #3, !dbg !3876
  invoke void @_ZSt8_DestroyIP13ProjectedBodyS0_EvT_S2_RSaIT0_E(ptr noundef %18, ptr noundef %21, ptr noundef nonnull align 1 dereferenceable(1) %22)
          to label %23 unwind label %28, !dbg !3877

23:                                               ; preds = %17
  %24 = load ptr, ptr %4, align 8, !dbg !3878
  %25 = getelementptr inbounds %"struct.std::_Vector_base.16", ptr %6, i32 0, i32 0, !dbg !3879
  %26 = getelementptr inbounds %"struct.std::_Vector_base<ProjectedBody, std::allocator<ProjectedBody>>::_Vector_impl_data", ptr %25, i32 0, i32 1, !dbg !3880
  store ptr %24, ptr %26, align 8, !dbg !3881
  br label %27, !dbg !3882

27:                                               ; preds = %23, %2
  ret void, !dbg !3883

28:                                               ; preds = %17
  %29 = landingpad { ptr, i32 }
          catch ptr null, !dbg !3877
  %30 = extractvalue { ptr, i32 } %29, 0, !dbg !3877
  call void @__clang_call_terminate(ptr %30) #17, !dbg !3877
  unreachable, !dbg !3877
}

; Function Attrs: mustprogress noinline nounwind optnone uwtable
define linkonce_odr dso_local noundef i64 @_ZNKSt6vectorI13ProjectedBodySaIS0_EE8max_sizeEv(ptr noundef nonnull align 8 dereferenceable(24) %0) #7 comdat align 2 !dbg !3884 {
  %2 = alloca ptr, align 8
  store ptr %0, ptr %2, align 8
  call void @llvm.dbg.declare(metadata ptr %2, metadata !3886, metadata !DIExpression()), !dbg !3887
  %3 = load ptr, ptr %2, align 8
  %4 = call noundef nonnull align 1 dereferenceable(1) ptr @_ZNKSt12_Vector_baseI13ProjectedBodySaIS0_EE19_M_get_Tp_allocatorEv(ptr noundef nonnull align 8 dereferenceable(24) %3) #3, !dbg !3888
  %5 = call noundef i64 @_ZNSt6vectorI13ProjectedBodySaIS0_EE11_S_max_sizeERKS1_(ptr noundef nonnull align 1 dereferenceable(1) %4) #3, !dbg !3889
  ret i64 %5, !dbg !3890
}

; Function Attrs: mustprogress noinline optnone uwtable
define linkonce_odr dso_local noundef ptr @_ZSt27__uninitialized_default_n_aIP13ProjectedBodymS0_ET_S2_T0_RSaIT1_E(ptr noundef %0, i64 noundef %1, ptr noundef nonnull align 1 dereferenceable(1) %2) #4 comdat !dbg !3891 {
  %4 = alloca ptr, align 8
  %5 = alloca i64, align 8
  %6 = alloca ptr, align 8
  store ptr %0, ptr %4, align 8
  call void @llvm.dbg.declare(metadata ptr %4, metadata !3897, metadata !DIExpression()), !dbg !3898
  store i64 %1, ptr %5, align 8
  call void @llvm.dbg.declare(metadata ptr %5, metadata !3899, metadata !DIExpression()), !dbg !3900
  store ptr %2, ptr %6, align 8
  call void @llvm.dbg.declare(metadata ptr %6, metadata !3901, metadata !DIExpression()), !dbg !3902
  %7 = load ptr, ptr %4, align 8, !dbg !3903
  %8 = load i64, ptr %5, align 8, !dbg !3904
  %9 = call noundef ptr @_ZSt25__uninitialized_default_nIP13ProjectedBodymET_S2_T0_(ptr noundef %7, i64 noundef %8), !dbg !3905
  ret ptr %9, !dbg !3906
}

; Function Attrs: mustprogress noinline nounwind optnone uwtable
define linkonce_odr dso_local noundef nonnull align 1 dereferenceable(1) ptr @_ZNSt12_Vector_baseI13ProjectedBodySaIS0_EE19_M_get_Tp_allocatorEv(ptr noundef nonnull align 8 dereferenceable(24) %0) #7 comdat align 2 !dbg !3907 {
  %2 = alloca ptr, align 8
  store ptr %0, ptr %2, align 8
  call void @llvm.dbg.declare(metadata ptr %2, metadata !3918, metadata !DIExpression()), !dbg !3920
  %3 = load ptr, ptr %2, align 8
  %4 = getelementptr inbounds %"struct.std::_Vector_base.16", ptr %3, i32 0, i32 0, !dbg !3921
  ret ptr %4, !dbg !3922
}

; Function Attrs: mustprogress noinline optnone uwtable
define linkonce_odr dso_local noundef i64 @_ZNKSt6vectorI13ProjectedBodySaIS0_EE12_M_check_lenEmPKc(ptr noundef nonnull align 8 dereferenceable(24) %0, i64 noundef %1, ptr noundef %2) #4 comdat align 2 !dbg !3923 {
  %4 = alloca ptr, align 8
  %5 = alloca i64, align 8
  %6 = alloca ptr, align 8
  %7 = alloca i64, align 8
  %8 = alloca i64, align 8
  store ptr %0, ptr %4, align 8
  call void @llvm.dbg.declare(metadata ptr %4, metadata !3928, metadata !DIExpression()), !dbg !3929
  store i64 %1, ptr %5, align 8
  call void @llvm.dbg.declare(metadata ptr %5, metadata !3930, metadata !DIExpression()), !dbg !3931
  store ptr %2, ptr %6, align 8
  call void @llvm.dbg.declare(metadata ptr %6, metadata !3932, metadata !DIExpression()), !dbg !3933
  %9 = load ptr, ptr %4, align 8
  %10 = call noundef i64 @_ZNKSt6vectorI13ProjectedBodySaIS0_EE8max_sizeEv(ptr noundef nonnull align 8 dereferenceable(24) %9) #3, !dbg !3934
  %11 = call noundef i64 @_ZNKSt6vectorI13ProjectedBodySaIS0_EE4sizeEv(ptr noundef nonnull align 8 dereferenceable(24) %9) #3, !dbg !3936
  %12 = sub i64 %10, %11, !dbg !3937
  %13 = load i64, ptr %5, align 8, !dbg !3938
  %14 = icmp ult i64 %12, %13, !dbg !3939
  br i1 %14, label %15, label %17, !dbg !3940

15:                                               ; preds = %3
  %16 = load ptr, ptr %6, align 8, !dbg !3941
  call void @_ZSt20__throw_length_errorPKc(ptr noundef %16) #16, !dbg !3942
  unreachable, !dbg !3942

17:                                               ; preds = %3
  call void @llvm.dbg.declare(metadata ptr %7, metadata !3943, metadata !DIExpression()), !dbg !3944
  %18 = call noundef i64 @_ZNKSt6vectorI13ProjectedBodySaIS0_EE4sizeEv(ptr noundef nonnull align 8 dereferenceable(24) %9) #3, !dbg !3945
  %19 = call noundef i64 @_ZNKSt6vectorI13ProjectedBodySaIS0_EE4sizeEv(ptr noundef nonnull align 8 dereferenceable(24) %9) #3, !dbg !3946
  store i64 %19, ptr %8, align 8, !dbg !3946
  %20 = call noundef nonnull align 8 dereferenceable(8) ptr @_ZSt3maxImERKT_S2_S2_(ptr noundef nonnull align 8 dereferenceable(8) %8, ptr noundef nonnull align 8 dereferenceable(8) %5), !dbg !3947
  %21 = load i64, ptr %20, align 8, !dbg !3947
  %22 = add i64 %18, %21, !dbg !3948
  store i64 %22, ptr %7, align 8, !dbg !3944
  %23 = load i64, ptr %7, align 8, !dbg !3949
  %24 = call noundef i64 @_ZNKSt6vectorI13ProjectedBodySaIS0_EE4sizeEv(ptr noundef nonnull align 8 dereferenceable(24) %9) #3, !dbg !3950
  %25 = icmp ult i64 %23, %24, !dbg !3951
  br i1 %25, label %30, label %26, !dbg !3952

26:                                               ; preds = %17
  %27 = load i64, ptr %7, align 8, !dbg !3953
  %28 = call noundef i64 @_ZNKSt6vectorI13ProjectedBodySaIS0_EE8max_sizeEv(ptr noundef nonnull align 8 dereferenceable(24) %9) #3, !dbg !3954
  %29 = icmp ugt i64 %27, %28, !dbg !3955
  br i1 %29, label %30, label %32, !dbg !3956

30:                                               ; preds = %26, %17
  %31 = call noundef i64 @_ZNKSt6vectorI13ProjectedBodySaIS0_EE8max_sizeEv(ptr noundef nonnull align 8 dereferenceable(24) %9) #3, !dbg !3957
  br label %34, !dbg !3956

32:                                               ; preds = %26
  %33 = load i64, ptr %7, align 8, !dbg !3958
  br label %34, !dbg !3956

34:                                               ; preds = %32, %30
  %35 = phi i64 [ %31, %30 ], [ %33, %32 ], !dbg !3956
  ret i64 %35, !dbg !3959
}

; Function Attrs: mustprogress noinline optnone uwtable
define linkonce_odr dso_local noundef ptr @_ZNSt12_Vector_baseI13ProjectedBodySaIS0_EE11_M_allocateEm(ptr noundef nonnull align 8 dereferenceable(24) %0, i64 noundef %1) #4 comdat align 2 !dbg !3960 {
  %3 = alloca ptr, align 8
  %4 = alloca i64, align 8
  store ptr %0, ptr %3, align 8
  call void @llvm.dbg.declare(metadata ptr %3, metadata !3964, metadata !DIExpression()), !dbg !3965
  store i64 %1, ptr %4, align 8
  call void @llvm.dbg.declare(metadata ptr %4, metadata !3966, metadata !DIExpression()), !dbg !3967
  %5 = load ptr, ptr %3, align 8
  %6 = load i64, ptr %4, align 8, !dbg !3968
  %7 = icmp ne i64 %6, 0, !dbg !3969
  br i1 %7, label %8, label %12, !dbg !3968

8:                                                ; preds = %2
  %9 = getelementptr inbounds %"struct.std::_Vector_base.16", ptr %5, i32 0, i32 0, !dbg !3970
  %10 = load i64, ptr %4, align 8, !dbg !3971
  %11 = call noundef ptr @_ZNSt16allocator_traitsISaI13ProjectedBodyEE8allocateERS1_m(ptr noundef nonnull align 1 dereferenceable(1) %9, i64 noundef %10), !dbg !3972
  br label %13, !dbg !3968

12:                                               ; preds = %2
  br label %13, !dbg !3968

13:                                               ; preds = %12, %8
  %14 = phi ptr [ %11, %8 ], [ null, %12 ], !dbg !3968
  ret ptr %14, !dbg !3973
}

; Function Attrs: mustprogress noinline optnone uwtable
define linkonce_odr dso_local noundef ptr @_ZSt34__uninitialized_move_if_noexcept_aIP13ProjectedBodyS1_SaIS0_EET0_T_S4_S3_RT1_(ptr noundef %0, ptr noundef %1, ptr noundef %2, ptr noundef nonnull align 1 dereferenceable(1) %3) #4 comdat !dbg !3974 {
  %5 = alloca ptr, align 8
  %6 = alloca ptr, align 8
  %7 = alloca ptr, align 8
  %8 = alloca ptr, align 8
  store ptr %0, ptr %5, align 8
  call void @llvm.dbg.declare(metadata ptr %5, metadata !3980, metadata !DIExpression()), !dbg !3981
  store ptr %1, ptr %6, align 8
  call void @llvm.dbg.declare(metadata ptr %6, metadata !3982, metadata !DIExpression()), !dbg !3983
  store ptr %2, ptr %7, align 8
  call void @llvm.dbg.declare(metadata ptr %7, metadata !3984, metadata !DIExpression()), !dbg !3985
  store ptr %3, ptr %8, align 8
  call void @llvm.dbg.declare(metadata ptr %8, metadata !3986, metadata !DIExpression()), !dbg !3987
  %9 = load ptr, ptr %5, align 8, !dbg !3988
  %10 = call noundef ptr @_ZSt32__make_move_if_noexcept_iteratorI13ProjectedBodyPKS0_ET0_PT_(ptr noundef %9), !dbg !3988
  %11 = load ptr, ptr %6, align 8, !dbg !3989
  %12 = call noundef ptr @_ZSt32__make_move_if_noexcept_iteratorI13ProjectedBodyPKS0_ET0_PT_(ptr noundef %11), !dbg !3989
  %13 = load ptr, ptr %7, align 8, !dbg !3990
  %14 = load ptr, ptr %8, align 8, !dbg !3991
  %15 = call noundef ptr @_ZSt22__uninitialized_copy_aIPK13ProjectedBodyPS0_S0_ET0_T_S5_S4_RSaIT1_E(ptr noundef %10, ptr noundef %12, ptr noundef %13, ptr noundef nonnull align 1 dereferenceable(1) %14), !dbg !3992
  ret ptr %15, !dbg !3993
}

; Function Attrs: mustprogress noinline optnone uwtable
define linkonce_odr dso_local void @_ZSt8_DestroyIP13ProjectedBodyS0_EvT_S2_RSaIT0_E(ptr noundef %0, ptr noundef %1, ptr noundef nonnull align 1 dereferenceable(1) %2) #4 comdat !dbg !3994 {
  %4 = alloca ptr, align 8
  %5 = alloca ptr, align 8
  %6 = alloca ptr, align 8
  store ptr %0, ptr %4, align 8
  call void @llvm.dbg.declare(metadata ptr %4, metadata !3998, metadata !DIExpression()), !dbg !3999
  store ptr %1, ptr %5, align 8
  call void @llvm.dbg.declare(metadata ptr %5, metadata !4000, metadata !DIExpression()), !dbg !4001
  store ptr %2, ptr %6, align 8
  call void @llvm.dbg.declare(metadata ptr %6, metadata !4002, metadata !DIExpression()), !dbg !4003
  %7 = load ptr, ptr %4, align 8, !dbg !4004
  %8 = load ptr, ptr %5, align 8, !dbg !4005
  call void @_ZSt8_DestroyIP13ProjectedBodyEvT_S2_(ptr noundef %7, ptr noundef %8), !dbg !4006
  ret void, !dbg !4007
}

; Function Attrs: mustprogress noinline optnone uwtable
define linkonce_odr dso_local void @_ZNSt12_Vector_baseI13ProjectedBodySaIS0_EE13_M_deallocateEPS0_m(ptr noundef nonnull align 8 dereferenceable(24) %0, ptr noundef %1, i64 noundef %2) #4 comdat align 2 !dbg !4008 {
  %4 = alloca ptr, align 8
  %5 = alloca ptr, align 8
  %6 = alloca i64, align 8
  store ptr %0, ptr %4, align 8
  call void @llvm.dbg.declare(metadata ptr %4, metadata !4012, metadata !DIExpression()), !dbg !4013
  store ptr %1, ptr %5, align 8
  call void @llvm.dbg.declare(metadata ptr %5, metadata !4014, metadata !DIExpression()), !dbg !4015
  store i64 %2, ptr %6, align 8
  call void @llvm.dbg.declare(metadata ptr %6, metadata !4016, metadata !DIExpression()), !dbg !4017
  %7 = load ptr, ptr %4, align 8
  %8 = load ptr, ptr %5, align 8, !dbg !4018
  %9 = icmp ne ptr %8, null, !dbg !4018
  br i1 %9, label %10, label %14, !dbg !4020

10:                                               ; preds = %3
  %11 = getelementptr inbounds %"struct.std::_Vector_base.16", ptr %7, i32 0, i32 0, !dbg !4021
  %12 = load ptr, ptr %5, align 8, !dbg !4022
  %13 = load i64, ptr %6, align 8, !dbg !4023
  call void @_ZNSt16allocator_traitsISaI13ProjectedBodyEE10deallocateERS1_PS0_m(ptr noundef nonnull align 1 dereferenceable(1) %11, ptr noundef %12, i64 noundef %13), !dbg !4024
  br label %14, !dbg !4024

14:                                               ; preds = %10, %3
  ret void, !dbg !4025
}

; Function Attrs: mustprogress noinline nounwind optnone uwtable
define linkonce_odr dso_local noundef i64 @_ZNSt6vectorI13ProjectedBodySaIS0_EE11_S_max_sizeERKS1_(ptr noundef nonnull align 1 dereferenceable(1) %0) #7 comdat align 2 !dbg !4026 {
  %2 = alloca ptr, align 8
  %3 = alloca i64, align 8
  %4 = alloca i64, align 8
  store ptr %0, ptr %2, align 8
  call void @llvm.dbg.declare(metadata ptr %2, metadata !4033, metadata !DIExpression()), !dbg !4034
  call void @llvm.dbg.declare(metadata ptr %3, metadata !4035, metadata !DIExpression()), !dbg !4036
  store i64 384307168202282325, ptr %3, align 8, !dbg !4036
  call void @llvm.dbg.declare(metadata ptr %4, metadata !4037, metadata !DIExpression()), !dbg !4038
  %5 = load ptr, ptr %2, align 8, !dbg !4039
  %6 = call noundef i64 @_ZNSt16allocator_traitsISaI13ProjectedBodyEE8max_sizeERKS1_(ptr noundef nonnull align 1 dereferenceable(1) %5) #3, !dbg !4040
  store i64 %6, ptr %4, align 8, !dbg !4038
  %7 = call noundef nonnull align 8 dereferenceable(8) ptr @_ZSt3minImERKT_S2_S2_(ptr noundef nonnull align 8 dereferenceable(8) %3, ptr noundef nonnull align 8 dereferenceable(8) %4), !dbg !4041
  %8 = load i64, ptr %7, align 8, !dbg !4041
  ret i64 %8, !dbg !4042
}

; Function Attrs: mustprogress noinline nounwind optnone uwtable
define linkonce_odr dso_local noundef nonnull align 1 dereferenceable(1) ptr @_ZNKSt12_Vector_baseI13ProjectedBodySaIS0_EE19_M_get_Tp_allocatorEv(ptr noundef nonnull align 8 dereferenceable(24) %0) #7 comdat align 2 !dbg !4043 {
  %2 = alloca ptr, align 8
  store ptr %0, ptr %2, align 8
  call void @llvm.dbg.declare(metadata ptr %2, metadata !4051, metadata !DIExpression()), !dbg !4053
  %3 = load ptr, ptr %2, align 8
  %4 = getelementptr inbounds %"struct.std::_Vector_base.16", ptr %3, i32 0, i32 0, !dbg !4054
  ret ptr %4, !dbg !4055
}

; Function Attrs: mustprogress noinline nounwind optnone uwtable
define linkonce_odr dso_local noundef i64 @_ZNSt16allocator_traitsISaI13ProjectedBodyEE8max_sizeERKS1_(ptr noundef nonnull align 1 dereferenceable(1) %0) #7 comdat align 2 !dbg !4056 {
  %2 = alloca ptr, align 8
  store ptr %0, ptr %2, align 8
  call void @llvm.dbg.declare(metadata ptr %2, metadata !4057, metadata !DIExpression()), !dbg !4058
  %3 = load ptr, ptr %2, align 8, !dbg !4059
  %4 = call noundef i64 @_ZNK9__gnu_cxx13new_allocatorI13ProjectedBodyE8max_sizeEv(ptr noundef nonnull align 1 dereferenceable(1) %3) #3, !dbg !4060
  ret i64 %4, !dbg !4061
}

; Function Attrs: mustprogress noinline nounwind optnone uwtable
define linkonce_odr dso_local noundef i64 @_ZNK9__gnu_cxx13new_allocatorI13ProjectedBodyE8max_sizeEv(ptr noundef nonnull align 1 dereferenceable(1) %0) #7 comdat align 2 !dbg !4062 {
  %2 = alloca ptr, align 8
  store ptr %0, ptr %2, align 8
  call void @llvm.dbg.declare(metadata ptr %2, metadata !4069, metadata !DIExpression()), !dbg !4071
  %3 = load ptr, ptr %2, align 8
  %4 = call noundef i64 @_ZNK9__gnu_cxx13new_allocatorI13ProjectedBodyE11_M_max_sizeEv(ptr noundef nonnull align 1 dereferenceable(1) %3) #3, !dbg !4072
  ret i64 %4, !dbg !4073
}

; Function Attrs: mustprogress noinline nounwind optnone uwtable
define linkonce_odr dso_local noundef i64 @_ZNK9__gnu_cxx13new_allocatorI13ProjectedBodyE11_M_max_sizeEv(ptr noundef nonnull align 1 dereferenceable(1) %0) #7 comdat align 2 !dbg !4074 {
  %2 = alloca ptr, align 8
  store ptr %0, ptr %2, align 8
  call void @llvm.dbg.declare(metadata ptr %2, metadata !4076, metadata !DIExpression()), !dbg !4077
  %3 = load ptr, ptr %2, align 8
  ret i64 384307168202282325, !dbg !4078
}

; Function Attrs: mustprogress noinline optnone uwtable
define linkonce_odr dso_local noundef ptr @_ZSt25__uninitialized_default_nIP13ProjectedBodymET_S2_T0_(ptr noundef %0, i64 noundef %1) #4 comdat !dbg !4079 {
  %3 = alloca ptr, align 8
  %4 = alloca i64, align 8
  %5 = alloca i8, align 1
  store ptr %0, ptr %3, align 8
  call void @llvm.dbg.declare(metadata ptr %3, metadata !4083, metadata !DIExpression()), !dbg !4084
  store i64 %1, ptr %4, align 8
  call void @llvm.dbg.declare(metadata ptr %4, metadata !4085, metadata !DIExpression()), !dbg !4086
  call void @llvm.dbg.declare(metadata ptr %5, metadata !4087, metadata !DIExpression()), !dbg !4088
  store i8 1, ptr %5, align 1, !dbg !4088
  %6 = load ptr, ptr %3, align 8, !dbg !4089
  %7 = load i64, ptr %4, align 8, !dbg !4090
  %8 = call noundef ptr @_ZNSt27__uninitialized_default_n_1ILb0EE18__uninit_default_nIP13ProjectedBodymEET_S4_T0_(ptr noundef %6, i64 noundef %7), !dbg !4091
  ret ptr %8, !dbg !4092
}

; Function Attrs: mustprogress noinline optnone uwtable
define linkonce_odr dso_local noundef ptr @_ZNSt27__uninitialized_default_n_1ILb0EE18__uninit_default_nIP13ProjectedBodymEET_S4_T0_(ptr noundef %0, i64 noundef %1) #4 comdat align 2 personality ptr @__gxx_personality_v0 !dbg !4093 {
  %3 = alloca ptr, align 8
  %4 = alloca i64, align 8
  %5 = alloca ptr, align 8
  %6 = alloca ptr, align 8
  %7 = alloca i32, align 4
  store ptr %0, ptr %3, align 8
  call void @llvm.dbg.declare(metadata ptr %3, metadata !4095, metadata !DIExpression()), !dbg !4096
  store i64 %1, ptr %4, align 8
  call void @llvm.dbg.declare(metadata ptr %4, metadata !4097, metadata !DIExpression()), !dbg !4098
  call void @llvm.dbg.declare(metadata ptr %5, metadata !4099, metadata !DIExpression()), !dbg !4100
  %8 = load ptr, ptr %3, align 8, !dbg !4101
  store ptr %8, ptr %5, align 8, !dbg !4100
  br label %9, !dbg !4102

9:                                                ; preds = %15, %2
  %10 = load i64, ptr %4, align 8, !dbg !4104
  %11 = icmp ugt i64 %10, 0, !dbg !4107
  br i1 %11, label %12, label %30, !dbg !4108

12:                                               ; preds = %9
  %13 = load ptr, ptr %5, align 8, !dbg !4109
  invoke void @_ZSt10_ConstructI13ProjectedBodyJEEvPT_DpOT0_(ptr noundef %13)
          to label %14 unwind label %20, !dbg !4110

14:                                               ; preds = %12
  br label %15, !dbg !4110

15:                                               ; preds = %14
  %16 = load i64, ptr %4, align 8, !dbg !4111
  %17 = add i64 %16, -1, !dbg !4111
  store i64 %17, ptr %4, align 8, !dbg !4111
  %18 = load ptr, ptr %5, align 8, !dbg !4112
  %19 = getelementptr inbounds %class.ProjectedBody, ptr %18, i32 1, !dbg !4112
  store ptr %19, ptr %5, align 8, !dbg !4112
  br label %9, !dbg !4113, !llvm.loop !4114

20:                                               ; preds = %12
  %21 = landingpad { ptr, i32 }
          catch ptr null, !dbg !4116
  %22 = extractvalue { ptr, i32 } %21, 0, !dbg !4116
  store ptr %22, ptr %6, align 8, !dbg !4116
  %23 = extractvalue { ptr, i32 } %21, 1, !dbg !4116
  store i32 %23, ptr %7, align 4, !dbg !4116
  br label %24, !dbg !4116

24:                                               ; preds = %20
  %25 = load ptr, ptr %6, align 8, !dbg !4117
  %26 = call ptr @__cxa_begin_catch(ptr %25) #3, !dbg !4117
  %27 = load ptr, ptr %3, align 8, !dbg !4118
  %28 = load ptr, ptr %5, align 8, !dbg !4120
  invoke void @_ZSt8_DestroyIP13ProjectedBodyEvT_S2_(ptr noundef %27, ptr noundef %28)
          to label %29 unwind label %32, !dbg !4121

29:                                               ; preds = %24
  invoke void @__cxa_rethrow() #16
          to label %46 unwind label %32, !dbg !4122

30:                                               ; preds = %9
  %31 = load ptr, ptr %5, align 8, !dbg !4123
  ret ptr %31, !dbg !4124

32:                                               ; preds = %29, %24
  %33 = landingpad { ptr, i32 }
          cleanup, !dbg !4125
  %34 = extractvalue { ptr, i32 } %33, 0, !dbg !4125
  store ptr %34, ptr %6, align 8, !dbg !4125
  %35 = extractvalue { ptr, i32 } %33, 1, !dbg !4125
  store i32 %35, ptr %7, align 4, !dbg !4125
  invoke void @__cxa_end_catch()
          to label %36 unwind label %43, !dbg !4126

36:                                               ; preds = %32
  br label %38, !dbg !4126

37:                                               ; No predecessors!
  call void @llvm.trap(), !dbg !4126
  unreachable, !dbg !4126

38:                                               ; preds = %36
  %39 = load ptr, ptr %6, align 8, !dbg !4126
  %40 = load i32, ptr %7, align 4, !dbg !4126
  %41 = insertvalue { ptr, i32 } poison, ptr %39, 0, !dbg !4126
  %42 = insertvalue { ptr, i32 } %41, i32 %40, 1, !dbg !4126
  resume { ptr, i32 } %42, !dbg !4126

43:                                               ; preds = %32
  %44 = landingpad { ptr, i32 }
          catch ptr null, !dbg !4126
  %45 = extractvalue { ptr, i32 } %44, 0, !dbg !4126
  call void @__clang_call_terminate(ptr %45) #17, !dbg !4126
  unreachable, !dbg !4126

46:                                               ; preds = %29
  unreachable
}

; Function Attrs: mustprogress noinline optnone uwtable
define linkonce_odr dso_local void @_ZSt10_ConstructI13ProjectedBodyJEEvPT_DpOT0_(ptr noundef %0) #4 comdat !dbg !4127 {
  %2 = alloca ptr, align 8
  store ptr %0, ptr %2, align 8
  call void @llvm.dbg.declare(metadata ptr %2, metadata !4131, metadata !DIExpression()), !dbg !4132
  %3 = load ptr, ptr %2, align 8, !dbg !4133
  call void @_ZN13ProjectedBodyC2Ev(ptr noundef nonnull align 8 dereferenceable(24) %3), !dbg !4134
  ret void, !dbg !4135
}

; Function Attrs: mustprogress noinline optnone uwtable
define linkonce_odr dso_local void @_ZSt8_DestroyIP13ProjectedBodyEvT_S2_(ptr noundef %0, ptr noundef %1) #4 comdat !dbg !4136 {
  %3 = alloca ptr, align 8
  %4 = alloca ptr, align 8
  store ptr %0, ptr %3, align 8
  call void @llvm.dbg.declare(metadata ptr %3, metadata !4140, metadata !DIExpression()), !dbg !4141
  store ptr %1, ptr %4, align 8
  call void @llvm.dbg.declare(metadata ptr %4, metadata !4142, metadata !DIExpression()), !dbg !4143
  %5 = load ptr, ptr %3, align 8, !dbg !4144
  %6 = load ptr, ptr %4, align 8, !dbg !4145
  call void @_ZNSt12_Destroy_auxILb0EE9__destroyIP13ProjectedBodyEEvT_S4_(ptr noundef %5, ptr noundef %6), !dbg !4146
  ret void, !dbg !4147
}

; Function Attrs: noinline nounwind optnone uwtable
define linkonce_odr dso_local void @_ZN13ProjectedBodyC2Ev(ptr noundef nonnull align 8 dereferenceable(24) %0) unnamed_addr #6 comdat align 2 !dbg !4148 {
  %2 = alloca ptr, align 8
  store ptr %0, ptr %2, align 8
  call void @llvm.dbg.declare(metadata ptr %2, metadata !4149, metadata !DIExpression()), !dbg !4150
  %3 = load ptr, ptr %2, align 8
  %4 = getelementptr inbounds %class.ProjectedBody, ptr %3, i32 0, i32 0, !dbg !4151
  call void @_ZNSt6vectorI17ProjectedCylinderSaIS0_EEC2Ev(ptr noundef nonnull align 8 dereferenceable(24) %4) #3, !dbg !4151
  ret void, !dbg !4152
}

; Function Attrs: noinline nounwind optnone uwtable
define linkonce_odr dso_local void @_ZNSt6vectorI17ProjectedCylinderSaIS0_EEC2Ev(ptr noundef nonnull align 8 dereferenceable(24) %0) unnamed_addr #6 comdat align 2 !dbg !4153 {
  %2 = alloca ptr, align 8
  store ptr %0, ptr %2, align 8
  call void @llvm.dbg.declare(metadata ptr %2, metadata !4154, metadata !DIExpression()), !dbg !4155
  %3 = load ptr, ptr %2, align 8
  call void @_ZNSt12_Vector_baseI17ProjectedCylinderSaIS0_EEC2Ev(ptr noundef nonnull align 8 dereferenceable(24) %3) #3, !dbg !4156
  ret void, !dbg !4157
}

; Function Attrs: noinline nounwind optnone uwtable
define linkonce_odr dso_local void @_ZNSt12_Vector_baseI17ProjectedCylinderSaIS0_EEC2Ev(ptr noundef nonnull align 8 dereferenceable(24) %0) unnamed_addr #6 comdat align 2 !dbg !4158 {
  %2 = alloca ptr, align 8
  store ptr %0, ptr %2, align 8
  call void @llvm.dbg.declare(metadata ptr %2, metadata !4159, metadata !DIExpression()), !dbg !4160
  %3 = load ptr, ptr %2, align 8
  %4 = getelementptr inbounds %"struct.std::_Vector_base", ptr %3, i32 0, i32 0, !dbg !4161
  call void @_ZNSt12_Vector_baseI17ProjectedCylinderSaIS0_EE12_Vector_implC2Ev(ptr noundef nonnull align 8 dereferenceable(24) %4) #3, !dbg !4161
  ret void, !dbg !4162
}

; Function Attrs: noinline nounwind optnone uwtable
define linkonce_odr dso_local void @_ZNSt12_Vector_baseI17ProjectedCylinderSaIS0_EE12_Vector_implC2Ev(ptr noundef nonnull align 8 dereferenceable(24) %0) unnamed_addr #6 comdat align 2 !dbg !4163 {
  %2 = alloca ptr, align 8
  store ptr %0, ptr %2, align 8
  call void @llvm.dbg.declare(metadata ptr %2, metadata !4164, metadata !DIExpression()), !dbg !4166
  %3 = load ptr, ptr %2, align 8
  call void @_ZNSaI17ProjectedCylinderEC2Ev(ptr noundef nonnull align 1 dereferenceable(1) %3) #3, !dbg !4167
  call void @_ZNSt12_Vector_baseI17ProjectedCylinderSaIS0_EE17_Vector_impl_dataC2Ev(ptr noundef nonnull align 8 dereferenceable(24) %3) #3, !dbg !4168
  ret void, !dbg !4169
}

; Function Attrs: noinline nounwind optnone uwtable
define linkonce_odr dso_local void @_ZNSaI17ProjectedCylinderEC2Ev(ptr noundef nonnull align 1 dereferenceable(1) %0) unnamed_addr #6 comdat align 2 !dbg !4170 {
  %2 = alloca ptr, align 8
  store ptr %0, ptr %2, align 8
  call void @llvm.dbg.declare(metadata ptr %2, metadata !4171, metadata !DIExpression()), !dbg !4173
  %3 = load ptr, ptr %2, align 8
  call void @_ZN9__gnu_cxx13new_allocatorI17ProjectedCylinderEC2Ev(ptr noundef nonnull align 1 dereferenceable(1) %3) #3, !dbg !4174
  ret void, !dbg !4175
}

; Function Attrs: noinline nounwind optnone uwtable
define linkonce_odr dso_local void @_ZNSt12_Vector_baseI17ProjectedCylinderSaIS0_EE17_Vector_impl_dataC2Ev(ptr noundef nonnull align 8 dereferenceable(24) %0) unnamed_addr #6 comdat align 2 !dbg !4176 {
  %2 = alloca ptr, align 8
  store ptr %0, ptr %2, align 8
  call void @llvm.dbg.declare(metadata ptr %2, metadata !4177, metadata !DIExpression()), !dbg !4179
  %3 = load ptr, ptr %2, align 8
  %4 = getelementptr inbounds %"struct.std::_Vector_base<ProjectedCylinder, std::allocator<ProjectedCylinder>>::_Vector_impl_data", ptr %3, i32 0, i32 0, !dbg !4180
  store ptr null, ptr %4, align 8, !dbg !4180
  %5 = getelementptr inbounds %"struct.std::_Vector_base<ProjectedCylinder, std::allocator<ProjectedCylinder>>::_Vector_impl_data", ptr %3, i32 0, i32 1, !dbg !4181
  store ptr null, ptr %5, align 8, !dbg !4181
  %6 = getelementptr inbounds %"struct.std::_Vector_base<ProjectedCylinder, std::allocator<ProjectedCylinder>>::_Vector_impl_data", ptr %3, i32 0, i32 2, !dbg !4182
  store ptr null, ptr %6, align 8, !dbg !4182
  ret void, !dbg !4183
}

; Function Attrs: noinline nounwind optnone uwtable
define linkonce_odr dso_local void @_ZN9__gnu_cxx13new_allocatorI17ProjectedCylinderEC2Ev(ptr noundef nonnull align 1 dereferenceable(1) %0) unnamed_addr #6 comdat align 2 !dbg !4184 {
  %2 = alloca ptr, align 8
  store ptr %0, ptr %2, align 8
  call void @llvm.dbg.declare(metadata ptr %2, metadata !4185, metadata !DIExpression()), !dbg !4186
  %3 = load ptr, ptr %2, align 8
  ret void, !dbg !4187
}

; Function Attrs: mustprogress noinline optnone uwtable
define linkonce_odr dso_local void @_ZNSt12_Destroy_auxILb0EE9__destroyIP13ProjectedBodyEEvT_S4_(ptr noundef %0, ptr noundef %1) #4 comdat align 2 !dbg !4188 {
  %3 = alloca ptr, align 8
  %4 = alloca ptr, align 8
  store ptr %0, ptr %3, align 8
  call void @llvm.dbg.declare(metadata ptr %3, metadata !4190, metadata !DIExpression()), !dbg !4191
  store ptr %1, ptr %4, align 8
  call void @llvm.dbg.declare(metadata ptr %4, metadata !4192, metadata !DIExpression()), !dbg !4193
  br label %5, !dbg !4194

5:                                                ; preds = %11, %2
  %6 = load ptr, ptr %3, align 8, !dbg !4195
  %7 = load ptr, ptr %4, align 8, !dbg !4198
  %8 = icmp ne ptr %6, %7, !dbg !4199
  br i1 %8, label %9, label %14, !dbg !4200

9:                                                ; preds = %5
  %10 = load ptr, ptr %3, align 8, !dbg !4201
  call void @_ZSt8_DestroyI13ProjectedBodyEvPT_(ptr noundef %10), !dbg !4202
  br label %11, !dbg !4202

11:                                               ; preds = %9
  %12 = load ptr, ptr %3, align 8, !dbg !4203
  %13 = getelementptr inbounds %class.ProjectedBody, ptr %12, i32 1, !dbg !4203
  store ptr %13, ptr %3, align 8, !dbg !4203
  br label %5, !dbg !4204, !llvm.loop !4205

14:                                               ; preds = %5
  ret void, !dbg !4207
}

; Function Attrs: mustprogress noinline nounwind optnone uwtable
define linkonce_odr dso_local void @_ZSt8_DestroyI13ProjectedBodyEvPT_(ptr noundef %0) #7 comdat !dbg !4208 {
  %2 = alloca ptr, align 8
  store ptr %0, ptr %2, align 8
  call void @llvm.dbg.declare(metadata ptr %2, metadata !4209, metadata !DIExpression()), !dbg !4210
  %3 = load ptr, ptr %2, align 8, !dbg !4211
  call void @_ZN13ProjectedBodyD2Ev(ptr noundef nonnull align 8 dereferenceable(24) %3) #3, !dbg !4212
  ret void, !dbg !4213
}

; Function Attrs: noinline nounwind optnone uwtable
define linkonce_odr dso_local void @_ZN13ProjectedBodyD2Ev(ptr noundef nonnull align 8 dereferenceable(24) %0) unnamed_addr #6 comdat align 2 !dbg !4214 {
  %2 = alloca ptr, align 8
  store ptr %0, ptr %2, align 8
  call void @llvm.dbg.declare(metadata ptr %2, metadata !4215, metadata !DIExpression()), !dbg !4216
  %3 = load ptr, ptr %2, align 8
  %4 = getelementptr inbounds %class.ProjectedBody, ptr %3, i32 0, i32 0, !dbg !4217
  call void @_ZNSt6vectorI17ProjectedCylinderSaIS0_EED2Ev(ptr noundef nonnull align 8 dereferenceable(24) %4) #3, !dbg !4217
  ret void, !dbg !4219
}

; Function Attrs: noinline nounwind optnone uwtable
define linkonce_odr dso_local void @_ZNSt6vectorI17ProjectedCylinderSaIS0_EED2Ev(ptr noundef nonnull align 8 dereferenceable(24) %0) unnamed_addr #6 comdat align 2 personality ptr @__gxx_personality_v0 !dbg !4220 {
  %2 = alloca ptr, align 8
  store ptr %0, ptr %2, align 8
  call void @llvm.dbg.declare(metadata ptr %2, metadata !4221, metadata !DIExpression()), !dbg !4222
  %3 = load ptr, ptr %2, align 8
  %4 = getelementptr inbounds %"struct.std::_Vector_base", ptr %3, i32 0, i32 0, !dbg !4223
  %5 = getelementptr inbounds %"struct.std::_Vector_base<ProjectedCylinder, std::allocator<ProjectedCylinder>>::_Vector_impl_data", ptr %4, i32 0, i32 0, !dbg !4225
  %6 = load ptr, ptr %5, align 8, !dbg !4225
  %7 = getelementptr inbounds %"struct.std::_Vector_base", ptr %3, i32 0, i32 0, !dbg !4226
  %8 = getelementptr inbounds %"struct.std::_Vector_base<ProjectedCylinder, std::allocator<ProjectedCylinder>>::_Vector_impl_data", ptr %7, i32 0, i32 1, !dbg !4227
  %9 = load ptr, ptr %8, align 8, !dbg !4227
  %10 = call noundef nonnull align 1 dereferenceable(1) ptr @_ZNSt12_Vector_baseI17ProjectedCylinderSaIS0_EE19_M_get_Tp_allocatorEv(ptr noundef nonnull align 8 dereferenceable(24) %3) #3, !dbg !4228
  invoke void @_ZSt8_DestroyIP17ProjectedCylinderS0_EvT_S2_RSaIT0_E(ptr noundef %6, ptr noundef %9, ptr noundef nonnull align 1 dereferenceable(1) %10)
          to label %11 unwind label %12, !dbg !4229

11:                                               ; preds = %1
  call void @_ZNSt12_Vector_baseI17ProjectedCylinderSaIS0_EED2Ev(ptr noundef nonnull align 8 dereferenceable(24) %3) #3, !dbg !4230
  ret void, !dbg !4231

12:                                               ; preds = %1
  %13 = landingpad { ptr, i32 }
          catch ptr null, !dbg !4229
  %14 = extractvalue { ptr, i32 } %13, 0, !dbg !4229
  call void @__clang_call_terminate(ptr %14) #17, !dbg !4229
  unreachable, !dbg !4229
}

; Function Attrs: noinline nounwind optnone uwtable
define linkonce_odr dso_local void @_ZNSt12_Vector_baseI17ProjectedCylinderSaIS0_EED2Ev(ptr noundef nonnull align 8 dereferenceable(24) %0) unnamed_addr #6 comdat align 2 personality ptr @__gxx_personality_v0 !dbg !4232 {
  %2 = alloca ptr, align 8
  store ptr %0, ptr %2, align 8
  call void @llvm.dbg.declare(metadata ptr %2, metadata !4233, metadata !DIExpression()), !dbg !4234
  %3 = load ptr, ptr %2, align 8
  %4 = getelementptr inbounds %"struct.std::_Vector_base", ptr %3, i32 0, i32 0, !dbg !4235
  %5 = getelementptr inbounds %"struct.std::_Vector_base<ProjectedCylinder, std::allocator<ProjectedCylinder>>::_Vector_impl_data", ptr %4, i32 0, i32 0, !dbg !4237
  %6 = load ptr, ptr %5, align 8, !dbg !4237
  %7 = getelementptr inbounds %"struct.std::_Vector_base", ptr %3, i32 0, i32 0, !dbg !4238
  %8 = getelementptr inbounds %"struct.std::_Vector_base<ProjectedCylinder, std::allocator<ProjectedCylinder>>::_Vector_impl_data", ptr %7, i32 0, i32 2, !dbg !4239
  %9 = load ptr, ptr %8, align 8, !dbg !4239
  %10 = getelementptr inbounds %"struct.std::_Vector_base", ptr %3, i32 0, i32 0, !dbg !4240
  %11 = getelementptr inbounds %"struct.std::_Vector_base<ProjectedCylinder, std::allocator<ProjectedCylinder>>::_Vector_impl_data", ptr %10, i32 0, i32 0, !dbg !4241
  %12 = load ptr, ptr %11, align 8, !dbg !4241
  %13 = ptrtoint ptr %9 to i64, !dbg !4242
  %14 = ptrtoint ptr %12 to i64, !dbg !4242
  %15 = sub i64 %13, %14, !dbg !4242
  %16 = sdiv exact i64 %15, 32, !dbg !4242
  invoke void @_ZNSt12_Vector_baseI17ProjectedCylinderSaIS0_EE13_M_deallocateEPS0_m(ptr noundef nonnull align 8 dereferenceable(24) %3, ptr noundef %6, i64 noundef %16)
          to label %17 unwind label %19, !dbg !4243

17:                                               ; preds = %1
  %18 = getelementptr inbounds %"struct.std::_Vector_base", ptr %3, i32 0, i32 0, !dbg !4244
  call void @_ZNSt12_Vector_baseI17ProjectedCylinderSaIS0_EE12_Vector_implD2Ev(ptr noundef nonnull align 8 dereferenceable(24) %18) #3, !dbg !4244
  ret void, !dbg !4245

19:                                               ; preds = %1
  %20 = landingpad { ptr, i32 }
          catch ptr null, !dbg !4243
  %21 = extractvalue { ptr, i32 } %20, 0, !dbg !4243
  call void @__clang_call_terminate(ptr %21) #17, !dbg !4243
  unreachable, !dbg !4243
}

; Function Attrs: noinline nounwind optnone uwtable
define linkonce_odr dso_local void @_ZNSt12_Vector_baseI17ProjectedCylinderSaIS0_EE12_Vector_implD2Ev(ptr noundef nonnull align 8 dereferenceable(24) %0) unnamed_addr #6 comdat align 2 !dbg !4246 {
  %2 = alloca ptr, align 8
  store ptr %0, ptr %2, align 8
  call void @llvm.dbg.declare(metadata ptr %2, metadata !4248, metadata !DIExpression()), !dbg !4249
  %3 = load ptr, ptr %2, align 8
  call void @_ZNSaI17ProjectedCylinderED2Ev(ptr noundef nonnull align 1 dereferenceable(1) %3) #3, !dbg !4250
  ret void, !dbg !4252
}

; Function Attrs: noinline nounwind optnone uwtable
define linkonce_odr dso_local void @_ZN9__gnu_cxx13new_allocatorI17ProjectedCylinderED2Ev(ptr noundef nonnull align 1 dereferenceable(1) %0) unnamed_addr #6 comdat align 2 !dbg !4253 {
  %2 = alloca ptr, align 8
  store ptr %0, ptr %2, align 8
  call void @llvm.dbg.declare(metadata ptr %2, metadata !4254, metadata !DIExpression()), !dbg !4255
  %3 = load ptr, ptr %2, align 8
  ret void, !dbg !4256
}

; Function Attrs: mustprogress noinline optnone uwtable
define linkonce_odr dso_local noundef ptr @_ZNSt16allocator_traitsISaI13ProjectedBodyEE8allocateERS1_m(ptr noundef nonnull align 1 dereferenceable(1) %0, i64 noundef %1) #4 comdat align 2 !dbg !4257 {
  %3 = alloca ptr, align 8
  %4 = alloca i64, align 8
  store ptr %0, ptr %3, align 8
  call void @llvm.dbg.declare(metadata ptr %3, metadata !4258, metadata !DIExpression()), !dbg !4259
  store i64 %1, ptr %4, align 8
  call void @llvm.dbg.declare(metadata ptr %4, metadata !4260, metadata !DIExpression()), !dbg !4261
  %5 = load ptr, ptr %3, align 8, !dbg !4262
  %6 = load i64, ptr %4, align 8, !dbg !4263
  %7 = call noundef ptr @_ZN9__gnu_cxx13new_allocatorI13ProjectedBodyE8allocateEmPKv(ptr noundef nonnull align 1 dereferenceable(1) %5, i64 noundef %6, ptr noundef null), !dbg !4264
  ret ptr %7, !dbg !4265
}

; Function Attrs: mustprogress noinline optnone uwtable
define linkonce_odr dso_local noundef ptr @_ZN9__gnu_cxx13new_allocatorI13ProjectedBodyE8allocateEmPKv(ptr noundef nonnull align 1 dereferenceable(1) %0, i64 noundef %1, ptr noundef %2) #4 comdat align 2 !dbg !4266 {
  %4 = alloca ptr, align 8
  %5 = alloca i64, align 8
  %6 = alloca ptr, align 8
  store ptr %0, ptr %4, align 8
  call void @llvm.dbg.declare(metadata ptr %4, metadata !4271, metadata !DIExpression()), !dbg !4273
  store i64 %1, ptr %5, align 8
  call void @llvm.dbg.declare(metadata ptr %5, metadata !4274, metadata !DIExpression()), !dbg !4275
  store ptr %2, ptr %6, align 8
  call void @llvm.dbg.declare(metadata ptr %6, metadata !4276, metadata !DIExpression()), !dbg !4277
  %7 = load ptr, ptr %4, align 8
  %8 = load i64, ptr %5, align 8, !dbg !4278
  %9 = call noundef i64 @_ZNK9__gnu_cxx13new_allocatorI13ProjectedBodyE11_M_max_sizeEv(ptr noundef nonnull align 1 dereferenceable(1) %7) #3, !dbg !4280
  %10 = icmp ugt i64 %8, %9, !dbg !4281
  br i1 %10, label %11, label %16, !dbg !4282

11:                                               ; preds = %3
  %12 = load i64, ptr %5, align 8, !dbg !4283
  %13 = icmp ugt i64 %12, 768614336404564650, !dbg !4286
  br i1 %13, label %14, label %15, !dbg !4287

14:                                               ; preds = %11
  call void @_ZSt28__throw_bad_array_new_lengthv() #16, !dbg !4288
  unreachable, !dbg !4288

15:                                               ; preds = %11
  call void @_ZSt17__throw_bad_allocv() #16, !dbg !4289
  unreachable, !dbg !4289

16:                                               ; preds = %3
  %17 = load i64, ptr %5, align 8, !dbg !4290
  %18 = mul i64 %17, 24, !dbg !4291
  %19 = call noalias noundef nonnull ptr @_Znwm(i64 noundef %18) #18, !dbg !4292
  ret ptr %19, !dbg !4293
}

; Function Attrs: mustprogress noinline optnone uwtable
define linkonce_odr dso_local noundef ptr @_ZSt22__uninitialized_copy_aIPK13ProjectedBodyPS0_S0_ET0_T_S5_S4_RSaIT1_E(ptr noundef %0, ptr noundef %1, ptr noundef %2, ptr noundef nonnull align 1 dereferenceable(1) %3) #4 comdat !dbg !4294 {
  %5 = alloca ptr, align 8
  %6 = alloca ptr, align 8
  %7 = alloca ptr, align 8
  %8 = alloca ptr, align 8
  store ptr %0, ptr %5, align 8
  call void @llvm.dbg.declare(metadata ptr %5, metadata !4299, metadata !DIExpression()), !dbg !4300
  store ptr %1, ptr %6, align 8
  call void @llvm.dbg.declare(metadata ptr %6, metadata !4301, metadata !DIExpression()), !dbg !4302
  store ptr %2, ptr %7, align 8
  call void @llvm.dbg.declare(metadata ptr %7, metadata !4303, metadata !DIExpression()), !dbg !4304
  store ptr %3, ptr %8, align 8
  call void @llvm.dbg.declare(metadata ptr %8, metadata !4305, metadata !DIExpression()), !dbg !4306
  %9 = load ptr, ptr %5, align 8, !dbg !4307
  %10 = load ptr, ptr %6, align 8, !dbg !4308
  %11 = load ptr, ptr %7, align 8, !dbg !4309
  %12 = call noundef ptr @_ZSt18uninitialized_copyIPK13ProjectedBodyPS0_ET0_T_S5_S4_(ptr noundef %9, ptr noundef %10, ptr noundef %11), !dbg !4310
  ret ptr %12, !dbg !4311
}

; Function Attrs: mustprogress noinline nounwind optnone uwtable
define linkonce_odr dso_local noundef ptr @_ZSt32__make_move_if_noexcept_iteratorI13ProjectedBodyPKS0_ET0_PT_(ptr noundef %0) #7 comdat !dbg !4312 {
  %2 = alloca ptr, align 8
  store ptr %0, ptr %2, align 8
  call void @llvm.dbg.declare(metadata ptr %2, metadata !4317, metadata !DIExpression()), !dbg !4318
  %3 = load ptr, ptr %2, align 8, !dbg !4319
  ret ptr %3, !dbg !4320
}

; Function Attrs: mustprogress noinline optnone uwtable
define linkonce_odr dso_local noundef ptr @_ZSt18uninitialized_copyIPK13ProjectedBodyPS0_ET0_T_S5_S4_(ptr noundef %0, ptr noundef %1, ptr noundef %2) #4 comdat !dbg !4321 {
  %4 = alloca ptr, align 8
  %5 = alloca ptr, align 8
  %6 = alloca ptr, align 8
  %7 = alloca i8, align 1
  store ptr %0, ptr %4, align 8
  call void @llvm.dbg.declare(metadata ptr %4, metadata !4325, metadata !DIExpression()), !dbg !4326
  store ptr %1, ptr %5, align 8
  call void @llvm.dbg.declare(metadata ptr %5, metadata !4327, metadata !DIExpression()), !dbg !4328
  store ptr %2, ptr %6, align 8
  call void @llvm.dbg.declare(metadata ptr %6, metadata !4329, metadata !DIExpression()), !dbg !4330
  call void @llvm.dbg.declare(metadata ptr %7, metadata !4331, metadata !DIExpression()), !dbg !4332
  store i8 1, ptr %7, align 1, !dbg !4332
  %8 = load ptr, ptr %4, align 8, !dbg !4333
  %9 = load ptr, ptr %5, align 8, !dbg !4334
  %10 = load ptr, ptr %6, align 8, !dbg !4335
  %11 = call noundef ptr @_ZNSt20__uninitialized_copyILb0EE13__uninit_copyIPK13ProjectedBodyPS2_EET0_T_S7_S6_(ptr noundef %8, ptr noundef %9, ptr noundef %10), !dbg !4336
  ret ptr %11, !dbg !4337
}

; Function Attrs: mustprogress noinline optnone uwtable
define linkonce_odr dso_local noundef ptr @_ZNSt20__uninitialized_copyILb0EE13__uninit_copyIPK13ProjectedBodyPS2_EET0_T_S7_S6_(ptr noundef %0, ptr noundef %1, ptr noundef %2) #4 comdat align 2 personality ptr @__gxx_personality_v0 !dbg !4338 {
  %4 = alloca ptr, align 8
  %5 = alloca ptr, align 8
  %6 = alloca ptr, align 8
  %7 = alloca ptr, align 8
  %8 = alloca ptr, align 8
  %9 = alloca i32, align 4
  store ptr %0, ptr %4, align 8
  call void @llvm.dbg.declare(metadata ptr %4, metadata !4343, metadata !DIExpression()), !dbg !4344
  store ptr %1, ptr %5, align 8
  call void @llvm.dbg.declare(metadata ptr %5, metadata !4345, metadata !DIExpression()), !dbg !4346
  store ptr %2, ptr %6, align 8
  call void @llvm.dbg.declare(metadata ptr %6, metadata !4347, metadata !DIExpression()), !dbg !4348
  call void @llvm.dbg.declare(metadata ptr %7, metadata !4349, metadata !DIExpression()), !dbg !4350
  %10 = load ptr, ptr %6, align 8, !dbg !4351
  store ptr %10, ptr %7, align 8, !dbg !4350
  br label %11, !dbg !4352

11:                                               ; preds = %19, %3
  %12 = load ptr, ptr %4, align 8, !dbg !4354
  %13 = load ptr, ptr %5, align 8, !dbg !4357
  %14 = icmp ne ptr %12, %13, !dbg !4358
  br i1 %14, label %15, label %34, !dbg !4359

15:                                               ; preds = %11
  %16 = load ptr, ptr %7, align 8, !dbg !4360
  %17 = load ptr, ptr %4, align 8, !dbg !4361
  invoke void @_ZSt10_ConstructI13ProjectedBodyJRKS0_EEvPT_DpOT0_(ptr noundef %16, ptr noundef nonnull align 8 dereferenceable(24) %17)
          to label %18 unwind label %24, !dbg !4362

18:                                               ; preds = %15
  br label %19, !dbg !4362

19:                                               ; preds = %18
  %20 = load ptr, ptr %4, align 8, !dbg !4363
  %21 = getelementptr inbounds %class.ProjectedBody, ptr %20, i32 1, !dbg !4363
  store ptr %21, ptr %4, align 8, !dbg !4363
  %22 = load ptr, ptr %7, align 8, !dbg !4364
  %23 = getelementptr inbounds %class.ProjectedBody, ptr %22, i32 1, !dbg !4364
  store ptr %23, ptr %7, align 8, !dbg !4364
  br label %11, !dbg !4365, !llvm.loop !4366

24:                                               ; preds = %15
  %25 = landingpad { ptr, i32 }
          catch ptr null, !dbg !4368
  %26 = extractvalue { ptr, i32 } %25, 0, !dbg !4368
  store ptr %26, ptr %8, align 8, !dbg !4368
  %27 = extractvalue { ptr, i32 } %25, 1, !dbg !4368
  store i32 %27, ptr %9, align 4, !dbg !4368
  br label %28, !dbg !4368

28:                                               ; preds = %24
  %29 = load ptr, ptr %8, align 8, !dbg !4369
  %30 = call ptr @__cxa_begin_catch(ptr %29) #3, !dbg !4369
  %31 = load ptr, ptr %6, align 8, !dbg !4370
  %32 = load ptr, ptr %7, align 8, !dbg !4372
  invoke void @_ZSt8_DestroyIP13ProjectedBodyEvT_S2_(ptr noundef %31, ptr noundef %32)
          to label %33 unwind label %36, !dbg !4373

33:                                               ; preds = %28
  invoke void @__cxa_rethrow() #16
          to label %50 unwind label %36, !dbg !4374

34:                                               ; preds = %11
  %35 = load ptr, ptr %7, align 8, !dbg !4375
  ret ptr %35, !dbg !4376

36:                                               ; preds = %33, %28
  %37 = landingpad { ptr, i32 }
          cleanup, !dbg !4377
  %38 = extractvalue { ptr, i32 } %37, 0, !dbg !4377
  store ptr %38, ptr %8, align 8, !dbg !4377
  %39 = extractvalue { ptr, i32 } %37, 1, !dbg !4377
  store i32 %39, ptr %9, align 4, !dbg !4377
  invoke void @__cxa_end_catch()
          to label %40 unwind label %47, !dbg !4378

40:                                               ; preds = %36
  br label %42, !dbg !4378

41:                                               ; No predecessors!
  call void @llvm.trap(), !dbg !4378
  unreachable, !dbg !4378

42:                                               ; preds = %40
  %43 = load ptr, ptr %8, align 8, !dbg !4378
  %44 = load i32, ptr %9, align 4, !dbg !4378
  %45 = insertvalue { ptr, i32 } poison, ptr %43, 0, !dbg !4378
  %46 = insertvalue { ptr, i32 } %45, i32 %44, 1, !dbg !4378
  resume { ptr, i32 } %46, !dbg !4378

47:                                               ; preds = %36
  %48 = landingpad { ptr, i32 }
          catch ptr null, !dbg !4378
  %49 = extractvalue { ptr, i32 } %48, 0, !dbg !4378
  call void @__clang_call_terminate(ptr %49) #17, !dbg !4378
  unreachable, !dbg !4378

50:                                               ; preds = %33
  unreachable
}

; Function Attrs: mustprogress noinline optnone uwtable
define linkonce_odr dso_local void @_ZSt10_ConstructI13ProjectedBodyJRKS0_EEvPT_DpOT0_(ptr noundef %0, ptr noundef nonnull align 8 dereferenceable(24) %1) #4 comdat !dbg !4379 {
  %3 = alloca ptr, align 8
  %4 = alloca ptr, align 8
  store ptr %0, ptr %3, align 8
  call void @llvm.dbg.declare(metadata ptr %3, metadata !4387, metadata !DIExpression()), !dbg !4388
  store ptr %1, ptr %4, align 8
  call void @llvm.dbg.declare(metadata ptr %4, metadata !4389, metadata !DIExpression()), !dbg !4390
  %5 = load ptr, ptr %3, align 8, !dbg !4391
  %6 = load ptr, ptr %4, align 8, !dbg !4392
  call void @_ZN13ProjectedBodyC2ERKS_(ptr noundef nonnull align 8 dereferenceable(24) %5, ptr noundef nonnull align 8 dereferenceable(24) %6), !dbg !4393
  ret void, !dbg !4394
}

; Function Attrs: noinline optnone uwtable
define linkonce_odr dso_local void @_ZN13ProjectedBodyC2ERKS_(ptr noundef nonnull align 8 dereferenceable(24) %0, ptr noundef nonnull align 8 dereferenceable(24) %1) unnamed_addr #12 comdat align 2 !dbg !4395 {
  %3 = alloca ptr, align 8
  %4 = alloca ptr, align 8
  store ptr %0, ptr %3, align 8
  call void @llvm.dbg.declare(metadata ptr %3, metadata !4399, metadata !DIExpression()), !dbg !4400
  store ptr %1, ptr %4, align 8
  call void @llvm.dbg.declare(metadata ptr %4, metadata !4401, metadata !DIExpression()), !dbg !4400
  %5 = load ptr, ptr %3, align 8
  %6 = getelementptr inbounds %class.ProjectedBody, ptr %5, i32 0, i32 0, !dbg !4402
  %7 = load ptr, ptr %4, align 8, !dbg !4402
  %8 = getelementptr inbounds %class.ProjectedBody, ptr %7, i32 0, i32 0, !dbg !4402
  call void @_ZNSt6vectorI17ProjectedCylinderSaIS0_EEC2ERKS2_(ptr noundef nonnull align 8 dereferenceable(24) %6, ptr noundef nonnull align 8 dereferenceable(24) %8), !dbg !4402
  ret void, !dbg !4402
}

; Function Attrs: noinline optnone uwtable
define linkonce_odr dso_local void @_ZNSt6vectorI17ProjectedCylinderSaIS0_EEC2ERKS2_(ptr noundef nonnull align 8 dereferenceable(24) %0, ptr noundef nonnull align 8 dereferenceable(24) %1) unnamed_addr #12 comdat align 2 personality ptr @__gxx_personality_v0 !dbg !4403 {
  %3 = alloca ptr, align 8
  %4 = alloca ptr, align 8
  %5 = alloca %"class.std::allocator", align 1
  %6 = alloca ptr, align 8
  %7 = alloca i32, align 4
  %8 = alloca %"class.__gnu_cxx::__normal_iterator", align 8
  %9 = alloca %"class.__gnu_cxx::__normal_iterator", align 8
  store ptr %0, ptr %3, align 8
  call void @llvm.dbg.declare(metadata ptr %3, metadata !4404, metadata !DIExpression()), !dbg !4405
  store ptr %1, ptr %4, align 8
