; ModuleID = '../TrackingBenchmark/TrackingModel.cpp'
source_filename = "../TrackingBenchmark/TrackingModel.cpp"
target datalayout = "e-m:e-p270:32:32-p271:32:32-p272:64:64-i64:64-f80:128-n8:16:32:64-S128"
target triple = "x86_64-unknown-linux-gnu"

%"class.std::ios_base::Init" = type { i8 }
%"class.std::basic_ostream" = type { ptr, %"class.std::basic_ios" }
%"class.std::basic_ios" = type { %"class.std::ios_base", ptr, i8, i8, ptr, ptr, ptr, ptr }
%"class.std::ios_base" = type { ptr, i64, i64, i32, i32, i32, ptr, %"struct.std::ios_base::_Words", [8 x %"struct.std::ios_base::_Words"], i32, ptr, %"class.std::locale" }
%"struct.std::ios_base::_Words" = type { ptr, i64 }
%"class.std::locale" = type { ptr }
%class.TrackingModel = type { ptr, %"class.std::vector", %"class.std::vector.0", %"class.std::vector.5", %"class.std::vector.15", %"class.std::vector.20", %class.MultiCamera, %"class.std::vector.40", %"class.std::vector.55", i32, %"class.std::__cxx11::basic_string" }
%"class.std::vector" = type { %"struct.std::_Vector_base" }
%"struct.std::_Vector_base" = type { %"struct.std::_Vector_base<BinaryImage, std::allocator<BinaryImage>>::_Vector_impl" }
%"struct.std::_Vector_base<BinaryImage, std::allocator<BinaryImage>>::_Vector_impl" = type { %"struct.std::_Vector_base<BinaryImage, std::allocator<BinaryImage>>::_Vector_impl_data" }
%"struct.std::_Vector_base<BinaryImage, std::allocator<BinaryImage>>::_Vector_impl_data" = type { ptr, ptr, ptr }
%"class.std::vector.0" = type { %"struct.std::_Vector_base.1" }
%"struct.std::_Vector_base.1" = type { %"struct.std::_Vector_base<FlexImage<unsigned char, 1>, std::allocator<FlexImage<unsigned char, 1>>>::_Vector_impl" }
%"struct.std::_Vector_base<FlexImage<unsigned char, 1>, std::allocator<FlexImage<unsigned char, 1>>>::_Vector_impl" = type { %"struct.std::_Vector_base<FlexImage<unsigned char, 1>, std::allocator<FlexImage<unsigned char, 1>>>::_Vector_impl_data" }
%"struct.std::_Vector_base<FlexImage<unsigned char, 1>, std::allocator<FlexImage<unsigned char, 1>>>::_Vector_impl_data" = type { ptr, ptr, ptr }
%"class.std::vector.5" = type { %"struct.std::_Vector_base.6" }
%"struct.std::_Vector_base.6" = type { %"struct.std::_Vector_base<std::vector<float>, std::allocator<std::vector<float>>>::_Vector_impl" }
%"struct.std::_Vector_base<std::vector<float>, std::allocator<std::vector<float>>>::_Vector_impl" = type { %"struct.std::_Vector_base<std::vector<float>, std::allocator<std::vector<float>>>::_Vector_impl_data" }
%"struct.std::_Vector_base<std::vector<float>, std::allocator<std::vector<float>>>::_Vector_impl_data" = type { ptr, ptr, ptr }
%"class.std::vector.15" = type { %"struct.std::_Vector_base.16" }
%"struct.std::_Vector_base.16" = type { %"struct.std::_Vector_base<BodyPose, std::allocator<BodyPose>>::_Vector_impl" }
%"struct.std::_Vector_base<BodyPose, std::allocator<BodyPose>>::_Vector_impl" = type { %"struct.std::_Vector_base<BodyPose, std::allocator<BodyPose>>::_Vector_impl_data" }
%"struct.std::_Vector_base<BodyPose, std::allocator<BodyPose>>::_Vector_impl_data" = type { ptr, ptr, ptr }
%"class.std::vector.20" = type { %"struct.std::_Vector_base.21" }
%"struct.std::_Vector_base.21" = type { %"struct.std::_Vector_base<BodyGeometry, std::allocator<BodyGeometry>>::_Vector_impl" }
%"struct.std::_Vector_base<BodyGeometry, std::allocator<BodyGeometry>>::_Vector_impl" = type { %"struct.std::_Vector_base<BodyGeometry, std::allocator<BodyGeometry>>::_Vector_impl_data" }
%"struct.std::_Vector_base<BodyGeometry, std::allocator<BodyGeometry>>::_Vector_impl_data" = type { ptr, ptr, ptr }
%class.MultiCamera = type { %"class.std::vector.35" }
%"class.std::vector.35" = type { %"struct.std::_Vector_base.36" }
%"struct.std::_Vector_base.36" = type { %"struct.std::_Vector_base<Camera, std::allocator<Camera>>::_Vector_impl" }
%"struct.std::_Vector_base<Camera, std::allocator<Camera>>::_Vector_impl" = type { %"struct.std::_Vector_base<Camera, std::allocator<Camera>>::_Vector_impl_data" }
%"struct.std::_Vector_base<Camera, std::allocator<Camera>>::_Vector_impl_data" = type { ptr, ptr, ptr }
%"class.std::vector.40" = type { %"struct.std::_Vector_base.41" }
%"struct.std::_Vector_base.41" = type { %"struct.std::_Vector_base<MultiCameraProjectedBody, std::allocator<MultiCameraProjectedBody>>::_Vector_impl" }
%"struct.std::_Vector_base<MultiCameraProjectedBody, std::allocator<MultiCameraProjectedBody>>::_Vector_impl" = type { %"struct.std::_Vector_base<MultiCameraProjectedBody, std::allocator<MultiCameraProjectedBody>>::_Vector_impl_data" }
%"struct.std::_Vector_base<MultiCameraProjectedBody, std::allocator<MultiCameraProjectedBody>>::_Vector_impl_data" = type { ptr, ptr, ptr }
%"class.std::vector.55" = type { %"struct.std::_Vector_base.56" }
%"struct.std::_Vector_base.56" = type { %"struct.std::_Vector_base<ImageMeasurements, std::allocator<ImageMeasurements>>::_Vector_impl" }
%"struct.std::_Vector_base<ImageMeasurements, std::allocator<ImageMeasurements>>::_Vector_impl" = type { %"struct.std::_Vector_base<ImageMeasurements, std::allocator<ImageMeasurements>>::_Vector_impl_data" }
%"struct.std::_Vector_base<ImageMeasurements, std::allocator<ImageMeasurements>>::_Vector_impl_data" = type { ptr, ptr, ptr }
%"class.std::__cxx11::basic_string" = type { %"struct.std::__cxx11::basic_string<char>::_Alloc_hider", i64, %union.anon }
%"struct.std::__cxx11::basic_string<char>::_Alloc_hider" = type { ptr }
%union.anon = type { i64, [8 x i8] }
%class.BodyPose = type { %class.PoseParams, %"class.std::vector.10" }
%class.PoseParams = type { %"class.std::vector.10", %"class.std::vector.10", %"class.std::vector.10" }
%"class.std::vector.10" = type { %"struct.std::_Vector_base.11" }
%"struct.std::_Vector_base.11" = type { %"struct.std::_Vector_base<float, std::allocator<float>>::_Vector_impl" }
%"struct.std::_Vector_base<float, std::allocator<float>>::_Vector_impl" = type { %"struct.std::_Vector_base<float, std::allocator<float>>::_Vector_impl_data" }
%"struct.std::_Vector_base<float, std::allocator<float>>::_Vector_impl_data" = type { ptr, ptr, ptr }
%class.BodyGeometry = type { %"class.std::vector.25", %class.BodyParameters, %"class.std::vector.30", %"class.std::vector.30", %"class.std::vector.10", %"class.std::vector.10" }
%"class.std::vector.25" = type { %"struct.std::_Vector_base.26" }
%"struct.std::_Vector_base.26" = type { %"struct.std::_Vector_base<KTCylinder, std::allocator<KTCylinder>>::_Vector_impl" }
%"struct.std::_Vector_base<KTCylinder, std::allocator<KTCylinder>>::_Vector_impl" = type { %"struct.std::_Vector_base<KTCylinder, std::allocator<KTCylinder>>::_Vector_impl_data" }
%"struct.std::_Vector_base<KTCylinder, std::allocator<KTCylinder>>::_Vector_impl_data" = type { ptr, ptr, ptr }
%class.BodyParameters = type { [10 x [4 x float]], [18 x float] }
%"class.std::vector.30" = type { %"struct.std::_Vector_base.31" }
%"struct.std::_Vector_base.31" = type { %"struct.std::_Vector_base<Vector3<float>, std::allocator<Vector3<float>>>::_Vector_impl" }
%"struct.std::_Vector_base<Vector3<float>, std::allocator<Vector3<float>>>::_Vector_impl" = type { %"struct.std::_Vector_base<Vector3<float>, std::allocator<Vector3<float>>>::_Vector_impl_data" }
%"struct.std::_Vector_base<Vector3<float>, std::allocator<Vector3<float>>>::_Vector_impl_data" = type { ptr, ptr, ptr }
%class.MultiCameraProjectedBody = type { %"class.std::vector.45" }
%"class.std::vector.45" = type { %"struct.std::_Vector_base.46" }
%"struct.std::_Vector_base.46" = type { %"struct.std::_Vector_base<ProjectedBody, std::allocator<ProjectedBody>>::_Vector_impl" }
%"struct.std::_Vector_base<ProjectedBody, std::allocator<ProjectedBody>>::_Vector_impl" = type { %"struct.std::_Vector_base<ProjectedBody, std::allocator<ProjectedBody>>::_Vector_impl_data" }
%"struct.std::_Vector_base<ProjectedBody, std::allocator<ProjectedBody>>::_Vector_impl_data" = type { ptr, ptr, ptr }
%class.ImageMeasurements = type <{ %"class.std::vector.60", float, float, float, [4 x i8] }>
%"class.std::vector.60" = type { %"struct.std::_Vector_base.61" }
%"struct.std::_Vector_base.61" = type { %"struct.std::_Vector_base<Point, std::allocator<Point>>::_Vector_impl" }
%"struct.std::_Vector_base<Point, std::allocator<Point>>::_Vector_impl" = type { %"struct.std::_Vector_base<Point, std::allocator<Point>>::_Vector_impl_data" }
%"struct.std::_Vector_base<Point, std::allocator<Point>>::_Vector_impl_data" = type { ptr, ptr, ptr }
%"struct.std::_Vector_base.69" = type { %"struct.std::_Vector_base<std::__cxx11::basic_string<char>, std::allocator<std::__cxx11::basic_string<char>>>::_Vector_impl" }
%"struct.std::_Vector_base<std::__cxx11::basic_string<char>, std::allocator<std::__cxx11::basic_string<char>>>::_Vector_impl" = type { %"struct.std::_Vector_base<std::__cxx11::basic_string<char>, std::allocator<std::__cxx11::basic_string<char>>>::_Vector_impl_data" }
%"struct.std::_Vector_base<std::__cxx11::basic_string<char>, std::allocator<std::__cxx11::basic_string<char>>>::_Vector_impl_data" = type { ptr, ptr, ptr }
%"class.std::vector.68" = type { %"struct.std::_Vector_base.69" }
%"class.std::allocator.70" = type { i8 }
%class.BinaryImage = type { ptr, ptr, i32, i32 }
%class.FlexImage = type <{ ptr, ptr, i32, i32, %class.FISize, i32, [4 x i8] }>
%class.FISize = type { i32, i32 }
%"class.std::__cxx11::basic_stringstream" = type { %"class.std::basic_iostream.base", %"class.std::__cxx11::basic_stringbuf", %"class.std::basic_ios" }
%"class.std::basic_iostream.base" = type { %"class.std::basic_istream.base", %"class.std::basic_ostream.base" }
%"class.std::basic_istream.base" = type { ptr, i64 }
%"class.std::basic_ostream.base" = type { ptr }
%"class.std::__cxx11::basic_stringbuf" = type { %"class.std::basic_streambuf", i32, %"class.std::__cxx11::basic_string" }
%"class.std::basic_streambuf" = type { ptr, ptr, ptr, ptr, ptr, ptr, ptr, %"class.std::locale" }
%"struct.std::_Setw" = type { i32 }
%"struct.std::_Setfill" = type { i8 }
%class.FlexImage.73 = type <{ ptr, ptr, i32, i32, %class.FISize, i32, [4 x i8] }>
%class.ProjectedCylinder = type { [4 x %class.Point] }
%class.Point = type { float, float }
%class.ProjectedBody = type { %"class.std::vector.50" }
%"class.std::vector.50" = type { %"struct.std::_Vector_base.51" }
%"struct.std::_Vector_base.51" = type { %"struct.std::_Vector_base<ProjectedCylinder, std::allocator<ProjectedCylinder>>::_Vector_impl" }
%"struct.std::_Vector_base<ProjectedCylinder, std::allocator<ProjectedCylinder>>::_Vector_impl" = type { %"struct.std::_Vector_base<ProjectedCylinder, std::allocator<ProjectedCylinder>>::_Vector_impl_data" }
%"struct.std::_Vector_base<ProjectedCylinder, std::allocator<ProjectedCylinder>>::_Vector_impl_data" = type { ptr, ptr, ptr }
%class.Camera = type { %class.Point, %class.Point, float, [5 x float], [3 x [3 x float]], %class.Vector3, %class.Vector3, %class.DMatrix, %class.Vector3 }
%class.DMatrix = type { [3 x [4 x float]] }
%class.Vector3 = type { float, float, float }
%"struct.std::integral_constant" = type { i8 }
%"class.__gnu_cxx::__normal_iterator" = type { ptr }
%"class.__gnu_cxx::__normal_iterator.76" = type { ptr }
%class.FlexImageStore = type <{ i32, [4 x i8], ptr, %class.FISize, i32, [4 x i8] }>
%class.KTCylinder = type { float, float, float, %class.DMatrix }
%"class.std::allocator.12" = type { i8 }
%"class.std::allocator.27" = type { i8 }
%"class.__gnu_cxx::__normal_iterator.77" = type { ptr }
%"class.std::allocator.32" = type { i8 }
%"class.__gnu_cxx::__normal_iterator.78" = type { ptr }
%"class.std::allocator.47" = type { i8 }
%"class.__gnu_cxx::__normal_iterator.79" = type { ptr }
%"class.std::allocator.52" = type { i8 }
%"class.__gnu_cxx::__normal_iterator.80" = type { ptr }
%"class.std::allocator.62" = type { i8 }
%"class.__gnu_cxx::__normal_iterator.81" = type { ptr }
%struct.tagBITMAPFILEHDR = type { i16, i64, i16, i16, i64 }
%struct.tagBITMAPINFOHDR = type { i64, i64, i64, i16, i16, i64, i64, i64, i64, i64, i64 }

$_ZNSt6vectorI11BinaryImageSaIS0_EEC2Ev = comdat any

$_ZNSt6vectorI9FlexImageIhLi1EESaIS1_EEC2Ev = comdat any

$_ZNSt6vectorIS_IfSaIfEESaIS1_EEC2Ev = comdat any

$_ZNSt6vectorI8BodyPoseSaIS0_EEC2Ev = comdat any

$_ZNSt6vectorI12BodyGeometrySaIS0_EEC2Ev = comdat any

$_ZN11MultiCameraC2Ev = comdat any

$_ZNSt6vectorI24MultiCameraProjectedBodySaIS0_EEC2Ev = comdat any

$_ZNSt6vectorI17ImageMeasurementsSaIS0_EEC2Ev = comdat any

$_ZNSt6vectorI8BodyPoseSaIS0_EE6resizeEm = comdat any

$_ZNSt6vectorI12BodyGeometrySaIS0_EE6resizeEm = comdat any

$_ZNSt6vectorI24MultiCameraProjectedBodySaIS0_EE6resizeEm = comdat any

$_ZNSt6vectorI17ImageMeasurementsSaIS0_EE6resizeEm = comdat any

$_ZNSt6vectorI17ImageMeasurementsSaIS0_EED2Ev = comdat any

$_ZNSt6vectorI24MultiCameraProjectedBodySaIS0_EED2Ev = comdat any

$_ZN11MultiCameraD2Ev = comdat any

$_ZNSt6vectorI12BodyGeometrySaIS0_EED2Ev = comdat any

$_ZNSt6vectorI8BodyPoseSaIS0_EED2Ev = comdat any

$_ZNSt6vectorIS_IfSaIfEESaIS1_EED2Ev = comdat any

$_ZNSt6vectorI9FlexImageIhLi1EESaIS1_EED2Ev = comdat any

$_ZNSt6vectorI11BinaryImageSaIS0_EED2Ev = comdat any

$_ZN11MultiCamera10SetCamerasEi = comdat any

$_ZNKSt6vectorINSt7__cxx1112basic_stringIcSt11char_traitsIcESaIcEEESaIS5_EE4sizeEv = comdat any

$_ZN11MultiCameraclEi = comdat any

$_ZNSt6vectorINSt7__cxx1112basic_stringIcSt11char_traitsIcESaIcEEESaIS5_EEixEm = comdat any

$_ZNSt6vectorI11BinaryImageSaIS0_EE6resizeEm = comdat any

$_ZNSt6vectorI9FlexImageIhLi1EESaIS1_EE6resizeEm = comdat any

$_ZNSaINSt7__cxx1112basic_stringIcSt11char_traitsIcESaIcEEEEC2Ev = comdat any

$_ZNSt6vectorINSt7__cxx1112basic_stringIcSt11char_traitsIcESaIcEEESaIS5_EEC2EmRKS6_ = comdat any

$_ZNSaINSt7__cxx1112basic_stringIcSt11char_traitsIcESaIcEEEED2Ev = comdat any

$_ZStplIcSt11char_traitsIcESaIcEENSt7__cxx1112basic_stringIT_T0_T1_EEOS8_PKS5_ = comdat any

$_ZStplIcSt11char_traitsIcESaIcEENSt7__cxx1112basic_stringIT_T0_T1_EEOS8_S9_ = comdat any

$_ZStplIcSt11char_traitsIcESaIcEENSt7__cxx1112basic_stringIT_T0_T1_EERKS8_PKS5_ = comdat any

$_Z3strIiENSt7__cxx1112basic_stringIcSt11char_traitsIcESaIcEEET_ic = comdat any

$_ZN13TrackingModel12InitGeometryERKNSt7__cxx1112basic_stringIcSt11char_traitsIcESaIcEEE = comdat any

$_ZN13TrackingModel16LoadInitialStateERKNSt7__cxx1112basic_stringIcSt11char_traitsIcESaIcEEE = comdat any

$_ZN13TrackingModel18LoadPoseParametersERKNSt7__cxx1112basic_stringIcSt11char_traitsIcESaIcEEE = comdat any

$_ZNSt6vectorI8BodyPoseSaIS0_EEixEm = comdat any

$_ZN8BodyPose6ParamsEv = comdat any

$_ZNSt6vectorINSt7__cxx1112basic_stringIcSt11char_traitsIcESaIcEEESaIS5_EED2Ev = comdat any

$_ZNSt6vectorI12BodyGeometrySaIS0_EEixEm = comdat any

$_ZNSt6vectorI24MultiCameraProjectedBodySaIS0_EEixEm = comdat any

$_ZNSt6vectorI17ImageMeasurementsSaIS0_EEixEm = comdat any

$_ZN8BodyPose3SetERKSt6vectorIfSaIfEE = comdat any

$_ZN12BodyGeometry10ParametersEv = comdat any

$_Z20GradientMagThresholdRK9FlexImageIhLi1EEf = comdat any

$_Z12GaussianBlurR9FlexImageIhLi1EES1_ = comdat any

$_ZN11MultiCamera14GetCameraCountEv = comdat any

$_Z11FlexLoadBMPIhLi1EEbPKcR9FlexImageIT_XT0_EE = comdat any

$_ZNSt6vectorI11BinaryImageSaIS0_EEixEm = comdat any

$_ZN11BinaryImage15ConvertToBinaryERK9FlexImageIhLi1EE = comdat any

$_ZNSt6vectorI9FlexImageIhLi1EESaIS1_EEixEm = comdat any

$_ZNK9FlexImageIhLi1EE5WidthEv = comdat any

$_ZNK9FlexImageIhLi1EE6HeightEv = comdat any

$_Z15FlexDownSample2IhEvR9FlexImageIT_Li1EES3_b = comdat any

$_Z13FlexGrayToRGBIhEiR9FlexImageIT_Li1EERS0_IS1_Li3EEb = comdat any

$_ZN24MultiCameraProjectedBodyclEi = comdat any

$_ZN13ProjectedBody4SizeEv = comdat any

$_ZN13ProjectedBodyclEi = comdat any

$_Z8FlexLineIhLi3EEvR9FlexImageIT_XT0_EEiiiiPS1_ = comdat any

$_Z11FlexSaveBMPIhLi3EEbPKcR9FlexImageIT_XT0_EE = comdat any

$_ZN13TrackingModelD2Ev = comdat any

$_ZN13TrackingModelD0Ev = comdat any

$_ZNSt12_Vector_baseI11BinaryImageSaIS0_EEC2Ev = comdat any

$_ZNSt12_Vector_baseI11BinaryImageSaIS0_EE12_Vector_implC2Ev = comdat any

$_ZNSaI11BinaryImageEC2Ev = comdat any

$_ZNSt12_Vector_baseI11BinaryImageSaIS0_EE17_Vector_impl_dataC2Ev = comdat any

$_ZN9__gnu_cxx13new_allocatorI11BinaryImageEC2Ev = comdat any

$_ZNSt12_Vector_baseI9FlexImageIhLi1EESaIS1_EEC2Ev = comdat any

$_ZNSt12_Vector_baseI9FlexImageIhLi1EESaIS1_EE12_Vector_implC2Ev = comdat any

$_ZNSaI9FlexImageIhLi1EEEC2Ev = comdat any

$_ZNSt12_Vector_baseI9FlexImageIhLi1EESaIS1_EE17_Vector_impl_dataC2Ev = comdat any

$_ZN9__gnu_cxx13new_allocatorI9FlexImageIhLi1EEEC2Ev = comdat any

$_ZNSt12_Vector_baseISt6vectorIfSaIfEESaIS2_EEC2Ev = comdat any

$_ZNSt12_Vector_baseISt6vectorIfSaIfEESaIS2_EE12_Vector_implC2Ev = comdat any

$_ZNSaISt6vectorIfSaIfEEEC2Ev = comdat any

$_ZNSt12_Vector_baseISt6vectorIfSaIfEESaIS2_EE17_Vector_impl_dataC2Ev = comdat any

$_ZN9__gnu_cxx13new_allocatorISt6vectorIfSaIfEEEC2Ev = comdat any

$_ZNSt12_Vector_baseI8BodyPoseSaIS0_EEC2Ev = comdat any

$_ZNSt12_Vector_baseI8BodyPoseSaIS0_EE12_Vector_implC2Ev = comdat any

$_ZNSaI8BodyPoseEC2Ev = comdat any

$_ZNSt12_Vector_baseI8BodyPoseSaIS0_EE17_Vector_impl_dataC2Ev = comdat any

$_ZN9__gnu_cxx13new_allocatorI8BodyPoseEC2Ev = comdat any

$_ZNSt12_Vector_baseI12BodyGeometrySaIS0_EEC2Ev = comdat any

$_ZNSt12_Vector_baseI12BodyGeometrySaIS0_EE12_Vector_implC2Ev = comdat any

$_ZNSaI12BodyGeometryEC2Ev = comdat any

$_ZNSt12_Vector_baseI12BodyGeometrySaIS0_EE17_Vector_impl_dataC2Ev = comdat any

$_ZN9__gnu_cxx13new_allocatorI12BodyGeometryEC2Ev = comdat any

$_ZNSt6vectorI6CameraSaIS0_EEC2Ev = comdat any

$_ZNSt12_Vector_baseI6CameraSaIS0_EEC2Ev = comdat any

$_ZNSt12_Vector_baseI6CameraSaIS0_EE12_Vector_implC2Ev = comdat any

$_ZNSaI6CameraEC2Ev = comdat any

$_ZNSt12_Vector_baseI6CameraSaIS0_EE17_Vector_impl_dataC2Ev = comdat any

$_ZN9__gnu_cxx13new_allocatorI6CameraEC2Ev = comdat any

$_ZNSt12_Vector_baseI24MultiCameraProjectedBodySaIS0_EEC2Ev = comdat any

$_ZNSt12_Vector_baseI24MultiCameraProjectedBodySaIS0_EE12_Vector_implC2Ev = comdat any

$_ZNSaI24MultiCameraProjectedBodyEC2Ev = comdat any

$_ZNSt12_Vector_baseI24MultiCameraProjectedBodySaIS0_EE17_Vector_impl_dataC2Ev = comdat any

$_ZN9__gnu_cxx13new_allocatorI24MultiCameraProjectedBodyEC2Ev = comdat any

$_ZNSt12_Vector_baseI17ImageMeasurementsSaIS0_EEC2Ev = comdat any

$_ZNSt12_Vector_baseI17ImageMeasurementsSaIS0_EE12_Vector_implC2Ev = comdat any

$_ZNSaI17ImageMeasurementsEC2Ev = comdat any

$_ZNSt12_Vector_baseI17ImageMeasurementsSaIS0_EE17_Vector_impl_dataC2Ev = comdat any

$_ZN9__gnu_cxx13new_allocatorI17ImageMeasurementsEC2Ev = comdat any

$_ZNSt6vectorI6CameraSaIS0_EED2Ev = comdat any

$_ZSt8_DestroyIP6CameraS0_EvT_S2_RSaIT0_E = comdat any

$_ZNSt12_Vector_baseI6CameraSaIS0_EE19_M_get_Tp_allocatorEv = comdat any

$__clang_call_terminate = comdat any

$_ZNSt12_Vector_baseI6CameraSaIS0_EED2Ev = comdat any

$_ZSt8_DestroyIP6CameraEvT_S2_ = comdat any

$_ZNSt12_Destroy_auxILb0EE9__destroyIP6CameraEEvT_S4_ = comdat any

$_ZSt8_DestroyI6CameraEvPT_ = comdat any

$_ZN6CameraD2Ev = comdat any

$_ZN7Vector3IfED2Ev = comdat any

$_ZN7DMatrixIfED2Ev = comdat any

$_ZN5PointD2Ev = comdat any

$_ZNSt12_Vector_baseI6CameraSaIS0_EE13_M_deallocateEPS0_m = comdat any

$_ZNSt12_Vector_baseI6CameraSaIS0_EE12_Vector_implD2Ev = comdat any

$_ZNSt16allocator_traitsISaI6CameraEE10deallocateERS1_PS0_m = comdat any

$_ZN9__gnu_cxx13new_allocatorI6CameraE10deallocateEPS1_m = comdat any

$_ZNSaI6CameraED2Ev = comdat any

$_ZN9__gnu_cxx13new_allocatorI6CameraED2Ev = comdat any

$_ZNSt6vectorI6CameraSaIS0_EE6resizeEm = comdat any

$_ZNKSt6vectorI6CameraSaIS0_EE4sizeEv = comdat any

$_ZNSt6vectorI6CameraSaIS0_EE17_M_default_appendEm = comdat any

$_ZNSt6vectorI6CameraSaIS0_EE15_M_erase_at_endEPS0_ = comdat any

$_ZNKSt6vectorI6CameraSaIS0_EE8max_sizeEv = comdat any

$_ZSt27__uninitialized_default_n_aIP6CameramS0_ET_S2_T0_RSaIT1_E = comdat any

$_ZNKSt6vectorI6CameraSaIS0_EE12_M_check_lenEmPKc = comdat any

$_ZNSt12_Vector_baseI6CameraSaIS0_EE11_M_allocateEm = comdat any

$_ZNSt6vectorI6CameraSaIS0_EE11_S_relocateEPS0_S3_S3_RS1_ = comdat any

$_ZNSt6vectorI6CameraSaIS0_EE11_S_max_sizeERKS1_ = comdat any

$_ZNKSt12_Vector_baseI6CameraSaIS0_EE19_M_get_Tp_allocatorEv = comdat any

$_ZNSt16allocator_traitsISaI6CameraEE8max_sizeERKS1_ = comdat any

$_ZSt3minImERKT_S2_S2_ = comdat any

$_ZNK9__gnu_cxx13new_allocatorI6CameraE8max_sizeEv = comdat any

$_ZNK9__gnu_cxx13new_allocatorI6CameraE11_M_max_sizeEv = comdat any

$_ZSt25__uninitialized_default_nIP6CameramET_S2_T0_ = comdat any

$_ZNSt27__uninitialized_default_n_1ILb0EE18__uninit_default_nIP6CameramEET_S4_T0_ = comdat any

$_ZSt10_ConstructI6CameraJEEvPT_DpOT0_ = comdat any

$_ZN6CameraC2Ev = comdat any

$_ZN5PointC2Ev = comdat any

$_ZN7Vector3IfEC2Ev = comdat any

$_ZN7DMatrixIfEC2Ev = comdat any

$_ZSt3maxImERKT_S2_S2_ = comdat any

$_ZNSt16allocator_traitsISaI6CameraEE8allocateERS1_m = comdat any

$_ZN9__gnu_cxx13new_allocatorI6CameraE8allocateEmPKv = comdat any

$_ZNSt6vectorI6CameraSaIS0_EE14_S_do_relocateEPS0_S3_S3_RS1_St17integral_constantIbLb1EE = comdat any

$_ZSt12__relocate_aIP6CameraS1_SaIS0_EET0_T_S4_S3_RT1_ = comdat any

$_ZSt14__relocate_a_1IP6CameraS1_SaIS0_EET0_T_S4_S3_RT1_ = comdat any

$_ZSt12__niter_baseIP6CameraET_S2_ = comdat any

$_ZSt19__relocate_object_aI6CameraS0_SaIS0_EEvPT_PT0_RT1_ = comdat any

$_ZNSt16allocator_traitsISaI6CameraEE9constructIS0_JS0_EEEvRS1_PT_DpOT0_ = comdat any

$_ZNSt16allocator_traitsISaI6CameraEE7destroyIS0_EEvRS1_PT_ = comdat any

$_ZN9__gnu_cxx13new_allocatorI6CameraE9constructIS1_JS1_EEEvPT_DpOT0_ = comdat any

$_ZN9__gnu_cxx13new_allocatorI6CameraE7destroyIS1_EEvPT_ = comdat any

$_ZNSt6vectorI6CameraSaIS0_EEixEm = comdat any

$_ZN12BodyGeometry13InitBodyShapeENSt7__cxx1112basic_stringIcSt11char_traitsIcESaIcEEE = comdat any

$_ZN8BodyPose10InitParamsENSt7__cxx1112basic_stringIcSt11char_traitsIcESaIcEEE = comdat any

$_ZNSt6vectorIfSaIfEEaSERKS1_ = comdat any

$_ZNKSt6vectorIfSaIfEE4sizeEv = comdat any

$_ZNKSt6vectorIfSaIfEE8capacityEv = comdat any

$_ZNSt6vectorIfSaIfEE20_M_allocate_and_copyIN9__gnu_cxx17__normal_iteratorIPKfS1_EEEEPfmT_S9_ = comdat any

$_ZNKSt6vectorIfSaIfEE5beginEv = comdat any

$_ZNKSt6vectorIfSaIfEE3endEv = comdat any

$_ZSt8_DestroyIPffEvT_S1_RSaIT0_E = comdat any

$_ZNSt12_Vector_baseIfSaIfEE19_M_get_Tp_allocatorEv = comdat any

$_ZNSt12_Vector_baseIfSaIfEE13_M_deallocateEPfm = comdat any

$_ZSt8_DestroyIN9__gnu_cxx17__normal_iteratorIPfSt6vectorIfSaIfEEEEfEvT_S7_RSaIT0_E = comdat any

$_ZSt4copyIN9__gnu_cxx17__normal_iteratorIPKfSt6vectorIfSaIfEEEENS1_IPfS6_EEET0_T_SB_SA_ = comdat any

$_ZNSt6vectorIfSaIfEE5beginEv = comdat any

$_ZNSt6vectorIfSaIfEE3endEv = comdat any

$_ZSt4copyIPfS0_ET0_T_S2_S1_ = comdat any

$_ZSt22__uninitialized_copy_aIPfS0_fET0_T_S2_S1_RSaIT1_E = comdat any

$_ZNSt12_Vector_baseIfSaIfEE11_M_allocateEm = comdat any

$_ZSt22__uninitialized_copy_aIN9__gnu_cxx17__normal_iteratorIPKfSt6vectorIfSaIfEEEEPffET0_T_SA_S9_RSaIT1_E = comdat any

$_ZNSt16allocator_traitsISaIfEE8allocateERS0_m = comdat any

$_ZN9__gnu_cxx13new_allocatorIfE8allocateEmPKv = comdat any

$_ZNK9__gnu_cxx13new_allocatorIfE11_M_max_sizeEv = comdat any

$_ZSt18uninitialized_copyIN9__gnu_cxx17__normal_iteratorIPKfSt6vectorIfSaIfEEEEPfET0_T_SA_S9_ = comdat any

$_ZNSt20__uninitialized_copyILb1EE13__uninit_copyIN9__gnu_cxx17__normal_iteratorIPKfSt6vectorIfSaIfEEEEPfEET0_T_SC_SB_ = comdat any

$_ZSt4copyIN9__gnu_cxx17__normal_iteratorIPKfSt6vectorIfSaIfEEEEPfET0_T_SA_S9_ = comdat any

$_ZSt13__copy_move_aILb0EN9__gnu_cxx17__normal_iteratorIPKfSt6vectorIfSaIfEEEEPfET1_T0_SA_S9_ = comdat any

$_ZSt12__miter_baseIN9__gnu_cxx17__normal_iteratorIPKfSt6vectorIfSaIfEEEEET_S8_ = comdat any

$_ZSt12__niter_wrapIPfET_RKS1_S1_ = comdat any

$_ZSt14__copy_move_a1ILb0EPKfPfET1_T0_S4_S3_ = comdat any

$_ZSt12__niter_baseIPKfSt6vectorIfSaIfEEET_N9__gnu_cxx17__normal_iteratorIS5_T0_EE = comdat any

$_ZSt12__niter_baseIPfET_S1_ = comdat any

$_ZSt14__copy_move_a2ILb0EPKfPfET1_T0_S4_S3_ = comdat any

$_ZNSt11__copy_moveILb0ELb1ESt26random_access_iterator_tagE8__copy_mIfEEPT_PKS3_S6_S4_ = comdat any

$_ZNK9__gnu_cxx17__normal_iteratorIPKfSt6vectorIfSaIfEEE4baseEv = comdat any

$_ZN9__gnu_cxx17__normal_iteratorIPKfSt6vectorIfSaIfEEEC2ERKS2_ = comdat any

$_ZSt8_DestroyIPfEvT_S1_ = comdat any

$_ZNSt12_Destroy_auxILb1EE9__destroyIPfEEvT_S3_ = comdat any

$_ZNSt16allocator_traitsISaIfEE10deallocateERS0_Pfm = comdat any

$_ZN9__gnu_cxx13new_allocatorIfE10deallocateEPfm = comdat any

$_ZSt8_DestroyIN9__gnu_cxx17__normal_iteratorIPfSt6vectorIfSaIfEEEEEvT_S7_ = comdat any

$_ZNSt12_Destroy_auxILb1EE9__destroyIN9__gnu_cxx17__normal_iteratorIPfSt6vectorIfSaIfEEEEEEvT_S9_ = comdat any

$_ZSt13__copy_move_aILb0EN9__gnu_cxx17__normal_iteratorIPKfSt6vectorIfSaIfEEEENS1_IPfS6_EEET1_T0_SB_SA_ = comdat any

$_ZSt12__niter_wrapIN9__gnu_cxx17__normal_iteratorIPfSt6vectorIfSaIfEEEES2_ET_S7_T0_ = comdat any

$_ZSt12__niter_baseIPfSt6vectorIfSaIfEEET_N9__gnu_cxx17__normal_iteratorIS4_T0_EE = comdat any

$_ZNK9__gnu_cxx17__normal_iteratorIPfSt6vectorIfSaIfEEEplEl = comdat any

$_ZN9__gnu_cxx17__normal_iteratorIPfSt6vectorIfSaIfEEEC2ERKS1_ = comdat any

$_ZNK9__gnu_cxx17__normal_iteratorIPfSt6vectorIfSaIfEEE4baseEv = comdat any

$_ZSt13__copy_move_aILb0EPfS0_ET1_T0_S2_S1_ = comdat any

$_ZSt12__miter_baseIPfET_S1_ = comdat any

$_ZSt14__copy_move_a1ILb0EPfS0_ET1_T0_S2_S1_ = comdat any

$_ZSt14__copy_move_a2ILb0EPfS0_ET1_T0_S2_S1_ = comdat any

$_ZSt18uninitialized_copyIPfS0_ET0_T_S2_S1_ = comdat any

$_ZNSt20__uninitialized_copyILb1EE13__uninit_copyIPfS2_EET0_T_S4_S3_ = comdat any

$_ZNK9FlexImageIhLi1EE4SizeEv = comdat any

$_Z10ZeroBorderIhEvR9FlexImageIT_Li1EE = comdat any

$_ZNK9FlexImageIhLi1EEclEii = comdat any

$_ZN9FlexImageIhLi1EEclEii = comdat any

$_ZNK9FlexImageIhLi1EE9StepBytesEv = comdat any

$_ZNK9FlexImageIhLi1EEclEiii = comdat any

$_ZN9FlexImageIhLi1EEclEiii = comdat any

$_Z14FlexFilterRowVIhfEbR9FlexImageIT_Li1EES3_PT0_ib = comdat any

$_Z17FlexFilterColumnVIhfEbR9FlexImageIT_Li1EES3_PT0_ib = comdat any

$_ZN9FlexImageIhLi1EE3SetEh = comdat any

$_ZN11BinaryImage10ReallocateEii = comdat any

$_ZN11BinaryImage5ClearEv = comdat any

$_ZN11BinaryImage8AllocateEv = comdat any

$_ZN11BinaryImage12DecReferenceEv = comdat any

$_ZN14FlexImageStoreIhLi1EEC2Eii = comdat any

$_ZN14FlexImageStoreIhLi1EE4DataEv = comdat any

$_ZN14FlexImageStoreIhLi1EE3ErrEv = comdat any

$_ZN14FlexImageStoreIhLi1EE13DecReferencesEv = comdat any

$_ZN14FlexImageStoreIhLi1EED2Ev = comdat any

$_ZN14FlexImageStoreIhLi1EE7SetSizeEii = comdat any

$_ZN14FlexImageStoreIhLi1EE8AllocateEv = comdat any

$_ZN14FlexImageStoreIhLi1EE10FlexMallocEiiRi = comdat any

$_ZNSt6vectorI13ProjectedBodySaIS0_EEixEm = comdat any

$_ZNKSt6vectorI17ProjectedCylinderSaIS0_EE4sizeEv = comdat any

$_ZNSt6vectorI17ProjectedCylinderSaIS0_EEixEm = comdat any

$_ZSt8_DestroyIP11BinaryImageS0_EvT_S2_RSaIT0_E = comdat any

$_ZNSt12_Vector_baseI11BinaryImageSaIS0_EE19_M_get_Tp_allocatorEv = comdat any

$_ZNSt12_Vector_baseI11BinaryImageSaIS0_EED2Ev = comdat any

$_ZSt8_DestroyIP11BinaryImageEvT_S2_ = comdat any

$_ZNSt12_Destroy_auxILb0EE9__destroyIP11BinaryImageEEvT_S4_ = comdat any

$_ZSt8_DestroyI11BinaryImageEvPT_ = comdat any

$_ZN11BinaryImageD2Ev = comdat any

$_ZNSt12_Vector_baseI11BinaryImageSaIS0_EE13_M_deallocateEPS0_m = comdat any

$_ZNSt12_Vector_baseI11BinaryImageSaIS0_EE12_Vector_implD2Ev = comdat any

$_ZNSt16allocator_traitsISaI11BinaryImageEE10deallocateERS1_PS0_m = comdat any

$_ZN9__gnu_cxx13new_allocatorI11BinaryImageE10deallocateEPS1_m = comdat any

$_ZNSaI11BinaryImageED2Ev = comdat any

$_ZN9__gnu_cxx13new_allocatorI11BinaryImageED2Ev = comdat any

$_ZSt8_DestroyIP9FlexImageIhLi1EES1_EvT_S3_RSaIT0_E = comdat any

$_ZNSt12_Vector_baseI9FlexImageIhLi1EESaIS1_EE19_M_get_Tp_allocatorEv = comdat any

$_ZNSt12_Vector_baseI9FlexImageIhLi1EESaIS1_EED2Ev = comdat any

$_ZSt8_DestroyIP9FlexImageIhLi1EEEvT_S3_ = comdat any

$_ZNSt12_Destroy_auxILb0EE9__destroyIP9FlexImageIhLi1EEEEvT_S5_ = comdat any

$_ZSt8_DestroyI9FlexImageIhLi1EEEvPT_ = comdat any

$_ZNSt12_Vector_baseI9FlexImageIhLi1EESaIS1_EE13_M_deallocateEPS1_m = comdat any

$_ZNSt12_Vector_baseI9FlexImageIhLi1EESaIS1_EE12_Vector_implD2Ev = comdat any

$_ZNSt16allocator_traitsISaI9FlexImageIhLi1EEEE10deallocateERS2_PS1_m = comdat any

$_ZN9__gnu_cxx13new_allocatorI9FlexImageIhLi1EEE10deallocateEPS2_m = comdat any

$_ZNSaI9FlexImageIhLi1EEED2Ev = comdat any

$_ZN9__gnu_cxx13new_allocatorI9FlexImageIhLi1EEED2Ev = comdat any

$_ZSt8_DestroyIPSt6vectorIfSaIfEES2_EvT_S4_RSaIT0_E = comdat any

$_ZNSt12_Vector_baseISt6vectorIfSaIfEESaIS2_EE19_M_get_Tp_allocatorEv = comdat any

$_ZNSt12_Vector_baseISt6vectorIfSaIfEESaIS2_EED2Ev = comdat any

$_ZSt8_DestroyIPSt6vectorIfSaIfEEEvT_S4_ = comdat any

$_ZNSt12_Destroy_auxILb0EE9__destroyIPSt6vectorIfSaIfEEEEvT_S6_ = comdat any

$_ZSt8_DestroyISt6vectorIfSaIfEEEvPT_ = comdat any

$_ZNSt6vectorIfSaIfEED2Ev = comdat any

$_ZNSt12_Vector_baseIfSaIfEED2Ev = comdat any

$_ZNSt12_Vector_baseIfSaIfEE12_Vector_implD2Ev = comdat any

$_ZN9__gnu_cxx13new_allocatorIfED2Ev = comdat any

$_ZNSt12_Vector_baseISt6vectorIfSaIfEESaIS2_EE13_M_deallocateEPS2_m = comdat any

$_ZNSt12_Vector_baseISt6vectorIfSaIfEESaIS2_EE12_Vector_implD2Ev = comdat any

$_ZNSt16allocator_traitsISaISt6vectorIfSaIfEEEE10deallocateERS3_PS2_m = comdat any

$_ZN9__gnu_cxx13new_allocatorISt6vectorIfSaIfEEE10deallocateEPS3_m = comdat any

$_ZNSaISt6vectorIfSaIfEEED2Ev = comdat any

$_ZN9__gnu_cxx13new_allocatorISt6vectorIfSaIfEEED2Ev = comdat any

$_ZSt8_DestroyIP8BodyPoseS0_EvT_S2_RSaIT0_E = comdat any

$_ZNSt12_Vector_baseI8BodyPoseSaIS0_EE19_M_get_Tp_allocatorEv = comdat any

$_ZNSt12_Vector_baseI8BodyPoseSaIS0_EED2Ev = comdat any

$_ZSt8_DestroyIP8BodyPoseEvT_S2_ = comdat any

$_ZNSt12_Destroy_auxILb0EE9__destroyIP8BodyPoseEEvT_S4_ = comdat any

$_ZSt8_DestroyI8BodyPoseEvPT_ = comdat any

$_ZN8BodyPoseD2Ev = comdat any

$_ZN10PoseParamsD2Ev = comdat any

$_ZNSt12_Vector_baseI8BodyPoseSaIS0_EE13_M_deallocateEPS0_m = comdat any

$_ZNSt12_Vector_baseI8BodyPoseSaIS0_EE12_Vector_implD2Ev = comdat any

$_ZNSt16allocator_traitsISaI8BodyPoseEE10deallocateERS1_PS0_m = comdat any

$_ZN9__gnu_cxx13new_allocatorI8BodyPoseE10deallocateEPS1_m = comdat any

$_ZNSaI8BodyPoseED2Ev = comdat any

$_ZN9__gnu_cxx13new_allocatorI8BodyPoseED2Ev = comdat any

$_ZSt8_DestroyIP12BodyGeometryS0_EvT_S2_RSaIT0_E = comdat any

$_ZNSt12_Vector_baseI12BodyGeometrySaIS0_EE19_M_get_Tp_allocatorEv = comdat any

$_ZNSt12_Vector_baseI12BodyGeometrySaIS0_EED2Ev = comdat any

$_ZSt8_DestroyIP12BodyGeometryEvT_S2_ = comdat any

$_ZNSt12_Destroy_auxILb0EE9__destroyIP12BodyGeometryEEvT_S4_ = comdat any

$_ZSt8_DestroyI12BodyGeometryEvPT_ = comdat any

$_ZN12BodyGeometryD2Ev = comdat any

$_ZNSt6vectorI7Vector3IfESaIS1_EED2Ev = comdat any

$_ZN14BodyParametersD2Ev = comdat any

$_ZNSt6vectorI10KTCylinderSaIS0_EED2Ev = comdat any

$_ZSt8_DestroyIP7Vector3IfES1_EvT_S3_RSaIT0_E = comdat any

$_ZNSt12_Vector_baseI7Vector3IfESaIS1_EE19_M_get_Tp_allocatorEv = comdat any

$_ZNSt12_Vector_baseI7Vector3IfESaIS1_EED2Ev = comdat any

$_ZSt8_DestroyIP7Vector3IfEEvT_S3_ = comdat any

$_ZNSt12_Destroy_auxILb0EE9__destroyIP7Vector3IfEEEvT_S5_ = comdat any

$_ZSt8_DestroyI7Vector3IfEEvPT_ = comdat any

$_ZNSt12_Vector_baseI7Vector3IfESaIS1_EE13_M_deallocateEPS1_m = comdat any

$_ZNSt12_Vector_baseI7Vector3IfESaIS1_EE12_Vector_implD2Ev = comdat any

$_ZNSt16allocator_traitsISaI7Vector3IfEEE10deallocateERS2_PS1_m = comdat any

$_ZN9__gnu_cxx13new_allocatorI7Vector3IfEE10deallocateEPS2_m = comdat any

$_ZN9__gnu_cxx13new_allocatorI7Vector3IfEED2Ev = comdat any

$_ZSt8_DestroyIP10KTCylinderS0_EvT_S2_RSaIT0_E = comdat any

$_ZNSt12_Vector_baseI10KTCylinderSaIS0_EE19_M_get_Tp_allocatorEv = comdat any

$_ZNSt12_Vector_baseI10KTCylinderSaIS0_EED2Ev = comdat any

$_ZSt8_DestroyIP10KTCylinderEvT_S2_ = comdat any

$_ZNSt12_Destroy_auxILb0EE9__destroyIP10KTCylinderEEvT_S4_ = comdat any

$_ZSt8_DestroyI10KTCylinderEvPT_ = comdat any

$_ZN10KTCylinderD2Ev = comdat any

$_ZNSt12_Vector_baseI10KTCylinderSaIS0_EE13_M_deallocateEPS0_m = comdat any

$_ZNSt12_Vector_baseI10KTCylinderSaIS0_EE12_Vector_implD2Ev = comdat any

$_ZNSt16allocator_traitsISaI10KTCylinderEE10deallocateERS1_PS0_m = comdat any

$_ZN9__gnu_cxx13new_allocatorI10KTCylinderE10deallocateEPS1_m = comdat any

$_ZN9__gnu_cxx13new_allocatorI10KTCylinderED2Ev = comdat any

$_ZNSt12_Vector_baseI12BodyGeometrySaIS0_EE13_M_deallocateEPS0_m = comdat any

$_ZNSt12_Vector_baseI12BodyGeometrySaIS0_EE12_Vector_implD2Ev = comdat any

$_ZNSt16allocator_traitsISaI12BodyGeometryEE10deallocateERS1_PS0_m = comdat any

$_ZN9__gnu_cxx13new_allocatorI12BodyGeometryE10deallocateEPS1_m = comdat any

$_ZNSaI12BodyGeometryED2Ev = comdat any

$_ZN9__gnu_cxx13new_allocatorI12BodyGeometryED2Ev = comdat any

$_ZSt8_DestroyIP24MultiCameraProjectedBodyS0_EvT_S2_RSaIT0_E = comdat any

$_ZNSt12_Vector_baseI24MultiCameraProjectedBodySaIS0_EE19_M_get_Tp_allocatorEv = comdat any

$_ZNSt12_Vector_baseI24MultiCameraProjectedBodySaIS0_EED2Ev = comdat any

$_ZSt8_DestroyIP24MultiCameraProjectedBodyEvT_S2_ = comdat any

$_ZNSt12_Destroy_auxILb0EE9__destroyIP24MultiCameraProjectedBodyEEvT_S4_ = comdat any

$_ZSt8_DestroyI24MultiCameraProjectedBodyEvPT_ = comdat any

$_ZN24MultiCameraProjectedBodyD2Ev = comdat any

$_ZNSt6vectorI13ProjectedBodySaIS0_EED2Ev = comdat any

$_ZSt8_DestroyIP13ProjectedBodyS0_EvT_S2_RSaIT0_E = comdat any

$_ZNSt12_Vector_baseI13ProjectedBodySaIS0_EE19_M_get_Tp_allocatorEv = comdat any

$_ZNSt12_Vector_baseI13ProjectedBodySaIS0_EED2Ev = comdat any

$_ZSt8_DestroyIP13ProjectedBodyEvT_S2_ = comdat any

$_ZNSt12_Destroy_auxILb0EE9__destroyIP13ProjectedBodyEEvT_S4_ = comdat any

$_ZSt8_DestroyI13ProjectedBodyEvPT_ = comdat any

$_ZN13ProjectedBodyD2Ev = comdat any

$_ZNSt6vectorI17ProjectedCylinderSaIS0_EED2Ev = comdat any

$_ZSt8_DestroyIP17ProjectedCylinderS0_EvT_S2_RSaIT0_E = comdat any

$_ZNSt12_Vector_baseI17ProjectedCylinderSaIS0_EE19_M_get_Tp_allocatorEv = comdat any

$_ZNSt12_Vector_baseI17ProjectedCylinderSaIS0_EED2Ev = comdat any

$_ZSt8_DestroyIP17ProjectedCylinderEvT_S2_ = comdat any

$_ZNSt12_Destroy_auxILb0EE9__destroyIP17ProjectedCylinderEEvT_S4_ = comdat any

$_ZSt8_DestroyI17ProjectedCylinderEvPT_ = comdat any

$_ZN17ProjectedCylinderD2Ev = comdat any

$_ZNSt12_Vector_baseI17ProjectedCylinderSaIS0_EE13_M_deallocateEPS0_m = comdat any

$_ZNSt12_Vector_baseI17ProjectedCylinderSaIS0_EE12_Vector_implD2Ev = comdat any

$_ZNSt16allocator_traitsISaI17ProjectedCylinderEE10deallocateERS1_PS0_m = comdat any

$_ZN9__gnu_cxx13new_allocatorI17ProjectedCylinderE10deallocateEPS1_m = comdat any

$_ZN9__gnu_cxx13new_allocatorI17ProjectedCylinderED2Ev = comdat any

$_ZNSt12_Vector_baseI13ProjectedBodySaIS0_EE13_M_deallocateEPS0_m = comdat any

$_ZNSt12_Vector_baseI13ProjectedBodySaIS0_EE12_Vector_implD2Ev = comdat any

$_ZNSt16allocator_traitsISaI13ProjectedBodyEE10deallocateERS1_PS0_m = comdat any

$_ZN9__gnu_cxx13new_allocatorI13ProjectedBodyE10deallocateEPS1_m = comdat any

$_ZN9__gnu_cxx13new_allocatorI13ProjectedBodyED2Ev = comdat any

$_ZNSt12_Vector_baseI24MultiCameraProjectedBodySaIS0_EE13_M_deallocateEPS0_m = comdat any

$_ZNSt12_Vector_baseI24MultiCameraProjectedBodySaIS0_EE12_Vector_implD2Ev = comdat any

$_ZNSt16allocator_traitsISaI24MultiCameraProjectedBodyEE10deallocateERS1_PS0_m = comdat any

$_ZN9__gnu_cxx13new_allocatorI24MultiCameraProjectedBodyE10deallocateEPS1_m = comdat any

$_ZNSaI24MultiCameraProjectedBodyED2Ev = comdat any

$_ZN9__gnu_cxx13new_allocatorI24MultiCameraProjectedBodyED2Ev = comdat any

$_ZSt8_DestroyIP17ImageMeasurementsS0_EvT_S2_RSaIT0_E = comdat any

$_ZNSt12_Vector_baseI17ImageMeasurementsSaIS0_EE19_M_get_Tp_allocatorEv = comdat any

$_ZNSt12_Vector_baseI17ImageMeasurementsSaIS0_EED2Ev = comdat any

$_ZSt8_DestroyIP17ImageMeasurementsEvT_S2_ = comdat any

$_ZNSt12_Destroy_auxILb0EE9__destroyIP17ImageMeasurementsEEvT_S4_ = comdat any

$_ZSt8_DestroyI17ImageMeasurementsEvPT_ = comdat any

$_ZN17ImageMeasurementsD2Ev = comdat any

$_ZNSt6vectorI5PointSaIS0_EED2Ev = comdat any

$_ZSt8_DestroyIP5PointS0_EvT_S2_RSaIT0_E = comdat any

$_ZNSt12_Vector_baseI5PointSaIS0_EE19_M_get_Tp_allocatorEv = comdat any

$_ZNSt12_Vector_baseI5PointSaIS0_EED2Ev = comdat any

$_ZSt8_DestroyIP5PointEvT_S2_ = comdat any

$_ZNSt12_Destroy_auxILb0EE9__destroyIP5PointEEvT_S4_ = comdat any

$_ZSt8_DestroyI5PointEvPT_ = comdat any

$_ZNSt12_Vector_baseI5PointSaIS0_EE13_M_deallocateEPS0_m = comdat any

$_ZNSt12_Vector_baseI5PointSaIS0_EE12_Vector_implD2Ev = comdat any

$_ZNSt16allocator_traitsISaI5PointEE10deallocateERS1_PS0_m = comdat any

$_ZN9__gnu_cxx13new_allocatorI5PointE10deallocateEPS1_m = comdat any

$_ZN9__gnu_cxx13new_allocatorI5PointED2Ev = comdat any

$_ZNSt12_Vector_baseI17ImageMeasurementsSaIS0_EE13_M_deallocateEPS0_m = comdat any

$_ZNSt12_Vector_baseI17ImageMeasurementsSaIS0_EE12_Vector_implD2Ev = comdat any

$_ZNSt16allocator_traitsISaI17ImageMeasurementsEE10deallocateERS1_PS0_m = comdat any

$_ZN9__gnu_cxx13new_allocatorI17ImageMeasurementsE10deallocateEPS1_m = comdat any

$_ZNSaI17ImageMeasurementsED2Ev = comdat any

$_ZN9__gnu_cxx13new_allocatorI17ImageMeasurementsED2Ev = comdat any

$_ZNKSt6vectorI8BodyPoseSaIS0_EE4sizeEv = comdat any

$_ZNSt6vectorI8BodyPoseSaIS0_EE17_M_default_appendEm = comdat any

$_ZNSt6vectorI8BodyPoseSaIS0_EE15_M_erase_at_endEPS0_ = comdat any

$_ZNKSt6vectorI8BodyPoseSaIS0_EE8max_sizeEv = comdat any

$_ZSt27__uninitialized_default_n_aIP8BodyPosemS0_ET_S2_T0_RSaIT1_E = comdat any

$_ZNKSt6vectorI8BodyPoseSaIS0_EE12_M_check_lenEmPKc = comdat any

$_ZNSt12_Vector_baseI8BodyPoseSaIS0_EE11_M_allocateEm = comdat any

$_ZSt34__uninitialized_move_if_noexcept_aIP8BodyPoseS1_SaIS0_EET0_T_S4_S3_RT1_ = comdat any

$_ZNSt6vectorI8BodyPoseSaIS0_EE11_S_max_sizeERKS1_ = comdat any

$_ZNKSt12_Vector_baseI8BodyPoseSaIS0_EE19_M_get_Tp_allocatorEv = comdat any

$_ZNSt16allocator_traitsISaI8BodyPoseEE8max_sizeERKS1_ = comdat any

$_ZNK9__gnu_cxx13new_allocatorI8BodyPoseE8max_sizeEv = comdat any

$_ZNK9__gnu_cxx13new_allocatorI8BodyPoseE11_M_max_sizeEv = comdat any

$_ZSt25__uninitialized_default_nIP8BodyPosemET_S2_T0_ = comdat any

$_ZNSt27__uninitialized_default_n_1ILb0EE18__uninit_default_nIP8BodyPosemEET_S4_T0_ = comdat any

$_ZSt10_ConstructI8BodyPoseJEEvPT_DpOT0_ = comdat any

$_ZN8BodyPoseC2Ev = comdat any

$_ZN10PoseParamsC2Ev = comdat any

$_ZNSt6vectorIfSaIfEEC2Ev = comdat any

$_ZNSt12_Vector_baseIfSaIfEEC2Ev = comdat any

$_ZNSt12_Vector_baseIfSaIfEE12_Vector_implC2Ev = comdat any

$_ZNSaIfEC2Ev = comdat any

$_ZNSt12_Vector_baseIfSaIfEE17_Vector_impl_dataC2Ev = comdat any

$_ZN9__gnu_cxx13new_allocatorIfEC2Ev = comdat any

$_ZNSt16allocator_traitsISaI8BodyPoseEE8allocateERS1_m = comdat any

$_ZN9__gnu_cxx13new_allocatorI8BodyPoseE8allocateEmPKv = comdat any

$_ZSt22__uninitialized_copy_aIPK8BodyPosePS0_S0_ET0_T_S5_S4_RSaIT1_E = comdat any

$_ZSt32__make_move_if_noexcept_iteratorI8BodyPosePKS0_ET0_PT_ = comdat any

$_ZSt18uninitialized_copyIPK8BodyPosePS0_ET0_T_S5_S4_ = comdat any

$_ZNSt20__uninitialized_copyILb0EE13__uninit_copyIPK8BodyPosePS2_EET0_T_S7_S6_ = comdat any

$_ZSt10_ConstructI8BodyPoseJRKS0_EEvPT_DpOT0_ = comdat any

$_ZN8BodyPoseC2ERKS_ = comdat any

$_ZN10PoseParamsC2ERKS_ = comdat any

$_ZNSt6vectorIfSaIfEEC2ERKS1_ = comdat any

$_ZN9__gnu_cxx14__alloc_traitsISaIfEfE17_S_select_on_copyERKS1_ = comdat any

$_ZNKSt12_Vector_baseIfSaIfEE19_M_get_Tp_allocatorEv = comdat any

$_ZNSt12_Vector_baseIfSaIfEEC2EmRKS0_ = comdat any

$_ZNSaIfED2Ev = comdat any

$_ZNSt16allocator_traitsISaIfEE37select_on_container_copy_constructionERKS0_ = comdat any

$_ZNSaIfEC2ERKS_ = comdat any

$_ZN9__gnu_cxx13new_allocatorIfEC2ERKS1_ = comdat any

$_ZNSt12_Vector_baseIfSaIfEE12_Vector_implC2ERKS0_ = comdat any

$_ZNSt12_Vector_baseIfSaIfEE17_M_create_storageEm = comdat any

$_ZNKSt6vectorI12BodyGeometrySaIS0_EE4sizeEv = comdat any

$_ZNSt6vectorI12BodyGeometrySaIS0_EE17_M_default_appendEm = comdat any

$_ZNSt6vectorI12BodyGeometrySaIS0_EE15_M_erase_at_endEPS0_ = comdat any

$_ZNKSt6vectorI12BodyGeometrySaIS0_EE8max_sizeEv = comdat any

$_ZSt27__uninitialized_default_n_aIP12BodyGeometrymS0_ET_S2_T0_RSaIT1_E = comdat any

$_ZNKSt6vectorI12BodyGeometrySaIS0_EE12_M_check_lenEmPKc = comdat any

$_ZNSt12_Vector_baseI12BodyGeometrySaIS0_EE11_M_allocateEm = comdat any

$_ZSt34__uninitialized_move_if_noexcept_aIP12BodyGeometryS1_SaIS0_EET0_T_S4_S3_RT1_ = comdat any

$_ZNSt6vectorI12BodyGeometrySaIS0_EE11_S_max_sizeERKS1_ = comdat any

$_ZNKSt12_Vector_baseI12BodyGeometrySaIS0_EE19_M_get_Tp_allocatorEv = comdat any

$_ZNSt16allocator_traitsISaI12BodyGeometryEE8max_sizeERKS1_ = comdat any

$_ZNK9__gnu_cxx13new_allocatorI12BodyGeometryE8max_sizeEv = comdat any

$_ZNK9__gnu_cxx13new_allocatorI12BodyGeometryE11_M_max_sizeEv = comdat any

$_ZSt25__uninitialized_default_nIP12BodyGeometrymET_S2_T0_ = comdat any

$_ZNSt27__uninitialized_default_n_1ILb0EE18__uninit_default_nIP12BodyGeometrymEET_S4_T0_ = comdat any

$_ZSt10_ConstructI12BodyGeometryJEEvPT_DpOT0_ = comdat any

$_ZN12BodyGeometryC2Ev = comdat any

$_ZNSt6vectorI10KTCylinderSaIS0_EEC2Ev = comdat any

$_ZN14BodyParametersC2Ev = comdat any

$_ZNSt6vectorI7Vector3IfESaIS1_EEC2Ev = comdat any

$_ZNSt6vectorI10KTCylinderSaIS0_EE6resizeEm = comdat any

$_ZNSt12_Vector_baseI10KTCylinderSaIS0_EEC2Ev = comdat any

$_ZNSt12_Vector_baseI10KTCylinderSaIS0_EE12_Vector_implC2Ev = comdat any

$_ZNSaI10KTCylinderEC2Ev = comdat any

$_ZNSt12_Vector_baseI10KTCylinderSaIS0_EE17_Vector_impl_dataC2Ev = comdat any

$_ZN9__gnu_cxx13new_allocatorI10KTCylinderEC2Ev = comdat any

$_ZNSt12_Vector_baseI7Vector3IfESaIS1_EEC2Ev = comdat any

$_ZNSt12_Vector_baseI7Vector3IfESaIS1_EE12_Vector_implC2Ev = comdat any

$_ZNSaI7Vector3IfEEC2Ev = comdat any

$_ZNSt12_Vector_baseI7Vector3IfESaIS1_EE17_Vector_impl_dataC2Ev = comdat any

$_ZN9__gnu_cxx13new_allocatorI7Vector3IfEEC2Ev = comdat any

$_ZNKSt6vectorI10KTCylinderSaIS0_EE4sizeEv = comdat any

$_ZNSt6vectorI10KTCylinderSaIS0_EE17_M_default_appendEm = comdat any

$_ZNSt6vectorI10KTCylinderSaIS0_EE15_M_erase_at_endEPS0_ = comdat any

$_ZNKSt6vectorI10KTCylinderSaIS0_EE8max_sizeEv = comdat any

$_ZSt27__uninitialized_default_n_aIP10KTCylindermS0_ET_S2_T0_RSaIT1_E = comdat any

$_ZNKSt6vectorI10KTCylinderSaIS0_EE12_M_check_lenEmPKc = comdat any

$_ZNSt12_Vector_baseI10KTCylinderSaIS0_EE11_M_allocateEm = comdat any

$_ZNSt6vectorI10KTCylinderSaIS0_EE11_S_relocateEPS0_S3_S3_RS1_ = comdat any

$_ZNSt6vectorI10KTCylinderSaIS0_EE11_S_max_sizeERKS1_ = comdat any

$_ZNKSt12_Vector_baseI10KTCylinderSaIS0_EE19_M_get_Tp_allocatorEv = comdat any

$_ZNSt16allocator_traitsISaI10KTCylinderEE8max_sizeERKS1_ = comdat any

$_ZNK9__gnu_cxx13new_allocatorI10KTCylinderE8max_sizeEv = comdat any

$_ZNK9__gnu_cxx13new_allocatorI10KTCylinderE11_M_max_sizeEv = comdat any

$_ZSt25__uninitialized_default_nIP10KTCylindermET_S2_T0_ = comdat any

$_ZNSt27__uninitialized_default_n_1ILb0EE18__uninit_default_nIP10KTCylindermEET_S4_T0_ = comdat any

$_ZSt10_ConstructI10KTCylinderJEEvPT_DpOT0_ = comdat any

$_ZN10KTCylinderC2Ev = comdat any

$_ZNSt16allocator_traitsISaI10KTCylinderEE8allocateERS1_m = comdat any

$_ZN9__gnu_cxx13new_allocatorI10KTCylinderE8allocateEmPKv = comdat any

$_ZNSt6vectorI10KTCylinderSaIS0_EE14_S_do_relocateEPS0_S3_S3_RS1_St17integral_constantIbLb1EE = comdat any

$_ZSt12__relocate_aIP10KTCylinderS1_SaIS0_EET0_T_S4_S3_RT1_ = comdat any

$_ZSt14__relocate_a_1IP10KTCylinderS1_SaIS0_EET0_T_S4_S3_RT1_ = comdat any

$_ZSt12__niter_baseIP10KTCylinderET_S2_ = comdat any

$_ZSt19__relocate_object_aI10KTCylinderS0_SaIS0_EEvPT_PT0_RT1_ = comdat any

$_ZNSt16allocator_traitsISaI10KTCylinderEE9constructIS0_JS0_EEEvRS1_PT_DpOT0_ = comdat any

$_ZNSt16allocator_traitsISaI10KTCylinderEE7destroyIS0_EEvRS1_PT_ = comdat any

$_ZN9__gnu_cxx13new_allocatorI10KTCylinderE9constructIS1_JS1_EEEvPT_DpOT0_ = comdat any

$_ZN9__gnu_cxx13new_allocatorI10KTCylinderE7destroyIS1_EEvPT_ = comdat any

$_ZNSt16allocator_traitsISaI12BodyGeometryEE8allocateERS1_m = comdat any

$_ZN9__gnu_cxx13new_allocatorI12BodyGeometryE8allocateEmPKv = comdat any

$_ZSt22__uninitialized_copy_aIPK12BodyGeometryPS0_S0_ET0_T_S5_S4_RSaIT1_E = comdat any

$_ZSt32__make_move_if_noexcept_iteratorI12BodyGeometryPKS0_ET0_PT_ = comdat any

$_ZSt18uninitialized_copyIPK12BodyGeometryPS0_ET0_T_S5_S4_ = comdat any

$_ZNSt20__uninitialized_copyILb0EE13__uninit_copyIPK12BodyGeometryPS2_EET0_T_S7_S6_ = comdat any

$_ZSt10_ConstructI12BodyGeometryJRKS0_EEvPT_DpOT0_ = comdat any

$_ZN12BodyGeometryC2ERKS_ = comdat any

$_ZNSt6vectorI10KTCylinderSaIS0_EEC2ERKS2_ = comdat any

$_ZNSt6vectorI7Vector3IfESaIS1_EEC2ERKS3_ = comdat any

$_ZN9__gnu_cxx14__alloc_traitsISaI10KTCylinderES1_E17_S_select_on_copyERKS2_ = comdat any

$_ZNSt12_Vector_baseI10KTCylinderSaIS0_EEC2EmRKS1_ = comdat any

$_ZNSaI10KTCylinderED2Ev = comdat any

$_ZSt22__uninitialized_copy_aIN9__gnu_cxx17__normal_iteratorIPK10KTCylinderSt6vectorIS2_SaIS2_EEEEPS2_S2_ET0_T_SB_SA_RSaIT1_E = comdat any

$_ZNKSt6vectorI10KTCylinderSaIS0_EE5beginEv = comdat any

$_ZNKSt6vectorI10KTCylinderSaIS0_EE3endEv = comdat any

$_ZNSt16allocator_traitsISaI10KTCylinderEE37select_on_container_copy_constructionERKS1_ = comdat any

$_ZNSaI10KTCylinderEC2ERKS0_ = comdat any

$_ZN9__gnu_cxx13new_allocatorI10KTCylinderEC2ERKS2_ = comdat any

$_ZNSt12_Vector_baseI10KTCylinderSaIS0_EE12_Vector_implC2ERKS1_ = comdat any

$_ZNSt12_Vector_baseI10KTCylinderSaIS0_EE17_M_create_storageEm = comdat any

$_ZSt18uninitialized_copyIN9__gnu_cxx17__normal_iteratorIPK10KTCylinderSt6vectorIS2_SaIS2_EEEEPS2_ET0_T_SB_SA_ = comdat any

$_ZNSt20__uninitialized_copyILb0EE13__uninit_copyIN9__gnu_cxx17__normal_iteratorIPK10KTCylinderSt6vectorIS4_SaIS4_EEEEPS4_EET0_T_SD_SC_ = comdat any

$_ZN9__gnu_cxxneIPK10KTCylinderSt6vectorIS1_SaIS1_EEEEbRKNS_17__normal_iteratorIT_T0_EESC_ = comdat any

$_ZSt10_ConstructI10KTCylinderJRKS0_EEvPT_DpOT0_ = comdat any

$_ZNK9__gnu_cxx17__normal_iteratorIPK10KTCylinderSt6vectorIS1_SaIS1_EEEdeEv = comdat any

$_ZN9__gnu_cxx17__normal_iteratorIPK10KTCylinderSt6vectorIS1_SaIS1_EEEppEv = comdat any

$_ZNK9__gnu_cxx17__normal_iteratorIPK10KTCylinderSt6vectorIS1_SaIS1_EEE4baseEv = comdat any

$_ZN9__gnu_cxx17__normal_iteratorIPK10KTCylinderSt6vectorIS1_SaIS1_EEEC2ERKS3_ = comdat any

$_ZNKSt6vectorI7Vector3IfESaIS1_EE4sizeEv = comdat any

$_ZN9__gnu_cxx14__alloc_traitsISaI7Vector3IfEES2_E17_S_select_on_copyERKS3_ = comdat any

$_ZNKSt12_Vector_baseI7Vector3IfESaIS1_EE19_M_get_Tp_allocatorEv = comdat any

$_ZNSt12_Vector_baseI7Vector3IfESaIS1_EEC2EmRKS2_ = comdat any

$_ZNSaI7Vector3IfEED2Ev = comdat any

$_ZSt22__uninitialized_copy_aIN9__gnu_cxx17__normal_iteratorIPK7Vector3IfESt6vectorIS3_SaIS3_EEEEPS3_S3_ET0_T_SC_SB_RSaIT1_E = comdat any

$_ZNKSt6vectorI7Vector3IfESaIS1_EE5beginEv = comdat any

$_ZNKSt6vectorI7Vector3IfESaIS1_EE3endEv = comdat any

$_ZNSt16allocator_traitsISaI7Vector3IfEEE37select_on_container_copy_constructionERKS2_ = comdat any

$_ZNSaI7Vector3IfEEC2ERKS1_ = comdat any

$_ZN9__gnu_cxx13new_allocatorI7Vector3IfEEC2ERKS3_ = comdat any

$_ZNSt12_Vector_baseI7Vector3IfESaIS1_EE12_Vector_implC2ERKS2_ = comdat any

$_ZNSt12_Vector_baseI7Vector3IfESaIS1_EE17_M_create_storageEm = comdat any

$_ZNSt12_Vector_baseI7Vector3IfESaIS1_EE11_M_allocateEm = comdat any

$_ZNSt16allocator_traitsISaI7Vector3IfEEE8allocateERS2_m = comdat any

$_ZN9__gnu_cxx13new_allocatorI7Vector3IfEE8allocateEmPKv = comdat any

$_ZNK9__gnu_cxx13new_allocatorI7Vector3IfEE11_M_max_sizeEv = comdat any

$_ZSt18uninitialized_copyIN9__gnu_cxx17__normal_iteratorIPK7Vector3IfESt6vectorIS3_SaIS3_EEEEPS3_ET0_T_SC_SB_ = comdat any

$_ZNSt20__uninitialized_copyILb0EE13__uninit_copyIN9__gnu_cxx17__normal_iteratorIPK7Vector3IfESt6vectorIS5_SaIS5_EEEEPS5_EET0_T_SE_SD_ = comdat any

$_ZN9__gnu_cxxneIPK7Vector3IfESt6vectorIS2_SaIS2_EEEEbRKNS_17__normal_iteratorIT_T0_EESD_ = comdat any

$_ZSt10_ConstructI7Vector3IfEJRKS1_EEvPT_DpOT0_ = comdat any

$_ZNK9__gnu_cxx17__normal_iteratorIPK7Vector3IfESt6vectorIS2_SaIS2_EEEdeEv = comdat any

$_ZN9__gnu_cxx17__normal_iteratorIPK7Vector3IfESt6vectorIS2_SaIS2_EEEppEv = comdat any

$_ZNK9__gnu_cxx17__normal_iteratorIPK7Vector3IfESt6vectorIS2_SaIS2_EEE4baseEv = comdat any

$_ZN9__gnu_cxx17__normal_iteratorIPK7Vector3IfESt6vectorIS2_SaIS2_EEEC2ERKS4_ = comdat any

$_ZNKSt6vectorI24MultiCameraProjectedBodySaIS0_EE4sizeEv = comdat any

$_ZNSt6vectorI24MultiCameraProjectedBodySaIS0_EE17_M_default_appendEm = comdat any

$_ZNSt6vectorI24MultiCameraProjectedBodySaIS0_EE15_M_erase_at_endEPS0_ = comdat any

$_ZNKSt6vectorI24MultiCameraProjectedBodySaIS0_EE8max_sizeEv = comdat any

$_ZSt27__uninitialized_default_n_aIP24MultiCameraProjectedBodymS0_ET_S2_T0_RSaIT1_E = comdat any

$_ZNKSt6vectorI24MultiCameraProjectedBodySaIS0_EE12_M_check_lenEmPKc = comdat any

$_ZNSt12_Vector_baseI24MultiCameraProjectedBodySaIS0_EE11_M_allocateEm = comdat any

$_ZSt34__uninitialized_move_if_noexcept_aIP24MultiCameraProjectedBodyS1_SaIS0_EET0_T_S4_S3_RT1_ = comdat any

$_ZNSt6vectorI24MultiCameraProjectedBodySaIS0_EE11_S_max_sizeERKS1_ = comdat any

$_ZNKSt12_Vector_baseI24MultiCameraProjectedBodySaIS0_EE19_M_get_Tp_allocatorEv = comdat any

$_ZNSt16allocator_traitsISaI24MultiCameraProjectedBodyEE8max_sizeERKS1_ = comdat any

$_ZNK9__gnu_cxx13new_allocatorI24MultiCameraProjectedBodyE8max_sizeEv = comdat any

$_ZNK9__gnu_cxx13new_allocatorI24MultiCameraProjectedBodyE11_M_max_sizeEv = comdat any

$_ZSt25__uninitialized_default_nIP24MultiCameraProjectedBodymET_S2_T0_ = comdat any

$_ZNSt27__uninitialized_default_n_1ILb0EE18__uninit_default_nIP24MultiCameraProjectedBodymEET_S4_T0_ = comdat any

$_ZSt10_ConstructI24MultiCameraProjectedBodyJEEvPT_DpOT0_ = comdat any

$_ZN24MultiCameraProjectedBodyC2Ev = comdat any

$_ZNSt6vectorI13ProjectedBodySaIS0_EEC2Ev = comdat any

$_ZNSt12_Vector_baseI13ProjectedBodySaIS0_EEC2Ev = comdat any

$_ZNSt12_Vector_baseI13ProjectedBodySaIS0_EE12_Vector_implC2Ev = comdat any

$_ZNSaI13ProjectedBodyEC2Ev = comdat any

$_ZNSt12_Vector_baseI13ProjectedBodySaIS0_EE17_Vector_impl_dataC2Ev = comdat any

$_ZN9__gnu_cxx13new_allocatorI13ProjectedBodyEC2Ev = comdat any

$_ZNSt16allocator_traitsISaI24MultiCameraProjectedBodyEE8allocateERS1_m = comdat any

$_ZN9__gnu_cxx13new_allocatorI24MultiCameraProjectedBodyE8allocateEmPKv = comdat any

$_ZSt22__uninitialized_copy_aIPK24MultiCameraProjectedBodyPS0_S0_ET0_T_S5_S4_RSaIT1_E = comdat any

$_ZSt32__make_move_if_noexcept_iteratorI24MultiCameraProjectedBodyPKS0_ET0_PT_ = comdat any

$_ZSt18uninitialized_copyIPK24MultiCameraProjectedBodyPS0_ET0_T_S5_S4_ = comdat any

$_ZNSt20__uninitialized_copyILb0EE13__uninit_copyIPK24MultiCameraProjectedBodyPS2_EET0_T_S7_S6_ = comdat any

$_ZSt10_ConstructI24MultiCameraProjectedBodyJRKS0_EEvPT_DpOT0_ = comdat any

$_ZN24MultiCameraProjectedBodyC2ERKS_ = comdat any

$_ZNSt6vectorI13ProjectedBodySaIS0_EEC2ERKS2_ = comdat any

$_ZNKSt6vectorI13ProjectedBodySaIS0_EE4sizeEv = comdat any

$_ZN9__gnu_cxx14__alloc_traitsISaI13ProjectedBodyES1_E17_S_select_on_copyERKS2_ = comdat any

$_ZNKSt12_Vector_baseI13ProjectedBodySaIS0_EE19_M_get_Tp_allocatorEv = comdat any

$_ZNSt12_Vector_baseI13ProjectedBodySaIS0_EEC2EmRKS1_ = comdat any

$_ZNSaI13ProjectedBodyED2Ev = comdat any

$_ZSt22__uninitialized_copy_aIN9__gnu_cxx17__normal_iteratorIPK13ProjectedBodySt6vectorIS2_SaIS2_EEEEPS2_S2_ET0_T_SB_SA_RSaIT1_E = comdat any

$_ZNKSt6vectorI13ProjectedBodySaIS0_EE5beginEv = comdat any

$_ZNKSt6vectorI13ProjectedBodySaIS0_EE3endEv = comdat any

$_ZNSt16allocator_traitsISaI13ProjectedBodyEE37select_on_container_copy_constructionERKS1_ = comdat any

$_ZNSaI13ProjectedBodyEC2ERKS0_ = comdat any

$_ZN9__gnu_cxx13new_allocatorI13ProjectedBodyEC2ERKS2_ = comdat any

$_ZNSt12_Vector_baseI13ProjectedBodySaIS0_EE12_Vector_implC2ERKS1_ = comdat any

$_ZNSt12_Vector_baseI13ProjectedBodySaIS0_EE17_M_create_storageEm = comdat any

$_ZNSt12_Vector_baseI13ProjectedBodySaIS0_EE11_M_allocateEm = comdat any

$_ZNSt16allocator_traitsISaI13ProjectedBodyEE8allocateERS1_m = comdat any

$_ZN9__gnu_cxx13new_allocatorI13ProjectedBodyE8allocateEmPKv = comdat any

$_ZNK9__gnu_cxx13new_allocatorI13ProjectedBodyE11_M_max_sizeEv = comdat any

$_ZSt18uninitialized_copyIN9__gnu_cxx17__normal_iteratorIPK13ProjectedBodySt6vectorIS2_SaIS2_EEEEPS2_ET0_T_SB_SA_ = comdat any

$_ZNSt20__uninitialized_copyILb0EE13__uninit_copyIN9__gnu_cxx17__normal_iteratorIPK13ProjectedBodySt6vectorIS4_SaIS4_EEEEPS4_EET0_T_SD_SC_ = comdat any

$_ZN9__gnu_cxxneIPK13ProjectedBodySt6vectorIS1_SaIS1_EEEEbRKNS_17__normal_iteratorIT_T0_EESC_ = comdat any

$_ZSt10_ConstructI13ProjectedBodyJRKS0_EEvPT_DpOT0_ = comdat any

$_ZNK9__gnu_cxx17__normal_iteratorIPK13ProjectedBodySt6vectorIS1_SaIS1_EEEdeEv = comdat any

$_ZN9__gnu_cxx17__normal_iteratorIPK13ProjectedBodySt6vectorIS1_SaIS1_EEEppEv = comdat any

$_ZNK9__gnu_cxx17__normal_iteratorIPK13ProjectedBodySt6vectorIS1_SaIS1_EEE4baseEv = comdat any

$_ZN13ProjectedBodyC2ERKS_ = comdat any

$_ZNSt6vectorI17ProjectedCylinderSaIS0_EEC2ERKS2_ = comdat any

$_ZN9__gnu_cxx14__alloc_traitsISaI17ProjectedCylinderES1_E17_S_select_on_copyERKS2_ = comdat any

$_ZNKSt12_Vector_baseI17ProjectedCylinderSaIS0_EE19_M_get_Tp_allocatorEv = comdat any

$_ZNSt12_Vector_baseI17ProjectedCylinderSaIS0_EEC2EmRKS1_ = comdat any

$_ZNSaI17ProjectedCylinderED2Ev = comdat any

$_ZSt22__uninitialized_copy_aIN9__gnu_cxx17__normal_iteratorIPK17ProjectedCylinderSt6vectorIS2_SaIS2_EEEEPS2_S2_ET0_T_SB_SA_RSaIT1_E = comdat any

$_ZNKSt6vectorI17ProjectedCylinderSaIS0_EE5beginEv = comdat any

$_ZNKSt6vectorI17ProjectedCylinderSaIS0_EE3endEv = comdat any

$_ZNSt16allocator_traitsISaI17ProjectedCylinderEE37select_on_container_copy_constructionERKS1_ = comdat any

$_ZNSaI17ProjectedCylinderEC2ERKS0_ = comdat any

$_ZN9__gnu_cxx13new_allocatorI17ProjectedCylinderEC2ERKS2_ = comdat any

$_ZNSt12_Vector_baseI17ProjectedCylinderSaIS0_EE12_Vector_implC2ERKS1_ = comdat any

$_ZNSt12_Vector_baseI17ProjectedCylinderSaIS0_EE17_M_create_storageEm = comdat any

$_ZNSt12_Vector_baseI17ProjectedCylinderSaIS0_EE17_Vector_impl_dataC2Ev = comdat any

$_ZNSt12_Vector_baseI17ProjectedCylinderSaIS0_EE11_M_allocateEm = comdat any

$_ZNSt16allocator_traitsISaI17ProjectedCylinderEE8allocateERS1_m = comdat any

$_ZN9__gnu_cxx13new_allocatorI17ProjectedCylinderE8allocateEmPKv = comdat any

$_ZNK9__gnu_cxx13new_allocatorI17ProjectedCylinderE11_M_max_sizeEv = comdat any

$_ZSt18uninitialized_copyIN9__gnu_cxx17__normal_iteratorIPK17ProjectedCylinderSt6vectorIS2_SaIS2_EEEEPS2_ET0_T_SB_SA_ = comdat any

$_ZNSt20__uninitialized_copyILb0EE13__uninit_copyIN9__gnu_cxx17__normal_iteratorIPK17ProjectedCylinderSt6vectorIS4_SaIS4_EEEEPS4_EET0_T_SD_SC_ = comdat any

$_ZN9__gnu_cxxneIPK17ProjectedCylinderSt6vectorIS1_SaIS1_EEEEbRKNS_17__normal_iteratorIT_T0_EESC_ = comdat any

$_ZSt10_ConstructI17ProjectedCylinderJRKS0_EEvPT_DpOT0_ = comdat any

$_ZNK9__gnu_cxx17__normal_iteratorIPK17ProjectedCylinderSt6vectorIS1_SaIS1_EEEdeEv = comdat any

$_ZN9__gnu_cxx17__normal_iteratorIPK17ProjectedCylinderSt6vectorIS1_SaIS1_EEEppEv = comdat any

$_ZNK9__gnu_cxx17__normal_iteratorIPK17ProjectedCylinderSt6vectorIS1_SaIS1_EEE4baseEv = comdat any

$_ZN9__gnu_cxx17__normal_iteratorIPK17ProjectedCylinderSt6vectorIS1_SaIS1_EEEC2ERKS3_ = comdat any

$_ZN9__gnu_cxx17__normal_iteratorIPK13ProjectedBodySt6vectorIS1_SaIS1_EEEC2ERKS3_ = comdat any

$_ZNKSt6vectorI17ImageMeasurementsSaIS0_EE4sizeEv = comdat any

$_ZNSt6vectorI17ImageMeasurementsSaIS0_EE17_M_default_appendEm = comdat any

$_ZNSt6vectorI17ImageMeasurementsSaIS0_EE15_M_erase_at_endEPS0_ = comdat any

$_ZNKSt6vectorI17ImageMeasurementsSaIS0_EE8max_sizeEv = comdat any

$_ZSt27__uninitialized_default_n_aIP17ImageMeasurementsmS0_ET_S2_T0_RSaIT1_E = comdat any

$_ZNKSt6vectorI17ImageMeasurementsSaIS0_EE12_M_check_lenEmPKc = comdat any

$_ZNSt12_Vector_baseI17ImageMeasurementsSaIS0_EE11_M_allocateEm = comdat any

$_ZSt34__uninitialized_move_if_noexcept_aIP17ImageMeasurementsS1_SaIS0_EET0_T_S4_S3_RT1_ = comdat any

$_ZNSt6vectorI17ImageMeasurementsSaIS0_EE11_S_max_sizeERKS1_ = comdat any

$_ZNKSt12_Vector_baseI17ImageMeasurementsSaIS0_EE19_M_get_Tp_allocatorEv = comdat any

$_ZNSt16allocator_traitsISaI17ImageMeasurementsEE8max_sizeERKS1_ = comdat any

$_ZNK9__gnu_cxx13new_allocatorI17ImageMeasurementsE8max_sizeEv = comdat any

$_ZNK9__gnu_cxx13new_allocatorI17ImageMeasurementsE11_M_max_sizeEv = comdat any

$_ZSt25__uninitialized_default_nIP17ImageMeasurementsmET_S2_T0_ = comdat any

$_ZNSt27__uninitialized_default_n_1ILb0EE18__uninit_default_nIP17ImageMeasurementsmEET_S4_T0_ = comdat any

$_ZSt10_ConstructI17ImageMeasurementsJEEvPT_DpOT0_ = comdat any

$_ZN17ImageMeasurementsC2Ev = comdat any

$_ZNSt6vectorI5PointSaIS0_EEC2Ev = comdat any

$_ZN17ImageMeasurements22SetSamplingResolutionsEfff = comdat any

$_ZNSt12_Vector_baseI5PointSaIS0_EEC2Ev = comdat any

$_ZNSt12_Vector_baseI5PointSaIS0_EE12_Vector_implC2Ev = comdat any

$_ZNSaI5PointEC2Ev = comdat any

$_ZNSt12_Vector_baseI5PointSaIS0_EE17_Vector_impl_dataC2Ev = comdat any

$_ZN9__gnu_cxx13new_allocatorI5PointEC2Ev = comdat any

$_ZNSt16allocator_traitsISaI17ImageMeasurementsEE8allocateERS1_m = comdat any

$_ZN9__gnu_cxx13new_allocatorI17ImageMeasurementsE8allocateEmPKv = comdat any

$_ZSt22__uninitialized_copy_aIPK17ImageMeasurementsPS0_S0_ET0_T_S5_S4_RSaIT1_E = comdat any

$_ZSt32__make_move_if_noexcept_iteratorI17ImageMeasurementsPKS0_ET0_PT_ = comdat any

$_ZSt18uninitialized_copyIPK17ImageMeasurementsPS0_ET0_T_S5_S4_ = comdat any

$_ZNSt20__uninitialized_copyILb0EE13__uninit_copyIPK17ImageMeasurementsPS2_EET0_T_S7_S6_ = comdat any

$_ZSt10_ConstructI17ImageMeasurementsJRKS0_EEvPT_DpOT0_ = comdat any

$_ZN17ImageMeasurementsC2ERKS_ = comdat any

$_ZNSt6vectorI5PointSaIS0_EEC2ERKS2_ = comdat any

$_ZNKSt6vectorI5PointSaIS0_EE4sizeEv = comdat any

$_ZN9__gnu_cxx14__alloc_traitsISaI5PointES1_E17_S_select_on_copyERKS2_ = comdat any

$_ZNKSt12_Vector_baseI5PointSaIS0_EE19_M_get_Tp_allocatorEv = comdat any

$_ZNSt12_Vector_baseI5PointSaIS0_EEC2EmRKS1_ = comdat any

$_ZNSaI5PointED2Ev = comdat any

$_ZSt22__uninitialized_copy_aIN9__gnu_cxx17__normal_iteratorIPK5PointSt6vectorIS2_SaIS2_EEEEPS2_S2_ET0_T_SB_SA_RSaIT1_E = comdat any

$_ZNKSt6vectorI5PointSaIS0_EE5beginEv = comdat any

$_ZNKSt6vectorI5PointSaIS0_EE3endEv = comdat any

$_ZNSt16allocator_traitsISaI5PointEE37select_on_container_copy_constructionERKS1_ = comdat any

$_ZNSaI5PointEC2ERKS0_ = comdat any

$_ZN9__gnu_cxx13new_allocatorI5PointEC2ERKS2_ = comdat any

$_ZNSt12_Vector_baseI5PointSaIS0_EE12_Vector_implC2ERKS1_ = comdat any

$_ZNSt12_Vector_baseI5PointSaIS0_EE17_M_create_storageEm = comdat any

$_ZNSt12_Vector_baseI5PointSaIS0_EE11_M_allocateEm = comdat any

$_ZNSt16allocator_traitsISaI5PointEE8allocateERS1_m = comdat any

$_ZN9__gnu_cxx13new_allocatorI5PointE8allocateEmPKv = comdat any

$_ZNK9__gnu_cxx13new_allocatorI5PointE11_M_max_sizeEv = comdat any

$_ZSt18uninitialized_copyIN9__gnu_cxx17__normal_iteratorIPK5PointSt6vectorIS2_SaIS2_EEEEPS2_ET0_T_SB_SA_ = comdat any

$_ZNSt20__uninitialized_copyILb0EE13__uninit_copyIN9__gnu_cxx17__normal_iteratorIPK5PointSt6vectorIS4_SaIS4_EEEEPS4_EET0_T_SD_SC_ = comdat any

$_ZN9__gnu_cxxneIPK5PointSt6vectorIS1_SaIS1_EEEEbRKNS_17__normal_iteratorIT_T0_EESC_ = comdat any

$_ZSt10_ConstructI5PointJRKS0_EEvPT_DpOT0_ = comdat any

$_ZNK9__gnu_cxx17__normal_iteratorIPK5PointSt6vectorIS1_SaIS1_EEEdeEv = comdat any

$_ZN9__gnu_cxx17__normal_iteratorIPK5PointSt6vectorIS1_SaIS1_EEEppEv = comdat any

$_ZNK9__gnu_cxx17__normal_iteratorIPK5PointSt6vectorIS1_SaIS1_EEE4baseEv = comdat any

$_ZN9__gnu_cxx17__normal_iteratorIPK5PointSt6vectorIS1_SaIS1_EEEC2ERKS3_ = comdat any

$_ZNKSt6vectorI11BinaryImageSaIS0_EE4sizeEv = comdat any

$_ZNSt6vectorI11BinaryImageSaIS0_EE17_M_default_appendEm = comdat any

$_ZNSt6vectorI11BinaryImageSaIS0_EE15_M_erase_at_endEPS0_ = comdat any

$_ZNKSt6vectorI11BinaryImageSaIS0_EE8max_sizeEv = comdat any

$_ZSt27__uninitialized_default_n_aIP11BinaryImagemS0_ET_S2_T0_RSaIT1_E = comdat any

$_ZNKSt6vectorI11BinaryImageSaIS0_EE12_M_check_lenEmPKc = comdat any

$_ZNSt12_Vector_baseI11BinaryImageSaIS0_EE11_M_allocateEm = comdat any

$_ZSt34__uninitialized_move_if_noexcept_aIP11BinaryImageS1_SaIS0_EET0_T_S4_S3_RT1_ = comdat any

$_ZNSt6vectorI11BinaryImageSaIS0_EE11_S_max_sizeERKS1_ = comdat any

$_ZNKSt12_Vector_baseI11BinaryImageSaIS0_EE19_M_get_Tp_allocatorEv = comdat any

$_ZNSt16allocator_traitsISaI11BinaryImageEE8max_sizeERKS1_ = comdat any

$_ZNK9__gnu_cxx13new_allocatorI11BinaryImageE8max_sizeEv = comdat any

$_ZNK9__gnu_cxx13new_allocatorI11BinaryImageE11_M_max_sizeEv = comdat any

$_ZSt25__uninitialized_default_nIP11BinaryImagemET_S2_T0_ = comdat any

$_ZNSt27__uninitialized_default_n_1ILb0EE18__uninit_default_nIP11BinaryImagemEET_S4_T0_ = comdat any

$_ZSt10_ConstructI11BinaryImageJEEvPT_DpOT0_ = comdat any

$_ZN11BinaryImageC2Ev = comdat any

$_ZNSt16allocator_traitsISaI11BinaryImageEE8allocateERS1_m = comdat any

$_ZN9__gnu_cxx13new_allocatorI11BinaryImageE8allocateEmPKv = comdat any

$_ZSt22__uninitialized_copy_aIPK11BinaryImagePS0_S0_ET0_T_S5_S4_RSaIT1_E = comdat any

$_ZSt32__make_move_if_noexcept_iteratorI11BinaryImagePKS0_ET0_PT_ = comdat any

$_ZSt18uninitialized_copyIPK11BinaryImagePS0_ET0_T_S5_S4_ = comdat any

$_ZNSt20__uninitialized_copyILb0EE13__uninit_copyIPK11BinaryImagePS2_EET0_T_S7_S6_ = comdat any

$_ZSt10_ConstructI11BinaryImageJRKS0_EEvPT_DpOT0_ = comdat any

$_ZN11BinaryImageC2ERKS_ = comdat any

$_ZN11BinaryImageaSERKS_ = comdat any

$_ZNK11BinaryImage5WidthEv = comdat any

$_ZNK11BinaryImage6HeightEv = comdat any

$_ZNK11BinaryImage10ImageStoreEv = comdat any

$_ZN14FlexImageStoreIhLi1EE13IncReferencesEv = comdat any

$_ZNKSt6vectorI9FlexImageIhLi1EESaIS1_EE4sizeEv = comdat any

$_ZNSt6vectorI9FlexImageIhLi1EESaIS1_EE17_M_default_appendEm = comdat any

$_ZNSt6vectorI9FlexImageIhLi1EESaIS1_EE15_M_erase_at_endEPS1_ = comdat any

$_ZNKSt6vectorI9FlexImageIhLi1EESaIS1_EE8max_sizeEv = comdat any

$_ZSt27__uninitialized_default_n_aIP9FlexImageIhLi1EEmS1_ET_S3_T0_RSaIT1_E = comdat any

$_ZNKSt6vectorI9FlexImageIhLi1EESaIS1_EE12_M_check_lenEmPKc = comdat any

$_ZNSt12_Vector_baseI9FlexImageIhLi1EESaIS1_EE11_M_allocateEm = comdat any

$_ZSt34__uninitialized_move_if_noexcept_aIP9FlexImageIhLi1EES2_SaIS1_EET0_T_S5_S4_RT1_ = comdat any

$_ZNSt6vectorI9FlexImageIhLi1EESaIS1_EE11_S_max_sizeERKS2_ = comdat any

$_ZNKSt12_Vector_baseI9FlexImageIhLi1EESaIS1_EE19_M_get_Tp_allocatorEv = comdat any

$_ZNSt16allocator_traitsISaI9FlexImageIhLi1EEEE8max_sizeERKS2_ = comdat any

$_ZNK9__gnu_cxx13new_allocatorI9FlexImageIhLi1EEE8max_sizeEv = comdat any

$_ZNK9__gnu_cxx13new_allocatorI9FlexImageIhLi1EEE11_M_max_sizeEv = comdat any

$_ZSt25__uninitialized_default_nIP9FlexImageIhLi1EEmET_S3_T0_ = comdat any

$_ZNSt27__uninitialized_default_n_1ILb0EE18__uninit_default_nIP9FlexImageIhLi1EEmEET_S5_T0_ = comdat any

$_ZSt10_ConstructI9FlexImageIhLi1EEJEEvPT_DpOT0_ = comdat any

$_ZNSt16allocator_traitsISaI9FlexImageIhLi1EEEE8allocateERS2_m = comdat any

$_ZN9__gnu_cxx13new_allocatorI9FlexImageIhLi1EEE8allocateEmPKv = comdat any

$_ZSt22__uninitialized_copy_aIPK9FlexImageIhLi1EEPS1_S1_ET0_T_S6_S5_RSaIT1_E = comdat any

$_ZSt32__make_move_if_noexcept_iteratorI9FlexImageIhLi1EEPKS1_ET0_PT_ = comdat any

$_ZSt18uninitialized_copyIPK9FlexImageIhLi1EEPS1_ET0_T_S6_S5_ = comdat any

$_ZNSt20__uninitialized_copyILb0EE13__uninit_copyIPK9FlexImageIhLi1EEPS3_EET0_T_S8_S7_ = comdat any

$_ZSt10_ConstructI9FlexImageIhLi1EEJRKS1_EEvPT_DpOT0_ = comdat any

$_ZN9__gnu_cxx13new_allocatorINSt7__cxx1112basic_stringIcSt11char_traitsIcESaIcEEEEC2Ev = comdat any

$_ZN9__gnu_cxx13new_allocatorINSt7__cxx1112basic_stringIcSt11char_traitsIcESaIcEEEED2Ev = comdat any

$_ZNSt6vectorINSt7__cxx1112basic_stringIcSt11char_traitsIcESaIcEEESaIS5_EE17_S_check_init_lenEmRKS6_ = comdat any

$_ZNSt12_Vector_baseINSt7__cxx1112basic_stringIcSt11char_traitsIcESaIcEEESaIS5_EEC2EmRKS6_ = comdat any

$_ZNSt6vectorINSt7__cxx1112basic_stringIcSt11char_traitsIcESaIcEEESaIS5_EE21_M_default_initializeEm = comdat any

$_ZNSt12_Vector_baseINSt7__cxx1112basic_stringIcSt11char_traitsIcESaIcEEESaIS5_EED2Ev = comdat any

$_ZNSt6vectorINSt7__cxx1112basic_stringIcSt11char_traitsIcESaIcEEESaIS5_EE11_S_max_sizeERKS6_ = comdat any

$_ZNSaINSt7__cxx1112basic_stringIcSt11char_traitsIcESaIcEEEEC2ERKS5_ = comdat any

$_ZNSt16allocator_traitsISaINSt7__cxx1112basic_stringIcSt11char_traitsIcESaIcEEEEE8max_sizeERKS6_ = comdat any

$_ZNK9__gnu_cxx13new_allocatorINSt7__cxx1112basic_stringIcSt11char_traitsIcESaIcEEEE8max_sizeEv = comdat any

$_ZNK9__gnu_cxx13new_allocatorINSt7__cxx1112basic_stringIcSt11char_traitsIcESaIcEEEE11_M_max_sizeEv = comdat any

$_ZN9__gnu_cxx13new_allocatorINSt7__cxx1112basic_stringIcSt11char_traitsIcESaIcEEEEC2ERKS7_ = comdat any

$_ZNSt12_Vector_baseINSt7__cxx1112basic_stringIcSt11char_traitsIcESaIcEEESaIS5_EE12_Vector_implC2ERKS6_ = comdat any

$_ZNSt12_Vector_baseINSt7__cxx1112basic_stringIcSt11char_traitsIcESaIcEEESaIS5_EE17_M_create_storageEm = comdat any

$_ZNSt12_Vector_baseINSt7__cxx1112basic_stringIcSt11char_traitsIcESaIcEEESaIS5_EE12_Vector_implD2Ev = comdat any

$_ZNSt12_Vector_baseINSt7__cxx1112basic_stringIcSt11char_traitsIcESaIcEEESaIS5_EE17_Vector_impl_dataC2Ev = comdat any

$_ZNSt12_Vector_baseINSt7__cxx1112basic_stringIcSt11char_traitsIcESaIcEEESaIS5_EE11_M_allocateEm = comdat any

$_ZNSt16allocator_traitsISaINSt7__cxx1112basic_stringIcSt11char_traitsIcESaIcEEEEE8allocateERS6_m = comdat any

$_ZN9__gnu_cxx13new_allocatorINSt7__cxx1112basic_stringIcSt11char_traitsIcESaIcEEEE8allocateEmPKv = comdat any

$_ZSt27__uninitialized_default_n_aIPNSt7__cxx1112basic_stringIcSt11char_traitsIcESaIcEEEmS5_ET_S7_T0_RSaIT1_E = comdat any

$_ZNSt12_Vector_baseINSt7__cxx1112basic_stringIcSt11char_traitsIcESaIcEEESaIS5_EE19_M_get_Tp_allocatorEv = comdat any

$_ZSt25__uninitialized_default_nIPNSt7__cxx1112basic_stringIcSt11char_traitsIcESaIcEEEmET_S7_T0_ = comdat any

$_ZNSt27__uninitialized_default_n_1ILb0EE18__uninit_default_nIPNSt7__cxx1112basic_stringIcSt11char_traitsIcESaIcEEEmEET_S9_T0_ = comdat any

$_ZSt10_ConstructINSt7__cxx1112basic_stringIcSt11char_traitsIcESaIcEEEJEEvPT_DpOT0_ = comdat any

$_ZSt8_DestroyIPNSt7__cxx1112basic_stringIcSt11char_traitsIcESaIcEEEEvT_S7_ = comdat any

$_ZNSt12_Destroy_auxILb0EE9__destroyIPNSt7__cxx1112basic_stringIcSt11char_traitsIcESaIcEEEEEvT_S9_ = comdat any

$_ZSt8_DestroyINSt7__cxx1112basic_stringIcSt11char_traitsIcESaIcEEEEvPT_ = comdat any

$_ZNSt12_Vector_baseINSt7__cxx1112basic_stringIcSt11char_traitsIcESaIcEEESaIS5_EE13_M_deallocateEPS5_m = comdat any

$_ZNSt16allocator_traitsISaINSt7__cxx1112basic_stringIcSt11char_traitsIcESaIcEEEEE10deallocateERS6_PS5_m = comdat any

$_ZN9__gnu_cxx13new_allocatorINSt7__cxx1112basic_stringIcSt11char_traitsIcESaIcEEEE10deallocateEPS6_m = comdat any

$_ZSt8_DestroyIPNSt7__cxx1112basic_stringIcSt11char_traitsIcESaIcEEES5_EvT_S7_RSaIT0_E = comdat any

$_ZSt4setwi = comdat any

$_ZSt7setfillIcESt8_SetfillIT_ES1_ = comdat any

$_ZN9FlexImageIhLi1EE11ConvertFromIhEEiRKS_IT_Li1EEb = comdat any

$_Z11FlexConvertIhhLi1EEiRK9FlexImageIT_XT1_EERS0_IT0_XT1_EEb = comdat any

$_ZNK9FlexImageIhLi1EE4DataEv = comdat any

$_ZN9FlexImageIhLi1EE4DataEv = comdat any

$_Z15GaussianBlur3x3IhEvR9FlexImageIT_Li1EES3_ = comdat any

$_Z12FlexCopyC1CMIhLi3EEiR9FlexImageIT_Li1EERS0_IS1_XT0_EEi = comdat any

$_ZNK9FlexImageIhLi3EE5WidthEv = comdat any

$_ZNK9FlexImageIhLi3EE6HeightEv = comdat any

$_ZN9FlexImageIhLi3EE4DataEv = comdat any

$_ZNK9FlexImageIhLi3EE9StepBytesEv = comdat any

$_ZN9FlexImageIhLi3EE11ConvertFromIhEEiRKS_IT_Li3EEb = comdat any

$_Z13FlexSaveBMP8uILi3EEbPKcR9FlexImageIhXT_EE = comdat any

$_Z11FlexConvertIhhLi3EEiRK9FlexImageIT_XT1_EERS0_IT0_XT1_EEb = comdat any

$_ZNK9FlexImageIhLi3EE4SizeEv = comdat any

$_ZNK9FlexImageIhLi3EE4DataEv = comdat any

$_ZN9FlexImageIhLi3EEclEii = comdat any

$_ZN9FlexImageIhLi3EEclEiii = comdat any

@_ZStL8__ioinit = internal global %"class.std::ios_base::Init" zeroinitializer, align 1, !dbg !0
@__dso_handle = external hidden global i8
@_ZTV13TrackingModel = dso_local unnamed_addr constant { [6 x ptr] } { [6 x ptr] [ptr null, ptr @_ZTI13TrackingModel, ptr @_ZN13TrackingModel13CreateEdgeMapERK9FlexImageIhLi1EERS1_, ptr @_ZN13TrackingModelD2Ev, ptr @_ZN13TrackingModelD0Ev, ptr @_ZN13TrackingModel14GetObservationEf] }, align 8
@.str = private unnamed_addr constant [6 x i8] c"CALIB\00", align 1, !dbg !7
@.str.1 = private unnamed_addr constant [2 x i8] c"/\00", align 1, !dbg !15
@.str.2 = private unnamed_addr constant [7 x i8] c"Camera\00", align 1, !dbg !20
@.str.3 = private unnamed_addr constant [5 x i8] c".cal\00", align 1, !dbg !25
@.str.4 = private unnamed_addr constant [24 x i8] c"BodyShapeParameters.txt\00", align 1, !dbg !30
@.str.5 = private unnamed_addr constant [16 x i8] c"InitialPose.txt\00", align 1, !dbg !35
@.str.6 = private unnamed_addr constant [19 x i8] c"PoseParameters.txt\00", align 1, !dbg !40
@.str.7 = private unnamed_addr constant [3 x i8] c"FG\00", align 1, !dbg !45
@.str.8 = private unnamed_addr constant [6 x i8] c"image\00", align 1, !dbg !50
@.str.9 = private unnamed_addr constant [5 x i8] c".bmp\00", align 1, !dbg !52
@.str.10 = private unnamed_addr constant [4 x i8] c"CAM\00", align 1, !dbg !54
@_ZSt4cout = external global %"class.std::basic_ostream", align 8
@.str.11 = private unnamed_addr constant [23 x i8] c"Unable to load image: \00", align 1, !dbg !59
@__const._ZN13TrackingModel9OutputBMPERKSt6vectorIfSaIfEEi.yellow = private unnamed_addr constant [3 x i8] c"\00\FF\FF", align 1
@__const._ZN13TrackingModel9OutputBMPERKSt6vectorIfSaIfEEi.cyan = private unnamed_addr constant [3 x i8] c"\FF\FF\00", align 1
@__const._ZN13TrackingModel9OutputBMPERKSt6vectorIfSaIfEEi.magenta = private unnamed_addr constant [3 x i8] c"\FF\00\FF", align 1
@.str.12 = private unnamed_addr constant [7 x i8] c"Result\00", align 1, !dbg !64
@_ZTVN10__cxxabiv117__class_type_infoE = external global ptr
@_ZTS13TrackingModel = dso_local constant [16 x i8] c"13TrackingModel\00", align 1
@_ZTI13TrackingModel = dso_local constant { ptr, ptr } { ptr getelementptr inbounds (ptr, ptr @_ZTVN10__cxxabiv117__class_type_infoE, i64 2), ptr @_ZTS13TrackingModel }, align 8
@.str.13 = private unnamed_addr constant [26 x i8] c"vector::_M_default_append\00", align 1, !dbg !66
@__const._Z12GaussianBlurR9FlexImageIhLi1EES1_.k = private unnamed_addr constant [7 x float] [float 0x3FBF1A0640000000, float 0x3FC22E4660000000, float 0x3FC3F7B880000000, float 0x3FC499FC00000000, float 0x3FC3F7B880000000, float 0x3FC22E4660000000, float 0x3FBF1A0640000000], align 16
@.str.14 = private unnamed_addr constant [33 x i8] c"Unable to allocate binary image.\00", align 1, !dbg !72
@.str.15 = private unnamed_addr constant [49 x i8] c"cannot create std::vector larger than max_size()\00", align 1, !dbg !78
@__const._Z15GaussianBlur3x3IhEvR9FlexImageIT_Li1EES3_.k = private unnamed_addr constant [3 x float] [float 2.500000e-01, float 5.000000e-01, float 2.500000e-01], align 4
@.str.16 = private unnamed_addr constant [3 x i8] c"wb\00", align 1, !dbg !84
@llvm.global_ctors = appending global [1 x { i32, ptr, ptr }] [{ i32, ptr, ptr } { i32 65535, ptr @_GLOBAL__sub_I_TrackingModel.cpp, ptr null }]

@_ZN13TrackingModelC1Ev = dso_local unnamed_addr alias void (ptr), ptr @_ZN13TrackingModelC2Ev

; Function Attrs: noinline uwtable
define internal void @__cxx_global_var_init() #0 section ".text.startup" !dbg !8796 {
  call void @_ZNSt8ios_base4InitC1Ev(ptr noundef nonnull align 1 dereferenceable(1) @_ZStL8__ioinit), !dbg !8797
  %1 = call i32 @__cxa_atexit(ptr @_ZNSt8ios_base4InitD1Ev, ptr @_ZStL8__ioinit, ptr @__dso_handle) #3, !dbg !8799
  ret void, !dbg !8797
}

declare void @_ZNSt8ios_base4InitC1Ev(ptr noundef nonnull align 1 dereferenceable(1)) unnamed_addr #1

; Function Attrs: nounwind
declare void @_ZNSt8ios_base4InitD1Ev(ptr noundef nonnull align 1 dereferenceable(1)) unnamed_addr #2

; Function Attrs: nounwind
declare i32 @__cxa_atexit(ptr, ptr, ptr) #3

; Function Attrs: noinline optnone uwtable
define dso_local void @_ZN13TrackingModelC2Ev(ptr noundef nonnull align 8 dereferenceable(240) %0) unnamed_addr #4 align 2 personality ptr @__gxx_personality_v0 !dbg !8800 {
  %2 = alloca ptr, align 8
  %3 = alloca ptr, align 8
  %4 = alloca i32, align 4
  store ptr %0, ptr %2, align 8
  call void @llvm.dbg.declare(metadata ptr %2, metadata !8856, metadata !DIExpression()), !dbg !8858
  %5 = load ptr, ptr %2, align 8
  store ptr getelementptr inbounds ({ [6 x ptr] }, ptr @_ZTV13TrackingModel, i32 0, inrange i32 0, i32 2), ptr %5, align 8, !dbg !8859
  %6 = getelementptr inbounds %class.TrackingModel, ptr %5, i32 0, i32 1, !dbg !8860
  call void @_ZNSt6vectorI11BinaryImageSaIS0_EEC2Ev(ptr noundef nonnull align 8 dereferenceable(24) %6) #3, !dbg !8860
  %7 = getelementptr inbounds %class.TrackingModel, ptr %5, i32 0, i32 2, !dbg !8860
  call void @_ZNSt6vectorI9FlexImageIhLi1EESaIS1_EEC2Ev(ptr noundef nonnull align 8 dereferenceable(24) %7) #3, !dbg !8860
  %8 = getelementptr inbounds %class.TrackingModel, ptr %5, i32 0, i32 3, !dbg !8860
  call void @_ZNSt6vectorIS_IfSaIfEESaIS1_EEC2Ev(ptr noundef nonnull align 8 dereferenceable(24) %8) #3, !dbg !8860
  %9 = getelementptr inbounds %class.TrackingModel, ptr %5, i32 0, i32 4, !dbg !8860
  call void @_ZNSt6vectorI8BodyPoseSaIS0_EEC2Ev(ptr noundef nonnull align 8 dereferenceable(24) %9) #3, !dbg !8860
  %10 = getelementptr inbounds %class.TrackingModel, ptr %5, i32 0, i32 5, !dbg !8860
  call void @_ZNSt6vectorI12BodyGeometrySaIS0_EEC2Ev(ptr noundef nonnull align 8 dereferenceable(24) %10) #3, !dbg !8860
  %11 = getelementptr inbounds %class.TrackingModel, ptr %5, i32 0, i32 6, !dbg !8860
  invoke void @_ZN11MultiCameraC2Ev(ptr noundef nonnull align 8 dereferenceable(24) %11)
          to label %12 unwind label %24, !dbg !8860

12:                                               ; preds = %1
  %13 = getelementptr inbounds %class.TrackingModel, ptr %5, i32 0, i32 7, !dbg !8860
  call void @_ZNSt6vectorI24MultiCameraProjectedBodySaIS0_EEC2Ev(ptr noundef nonnull align 8 dereferenceable(24) %13) #3, !dbg !8860
  %14 = getelementptr inbounds %class.TrackingModel, ptr %5, i32 0, i32 8, !dbg !8860
  call void @_ZNSt6vectorI17ImageMeasurementsSaIS0_EEC2Ev(ptr noundef nonnull align 8 dereferenceable(24) %14) #3, !dbg !8860
  %15 = getelementptr inbounds %class.TrackingModel, ptr %5, i32 0, i32 10, !dbg !8860
  call void @_ZNSt7__cxx1112basic_stringIcSt11char_traitsIcESaIcEEC1Ev(ptr noundef nonnull align 8 dereferenceable(32) %15) #3, !dbg !8860
  %16 = getelementptr inbounds %class.TrackingModel, ptr %5, i32 0, i32 4, !dbg !8861
  invoke void @_ZNSt6vectorI8BodyPoseSaIS0_EE6resizeEm(ptr noundef nonnull align 8 dereferenceable(24) %16, i64 noundef 1)
          to label %17 unwind label %28, !dbg !8863

17:                                               ; preds = %12
  %18 = getelementptr inbounds %class.TrackingModel, ptr %5, i32 0, i32 5, !dbg !8864
  invoke void @_ZNSt6vectorI12BodyGeometrySaIS0_EE6resizeEm(ptr noundef nonnull align 8 dereferenceable(24) %18, i64 noundef 1)
          to label %19 unwind label %28, !dbg !8865

19:                                               ; preds = %17
  %20 = getelementptr inbounds %class.TrackingModel, ptr %5, i32 0, i32 7, !dbg !8866
  invoke void @_ZNSt6vectorI24MultiCameraProjectedBodySaIS0_EE6resizeEm(ptr noundef nonnull align 8 dereferenceable(24) %20, i64 noundef 1)
          to label %21 unwind label %28, !dbg !8867

21:                                               ; preds = %19
  %22 = getelementptr inbounds %class.TrackingModel, ptr %5, i32 0, i32 8, !dbg !8868
  invoke void @_ZNSt6vectorI17ImageMeasurementsSaIS0_EE6resizeEm(ptr noundef nonnull align 8 dereferenceable(24) %22, i64 noundef 1)
          to label %23 unwind label %28, !dbg !8869

23:                                               ; preds = %21
  ret void, !dbg !8870

24:                                               ; preds = %1
  %25 = landingpad { ptr, i32 }
          cleanup, !dbg !8870
  %26 = extractvalue { ptr, i32 } %25, 0, !dbg !8870
  store ptr %26, ptr %3, align 8, !dbg !8870
  %27 = extractvalue { ptr, i32 } %25, 1, !dbg !8870
  store i32 %27, ptr %4, align 4, !dbg !8870
  br label %32, !dbg !8870

28:                                               ; preds = %21, %19, %17, %12
  %29 = landingpad { ptr, i32 }
          cleanup, !dbg !8871
  %30 = extractvalue { ptr, i32 } %29, 0, !dbg !8871
  store ptr %30, ptr %3, align 8, !dbg !8871
  %31 = extractvalue { ptr, i32 } %29, 1, !dbg !8871
  store i32 %31, ptr %4, align 4, !dbg !8871
  call void @_ZNSt7__cxx1112basic_stringIcSt11char_traitsIcESaIcEED1Ev(ptr noundef nonnull align 8 dereferenceable(32) %15) #3, !dbg !8871
  call void @_ZNSt6vectorI17ImageMeasurementsSaIS0_EED2Ev(ptr noundef nonnull align 8 dereferenceable(24) %14) #3, !dbg !8871
  call void @_ZNSt6vectorI24MultiCameraProjectedBodySaIS0_EED2Ev(ptr noundef nonnull align 8 dereferenceable(24) %13) #3, !dbg !8871
  call void @_ZN11MultiCameraD2Ev(ptr noundef nonnull align 8 dereferenceable(24) %11) #3, !dbg !8871
  br label %32, !dbg !8871

32:                                               ; preds = %28, %24
  call void @_ZNSt6vectorI12BodyGeometrySaIS0_EED2Ev(ptr noundef nonnull align 8 dereferenceable(24) %10) #3, !dbg !8871
  call void @_ZNSt6vectorI8BodyPoseSaIS0_EED2Ev(ptr noundef nonnull align 8 dereferenceable(24) %9) #3, !dbg !8871
  call void @_ZNSt6vectorIS_IfSaIfEESaIS1_EED2Ev(ptr noundef nonnull align 8 dereferenceable(24) %8) #3, !dbg !8871
  call void @_ZNSt6vectorI9FlexImageIhLi1EESaIS1_EED2Ev(ptr noundef nonnull align 8 dereferenceable(24) %7) #3, !dbg !8871
  call void @_ZNSt6vectorI11BinaryImageSaIS0_EED2Ev(ptr noundef nonnull align 8 dereferenceable(24) %6) #3, !dbg !8871
  br label %33, !dbg !8871

33:                                               ; preds = %32
  %34 = load ptr, ptr %3, align 8, !dbg !8871
  %35 = load i32, ptr %4, align 4, !dbg !8871
  %36 = insertvalue { ptr, i32 } poison, ptr %34, 0, !dbg !8871
  %37 = insertvalue { ptr, i32 } %36, i32 %35, 1, !dbg !8871
  resume { ptr, i32 } %37, !dbg !8871
}

; Function Attrs: nocallback nofree nosync nounwind speculatable willreturn memory(none)
declare void @llvm.dbg.declare(metadata, metadata, metadata) #5

; Function Attrs: noinline nounwind optnone uwtable
define linkonce_odr dso_local void @_ZNSt6vectorI11BinaryImageSaIS0_EEC2Ev(ptr noundef nonnull align 8 dereferenceable(24) %0) unnamed_addr #6 comdat align 2 !dbg !8872 {
  %2 = alloca ptr, align 8
  store ptr %0, ptr %2, align 8
  call void @llvm.dbg.declare(metadata ptr %2, metadata !8873, metadata !DIExpression()), !dbg !8875
  %3 = load ptr, ptr %2, align 8
  call void @_ZNSt12_Vector_baseI11BinaryImageSaIS0_EEC2Ev(ptr noundef nonnull align 8 dereferenceable(24) %3) #3, !dbg !8876
  ret void, !dbg !8877
}

; Function Attrs: noinline nounwind optnone uwtable
define linkonce_odr dso_local void @_ZNSt6vectorI9FlexImageIhLi1EESaIS1_EEC2Ev(ptr noundef nonnull align 8 dereferenceable(24) %0) unnamed_addr #6 comdat align 2 !dbg !8878 {
  %2 = alloca ptr, align 8
  store ptr %0, ptr %2, align 8
  call void @llvm.dbg.declare(metadata ptr %2, metadata !8879, metadata !DIExpression()), !dbg !8881
  %3 = load ptr, ptr %2, align 8
  call void @_ZNSt12_Vector_baseI9FlexImageIhLi1EESaIS1_EEC2Ev(ptr noundef nonnull align 8 dereferenceable(24) %3) #3, !dbg !8882
  ret void, !dbg !8883
}

; Function Attrs: noinline nounwind optnone uwtable
define linkonce_odr dso_local void @_ZNSt6vectorIS_IfSaIfEESaIS1_EEC2Ev(ptr noundef nonnull align 8 dereferenceable(24) %0) unnamed_addr #6 comdat align 2 !dbg !8884 {
  %2 = alloca ptr, align 8
  store ptr %0, ptr %2, align 8
  call void @llvm.dbg.declare(metadata ptr %2, metadata !8885, metadata !DIExpression()), !dbg !8887
  %3 = load ptr, ptr %2, align 8
  call void @_ZNSt12_Vector_baseISt6vectorIfSaIfEESaIS2_EEC2Ev(ptr noundef nonnull align 8 dereferenceable(24) %3) #3, !dbg !8888
  ret void, !dbg !8889
}

; Function Attrs: noinline nounwind optnone uwtable
define linkonce_odr dso_local void @_ZNSt6vectorI8BodyPoseSaIS0_EEC2Ev(ptr noundef nonnull align 8 dereferenceable(24) %0) unnamed_addr #6 comdat align 2 !dbg !8890 {
  %2 = alloca ptr, align 8
  store ptr %0, ptr %2, align 8
  call void @llvm.dbg.declare(metadata ptr %2, metadata !8891, metadata !DIExpression()), !dbg !8893
  %3 = load ptr, ptr %2, align 8
  call void @_ZNSt12_Vector_baseI8BodyPoseSaIS0_EEC2Ev(ptr noundef nonnull align 8 dereferenceable(24) %3) #3, !dbg !8894
  ret void, !dbg !8895
}

; Function Attrs: noinline nounwind optnone uwtable
define linkonce_odr dso_local void @_ZNSt6vectorI12BodyGeometrySaIS0_EEC2Ev(ptr noundef nonnull align 8 dereferenceable(24) %0) unnamed_addr #6 comdat align 2 !dbg !8896 {
  %2 = alloca ptr, align 8
  store ptr %0, ptr %2, align 8
  call void @llvm.dbg.declare(metadata ptr %2, metadata !8897, metadata !DIExpression()), !dbg !8899
  %3 = load ptr, ptr %2, align 8
  call void @_ZNSt12_Vector_baseI12BodyGeometrySaIS0_EEC2Ev(ptr noundef nonnull align 8 dereferenceable(24) %3) #3, !dbg !8900
  ret void, !dbg !8901
}

; Function Attrs: noinline nounwind optnone uwtable
define linkonce_odr dso_local void @_ZN11MultiCameraC2Ev(ptr noundef nonnull align 8 dereferenceable(24) %0) unnamed_addr #6 comdat align 2 !dbg !8902 {
  %2 = alloca ptr, align 8
  store ptr %0, ptr %2, align 8
  call void @llvm.dbg.declare(metadata ptr %2, metadata !8903, metadata !DIExpression()), !dbg !8905
  %3 = load ptr, ptr %2, align 8
  %4 = getelementptr inbounds %class.MultiCamera, ptr %3, i32 0, i32 0, !dbg !8906
  call void @_ZNSt6vectorI6CameraSaIS0_EEC2Ev(ptr noundef nonnull align 8 dereferenceable(24) %4) #3, !dbg !8906
  ret void, !dbg !8907
}

declare i32 @__gxx_personality_v0(...)

; Function Attrs: noinline nounwind optnone uwtable
define linkonce_odr dso_local void @_ZNSt6vectorI24MultiCameraProjectedBodySaIS0_EEC2Ev(ptr noundef nonnull align 8 dereferenceable(24) %0) unnamed_addr #6 comdat align 2 !dbg !8908 {
  %2 = alloca ptr, align 8
  store ptr %0, ptr %2, align 8
  call void @llvm.dbg.declare(metadata ptr %2, metadata !8909, metadata !DIExpression()), !dbg !8911
  %3 = load ptr, ptr %2, align 8
  call void @_ZNSt12_Vector_baseI24MultiCameraProjectedBodySaIS0_EEC2Ev(ptr noundef nonnull align 8 dereferenceable(24) %3) #3, !dbg !8912
  ret void, !dbg !8913
}

; Function Attrs: noinline nounwind optnone uwtable
define linkonce_odr dso_local void @_ZNSt6vectorI17ImageMeasurementsSaIS0_EEC2Ev(ptr noundef nonnull align 8 dereferenceable(24) %0) unnamed_addr #6 comdat align 2 !dbg !8914 {
  %2 = alloca ptr, align 8
  store ptr %0, ptr %2, align 8
  call void @llvm.dbg.declare(metadata ptr %2, metadata !8915, metadata !DIExpression()), !dbg !8917
  %3 = load ptr, ptr %2, align 8
  call void @_ZNSt12_Vector_baseI17ImageMeasurementsSaIS0_EEC2Ev(ptr noundef nonnull align 8 dereferenceable(24) %3) #3, !dbg !8918
  ret void, !dbg !8919
}

; Function Attrs: nounwind
declare void @_ZNSt7__cxx1112basic_stringIcSt11char_traitsIcESaIcEEC1Ev(ptr noundef nonnull align 8 dereferenceable(32)) unnamed_addr #2

; Function Attrs: mustprogress noinline optnone uwtable
define linkonce_odr dso_local void @_ZNSt6vectorI8BodyPoseSaIS0_EE6resizeEm(ptr noundef nonnull align 8 dereferenceable(24) %0, i64 noundef %1) #7 comdat align 2 !dbg !8920 {
  %3 = alloca ptr, align 8
  %4 = alloca i64, align 8
  store ptr %0, ptr %3, align 8
  call void @llvm.dbg.declare(metadata ptr %3, metadata !8921, metadata !DIExpression()), !dbg !8922
  store i64 %1, ptr %4, align 8
  call void @llvm.dbg.declare(metadata ptr %4, metadata !8923, metadata !DIExpression()), !dbg !8924
  %5 = load ptr, ptr %3, align 8
  %6 = load i64, ptr %4, align 8, !dbg !8925
  %7 = call noundef i64 @_ZNKSt6vectorI8BodyPoseSaIS0_EE4sizeEv(ptr noundef nonnull align 8 dereferenceable(24) %5) #3, !dbg !8927
  %8 = icmp ugt i64 %6, %7, !dbg !8928
  br i1 %8, label %9, label %13, !dbg !8929

9:                                                ; preds = %2
  %10 = load i64, ptr %4, align 8, !dbg !8930
  %11 = call noundef i64 @_ZNKSt6vectorI8BodyPoseSaIS0_EE4sizeEv(ptr noundef nonnull align 8 dereferenceable(24) %5) #3, !dbg !8931
  %12 = sub i64 %10, %11, !dbg !8932
  call void @_ZNSt6vectorI8BodyPoseSaIS0_EE17_M_default_appendEm(ptr noundef nonnull align 8 dereferenceable(24) %5, i64 noundef %12), !dbg !8933
  br label %24, !dbg !8933

13:                                               ; preds = %2
  %14 = load i64, ptr %4, align 8, !dbg !8934
  %15 = call noundef i64 @_ZNKSt6vectorI8BodyPoseSaIS0_EE4sizeEv(ptr noundef nonnull align 8 dereferenceable(24) %5) #3, !dbg !8936
  %16 = icmp ult i64 %14, %15, !dbg !8937
  br i1 %16, label %17, label %23, !dbg !8938

17:                                               ; preds = %13
  %18 = getelementptr inbounds %"struct.std::_Vector_base.16", ptr %5, i32 0, i32 0, !dbg !8939
  %19 = getelementptr inbounds %"struct.std::_Vector_base<BodyPose, std::allocator<BodyPose>>::_Vector_impl_data", ptr %18, i32 0, i32 0, !dbg !8940
  %20 = load ptr, ptr %19, align 8, !dbg !8940
  %21 = load i64, ptr %4, align 8, !dbg !8941
  %22 = getelementptr inbounds %class.BodyPose, ptr %20, i64 %21, !dbg !8942
  call void @_ZNSt6vectorI8BodyPoseSaIS0_EE15_M_erase_at_endEPS0_(ptr noundef nonnull align 8 dereferenceable(24) %5, ptr noundef %22) #3, !dbg !8943
  br label %23, !dbg !8943

23:                                               ; preds = %17, %13
  br label %24

24:                                               ; preds = %23, %9
  ret void, !dbg !8944
}

; Function Attrs: mustprogress noinline optnone uwtable
define linkonce_odr dso_local void @_ZNSt6vectorI12BodyGeometrySaIS0_EE6resizeEm(ptr noundef nonnull align 8 dereferenceable(24) %0, i64 noundef %1) #7 comdat align 2 !dbg !8945 {
  %3 = alloca ptr, align 8
  %4 = alloca i64, align 8
  store ptr %0, ptr %3, align 8
  call void @llvm.dbg.declare(metadata ptr %3, metadata !8946, metadata !DIExpression()), !dbg !8947
  store i64 %1, ptr %4, align 8
  call void @llvm.dbg.declare(metadata ptr %4, metadata !8948, metadata !DIExpression()), !dbg !8949
  %5 = load ptr, ptr %3, align 8
  %6 = load i64, ptr %4, align 8, !dbg !8950
  %7 = call noundef i64 @_ZNKSt6vectorI12BodyGeometrySaIS0_EE4sizeEv(ptr noundef nonnull align 8 dereferenceable(24) %5) #3, !dbg !8952
  %8 = icmp ugt i64 %6, %7, !dbg !8953
  br i1 %8, label %9, label %13, !dbg !8954

9:                                                ; preds = %2
  %10 = load i64, ptr %4, align 8, !dbg !8955
  %11 = call noundef i64 @_ZNKSt6vectorI12BodyGeometrySaIS0_EE4sizeEv(ptr noundef nonnull align 8 dereferenceable(24) %5) #3, !dbg !8956
  %12 = sub i64 %10, %11, !dbg !8957
  call void @_ZNSt6vectorI12BodyGeometrySaIS0_EE17_M_default_appendEm(ptr noundef nonnull align 8 dereferenceable(24) %5, i64 noundef %12), !dbg !8958
  br label %24, !dbg !8958

13:                                               ; preds = %2
  %14 = load i64, ptr %4, align 8, !dbg !8959
  %15 = call noundef i64 @_ZNKSt6vectorI12BodyGeometrySaIS0_EE4sizeEv(ptr noundef nonnull align 8 dereferenceable(24) %5) #3, !dbg !8961
  %16 = icmp ult i64 %14, %15, !dbg !8962
  br i1 %16, label %17, label %23, !dbg !8963

17:                                               ; preds = %13
  %18 = getelementptr inbounds %"struct.std::_Vector_base.21", ptr %5, i32 0, i32 0, !dbg !8964
  %19 = getelementptr inbounds %"struct.std::_Vector_base<BodyGeometry, std::allocator<BodyGeometry>>::_Vector_impl_data", ptr %18, i32 0, i32 0, !dbg !8965
  %20 = load ptr, ptr %19, align 8, !dbg !8965
  %21 = load i64, ptr %4, align 8, !dbg !8966
  %22 = getelementptr inbounds %class.BodyGeometry, ptr %20, i64 %21, !dbg !8967
  call void @_ZNSt6vectorI12BodyGeometrySaIS0_EE15_M_erase_at_endEPS0_(ptr noundef nonnull align 8 dereferenceable(24) %5, ptr noundef %22) #3, !dbg !8968
  br label %23, !dbg !8968

23:                                               ; preds = %17, %13
  br label %24

24:                                               ; preds = %23, %9
  ret void, !dbg !8969
}

; Function Attrs: mustprogress noinline optnone uwtable
define linkonce_odr dso_local void @_ZNSt6vectorI24MultiCameraProjectedBodySaIS0_EE6resizeEm(ptr noundef nonnull align 8 dereferenceable(24) %0, i64 noundef %1) #7 comdat align 2 !dbg !8970 {
  %3 = alloca ptr, align 8
  %4 = alloca i64, align 8
  store ptr %0, ptr %3, align 8
  call void @llvm.dbg.declare(metadata ptr %3, metadata !8971, metadata !DIExpression()), !dbg !8972
  store i64 %1, ptr %4, align 8
  call void @llvm.dbg.declare(metadata ptr %4, metadata !8973, metadata !DIExpression()), !dbg !8974
  %5 = load ptr, ptr %3, align 8
  %6 = load i64, ptr %4, align 8, !dbg !8975
  %7 = call noundef i64 @_ZNKSt6vectorI24MultiCameraProjectedBodySaIS0_EE4sizeEv(ptr noundef nonnull align 8 dereferenceable(24) %5) #3, !dbg !8977
  %8 = icmp ugt i64 %6, %7, !dbg !8978
  br i1 %8, label %9, label %13, !dbg !8979

9:                                                ; preds = %2
  %10 = load i64, ptr %4, align 8, !dbg !8980
  %11 = call noundef i64 @_ZNKSt6vectorI24MultiCameraProjectedBodySaIS0_EE4sizeEv(ptr noundef nonnull align 8 dereferenceable(24) %5) #3, !dbg !8981
  %12 = sub i64 %10, %11, !dbg !8982
  call void @_ZNSt6vectorI24MultiCameraProjectedBodySaIS0_EE17_M_default_appendEm(ptr noundef nonnull align 8 dereferenceable(24) %5, i64 noundef %12), !dbg !8983
  br label %24, !dbg !8983

13:                                               ; preds = %2
  %14 = load i64, ptr %4, align 8, !dbg !8984
  %15 = call noundef i64 @_ZNKSt6vectorI24MultiCameraProjectedBodySaIS0_EE4sizeEv(ptr noundef nonnull align 8 dereferenceable(24) %5) #3, !dbg !8986
  %16 = icmp ult i64 %14, %15, !dbg !8987
  br i1 %16, label %17, label %23, !dbg !8988

17:                                               ; preds = %13
  %18 = getelementptr inbounds %"struct.std::_Vector_base.41", ptr %5, i32 0, i32 0, !dbg !8989
  %19 = getelementptr inbounds %"struct.std::_Vector_base<MultiCameraProjectedBody, std::allocator<MultiCameraProjectedBody>>::_Vector_impl_data", ptr %18, i32 0, i32 0, !dbg !8990
  %20 = load ptr, ptr %19, align 8, !dbg !8990
  %21 = load i64, ptr %4, align 8, !dbg !8991
  %22 = getelementptr inbounds %class.MultiCameraProjectedBody, ptr %20, i64 %21, !dbg !8992
  call void @_ZNSt6vectorI24MultiCameraProjectedBodySaIS0_EE15_M_erase_at_endEPS0_(ptr noundef nonnull align 8 dereferenceable(24) %5, ptr noundef %22) #3, !dbg !8993
  br label %23, !dbg !8993

23:                                               ; preds = %17, %13
  br label %24

24:                                               ; preds = %23, %9
  ret void, !dbg !8994
}

; Function Attrs: mustprogress noinline optnone uwtable
define linkonce_odr dso_local void @_ZNSt6vectorI17ImageMeasurementsSaIS0_EE6resizeEm(ptr noundef nonnull align 8 dereferenceable(24) %0, i64 noundef %1) #7 comdat align 2 !dbg !8995 {
  %3 = alloca ptr, align 8
  %4 = alloca i64, align 8
  store ptr %0, ptr %3, align 8
  call void @llvm.dbg.declare(metadata ptr %3, metadata !8996, metadata !DIExpression()), !dbg !8997
  store i64 %1, ptr %4, align 8
  call void @llvm.dbg.declare(metadata ptr %4, metadata !8998, metadata !DIExpression()), !dbg !8999
  %5 = load ptr, ptr %3, align 8
  %6 = load i64, ptr %4, align 8, !dbg !9000
  %7 = call noundef i64 @_ZNKSt6vectorI17ImageMeasurementsSaIS0_EE4sizeEv(ptr noundef nonnull align 8 dereferenceable(24) %5) #3, !dbg !9002
  %8 = icmp ugt i64 %6, %7, !dbg !9003
  br i1 %8, label %9, label %13, !dbg !9004

9:                                                ; preds = %2
  %10 = load i64, ptr %4, align 8, !dbg !9005
  %11 = call noundef i64 @_ZNKSt6vectorI17ImageMeasurementsSaIS0_EE4sizeEv(ptr noundef nonnull align 8 dereferenceable(24) %5) #3, !dbg !9006
  %12 = sub i64 %10, %11, !dbg !9007
  call void @_ZNSt6vectorI17ImageMeasurementsSaIS0_EE17_M_default_appendEm(ptr noundef nonnull align 8 dereferenceable(24) %5, i64 noundef %12), !dbg !9008
  br label %24, !dbg !9008

13:                                               ; preds = %2
  %14 = load i64, ptr %4, align 8, !dbg !9009
  %15 = call noundef i64 @_ZNKSt6vectorI17ImageMeasurementsSaIS0_EE4sizeEv(ptr noundef nonnull align 8 dereferenceable(24) %5) #3, !dbg !9011
  %16 = icmp ult i64 %14, %15, !dbg !9012
  br i1 %16, label %17, label %23, !dbg !9013

17:                                               ; preds = %13
  %18 = getelementptr inbounds %"struct.std::_Vector_base.56", ptr %5, i32 0, i32 0, !dbg !9014
  %19 = getelementptr inbounds %"struct.std::_Vector_base<ImageMeasurements, std::allocator<ImageMeasurements>>::_Vector_impl_data", ptr %18, i32 0, i32 0, !dbg !9015
  %20 = load ptr, ptr %19, align 8, !dbg !9015
  %21 = load i64, ptr %4, align 8, !dbg !9016
  %22 = getelementptr inbounds %class.ImageMeasurements, ptr %20, i64 %21, !dbg !9017
  call void @_ZNSt6vectorI17ImageMeasurementsSaIS0_EE15_M_erase_at_endEPS0_(ptr noundef nonnull align 8 dereferenceable(24) %5, ptr noundef %22) #3, !dbg !9018
  br label %23, !dbg !9018

23:                                               ; preds = %17, %13
  br label %24

24:                                               ; preds = %23, %9
  ret void, !dbg !9019
}

; Function Attrs: nounwind
declare void @_ZNSt7__cxx1112basic_stringIcSt11char_traitsIcESaIcEED1Ev(ptr noundef nonnull align 8 dereferenceable(32)) unnamed_addr #2

; Function Attrs: noinline nounwind optnone uwtable
define linkonce_odr dso_local void @_ZNSt6vectorI17ImageMeasurementsSaIS0_EED2Ev(ptr noundef nonnull align 8 dereferenceable(24) %0) unnamed_addr #6 comdat align 2 personality ptr @__gxx_personality_v0 !dbg !9020 {
  %2 = alloca ptr, align 8
  store ptr %0, ptr %2, align 8
  call void @llvm.dbg.declare(metadata ptr %2, metadata !9021, metadata !DIExpression()), !dbg !9022
  %3 = load ptr, ptr %2, align 8
  %4 = getelementptr inbounds %"struct.std::_Vector_base.56", ptr %3, i32 0, i32 0, !dbg !9023
  %5 = getelementptr inbounds %"struct.std::_Vector_base<ImageMeasurements, std::allocator<ImageMeasurements>>::_Vector_impl_data", ptr %4, i32 0, i32 0, !dbg !9025
  %6 = load ptr, ptr %5, align 8, !dbg !9025
  %7 = getelementptr inbounds %"struct.std::_Vector_base.56", ptr %3, i32 0, i32 0, !dbg !9026
  %8 = getelementptr inbounds %"struct.std::_Vector_base<ImageMeasurements, std::allocator<ImageMeasurements>>::_Vector_impl_data", ptr %7, i32 0, i32 1, !dbg !9027
  %9 = load ptr, ptr %8, align 8, !dbg !9027
  %10 = call noundef nonnull align 1 dereferenceable(1) ptr @_ZNSt12_Vector_baseI17ImageMeasurementsSaIS0_EE19_M_get_Tp_allocatorEv(ptr noundef nonnull align 8 dereferenceable(24) %3) #3, !dbg !9028
  invoke void @_ZSt8_DestroyIP17ImageMeasurementsS0_EvT_S2_RSaIT0_E(ptr noundef %6, ptr noundef %9, ptr noundef nonnull align 1 dereferenceable(1) %10)
          to label %11 unwind label %12, !dbg !9029

11:                                               ; preds = %1
  call void @_ZNSt12_Vector_baseI17ImageMeasurementsSaIS0_EED2Ev(ptr noundef nonnull align 8 dereferenceable(24) %3) #3, !dbg !9030
  ret void, !dbg !9031

12:                                               ; preds = %1
  %13 = landingpad { ptr, i32 }
          catch ptr null, !dbg !9029
  %14 = extractvalue { ptr, i32 } %13, 0, !dbg !9029
  call void @__clang_call_terminate(ptr %14) #17, !dbg !9029
  unreachable, !dbg !9029
}

; Function Attrs: noinline nounwind optnone uwtable
define linkonce_odr dso_local void @_ZNSt6vectorI24MultiCameraProjectedBodySaIS0_EED2Ev(ptr noundef nonnull align 8 dereferenceable(24) %0) unnamed_addr #6 comdat align 2 personality ptr @__gxx_personality_v0 !dbg !9032 {
  %2 = alloca ptr, align 8
  store ptr %0, ptr %2, align 8
  call void @llvm.dbg.declare(metadata ptr %2, metadata !9033, metadata !DIExpression()), !dbg !9034
  %3 = load ptr, ptr %2, align 8
  %4 = getelementptr inbounds %"struct.std::_Vector_base.41", ptr %3, i32 0, i32 0, !dbg !9035
  %5 = getelementptr inbounds %"struct.std::_Vector_base<MultiCameraProjectedBody, std::allocator<MultiCameraProjectedBody>>::_Vector_impl_data", ptr %4, i32 0, i32 0, !dbg !9037
  %6 = load ptr, ptr %5, align 8, !dbg !9037
  %7 = getelementptr inbounds %"struct.std::_Vector_base.41", ptr %3, i32 0, i32 0, !dbg !9038
  %8 = getelementptr inbounds %"struct.std::_Vector_base<MultiCameraProjectedBody, std::allocator<MultiCameraProjectedBody>>::_Vector_impl_data", ptr %7, i32 0, i32 1, !dbg !9039
  %9 = load ptr, ptr %8, align 8, !dbg !9039
  %10 = call noundef nonnull align 1 dereferenceable(1) ptr @_ZNSt12_Vector_baseI24MultiCameraProjectedBodySaIS0_EE19_M_get_Tp_allocatorEv(ptr noundef nonnull align 8 dereferenceable(24) %3) #3, !dbg !9040
  invoke void @_ZSt8_DestroyIP24MultiCameraProjectedBodyS0_EvT_S2_RSaIT0_E(ptr noundef %6, ptr noundef %9, ptr noundef nonnull align 1 dereferenceable(1) %10)
          to label %11 unwind label %12, !dbg !9041

11:                                               ; preds = %1
  call void @_ZNSt12_Vector_baseI24MultiCameraProjectedBodySaIS0_EED2Ev(ptr noundef nonnull align 8 dereferenceable(24) %3) #3, !dbg !9042
  ret void, !dbg !9043

12:                                               ; preds = %1
  %13 = landingpad { ptr, i32 }
          catch ptr null, !dbg !9041
  %14 = extractvalue { ptr, i32 } %13, 0, !dbg !9041
  call void @__clang_call_terminate(ptr %14) #17, !dbg !9041
  unreachable, !dbg !9041
}

; Function Attrs: noinline nounwind optnone uwtable
define linkonce_odr dso_local void @_ZN11MultiCameraD2Ev(ptr noundef nonnull align 8 dereferenceable(24) %0) unnamed_addr #6 comdat align 2 !dbg !9044 {
  %2 = alloca ptr, align 8
  store ptr %0, ptr %2, align 8
  call void @llvm.dbg.declare(metadata ptr %2, metadata !9045, metadata !DIExpression()), !dbg !9046
  %3 = load ptr, ptr %2, align 8
  %4 = getelementptr inbounds %class.MultiCamera, ptr %3, i32 0, i32 0, !dbg !9047
  call void @_ZNSt6vectorI6CameraSaIS0_EED2Ev(ptr noundef nonnull align 8 dereferenceable(24) %4) #3, !dbg !9047
  ret void, !dbg !9049
}

; Function Attrs: noinline nounwind optnone uwtable
define linkonce_odr dso_local void @_ZNSt6vectorI12BodyGeometrySaIS0_EED2Ev(ptr noundef nonnull align 8 dereferenceable(24) %0) unnamed_addr #6 comdat align 2 personality ptr @__gxx_personality_v0 !dbg !9050 {
  %2 = alloca ptr, align 8
  store ptr %0, ptr %2, align 8
  call void @llvm.dbg.declare(metadata ptr %2, metadata !9051, metadata !DIExpression()), !dbg !9052
  %3 = load ptr, ptr %2, align 8
  %4 = getelementptr inbounds %"struct.std::_Vector_base.21", ptr %3, i32 0, i32 0, !dbg !9053
  %5 = getelementptr inbounds %"struct.std::_Vector_base<BodyGeometry, std::allocator<BodyGeometry>>::_Vector_impl_data", ptr %4, i32 0, i32 0, !dbg !9055
  %6 = load ptr, ptr %5, align 8, !dbg !9055
  %7 = getelementptr inbounds %"struct.std::_Vector_base.21", ptr %3, i32 0, i32 0, !dbg !9056
  %8 = getelementptr inbounds %"struct.std::_Vector_base<BodyGeometry, std::allocator<BodyGeometry>>::_Vector_impl_data", ptr %7, i32 0, i32 1, !dbg !9057
  %9 = load ptr, ptr %8, align 8, !dbg !9057
  %10 = call noundef nonnull align 1 dereferenceable(1) ptr @_ZNSt12_Vector_baseI12BodyGeometrySaIS0_EE19_M_get_Tp_allocatorEv(ptr noundef nonnull align 8 dereferenceable(24) %3) #3, !dbg !9058
  invoke void @_ZSt8_DestroyIP12BodyGeometryS0_EvT_S2_RSaIT0_E(ptr noundef %6, ptr noundef %9, ptr noundef nonnull align 1 dereferenceable(1) %10)
          to label %11 unwind label %12, !dbg !9059

11:                                               ; preds = %1
  call void @_ZNSt12_Vector_baseI12BodyGeometrySaIS0_EED2Ev(ptr noundef nonnull align 8 dereferenceable(24) %3) #3, !dbg !9060
  ret void, !dbg !9061

12:                                               ; preds = %1
  %13 = landingpad { ptr, i32 }
          catch ptr null, !dbg !9059
  %14 = extractvalue { ptr, i32 } %13, 0, !dbg !9059
  call void @__clang_call_terminate(ptr %14) #17, !dbg !9059
  unreachable, !dbg !9059
}

; Function Attrs: noinline nounwind optnone uwtable
define linkonce_odr dso_local void @_ZNSt6vectorI8BodyPoseSaIS0_EED2Ev(ptr noundef nonnull align 8 dereferenceable(24) %0) unnamed_addr #6 comdat align 2 personality ptr @__gxx_personality_v0 !dbg !9062 {
  %2 = alloca ptr, align 8
  store ptr %0, ptr %2, align 8
  call void @llvm.dbg.declare(metadata ptr %2, metadata !9063, metadata !DIExpression()), !dbg !9064
  %3 = load ptr, ptr %2, align 8
  %4 = getelementptr inbounds %"struct.std::_Vector_base.16", ptr %3, i32 0, i32 0, !dbg !9065
  %5 = getelementptr inbounds %"struct.std::_Vector_base<BodyPose, std::allocator<BodyPose>>::_Vector_impl_data", ptr %4, i32 0, i32 0, !dbg !9067
  %6 = load ptr, ptr %5, align 8, !dbg !9067
  %7 = getelementptr inbounds %"struct.std::_Vector_base.16", ptr %3, i32 0, i32 0, !dbg !9068
  %8 = getelementptr inbounds %"struct.std::_Vector_base<BodyPose, std::allocator<BodyPose>>::_Vector_impl_data", ptr %7, i32 0, i32 1, !dbg !9069
  %9 = load ptr, ptr %8, align 8, !dbg !9069
  %10 = call noundef nonnull align 1 dereferenceable(1) ptr @_ZNSt12_Vector_baseI8BodyPoseSaIS0_EE19_M_get_Tp_allocatorEv(ptr noundef nonnull align 8 dereferenceable(24) %3) #3, !dbg !9070
  invoke void @_ZSt8_DestroyIP8BodyPoseS0_EvT_S2_RSaIT0_E(ptr noundef %6, ptr noundef %9, ptr noundef nonnull align 1 dereferenceable(1) %10)
          to label %11 unwind label %12, !dbg !9071

11:                                               ; preds = %1
  call void @_ZNSt12_Vector_baseI8BodyPoseSaIS0_EED2Ev(ptr noundef nonnull align 8 dereferenceable(24) %3) #3, !dbg !9072
  ret void, !dbg !9073

12:                                               ; preds = %1
  %13 = landingpad { ptr, i32 }
          catch ptr null, !dbg !9071
  %14 = extractvalue { ptr, i32 } %13, 0, !dbg !9071
  call void @__clang_call_terminate(ptr %14) #17, !dbg !9071
  unreachable, !dbg !9071
}

; Function Attrs: noinline nounwind optnone uwtable
define linkonce_odr dso_local void @_ZNSt6vectorIS_IfSaIfEESaIS1_EED2Ev(ptr noundef nonnull align 8 dereferenceable(24) %0) unnamed_addr #6 comdat align 2 personality ptr @__gxx_personality_v0 !dbg !9074 {
  %2 = alloca ptr, align 8
  store ptr %0, ptr %2, align 8
  call void @llvm.dbg.declare(metadata ptr %2, metadata !9075, metadata !DIExpression()), !dbg !9076
  %3 = load ptr, ptr %2, align 8
  %4 = getelementptr inbounds %"struct.std::_Vector_base.6", ptr %3, i32 0, i32 0, !dbg !9077
  %5 = getelementptr inbounds %"struct.std::_Vector_base<std::vector<float>, std::allocator<std::vector<float>>>::_Vector_impl_data", ptr %4, i32 0, i32 0, !dbg !9079
  %6 = load ptr, ptr %5, align 8, !dbg !9079
  %7 = getelementptr inbounds %"struct.std::_Vector_base.6", ptr %3, i32 0, i32 0, !dbg !9080
  %8 = getelementptr inbounds %"struct.std::_Vector_base<std::vector<float>, std::allocator<std::vector<float>>>::_Vector_impl_data", ptr %7, i32 0, i32 1, !dbg !9081
  %9 = load ptr, ptr %8, align 8, !dbg !9081
  %10 = call noundef nonnull align 1 dereferenceable(1) ptr @_ZNSt12_Vector_baseISt6vectorIfSaIfEESaIS2_EE19_M_get_Tp_allocatorEv(ptr noundef nonnull align 8 dereferenceable(24) %3) #3, !dbg !9082
  invoke void @_ZSt8_DestroyIPSt6vectorIfSaIfEES2_EvT_S4_RSaIT0_E(ptr noundef %6, ptr noundef %9, ptr noundef nonnull align 1 dereferenceable(1) %10)
          to label %11 unwind label %12, !dbg !9083

11:                                               ; preds = %1
  call void @_ZNSt12_Vector_baseISt6vectorIfSaIfEESaIS2_EED2Ev(ptr noundef nonnull align 8 dereferenceable(24) %3) #3, !dbg !9084
  ret void, !dbg !9085

12:                                               ; preds = %1
  %13 = landingpad { ptr, i32 }
          catch ptr null, !dbg !9083
  %14 = extractvalue { ptr, i32 } %13, 0, !dbg !9083
  call void @__clang_call_terminate(ptr %14) #17, !dbg !9083
  unreachable, !dbg !9083
}

; Function Attrs: noinline nounwind optnone uwtable
define linkonce_odr dso_local void @_ZNSt6vectorI9FlexImageIhLi1EESaIS1_EED2Ev(ptr noundef nonnull align 8 dereferenceable(24) %0) unnamed_addr #6 comdat align 2 personality ptr @__gxx_personality_v0 !dbg !9086 {
  %2 = alloca ptr, align 8
  store ptr %0, ptr %2, align 8
  call void @llvm.dbg.declare(metadata ptr %2, metadata !9087, metadata !DIExpression()), !dbg !9088
  %3 = load ptr, ptr %2, align 8
  %4 = getelementptr inbounds %"struct.std::_Vector_base.1", ptr %3, i32 0, i32 0, !dbg !9089
  %5 = getelementptr inbounds %"struct.std::_Vector_base<FlexImage<unsigned char, 1>, std::allocator<FlexImage<unsigned char, 1>>>::_Vector_impl_data", ptr %4, i32 0, i32 0, !dbg !9091
  %6 = load ptr, ptr %5, align 8, !dbg !9091
  %7 = getelementptr inbounds %"struct.std::_Vector_base.1", ptr %3, i32 0, i32 0, !dbg !9092
  %8 = getelementptr inbounds %"struct.std::_Vector_base<FlexImage<unsigned char, 1>, std::allocator<FlexImage<unsigned char, 1>>>::_Vector_impl_data", ptr %7, i32 0, i32 1, !dbg !9093
  %9 = load ptr, ptr %8, align 8, !dbg !9093
  %10 = call noundef nonnull align 1 dereferenceable(1) ptr @_ZNSt12_Vector_baseI9FlexImageIhLi1EESaIS1_EE19_M_get_Tp_allocatorEv(ptr noundef nonnull align 8 dereferenceable(24) %3) #3, !dbg !9094
  invoke void @_ZSt8_DestroyIP9FlexImageIhLi1EES1_EvT_S3_RSaIT0_E(ptr noundef %6, ptr noundef %9, ptr noundef nonnull align 1 dereferenceable(1) %10)
          to label %11 unwind label %12, !dbg !9095

11:                                               ; preds = %1
  call void @_ZNSt12_Vector_baseI9FlexImageIhLi1EESaIS1_EED2Ev(ptr noundef nonnull align 8 dereferenceable(24) %3) #3, !dbg !9096
  ret void, !dbg !9097

12:                                               ; preds = %1
  %13 = landingpad { ptr, i32 }
          catch ptr null, !dbg !9095
  %14 = extractvalue { ptr, i32 } %13, 0, !dbg !9095
  call void @__clang_call_terminate(ptr %14) #17, !dbg !9095
  unreachable, !dbg !9095
}

; Function Attrs: noinline nounwind optnone uwtable
define linkonce_odr dso_local void @_ZNSt6vectorI11BinaryImageSaIS0_EED2Ev(ptr noundef nonnull align 8 dereferenceable(24) %0) unnamed_addr #6 comdat align 2 personality ptr @__gxx_personality_v0 !dbg !9098 {
  %2 = alloca ptr, align 8
  store ptr %0, ptr %2, align 8
  call void @llvm.dbg.declare(metadata ptr %2, metadata !9099, metadata !DIExpression()), !dbg !9100
  %3 = load ptr, ptr %2, align 8
  %4 = getelementptr inbounds %"struct.std::_Vector_base", ptr %3, i32 0, i32 0, !dbg !9101
  %5 = getelementptr inbounds %"struct.std::_Vector_base<BinaryImage, std::allocator<BinaryImage>>::_Vector_impl_data", ptr %4, i32 0, i32 0, !dbg !9103
  %6 = load ptr, ptr %5, align 8, !dbg !9103
  %7 = getelementptr inbounds %"struct.std::_Vector_base", ptr %3, i32 0, i32 0, !dbg !9104
  %8 = getelementptr inbounds %"struct.std::_Vector_base<BinaryImage, std::allocator<BinaryImage>>::_Vector_impl_data", ptr %7, i32 0, i32 1, !dbg !9105
  %9 = load ptr, ptr %8, align 8, !dbg !9105
  %10 = call noundef nonnull align 1 dereferenceable(1) ptr @_ZNSt12_Vector_baseI11BinaryImageSaIS0_EE19_M_get_Tp_allocatorEv(ptr noundef nonnull align 8 dereferenceable(24) %3) #3, !dbg !9106
  invoke void @_ZSt8_DestroyIP11BinaryImageS0_EvT_S2_RSaIT0_E(ptr noundef %6, ptr noundef %9, ptr noundef nonnull align 1 dereferenceable(1) %10)
          to label %11 unwind label %12, !dbg !9107

11:                                               ; preds = %1
  call void @_ZNSt12_Vector_baseI11BinaryImageSaIS0_EED2Ev(ptr noundef nonnull align 8 dereferenceable(24) %3) #3, !dbg !9108
  ret void, !dbg !9109

12:                                               ; preds = %1
  %13 = landingpad { ptr, i32 }
          catch ptr null, !dbg !9107
  %14 = extractvalue { ptr, i32 } %13, 0, !dbg !9107
  call void @__clang_call_terminate(ptr %14) #17, !dbg !9107
  unreachable, !dbg !9107
}

; Function Attrs: mustprogress noinline optnone uwtable
define dso_local void @_ZN13TrackingModel13SetNumThreadsEi(ptr noundef nonnull align 8 dereferenceable(240) %0, i32 noundef %1) #7 align 2 !dbg !9110 {
  %3 = alloca ptr, align 8
  %4 = alloca i32, align 4
  store ptr %0, ptr %3, align 8
  call void @llvm.dbg.declare(metadata ptr %3, metadata !9111, metadata !DIExpression()), !dbg !9112
  store i32 %1, ptr %4, align 4
  call void @llvm.dbg.declare(metadata ptr %4, metadata !9113, metadata !DIExpression()), !dbg !9114
  %5 = load ptr, ptr %3, align 8
  %6 = getelementptr inbounds %class.TrackingModel, ptr %5, i32 0, i32 4, !dbg !9115
  %7 = load i32, ptr %4, align 4, !dbg !9116
  %8 = sext i32 %7 to i64, !dbg !9116
  call void @_ZNSt6vectorI8BodyPoseSaIS0_EE6resizeEm(ptr noundef nonnull align 8 dereferenceable(24) %6, i64 noundef %8), !dbg !9117
  %9 = getelementptr inbounds %class.TrackingModel, ptr %5, i32 0, i32 5, !dbg !9118
  %10 = load i32, ptr %4, align 4, !dbg !9119
  %11 = sext i32 %10 to i64, !dbg !9119
  call void @_ZNSt6vectorI12BodyGeometrySaIS0_EE6resizeEm(ptr noundef nonnull align 8 dereferenceable(24) %9, i64 noundef %11), !dbg !9120
  %12 = getelementptr inbounds %class.TrackingModel, ptr %5, i32 0, i32 7, !dbg !9121
  %13 = load i32, ptr %4, align 4, !dbg !9122
  %14 = sext i32 %13 to i64, !dbg !9122
  call void @_ZNSt6vectorI24MultiCameraProjectedBodySaIS0_EE6resizeEm(ptr noundef nonnull align 8 dereferenceable(24) %12, i64 noundef %14), !dbg !9123
  %15 = getelementptr inbounds %class.TrackingModel, ptr %5, i32 0, i32 8, !dbg !9124
  %16 = load i32, ptr %4, align 4, !dbg !9125
  %17 = sext i32 %16 to i64, !dbg !9125
  call void @_ZNSt6vectorI17ImageMeasurementsSaIS0_EE6resizeEm(ptr noundef nonnull align 8 dereferenceable(24) %15, i64 noundef %17), !dbg !9126
  ret void, !dbg !9127
}

; Function Attrs: mustprogress noinline optnone uwtable
define dso_local noundef zeroext i1 @_ZN13TrackingModel11InitCamerasERSt6vectorINSt7__cxx1112basic_stringIcSt11char_traitsIcESaIcEEESaIS6_EE(ptr noundef nonnull align 8 dereferenceable(240) %0, ptr noundef nonnull align 8 dereferenceable(24) %1) #7 align 2 !dbg !9128 {
  %3 = alloca i1, align 1
  %4 = alloca ptr, align 8
  %5 = alloca ptr, align 8
  %6 = alloca i32, align 4
  store ptr %0, ptr %4, align 8
  call void @llvm.dbg.declare(metadata ptr %4, metadata !9129, metadata !DIExpression()), !dbg !9130
  store ptr %1, ptr %5, align 8
  call void @llvm.dbg.declare(metadata ptr %5, metadata !9131, metadata !DIExpression()), !dbg !9132
  %7 = load ptr, ptr %4, align 8
  %8 = getelementptr inbounds %class.TrackingModel, ptr %7, i32 0, i32 6, !dbg !9133
  %9 = load ptr, ptr %5, align 8, !dbg !9134
  %10 = call noundef i64 @_ZNKSt6vectorINSt7__cxx1112basic_stringIcSt11char_traitsIcESaIcEEESaIS5_EE4sizeEv(ptr noundef nonnull align 8 dereferenceable(24) %9) #3, !dbg !9135
  %11 = trunc i64 %10 to i32, !dbg !9134
  call void @_ZN11MultiCamera10SetCamerasEi(ptr noundef nonnull align 8 dereferenceable(24) %8, i32 noundef %11), !dbg !9136
  call void @llvm.dbg.declare(metadata ptr %6, metadata !9137, metadata !DIExpression()), !dbg !9139
  store i32 0, ptr %6, align 4, !dbg !9139
  br label %12, !dbg !9140

12:                                               ; preds = %30, %2
  %13 = load i32, ptr %6, align 4, !dbg !9141
  %14 = load ptr, ptr %5, align 8, !dbg !9143
  %15 = call noundef i64 @_ZNKSt6vectorINSt7__cxx1112basic_stringIcSt11char_traitsIcESaIcEEESaIS5_EE4sizeEv(ptr noundef nonnull align 8 dereferenceable(24) %14) #3, !dbg !9144
  %16 = trunc i64 %15 to i32, !dbg !9143
  %17 = icmp slt i32 %13, %16, !dbg !9145
  br i1 %17, label %18, label %33, !dbg !9146

18:                                               ; preds = %12
  %19 = getelementptr inbounds %class.TrackingModel, ptr %7, i32 0, i32 6, !dbg !9147
  %20 = load i32, ptr %6, align 4, !dbg !9149
  %21 = call noundef nonnull align 4 dereferenceable(160) ptr @_ZN11MultiCameraclEi(ptr noundef nonnull align 8 dereferenceable(24) %19, i32 noundef %20), !dbg !9147
  %22 = load ptr, ptr %5, align 8, !dbg !9150
  %23 = load i32, ptr %6, align 4, !dbg !9151
  %24 = sext i32 %23 to i64, !dbg !9151
  %25 = call noundef nonnull align 8 dereferenceable(32) ptr @_ZNSt6vectorINSt7__cxx1112basic_stringIcSt11char_traitsIcESaIcEEESaIS5_EEixEm(ptr noundef nonnull align 8 dereferenceable(24) %22, i64 noundef %24) #3, !dbg !9150
  %26 = call noundef ptr @_ZNKSt7__cxx1112basic_stringIcSt11char_traitsIcESaIcEE5c_strEv(ptr noundef nonnull align 8 dereferenceable(32) %25) #3, !dbg !9152
  %27 = call noundef zeroext i1 @_ZN6Camera10LoadParamsEPKc(ptr noundef nonnull align 4 dereferenceable(160) %21, ptr noundef %26), !dbg !9153
  br i1 %27, label %29, label %28, !dbg !9154

28:                                               ; preds = %18
  store i1 false, ptr %3, align 1, !dbg !9155
  br label %34, !dbg !9155

29:                                               ; preds = %18
  br label %30, !dbg !9156

30:                                               ; preds = %29
  %31 = load i32, ptr %6, align 4, !dbg !9157
  %32 = add nsw i32 %31, 1, !dbg !9157
  store i32 %32, ptr %6, align 4, !dbg !9157
  br label %12, !dbg !9158, !llvm.loop !9159

33:                                               ; preds = %12
  store i1 true, ptr %3, align 1, !dbg !9162
  br label %34, !dbg !9162

34:                                               ; preds = %33, %28
  %35 = load i1, ptr %3, align 1, !dbg !9163
  ret i1 %35, !dbg !9163
}

; Function Attrs: mustprogress noinline optnone uwtable
define linkonce_odr dso_local void @_ZN11MultiCamera10SetCamerasEi(ptr noundef nonnull align 8 dereferenceable(24) %0, i32 noundef %1) #7 comdat align 2 !dbg !9164 {
  %3 = alloca ptr, align 8
  %4 = alloca i32, align 4
  store ptr %0, ptr %3, align 8
  call void @llvm.dbg.declare(metadata ptr %3, metadata !9165, metadata !DIExpression()), !dbg !9166
  store i32 %1, ptr %4, align 4
  call void @llvm.dbg.declare(metadata ptr %4, metadata !9167, metadata !DIExpression()), !dbg !9168
  %5 = load ptr, ptr %3, align 8
  %6 = getelementptr inbounds %class.MultiCamera, ptr %5, i32 0, i32 0, !dbg !9169
  %7 = load i32, ptr %4, align 4, !dbg !9170
  %8 = sext i32 %7 to i64, !dbg !9170
  call void @_ZNSt6vectorI6CameraSaIS0_EE6resizeEm(ptr noundef nonnull align 8 dereferenceable(24) %6, i64 noundef %8), !dbg !9171
  ret void, !dbg !9172
}

; Function Attrs: mustprogress noinline nounwind optnone uwtable
define linkonce_odr dso_local noundef i64 @_ZNKSt6vectorINSt7__cxx1112basic_stringIcSt11char_traitsIcESaIcEEESaIS5_EE4sizeEv(ptr noundef nonnull align 8 dereferenceable(24) %0) #8 comdat align 2 !dbg !9173 {
  %2 = alloca ptr, align 8
  store ptr %0, ptr %2, align 8
  call void @llvm.dbg.declare(metadata ptr %2, metadata !9174, metadata !DIExpression()), !dbg !9176
  %3 = load ptr, ptr %2, align 8
  %4 = getelementptr inbounds %"struct.std::_Vector_base.69", ptr %3, i32 0, i32 0, !dbg !9177
  %5 = getelementptr inbounds %"struct.std::_Vector_base<std::__cxx11::basic_string<char>, std::allocator<std::__cxx11::basic_string<char>>>::_Vector_impl_data", ptr %4, i32 0, i32 1, !dbg !9178
  %6 = load ptr, ptr %5, align 8, !dbg !9178
  %7 = getelementptr inbounds %"struct.std::_Vector_base.69", ptr %3, i32 0, i32 0, !dbg !9179
  %8 = getelementptr inbounds %"struct.std::_Vector_base<std::__cxx11::basic_string<char>, std::allocator<std::__cxx11::basic_string<char>>>::_Vector_impl_data", ptr %7, i32 0, i32 0, !dbg !9180
  %9 = load ptr, ptr %8, align 8, !dbg !9180
  %10 = ptrtoint ptr %6 to i64, !dbg !9181
  %11 = ptrtoint ptr %9 to i64, !dbg !9181
  %12 = sub i64 %10, %11, !dbg !9181
  %13 = sdiv exact i64 %12, 32, !dbg !9181
  ret i64 %13, !dbg !9182
}

; Function Attrs: mustprogress noinline nounwind optnone uwtable
define linkonce_odr dso_local noundef nonnull align 4 dereferenceable(160) ptr @_ZN11MultiCameraclEi(ptr noundef nonnull align 8 dereferenceable(24) %0, i32 noundef %1) #8 comdat align 2 !dbg !9183 {
  %3 = alloca ptr, align 8
  %4 = alloca i32, align 4
  store ptr %0, ptr %3, align 8
  call void @llvm.dbg.declare(metadata ptr %3, metadata !9184, metadata !DIExpression()), !dbg !9185
  store i32 %1, ptr %4, align 4
  call void @llvm.dbg.declare(metadata ptr %4, metadata !9186, metadata !DIExpression()), !dbg !9187
  %5 = load ptr, ptr %3, align 8
  %6 = getelementptr inbounds %class.MultiCamera, ptr %5, i32 0, i32 0, !dbg !9188
  %7 = load i32, ptr %4, align 4, !dbg !9189
  %8 = sext i32 %7 to i64, !dbg !9189
  %9 = call noundef nonnull align 4 dereferenceable(160) ptr @_ZNSt6vectorI6CameraSaIS0_EEixEm(ptr noundef nonnull align 8 dereferenceable(24) %6, i64 noundef %8) #3, !dbg !9188
  ret ptr %9, !dbg !9190
}

declare noundef zeroext i1 @_ZN6Camera10LoadParamsEPKc(ptr noundef nonnull align 4 dereferenceable(160), ptr noundef) #1

; Function Attrs: mustprogress noinline nounwind optnone uwtable
define linkonce_odr dso_local noundef nonnull align 8 dereferenceable(32) ptr @_ZNSt6vectorINSt7__cxx1112basic_stringIcSt11char_traitsIcESaIcEEESaIS5_EEixEm(ptr noundef nonnull align 8 dereferenceable(24) %0, i64 noundef %1) #8 comdat align 2 !dbg !9191 {
  %3 = alloca ptr, align 8
  %4 = alloca i64, align 8
  store ptr %0, ptr %3, align 8
  call void @llvm.dbg.declare(metadata ptr %3, metadata !9192, metadata !DIExpression()), !dbg !9194
  store i64 %1, ptr %4, align 8
  call void @llvm.dbg.declare(metadata ptr %4, metadata !9195, metadata !DIExpression()), !dbg !9196
  %5 = load ptr, ptr %3, align 8
  %6 = getelementptr inbounds %"struct.std::_Vector_base.69", ptr %5, i32 0, i32 0, !dbg !9197
  %7 = getelementptr inbounds %"struct.std::_Vector_base<std::__cxx11::basic_string<char>, std::allocator<std::__cxx11::basic_string<char>>>::_Vector_impl_data", ptr %6, i32 0, i32 0, !dbg !9198
  %8 = load ptr, ptr %7, align 8, !dbg !9198
  %9 = load i64, ptr %4, align 8, !dbg !9199
  %10 = getelementptr inbounds %"class.std::__cxx11::basic_string", ptr %8, i64 %9, !dbg !9200
  ret ptr %10, !dbg !9201
}

; Function Attrs: nounwind
declare noundef ptr @_ZNKSt7__cxx1112basic_stringIcSt11char_traitsIcESaIcEE5c_strEv(ptr noundef nonnull align 8 dereferenceable(32)) #2

; Function Attrs: mustprogress noinline optnone uwtable
define dso_local noundef zeroext i1 @_ZN13TrackingModel10InitializeERKNSt7__cxx1112basic_stringIcSt11char_traitsIcESaIcEEEii(ptr noundef nonnull align 8 dereferenceable(240) %0, ptr noundef nonnull align 8 dereferenceable(32) %1, i32 noundef %2, i32 noundef %3) #7 align 2 personality ptr @__gxx_personality_v0 !dbg !9202 {
  %5 = alloca i1, align 1
  %6 = alloca ptr, align 8
  %7 = alloca ptr, align 8
  %8 = alloca i32, align 4
  %9 = alloca i32, align 4
  %10 = alloca %"class.std::vector.68", align 8
  %11 = alloca %"class.std::allocator.70", align 1
  %12 = alloca ptr, align 8
  %13 = alloca i32, align 4
  %14 = alloca i32, align 4
  %15 = alloca %"class.std::__cxx11::basic_string", align 8
  %16 = alloca %"class.std::__cxx11::basic_string", align 8
  %17 = alloca %"class.std::__cxx11::basic_string", align 8
  %18 = alloca %"class.std::__cxx11::basic_string", align 8
  %19 = alloca %"class.std::__cxx11::basic_string", align 8
  %20 = alloca %"class.std::__cxx11::basic_string", align 8
  %21 = alloca i32, align 4
  %22 = alloca %"class.std::__cxx11::basic_string", align 8
  %23 = alloca %"class.std::__cxx11::basic_string", align 8
  %24 = alloca %"class.std::__cxx11::basic_string", align 8
  store ptr %0, ptr %6, align 8
  call void @llvm.dbg.declare(metadata ptr %6, metadata !9203, metadata !DIExpression()), !dbg !9204
  store ptr %1, ptr %7, align 8
  call void @llvm.dbg.declare(metadata ptr %7, metadata !9205, metadata !DIExpression()), !dbg !9206
  store i32 %2, ptr %8, align 4
  call void @llvm.dbg.declare(metadata ptr %8, metadata !9207, metadata !DIExpression()), !dbg !9208
  store i32 %3, ptr %9, align 4
  call void @llvm.dbg.declare(metadata ptr %9, metadata !9209, metadata !DIExpression()), !dbg !9210
  %25 = load ptr, ptr %6, align 8
  %26 = load ptr, ptr %7, align 8, !dbg !9211
  %27 = getelementptr inbounds %class.TrackingModel, ptr %25, i32 0, i32 10, !dbg !9212
  %28 = call noundef nonnull align 8 dereferenceable(32) ptr @_ZNSt7__cxx1112basic_stringIcSt11char_traitsIcESaIcEEaSERKS4_(ptr noundef nonnull align 8 dereferenceable(32) %27, ptr noundef nonnull align 8 dereferenceable(32) %26), !dbg !9213
  %29 = load i32, ptr %8, align 4, !dbg !9214
  %30 = getelementptr inbounds %class.TrackingModel, ptr %25, i32 0, i32 9, !dbg !9215
  store i32 %29, ptr %30, align 8, !dbg !9216
  %31 = getelementptr inbounds %class.TrackingModel, ptr %25, i32 0, i32 1, !dbg !9217
  %32 = load i32, ptr %8, align 4, !dbg !9218
  %33 = sext i32 %32 to i64, !dbg !9218
  call void @_ZNSt6vectorI11BinaryImageSaIS0_EE6resizeEm(ptr noundef nonnull align 8 dereferenceable(24) %31, i64 noundef %33), !dbg !9219
  %34 = getelementptr inbounds %class.TrackingModel, ptr %25, i32 0, i32 2, !dbg !9220
  %35 = load i32, ptr %8, align 4, !dbg !9221
  %36 = sext i32 %35 to i64, !dbg !9221
  call void @_ZNSt6vectorI9FlexImageIhLi1EESaIS1_EE6resizeEm(ptr noundef nonnull align 8 dereferenceable(24) %34, i64 noundef %36), !dbg !9222
  call void @llvm.dbg.declare(metadata ptr %10, metadata !9223, metadata !DIExpression()), !dbg !9224
  %37 = load i32, ptr %8, align 4, !dbg !9225
  %38 = sext i32 %37 to i64, !dbg !9225
  call void @_ZNSaINSt7__cxx1112basic_stringIcSt11char_traitsIcESaIcEEEEC2Ev(ptr noundef nonnull align 1 dereferenceable(1) %11) #3, !dbg !9224
  invoke void @_ZNSt6vectorINSt7__cxx1112basic_stringIcSt11char_traitsIcESaIcEEESaIS5_EEC2EmRKS6_(ptr noundef nonnull align 8 dereferenceable(24) %10, i64 noundef %38, ptr noundef nonnull align 1 dereferenceable(1) %11)
          to label %39 unwind label %61, !dbg !9224

39:                                               ; preds = %4
  call void @_ZNSaINSt7__cxx1112basic_stringIcSt11char_traitsIcESaIcEEEED2Ev(ptr noundef nonnull align 1 dereferenceable(1) %11) #3, !dbg !9224
  call void @llvm.dbg.declare(metadata ptr %14, metadata !9226, metadata !DIExpression()), !dbg !9228
  store i32 0, ptr %14, align 4, !dbg !9228
  br label %40, !dbg !9229

40:                                               ; preds = %58, %39
  %41 = load i32, ptr %14, align 4, !dbg !9230
  %42 = load i32, ptr %8, align 4, !dbg !9232
  %43 = icmp slt i32 %41, %42, !dbg !9233
  br i1 %43, label %44, label %93, !dbg !9234

44:                                               ; preds = %40
  %45 = load ptr, ptr %7, align 8, !dbg !9235
  invoke void @_ZStplIcSt11char_traitsIcESaIcEENSt7__cxx1112basic_stringIT_T0_T1_EERKS8_PKS5_(ptr sret(%"class.std::__cxx11::basic_string") align 8 %19, ptr noundef nonnull align 8 dereferenceable(32) %45, ptr noundef @.str)
          to label %46 unwind label %65, !dbg !9236

46:                                               ; preds = %44
  invoke void @_ZStplIcSt11char_traitsIcESaIcEENSt7__cxx1112basic_stringIT_T0_T1_EEOS8_PKS5_(ptr sret(%"class.std::__cxx11::basic_string") align 8 %18, ptr noundef nonnull align 8 dereferenceable(32) %19, ptr noundef @.str.1)
          to label %47 unwind label %69, !dbg !9237

47:                                               ; preds = %46
  invoke void @_ZStplIcSt11char_traitsIcESaIcEENSt7__cxx1112basic_stringIT_T0_T1_EEOS8_PKS5_(ptr sret(%"class.std::__cxx11::basic_string") align 8 %17, ptr noundef nonnull align 8 dereferenceable(32) %18, ptr noundef @.str.2)
          to label %48 unwind label %73, !dbg !9238

48:                                               ; preds = %47
  %49 = load i32, ptr %14, align 4, !dbg !9239
  %50 = add nsw i32 %49, 1, !dbg !9240
  invoke void @_Z3strIiENSt7__cxx1112basic_stringIcSt11char_traitsIcESaIcEEET_ic(ptr sret(%"class.std::__cxx11::basic_string") align 8 %20, i32 noundef %50, i32 noundef 0, i8 noundef signext 48)
          to label %51 unwind label %77, !dbg !9241

51:                                               ; preds = %48
  invoke void @_ZStplIcSt11char_traitsIcESaIcEENSt7__cxx1112basic_stringIT_T0_T1_EEOS8_S9_(ptr sret(%"class.std::__cxx11::basic_string") align 8 %16, ptr noundef nonnull align 8 dereferenceable(32) %17, ptr noundef nonnull align 8 dereferenceable(32) %20)
          to label %52 unwind label %81, !dbg !9242

52:                                               ; preds = %51
  invoke void @_ZStplIcSt11char_traitsIcESaIcEENSt7__cxx1112basic_stringIT_T0_T1_EEOS8_PKS5_(ptr sret(%"class.std::__cxx11::basic_string") align 8 %15, ptr noundef nonnull align 8 dereferenceable(32) %16, ptr noundef @.str.3)
          to label %53 unwind label %85, !dbg !9243

53:                                               ; preds = %52
  %54 = load i32, ptr %14, align 4, !dbg !9244
  %55 = sext i32 %54 to i64, !dbg !9244
  %56 = call noundef nonnull align 8 dereferenceable(32) ptr @_ZNSt6vectorINSt7__cxx1112basic_stringIcSt11char_traitsIcESaIcEEESaIS5_EEixEm(ptr noundef nonnull align 8 dereferenceable(24) %10, i64 noundef %55) #3, !dbg !9245
  %57 = call noundef nonnull align 8 dereferenceable(32) ptr @_ZNSt7__cxx1112basic_stringIcSt11char_traitsIcESaIcEEaSEOS4_(ptr noundef nonnull align 8 dereferenceable(32) %56, ptr noundef nonnull align 8 dereferenceable(32) %15) #3, !dbg !9246
  call void @_ZNSt7__cxx1112basic_stringIcSt11char_traitsIcESaIcEED1Ev(ptr noundef nonnull align 8 dereferenceable(32) %15) #3, !dbg !9245
  call void @_ZNSt7__cxx1112basic_stringIcSt11char_traitsIcESaIcEED1Ev(ptr noundef nonnull align 8 dereferenceable(32) %16) #3, !dbg !9245
  call void @_ZNSt7__cxx1112basic_stringIcSt11char_traitsIcESaIcEED1Ev(ptr noundef nonnull align 8 dereferenceable(32) %20) #3, !dbg !9245
  call void @_ZNSt7__cxx1112basic_stringIcSt11char_traitsIcESaIcEED1Ev(ptr noundef nonnull align 8 dereferenceable(32) %17) #3, !dbg !9245
  call void @_ZNSt7__cxx1112basic_stringIcSt11char_traitsIcESaIcEED1Ev(ptr noundef nonnull align 8 dereferenceable(32) %18) #3, !dbg !9245
  call void @_ZNSt7__cxx1112basic_stringIcSt11char_traitsIcESaIcEED1Ev(ptr noundef nonnull align 8 dereferenceable(32) %19) #3, !dbg !9245
  br label %58, !dbg !9245

58:                                               ; preds = %53
  %59 = load i32, ptr %14, align 4, !dbg !9247
  %60 = add nsw i32 %59, 1, !dbg !9247
  store i32 %60, ptr %14, align 4, !dbg !9247
  br label %40, !dbg !9248, !llvm.loop !9249

61:                                               ; preds = %4
  %62 = landingpad { ptr, i32 }
          cleanup, !dbg !9251
  %63 = extractvalue { ptr, i32 } %62, 0, !dbg !9251
  store ptr %63, ptr %12, align 8, !dbg !9251
  %64 = extractvalue { ptr, i32 } %62, 1, !dbg !9251
  store i32 %64, ptr %13, align 4, !dbg !9251
  call void @_ZNSaINSt7__cxx1112basic_stringIcSt11char_traitsIcESaIcEEEED2Ev(ptr noundef nonnull align 1 dereferenceable(1) %11) #3, !dbg !9224
  br label %141, !dbg !9224

65:                                               ; preds = %135, %130, %119, %108, %97, %93, %44
  %66 = landingpad { ptr, i32 }
          cleanup, !dbg !9252
  %67 = extractvalue { ptr, i32 } %66, 0, !dbg !9252
  store ptr %67, ptr %12, align 8, !dbg !9252
  %68 = extractvalue { ptr, i32 } %66, 1, !dbg !9252
  store i32 %68, ptr %13, align 4, !dbg !9252
  br label %140, !dbg !9252

69:                                               ; preds = %46
  %70 = landingpad { ptr, i32 }
          cleanup, !dbg !9252
  %71 = extractvalue { ptr, i32 } %70, 0, !dbg !9252
  store ptr %71, ptr %12, align 8, !dbg !9252
  %72 = extractvalue { ptr, i32 } %70, 1, !dbg !9252
  store i32 %72, ptr %13, align 4, !dbg !9252
  br label %92, !dbg !9252

73:                                               ; preds = %47
  %74 = landingpad { ptr, i32 }
          cleanup, !dbg !9252
  %75 = extractvalue { ptr, i32 } %74, 0, !dbg !9252
  store ptr %75, ptr %12, align 8, !dbg !9252
  %76 = extractvalue { ptr, i32 } %74, 1, !dbg !9252
  store i32 %76, ptr %13, align 4, !dbg !9252
  br label %91, !dbg !9252

77:                                               ; preds = %48
  %78 = landingpad { ptr, i32 }
          cleanup, !dbg !9252
  %79 = extractvalue { ptr, i32 } %78, 0, !dbg !9252
  store ptr %79, ptr %12, align 8, !dbg !9252
  %80 = extractvalue { ptr, i32 } %78, 1, !dbg !9252
  store i32 %80, ptr %13, align 4, !dbg !9252
  br label %90, !dbg !9252

81:                                               ; preds = %51
  %82 = landingpad { ptr, i32 }
          cleanup, !dbg !9252
  %83 = extractvalue { ptr, i32 } %82, 0, !dbg !9252
  store ptr %83, ptr %12, align 8, !dbg !9252
  %84 = extractvalue { ptr, i32 } %82, 1, !dbg !9252
  store i32 %84, ptr %13, align 4, !dbg !9252
  br label %89, !dbg !9252

85:                                               ; preds = %52
  %86 = landingpad { ptr, i32 }
          cleanup, !dbg !9252
  %87 = extractvalue { ptr, i32 } %86, 0, !dbg !9252
  store ptr %87, ptr %12, align 8, !dbg !9252
  %88 = extractvalue { ptr, i32 } %86, 1, !dbg !9252
  store i32 %88, ptr %13, align 4, !dbg !9252
  call void @_ZNSt7__cxx1112basic_stringIcSt11char_traitsIcESaIcEED1Ev(ptr noundef nonnull align 8 dereferenceable(32) %16) #3, !dbg !9245
  br label %89, !dbg !9245

89:                                               ; preds = %85, %81
  call void @_ZNSt7__cxx1112basic_stringIcSt11char_traitsIcESaIcEED1Ev(ptr noundef nonnull align 8 dereferenceable(32) %20) #3, !dbg !9245
  br label %90, !dbg !9245

90:                                               ; preds = %89, %77
  call void @_ZNSt7__cxx1112basic_stringIcSt11char_traitsIcESaIcEED1Ev(ptr noundef nonnull align 8 dereferenceable(32) %17) #3, !dbg !9245
  br label %91, !dbg !9245

91:                                               ; preds = %90, %73
  call void @_ZNSt7__cxx1112basic_stringIcSt11char_traitsIcESaIcEED1Ev(ptr noundef nonnull align 8 dereferenceable(32) %18) #3, !dbg !9245
  br label %92, !dbg !9245

92:                                               ; preds = %91, %69
  call void @_ZNSt7__cxx1112basic_stringIcSt11char_traitsIcESaIcEED1Ev(ptr noundef nonnull align 8 dereferenceable(32) %19) #3, !dbg !9245
  br label %140, !dbg !9245

93:                                               ; preds = %40
  %94 = invoke noundef zeroext i1 @_ZN13TrackingModel11InitCamerasERSt6vectorINSt7__cxx1112basic_stringIcSt11char_traitsIcESaIcEEESaIS6_EE(ptr noundef nonnull align 8 dereferenceable(240) %25, ptr noundef nonnull align 8 dereferenceable(24) %10)
          to label %95 unwind label %65, !dbg !9253

95:                                               ; preds = %93
  br i1 %94, label %97, label %96, !dbg !9255

96:                                               ; preds = %95
  store i1 false, ptr %5, align 1, !dbg !9256
  store i32 1, ptr %21, align 4
  br label %138, !dbg !9256

97:                                               ; preds = %95
  %98 = load ptr, ptr %7, align 8, !dbg !9257
  invoke void @_ZStplIcSt11char_traitsIcESaIcEENSt7__cxx1112basic_stringIT_T0_T1_EERKS8_PKS5_(ptr sret(%"class.std::__cxx11::basic_string") align 8 %22, ptr noundef nonnull align 8 dereferenceable(32) %98, ptr noundef @.str.4)
          to label %99 unwind label %65, !dbg !9259

99:                                               ; preds = %97
  %100 = invoke noundef zeroext i1 @_ZN13TrackingModel12InitGeometryERKNSt7__cxx1112basic_stringIcSt11char_traitsIcESaIcEEE(ptr noundef nonnull align 8 dereferenceable(240) %25, ptr noundef nonnull align 8 dereferenceable(32) %22)
          to label %101 unwind label %104, !dbg !9260

101:                                              ; preds = %99
  %102 = xor i1 %100, true, !dbg !9261
  call void @_ZNSt7__cxx1112basic_stringIcSt11char_traitsIcESaIcEED1Ev(ptr noundef nonnull align 8 dereferenceable(32) %22) #3, !dbg !9261
  br i1 %102, label %103, label %108, !dbg !9262

103:                                              ; preds = %101
  store i1 false, ptr %5, align 1, !dbg !9263
  store i32 1, ptr %21, align 4
  br label %138, !dbg !9263

104:                                              ; preds = %99
  %105 = landingpad { ptr, i32 }
          cleanup, !dbg !9264
  %106 = extractvalue { ptr, i32 } %105, 0, !dbg !9264
  store ptr %106, ptr %12, align 8, !dbg !9264
  %107 = extractvalue { ptr, i32 } %105, 1, !dbg !9264
  store i32 %107, ptr %13, align 4, !dbg !9264
  call void @_ZNSt7__cxx1112basic_stringIcSt11char_traitsIcESaIcEED1Ev(ptr noundef nonnull align 8 dereferenceable(32) %22) #3, !dbg !9261
  br label %140, !dbg !9261

108:                                              ; preds = %101
  %109 = load ptr, ptr %7, align 8, !dbg !9265
  invoke void @_ZStplIcSt11char_traitsIcESaIcEENSt7__cxx1112basic_stringIT_T0_T1_EERKS8_PKS5_(ptr sret(%"class.std::__cxx11::basic_string") align 8 %23, ptr noundef nonnull align 8 dereferenceable(32) %109, ptr noundef @.str.5)
          to label %110 unwind label %65, !dbg !9267

110:                                              ; preds = %108
  %111 = invoke noundef zeroext i1 @_ZN13TrackingModel16LoadInitialStateERKNSt7__cxx1112basic_stringIcSt11char_traitsIcESaIcEEE(ptr noundef nonnull align 8 dereferenceable(240) %25, ptr noundef nonnull align 8 dereferenceable(32) %23)
          to label %112 unwind label %115, !dbg !9268

112:                                              ; preds = %110
  %113 = xor i1 %111, true, !dbg !9269
  call void @_ZNSt7__cxx1112basic_stringIcSt11char_traitsIcESaIcEED1Ev(ptr noundef nonnull align 8 dereferenceable(32) %23) #3, !dbg !9269
  br i1 %113, label %114, label %119, !dbg !9270

114:                                              ; preds = %112
  store i1 false, ptr %5, align 1, !dbg !9271
  store i32 1, ptr %21, align 4
  br label %138, !dbg !9271

115:                                              ; preds = %110
  %116 = landingpad { ptr, i32 }
          cleanup, !dbg !9272
  %117 = extractvalue { ptr, i32 } %116, 0, !dbg !9272
  store ptr %117, ptr %12, align 8, !dbg !9272
  %118 = extractvalue { ptr, i32 } %116, 1, !dbg !9272
  store i32 %118, ptr %13, align 4, !dbg !9272
  call void @_ZNSt7__cxx1112basic_stringIcSt11char_traitsIcESaIcEED1Ev(ptr noundef nonnull align 8 dereferenceable(32) %23) #3, !dbg !9269
  br label %140, !dbg !9269

119:                                              ; preds = %112
  %120 = load ptr, ptr %7, align 8, !dbg !9273
  invoke void @_ZStplIcSt11char_traitsIcESaIcEENSt7__cxx1112basic_stringIT_T0_T1_EERKS8_PKS5_(ptr sret(%"class.std::__cxx11::basic_string") align 8 %24, ptr noundef nonnull align 8 dereferenceable(32) %120, ptr noundef @.str.6)
          to label %121 unwind label %65, !dbg !9275

121:                                              ; preds = %119
  %122 = invoke noundef zeroext i1 @_ZN13TrackingModel18LoadPoseParametersERKNSt7__cxx1112basic_stringIcSt11char_traitsIcESaIcEEE(ptr noundef nonnull align 8 dereferenceable(240) %25, ptr noundef nonnull align 8 dereferenceable(32) %24)
          to label %123 unwind label %126, !dbg !9276

123:                                              ; preds = %121
  %124 = xor i1 %122, true, !dbg !9277
  call void @_ZNSt7__cxx1112basic_stringIcSt11char_traitsIcESaIcEED1Ev(ptr noundef nonnull align 8 dereferenceable(32) %24) #3, !dbg !9277
  br i1 %124, label %125, label %130, !dbg !9278

125:                                              ; preds = %123
  store i1 false, ptr %5, align 1, !dbg !9279
  store i32 1, ptr %21, align 4
  br label %138, !dbg !9279

126:                                              ; preds = %121
  %127 = landingpad { ptr, i32 }
          cleanup, !dbg !9280
  %128 = extractvalue { ptr, i32 } %127, 0, !dbg !9280
  store ptr %128, ptr %12, align 8, !dbg !9280
  %129 = extractvalue { ptr, i32 } %127, 1, !dbg !9280
  store i32 %129, ptr %13, align 4, !dbg !9280
  call void @_ZNSt7__cxx1112basic_stringIcSt11char_traitsIcESaIcEED1Ev(ptr noundef nonnull align 8 dereferenceable(32) %24) #3, !dbg !9277
  br label %140, !dbg !9277

130:                                              ; preds = %123
  %131 = load i32, ptr %9, align 4, !dbg !9281
  %132 = getelementptr inbounds %class.TrackingModel, ptr %25, i32 0, i32 4, !dbg !9282
  %133 = call noundef nonnull align 8 dereferenceable(96) ptr @_ZNSt6vectorI8BodyPoseSaIS0_EEixEm(ptr noundef nonnull align 8 dereferenceable(24) %132, i64 noundef 0) #3, !dbg !9282
  %134 = invoke noundef nonnull align 8 dereferenceable(72) ptr @_ZN8BodyPose6ParamsEv(ptr noundef nonnull align 8 dereferenceable(96) %133)
          to label %135 unwind label %65, !dbg !9283

135:                                              ; preds = %130
  %136 = getelementptr inbounds %class.TrackingModel, ptr %25, i32 0, i32 3, !dbg !9284
  invoke void @_Z21GenerateStDevMatricesiR10PoseParamsRSt6vectorIS1_IfSaIfEESaIS3_EE(i32 noundef %131, ptr noundef nonnull align 8 dereferenceable(72) %134, ptr noundef nonnull align 8 dereferenceable(24) %136)
          to label %137 unwind label %65, !dbg !9285

137:                                              ; preds = %135
  store i1 true, ptr %5, align 1, !dbg !9286
  store i32 1, ptr %21, align 4
  br label %138, !dbg !9286

138:                                              ; preds = %137, %125, %114, %103, %96
  call void @_ZNSt6vectorINSt7__cxx1112basic_stringIcSt11char_traitsIcESaIcEEESaIS5_EED2Ev(ptr noundef nonnull align 8 dereferenceable(24) %10) #3, !dbg !9251
  %139 = load i1, ptr %5, align 1, !dbg !9251
  ret i1 %139, !dbg !9251

140:                                              ; preds = %126, %115, %104, %92, %65
  call void @_ZNSt6vectorINSt7__cxx1112basic_stringIcSt11char_traitsIcESaIcEEESaIS5_EED2Ev(ptr noundef nonnull align 8 dereferenceable(24) %10) #3, !dbg !9251
  br label %141, !dbg !9251

141:                                              ; preds = %140, %61
  %142 = load ptr, ptr %12, align 8, !dbg !9224
  %143 = load i32, ptr %13, align 4, !dbg !9224
  %144 = insertvalue { ptr, i32 } poison, ptr %142, 0, !dbg !9224
  %145 = insertvalue { ptr, i32 } %144, i32 %143, 1, !dbg !9224
  resume { ptr, i32 } %145, !dbg !9224
}

declare noundef nonnull align 8 dereferenceable(32) ptr @_ZNSt7__cxx1112basic_stringIcSt11char_traitsIcESaIcEEaSERKS4_(ptr noundef nonnull align 8 dereferenceable(32), ptr noundef nonnull align 8 dereferenceable(32)) #1

; Function Attrs: mustprogress noinline optnone uwtable
define linkonce_odr dso_local void @_ZNSt6vectorI11BinaryImageSaIS0_EE6resizeEm(ptr noundef nonnull align 8 dereferenceable(24) %0, i64 noundef %1) #7 comdat align 2 !dbg !9287 {
  %3 = alloca ptr, align 8
  %4 = alloca i64, align 8
  store ptr %0, ptr %3, align 8
  call void @llvm.dbg.declare(metadata ptr %3, metadata !9288, metadata !DIExpression()), !dbg !9289
  store i64 %1, ptr %4, align 8
  call void @llvm.dbg.declare(metadata ptr %4, metadata !9290, metadata !DIExpression()), !dbg !9291
  %5 = load ptr, ptr %3, align 8
  %6 = load i64, ptr %4, align 8, !dbg !9292
  %7 = call noundef i64 @_ZNKSt6vectorI11BinaryImageSaIS0_EE4sizeEv(ptr noundef nonnull align 8 dereferenceable(24) %5) #3, !dbg !9294
  %8 = icmp ugt i64 %6, %7, !dbg !9295
  br i1 %8, label %9, label %13, !dbg !9296

9:                                                ; preds = %2
  %10 = load i64, ptr %4, align 8, !dbg !9297
  %11 = call noundef i64 @_ZNKSt6vectorI11BinaryImageSaIS0_EE4sizeEv(ptr noundef nonnull align 8 dereferenceable(24) %5) #3, !dbg !9298
  %12 = sub i64 %10, %11, !dbg !9299
  call void @_ZNSt6vectorI11BinaryImageSaIS0_EE17_M_default_appendEm(ptr noundef nonnull align 8 dereferenceable(24) %5, i64 noundef %12), !dbg !9300
  br label %24, !dbg !9300

13:                                               ; preds = %2
  %14 = load i64, ptr %4, align 8, !dbg !9301
  %15 = call noundef i64 @_ZNKSt6vectorI11BinaryImageSaIS0_EE4sizeEv(ptr noundef nonnull align 8 dereferenceable(24) %5) #3, !dbg !9303
  %16 = icmp ult i64 %14, %15, !dbg !9304
  br i1 %16, label %17, label %23, !dbg !9305

17:                                               ; preds = %13
  %18 = getelementptr inbounds %"struct.std::_Vector_base", ptr %5, i32 0, i32 0, !dbg !9306
  %19 = getelementptr inbounds %"struct.std::_Vector_base<BinaryImage, std::allocator<BinaryImage>>::_Vector_impl_data", ptr %18, i32 0, i32 0, !dbg !9307
  %20 = load ptr, ptr %19, align 8, !dbg !9307
  %21 = load i64, ptr %4, align 8, !dbg !9308
  %22 = getelementptr inbounds %class.BinaryImage, ptr %20, i64 %21, !dbg !9309
  call void @_ZNSt6vectorI11BinaryImageSaIS0_EE15_M_erase_at_endEPS0_(ptr noundef nonnull align 8 dereferenceable(24) %5, ptr noundef %22) #3, !dbg !9310
  br label %23, !dbg !9310

23:                                               ; preds = %17, %13
  br label %24

24:                                               ; preds = %23, %9
  ret void, !dbg !9311
}

; Function Attrs: mustprogress noinline optnone uwtable
define linkonce_odr dso_local void @_ZNSt6vectorI9FlexImageIhLi1EESaIS1_EE6resizeEm(ptr noundef nonnull align 8 dereferenceable(24) %0, i64 noundef %1) #7 comdat align 2 !dbg !9312 {
  %3 = alloca ptr, align 8
  %4 = alloca i64, align 8
  store ptr %0, ptr %3, align 8
  call void @llvm.dbg.declare(metadata ptr %3, metadata !9313, metadata !DIExpression()), !dbg !9314
  store i64 %1, ptr %4, align 8
  call void @llvm.dbg.declare(metadata ptr %4, metadata !9315, metadata !DIExpression()), !dbg !9316
  %5 = load ptr, ptr %3, align 8
  %6 = load i64, ptr %4, align 8, !dbg !9317
  %7 = call noundef i64 @_ZNKSt6vectorI9FlexImageIhLi1EESaIS1_EE4sizeEv(ptr noundef nonnull align 8 dereferenceable(24) %5) #3, !dbg !9319
  %8 = icmp ugt i64 %6, %7, !dbg !9320
  br i1 %8, label %9, label %13, !dbg !9321

9:                                                ; preds = %2
  %10 = load i64, ptr %4, align 8, !dbg !9322
  %11 = call noundef i64 @_ZNKSt6vectorI9FlexImageIhLi1EESaIS1_EE4sizeEv(ptr noundef nonnull align 8 dereferenceable(24) %5) #3, !dbg !9323
  %12 = sub i64 %10, %11, !dbg !9324
  call void @_ZNSt6vectorI9FlexImageIhLi1EESaIS1_EE17_M_default_appendEm(ptr noundef nonnull align 8 dereferenceable(24) %5, i64 noundef %12), !dbg !9325
  br label %24, !dbg !9325

13:                                               ; preds = %2
  %14 = load i64, ptr %4, align 8, !dbg !9326
  %15 = call noundef i64 @_ZNKSt6vectorI9FlexImageIhLi1EESaIS1_EE4sizeEv(ptr noundef nonnull align 8 dereferenceable(24) %5) #3, !dbg !9328
  %16 = icmp ult i64 %14, %15, !dbg !9329
  br i1 %16, label %17, label %23, !dbg !9330

17:                                               ; preds = %13
  %18 = getelementptr inbounds %"struct.std::_Vector_base.1", ptr %5, i32 0, i32 0, !dbg !9331
  %19 = getelementptr inbounds %"struct.std::_Vector_base<FlexImage<unsigned char, 1>, std::allocator<FlexImage<unsigned char, 1>>>::_Vector_impl_data", ptr %18, i32 0, i32 0, !dbg !9332
  %20 = load ptr, ptr %19, align 8, !dbg !9332
  %21 = load i64, ptr %4, align 8, !dbg !9333
  %22 = getelementptr inbounds %class.FlexImage, ptr %20, i64 %21, !dbg !9334
  call void @_ZNSt6vectorI9FlexImageIhLi1EESaIS1_EE15_M_erase_at_endEPS1_(ptr noundef nonnull align 8 dereferenceable(24) %5, ptr noundef %22) #3, !dbg !9335
  br label %23, !dbg !9335

23:                                               ; preds = %17, %13
  br label %24

24:                                               ; preds = %23, %9
  ret void, !dbg !9336
}

; Function Attrs: noinline nounwind optnone uwtable
define linkonce_odr dso_local void @_ZNSaINSt7__cxx1112basic_stringIcSt11char_traitsIcESaIcEEEEC2Ev(ptr noundef nonnull align 1 dereferenceable(1) %0) unnamed_addr #6 comdat align 2 !dbg !9337 {
  %2 = alloca ptr, align 8
  store ptr %0, ptr %2, align 8
  call void @llvm.dbg.declare(metadata ptr %2, metadata !9338, metadata !DIExpression()), !dbg !9340
  %3 = load ptr, ptr %2, align 8
  call void @_ZN9__gnu_cxx13new_allocatorINSt7__cxx1112basic_stringIcSt11char_traitsIcESaIcEEEEC2Ev(ptr noundef nonnull align 1 dereferenceable(1) %3) #3, !dbg !9341
  ret void, !dbg !9342
}

; Function Attrs: noinline optnone uwtable
define linkonce_odr dso_local void @_ZNSt6vectorINSt7__cxx1112basic_stringIcSt11char_traitsIcESaIcEEESaIS5_EEC2EmRKS6_(ptr noundef nonnull align 8 dereferenceable(24) %0, i64 noundef %1, ptr noundef nonnull align 1 dereferenceable(1) %2) unnamed_addr #4 comdat align 2 personality ptr @__gxx_personality_v0 !dbg !9343 {
  %4 = alloca ptr, align 8
  %5 = alloca i64, align 8
  %6 = alloca ptr, align 8
  %7 = alloca ptr, align 8
  %8 = alloca i32, align 4
  store ptr %0, ptr %4, align 8
  call void @llvm.dbg.declare(metadata ptr %4, metadata !9344, metadata !DIExpression()), !dbg !9345
  store i64 %1, ptr %5, align 8
  call void @llvm.dbg.declare(metadata ptr %5, metadata !9346, metadata !DIExpression()), !dbg !9347
  store ptr %2, ptr %6, align 8
  call void @llvm.dbg.declare(metadata ptr %6, metadata !9348, metadata !DIExpression()), !dbg !9349
  %9 = load ptr, ptr %4, align 8
  %10 = load i64, ptr %5, align 8, !dbg !9350
  %11 = load ptr, ptr %6, align 8, !dbg !9351
  %12 = call noundef i64 @_ZNSt6vectorINSt7__cxx1112basic_stringIcSt11char_traitsIcESaIcEEESaIS5_EE17_S_check_init_lenEmRKS6_(i64 noundef %10, ptr noundef nonnull align 1 dereferenceable(1) %11), !dbg !9352
  %13 = load ptr, ptr %6, align 8, !dbg !9353
  call void @_ZNSt12_Vector_baseINSt7__cxx1112basic_stringIcSt11char_traitsIcESaIcEEESaIS5_EEC2EmRKS6_(ptr noundef nonnull align 8 dereferenceable(24) %9, i64 noundef %12, ptr noundef nonnull align 1 dereferenceable(1) %13), !dbg !9354
  %14 = load i64, ptr %5, align 8, !dbg !9355
  invoke void @_ZNSt6vectorINSt7__cxx1112basic_stringIcSt11char_traitsIcESaIcEEESaIS5_EE21_M_default_initializeEm(ptr noundef nonnull align 8 dereferenceable(24) %9, i64 noundef %14)
          to label %15 unwind label %16, !dbg !9357

15:                                               ; preds = %3
  ret void, !dbg !9358

16:                                               ; preds = %3
  %17 = landingpad { ptr, i32 }
          cleanup, !dbg !9359
  %18 = extractvalue { ptr, i32 } %17, 0, !dbg !9359
  store ptr %18, ptr %7, align 8, !dbg !9359
  %19 = extractvalue { ptr, i32 } %17, 1, !dbg !9359
  store i32 %19, ptr %8, align 4, !dbg !9359
  call void @_ZNSt12_Vector_baseINSt7__cxx1112basic_stringIcSt11char_traitsIcESaIcEEESaIS5_EED2Ev(ptr noundef nonnull align 8 dereferenceable(24) %9) #3, !dbg !9359
  br label %20, !dbg !9359

20:                                               ; preds = %16
  %21 = load ptr, ptr %7, align 8, !dbg !9359
  %22 = load i32, ptr %8, align 4, !dbg !9359
  %23 = insertvalue { ptr, i32 } poison, ptr %21, 0, !dbg !9359
  %24 = insertvalue { ptr, i32 } %23, i32 %22, 1, !dbg !9359
  resume { ptr, i32 } %24, !dbg !9359
}

; Function Attrs: noinline nounwind optnone uwtable
define linkonce_odr dso_local void @_ZNSaINSt7__cxx1112basic_stringIcSt11char_traitsIcESaIcEEEED2Ev(ptr noundef nonnull align 1 dereferenceable(1) %0) unnamed_addr #6 comdat align 2 !dbg !9360 {
  %2 = alloca ptr, align 8
  store ptr %0, ptr %2, align 8
  call void @llvm.dbg.declare(metadata ptr %2, metadata !9361, metadata !DIExpression()), !dbg !9362
  %3 = load ptr, ptr %2, align 8
  call void @_ZN9__gnu_cxx13new_allocatorINSt7__cxx1112basic_stringIcSt11char_traitsIcESaIcEEEED2Ev(ptr noundef nonnull align 1 dereferenceable(1) %3) #3, !dbg !9363
  ret void, !dbg !9365
}

; Function Attrs: mustprogress noinline optnone uwtable
define linkonce_odr dso_local void @_ZStplIcSt11char_traitsIcESaIcEENSt7__cxx1112basic_stringIT_T0_T1_EEOS8_PKS5_(ptr noalias sret(%"class.std::__cxx11::basic_string") align 8 %0, ptr noundef nonnull align 8 dereferenceable(32) %1, ptr noundef %2) #7 comdat !dbg !9366 {
  %4 = alloca ptr, align 8
  %5 = alloca ptr, align 8
  %6 = alloca ptr, align 8
  store ptr %0, ptr %4, align 8
  store ptr %1, ptr %5, align 8
  call void @llvm.dbg.declare(metadata ptr %5, metadata !9427, metadata !DIExpression()), !dbg !9428
  store ptr %2, ptr %6, align 8
  call void @llvm.dbg.declare(metadata ptr %6, metadata !9429, metadata !DIExpression()), !dbg !9430
  %7 = load ptr, ptr %5, align 8, !dbg !9431
  %8 = load ptr, ptr %6, align 8, !dbg !9432
  %9 = call noundef nonnull align 8 dereferenceable(32) ptr @_ZNSt7__cxx1112basic_stringIcSt11char_traitsIcESaIcEE6appendEPKc(ptr noundef nonnull align 8 dereferenceable(32) %7, ptr noundef %8), !dbg !9433
  call void @_ZNSt7__cxx1112basic_stringIcSt11char_traitsIcESaIcEEC1EOS4_(ptr noundef nonnull align 8 dereferenceable(32) %0, ptr noundef nonnull align 8 dereferenceable(32) %9) #3, !dbg !9434
  ret void, !dbg !9435
}

; Function Attrs: mustprogress noinline optnone uwtable
define linkonce_odr dso_local void @_ZStplIcSt11char_traitsIcESaIcEENSt7__cxx1112basic_stringIT_T0_T1_EEOS8_S9_(ptr noalias sret(%"class.std::__cxx11::basic_string") align 8 %0, ptr noundef nonnull align 8 dereferenceable(32) %1, ptr noundef nonnull align 8 dereferenceable(32) %2) #7 comdat !dbg !9436 {
  %4 = alloca ptr, align 8
  %5 = alloca ptr, align 8
  %6 = alloca ptr, align 8
  %7 = alloca i8, align 1
  %8 = alloca i64, align 8
  store ptr %0, ptr %4, align 8
  store ptr %1, ptr %5, align 8
  call void @llvm.dbg.declare(metadata ptr %5, metadata !9439, metadata !DIExpression()), !dbg !9440
  store ptr %2, ptr %6, align 8
  call void @llvm.dbg.declare(metadata ptr %6, metadata !9441, metadata !DIExpression()), !dbg !9442
  call void @llvm.dbg.declare(metadata ptr %7, metadata !9443, metadata !DIExpression()), !dbg !9444
  store i8 0, ptr %7, align 1, !dbg !9444
  store i8 1, ptr %7, align 1, !dbg !9445
  %9 = load i8, ptr %7, align 1, !dbg !9447
  %10 = trunc i8 %9 to i1, !dbg !9447
  br i1 %10, label %11, label %31, !dbg !9449

11:                                               ; preds = %3
  call void @llvm.dbg.declare(metadata ptr %8, metadata !9450, metadata !DIExpression()), !dbg !9498
  %12 = load ptr, ptr %5, align 8, !dbg !9499
  %13 = call noundef i64 @_ZNKSt7__cxx1112basic_stringIcSt11char_traitsIcESaIcEE4sizeEv(ptr noundef nonnull align 8 dereferenceable(32) %12) #3, !dbg !9500
  %14 = load ptr, ptr %6, align 8, !dbg !9501
  %15 = call noundef i64 @_ZNKSt7__cxx1112basic_stringIcSt11char_traitsIcESaIcEE4sizeEv(ptr noundef nonnull align 8 dereferenceable(32) %14) #3, !dbg !9502
  %16 = add i64 %13, %15, !dbg !9503
  store i64 %16, ptr %8, align 8, !dbg !9498
  %17 = load i64, ptr %8, align 8, !dbg !9504
  %18 = load ptr, ptr %5, align 8, !dbg !9506
  %19 = call noundef i64 @_ZNKSt7__cxx1112basic_stringIcSt11char_traitsIcESaIcEE8capacityEv(ptr noundef nonnull align 8 dereferenceable(32) %18) #3, !dbg !9507
  %20 = icmp ugt i64 %17, %19, !dbg !9508
  br i1 %20, label %21, label %30, !dbg !9509

21:                                               ; preds = %11
  %22 = load i64, ptr %8, align 8, !dbg !9510
  %23 = load ptr, ptr %6, align 8, !dbg !9511
  %24 = call noundef i64 @_ZNKSt7__cxx1112basic_stringIcSt11char_traitsIcESaIcEE8capacityEv(ptr noundef nonnull align 8 dereferenceable(32) %23) #3, !dbg !9512
  %25 = icmp ule i64 %22, %24, !dbg !9513
  br i1 %25, label %26, label %30, !dbg !9514

26:                                               ; preds = %21
  %27 = load ptr, ptr %6, align 8, !dbg !9515
  %28 = load ptr, ptr %5, align 8, !dbg !9516
  %29 = call noundef nonnull align 8 dereferenceable(32) ptr @_ZNSt7__cxx1112basic_stringIcSt11char_traitsIcESaIcEE6insertEmRKS4_(ptr noundef nonnull align 8 dereferenceable(32) %27, i64 noundef 0, ptr noundef nonnull align 8 dereferenceable(32) %28), !dbg !9517
  call void @_ZNSt7__cxx1112basic_stringIcSt11char_traitsIcESaIcEEC1EOS4_(ptr noundef nonnull align 8 dereferenceable(32) %0, ptr noundef nonnull align 8 dereferenceable(32) %29) #3, !dbg !9518
  br label %35, !dbg !9519

30:                                               ; preds = %21, %11
  br label %31, !dbg !9520

31:                                               ; preds = %30, %3
  %32 = load ptr, ptr %5, align 8, !dbg !9521
  %33 = load ptr, ptr %6, align 8, !dbg !9522
  %34 = call noundef nonnull align 8 dereferenceable(32) ptr @_ZNSt7__cxx1112basic_stringIcSt11char_traitsIcESaIcEE6appendERKS4_(ptr noundef nonnull align 8 dereferenceable(32) %32, ptr noundef nonnull align 8 dereferenceable(32) %33), !dbg !9523
  call void @_ZNSt7__cxx1112basic_stringIcSt11char_traitsIcESaIcEEC1EOS4_(ptr noundef nonnull align 8 dereferenceable(32) %0, ptr noundef nonnull align 8 dereferenceable(32) %34) #3, !dbg !9524
  br label %35, !dbg !9525

35:                                               ; preds = %31, %26
  ret void, !dbg !9526
}

; Function Attrs: mustprogress noinline optnone uwtable
define linkonce_odr dso_local void @_ZStplIcSt11char_traitsIcESaIcEENSt7__cxx1112basic_stringIT_T0_T1_EERKS8_PKS5_(ptr noalias sret(%"class.std::__cxx11::basic_string") align 8 %0, ptr noundef nonnull align 8 dereferenceable(32) %1, ptr noundef %2) #7 comdat personality ptr @__gxx_personality_v0 !dbg !9527 {
  %4 = alloca ptr, align 8
  %5 = alloca ptr, align 8
  %6 = alloca ptr, align 8
  %7 = alloca i1, align 1
  %8 = alloca ptr, align 8
  %9 = alloca i32, align 4
  store ptr %0, ptr %4, align 8
  store ptr %1, ptr %5, align 8
  call void @llvm.dbg.declare(metadata ptr %5, metadata !9530, metadata !DIExpression()), !dbg !9531
  store ptr %2, ptr %6, align 8
  call void @llvm.dbg.declare(metadata ptr %6, metadata !9532, metadata !DIExpression()), !dbg !9533
  store i1 false, ptr %7, align 1, !dbg !9534
  call void @llvm.dbg.declare(metadata ptr %4, metadata !9535, metadata !DIExpression(DW_OP_deref)), !dbg !9536
  %10 = load ptr, ptr %5, align 8, !dbg !9537
  call void @_ZNSt7__cxx1112basic_stringIcSt11char_traitsIcESaIcEEC1ERKS4_(ptr noundef nonnull align 8 dereferenceable(32) %0, ptr noundef nonnull align 8 dereferenceable(32) %10), !dbg !9536
  %11 = load ptr, ptr %6, align 8, !dbg !9538
  %12 = invoke noundef nonnull align 8 dereferenceable(32) ptr @_ZNSt7__cxx1112basic_stringIcSt11char_traitsIcESaIcEE6appendEPKc(ptr noundef nonnull align 8 dereferenceable(32) %0, ptr noundef %11)
          to label %13 unwind label %15, !dbg !9539

13:                                               ; preds = %3
  store i1 true, ptr %7, align 1, !dbg !9540
  %14 = load i1, ptr %7, align 1, !dbg !9541
  br i1 %14, label %20, label %19, !dbg !9541

15:                                               ; preds = %3
  %16 = landingpad { ptr, i32 }
          cleanup, !dbg !9541
  %17 = extractvalue { ptr, i32 } %16, 0, !dbg !9541
  store ptr %17, ptr %8, align 8, !dbg !9541
  %18 = extractvalue { ptr, i32 } %16, 1, !dbg !9541
  store i32 %18, ptr %9, align 4, !dbg !9541
  call void @_ZNSt7__cxx1112basic_stringIcSt11char_traitsIcESaIcEED1Ev(ptr noundef nonnull align 8 dereferenceable(32) %0) #3, !dbg !9541
  br label %21, !dbg !9541

19:                                               ; preds = %13
  call void @_ZNSt7__cxx1112basic_stringIcSt11char_traitsIcESaIcEED1Ev(ptr noundef nonnull align 8 dereferenceable(32) %0) #3, !dbg !9541
  br label %20, !dbg !9541

20:                                               ; preds = %19, %13
  ret void, !dbg !9541

21:                                               ; preds = %15
  %22 = load ptr, ptr %8, align 8, !dbg !9541
  %23 = load i32, ptr %9, align 4, !dbg !9541
  %24 = insertvalue { ptr, i32 } poison, ptr %22, 0, !dbg !9541
  %25 = insertvalue { ptr, i32 } %24, i32 %23, 1, !dbg !9541
  resume { ptr, i32 } %25, !dbg !9541
}

; Function Attrs: mustprogress noinline optnone uwtable
define linkonce_odr dso_local void @_Z3strIiENSt7__cxx1112basic_stringIcSt11char_traitsIcESaIcEEET_ic(ptr noalias sret(%"class.std::__cxx11::basic_string") align 8 %0, i32 noundef %1, i32 noundef %2, i8 noundef signext %3) #7 comdat personality ptr @__gxx_personality_v0 !dbg !9542 {
  %5 = alloca ptr, align 8
  %6 = alloca i32, align 4
  %7 = alloca i32, align 4
  %8 = alloca i8, align 1
  %9 = alloca %"class.std::__cxx11::basic_stringstream", align 8
  %10 = alloca %"struct.std::_Setw", align 4
  %11 = alloca ptr, align 8
  %12 = alloca i32, align 4
  %13 = alloca %"struct.std::_Setfill", align 1
  store ptr %0, ptr %5, align 8
  store i32 %1, ptr %6, align 4
  call void @llvm.dbg.declare(metadata ptr %6, metadata !9547, metadata !DIExpression()), !dbg !9548
  store i32 %2, ptr %7, align 4
  call void @llvm.dbg.declare(metadata ptr %7, metadata !9549, metadata !DIExpression()), !dbg !9550
  store i8 %3, ptr %8, align 1
  call void @llvm.dbg.declare(metadata ptr %8, metadata !9551, metadata !DIExpression()), !dbg !9552
  call void @llvm.dbg.declare(metadata ptr %9, metadata !9553, metadata !DIExpression()), !dbg !9557
  call void @_ZNSt7__cxx1118basic_stringstreamIcSt11char_traitsIcESaIcEEC1Ev(ptr noundef nonnull align 8 dereferenceable(128) %9), !dbg !9557
  %14 = getelementptr inbounds i8, ptr %9, i64 16, !dbg !9558
  %15 = load i32, ptr %7, align 4, !dbg !9559
  %16 = invoke i32 @_ZSt4setwi(i32 noundef %15)
          to label %17 unwind label %35, !dbg !9560

17:                                               ; preds = %4
  %18 = getelementptr inbounds %"struct.std::_Setw", ptr %10, i32 0, i32 0, !dbg !9560
  store i32 %16, ptr %18, align 4, !dbg !9560
  %19 = getelementptr inbounds %"struct.std::_Setw", ptr %10, i32 0, i32 0, !dbg !9561
  %20 = load i32, ptr %19, align 4, !dbg !9561
  %21 = invoke noundef nonnull align 8 dereferenceable(8) ptr @_ZStlsIcSt11char_traitsIcEERSt13basic_ostreamIT_T0_ES6_St5_Setw(ptr noundef nonnull align 8 dereferenceable(8) %14, i32 %20)
          to label %22 unwind label %35, !dbg !9561

22:                                               ; preds = %17
  %23 = load i8, ptr %8, align 1, !dbg !9562
  %24 = invoke i8 @_ZSt7setfillIcESt8_SetfillIT_ES1_(i8 noundef signext %23)
          to label %25 unwind label %35, !dbg !9563

25:                                               ; preds = %22
  %26 = getelementptr inbounds %"struct.std::_Setfill", ptr %13, i32 0, i32 0, !dbg !9563
  store i8 %24, ptr %26, align 1, !dbg !9563
  %27 = getelementptr inbounds %"struct.std::_Setfill", ptr %13, i32 0, i32 0, !dbg !9564
  %28 = load i8, ptr %27, align 1, !dbg !9564
  %29 = invoke noundef nonnull align 8 dereferenceable(8) ptr @_ZStlsIcSt11char_traitsIcEERSt13basic_ostreamIT_T0_ES6_St8_SetfillIS3_E(ptr noundef nonnull align 8 dereferenceable(8) %21, i8 %28)
          to label %30 unwind label %35, !dbg !9564

30:                                               ; preds = %25
  %31 = load i32, ptr %6, align 4, !dbg !9565
  %32 = invoke noundef nonnull align 8 dereferenceable(8) ptr @_ZNSolsEi(ptr noundef nonnull align 8 dereferenceable(8) %29, i32 noundef %31)
          to label %33 unwind label %35, !dbg !9566

33:                                               ; preds = %30
  invoke void @_ZNKSt7__cxx1118basic_stringstreamIcSt11char_traitsIcESaIcEE3strEv(ptr sret(%"class.std::__cxx11::basic_string") align 8 %0, ptr noundef nonnull align 8 dereferenceable(128) %9)
          to label %34 unwind label %35, !dbg !9567

34:                                               ; preds = %33
  call void @_ZNSt7__cxx1118basic_stringstreamIcSt11char_traitsIcESaIcEED1Ev(ptr noundef nonnull align 8 dereferenceable(128) %9) #3, !dbg !9568
  ret void, !dbg !9568

35:                                               ; preds = %33, %30, %25, %22, %17, %4
  %36 = landingpad { ptr, i32 }
          cleanup, !dbg !9568
  %37 = extractvalue { ptr, i32 } %36, 0, !dbg !9568
  store ptr %37, ptr %11, align 8, !dbg !9568
  %38 = extractvalue { ptr, i32 } %36, 1, !dbg !9568
  store i32 %38, ptr %12, align 4, !dbg !9568
  call void @_ZNSt7__cxx1118basic_stringstreamIcSt11char_traitsIcESaIcEED1Ev(ptr noundef nonnull align 8 dereferenceable(128) %9) #3, !dbg !9568
  br label %39, !dbg !9568

39:                                               ; preds = %35
  %40 = load ptr, ptr %11, align 8, !dbg !9568
  %41 = load i32, ptr %12, align 4, !dbg !9568
  %42 = insertvalue { ptr, i32 } poison, ptr %40, 0, !dbg !9568
  %43 = insertvalue { ptr, i32 } %42, i32 %41, 1, !dbg !9568
  resume { ptr, i32 } %43, !dbg !9568
}

; Function Attrs: nounwind
declare noundef nonnull align 8 dereferenceable(32) ptr @_ZNSt7__cxx1112basic_stringIcSt11char_traitsIcESaIcEEaSEOS4_(ptr noundef nonnull align 8 dereferenceable(32), ptr noundef nonnull align 8 dereferenceable(32)) #2

; Function Attrs: mustprogress noinline optnone uwtable
define linkonce_odr dso_local noundef zeroext i1 @_ZN13TrackingModel12InitGeometryERKNSt7__cxx1112basic_stringIcSt11char_traitsIcESaIcEEE(ptr noundef nonnull align 8 dereferenceable(240) %0, ptr noundef nonnull align 8 dereferenceable(32) %1) #7 comdat align 2 personality ptr @__gxx_personality_v0 !dbg !9569 {
  %3 = alloca ptr, align 8
  %4 = alloca ptr, align 8
  %5 = alloca %"class.std::__cxx11::basic_string", align 8
  %6 = alloca ptr, align 8
  %7 = alloca i32, align 4
  store ptr %0, ptr %3, align 8
  call void @llvm.dbg.declare(metadata ptr %3, metadata !9570, metadata !DIExpression()), !dbg !9571
  store ptr %1, ptr %4, align 8
  call void @llvm.dbg.declare(metadata ptr %4, metadata !9572, metadata !DIExpression()), !dbg !9573
  %8 = load ptr, ptr %3, align 8
  %9 = getelementptr inbounds %class.TrackingModel, ptr %8, i32 0, i32 5, !dbg !9574
  %10 = call noundef nonnull align 8 dereferenceable(352) ptr @_ZNSt6vectorI12BodyGeometrySaIS0_EEixEm(ptr noundef nonnull align 8 dereferenceable(24) %9, i64 noundef 0) #3, !dbg !9574
  %11 = load ptr, ptr %4, align 8, !dbg !9575
  call void @_ZNSt7__cxx1112basic_stringIcSt11char_traitsIcESaIcEEC1ERKS4_(ptr noundef nonnull align 8 dereferenceable(32) %5, ptr noundef nonnull align 8 dereferenceable(32) %11), !dbg !9575
  %12 = invoke noundef zeroext i1 @_ZN12BodyGeometry13InitBodyShapeENSt7__cxx1112basic_stringIcSt11char_traitsIcESaIcEEE(ptr noundef nonnull align 8 dereferenceable(352) %10, ptr noundef %5)
          to label %13 unwind label %14, !dbg !9576

13:                                               ; preds = %2
  call void @_ZNSt7__cxx1112basic_stringIcSt11char_traitsIcESaIcEED1Ev(ptr noundef nonnull align 8 dereferenceable(32) %5) #3, !dbg !9577
  ret i1 %12, !dbg !9577

14:                                               ; preds = %2
  %15 = landingpad { ptr, i32 }
          cleanup, !dbg !9578
  %16 = extractvalue { ptr, i32 } %15, 0, !dbg !9578
  store ptr %16, ptr %6, align 8, !dbg !9578
  %17 = extractvalue { ptr, i32 } %15, 1, !dbg !9578
  store i32 %17, ptr %7, align 4, !dbg !9578
  call void @_ZNSt7__cxx1112basic_stringIcSt11char_traitsIcESaIcEED1Ev(ptr noundef nonnull align 8 dereferenceable(32) %5) #3, !dbg !9577
  br label %18, !dbg !9577

18:                                               ; preds = %14
  %19 = load ptr, ptr %6, align 8, !dbg !9577
  %20 = load i32, ptr %7, align 4, !dbg !9577
  %21 = insertvalue { ptr, i32 } poison, ptr %19, 0, !dbg !9577
  %22 = insertvalue { ptr, i32 } %21, i32 %20, 1, !dbg !9577
  resume { ptr, i32 } %22, !dbg !9577
}

; Function Attrs: mustprogress noinline optnone uwtable
define linkonce_odr dso_local noundef zeroext i1 @_ZN13TrackingModel16LoadInitialStateERKNSt7__cxx1112basic_stringIcSt11char_traitsIcESaIcEEE(ptr noundef nonnull align 8 dereferenceable(240) %0, ptr noundef nonnull align 8 dereferenceable(32) %1) #7 comdat align 2 personality ptr @__gxx_personality_v0 !dbg !9579 {
  %3 = alloca ptr, align 8
  %4 = alloca ptr, align 8
  %5 = alloca %"class.std::__cxx11::basic_string", align 8
  %6 = alloca ptr, align 8
  %7 = alloca i32, align 4
  store ptr %0, ptr %3, align 8
  call void @llvm.dbg.declare(metadata ptr %3, metadata !9580, metadata !DIExpression()), !dbg !9581
  store ptr %1, ptr %4, align 8
  call void @llvm.dbg.declare(metadata ptr %4, metadata !9582, metadata !DIExpression()), !dbg !9583
  %8 = load ptr, ptr %3, align 8
  %9 = getelementptr inbounds %class.TrackingModel, ptr %8, i32 0, i32 4, !dbg !9584
  %10 = call noundef nonnull align 8 dereferenceable(96) ptr @_ZNSt6vectorI8BodyPoseSaIS0_EEixEm(ptr noundef nonnull align 8 dereferenceable(24) %9, i64 noundef 0) #3, !dbg !9584
  %11 = load ptr, ptr %4, align 8, !dbg !9585
  call void @_ZNSt7__cxx1112basic_stringIcSt11char_traitsIcESaIcEEC1ERKS4_(ptr noundef nonnull align 8 dereferenceable(32) %5, ptr noundef nonnull align 8 dereferenceable(32) %11), !dbg !9585
  %12 = invoke noundef zeroext i1 @_ZN8BodyPose10InitializeENSt7__cxx1112basic_stringIcSt11char_traitsIcESaIcEEE(ptr noundef nonnull align 8 dereferenceable(96) %10, ptr noundef %5)
          to label %13 unwind label %14, !dbg !9586

13:                                               ; preds = %2
  call void @_ZNSt7__cxx1112basic_stringIcSt11char_traitsIcESaIcEED1Ev(ptr noundef nonnull align 8 dereferenceable(32) %5) #3, !dbg !9587
  ret i1 %12, !dbg !9587

14:                                               ; preds = %2
  %15 = landingpad { ptr, i32 }
          cleanup, !dbg !9588
  %16 = extractvalue { ptr, i32 } %15, 0, !dbg !9588
  store ptr %16, ptr %6, align 8, !dbg !9588
  %17 = extractvalue { ptr, i32 } %15, 1, !dbg !9588
  store i32 %17, ptr %7, align 4, !dbg !9588
  call void @_ZNSt7__cxx1112basic_stringIcSt11char_traitsIcESaIcEED1Ev(ptr noundef nonnull align 8 dereferenceable(32) %5) #3, !dbg !9587
  br label %18, !dbg !9587

18:                                               ; preds = %14
  %19 = load ptr, ptr %6, align 8, !dbg !9587
  %20 = load i32, ptr %7, align 4, !dbg !9587
  %21 = insertvalue { ptr, i32 } poison, ptr %19, 0, !dbg !9587
  %22 = insertvalue { ptr, i32 } %21, i32 %20, 1, !dbg !9587
  resume { ptr, i32 } %22, !dbg !9587
}

; Function Attrs: mustprogress noinline optnone uwtable
define linkonce_odr dso_local noundef zeroext i1 @_ZN13TrackingModel18LoadPoseParametersERKNSt7__cxx1112basic_stringIcSt11char_traitsIcESaIcEEE(ptr noundef nonnull align 8 dereferenceable(240) %0, ptr noundef nonnull align 8 dereferenceable(32) %1) #7 comdat align 2 personality ptr @__gxx_personality_v0 !dbg !9589 {
  %3 = alloca ptr, align 8
  %4 = alloca ptr, align 8
  %5 = alloca %"class.std::__cxx11::basic_string", align 8
  %6 = alloca ptr, align 8
  %7 = alloca i32, align 4
  store ptr %0, ptr %3, align 8
  call void @llvm.dbg.declare(metadata ptr %3, metadata !9590, metadata !DIExpression()), !dbg !9591
  store ptr %1, ptr %4, align 8
  call void @llvm.dbg.declare(metadata ptr %4, metadata !9592, metadata !DIExpression()), !dbg !9593
  %8 = load ptr, ptr %3, align 8
  %9 = getelementptr inbounds %class.TrackingModel, ptr %8, i32 0, i32 4, !dbg !9594
  %10 = call noundef nonnull align 8 dereferenceable(96) ptr @_ZNSt6vectorI8BodyPoseSaIS0_EEixEm(ptr noundef nonnull align 8 dereferenceable(24) %9, i64 noundef 0) #3, !dbg !9594
  %11 = load ptr, ptr %4, align 8, !dbg !9595
  call void @_ZNSt7__cxx1112basic_stringIcSt11char_traitsIcESaIcEEC1ERKS4_(ptr noundef nonnull align 8 dereferenceable(32) %5, ptr noundef nonnull align 8 dereferenceable(32) %11), !dbg !9595
  %12 = invoke noundef zeroext i1 @_ZN8BodyPose10InitParamsENSt7__cxx1112basic_stringIcSt11char_traitsIcESaIcEEE(ptr noundef nonnull align 8 dereferenceable(96) %10, ptr noundef %5)
          to label %13 unwind label %14, !dbg !9596

13:                                               ; preds = %2
  call void @_ZNSt7__cxx1112basic_stringIcSt11char_traitsIcESaIcEED1Ev(ptr noundef nonnull align 8 dereferenceable(32) %5) #3, !dbg !9597
  ret i1 %12, !dbg !9597

14:                                               ; preds = %2
  %15 = landingpad { ptr, i32 }
          cleanup, !dbg !9598
  %16 = extractvalue { ptr, i32 } %15, 0, !dbg !9598
  store ptr %16, ptr %6, align 8, !dbg !9598
  %17 = extractvalue { ptr, i32 } %15, 1, !dbg !9598
  store i32 %17, ptr %7, align 4, !dbg !9598
  call void @_ZNSt7__cxx1112basic_stringIcSt11char_traitsIcESaIcEED1Ev(ptr noundef nonnull align 8 dereferenceable(32) %5) #3, !dbg !9597
  br label %18, !dbg !9597

18:                                               ; preds = %14
  %19 = load ptr, ptr %6, align 8, !dbg !9597
  %20 = load i32, ptr %7, align 4, !dbg !9597
  %21 = insertvalue { ptr, i32 } poison, ptr %19, 0, !dbg !9597
  %22 = insertvalue { ptr, i32 } %21, i32 %20, 1, !dbg !9597
  resume { ptr, i32 } %22, !dbg !9597
}

declare void @_Z21GenerateStDevMatricesiR10PoseParamsRSt6vectorIS1_IfSaIfEESaIS3_EE(i32 noundef, ptr noundef nonnull align 8 dereferenceable(72), ptr noundef nonnull align 8 dereferenceable(24)) #1

; Function Attrs: mustprogress noinline nounwind optnone uwtable
define linkonce_odr dso_local noundef nonnull align 8 dereferenceable(96) ptr @_ZNSt6vectorI8BodyPoseSaIS0_EEixEm(ptr noundef nonnull align 8 dereferenceable(24) %0, i64 noundef %1) #8 comdat align 2 !dbg !9599 {
  %3 = alloca ptr, align 8
  %4 = alloca i64, align 8
  store ptr %0, ptr %3, align 8
  call void @llvm.dbg.declare(metadata ptr %3, metadata !9600, metadata !DIExpression()), !dbg !9601
  store i64 %1, ptr %4, align 8
  call void @llvm.dbg.declare(metadata ptr %4, metadata !9602, metadata !DIExpression()), !dbg !9603
  %5 = load ptr, ptr %3, align 8
  %6 = getelementptr inbounds %"struct.std::_Vector_base.16", ptr %5, i32 0, i32 0, !dbg !9604
  %7 = getelementptr inbounds %"struct.std::_Vector_base<BodyPose, std::allocator<BodyPose>>::_Vector_impl_data", ptr %6, i32 0, i32 0, !dbg !9605
  %8 = load ptr, ptr %7, align 8, !dbg !9605
  %9 = load i64, ptr %4, align 8, !dbg !9606
  %10 = getelementptr inbounds %class.BodyPose, ptr %8, i64 %9, !dbg !9607
  ret ptr %10, !dbg !9608
}

; Function Attrs: mustprogress noinline nounwind optnone uwtable
define linkonce_odr dso_local noundef nonnull align 8 dereferenceable(72) ptr @_ZN8BodyPose6ParamsEv(ptr noundef nonnull align 8 dereferenceable(96) %0) #8 comdat align 2 !dbg !9609 {
  %2 = alloca ptr, align 8
  store ptr %0, ptr %2, align 8
  call void @llvm.dbg.declare(metadata ptr %2, metadata !9610, metadata !DIExpression()), !dbg !9611
  %3 = load ptr, ptr %2, align 8
  %4 = getelementptr inbounds %class.BodyPose, ptr %3, i32 0, i32 0, !dbg !9612
  ret ptr %4, !dbg !9613
}

; Function Attrs: noinline nounwind optnone uwtable
define linkonce_odr dso_local void @_ZNSt6vectorINSt7__cxx1112basic_stringIcSt11char_traitsIcESaIcEEESaIS5_EED2Ev(ptr noundef nonnull align 8 dereferenceable(24) %0) unnamed_addr #6 comdat align 2 personality ptr @__gxx_personality_v0 !dbg !9614 {
  %2 = alloca ptr, align 8
  store ptr %0, ptr %2, align 8
  call void @llvm.dbg.declare(metadata ptr %2, metadata !9615, metadata !DIExpression()), !dbg !9616
  %3 = load ptr, ptr %2, align 8
  %4 = getelementptr inbounds %"struct.std::_Vector_base.69", ptr %3, i32 0, i32 0, !dbg !9617
  %5 = getelementptr inbounds %"struct.std::_Vector_base<std::__cxx11::basic_string<char>, std::allocator<std::__cxx11::basic_string<char>>>::_Vector_impl_data", ptr %4, i32 0, i32 0, !dbg !9619
  %6 = load ptr, ptr %5, align 8, !dbg !9619
  %7 = getelementptr inbounds %"struct.std::_Vector_base.69", ptr %3, i32 0, i32 0, !dbg !9620
  %8 = getelementptr inbounds %"struct.std::_Vector_base<std::__cxx11::basic_string<char>, std::allocator<std::__cxx11::basic_string<char>>>::_Vector_impl_data", ptr %7, i32 0, i32 1, !dbg !9621
  %9 = load ptr, ptr %8, align 8, !dbg !9621
  %10 = call noundef nonnull align 1 dereferenceable(1) ptr @_ZNSt12_Vector_baseINSt7__cxx1112basic_stringIcSt11char_traitsIcESaIcEEESaIS5_EE19_M_get_Tp_allocatorEv(ptr noundef nonnull align 8 dereferenceable(24) %3) #3, !dbg !9622
  invoke void @_ZSt8_DestroyIPNSt7__cxx1112basic_stringIcSt11char_traitsIcESaIcEEES5_EvT_S7_RSaIT0_E(ptr noundef %6, ptr noundef %9, ptr noundef nonnull align 1 dereferenceable(1) %10)
          to label %11 unwind label %12, !dbg !9623

11:                                               ; preds = %1
  call void @_ZNSt12_Vector_baseINSt7__cxx1112basic_stringIcSt11char_traitsIcESaIcEEESaIS5_EED2Ev(ptr noundef nonnull align 8 dereferenceable(24) %3) #3, !dbg !9624
  ret void, !dbg !9625

12:                                               ; preds = %1
  %13 = landingpad { ptr, i32 }
          catch ptr null, !dbg !9623
  %14 = extractvalue { ptr, i32 } %13, 0, !dbg !9623
  call void @__clang_call_terminate(ptr %14) #17, !dbg !9623
  unreachable, !dbg !9623
}

; Function Attrs: mustprogress noinline optnone uwtable
define dso_local noundef float @_ZN13TrackingModel13LogLikelihoodERKSt6vectorIfSaIfEERbi(ptr noundef nonnull align 8 dereferenceable(240) %0, ptr noundef nonnull align 8 dereferenceable(24) %1, ptr noundef nonnull align 1 dereferenceable(1) %2, i32 noundef %3) #7 align 2 !dbg !9626 {
  %5 = alloca float, align 4
  %6 = alloca ptr, align 8
  %7 = alloca ptr, align 8
  %8 = alloca ptr, align 8
  %9 = alloca i32, align 4
  %10 = alloca ptr, align 8
  %11 = alloca ptr, align 8
  %12 = alloca ptr, align 8
  %13 = alloca ptr, align 8
  %14 = alloca float, align 4
  store ptr %0, ptr %6, align 8
  call void @llvm.dbg.declare(metadata ptr %6, metadata !9627, metadata !DIExpression()), !dbg !9628
  store ptr %1, ptr %7, align 8
  call void @llvm.dbg.declare(metadata ptr %7, metadata !9629, metadata !DIExpression()), !dbg !9630
  store ptr %2, ptr %8, align 8
  call void @llvm.dbg.declare(metadata ptr %8, metadata !9631, metadata !DIExpression()), !dbg !9632
  store i32 %3, ptr %9, align 4
  call void @llvm.dbg.declare(metadata ptr %9, metadata !9633, metadata !DIExpression()), !dbg !9634
  %15 = load ptr, ptr %6, align 8
  call void @llvm.dbg.declare(metadata ptr %10, metadata !9635, metadata !DIExpression()), !dbg !9636
  %16 = getelementptr inbounds %class.TrackingModel, ptr %15, i32 0, i32 4, !dbg !9637
  %17 = load i32, ptr %9, align 4, !dbg !9638
  %18 = sext i32 %17 to i64, !dbg !9638
  %19 = call noundef nonnull align 8 dereferenceable(96) ptr @_ZNSt6vectorI8BodyPoseSaIS0_EEixEm(ptr noundef nonnull align 8 dereferenceable(24) %16, i64 noundef %18) #3, !dbg !9637
  store ptr %19, ptr %10, align 8, !dbg !9636
  call void @llvm.dbg.declare(metadata ptr %11, metadata !9639, metadata !DIExpression()), !dbg !9640
  %20 = getelementptr inbounds %class.TrackingModel, ptr %15, i32 0, i32 5, !dbg !9641
  %21 = load i32, ptr %9, align 4, !dbg !9642
  %22 = sext i32 %21 to i64, !dbg !9642
  %23 = call noundef nonnull align 8 dereferenceable(352) ptr @_ZNSt6vectorI12BodyGeometrySaIS0_EEixEm(ptr noundef nonnull align 8 dereferenceable(24) %20, i64 noundef %22) #3, !dbg !9641
  store ptr %23, ptr %11, align 8, !dbg !9640
  call void @llvm.dbg.declare(metadata ptr %12, metadata !9643, metadata !DIExpression()), !dbg !9644
  %24 = getelementptr inbounds %class.TrackingModel, ptr %15, i32 0, i32 7, !dbg !9645
  %25 = load i32, ptr %9, align 4, !dbg !9646
  %26 = sext i32 %25 to i64, !dbg !9646
  %27 = call noundef nonnull align 8 dereferenceable(24) ptr @_ZNSt6vectorI24MultiCameraProjectedBodySaIS0_EEixEm(ptr noundef nonnull align 8 dereferenceable(24) %24, i64 noundef %26) #3, !dbg !9645
  store ptr %27, ptr %12, align 8, !dbg !9644
  call void @llvm.dbg.declare(metadata ptr %13, metadata !9647, metadata !DIExpression()), !dbg !9648
  %28 = getelementptr inbounds %class.TrackingModel, ptr %15, i32 0, i32 8, !dbg !9649
  %29 = load i32, ptr %9, align 4, !dbg !9650
  %30 = sext i32 %29 to i64, !dbg !9650
  %31 = call noundef nonnull align 8 dereferenceable(36) ptr @_ZNSt6vectorI17ImageMeasurementsSaIS0_EEixEm(ptr noundef nonnull align 8 dereferenceable(24) %28, i64 noundef %30) #3, !dbg !9649
  store ptr %31, ptr %13, align 8, !dbg !9648
  %32 = load ptr, ptr %10, align 8, !dbg !9651
  %33 = load ptr, ptr %7, align 8, !dbg !9652
  call void @_ZN8BodyPose3SetERKSt6vectorIfSaIfEE(ptr noundef nonnull align 8 dereferenceable(96) %32, ptr noundef nonnull align 8 dereferenceable(24) %33), !dbg !9653
  %34 = load ptr, ptr %8, align 8, !dbg !9654
  store i8 0, ptr %34, align 1, !dbg !9655
  %35 = load ptr, ptr %10, align 8, !dbg !9656
  %36 = getelementptr inbounds %class.TrackingModel, ptr %15, i32 0, i32 4, !dbg !9658
  %37 = call noundef nonnull align 8 dereferenceable(96) ptr @_ZNSt6vectorI8BodyPoseSaIS0_EEixEm(ptr noundef nonnull align 8 dereferenceable(24) %36, i64 noundef 0) #3, !dbg !9658
  %38 = call noundef nonnull align 8 dereferenceable(72) ptr @_ZN8BodyPose6ParamsEv(ptr noundef nonnull align 8 dereferenceable(96) %37), !dbg !9659
  %39 = call noundef zeroext i1 @_ZN8BodyPose5ValidER10PoseParams(ptr noundef nonnull align 8 dereferenceable(96) %35, ptr noundef nonnull align 8 dereferenceable(72) %38), !dbg !9660
  br i1 %39, label %41, label %40, !dbg !9661

40:                                               ; preds = %4
  store float -1.000000e+10, ptr %5, align 4, !dbg !9662
  br label %67, !dbg !9662

41:                                               ; preds = %4
  %42 = load ptr, ptr %11, align 8, !dbg !9663
  %43 = load ptr, ptr %10, align 8, !dbg !9664
  %44 = getelementptr inbounds %class.TrackingModel, ptr %15, i32 0, i32 5, !dbg !9665
  %45 = call noundef nonnull align 8 dereferenceable(352) ptr @_ZNSt6vectorI12BodyGeometrySaIS0_EEixEm(ptr noundef nonnull align 8 dereferenceable(24) %44, i64 noundef 0) #3, !dbg !9665
  %46 = call noundef nonnull align 4 dereferenceable(232) ptr @_ZN12BodyGeometry10ParametersEv(ptr noundef nonnull align 8 dereferenceable(352) %45), !dbg !9666
  call void @_ZN12BodyGeometry15ComputeGeometryER8BodyPoseR14BodyParameters(ptr noundef nonnull align 8 dereferenceable(352) %42, ptr noundef nonnull align 8 dereferenceable(96) %43, ptr noundef nonnull align 4 dereferenceable(232) %46), !dbg !9667
  %47 = load ptr, ptr %11, align 8, !dbg !9668
  %48 = call noundef zeroext i1 @_ZN12BodyGeometry5ValidEv(ptr noundef nonnull align 8 dereferenceable(352) %47), !dbg !9670
  br i1 %48, label %50, label %49, !dbg !9671

49:                                               ; preds = %41
  store float -1.000000e+10, ptr %5, align 4, !dbg !9672
  br label %67, !dbg !9672

50:                                               ; preds = %41
  %51 = load ptr, ptr %12, align 8, !dbg !9673
  %52 = load ptr, ptr %11, align 8, !dbg !9674
  %53 = getelementptr inbounds %class.TrackingModel, ptr %15, i32 0, i32 6, !dbg !9675
  call void @_ZN24MultiCameraProjectedBody15ImageProjectionERK12BodyGeometryR11MultiCamera(ptr noundef nonnull align 8 dereferenceable(24) %51, ptr noundef nonnull align 8 dereferenceable(352) %52, ptr noundef nonnull align 8 dereferenceable(24) %53), !dbg !9676
  call void @llvm.dbg.declare(metadata ptr %14, metadata !9677, metadata !DIExpression()), !dbg !9678
  %54 = load ptr, ptr %13, align 8, !dbg !9679
  %55 = getelementptr inbounds %class.TrackingModel, ptr %15, i32 0, i32 2, !dbg !9680
  %56 = load ptr, ptr %12, align 8, !dbg !9681
  %57 = call noundef float @_ZN17ImageMeasurements14ImageErrorEdgeERSt6vectorI9FlexImageIhLi1EESaIS2_EER24MultiCameraProjectedBody(ptr noundef nonnull align 8 dereferenceable(36) %54, ptr noundef nonnull align 8 dereferenceable(24) %55, ptr noundef nonnull align 8 dereferenceable(24) %56), !dbg !9682
  store float %57, ptr %14, align 4, !dbg !9678
  %58 = load ptr, ptr %13, align 8, !dbg !9683
  %59 = getelementptr inbounds %class.TrackingModel, ptr %15, i32 0, i32 1, !dbg !9684
  %60 = load ptr, ptr %12, align 8, !dbg !9685
  %61 = call noundef float @_ZN17ImageMeasurements16ImageErrorInsideERSt6vectorI11BinaryImageSaIS1_EER24MultiCameraProjectedBody(ptr noundef nonnull align 8 dereferenceable(36) %58, ptr noundef nonnull align 8 dereferenceable(24) %59, ptr noundef nonnull align 8 dereferenceable(24) %60), !dbg !9686
  %62 = load float, ptr %14, align 4, !dbg !9687
  %63 = fadd float %62, %61, !dbg !9687
  store float %63, ptr %14, align 4, !dbg !9687
  %64 = load ptr, ptr %8, align 8, !dbg !9688
  store i8 1, ptr %64, align 1, !dbg !9689
  %65 = load float, ptr %14, align 4, !dbg !9690
  %66 = fneg float %65, !dbg !9691
  store float %66, ptr %5, align 4, !dbg !9692
  br label %67, !dbg !9692

67:                                               ; preds = %50, %49, %40
  %68 = load float, ptr %5, align 4, !dbg !9693
  ret float %68, !dbg !9693
}

; Function Attrs: mustprogress noinline nounwind optnone uwtable
define linkonce_odr dso_local noundef nonnull align 8 dereferenceable(352) ptr @_ZNSt6vectorI12BodyGeometrySaIS0_EEixEm(ptr noundef nonnull align 8 dereferenceable(24) %0, i64 noundef %1) #8 comdat align 2 !dbg !9694 {
  %3 = alloca ptr, align 8
  %4 = alloca i64, align 8
  store ptr %0, ptr %3, align 8
  call void @llvm.dbg.declare(metadata ptr %3, metadata !9695, metadata !DIExpression()), !dbg !9696
  store i64 %1, ptr %4, align 8
  call void @llvm.dbg.declare(metadata ptr %4, metadata !9697, metadata !DIExpression()), !dbg !9698
  %5 = load ptr, ptr %3, align 8
  %6 = getelementptr inbounds %"struct.std::_Vector_base.21", ptr %5, i32 0, i32 0, !dbg !9699
  %7 = getelementptr inbounds %"struct.std::_Vector_base<BodyGeometry, std::allocator<BodyGeometry>>::_Vector_impl_data", ptr %6, i32 0, i32 0, !dbg !9700
  %8 = load ptr, ptr %7, align 8, !dbg !9700
  %9 = load i64, ptr %4, align 8, !dbg !9701
  %10 = getelementptr inbounds %class.BodyGeometry, ptr %8, i64 %9, !dbg !9702
  ret ptr %10, !dbg !9703
}

; Function Attrs: mustprogress noinline nounwind optnone uwtable
define linkonce_odr dso_local noundef nonnull align 8 dereferenceable(24) ptr @_ZNSt6vectorI24MultiCameraProjectedBodySaIS0_EEixEm(ptr noundef nonnull align 8 dereferenceable(24) %0, i64 noundef %1) #8 comdat align 2 !dbg !9704 {
  %3 = alloca ptr, align 8
  %4 = alloca i64, align 8
  store ptr %0, ptr %3, align 8
  call void @llvm.dbg.declare(metadata ptr %3, metadata !9705, metadata !DIExpression()), !dbg !9706
  store i64 %1, ptr %4, align 8
  call void @llvm.dbg.declare(metadata ptr %4, metadata !9707, metadata !DIExpression()), !dbg !9708
  %5 = load ptr, ptr %3, align 8
  %6 = getelementptr inbounds %"struct.std::_Vector_base.41", ptr %5, i32 0, i32 0, !dbg !9709
  %7 = getelementptr inbounds %"struct.std::_Vector_base<MultiCameraProjectedBody, std::allocator<MultiCameraProjectedBody>>::_Vector_impl_data", ptr %6, i32 0, i32 0, !dbg !9710
  %8 = load ptr, ptr %7, align 8, !dbg !9710
  %9 = load i64, ptr %4, align 8, !dbg !9711
  %10 = getelementptr inbounds %class.MultiCameraProjectedBody, ptr %8, i64 %9, !dbg !9712
  ret ptr %10, !dbg !9713
}

; Function Attrs: mustprogress noinline nounwind optnone uwtable
define linkonce_odr dso_local noundef nonnull align 8 dereferenceable(36) ptr @_ZNSt6vectorI17ImageMeasurementsSaIS0_EEixEm(ptr noundef nonnull align 8 dereferenceable(24) %0, i64 noundef %1) #8 comdat align 2 !dbg !9714 {
  %3 = alloca ptr, align 8
  %4 = alloca i64, align 8
  store ptr %0, ptr %3, align 8
  call void @llvm.dbg.declare(metadata ptr %3, metadata !9715, metadata !DIExpression()), !dbg !9716
  store i64 %1, ptr %4, align 8
  call void @llvm.dbg.declare(metadata ptr %4, metadata !9717, metadata !DIExpression()), !dbg !9718
  %5 = load ptr, ptr %3, align 8
  %6 = getelementptr inbounds %"struct.std::_Vector_base.56", ptr %5, i32 0, i32 0, !dbg !9719
  %7 = getelementptr inbounds %"struct.std::_Vector_base<ImageMeasurements, std::allocator<ImageMeasurements>>::_Vector_impl_data", ptr %6, i32 0, i32 0, !dbg !9720
  %8 = load ptr, ptr %7, align 8, !dbg !9720
  %9 = load i64, ptr %4, align 8, !dbg !9721
  %10 = getelementptr inbounds %class.ImageMeasurements, ptr %8, i64 %9, !dbg !9722
  ret ptr %10, !dbg !9723
}

; Function Attrs: mustprogress noinline optnone uwtable
define linkonce_odr dso_local void @_ZN8BodyPose3SetERKSt6vectorIfSaIfEE(ptr noundef nonnull align 8 dereferenceable(96) %0, ptr noundef nonnull align 8 dereferenceable(24) %1) #7 comdat align 2 !dbg !9724 {
  %3 = alloca ptr, align 8
  %4 = alloca ptr, align 8
  store ptr %0, ptr %3, align 8
  call void @llvm.dbg.declare(metadata ptr %3, metadata !9725, metadata !DIExpression()), !dbg !9726
  store ptr %1, ptr %4, align 8
  call void @llvm.dbg.declare(metadata ptr %4, metadata !9727, metadata !DIExpression()), !dbg !9728
  %5 = load ptr, ptr %3, align 8
  %6 = load ptr, ptr %4, align 8, !dbg !9729
  %7 = getelementptr inbounds %class.BodyPose, ptr %5, i32 0, i32 1, !dbg !9730
  %8 = call noundef nonnull align 8 dereferenceable(24) ptr @_ZNSt6vectorIfSaIfEEaSERKS1_(ptr noundef nonnull align 8 dereferenceable(24) %7, ptr noundef nonnull align 8 dereferenceable(24) %6), !dbg !9731
  ret void, !dbg !9732
}

declare noundef zeroext i1 @_ZN8BodyPose5ValidER10PoseParams(ptr noundef nonnull align 8 dereferenceable(96), ptr noundef nonnull align 8 dereferenceable(72)) #1

declare void @_ZN12BodyGeometry15ComputeGeometryER8BodyPoseR14BodyParameters(ptr noundef nonnull align 8 dereferenceable(352), ptr noundef nonnull align 8 dereferenceable(96), ptr noundef nonnull align 4 dereferenceable(232)) #1

; Function Attrs: mustprogress noinline nounwind optnone uwtable
define linkonce_odr dso_local noundef nonnull align 4 dereferenceable(232) ptr @_ZN12BodyGeometry10ParametersEv(ptr noundef nonnull align 8 dereferenceable(352) %0) #8 comdat align 2 !dbg !9733 {
  %2 = alloca ptr, align 8
  store ptr %0, ptr %2, align 8
  call void @llvm.dbg.declare(metadata ptr %2, metadata !9734, metadata !DIExpression()), !dbg !9735
  %3 = load ptr, ptr %2, align 8
  %4 = getelementptr inbounds %class.BodyGeometry, ptr %3, i32 0, i32 1, !dbg !9736
  ret ptr %4, !dbg !9737
}

declare noundef zeroext i1 @_ZN12BodyGeometry5ValidEv(ptr noundef nonnull align 8 dereferenceable(352)) #1

declare void @_ZN24MultiCameraProjectedBody15ImageProjectionERK12BodyGeometryR11MultiCamera(ptr noundef nonnull align 8 dereferenceable(24), ptr noundef nonnull align 8 dereferenceable(352), ptr noundef nonnull align 8 dereferenceable(24)) #1

declare noundef float @_ZN17ImageMeasurements14ImageErrorEdgeERSt6vectorI9FlexImageIhLi1EESaIS2_EER24MultiCameraProjectedBody(ptr noundef nonnull align 8 dereferenceable(36), ptr noundef nonnull align 8 dereferenceable(24), ptr noundef nonnull align 8 dereferenceable(24)) #1

declare noundef float @_ZN17ImageMeasurements16ImageErrorInsideERSt6vectorI11BinaryImageSaIS1_EER24MultiCameraProjectedBody(ptr noundef nonnull align 8 dereferenceable(36), ptr noundef nonnull align 8 dereferenceable(24), ptr noundef nonnull align 8 dereferenceable(24)) #1

; Function Attrs: mustprogress noinline optnone uwtable
define dso_local void @_ZN13TrackingModel13CreateEdgeMapERK9FlexImageIhLi1EERS1_(ptr noundef nonnull align 8 dereferenceable(240) %0, ptr noundef nonnull align 8 dereferenceable(36) %1, ptr noundef nonnull align 8 dereferenceable(36) %2) unnamed_addr #7 align 2 personality ptr @__gxx_personality_v0 !dbg !9738 {
  %4 = alloca ptr, align 8
  %5 = alloca ptr, align 8
  %6 = alloca ptr, align 8
  %7 = alloca %class.FlexImage, align 8
  %8 = alloca ptr, align 8
  %9 = alloca i32, align 4
  store ptr %0, ptr %4, align 8
  call void @llvm.dbg.declare(metadata ptr %4, metadata !9739, metadata !DIExpression()), !dbg !9740
  store ptr %1, ptr %5, align 8
  call void @llvm.dbg.declare(metadata ptr %5, metadata !9741, metadata !DIExpression()), !dbg !9742
  store ptr %2, ptr %6, align 8
  call void @llvm.dbg.declare(metadata ptr %6, metadata !9743, metadata !DIExpression()), !dbg !9744
  %10 = load ptr, ptr %4, align 8
  call void @llvm.dbg.declare(metadata ptr %7, metadata !9745, metadata !DIExpression()), !dbg !9746
  %11 = load ptr, ptr %5, align 8, !dbg !9747
  call void @_Z20GradientMagThresholdRK9FlexImageIhLi1EEf(ptr sret(%class.FlexImage) align 8 %7, ptr noundef nonnull align 8 dereferenceable(36) %11, float noundef 1.600000e+01), !dbg !9748
  %12 = load ptr, ptr %6, align 8, !dbg !9749
  invoke void @_Z12GaussianBlurR9FlexImageIhLi1EES1_(ptr noundef nonnull align 8 dereferenceable(36) %7, ptr noundef nonnull align 8 dereferenceable(36) %12)
          to label %13 unwind label %14, !dbg !9750

13:                                               ; preds = %3
  call void @_ZN9FlexImageIhLi1EED1Ev(ptr noundef nonnull align 8 dereferenceable(36) %7) #3, !dbg !9751
  ret void, !dbg !9751

14:                                               ; preds = %3
  %15 = landingpad { ptr, i32 }
          cleanup, !dbg !9751
  %16 = extractvalue { ptr, i32 } %15, 0, !dbg !9751
  store ptr %16, ptr %8, align 8, !dbg !9751
  %17 = extractvalue { ptr, i32 } %15, 1, !dbg !9751
  store i32 %17, ptr %9, align 4, !dbg !9751
  call void @_ZN9FlexImageIhLi1EED1Ev(ptr noundef nonnull align 8 dereferenceable(36) %7) #3, !dbg !9751
  br label %18, !dbg !9751

18:                                               ; preds = %14
  %19 = load ptr, ptr %8, align 8, !dbg !9751
  %20 = load i32, ptr %9, align 4, !dbg !9751
  %21 = insertvalue { ptr, i32 } poison, ptr %19, 0, !dbg !9751
  %22 = insertvalue { ptr, i32 } %21, i32 %20, 1, !dbg !9751
  resume { ptr, i32 } %22, !dbg !9751
}

; Function Attrs: mustprogress noinline optnone uwtable
define linkonce_odr dso_local void @_Z20GradientMagThresholdRK9FlexImageIhLi1EEf(ptr noalias sret(%class.FlexImage) align 8 %0, ptr noundef nonnull align 8 dereferenceable(36) %1, float noundef %2) #7 comdat personality ptr @__gxx_personality_v0 !dbg !9752 {
  %4 = alloca ptr, align 8
  %5 = alloca ptr, align 8
  %6 = alloca float, align 4
  %7 = alloca i1, align 1
  %8 = alloca %class.FISize, align 4
  %9 = alloca ptr, align 8
  %10 = alloca i32, align 4
  %11 = alloca i32, align 4
  %12 = alloca ptr, align 8
  %13 = alloca ptr, align 8
  %14 = alloca ptr, align 8
  %15 = alloca ptr, align 8
  %16 = alloca i32, align 4
  %17 = alloca float, align 4
  %18 = alloca float, align 4
  %19 = alloca float, align 4
  store ptr %0, ptr %4, align 8
  store ptr %1, ptr %5, align 8
  call void @llvm.dbg.declare(metadata ptr %5, metadata !9755, metadata !DIExpression()), !dbg !9756
  store float %2, ptr %6, align 4
  call void @llvm.dbg.declare(metadata ptr %6, metadata !9757, metadata !DIExpression()), !dbg !9758
  store i1 false, ptr %7, align 1, !dbg !9759
  call void @llvm.dbg.declare(metadata ptr %4, metadata !9760, metadata !DIExpression(DW_OP_deref)), !dbg !9761
  %20 = load ptr, ptr %5, align 8, !dbg !9762
  %21 = call i64 @_ZNK9FlexImageIhLi1EE4SizeEv(ptr noundef nonnull align 8 dereferenceable(36) %20), !dbg !9763
  store i64 %21, ptr %8, align 4, !dbg !9763
  %22 = load i64, ptr %8, align 4, !dbg !9761
  call void @_ZN9FlexImageIhLi1EEC1E6FISize(ptr noundef nonnull align 8 dereferenceable(36) %0, i64 %22), !dbg !9761
  invoke void @_Z10ZeroBorderIhEvR9FlexImageIT_Li1EE(ptr noundef nonnull align 8 dereferenceable(36) %0)
          to label %23 unwind label %154, !dbg !9764

23:                                               ; preds = %3
  call void @llvm.dbg.declare(metadata ptr %11, metadata !9765, metadata !DIExpression()), !dbg !9767
  store i32 1, ptr %11, align 4, !dbg !9767
  br label %24, !dbg !9768

24:                                               ; preds = %159, %23
  %25 = load i32, ptr %11, align 4, !dbg !9769
  %26 = load ptr, ptr %5, align 8, !dbg !9771
  %27 = invoke noundef i32 @_ZNK9FlexImageIhLi1EE6HeightEv(ptr noundef nonnull align 8 dereferenceable(36) %26)
          to label %28 unwind label %154, !dbg !9772

28:                                               ; preds = %24
  %29 = sub nsw i32 %27, 1, !dbg !9773
  %30 = icmp slt i32 %25, %29, !dbg !9774
  br i1 %30, label %31, label %162, !dbg !9775

31:                                               ; preds = %28
  call void @llvm.dbg.declare(metadata ptr %12, metadata !9776, metadata !DIExpression()), !dbg !9778
  %32 = load ptr, ptr %5, align 8, !dbg !9779
  %33 = load i32, ptr %11, align 4, !dbg !9780
  %34 = invoke noundef nonnull align 1 dereferenceable(1) ptr @_ZNK9FlexImageIhLi1EEclEii(ptr noundef nonnull align 8 dereferenceable(36) %32, i32 noundef 1, i32 noundef %33)
          to label %35 unwind label %154, !dbg !9779

35:                                               ; preds = %31
  store ptr %34, ptr %12, align 8, !dbg !9778
  call void @llvm.dbg.declare(metadata ptr %13, metadata !9781, metadata !DIExpression()), !dbg !9782
  %36 = load ptr, ptr %5, align 8, !dbg !9783
  %37 = load i32, ptr %11, align 4, !dbg !9784
  %38 = sub nsw i32 %37, 1, !dbg !9785
  %39 = invoke noundef nonnull align 1 dereferenceable(1) ptr @_ZNK9FlexImageIhLi1EEclEii(ptr noundef nonnull align 8 dereferenceable(36) %36, i32 noundef 1, i32 noundef %38)
          to label %40 unwind label %154, !dbg !9783

40:                                               ; preds = %35
  store ptr %39, ptr %13, align 8, !dbg !9782
  call void @llvm.dbg.declare(metadata ptr %14, metadata !9786, metadata !DIExpression()), !dbg !9787
  %41 = load ptr, ptr %5, align 8, !dbg !9788
  %42 = load i32, ptr %11, align 4, !dbg !9789
  %43 = add nsw i32 %42, 1, !dbg !9790
  %44 = invoke noundef nonnull align 1 dereferenceable(1) ptr @_ZNK9FlexImageIhLi1EEclEii(ptr noundef nonnull align 8 dereferenceable(36) %41, i32 noundef 1, i32 noundef %43)
          to label %45 unwind label %154, !dbg !9788

45:                                               ; preds = %40
  store ptr %44, ptr %14, align 8, !dbg !9787
  call void @llvm.dbg.declare(metadata ptr %15, metadata !9791, metadata !DIExpression()), !dbg !9792
  %46 = load i32, ptr %11, align 4, !dbg !9793
  %47 = invoke noundef nonnull align 1 dereferenceable(1) ptr @_ZN9FlexImageIhLi1EEclEii(ptr noundef nonnull align 8 dereferenceable(36) %0, i32 noundef 1, i32 noundef %46)
          to label %48 unwind label %154, !dbg !9794

48:                                               ; preds = %45
  store ptr %47, ptr %15, align 8, !dbg !9792
  call void @llvm.dbg.declare(metadata ptr %16, metadata !9795, metadata !DIExpression()), !dbg !9797
  store i32 1, ptr %16, align 4, !dbg !9797
  br label %49, !dbg !9798

49:                                               ; preds = %151, %48
  %50 = load i32, ptr %16, align 4, !dbg !9799
  %51 = load ptr, ptr %5, align 8, !dbg !9801
  %52 = invoke noundef i32 @_ZNK9FlexImageIhLi1EE5WidthEv(ptr noundef nonnull align 8 dereferenceable(36) %51)
          to label %53 unwind label %154, !dbg !9802

53:                                               ; preds = %49
  %54 = sub nsw i32 %52, 1, !dbg !9803
  %55 = icmp slt i32 %50, %54, !dbg !9804
  br i1 %55, label %56, label %158, !dbg !9805

56:                                               ; preds = %53
  call void @llvm.dbg.declare(metadata ptr %17, metadata !9806, metadata !DIExpression()), !dbg !9808
  %57 = load ptr, ptr %13, align 8, !dbg !9809
  %58 = getelementptr inbounds i8, ptr %57, i64 -1, !dbg !9809
  %59 = load i8, ptr %58, align 1, !dbg !9809
  %60 = zext i8 %59 to i32, !dbg !9809
  %61 = sitofp i32 %60 to float, !dbg !9809
  %62 = load ptr, ptr %13, align 8, !dbg !9810
  %63 = getelementptr inbounds i8, ptr %62, i64 1, !dbg !9810
  %64 = load i8, ptr %63, align 1, !dbg !9810
  %65 = zext i8 %64 to i32, !dbg !9810
  %66 = sitofp i32 %65 to float, !dbg !9810
  %67 = fmul float 1.250000e-01, %66, !dbg !9811
  %68 = call float @llvm.fmuladd.f32(float -1.250000e-01, float %61, float %67), !dbg !9812
  %69 = load ptr, ptr %12, align 8, !dbg !9813
  %70 = getelementptr inbounds i8, ptr %69, i64 -1, !dbg !9813
  %71 = load i8, ptr %70, align 1, !dbg !9813
  %72 = zext i8 %71 to i32, !dbg !9813
  %73 = sitofp i32 %72 to float, !dbg !9813
  %74 = call float @llvm.fmuladd.f32(float -2.500000e-01, float %73, float %68), !dbg !9814
  %75 = load ptr, ptr %12, align 8, !dbg !9815
  %76 = getelementptr inbounds i8, ptr %75, i64 1, !dbg !9815
  %77 = load i8, ptr %76, align 1, !dbg !9815
  %78 = zext i8 %77 to i32, !dbg !9815
  %79 = sitofp i32 %78 to float, !dbg !9815
  %80 = call float @llvm.fmuladd.f32(float 2.500000e-01, float %79, float %74), !dbg !9816
  %81 = load ptr, ptr %14, align 8, !dbg !9817
  %82 = getelementptr inbounds i8, ptr %81, i64 -1, !dbg !9817
  %83 = load i8, ptr %82, align 1, !dbg !9817
  %84 = zext i8 %83 to i32, !dbg !9817
  %85 = sitofp i32 %84 to float, !dbg !9817
  %86 = call float @llvm.fmuladd.f32(float -1.250000e-01, float %85, float %80), !dbg !9818
  %87 = load ptr, ptr %14, align 8, !dbg !9819
  %88 = getelementptr inbounds i8, ptr %87, i64 1, !dbg !9819
  %89 = load i8, ptr %88, align 1, !dbg !9819
  %90 = zext i8 %89 to i32, !dbg !9819
  %91 = sitofp i32 %90 to float, !dbg !9819
  %92 = call float @llvm.fmuladd.f32(float 1.250000e-01, float %91, float %86), !dbg !9820
  store float %92, ptr %17, align 4, !dbg !9808
  call void @llvm.dbg.declare(metadata ptr %18, metadata !9821, metadata !DIExpression()), !dbg !9822
  %93 = load ptr, ptr %13, align 8, !dbg !9823
  %94 = getelementptr inbounds i8, ptr %93, i64 -1, !dbg !9823
  %95 = load i8, ptr %94, align 1, !dbg !9823
  %96 = zext i8 %95 to i32, !dbg !9823
  %97 = sitofp i32 %96 to float, !dbg !9823
  %98 = load ptr, ptr %13, align 8, !dbg !9824
  %99 = getelementptr inbounds i8, ptr %98, i64 0, !dbg !9824
  %100 = load i8, ptr %99, align 1, !dbg !9824
  %101 = zext i8 %100 to i32, !dbg !9824
  %102 = sitofp i32 %101 to float, !dbg !9824
  %103 = fmul float 2.500000e-01, %102, !dbg !9825
  %104 = fneg float %103, !dbg !9826
  %105 = call float @llvm.fmuladd.f32(float -1.250000e-01, float %97, float %104), !dbg !9826
  %106 = load ptr, ptr %13, align 8, !dbg !9827
  %107 = getelementptr inbounds i8, ptr %106, i64 1, !dbg !9827
  %108 = load i8, ptr %107, align 1, !dbg !9827
  %109 = zext i8 %108 to i32, !dbg !9827
  %110 = sitofp i32 %109 to float, !dbg !9827
  %111 = call float @llvm.fmuladd.f32(float -1.250000e-01, float %110, float %105), !dbg !9828
  %112 = load ptr, ptr %14, align 8, !dbg !9829
  %113 = getelementptr inbounds i8, ptr %112, i64 -1, !dbg !9829
  %114 = load i8, ptr %113, align 1, !dbg !9829
  %115 = zext i8 %114 to i32, !dbg !9829
  %116 = sitofp i32 %115 to float, !dbg !9829
  %117 = call float @llvm.fmuladd.f32(float 1.250000e-01, float %116, float %111), !dbg !9830
  %118 = load ptr, ptr %14, align 8, !dbg !9831
  %119 = getelementptr inbounds i8, ptr %118, i64 0, !dbg !9831
  %120 = load i8, ptr %119, align 1, !dbg !9831
  %121 = zext i8 %120 to i32, !dbg !9831
  %122 = sitofp i32 %121 to float, !dbg !9831
  %123 = call float @llvm.fmuladd.f32(float 2.500000e-01, float %122, float %117), !dbg !9832
  %124 = load ptr, ptr %14, align 8, !dbg !9833
  %125 = getelementptr inbounds i8, ptr %124, i64 1, !dbg !9833
  %126 = load i8, ptr %125, align 1, !dbg !9833
  %127 = zext i8 %126 to i32, !dbg !9833
  %128 = sitofp i32 %127 to float, !dbg !9833
  %129 = call float @llvm.fmuladd.f32(float 1.250000e-01, float %128, float %123), !dbg !9834
  store float %129, ptr %18, align 4, !dbg !9822
  call void @llvm.dbg.declare(metadata ptr %19, metadata !9835, metadata !DIExpression()), !dbg !9836
  %130 = load float, ptr %17, align 4, !dbg !9837
  %131 = load float, ptr %17, align 4, !dbg !9838
  %132 = load float, ptr %18, align 4, !dbg !9839
  %133 = load float, ptr %18, align 4, !dbg !9840
  %134 = fmul float %132, %133, !dbg !9841
  %135 = call float @llvm.fmuladd.f32(float %130, float %131, float %134), !dbg !9842
  store float %135, ptr %19, align 4, !dbg !9836
  %136 = load float, ptr %19, align 4, !dbg !9843
  %137 = load float, ptr %6, align 4, !dbg !9844
  %138 = fcmp olt float %136, %137, !dbg !9845
  %139 = zext i1 %138 to i64, !dbg !9846
  %140 = select i1 %138, i32 0, i32 255, !dbg !9846
  %141 = trunc i32 %140 to i8, !dbg !9846
  %142 = load ptr, ptr %15, align 8, !dbg !9847
  store i8 %141, ptr %142, align 1, !dbg !9848
  %143 = load ptr, ptr %12, align 8, !dbg !9849
  %144 = getelementptr inbounds i8, ptr %143, i32 1, !dbg !9849
  store ptr %144, ptr %12, align 8, !dbg !9849
  %145 = load ptr, ptr %13, align 8, !dbg !9850
  %146 = getelementptr inbounds i8, ptr %145, i32 1, !dbg !9850
  store ptr %146, ptr %13, align 8, !dbg !9850
  %147 = load ptr, ptr %14, align 8, !dbg !9851
  %148 = getelementptr inbounds i8, ptr %147, i32 1, !dbg !9851
  store ptr %148, ptr %14, align 8, !dbg !9851
  %149 = load ptr, ptr %15, align 8, !dbg !9852
  %150 = getelementptr inbounds i8, ptr %149, i32 1, !dbg !9852
  store ptr %150, ptr %15, align 8, !dbg !9852
  br label %151, !dbg !9853

151:                                              ; preds = %56
  %152 = load i32, ptr %16, align 4, !dbg !9854
  %153 = add nsw i32 %152, 1, !dbg !9854
  store i32 %153, ptr %16, align 4, !dbg !9854
  br label %49, !dbg !9855, !llvm.loop !9856

154:                                              ; preds = %49, %45, %40, %35, %31, %24, %3
  %155 = landingpad { ptr, i32 }
          cleanup, !dbg !9858
  %156 = extractvalue { ptr, i32 } %155, 0, !dbg !9858
  store ptr %156, ptr %9, align 8, !dbg !9858
  %157 = extractvalue { ptr, i32 } %155, 1, !dbg !9858
  store i32 %157, ptr %10, align 4, !dbg !9858
  call void @_ZN9FlexImageIhLi1EED1Ev(ptr noundef nonnull align 8 dereferenceable(36) %0) #3, !dbg !9858
  br label %166, !dbg !9858

158:                                              ; preds = %53
  br label %159, !dbg !9859

159:                                              ; preds = %158
  %160 = load i32, ptr %11, align 4, !dbg !9860
  %161 = add nsw i32 %160, 1, !dbg !9860
  store i32 %161, ptr %11, align 4, !dbg !9860
  br label %24, !dbg !9861, !llvm.loop !9862

162:                                              ; preds = %28
  store i1 true, ptr %7, align 1, !dbg !9864
  %163 = load i1, ptr %7, align 1, !dbg !9858
  br i1 %163, label %165, label %164, !dbg !9858

164:                                              ; preds = %162
  call void @_ZN9FlexImageIhLi1EED1Ev(ptr noundef nonnull align 8 dereferenceable(36) %0) #3, !dbg !9858
  br label %165, !dbg !9858

165:                                              ; preds = %164, %162
  ret void, !dbg !9858

166:                                              ; preds = %154
  %167 = load ptr, ptr %9, align 8, !dbg !9858
  %168 = load i32, ptr %10, align 4, !dbg !9858
  %169 = insertvalue { ptr, i32 } poison, ptr %167, 0, !dbg !9858
  %170 = insertvalue { ptr, i32 } %169, i32 %168, 1, !dbg !9858
  resume { ptr, i32 } %170, !dbg !9858
}

; Function Attrs: mustprogress noinline optnone uwtable
define linkonce_odr dso_local void @_Z12GaussianBlurR9FlexImageIhLi1EES1_(ptr noundef nonnull align 8 dereferenceable(36) %0, ptr noundef nonnull align 8 dereferenceable(36) %1) #7 comdat personality ptr @__gxx_personality_v0 !dbg !9865 {
  %3 = alloca ptr, align 8
  %4 = alloca ptr, align 8
  %5 = alloca [7 x float], align 16
  %6 = alloca %class.FlexImage, align 8
  %7 = alloca ptr, align 8
  %8 = alloca i32, align 4
  store ptr %0, ptr %3, align 8
  call void @llvm.dbg.declare(metadata ptr %3, metadata !9868, metadata !DIExpression()), !dbg !9869
  store ptr %1, ptr %4, align 8
  call void @llvm.dbg.declare(metadata ptr %4, metadata !9870, metadata !DIExpression()), !dbg !9871
  call void @llvm.dbg.declare(metadata ptr %5, metadata !9872, metadata !DIExpression()), !dbg !9874
  call void @llvm.memcpy.p0.p0.i64(ptr align 16 %5, ptr align 16 @__const._Z12GaussianBlurR9FlexImageIhLi1EES1_.k, i64 28, i1 false), !dbg !9874
  call void @llvm.dbg.declare(metadata ptr %6, metadata !9875, metadata !DIExpression()), !dbg !9876
  call void @_ZN9FlexImageIhLi1EEC1Ev(ptr noundef nonnull align 8 dereferenceable(36) %6), !dbg !9876
  %9 = load ptr, ptr %3, align 8, !dbg !9877
  %10 = getelementptr inbounds [7 x float], ptr %5, i64 0, i64 0, !dbg !9878
  %11 = invoke noundef zeroext i1 @_Z14FlexFilterRowVIhfEbR9FlexImageIT_Li1EES3_PT0_ib(ptr noundef nonnull align 8 dereferenceable(36) %9, ptr noundef nonnull align 8 dereferenceable(36) %6, ptr noundef %10, i32 noundef 7, i1 noundef zeroext true)
          to label %12 unwind label %17, !dbg !9879

12:                                               ; preds = %2
  %13 = load ptr, ptr %4, align 8, !dbg !9880
  %14 = getelementptr inbounds [7 x float], ptr %5, i64 0, i64 0, !dbg !9881
  %15 = invoke noundef zeroext i1 @_Z17FlexFilterColumnVIhfEbR9FlexImageIT_Li1EES3_PT0_ib(ptr noundef nonnull align 8 dereferenceable(36) %6, ptr noundef nonnull align 8 dereferenceable(36) %13, ptr noundef %14, i32 noundef 7, i1 noundef zeroext true)
          to label %16 unwind label %17, !dbg !9882

16:                                               ; preds = %12
  call void @_ZN9FlexImageIhLi1EED1Ev(ptr noundef nonnull align 8 dereferenceable(36) %6) #3, !dbg !9883
  ret void, !dbg !9883

17:                                               ; preds = %12, %2
  %18 = landingpad { ptr, i32 }
          cleanup, !dbg !9883
  %19 = extractvalue { ptr, i32 } %18, 0, !dbg !9883
  store ptr %19, ptr %7, align 8, !dbg !9883
  %20 = extractvalue { ptr, i32 } %18, 1, !dbg !9883
  store i32 %20, ptr %8, align 4, !dbg !9883
  call void @_ZN9FlexImageIhLi1EED1Ev(ptr noundef nonnull align 8 dereferenceable(36) %6) #3, !dbg !9883
  br label %21, !dbg !9883

21:                                               ; preds = %17
  %22 = load ptr, ptr %7, align 8, !dbg !9883
  %23 = load i32, ptr %8, align 4, !dbg !9883
  %24 = insertvalue { ptr, i32 } poison, ptr %22, 0, !dbg !9883
  %25 = insertvalue { ptr, i32 } %24, i32 %23, 1, !dbg !9883
  resume { ptr, i32 } %25, !dbg !9883
}

; Function Attrs: nounwind
declare void @_ZN9FlexImageIhLi1EED1Ev(ptr noundef nonnull align 8 dereferenceable(36)) unnamed_addr #2

; Function Attrs: mustprogress noinline optnone uwtable
define dso_local noundef zeroext i1 @_ZN13TrackingModel14GetObservationEf(ptr noundef nonnull align 8 dereferenceable(240) %0, float noundef %1) unnamed_addr #7 align 2 personality ptr @__gxx_personality_v0 !dbg !9884 {
  %3 = alloca i1, align 1
  %4 = alloca ptr, align 8
  %5 = alloca float, align 4
  %6 = alloca i32, align 4
  %7 = alloca i32, align 4
  %8 = alloca %"class.std::vector.68", align 8
  %9 = alloca %"class.std::allocator.70", align 1
  %10 = alloca ptr, align 8
  %11 = alloca i32, align 4
  %12 = alloca %"class.std::vector.68", align 8
  %13 = alloca %"class.std::allocator.70", align 1
  %14 = alloca i32, align 4
  %15 = alloca %"class.std::__cxx11::basic_string", align 8
  %16 = alloca %"class.std::__cxx11::basic_string", align 8
  %17 = alloca %"class.std::__cxx11::basic_string", align 8
  %18 = alloca %"class.std::__cxx11::basic_string", align 8
  %19 = alloca %"class.std::__cxx11::basic_string", align 8
  %20 = alloca %"class.std::__cxx11::basic_string", align 8
  %21 = alloca %"class.std::__cxx11::basic_string", align 8
  %22 = alloca %"class.std::__cxx11::basic_string", align 8
  %23 = alloca %"class.std::__cxx11::basic_string", align 8
  %24 = alloca %"class.std::__cxx11::basic_string", align 8
  %25 = alloca %"class.std::__cxx11::basic_string", align 8
  %26 = alloca %"class.std::__cxx11::basic_string", align 8
  %27 = alloca %"class.std::__cxx11::basic_string", align 8
  %28 = alloca %"class.std::__cxx11::basic_string", align 8
  %29 = alloca %"class.std::__cxx11::basic_string", align 8
  %30 = alloca %"class.std::__cxx11::basic_string", align 8
  %31 = alloca %class.FlexImage, align 8
  %32 = alloca i32, align 4
  %33 = alloca i32, align 4
  store ptr %0, ptr %4, align 8
  call void @llvm.dbg.declare(metadata ptr %4, metadata !9885, metadata !DIExpression()), !dbg !9886
  store float %1, ptr %5, align 4
  call void @llvm.dbg.declare(metadata ptr %5, metadata !9887, metadata !DIExpression()), !dbg !9888
  %34 = load ptr, ptr %4, align 8
  call void @llvm.dbg.declare(metadata ptr %6, metadata !9889, metadata !DIExpression()), !dbg !9890
  %35 = load float, ptr %5, align 4, !dbg !9891
  %36 = fptosi float %35 to i32, !dbg !9891
  store i32 %36, ptr %6, align 4, !dbg !9890
  call void @llvm.dbg.declare(metadata ptr %7, metadata !9892, metadata !DIExpression()), !dbg !9893
  %37 = getelementptr inbounds %class.TrackingModel, ptr %34, i32 0, i32 6, !dbg !9894
  %38 = call noundef i32 @_ZN11MultiCamera14GetCameraCountEv(ptr noundef nonnull align 8 dereferenceable(24) %37), !dbg !9895
  store i32 %38, ptr %7, align 4, !dbg !9893
  call void @llvm.dbg.declare(metadata ptr %8, metadata !9896, metadata !DIExpression()), !dbg !9897
  %39 = load i32, ptr %7, align 4, !dbg !9898
  %40 = sext i32 %39 to i64, !dbg !9898
  call void @_ZNSaINSt7__cxx1112basic_stringIcSt11char_traitsIcESaIcEEEEC2Ev(ptr noundef nonnull align 1 dereferenceable(1) %9) #3, !dbg !9897
  invoke void @_ZNSt6vectorINSt7__cxx1112basic_stringIcSt11char_traitsIcESaIcEEESaIS5_EEC2EmRKS6_(ptr noundef nonnull align 8 dereferenceable(24) %8, i64 noundef %40, ptr noundef nonnull align 1 dereferenceable(1) %9)
          to label %41 unwind label %85, !dbg !9897

41:                                               ; preds = %2
  call void @_ZNSaINSt7__cxx1112basic_stringIcSt11char_traitsIcESaIcEEEED2Ev(ptr noundef nonnull align 1 dereferenceable(1) %9) #3, !dbg !9897
  call void @llvm.dbg.declare(metadata ptr %12, metadata !9899, metadata !DIExpression()), !dbg !9900
  %42 = load i32, ptr %7, align 4, !dbg !9901
  %43 = sext i32 %42 to i64, !dbg !9901
  call void @_ZNSaINSt7__cxx1112basic_stringIcSt11char_traitsIcESaIcEEEEC2Ev(ptr noundef nonnull align 1 dereferenceable(1) %13) #3, !dbg !9900
  invoke void @_ZNSt6vectorINSt7__cxx1112basic_stringIcSt11char_traitsIcESaIcEEESaIS5_EEC2EmRKS6_(ptr noundef nonnull align 8 dereferenceable(24) %12, i64 noundef %43, ptr noundef nonnull align 1 dereferenceable(1) %13)
          to label %44 unwind label %89, !dbg !9900

44:                                               ; preds = %41
  call void @_ZNSaINSt7__cxx1112basic_stringIcSt11char_traitsIcESaIcEEEED2Ev(ptr noundef nonnull align 1 dereferenceable(1) %13) #3, !dbg !9900
  call void @llvm.dbg.declare(metadata ptr %14, metadata !9902, metadata !DIExpression()), !dbg !9904
  store i32 0, ptr %14, align 4, !dbg !9904
  br label %45, !dbg !9905

45:                                               ; preds = %82, %44
  %46 = load i32, ptr %14, align 4, !dbg !9906
  %47 = load i32, ptr %7, align 4, !dbg !9908
  %48 = icmp slt i32 %46, %47, !dbg !9909
  br i1 %48, label %49, label %165, !dbg !9910

49:                                               ; preds = %45
  %50 = getelementptr inbounds %class.TrackingModel, ptr %34, i32 0, i32 10, !dbg !9911
  invoke void @_ZStplIcSt11char_traitsIcESaIcEENSt7__cxx1112basic_stringIT_T0_T1_EERKS8_PKS5_(ptr sret(%"class.std::__cxx11::basic_string") align 8 %20, ptr noundef nonnull align 8 dereferenceable(32) %50, ptr noundef @.str.7)
          to label %51 unwind label %93, !dbg !9913

51:                                               ; preds = %49
  %52 = load i32, ptr %14, align 4, !dbg !9914
  %53 = add nsw i32 %52, 1, !dbg !9915
  invoke void @_Z3strIiENSt7__cxx1112basic_stringIcSt11char_traitsIcESaIcEEET_ic(ptr sret(%"class.std::__cxx11::basic_string") align 8 %21, i32 noundef %53, i32 noundef 0, i8 noundef signext 48)
          to label %54 unwind label %97, !dbg !9916

54:                                               ; preds = %51
  invoke void @_ZStplIcSt11char_traitsIcESaIcEENSt7__cxx1112basic_stringIT_T0_T1_EEOS8_S9_(ptr sret(%"class.std::__cxx11::basic_string") align 8 %19, ptr noundef nonnull align 8 dereferenceable(32) %20, ptr noundef nonnull align 8 dereferenceable(32) %21)
          to label %55 unwind label %101, !dbg !9917

55:                                               ; preds = %54
  invoke void @_ZStplIcSt11char_traitsIcESaIcEENSt7__cxx1112basic_stringIT_T0_T1_EEOS8_PKS5_(ptr sret(%"class.std::__cxx11::basic_string") align 8 %18, ptr noundef nonnull align 8 dereferenceable(32) %19, ptr noundef @.str.1)
          to label %56 unwind label %105, !dbg !9918

56:                                               ; preds = %55
  invoke void @_ZStplIcSt11char_traitsIcESaIcEENSt7__cxx1112basic_stringIT_T0_T1_EEOS8_PKS5_(ptr sret(%"class.std::__cxx11::basic_string") align 8 %17, ptr noundef nonnull align 8 dereferenceable(32) %18, ptr noundef @.str.8)
          to label %57 unwind label %109, !dbg !9919

57:                                               ; preds = %56
  %58 = load i32, ptr %6, align 4, !dbg !9920
  invoke void @_Z3strIiENSt7__cxx1112basic_stringIcSt11char_traitsIcESaIcEEET_ic(ptr sret(%"class.std::__cxx11::basic_string") align 8 %22, i32 noundef %58, i32 noundef 4, i8 noundef signext 48)
          to label %59 unwind label %113, !dbg !9921

59:                                               ; preds = %57
  invoke void @_ZStplIcSt11char_traitsIcESaIcEENSt7__cxx1112basic_stringIT_T0_T1_EEOS8_S9_(ptr sret(%"class.std::__cxx11::basic_string") align 8 %16, ptr noundef nonnull align 8 dereferenceable(32) %17, ptr noundef nonnull align 8 dereferenceable(32) %22)
          to label %60 unwind label %117, !dbg !9922

60:                                               ; preds = %59
  invoke void @_ZStplIcSt11char_traitsIcESaIcEENSt7__cxx1112basic_stringIT_T0_T1_EEOS8_PKS5_(ptr sret(%"class.std::__cxx11::basic_string") align 8 %15, ptr noundef nonnull align 8 dereferenceable(32) %16, ptr noundef @.str.9)
          to label %61 unwind label %121, !dbg !9923

61:                                               ; preds = %60
  %62 = load i32, ptr %14, align 4, !dbg !9924
  %63 = sext i32 %62 to i64, !dbg !9924
  %64 = call noundef nonnull align 8 dereferenceable(32) ptr @_ZNSt6vectorINSt7__cxx1112basic_stringIcSt11char_traitsIcESaIcEEESaIS5_EEixEm(ptr noundef nonnull align 8 dereferenceable(24) %8, i64 noundef %63) #3, !dbg !9925
  %65 = call noundef nonnull align 8 dereferenceable(32) ptr @_ZNSt7__cxx1112basic_stringIcSt11char_traitsIcESaIcEEaSEOS4_(ptr noundef nonnull align 8 dereferenceable(32) %64, ptr noundef nonnull align 8 dereferenceable(32) %15) #3, !dbg !9926
  call void @_ZNSt7__cxx1112basic_stringIcSt11char_traitsIcESaIcEED1Ev(ptr noundef nonnull align 8 dereferenceable(32) %15) #3, !dbg !9925
  call void @_ZNSt7__cxx1112basic_stringIcSt11char_traitsIcESaIcEED1Ev(ptr noundef nonnull align 8 dereferenceable(32) %16) #3, !dbg !9925
  call void @_ZNSt7__cxx1112basic_stringIcSt11char_traitsIcESaIcEED1Ev(ptr noundef nonnull align 8 dereferenceable(32) %22) #3, !dbg !9925
  call void @_ZNSt7__cxx1112basic_stringIcSt11char_traitsIcESaIcEED1Ev(ptr noundef nonnull align 8 dereferenceable(32) %17) #3, !dbg !9925
  call void @_ZNSt7__cxx1112basic_stringIcSt11char_traitsIcESaIcEED1Ev(ptr noundef nonnull align 8 dereferenceable(32) %18) #3, !dbg !9925
  call void @_ZNSt7__cxx1112basic_stringIcSt11char_traitsIcESaIcEED1Ev(ptr noundef nonnull align 8 dereferenceable(32) %19) #3, !dbg !9925
  call void @_ZNSt7__cxx1112basic_stringIcSt11char_traitsIcESaIcEED1Ev(ptr noundef nonnull align 8 dereferenceable(32) %21) #3, !dbg !9925
  call void @_ZNSt7__cxx1112basic_stringIcSt11char_traitsIcESaIcEED1Ev(ptr noundef nonnull align 8 dereferenceable(32) %20) #3, !dbg !9925
  %66 = getelementptr inbounds %class.TrackingModel, ptr %34, i32 0, i32 10, !dbg !9927
  invoke void @_ZStplIcSt11char_traitsIcESaIcEENSt7__cxx1112basic_stringIT_T0_T1_EERKS8_PKS5_(ptr sret(%"class.std::__cxx11::basic_string") align 8 %28, ptr noundef nonnull align 8 dereferenceable(32) %66, ptr noundef @.str.10)
          to label %67 unwind label %93, !dbg !9928

67:                                               ; preds = %61
  %68 = load i32, ptr %14, align 4, !dbg !9929
  %69 = add nsw i32 %68, 1, !dbg !9930
  invoke void @_Z3strIiENSt7__cxx1112basic_stringIcSt11char_traitsIcESaIcEEET_ic(ptr sret(%"class.std::__cxx11::basic_string") align 8 %29, i32 noundef %69, i32 noundef 0, i8 noundef signext 48)
          to label %70 unwind label %131, !dbg !9931

70:                                               ; preds = %67
  invoke void @_ZStplIcSt11char_traitsIcESaIcEENSt7__cxx1112basic_stringIT_T0_T1_EEOS8_S9_(ptr sret(%"class.std::__cxx11::basic_string") align 8 %27, ptr noundef nonnull align 8 dereferenceable(32) %28, ptr noundef nonnull align 8 dereferenceable(32) %29)
          to label %71 unwind label %135, !dbg !9932

71:                                               ; preds = %70
  invoke void @_ZStplIcSt11char_traitsIcESaIcEENSt7__cxx1112basic_stringIT_T0_T1_EEOS8_PKS5_(ptr sret(%"class.std::__cxx11::basic_string") align 8 %26, ptr noundef nonnull align 8 dereferenceable(32) %27, ptr noundef @.str.1)
          to label %72 unwind label %139, !dbg !9933

72:                                               ; preds = %71
  invoke void @_ZStplIcSt11char_traitsIcESaIcEENSt7__cxx1112basic_stringIT_T0_T1_EEOS8_PKS5_(ptr sret(%"class.std::__cxx11::basic_string") align 8 %25, ptr noundef nonnull align 8 dereferenceable(32) %26, ptr noundef @.str.8)
          to label %73 unwind label %143, !dbg !9934

73:                                               ; preds = %72
  %74 = load i32, ptr %6, align 4, !dbg !9935
  invoke void @_Z3strIiENSt7__cxx1112basic_stringIcSt11char_traitsIcESaIcEEET_ic(ptr sret(%"class.std::__cxx11::basic_string") align 8 %30, i32 noundef %74, i32 noundef 4, i8 noundef signext 48)
          to label %75 unwind label %147, !dbg !9936

75:                                               ; preds = %73
  invoke void @_ZStplIcSt11char_traitsIcESaIcEENSt7__cxx1112basic_stringIT_T0_T1_EEOS8_S9_(ptr sret(%"class.std::__cxx11::basic_string") align 8 %24, ptr noundef nonnull align 8 dereferenceable(32) %25, ptr noundef nonnull align 8 dereferenceable(32) %30)
          to label %76 unwind label %151, !dbg !9937

76:                                               ; preds = %75
  invoke void @_ZStplIcSt11char_traitsIcESaIcEENSt7__cxx1112basic_stringIT_T0_T1_EEOS8_PKS5_(ptr sret(%"class.std::__cxx11::basic_string") align 8 %23, ptr noundef nonnull align 8 dereferenceable(32) %24, ptr noundef @.str.9)
          to label %77 unwind label %155, !dbg !9938

77:                                               ; preds = %76
  %78 = load i32, ptr %14, align 4, !dbg !9939
  %79 = sext i32 %78 to i64, !dbg !9939
  %80 = call noundef nonnull align 8 dereferenceable(32) ptr @_ZNSt6vectorINSt7__cxx1112basic_stringIcSt11char_traitsIcESaIcEEESaIS5_EEixEm(ptr noundef nonnull align 8 dereferenceable(24) %12, i64 noundef %79) #3, !dbg !9940
  %81 = call noundef nonnull align 8 dereferenceable(32) ptr @_ZNSt7__cxx1112basic_stringIcSt11char_traitsIcESaIcEEaSEOS4_(ptr noundef nonnull align 8 dereferenceable(32) %80, ptr noundef nonnull align 8 dereferenceable(32) %23) #3, !dbg !9941
  call void @_ZNSt7__cxx1112basic_stringIcSt11char_traitsIcESaIcEED1Ev(ptr noundef nonnull align 8 dereferenceable(32) %23) #3, !dbg !9940
  call void @_ZNSt7__cxx1112basic_stringIcSt11char_traitsIcESaIcEED1Ev(ptr noundef nonnull align 8 dereferenceable(32) %24) #3, !dbg !9940
  call void @_ZNSt7__cxx1112basic_stringIcSt11char_traitsIcESaIcEED1Ev(ptr noundef nonnull align 8 dereferenceable(32) %30) #3, !dbg !9940
  call void @_ZNSt7__cxx1112basic_stringIcSt11char_traitsIcESaIcEED1Ev(ptr noundef nonnull align 8 dereferenceable(32) %25) #3, !dbg !9940
  call void @_ZNSt7__cxx1112basic_stringIcSt11char_traitsIcESaIcEED1Ev(ptr noundef nonnull align 8 dereferenceable(32) %26) #3, !dbg !9940
  call void @_ZNSt7__cxx1112basic_stringIcSt11char_traitsIcESaIcEED1Ev(ptr noundef nonnull align 8 dereferenceable(32) %27) #3, !dbg !9940
  call void @_ZNSt7__cxx1112basic_stringIcSt11char_traitsIcESaIcEED1Ev(ptr noundef nonnull align 8 dereferenceable(32) %29) #3, !dbg !9940
  call void @_ZNSt7__cxx1112basic_stringIcSt11char_traitsIcESaIcEED1Ev(ptr noundef nonnull align 8 dereferenceable(32) %28) #3, !dbg !9940
  br label %82, !dbg !9942

82:                                               ; preds = %77
  %83 = load i32, ptr %14, align 4, !dbg !9943
  %84 = add nsw i32 %83, 1, !dbg !9943
  store i32 %84, ptr %14, align 4, !dbg !9943
  br label %45, !dbg !9944, !llvm.loop !9945

85:                                               ; preds = %2
  %86 = landingpad { ptr, i32 }
          cleanup, !dbg !9947
  %87 = extractvalue { ptr, i32 } %86, 0, !dbg !9947
  store ptr %87, ptr %10, align 8, !dbg !9947
  %88 = extractvalue { ptr, i32 } %86, 1, !dbg !9947
  store i32 %88, ptr %11, align 4, !dbg !9947
  call void @_ZNSaINSt7__cxx1112basic_stringIcSt11char_traitsIcESaIcEEEED2Ev(ptr noundef nonnull align 1 dereferenceable(1) %9) #3, !dbg !9897
  br label %234, !dbg !9897

89:                                               ; preds = %41
  %90 = landingpad { ptr, i32 }
          cleanup, !dbg !9947
  %91 = extractvalue { ptr, i32 } %90, 0, !dbg !9947
  store ptr %91, ptr %10, align 8, !dbg !9947
  %92 = extractvalue { ptr, i32 } %90, 1, !dbg !9947
  store i32 %92, ptr %11, align 4, !dbg !9947
  call void @_ZNSaINSt7__cxx1112basic_stringIcSt11char_traitsIcESaIcEEEED2Ev(ptr noundef nonnull align 1 dereferenceable(1) %13) #3, !dbg !9900
  br label %233, !dbg !9900

93:                                               ; preds = %165, %61, %49
  %94 = landingpad { ptr, i32 }
          cleanup, !dbg !9948
  %95 = extractvalue { ptr, i32 } %94, 0, !dbg !9948
  store ptr %95, ptr %10, align 8, !dbg !9948
  %96 = extractvalue { ptr, i32 } %94, 1, !dbg !9948
  store i32 %96, ptr %11, align 4, !dbg !9948
  br label %232, !dbg !9948

97:                                               ; preds = %51
  %98 = landingpad { ptr, i32 }
          cleanup, !dbg !9948
  %99 = extractvalue { ptr, i32 } %98, 0, !dbg !9948
  store ptr %99, ptr %10, align 8, !dbg !9948
  %100 = extractvalue { ptr, i32 } %98, 1, !dbg !9948
  store i32 %100, ptr %11, align 4, !dbg !9948
  br label %130, !dbg !9948

101:                                              ; preds = %54
  %102 = landingpad { ptr, i32 }
          cleanup, !dbg !9948
  %103 = extractvalue { ptr, i32 } %102, 0, !dbg !9948
  store ptr %103, ptr %10, align 8, !dbg !9948
  %104 = extractvalue { ptr, i32 } %102, 1, !dbg !9948
  store i32 %104, ptr %11, align 4, !dbg !9948
  br label %129, !dbg !9948

105:                                              ; preds = %55
  %106 = landingpad { ptr, i32 }
          cleanup, !dbg !9948
  %107 = extractvalue { ptr, i32 } %106, 0, !dbg !9948
  store ptr %107, ptr %10, align 8, !dbg !9948
  %108 = extractvalue { ptr, i32 } %106, 1, !dbg !9948
  store i32 %108, ptr %11, align 4, !dbg !9948
  br label %128, !dbg !9948

109:                                              ; preds = %56
  %110 = landingpad { ptr, i32 }
          cleanup, !dbg !9948
  %111 = extractvalue { ptr, i32 } %110, 0, !dbg !9948
  store ptr %111, ptr %10, align 8, !dbg !9948
  %112 = extractvalue { ptr, i32 } %110, 1, !dbg !9948
  store i32 %112, ptr %11, align 4, !dbg !9948
  br label %127, !dbg !9948

113:                                              ; preds = %57
  %114 = landingpad { ptr, i32 }
          cleanup, !dbg !9948
  %115 = extractvalue { ptr, i32 } %114, 0, !dbg !9948
  store ptr %115, ptr %10, align 8, !dbg !9948
  %116 = extractvalue { ptr, i32 } %114, 1, !dbg !9948
  store i32 %116, ptr %11, align 4, !dbg !9948
  br label %126, !dbg !9948

117:                                              ; preds = %59
  %118 = landingpad { ptr, i32 }
          cleanup, !dbg !9948
  %119 = extractvalue { ptr, i32 } %118, 0, !dbg !9948
  store ptr %119, ptr %10, align 8, !dbg !9948
  %120 = extractvalue { ptr, i32 } %118, 1, !dbg !9948
  store i32 %120, ptr %11, align 4, !dbg !9948
  br label %125, !dbg !9948

121:                                              ; preds = %60
  %122 = landingpad { ptr, i32 }
          cleanup, !dbg !9948
  %123 = extractvalue { ptr, i32 } %122, 0, !dbg !9948
  store ptr %123, ptr %10, align 8, !dbg !9948
  %124 = extractvalue { ptr, i32 } %122, 1, !dbg !9948
  store i32 %124, ptr %11, align 4, !dbg !9948
  call void @_ZNSt7__cxx1112basic_stringIcSt11char_traitsIcESaIcEED1Ev(ptr noundef nonnull align 8 dereferenceable(32) %16) #3, !dbg !9925
  br label %125, !dbg !9925

125:                                              ; preds = %121, %117
  call void @_ZNSt7__cxx1112basic_stringIcSt11char_traitsIcESaIcEED1Ev(ptr noundef nonnull align 8 dereferenceable(32) %22) #3, !dbg !9925
  br label %126, !dbg !9925

126:                                              ; preds = %125, %113
  call void @_ZNSt7__cxx1112basic_stringIcSt11char_traitsIcESaIcEED1Ev(ptr noundef nonnull align 8 dereferenceable(32) %17) #3, !dbg !9925
  br label %127, !dbg !9925

127:                                              ; preds = %126, %109
  call void @_ZNSt7__cxx1112basic_stringIcSt11char_traitsIcESaIcEED1Ev(ptr noundef nonnull align 8 dereferenceable(32) %18) #3, !dbg !9925
  br label %128, !dbg !9925

128:                                              ; preds = %127, %105
  call void @_ZNSt7__cxx1112basic_stringIcSt11char_traitsIcESaIcEED1Ev(ptr noundef nonnull align 8 dereferenceable(32) %19) #3, !dbg !9925
  br label %129, !dbg !9925

129:                                              ; preds = %128, %101
  call void @_ZNSt7__cxx1112basic_stringIcSt11char_traitsIcESaIcEED1Ev(ptr noundef nonnull align 8 dereferenceable(32) %21) #3, !dbg !9925
  br label %130, !dbg !9925

130:                                              ; preds = %129, %97
  call void @_ZNSt7__cxx1112basic_stringIcSt11char_traitsIcESaIcEED1Ev(ptr noundef nonnull align 8 dereferenceable(32) %20) #3, !dbg !9925
  br label %232, !dbg !9925

131:                                              ; preds = %67
  %132 = landingpad { ptr, i32 }
          cleanup, !dbg !9948
  %133 = extractvalue { ptr, i32 } %132, 0, !dbg !9948
  store ptr %133, ptr %10, align 8, !dbg !9948
  %134 = extractvalue { ptr, i32 } %132, 1, !dbg !9948
  store i32 %134, ptr %11, align 4, !dbg !9948
  br label %164, !dbg !9948

135:                                              ; preds = %70
  %136 = landingpad { ptr, i32 }
          cleanup, !dbg !9948
  %137 = extractvalue { ptr, i32 } %136, 0, !dbg !9948
  store ptr %137, ptr %10, align 8, !dbg !9948
  %138 = extractvalue { ptr, i32 } %136, 1, !dbg !9948
  store i32 %138, ptr %11, align 4, !dbg !9948
  br label %163, !dbg !9948

139:                                              ; preds = %71
  %140 = landingpad { ptr, i32 }
          cleanup, !dbg !9948
  %141 = extractvalue { ptr, i32 } %140, 0, !dbg !9948
  store ptr %141, ptr %10, align 8, !dbg !9948
  %142 = extractvalue { ptr, i32 } %140, 1, !dbg !9948
  store i32 %142, ptr %11, align 4, !dbg !9948
  br label %162, !dbg !9948

143:                                              ; preds = %72
  %144 = landingpad { ptr, i32 }
          cleanup, !dbg !9948
  %145 = extractvalue { ptr, i32 } %144, 0, !dbg !9948
  store ptr %145, ptr %10, align 8, !dbg !9948
  %146 = extractvalue { ptr, i32 } %144, 1, !dbg !9948
  store i32 %146, ptr %11, align 4, !dbg !9948
  br label %161, !dbg !9948

147:                                              ; preds = %73
  %148 = landingpad { ptr, i32 }
          cleanup, !dbg !9948
  %149 = extractvalue { ptr, i32 } %148, 0, !dbg !9948
  store ptr %149, ptr %10, align 8, !dbg !9948
  %150 = extractvalue { ptr, i32 } %148, 1, !dbg !9948
  store i32 %150, ptr %11, align 4, !dbg !9948
  br label %160, !dbg !9948

151:                                              ; preds = %75
  %152 = landingpad { ptr, i32 }
          cleanup, !dbg !9948
  %153 = extractvalue { ptr, i32 } %152, 0, !dbg !9948
  store ptr %153, ptr %10, align 8, !dbg !9948
  %154 = extractvalue { ptr, i32 } %152, 1, !dbg !9948
  store i32 %154, ptr %11, align 4, !dbg !9948
  br label %159, !dbg !9948

155:                                              ; preds = %76
  %156 = landingpad { ptr, i32 }
          cleanup, !dbg !9948
  %157 = extractvalue { ptr, i32 } %156, 0, !dbg !9948
  store ptr %157, ptr %10, align 8, !dbg !9948
  %158 = extractvalue { ptr, i32 } %156, 1, !dbg !9948
  store i32 %158, ptr %11, align 4, !dbg !9948
  call void @_ZNSt7__cxx1112basic_stringIcSt11char_traitsIcESaIcEED1Ev(ptr noundef nonnull align 8 dereferenceable(32) %24) #3, !dbg !9940
  br label %159, !dbg !9940

159:                                              ; preds = %155, %151
  call void @_ZNSt7__cxx1112basic_stringIcSt11char_traitsIcESaIcEED1Ev(ptr noundef nonnull align 8 dereferenceable(32) %30) #3, !dbg !9940
  br label %160, !dbg !9940

160:                                              ; preds = %159, %147
  call void @_ZNSt7__cxx1112basic_stringIcSt11char_traitsIcESaIcEED1Ev(ptr noundef nonnull align 8 dereferenceable(32) %25) #3, !dbg !9940
  br label %161, !dbg !9940

161:                                              ; preds = %160, %143
  call void @_ZNSt7__cxx1112basic_stringIcSt11char_traitsIcESaIcEED1Ev(ptr noundef nonnull align 8 dereferenceable(32) %26) #3, !dbg !9940
  br label %162, !dbg !9940

162:                                              ; preds = %161, %139
  call void @_ZNSt7__cxx1112basic_stringIcSt11char_traitsIcESaIcEED1Ev(ptr noundef nonnull align 8 dereferenceable(32) %27) #3, !dbg !9940
  br label %163, !dbg !9940

163:                                              ; preds = %162, %135
  call void @_ZNSt7__cxx1112basic_stringIcSt11char_traitsIcESaIcEED1Ev(ptr noundef nonnull align 8 dereferenceable(32) %29) #3, !dbg !9940
  br label %164, !dbg !9940

164:                                              ; preds = %163, %131
  call void @_ZNSt7__cxx1112basic_stringIcSt11char_traitsIcESaIcEED1Ev(ptr noundef nonnull align 8 dereferenceable(32) %28) #3, !dbg !9940
  br label %232, !dbg !9940

165:                                              ; preds = %45
  call void @llvm.dbg.declare(metadata ptr %31, metadata !9949, metadata !DIExpression()), !dbg !9950
  invoke void @_ZN9FlexImageIhLi1EEC1Ev(ptr noundef nonnull align 8 dereferenceable(36) %31)
          to label %166 unwind label %93, !dbg !9950

166:                                              ; preds = %165
  call void @llvm.dbg.declare(metadata ptr %32, metadata !9951, metadata !DIExpression()), !dbg !9953
  store i32 0, ptr %32, align 4, !dbg !9953
  br label %167, !dbg !9954

167:                                              ; preds = %226, %166
  %168 = load i32, ptr %32, align 4, !dbg !9955
  %169 = zext i32 %168 to i64, !dbg !9955
  %170 = call noundef i64 @_ZNKSt6vectorINSt7__cxx1112basic_stringIcSt11char_traitsIcESaIcEEESaIS5_EE4sizeEv(ptr noundef nonnull align 8 dereferenceable(24) %8) #3, !dbg !9957
  %171 = icmp ult i64 %169, %170, !dbg !9958
  br i1 %171, label %172, label %229, !dbg !9959

172:                                              ; preds = %167
  %173 = load i32, ptr %32, align 4, !dbg !9960
  %174 = zext i32 %173 to i64, !dbg !9960
  %175 = call noundef nonnull align 8 dereferenceable(32) ptr @_ZNSt6vectorINSt7__cxx1112basic_stringIcSt11char_traitsIcESaIcEEESaIS5_EEixEm(ptr noundef nonnull align 8 dereferenceable(24) %8, i64 noundef %174) #3, !dbg !9963
  %176 = call noundef ptr @_ZNKSt7__cxx1112basic_stringIcSt11char_traitsIcESaIcEE5c_strEv(ptr noundef nonnull align 8 dereferenceable(32) %175) #3, !dbg !9964
  %177 = invoke noundef zeroext i1 @_Z11FlexLoadBMPIhLi1EEbPKcR9FlexImageIT_XT0_EE(ptr noundef %176, ptr noundef nonnull align 8 dereferenceable(36) %31)
          to label %178 unwind label %190, !dbg !9965

178:                                              ; preds = %172
  br i1 %177, label %194, label %179, !dbg !9966

179:                                              ; preds = %178
  %180 = invoke noundef nonnull align 8 dereferenceable(8) ptr @_ZStlsISt11char_traitsIcEERSt13basic_ostreamIcT_ES5_PKc(ptr noundef nonnull align 8 dereferenceable(8) @_ZSt4cout, ptr noundef @.str.11)
          to label %181 unwind label %190, !dbg !9967

181:                                              ; preds = %179
  %182 = load i32, ptr %32, align 4, !dbg !9969
  %183 = zext i32 %182 to i64, !dbg !9969
  %184 = call noundef nonnull align 8 dereferenceable(32) ptr @_ZNSt6vectorINSt7__cxx1112basic_stringIcSt11char_traitsIcESaIcEEESaIS5_EEixEm(ptr noundef nonnull align 8 dereferenceable(24) %8, i64 noundef %183) #3, !dbg !9970
  %185 = call noundef ptr @_ZNKSt7__cxx1112basic_stringIcSt11char_traitsIcESaIcEE5c_strEv(ptr noundef nonnull align 8 dereferenceable(32) %184) #3, !dbg !9971
  %186 = invoke noundef nonnull align 8 dereferenceable(8) ptr @_ZStlsISt11char_traitsIcEERSt13basic_ostreamIcT_ES5_PKc(ptr noundef nonnull align 8 dereferenceable(8) %180, ptr noundef %185)
          to label %187 unwind label %190, !dbg !9972

187:                                              ; preds = %181
  %188 = invoke noundef nonnull align 8 dereferenceable(8) ptr @_ZNSolsEPFRSoS_E(ptr noundef nonnull align 8 dereferenceable(8) %186, ptr noundef @_ZSt4endlIcSt11char_traitsIcEERSt13basic_ostreamIT_T0_ES6_)
          to label %189 unwind label %190, !dbg !9973

189:                                              ; preds = %187
  store i1 false, ptr %3, align 1, !dbg !9974
  store i32 1, ptr %33, align 4
  br label %230, !dbg !9974

190:                                              ; preds = %217, %214, %208, %206, %199, %194, %187, %181, %179, %172
  %191 = landingpad { ptr, i32 }
          cleanup, !dbg !9975
  %192 = extractvalue { ptr, i32 } %191, 0, !dbg !9975
  store ptr %192, ptr %10, align 8, !dbg !9975
  %193 = extractvalue { ptr, i32 } %191, 1, !dbg !9975
  store i32 %193, ptr %11, align 4, !dbg !9975
  call void @_ZN9FlexImageIhLi1EED1Ev(ptr noundef nonnull align 8 dereferenceable(36) %31) #3, !dbg !9947
  br label %232, !dbg !9947

194:                                              ; preds = %178
  %195 = getelementptr inbounds %class.TrackingModel, ptr %34, i32 0, i32 1, !dbg !9976
  %196 = load i32, ptr %32, align 4, !dbg !9977
  %197 = zext i32 %196 to i64, !dbg !9977
  %198 = call noundef nonnull align 8 dereferenceable(24) ptr @_ZNSt6vectorI11BinaryImageSaIS0_EEixEm(ptr noundef nonnull align 8 dereferenceable(24) %195, i64 noundef %197) #3, !dbg !9976
  invoke void @_ZN11BinaryImage15ConvertToBinaryERK9FlexImageIhLi1EE(ptr noundef nonnull align 8 dereferenceable(24) %198, ptr noundef nonnull align 8 dereferenceable(36) %31)
          to label %199 unwind label %190, !dbg !9978

199:                                              ; preds = %194
  %200 = load i32, ptr %32, align 4, !dbg !9979
  %201 = zext i32 %200 to i64, !dbg !9979
  %202 = call noundef nonnull align 8 dereferenceable(32) ptr @_ZNSt6vectorINSt7__cxx1112basic_stringIcSt11char_traitsIcESaIcEEESaIS5_EEixEm(ptr noundef nonnull align 8 dereferenceable(24) %12, i64 noundef %201) #3, !dbg !9981
  %203 = call noundef ptr @_ZNKSt7__cxx1112basic_stringIcSt11char_traitsIcESaIcEE5c_strEv(ptr noundef nonnull align 8 dereferenceable(32) %202) #3, !dbg !9982
  %204 = invoke noundef zeroext i1 @_Z11FlexLoadBMPIhLi1EEbPKcR9FlexImageIT_XT0_EE(ptr noundef %203, ptr noundef nonnull align 8 dereferenceable(36) %31)
          to label %205 unwind label %190, !dbg !9983

205:                                              ; preds = %199
  br i1 %204, label %217, label %206, !dbg !9984

206:                                              ; preds = %205
  %207 = invoke noundef nonnull align 8 dereferenceable(8) ptr @_ZStlsISt11char_traitsIcEERSt13basic_ostreamIcT_ES5_PKc(ptr noundef nonnull align 8 dereferenceable(8) @_ZSt4cout, ptr noundef @.str.11)
          to label %208 unwind label %190, !dbg !9985

208:                                              ; preds = %206
  %209 = load i32, ptr %32, align 4, !dbg !9987
  %210 = zext i32 %209 to i64, !dbg !9987
  %211 = call noundef nonnull align 8 dereferenceable(32) ptr @_ZNSt6vectorINSt7__cxx1112basic_stringIcSt11char_traitsIcESaIcEEESaIS5_EEixEm(ptr noundef nonnull align 8 dereferenceable(24) %12, i64 noundef %210) #3, !dbg !9988
  %212 = call noundef ptr @_ZNKSt7__cxx1112basic_stringIcSt11char_traitsIcESaIcEE5c_strEv(ptr noundef nonnull align 8 dereferenceable(32) %211) #3, !dbg !9989
  %213 = invoke noundef nonnull align 8 dereferenceable(8) ptr @_ZStlsISt11char_traitsIcEERSt13basic_ostreamIcT_ES5_PKc(ptr noundef nonnull align 8 dereferenceable(8) %207, ptr noundef %212)
          to label %214 unwind label %190, !dbg !9990

214:                                              ; preds = %208
  %215 = invoke noundef nonnull align 8 dereferenceable(8) ptr @_ZNSolsEPFRSoS_E(ptr noundef nonnull align 8 dereferenceable(8) %213, ptr noundef @_ZSt4endlIcSt11char_traitsIcEERSt13basic_ostreamIT_T0_ES6_)
          to label %216 unwind label %190, !dbg !9991

216:                                              ; preds = %214
  store i1 false, ptr %3, align 1, !dbg !9992
  store i32 1, ptr %33, align 4
  br label %230, !dbg !9992

217:                                              ; preds = %205
  %218 = getelementptr inbounds %class.TrackingModel, ptr %34, i32 0, i32 2, !dbg !9993
  %219 = load i32, ptr %32, align 4, !dbg !9994
  %220 = zext i32 %219 to i64, !dbg !9994
  %221 = call noundef nonnull align 8 dereferenceable(36) ptr @_ZNSt6vectorI9FlexImageIhLi1EESaIS1_EEixEm(ptr noundef nonnull align 8 dereferenceable(24) %218, i64 noundef %220) #3, !dbg !9993
  %222 = load ptr, ptr %34, align 8, !dbg !9995
  %223 = getelementptr inbounds ptr, ptr %222, i64 0, !dbg !9995
  %224 = load ptr, ptr %223, align 8, !dbg !9995
  invoke void %224(ptr noundef nonnull align 8 dereferenceable(240) %34, ptr noundef nonnull align 8 dereferenceable(36) %31, ptr noundef nonnull align 8 dereferenceable(36) %221)
          to label %225 unwind label %190, !dbg !9995

225:                                              ; preds = %217
  br label %226, !dbg !9996

226:                                              ; preds = %225
  %227 = load i32, ptr %32, align 4, !dbg !9997
  %228 = add i32 %227, 1, !dbg !9997
  store i32 %228, ptr %32, align 4, !dbg !9997
  br label %167, !dbg !9998, !llvm.loop !9999

229:                                              ; preds = %167
  store i1 true, ptr %3, align 1, !dbg !10001
  store i32 1, ptr %33, align 4
  br label %230, !dbg !10001

230:                                              ; preds = %229, %216, %189
  call void @_ZN9FlexImageIhLi1EED1Ev(ptr noundef nonnull align 8 dereferenceable(36) %31) #3, !dbg !9947
  call void @_ZNSt6vectorINSt7__cxx1112basic_stringIcSt11char_traitsIcESaIcEEESaIS5_EED2Ev(ptr noundef nonnull align 8 dereferenceable(24) %12) #3, !dbg !9947
  call void @_ZNSt6vectorINSt7__cxx1112basic_stringIcSt11char_traitsIcESaIcEEESaIS5_EED2Ev(ptr noundef nonnull align 8 dereferenceable(24) %8) #3, !dbg !9947
  %231 = load i1, ptr %3, align 1, !dbg !9947
  ret i1 %231, !dbg !9947

232:                                              ; preds = %190, %164, %130, %93
  call void @_ZNSt6vectorINSt7__cxx1112basic_stringIcSt11char_traitsIcESaIcEEESaIS5_EED2Ev(ptr noundef nonnull align 8 dereferenceable(24) %12) #3, !dbg !9947
  br label %233, !dbg !9947

233:                                              ; preds = %232, %89
  call void @_ZNSt6vectorINSt7__cxx1112basic_stringIcSt11char_traitsIcESaIcEEESaIS5_EED2Ev(ptr noundef nonnull align 8 dereferenceable(24) %8) #3, !dbg !9947
  br label %234, !dbg !9947

234:                                              ; preds = %233, %85
  %235 = load ptr, ptr %10, align 8, !dbg !9897
  %236 = load i32, ptr %11, align 4, !dbg !9897
  %237 = insertvalue { ptr, i32 } poison, ptr %235, 0, !dbg !9897
  %238 = insertvalue { ptr, i32 } %237, i32 %236, 1, !dbg !9897
  resume { ptr, i32 } %238, !dbg !9897
}

; Function Attrs: mustprogress noinline nounwind optnone uwtable
define linkonce_odr dso_local noundef i32 @_ZN11MultiCamera14GetCameraCountEv(ptr noundef nonnull align 8 dereferenceable(24) %0) #8 comdat align 2 !dbg !10002 {
  %2 = alloca ptr, align 8
  store ptr %0, ptr %2, align 8
  call void @llvm.dbg.declare(metadata ptr %2, metadata !10003, metadata !DIExpression()), !dbg !10004
  %3 = load ptr, ptr %2, align 8
  %4 = getelementptr inbounds %class.MultiCamera, ptr %3, i32 0, i32 0, !dbg !10005
  %5 = call noundef i64 @_ZNKSt6vectorI6CameraSaIS0_EE4sizeEv(ptr noundef nonnull align 8 dereferenceable(24) %4) #3, !dbg !10006
  %6 = trunc i64 %5 to i32, !dbg !10005
  ret i32 %6, !dbg !10007
}

declare void @_ZN9FlexImageIhLi1EEC1Ev(ptr noundef nonnull align 8 dereferenceable(36)) unnamed_addr #1

; Function Attrs: mustprogress noinline optnone uwtable
define linkonce_odr dso_local noundef zeroext i1 @_Z11FlexLoadBMPIhLi1EEbPKcR9FlexImageIT_XT0_EE(ptr noundef %0, ptr noundef nonnull align 8 dereferenceable(36) %1) #7 comdat personality ptr @__gxx_personality_v0 !dbg !10008 {
  %3 = alloca ptr, align 8
  %4 = alloca ptr, align 8
  %5 = alloca %class.FlexImage, align 8
  %6 = alloca i8, align 1
  %7 = alloca ptr, align 8
  %8 = alloca i32, align 4
  store ptr %0, ptr %3, align 8
  call void @llvm.dbg.declare(metadata ptr %3, metadata !10011, metadata !DIExpression()), !dbg !10012
  store ptr %1, ptr %4, align 8
  call void @llvm.dbg.declare(metadata ptr %4, metadata !10013, metadata !DIExpression()), !dbg !10014
  call void @llvm.dbg.declare(metadata ptr %5, metadata !10015, metadata !DIExpression()), !dbg !10016
  call void @_ZN9FlexImageIhLi1EEC1Ev(ptr noundef nonnull align 8 dereferenceable(36) %5), !dbg !10016
  call void @llvm.dbg.declare(metadata ptr %6, metadata !10017, metadata !DIExpression()), !dbg !10018
  %9 = load ptr, ptr %3, align 8, !dbg !10019
  %10 = invoke noundef zeroext i1 @_Z13FlexLoadBMP8uPKcR9FlexImageIhLi1EE(ptr noundef %9, ptr noundef nonnull align 8 dereferenceable(36) %5)
          to label %11 unwind label %18, !dbg !10020

11:                                               ; preds = %2
  %12 = zext i1 %10 to i8, !dbg !10018
  store i8 %12, ptr %6, align 1, !dbg !10018
  %13 = load ptr, ptr %4, align 8, !dbg !10021
  %14 = invoke noundef i32 @_ZN9FlexImageIhLi1EE11ConvertFromIhEEiRKS_IT_Li1EEb(ptr noundef nonnull align 8 dereferenceable(36) %13, ptr noundef nonnull align 8 dereferenceable(36) %5, i1 noundef zeroext true)
          to label %15 unwind label %18, !dbg !10022

15:                                               ; preds = %11
  %16 = load i8, ptr %6, align 1, !dbg !10023
  %17 = trunc i8 %16 to i1, !dbg !10023
  call void @_ZN9FlexImageIhLi1EED1Ev(ptr noundef nonnull align 8 dereferenceable(36) %5) #3, !dbg !10024
  ret i1 %17, !dbg !10024

18:                                               ; preds = %11, %2
  %19 = landingpad { ptr, i32 }
          cleanup, !dbg !10024
  %20 = extractvalue { ptr, i32 } %19, 0, !dbg !10024
  store ptr %20, ptr %7, align 8, !dbg !10024
  %21 = extractvalue { ptr, i32 } %19, 1, !dbg !10024
  store i32 %21, ptr %8, align 4, !dbg !10024
  call void @_ZN9FlexImageIhLi1EED1Ev(ptr noundef nonnull align 8 dereferenceable(36) %5) #3, !dbg !10024
  br label %22, !dbg !10024

22:                                               ; preds = %18
  %23 = load ptr, ptr %7, align 8, !dbg !10024
  %24 = load i32, ptr %8, align 4, !dbg !10024
  %25 = insertvalue { ptr, i32 } poison, ptr %23, 0, !dbg !10024
  %26 = insertvalue { ptr, i32 } %25, i32 %24, 1, !dbg !10024
  resume { ptr, i32 } %26, !dbg !10024
}

declare noundef nonnull align 8 dereferenceable(8) ptr @_ZStlsISt11char_traitsIcEERSt13basic_ostreamIcT_ES5_PKc(ptr noundef nonnull align 8 dereferenceable(8), ptr noundef) #1

declare noundef nonnull align 8 dereferenceable(8) ptr @_ZNSolsEPFRSoS_E(ptr noundef nonnull align 8 dereferenceable(8), ptr noundef) #1

declare noundef nonnull align 8 dereferenceable(8) ptr @_ZSt4endlIcSt11char_traitsIcEERSt13basic_ostreamIT_T0_ES6_(ptr noundef nonnull align 8 dereferenceable(8)) #1

; Function Attrs: mustprogress noinline nounwind optnone uwtable
define linkonce_odr dso_local noundef nonnull align 8 dereferenceable(24) ptr @_ZNSt6vectorI11BinaryImageSaIS0_EEixEm(ptr noundef nonnull align 8 dereferenceable(24) %0, i64 noundef %1) #8 comdat align 2 !dbg !10025 {
  %3 = alloca ptr, align 8
  %4 = alloca i64, align 8
  store ptr %0, ptr %3, align 8
  call void @llvm.dbg.declare(metadata ptr %3, metadata !10026, metadata !DIExpression()), !dbg !10027
  store i64 %1, ptr %4, align 8
  call void @llvm.dbg.declare(metadata ptr %4, metadata !10028, metadata !DIExpression()), !dbg !10029
  %5 = load ptr, ptr %3, align 8
  %6 = getelementptr inbounds %"struct.std::_Vector_base", ptr %5, i32 0, i32 0, !dbg !10030
  %7 = getelementptr inbounds %"struct.std::_Vector_base<BinaryImage, std::allocator<BinaryImage>>::_Vector_impl_data", ptr %6, i32 0, i32 0, !dbg !10031
  %8 = load ptr, ptr %7, align 8, !dbg !10031
  %9 = load i64, ptr %4, align 8, !dbg !10032
  %10 = getelementptr inbounds %class.BinaryImage, ptr %8, i64 %9, !dbg !10033
  ret ptr %10, !dbg !10034
}

; Function Attrs: mustprogress noinline optnone uwtable
define linkonce_odr dso_local void @_ZN11BinaryImage15ConvertToBinaryERK9FlexImageIhLi1EE(ptr noundef nonnull align 8 dereferenceable(24) %0, ptr noundef nonnull align 8 dereferenceable(36) %1) #7 comdat align 2 !dbg !10035 {
  %3 = alloca ptr, align 8
  %4 = alloca ptr, align 8
  %5 = alloca i32, align 4
  %6 = alloca i32, align 4
  %7 = alloca i32, align 4
  %8 = alloca ptr, align 8
  %9 = alloca i32, align 4
  %10 = alloca i8, align 1
  store ptr %0, ptr %3, align 8
  call void @llvm.dbg.declare(metadata ptr %3, metadata !10036, metadata !DIExpression()), !dbg !10037
  store ptr %1, ptr %4, align 8
  call void @llvm.dbg.declare(metadata ptr %4, metadata !10038, metadata !DIExpression()), !dbg !10039
  %11 = load ptr, ptr %3, align 8
  %12 = load ptr, ptr %4, align 8, !dbg !10040
  %13 = call noundef i32 @_ZNK9FlexImageIhLi1EE5WidthEv(ptr noundef nonnull align 8 dereferenceable(36) %12), !dbg !10041
  %14 = load ptr, ptr %4, align 8, !dbg !10042
  %15 = call noundef i32 @_ZNK9FlexImageIhLi1EE6HeightEv(ptr noundef nonnull align 8 dereferenceable(36) %14), !dbg !10043
  call void @_ZN11BinaryImage10ReallocateEii(ptr noundef nonnull align 8 dereferenceable(24) %11, i32 noundef %13, i32 noundef %15), !dbg !10044
  call void @_ZN11BinaryImage5ClearEv(ptr noundef nonnull align 8 dereferenceable(24) %11), !dbg !10045
  call void @llvm.dbg.declare(metadata ptr %5, metadata !10046, metadata !DIExpression()), !dbg !10047
  store i32 0, ptr %5, align 4, !dbg !10047
  call void @llvm.dbg.declare(metadata ptr %6, metadata !10048, metadata !DIExpression()), !dbg !10049
  store i32 0, ptr %6, align 4, !dbg !10049
  call void @llvm.dbg.declare(metadata ptr %7, metadata !10050, metadata !DIExpression()), !dbg !10052
  store i32 0, ptr %7, align 4, !dbg !10052
  br label %16, !dbg !10053

16:                                               ; preds = %68, %2
  %17 = load i32, ptr %7, align 4, !dbg !10054
  %18 = load ptr, ptr %4, align 8, !dbg !10056
  %19 = call noundef i32 @_ZNK9FlexImageIhLi1EE6HeightEv(ptr noundef nonnull align 8 dereferenceable(36) %18), !dbg !10057
  %20 = icmp slt i32 %17, %19, !dbg !10058
  br i1 %20, label %21, label %71, !dbg !10059

21:                                               ; preds = %16
  call void @llvm.dbg.declare(metadata ptr %8, metadata !10060, metadata !DIExpression()), !dbg !10062
  %22 = load ptr, ptr %4, align 8, !dbg !10063
  %23 = load i32, ptr %7, align 4, !dbg !10064
  %24 = call noundef nonnull align 1 dereferenceable(1) ptr @_ZNK9FlexImageIhLi1EEclEii(ptr noundef nonnull align 8 dereferenceable(36) %22, i32 noundef 0, i32 noundef %23), !dbg !10063
  store ptr %24, ptr %8, align 8, !dbg !10062
  call void @llvm.dbg.declare(metadata ptr %9, metadata !10065, metadata !DIExpression()), !dbg !10067
  store i32 0, ptr %9, align 4, !dbg !10067
  br label %25, !dbg !10068

25:                                               ; preds = %64, %21
  %26 = load i32, ptr %9, align 4, !dbg !10069
  %27 = load ptr, ptr %4, align 8, !dbg !10071
  %28 = call noundef i32 @_ZNK9FlexImageIhLi1EE5WidthEv(ptr noundef nonnull align 8 dereferenceable(36) %27), !dbg !10072
  %29 = icmp slt i32 %26, %28, !dbg !10073
  br i1 %29, label %30, label %67, !dbg !10074

30:                                               ; preds = %25
  call void @llvm.dbg.declare(metadata ptr %10, metadata !10075, metadata !DIExpression()), !dbg !10077
  %31 = load ptr, ptr %8, align 8, !dbg !10078
  %32 = getelementptr inbounds i8, ptr %31, i32 1, !dbg !10078
  store ptr %32, ptr %8, align 8, !dbg !10078
  %33 = load i8, ptr %31, align 1, !dbg !10079
  %34 = zext i8 %33 to i32, !dbg !10079
  %35 = icmp ne i32 %34, 0, !dbg !10080
  %36 = zext i1 %35 to i64, !dbg !10079
  %37 = select i1 %35, i32 1, i32 0, !dbg !10079
  %38 = trunc i32 %37 to i8, !dbg !10079
  store i8 %38, ptr %10, align 1, !dbg !10077
  %39 = getelementptr inbounds %class.BinaryImage, ptr %11, i32 0, i32 1, !dbg !10081
  %40 = load ptr, ptr %39, align 8, !dbg !10081
  %41 = load i32, ptr %6, align 4, !dbg !10082
  %42 = sext i32 %41 to i64, !dbg !10081
  %43 = getelementptr inbounds i8, ptr %40, i64 %42, !dbg !10081
  %44 = load i8, ptr %43, align 1, !dbg !10081
  %45 = zext i8 %44 to i32, !dbg !10081
  %46 = load i8, ptr %10, align 1, !dbg !10083
  %47 = zext i8 %46 to i32, !dbg !10083
  %48 = load i32, ptr %5, align 4, !dbg !10084
  %49 = shl i32 %47, %48, !dbg !10085
  %50 = or i32 %45, %49, !dbg !10086
  %51 = trunc i32 %50 to i8, !dbg !10081
  %52 = getelementptr inbounds %class.BinaryImage, ptr %11, i32 0, i32 1, !dbg !10087
  %53 = load ptr, ptr %52, align 8, !dbg !10087
  %54 = load i32, ptr %6, align 4, !dbg !10088
  %55 = sext i32 %54 to i64, !dbg !10087
  %56 = getelementptr inbounds i8, ptr %53, i64 %55, !dbg !10087
  store i8 %51, ptr %56, align 1, !dbg !10089
  %57 = load i32, ptr %5, align 4, !dbg !10090
  %58 = add nsw i32 %57, 1, !dbg !10090
  store i32 %58, ptr %5, align 4, !dbg !10090
  %59 = icmp sgt i32 %58, 7, !dbg !10092
  br i1 %59, label %60, label %63, !dbg !10093

60:                                               ; preds = %30
  store i32 0, ptr %5, align 4, !dbg !10094
  %61 = load i32, ptr %6, align 4, !dbg !10096
  %62 = add nsw i32 %61, 1, !dbg !10096
  store i32 %62, ptr %6, align 4, !dbg !10096
  br label %63, !dbg !10097

63:                                               ; preds = %60, %30
  br label %64, !dbg !10098

64:                                               ; preds = %63
  %65 = load i32, ptr %9, align 4, !dbg !10099
  %66 = add nsw i32 %65, 1, !dbg !10099
  store i32 %66, ptr %9, align 4, !dbg !10099
  br label %25, !dbg !10100, !llvm.loop !10101

67:                                               ; preds = %25
  br label %68, !dbg !10103

68:                                               ; preds = %67
  %69 = load i32, ptr %7, align 4, !dbg !10104
  %70 = add nsw i32 %69, 1, !dbg !10104
  store i32 %70, ptr %7, align 4, !dbg !10104
  br label %16, !dbg !10105, !llvm.loop !10106

71:                                               ; preds = %16
  ret void, !dbg !10108
}

; Function Attrs: mustprogress noinline nounwind optnone uwtable
define linkonce_odr dso_local noundef nonnull align 8 dereferenceable(36) ptr @_ZNSt6vectorI9FlexImageIhLi1EESaIS1_EEixEm(ptr noundef nonnull align 8 dereferenceable(24) %0, i64 noundef %1) #8 comdat align 2 !dbg !10109 {
  %3 = alloca ptr, align 8
  %4 = alloca i64, align 8
  store ptr %0, ptr %3, align 8
