; ModuleID = '/home/cs22mtech12008/Reproduced_UAF/Synthetic_bugs/PTHREAD_VERSION/Thread_creation_Patterns/Thread_in_loop/gpt.cpp'
source_filename = "/home/cs22mtech12008/Reproduced_UAF/Synthetic_bugs/PTHREAD_VERSION/Thread_creation_Patterns/Thread_in_loop/gpt.cpp"
target datalayout = "e-m:e-p270:32:32-p271:32:32-p272:64:64-i64:64-f80:128-n8:16:32:64-S128"
target triple = "x86_64-unknown-linux-gnu"

module asm ".globl _ZSt21ios_base_library_initv"

%"class.std::vector" = type { %"struct.std::_Vector_base" }
%"struct.std::_Vector_base" = type { %"struct.std::_Vector_base<std::thread, std::allocator<std::thread>>::_Vector_impl" }
%"struct.std::_Vector_base<std::thread, std::allocator<std::thread>>::_Vector_impl" = type { %"struct.std::_Vector_base<std::thread, std::allocator<std::thread>>::_Vector_impl_data" }
%"struct.std::_Vector_base<std::thread, std::allocator<std::thread>>::_Vector_impl_data" = type { ptr, ptr, ptr }
%"class.std::basic_ostream" = type { ptr, %"class.std::basic_ios" }
%"class.std::basic_ios" = type { %"class.std::ios_base", ptr, i8, i8, ptr, ptr, ptr, ptr }
%"class.std::ios_base" = type { ptr, i64, i64, i32, i32, i32, ptr, %"struct.std::ios_base::_Words", [8 x %"struct.std::ios_base::_Words"], i32, ptr, %"class.std::locale" }
%"struct.std::ios_base::_Words" = type { ptr, i64 }
%"class.std::locale" = type { ptr }
%"class.__gnu_cxx::__normal_iterator" = type { ptr }
%"class.std::thread" = type { %"class.std::thread::id" }
%"class.std::thread::id" = type { i64 }
%"class.std::unique_ptr" = type { %"struct.std::__uniq_ptr_data" }
%"struct.std::__uniq_ptr_data" = type { %"class.std::__uniq_ptr_impl" }
%"class.std::__uniq_ptr_impl" = type { %"class.std::tuple" }
%"class.std::tuple" = type { %"struct.std::_Tuple_impl" }
%"struct.std::_Tuple_impl" = type { %"struct.std::_Head_base.1" }
%"struct.std::_Head_base.1" = type { ptr }
%"struct.std::thread::_State_impl" = type { %"struct.std::thread::_State", %"struct.std::thread::_Invoker" }
%"struct.std::thread::_State" = type { ptr }
%"struct.std::thread::_Invoker" = type { %"class.std::tuple.2" }
%"class.std::tuple.2" = type { %"struct.std::_Tuple_impl.3" }
%"struct.std::_Tuple_impl.3" = type { %"struct.std::_Tuple_impl.4", %"struct.std::_Head_base.6" }
%"struct.std::_Tuple_impl.4" = type { %"struct.std::_Head_base.5" }
%"struct.std::_Head_base.5" = type { i32 }
%"struct.std::_Head_base.6" = type { ptr }
%"struct.std::_Index_tuple" = type { i8 }
%"struct.std::__invoke_other" = type { i8 }
%"struct.std::thread::_State_impl.7" = type { %"struct.std::thread::_State", %"struct.std::thread::_Invoker.8" }
%"struct.std::thread::_Invoker.8" = type { %"class.std::tuple.9" }
%"class.std::tuple.9" = type { %"struct.std::_Tuple_impl.10" }
%"struct.std::_Tuple_impl.10" = type { %"struct.std::_Tuple_impl.11", %"struct.std::_Head_base.13" }
%"struct.std::_Tuple_impl.11" = type { %"struct.std::_Head_base.12" }
%"struct.std::_Head_base.12" = type { ptr }
%"struct.std::_Head_base.13" = type { ptr }

$_ZNSt6vectorISt6threadSaIS0_EEC2Ev = comdat any

$_ZNSt6vectorISt6threadSaIS0_EED2Ev = comdat any

$_ZNSt6vectorISt6threadSaIS0_EE12emplace_backIJRFviERiEEERS0_DpOT_ = comdat any

$_ZNSt6vectorISt6threadSaIS0_EE12emplace_backIJRFvPiES4_EEERS0_DpOT_ = comdat any

$_ZNSt6vectorISt6threadSaIS0_EE5beginEv = comdat any

$_ZNSt6vectorISt6threadSaIS0_EE3endEv = comdat any

$_ZN9__gnu_cxxneIPSt6threadSt6vectorIS1_SaIS1_EEEEbRKNS_17__normal_iteratorIT_T0_EESB_ = comdat any

$_ZNK9__gnu_cxx17__normal_iteratorIPSt6threadSt6vectorIS1_SaIS1_EEEdeEv = comdat any

$_ZN9__gnu_cxx17__normal_iteratorIPSt6threadSt6vectorIS1_SaIS1_EEEppEv = comdat any

$_ZNSt12_Vector_baseISt6threadSaIS0_EEC2Ev = comdat any

$_ZNSt12_Vector_baseISt6threadSaIS0_EE12_Vector_implC2Ev = comdat any

$_ZNSt12_Vector_baseISt6threadSaIS0_EE17_Vector_impl_dataC2Ev = comdat any

$_ZNSt12_Vector_baseISt6threadSaIS0_EE19_M_get_Tp_allocatorEv = comdat any

$__clang_call_terminate = comdat any

$_ZNSt12_Vector_baseISt6threadSaIS0_EED2Ev = comdat any

$_ZSt8_DestroyIPSt6threadEvT_S2_ = comdat any

$_ZNSt12_Destroy_auxILb0EE9__destroyIPSt6threadEEvT_S4_ = comdat any

$_ZSt8_DestroyISt6threadEvPT_ = comdat any

$_ZNSt6threadD2Ev = comdat any

$_ZNKSt6thread8joinableEv = comdat any

$_ZSteqNSt6thread2idES0_ = comdat any

$_ZNSt6thread2idC2Ev = comdat any

$_ZNSt12_Vector_baseISt6threadSaIS0_EE13_M_deallocateEPS0_m = comdat any

$_ZNSt12_Vector_baseISt6threadSaIS0_EE12_Vector_implD2Ev = comdat any

$_ZNSt15__new_allocatorISt6threadE10deallocateEPS0_m = comdat any

$_ZNSt15__new_allocatorISt6threadED2Ev = comdat any

$_ZNSt6vectorISt6threadSaIS0_EE17_M_realloc_insertIJRFviERiEEEvN9__gnu_cxx17__normal_iteratorIPS0_S2_EEDpOT_ = comdat any

$_ZNSt6vectorISt6threadSaIS0_EE4backEv = comdat any

$_ZNSt6threadC2IRFviEJRiEvEEOT_DpOT0_ = comdat any

$_ZNSt6thread11_State_implINS_8_InvokerISt5tupleIJPFviEiEEEEEC2IJRS3_RiEEEDpOT_ = comdat any

$_ZNSt10unique_ptrINSt6thread6_StateESt14default_deleteIS1_EEC2IS3_vEEPS1_ = comdat any

$_ZNSt6thread24_M_thread_deps_never_runEv = comdat any

$_ZNSt10unique_ptrINSt6thread6_StateESt14default_deleteIS1_EED2Ev = comdat any

$_ZNSt6thread6_StateC2Ev = comdat any

$_ZNSt6thread8_InvokerISt5tupleIJPFviEiEEEC2IJRS2_RiEEEDpOT_ = comdat any

$_ZNSt6thread11_State_implINS_8_InvokerISt5tupleIJPFviEiEEEEED2Ev = comdat any

$_ZNSt6thread11_State_implINS_8_InvokerISt5tupleIJPFviEiEEEEED0Ev = comdat any

$_ZNSt6thread11_State_implINS_8_InvokerISt5tupleIJPFviEiEEEEE6_M_runEv = comdat any

$_ZNSt5tupleIJPFviEiEEC2IRS0_RiLb1EEEOT_OT0_ = comdat any

$_ZNSt11_Tuple_implILm0EJPFviEiEEC2IRS0_JRiEvEEOT_DpOT0_ = comdat any

$_ZNSt11_Tuple_implILm1EJiEEC2IRiEEOT_ = comdat any

$_ZNSt10_Head_baseILm0EPFviELb0EEC2ERKS1_ = comdat any

$_ZNSt10_Head_baseILm1EiLb0EEC2IRiEEOT_ = comdat any

$_ZNSt6thread8_InvokerISt5tupleIJPFviEiEEEclEv = comdat any

$_ZNSt6thread8_InvokerISt5tupleIJPFviEiEEE9_M_invokeIJLm0ELm1EEEEvSt12_Index_tupleIJXspT_EEE = comdat any

$_ZSt8__invokeIPFviEJiEENSt15__invoke_resultIT_JDpT0_EE4typeEOS3_DpOS4_ = comdat any

$_ZSt3getILm0EJPFviEiEEONSt13tuple_elementIXT_ESt5tupleIJDpT0_EEE4typeEOS6_ = comdat any

$_ZSt3getILm1EJPFviEiEEONSt13tuple_elementIXT_ESt5tupleIJDpT0_EEE4typeEOS6_ = comdat any

$_ZSt13__invoke_implIvPFviEJiEET_St14__invoke_otherOT0_DpOT1_ = comdat any

$_ZSt12__get_helperILm0EPFviEJiEERT0_RSt11_Tuple_implIXT_EJS2_DpT1_EE = comdat any

$_ZNSt11_Tuple_implILm0EJPFviEiEE7_M_headERS2_ = comdat any

$_ZNSt10_Head_baseILm0EPFviELb0EE7_M_headERS2_ = comdat any

$_ZSt12__get_helperILm1EiJEERT0_RSt11_Tuple_implIXT_EJS0_DpT1_EE = comdat any

$_ZNSt11_Tuple_implILm1EJiEE7_M_headERS0_ = comdat any

$_ZNSt10_Head_baseILm1EiLb0EE7_M_headERS0_ = comdat any

$_ZNSt15__uniq_ptr_dataINSt6thread6_StateESt14default_deleteIS1_ELb1ELb1EECI2St15__uniq_ptr_implIS1_S3_EEPS1_ = comdat any

$_ZNSt15__uniq_ptr_implINSt6thread6_StateESt14default_deleteIS1_EEC2EPS1_ = comdat any

$_ZNSt5tupleIJPNSt6thread6_StateESt14default_deleteIS1_EEEC2ILb1ELb1EEEv = comdat any

$_ZNSt15__uniq_ptr_implINSt6thread6_StateESt14default_deleteIS1_EE6_M_ptrEv = comdat any

$_ZNSt11_Tuple_implILm0EJPNSt6thread6_StateESt14default_deleteIS1_EEEC2Ev = comdat any

$_ZNSt11_Tuple_implILm1EJSt14default_deleteINSt6thread6_StateEEEEC2Ev = comdat any

$_ZNSt10_Head_baseILm0EPNSt6thread6_StateELb0EEC2Ev = comdat any

$_ZNSt10_Head_baseILm1ESt14default_deleteINSt6thread6_StateEELb1EEC2Ev = comdat any

$_ZSt3getILm0EJPNSt6thread6_StateESt14default_deleteIS1_EEERNSt13tuple_elementIXT_ESt5tupleIJDpT0_EEE4typeERS9_ = comdat any

$_ZSt12__get_helperILm0EPNSt6thread6_StateEJSt14default_deleteIS1_EEERT0_RSt11_Tuple_implIXT_EJS5_DpT1_EE = comdat any

$_ZNSt11_Tuple_implILm0EJPNSt6thread6_StateESt14default_deleteIS1_EEE7_M_headERS5_ = comdat any

$_ZNSt10_Head_baseILm0EPNSt6thread6_StateELb0EE7_M_headERS3_ = comdat any

$_ZNSt10unique_ptrINSt6thread6_StateESt14default_deleteIS1_EE11get_deleterEv = comdat any

$_ZNKSt14default_deleteINSt6thread6_StateEEclEPS1_ = comdat any

$_ZNSt15__uniq_ptr_implINSt6thread6_StateESt14default_deleteIS1_EE10_M_deleterEv = comdat any

$_ZSt3getILm1EJPNSt6thread6_StateESt14default_deleteIS1_EEERNSt13tuple_elementIXT_ESt5tupleIJDpT0_EEE4typeERS9_ = comdat any

$_ZSt12__get_helperILm1ESt14default_deleteINSt6thread6_StateEEJEERT0_RSt11_Tuple_implIXT_EJS4_DpT1_EE = comdat any

$_ZNSt11_Tuple_implILm1EJSt14default_deleteINSt6thread6_StateEEEE7_M_headERS4_ = comdat any

$_ZNSt10_Head_baseILm1ESt14default_deleteINSt6thread6_StateEELb1EE7_M_headERS4_ = comdat any

$_ZNKSt6vectorISt6threadSaIS0_EE12_M_check_lenEmPKc = comdat any

$_ZN9__gnu_cxxmiIPSt6threadSt6vectorIS1_SaIS1_EEEENS_17__normal_iteratorIT_T0_E15difference_typeERKS9_SC_ = comdat any

$_ZNSt12_Vector_baseISt6threadSaIS0_EE11_M_allocateEm = comdat any

$_ZNSt6vectorISt6threadSaIS0_EE11_S_relocateEPS0_S3_S3_RS1_ = comdat any

$_ZNK9__gnu_cxx17__normal_iteratorIPSt6threadSt6vectorIS1_SaIS1_EEE4baseEv = comdat any

$_ZNKSt6vectorISt6threadSaIS0_EE8max_sizeEv = comdat any

$_ZNKSt6vectorISt6threadSaIS0_EE4sizeEv = comdat any

$_ZSt3maxImERKT_S2_S2_ = comdat any

$_ZNSt6vectorISt6threadSaIS0_EE11_S_max_sizeERKS1_ = comdat any

$_ZNKSt12_Vector_baseISt6threadSaIS0_EE19_M_get_Tp_allocatorEv = comdat any

$_ZSt3minImERKT_S2_S2_ = comdat any

$_ZNSt15__new_allocatorISt6threadE8allocateEmPKv = comdat any

$_ZSt12__relocate_aIPSt6threadS1_SaIS0_EET0_T_S4_S3_RT1_ = comdat any

$_ZSt14__relocate_a_1IPSt6threadS1_SaIS0_EET0_T_S4_S3_RT1_ = comdat any

$_ZSt12__niter_baseIPSt6threadET_S2_ = comdat any

$_ZSt19__relocate_object_aISt6threadS0_SaIS0_EEvPT_PT0_RT1_ = comdat any

$_ZNSt6threadC2EOS_ = comdat any

$_ZNSt6thread4swapERS_ = comdat any

$_ZSt4swapINSt6thread2idEENSt9enable_ifIXsr6__and_ISt6__not_ISt15__is_tuple_likeIT_EESt21is_move_constructibleIS5_ESt18is_move_assignableIS5_EEE5valueEvE4typeERS5_SE_ = comdat any

$_ZNK9__gnu_cxx17__normal_iteratorIPSt6threadSt6vectorIS1_SaIS1_EEEmiEl = comdat any

$_ZN9__gnu_cxx17__normal_iteratorIPSt6threadSt6vectorIS1_SaIS1_EEEC2ERKS2_ = comdat any

$_ZNSt6vectorISt6threadSaIS0_EE17_M_realloc_insertIJRFvPiES4_EEEvN9__gnu_cxx17__normal_iteratorIPS0_S2_EEDpOT_ = comdat any

$_ZNSt6threadC2IRFvPiEJS1_EvEEOT_DpOT0_ = comdat any

$_ZNSt6thread11_State_implINS_8_InvokerISt5tupleIJPFvPiES3_EEEEEC2IJRS4_S3_EEEDpOT_ = comdat any

$_ZNSt6thread8_InvokerISt5tupleIJPFvPiES2_EEEC2IJRS3_S2_EEEDpOT_ = comdat any

$_ZNSt6thread11_State_implINS_8_InvokerISt5tupleIJPFvPiES3_EEEEED2Ev = comdat any

$_ZNSt6thread11_State_implINS_8_InvokerISt5tupleIJPFvPiES3_EEEEED0Ev = comdat any

$_ZNSt6thread11_State_implINS_8_InvokerISt5tupleIJPFvPiES3_EEEEE6_M_runEv = comdat any

$_ZNSt5tupleIJPFvPiES0_EEC2IRS1_S0_Lb1EEEOT_OT0_ = comdat any

$_ZNSt11_Tuple_implILm0EJPFvPiES0_EEC2IRS1_JS0_EvEEOT_DpOT0_ = comdat any

$_ZNSt11_Tuple_implILm1EJPiEEC2IS0_EEOT_ = comdat any

$_ZNSt10_Head_baseILm0EPFvPiELb0EEC2ERKS2_ = comdat any

$_ZNSt10_Head_baseILm1EPiLb0EEC2IS0_EEOT_ = comdat any

$_ZNSt6thread8_InvokerISt5tupleIJPFvPiES2_EEEclEv = comdat any

$_ZNSt6thread8_InvokerISt5tupleIJPFvPiES2_EEE9_M_invokeIJLm0ELm1EEEEvSt12_Index_tupleIJXspT_EEE = comdat any

$_ZSt8__invokeIPFvPiEJS0_EENSt15__invoke_resultIT_JDpT0_EE4typeEOS4_DpOS5_ = comdat any

$_ZSt3getILm0EJPFvPiES0_EEONSt13tuple_elementIXT_ESt5tupleIJDpT0_EEE4typeEOS7_ = comdat any

$_ZSt3getILm1EJPFvPiES0_EEONSt13tuple_elementIXT_ESt5tupleIJDpT0_EEE4typeEOS7_ = comdat any

$_ZSt13__invoke_implIvPFvPiEJS0_EET_St14__invoke_otherOT0_DpOT1_ = comdat any

$_ZSt12__get_helperILm0EPFvPiEJS0_EERT0_RSt11_Tuple_implIXT_EJS3_DpT1_EE = comdat any

$_ZNSt11_Tuple_implILm0EJPFvPiES0_EE7_M_headERS3_ = comdat any

$_ZNSt10_Head_baseILm0EPFvPiELb0EE7_M_headERS3_ = comdat any

$_ZSt12__get_helperILm1EPiJEERT0_RSt11_Tuple_implIXT_EJS1_DpT1_EE = comdat any

$_ZNSt11_Tuple_implILm1EJPiEE7_M_headERS1_ = comdat any

$_ZNSt10_Head_baseILm1EPiLb0EE7_M_headERS1_ = comdat any

$_ZTVNSt6thread11_State_implINS_8_InvokerISt5tupleIJPFviEiEEEEEE = comdat any

$_ZTSNSt6thread11_State_implINS_8_InvokerISt5tupleIJPFviEiEEEEEE = comdat any

$_ZTINSt6thread11_State_implINS_8_InvokerISt5tupleIJPFviEiEEEEEE = comdat any

$_ZTVNSt6thread11_State_implINS_8_InvokerISt5tupleIJPFvPiES3_EEEEEE = comdat any

$_ZTSNSt6thread11_State_implINS_8_InvokerISt5tupleIJPFvPiES3_EEEEEE = comdat any

$_ZTINSt6thread11_State_implINS_8_InvokerISt5tupleIJPFvPiES3_EEEEEE = comdat any

@threads = dso_local global %"class.std::vector" zeroinitializer, align 8, !dbg !0
@__dso_handle = external hidden global i8
@_ZSt4cout = external global %"class.std::basic_ostream", align 8
@.str = private unnamed_addr constant [44 x i8] c"Value of data received when pass by value: \00", align 1, !dbg !1390
@.str.1 = private unnamed_addr constant [48 x i8] c"Value of data received when pass by reference: \00", align 1, !dbg !1396
@_ZTVNSt6thread11_State_implINS_8_InvokerISt5tupleIJPFviEiEEEEEE = linkonce_odr dso_local unnamed_addr constant { [5 x ptr] } { [5 x ptr] [ptr null, ptr @_ZTINSt6thread11_State_implINS_8_InvokerISt5tupleIJPFviEiEEEEEE, ptr @_ZNSt6thread11_State_implINS_8_InvokerISt5tupleIJPFviEiEEEEED2Ev, ptr @_ZNSt6thread11_State_implINS_8_InvokerISt5tupleIJPFviEiEEEEED0Ev, ptr @_ZNSt6thread11_State_implINS_8_InvokerISt5tupleIJPFviEiEEEEE6_M_runEv] }, comdat, align 8
@_ZTVN10__cxxabiv120__si_class_type_infoE = external global ptr
@_ZTSNSt6thread11_State_implINS_8_InvokerISt5tupleIJPFviEiEEEEEE = linkonce_odr dso_local constant [60 x i8] c"NSt6thread11_State_implINS_8_InvokerISt5tupleIJPFviEiEEEEEE\00", comdat, align 1
@_ZTINSt6thread6_StateE = external constant ptr
@_ZTINSt6thread11_State_implINS_8_InvokerISt5tupleIJPFviEiEEEEEE = linkonce_odr dso_local constant { ptr, ptr, ptr } { ptr getelementptr inbounds (ptr, ptr @_ZTVN10__cxxabiv120__si_class_type_infoE, i64 2), ptr @_ZTSNSt6thread11_State_implINS_8_InvokerISt5tupleIJPFviEiEEEEEE, ptr @_ZTINSt6thread6_StateE }, comdat, align 8
@_ZTVNSt6thread6_StateE = external unnamed_addr constant { [5 x ptr] }, align 8
@.str.2 = private unnamed_addr constant [26 x i8] c"vector::_M_realloc_insert\00", align 1, !dbg !1401
@_ZTVNSt6thread11_State_implINS_8_InvokerISt5tupleIJPFvPiES3_EEEEEE = linkonce_odr dso_local unnamed_addr constant { [5 x ptr] } { [5 x ptr] [ptr null, ptr @_ZTINSt6thread11_State_implINS_8_InvokerISt5tupleIJPFvPiES3_EEEEEE, ptr @_ZNSt6thread11_State_implINS_8_InvokerISt5tupleIJPFvPiES3_EEEEED2Ev, ptr @_ZNSt6thread11_State_implINS_8_InvokerISt5tupleIJPFvPiES3_EEEEED0Ev, ptr @_ZNSt6thread11_State_implINS_8_InvokerISt5tupleIJPFvPiES3_EEEEE6_M_runEv] }, comdat, align 8
@_ZTSNSt6thread11_State_implINS_8_InvokerISt5tupleIJPFvPiES3_EEEEEE = linkonce_odr dso_local constant [63 x i8] c"NSt6thread11_State_implINS_8_InvokerISt5tupleIJPFvPiES3_EEEEEE\00", comdat, align 1
@_ZTINSt6thread11_State_implINS_8_InvokerISt5tupleIJPFvPiES3_EEEEEE = linkonce_odr dso_local constant { ptr, ptr, ptr } { ptr getelementptr inbounds (ptr, ptr @_ZTVN10__cxxabiv120__si_class_type_infoE, i64 2), ptr @_ZTSNSt6thread11_State_implINS_8_InvokerISt5tupleIJPFvPiES3_EEEEEE, ptr @_ZTINSt6thread6_StateE }, comdat, align 8
@llvm.global_ctors = appending global [1 x { i32, ptr, ptr }] [{ i32, ptr, ptr } { i32 65535, ptr @_GLOBAL__sub_I_gpt.cpp, ptr null }]

; Function Attrs: noinline uwtable
define internal void @__cxx_global_var_init() #0 section ".text.startup" !dbg !2320 {
  call void @_ZNSt6vectorISt6threadSaIS0_EEC2Ev(ptr noundef nonnull align 8 dereferenceable(24) @threads) #2, !dbg !2321
  %1 = call i32 @__cxa_atexit(ptr @_ZNSt6vectorISt6threadSaIS0_EED2Ev, ptr @threads, ptr @__dso_handle) #2, !dbg !2323
  ret void, !dbg !2321
}

; Function Attrs: noinline nounwind optnone uwtable
define linkonce_odr dso_local void @_ZNSt6vectorISt6threadSaIS0_EEC2Ev(ptr noundef nonnull align 8 dereferenceable(24) %0) unnamed_addr #1 comdat align 2 !dbg !2324 {
  %2 = alloca ptr, align 8
  store ptr %0, ptr %2, align 8
  call void @llvm.dbg.declare(metadata ptr %2, metadata !2325, metadata !DIExpression()), !dbg !2327
  %3 = load ptr, ptr %2, align 8
  call void @_ZNSt12_Vector_baseISt6threadSaIS0_EEC2Ev(ptr noundef nonnull align 8 dereferenceable(24) %3) #2, !dbg !2328
  ret void, !dbg !2329
}

; Function Attrs: noinline nounwind optnone uwtable
define linkonce_odr dso_local void @_ZNSt6vectorISt6threadSaIS0_EED2Ev(ptr noundef nonnull align 8 dereferenceable(24) %0) unnamed_addr #1 comdat align 2 personality ptr @__gxx_personality_v0 !dbg !2330 {
  %2 = alloca ptr, align 8
  %3 = alloca ptr, align 8
  %4 = alloca ptr, align 8
  %5 = alloca ptr, align 8
  store ptr %0, ptr %5, align 8
  call void @llvm.dbg.declare(metadata ptr %5, metadata !2331, metadata !DIExpression()), !dbg !2332
  %6 = load ptr, ptr %5, align 8
  %7 = getelementptr inbounds %"struct.std::_Vector_base", ptr %6, i32 0, i32 0, !dbg !2333
  %8 = getelementptr inbounds %"struct.std::_Vector_base<std::thread, std::allocator<std::thread>>::_Vector_impl_data", ptr %7, i32 0, i32 0, !dbg !2335
  %9 = load ptr, ptr %8, align 8, !dbg !2335
  %10 = getelementptr inbounds %"struct.std::_Vector_base", ptr %6, i32 0, i32 0, !dbg !2336
  %11 = getelementptr inbounds %"struct.std::_Vector_base<std::thread, std::allocator<std::thread>>::_Vector_impl_data", ptr %10, i32 0, i32 1, !dbg !2337
  %12 = load ptr, ptr %11, align 8, !dbg !2337
  %13 = call noundef nonnull align 1 dereferenceable(1) ptr @_ZNSt12_Vector_baseISt6threadSaIS0_EE19_M_get_Tp_allocatorEv(ptr noundef nonnull align 8 dereferenceable(24) %6) #2, !dbg !2338
  store ptr %9, ptr %2, align 8
  call void @llvm.dbg.declare(metadata ptr %2, metadata !2339, metadata !DIExpression()), !dbg !2345
  store ptr %12, ptr %3, align 8
  call void @llvm.dbg.declare(metadata ptr %3, metadata !2347, metadata !DIExpression()), !dbg !2348
  store ptr %13, ptr %4, align 8
  call void @llvm.dbg.declare(metadata ptr %4, metadata !2349, metadata !DIExpression()), !dbg !2350
  %14 = load ptr, ptr %2, align 8, !dbg !2351
  %15 = load ptr, ptr %3, align 8, !dbg !2352
  invoke void @_ZSt8_DestroyIPSt6threadEvT_S2_(ptr noundef %14, ptr noundef %15)
          to label %16 unwind label %18, !dbg !2353

16:                                               ; preds = %1
  br label %17, !dbg !2354

17:                                               ; preds = %16
  call void @_ZNSt12_Vector_baseISt6threadSaIS0_EED2Ev(ptr noundef nonnull align 8 dereferenceable(24) %6) #2, !dbg !2355
  ret void, !dbg !2356

18:                                               ; preds = %1
  %19 = landingpad { ptr, i32 }
          catch ptr null, !dbg !2357
  %20 = extractvalue { ptr, i32 } %19, 0, !dbg !2357
  call void @__clang_call_terminate(ptr %20) #15, !dbg !2357
  unreachable, !dbg !2357
}

; Function Attrs: nounwind
declare i32 @__cxa_atexit(ptr, ptr, ptr) #2

; Function Attrs: mustprogress noinline optnone uwtable
define dso_local void @_Z8runFunc1i(i32 noundef %0) #3 !dbg !2358 {
  %2 = alloca i32, align 4
  store i32 %0, ptr %2, align 4
  call void @llvm.dbg.declare(metadata ptr %2, metadata !2359, metadata !DIExpression()), !dbg !2360
  %3 = call noundef nonnull align 8 dereferenceable(8) ptr @_ZStlsISt11char_traitsIcEERSt13basic_ostreamIcT_ES5_PKc(ptr noundef nonnull align 8 dereferenceable(8) @_ZSt4cout, ptr noundef @.str), !dbg !2361
  %4 = load i32, ptr %2, align 4, !dbg !2362
  %5 = call noundef nonnull align 8 dereferenceable(8) ptr @_ZNSolsEi(ptr noundef nonnull align 8 dereferenceable(8) %3, i32 noundef %4), !dbg !2363
  %6 = call noundef nonnull align 8 dereferenceable(8) ptr @_ZNSolsEPFRSoS_E(ptr noundef nonnull align 8 dereferenceable(8) %5, ptr noundef @_ZSt4endlIcSt11char_traitsIcEERSt13basic_ostreamIT_T0_ES6_), !dbg !2364
  ret void, !dbg !2365
}

; Function Attrs: nocallback nofree nosync nounwind speculatable willreturn memory(none)
declare void @llvm.dbg.declare(metadata, metadata, metadata) #4

declare noundef nonnull align 8 dereferenceable(8) ptr @_ZStlsISt11char_traitsIcEERSt13basic_ostreamIcT_ES5_PKc(ptr noundef nonnull align 8 dereferenceable(8), ptr noundef) #5

declare noundef nonnull align 8 dereferenceable(8) ptr @_ZNSolsEi(ptr noundef nonnull align 8 dereferenceable(8), i32 noundef) #5

declare noundef nonnull align 8 dereferenceable(8) ptr @_ZNSolsEPFRSoS_E(ptr noundef nonnull align 8 dereferenceable(8), ptr noundef) #5

declare noundef nonnull align 8 dereferenceable(8) ptr @_ZSt4endlIcSt11char_traitsIcEERSt13basic_ostreamIT_T0_ES6_(ptr noundef nonnull align 8 dereferenceable(8)) #5

; Function Attrs: mustprogress noinline optnone uwtable
define dso_local void @_Z8runFunc2Pi(ptr noundef %0) #3 !dbg !2366 {
  %2 = alloca ptr, align 8
  store ptr %0, ptr %2, align 8
  call void @llvm.dbg.declare(metadata ptr %2, metadata !2367, metadata !DIExpression()), !dbg !2368
  %3 = call noundef nonnull align 8 dereferenceable(8) ptr @_ZStlsISt11char_traitsIcEERSt13basic_ostreamIcT_ES5_PKc(ptr noundef nonnull align 8 dereferenceable(8) @_ZSt4cout, ptr noundef @.str.1), !dbg !2369
  %4 = load ptr, ptr %2, align 8, !dbg !2370
  %5 = load i32, ptr %4, align 4, !dbg !2371
  %6 = call noundef nonnull align 8 dereferenceable(8) ptr @_ZNSolsEi(ptr noundef nonnull align 8 dereferenceable(8) %3, i32 noundef %5), !dbg !2372
  %7 = call noundef nonnull align 8 dereferenceable(8) ptr @_ZNSolsEPFRSoS_E(ptr noundef nonnull align 8 dereferenceable(8) %6, ptr noundef @_ZSt4endlIcSt11char_traitsIcEERSt13basic_ostreamIT_T0_ES6_), !dbg !2373
  %8 = load ptr, ptr %2, align 8, !dbg !2374
  %9 = icmp eq ptr %8, null, !dbg !2375
  br i1 %9, label %11, label %10, !dbg !2375

10:                                               ; preds = %1
  call void @_ZdlPv(ptr noundef %8) #16, !dbg !2375
  br label %11, !dbg !2375

11:                                               ; preds = %10, %1
  ret void, !dbg !2376
}

; Function Attrs: nobuiltin nounwind
declare void @_ZdlPv(ptr noundef) #6

; Function Attrs: mustprogress noinline optnone uwtable
define dso_local void @_Z10runThreadsv() #3 !dbg !2377 {
  %1 = alloca i32, align 4
  %2 = alloca i32, align 4
  %3 = alloca ptr, align 8
  call void @llvm.dbg.declare(metadata ptr %1, metadata !2378, metadata !DIExpression()), !dbg !2380
  store i32 0, ptr %1, align 4, !dbg !2380
  br label %4, !dbg !2381

4:                                                ; preds = %19, %0
  %5 = load i32, ptr %1, align 4, !dbg !2382
  %6 = icmp slt i32 %5, 6, !dbg !2384
  br i1 %6, label %7, label %22, !dbg !2385

7:                                                ; preds = %4
  %8 = load i32, ptr %1, align 4, !dbg !2386
  %9 = icmp sge i32 %8, 0, !dbg !2389
  br i1 %9, label %10, label %15, !dbg !2390

10:                                               ; preds = %7
  %11 = load i32, ptr %1, align 4, !dbg !2391
  %12 = icmp sle i32 %11, 2, !dbg !2392
  br i1 %12, label %13, label %15, !dbg !2393

13:                                               ; preds = %10
  call void @llvm.dbg.declare(metadata ptr %2, metadata !2394, metadata !DIExpression()), !dbg !2396
  store i32 30, ptr %2, align 4, !dbg !2396
  %14 = call noundef nonnull align 8 dereferenceable(8) ptr @_ZNSt6vectorISt6threadSaIS0_EE12emplace_backIJRFviERiEEERS0_DpOT_(ptr noundef nonnull align 8 dereferenceable(24) @threads, ptr noundef nonnull @_Z8runFunc1i, ptr noundef nonnull align 4 dereferenceable(4) %2), !dbg !2397
  br label %18, !dbg !2398

15:                                               ; preds = %10, %7
  %16 = call noalias noundef nonnull ptr @_Znwm(i64 noundef 4) #17, !dbg !2399, !heapallocsite !446
  store i32 30, ptr %16, align 4, !dbg !2399
  store ptr %16, ptr %3, align 8, !dbg !2399
  %17 = call noundef nonnull align 8 dereferenceable(8) ptr @_ZNSt6vectorISt6threadSaIS0_EE12emplace_backIJRFvPiES4_EEERS0_DpOT_(ptr noundef nonnull align 8 dereferenceable(24) @threads, ptr noundef nonnull @_Z8runFunc2Pi, ptr noundef nonnull align 8 dereferenceable(8) %3), !dbg !2401
  br label %18

18:                                               ; preds = %15, %13
  br label %19, !dbg !2402

19:                                               ; preds = %18
  %20 = load i32, ptr %1, align 4, !dbg !2403
  %21 = add nsw i32 %20, 1, !dbg !2403
  store i32 %21, ptr %1, align 4, !dbg !2403
  br label %4, !dbg !2404, !llvm.loop !2405

22:                                               ; preds = %4
  ret void, !dbg !2408
}

; Function Attrs: mustprogress noinline optnone uwtable
define linkonce_odr dso_local noundef nonnull align 8 dereferenceable(8) ptr @_ZNSt6vectorISt6threadSaIS0_EE12emplace_backIJRFviERiEEERS0_DpOT_(ptr noundef nonnull align 8 dereferenceable(24) %0, ptr noundef nonnull %1, ptr noundef nonnull align 4 dereferenceable(4) %2) #3 comdat align 2 !dbg !2409 {
  %4 = alloca ptr, align 8
  %5 = alloca ptr, align 8
  %6 = alloca ptr, align 8
  %7 = alloca ptr, align 8
  %8 = alloca ptr, align 8
  %9 = alloca ptr, align 8
  %10 = alloca ptr, align 8
  %11 = alloca ptr, align 8
  %12 = alloca ptr, align 8
  %13 = alloca ptr, align 8
  %14 = alloca ptr, align 8
  %15 = alloca %"class.__gnu_cxx::__normal_iterator", align 8
  store ptr %0, ptr %12, align 8
  call void @llvm.dbg.declare(metadata ptr %12, metadata !2419, metadata !DIExpression()), !dbg !2420
  store ptr %1, ptr %13, align 8
  call void @llvm.dbg.declare(metadata ptr %13, metadata !2421, metadata !DIExpression()), !dbg !2422
  store ptr %2, ptr %14, align 8
  call void @llvm.dbg.declare(metadata ptr %14, metadata !2423, metadata !DIExpression()), !dbg !2422
  %16 = load ptr, ptr %12, align 8
  %17 = getelementptr inbounds %"struct.std::_Vector_base", ptr %16, i32 0, i32 0, !dbg !2424
  %18 = getelementptr inbounds %"struct.std::_Vector_base<std::thread, std::allocator<std::thread>>::_Vector_impl_data", ptr %17, i32 0, i32 1, !dbg !2426
  %19 = load ptr, ptr %18, align 8, !dbg !2426
  %20 = getelementptr inbounds %"struct.std::_Vector_base", ptr %16, i32 0, i32 0, !dbg !2427
  %21 = getelementptr inbounds %"struct.std::_Vector_base<std::thread, std::allocator<std::thread>>::_Vector_impl_data", ptr %20, i32 0, i32 2, !dbg !2428
  %22 = load ptr, ptr %21, align 8, !dbg !2428
  %23 = icmp ne ptr %19, %22, !dbg !2429
  br i1 %23, label %24, label %43, !dbg !2430

24:                                               ; preds = %3
  %25 = getelementptr inbounds %"struct.std::_Vector_base", ptr %16, i32 0, i32 0, !dbg !2431
  %26 = getelementptr inbounds %"struct.std::_Vector_base", ptr %16, i32 0, i32 0, !dbg !2433
  %27 = getelementptr inbounds %"struct.std::_Vector_base<std::thread, std::allocator<std::thread>>::_Vector_impl_data", ptr %26, i32 0, i32 1, !dbg !2434
  %28 = load ptr, ptr %27, align 8, !dbg !2434
  %29 = load ptr, ptr %13, align 8, !dbg !2435
  %30 = load ptr, ptr %14, align 8, !dbg !2435
  store ptr %25, ptr %8, align 8
  call void @llvm.dbg.declare(metadata ptr %8, metadata !2436, metadata !DIExpression()), !dbg !2443
  store ptr %28, ptr %9, align 8
  call void @llvm.dbg.declare(metadata ptr %9, metadata !2445, metadata !DIExpression()), !dbg !2446
  store ptr %29, ptr %10, align 8
  call void @llvm.dbg.declare(metadata ptr %10, metadata !2447, metadata !DIExpression()), !dbg !2448
  store ptr %30, ptr %11, align 8
  call void @llvm.dbg.declare(metadata ptr %11, metadata !2449, metadata !DIExpression()), !dbg !2448
  %31 = load ptr, ptr %8, align 8, !dbg !2450
  %32 = load ptr, ptr %9, align 8, !dbg !2451
  %33 = load ptr, ptr %10, align 8, !dbg !2452
  %34 = load ptr, ptr %11, align 8, !dbg !2452
  store ptr %31, ptr %4, align 8
  call void @llvm.dbg.declare(metadata ptr %4, metadata !2453, metadata !DIExpression()), !dbg !2459
  store ptr %32, ptr %5, align 8
  call void @llvm.dbg.declare(metadata ptr %5, metadata !2461, metadata !DIExpression()), !dbg !2462
  store ptr %33, ptr %6, align 8
  call void @llvm.dbg.declare(metadata ptr %6, metadata !2463, metadata !DIExpression()), !dbg !2464
  store ptr %34, ptr %7, align 8
  call void @llvm.dbg.declare(metadata ptr %7, metadata !2465, metadata !DIExpression()), !dbg !2464
  %35 = load ptr, ptr %4, align 8
  %36 = load ptr, ptr %5, align 8, !dbg !2466
  %37 = load ptr, ptr %6, align 8, !dbg !2467
  %38 = load ptr, ptr %7, align 8, !dbg !2467
  call void @_ZNSt6threadC2IRFviEJRiEvEEOT_DpOT0_(ptr noundef nonnull align 8 dereferenceable(8) %36, ptr noundef nonnull %37, ptr noundef nonnull align 4 dereferenceable(4) %38), !dbg !2468
  %39 = getelementptr inbounds %"struct.std::_Vector_base", ptr %16, i32 0, i32 0, !dbg !2469
  %40 = getelementptr inbounds %"struct.std::_Vector_base<std::thread, std::allocator<std::thread>>::_Vector_impl_data", ptr %39, i32 0, i32 1, !dbg !2470
  %41 = load ptr, ptr %40, align 8, !dbg !2471
  %42 = getelementptr inbounds %"class.std::thread", ptr %41, i32 1, !dbg !2471
  store ptr %42, ptr %40, align 8, !dbg !2471
  br label %50, !dbg !2472

43:                                               ; preds = %3
  %44 = call ptr @_ZNSt6vectorISt6threadSaIS0_EE3endEv(ptr noundef nonnull align 8 dereferenceable(24) %16) #2, !dbg !2473
  %45 = getelementptr inbounds %"class.__gnu_cxx::__normal_iterator", ptr %15, i32 0, i32 0, !dbg !2473
  store ptr %44, ptr %45, align 8, !dbg !2473
  %46 = load ptr, ptr %13, align 8, !dbg !2474
  %47 = load ptr, ptr %14, align 8, !dbg !2474
  %48 = getelementptr inbounds %"class.__gnu_cxx::__normal_iterator", ptr %15, i32 0, i32 0, !dbg !2475
  %49 = load ptr, ptr %48, align 8, !dbg !2475
  call void @_ZNSt6vectorISt6threadSaIS0_EE17_M_realloc_insertIJRFviERiEEEvN9__gnu_cxx17__normal_iteratorIPS0_S2_EEDpOT_(ptr noundef nonnull align 8 dereferenceable(24) %16, ptr %49, ptr noundef nonnull %46, ptr noundef nonnull align 4 dereferenceable(4) %47), !dbg !2475
  br label %50

50:                                               ; preds = %43, %24
  %51 = call noundef nonnull align 8 dereferenceable(8) ptr @_ZNSt6vectorISt6threadSaIS0_EE4backEv(ptr noundef nonnull align 8 dereferenceable(24) %16) #2, !dbg !2476
  ret ptr %51, !dbg !2477
}

; Function Attrs: mustprogress noinline optnone uwtable
define linkonce_odr dso_local noundef nonnull align 8 dereferenceable(8) ptr @_ZNSt6vectorISt6threadSaIS0_EE12emplace_backIJRFvPiES4_EEERS0_DpOT_(ptr noundef nonnull align 8 dereferenceable(24) %0, ptr noundef nonnull %1, ptr noundef nonnull align 8 dereferenceable(8) %2) #3 comdat align 2 !dbg !2478 {
  %4 = alloca ptr, align 8
  %5 = alloca ptr, align 8
  %6 = alloca ptr, align 8
  %7 = alloca ptr, align 8
  %8 = alloca ptr, align 8
  %9 = alloca ptr, align 8
  %10 = alloca ptr, align 8
  %11 = alloca ptr, align 8
  %12 = alloca ptr, align 8
  %13 = alloca ptr, align 8
  %14 = alloca ptr, align 8
  %15 = alloca %"class.__gnu_cxx::__normal_iterator", align 8
  store ptr %0, ptr %12, align 8
  call void @llvm.dbg.declare(metadata ptr %12, metadata !2487, metadata !DIExpression()), !dbg !2488
  store ptr %1, ptr %13, align 8
  call void @llvm.dbg.declare(metadata ptr %13, metadata !2489, metadata !DIExpression()), !dbg !2490
  store ptr %2, ptr %14, align 8
  call void @llvm.dbg.declare(metadata ptr %14, metadata !2491, metadata !DIExpression()), !dbg !2490
  %16 = load ptr, ptr %12, align 8
  %17 = getelementptr inbounds %"struct.std::_Vector_base", ptr %16, i32 0, i32 0, !dbg !2492
  %18 = getelementptr inbounds %"struct.std::_Vector_base<std::thread, std::allocator<std::thread>>::_Vector_impl_data", ptr %17, i32 0, i32 1, !dbg !2494
  %19 = load ptr, ptr %18, align 8, !dbg !2494
  %20 = getelementptr inbounds %"struct.std::_Vector_base", ptr %16, i32 0, i32 0, !dbg !2495
  %21 = getelementptr inbounds %"struct.std::_Vector_base<std::thread, std::allocator<std::thread>>::_Vector_impl_data", ptr %20, i32 0, i32 2, !dbg !2496
  %22 = load ptr, ptr %21, align 8, !dbg !2496
  %23 = icmp ne ptr %19, %22, !dbg !2497
  br i1 %23, label %24, label %43, !dbg !2498

24:                                               ; preds = %3
  %25 = getelementptr inbounds %"struct.std::_Vector_base", ptr %16, i32 0, i32 0, !dbg !2499
  %26 = getelementptr inbounds %"struct.std::_Vector_base", ptr %16, i32 0, i32 0, !dbg !2501
  %27 = getelementptr inbounds %"struct.std::_Vector_base<std::thread, std::allocator<std::thread>>::_Vector_impl_data", ptr %26, i32 0, i32 1, !dbg !2502
  %28 = load ptr, ptr %27, align 8, !dbg !2502
  %29 = load ptr, ptr %13, align 8, !dbg !2503
  %30 = load ptr, ptr %14, align 8, !dbg !2503
  store ptr %25, ptr %8, align 8
  call void @llvm.dbg.declare(metadata ptr %8, metadata !2504, metadata !DIExpression()), !dbg !2510
  store ptr %28, ptr %9, align 8
  call void @llvm.dbg.declare(metadata ptr %9, metadata !2512, metadata !DIExpression()), !dbg !2513
  store ptr %29, ptr %10, align 8
  call void @llvm.dbg.declare(metadata ptr %10, metadata !2514, metadata !DIExpression()), !dbg !2515
  store ptr %30, ptr %11, align 8
  call void @llvm.dbg.declare(metadata ptr %11, metadata !2516, metadata !DIExpression()), !dbg !2515
  %31 = load ptr, ptr %8, align 8, !dbg !2517
  %32 = load ptr, ptr %9, align 8, !dbg !2518
  %33 = load ptr, ptr %10, align 8, !dbg !2519
  %34 = load ptr, ptr %11, align 8, !dbg !2519
  store ptr %31, ptr %4, align 8
  call void @llvm.dbg.declare(metadata ptr %4, metadata !2520, metadata !DIExpression()), !dbg !2525
  store ptr %32, ptr %5, align 8
  call void @llvm.dbg.declare(metadata ptr %5, metadata !2527, metadata !DIExpression()), !dbg !2528
  store ptr %33, ptr %6, align 8
  call void @llvm.dbg.declare(metadata ptr %6, metadata !2529, metadata !DIExpression()), !dbg !2530
  store ptr %34, ptr %7, align 8
  call void @llvm.dbg.declare(metadata ptr %7, metadata !2531, metadata !DIExpression()), !dbg !2530
  %35 = load ptr, ptr %4, align 8
  %36 = load ptr, ptr %5, align 8, !dbg !2532
  %37 = load ptr, ptr %6, align 8, !dbg !2533
  %38 = load ptr, ptr %7, align 8, !dbg !2533
  call void @_ZNSt6threadC2IRFvPiEJS1_EvEEOT_DpOT0_(ptr noundef nonnull align 8 dereferenceable(8) %36, ptr noundef nonnull %37, ptr noundef nonnull align 8 dereferenceable(8) %38), !dbg !2534
  %39 = getelementptr inbounds %"struct.std::_Vector_base", ptr %16, i32 0, i32 0, !dbg !2535
  %40 = getelementptr inbounds %"struct.std::_Vector_base<std::thread, std::allocator<std::thread>>::_Vector_impl_data", ptr %39, i32 0, i32 1, !dbg !2536
  %41 = load ptr, ptr %40, align 8, !dbg !2537
  %42 = getelementptr inbounds %"class.std::thread", ptr %41, i32 1, !dbg !2537
  store ptr %42, ptr %40, align 8, !dbg !2537
  br label %50, !dbg !2538

43:                                               ; preds = %3
  %44 = call ptr @_ZNSt6vectorISt6threadSaIS0_EE3endEv(ptr noundef nonnull align 8 dereferenceable(24) %16) #2, !dbg !2539
  %45 = getelementptr inbounds %"class.__gnu_cxx::__normal_iterator", ptr %15, i32 0, i32 0, !dbg !2539
  store ptr %44, ptr %45, align 8, !dbg !2539
  %46 = load ptr, ptr %13, align 8, !dbg !2540
  %47 = load ptr, ptr %14, align 8, !dbg !2540
  %48 = getelementptr inbounds %"class.__gnu_cxx::__normal_iterator", ptr %15, i32 0, i32 0, !dbg !2541
  %49 = load ptr, ptr %48, align 8, !dbg !2541
  call void @_ZNSt6vectorISt6threadSaIS0_EE17_M_realloc_insertIJRFvPiES4_EEEvN9__gnu_cxx17__normal_iteratorIPS0_S2_EEDpOT_(ptr noundef nonnull align 8 dereferenceable(24) %16, ptr %49, ptr noundef nonnull %46, ptr noundef nonnull align 8 dereferenceable(8) %47), !dbg !2541
  br label %50

50:                                               ; preds = %43, %24
  %51 = call noundef nonnull align 8 dereferenceable(8) ptr @_ZNSt6vectorISt6threadSaIS0_EE4backEv(ptr noundef nonnull align 8 dereferenceable(24) %16) #2, !dbg !2542
  ret ptr %51, !dbg !2543
}

; Function Attrs: nobuiltin allocsize(0)
declare noundef nonnull ptr @_Znwm(i64 noundef) #7

; Function Attrs: mustprogress noinline norecurse optnone uwtable
define dso_local noundef i32 @main() #8 !dbg !2544 {
  %1 = alloca i32, align 4
  %2 = alloca ptr, align 8
  %3 = alloca %"class.__gnu_cxx::__normal_iterator", align 8
  %4 = alloca %"class.__gnu_cxx::__normal_iterator", align 8
  %5 = alloca ptr, align 8
  store i32 0, ptr %1, align 4
  call void @_Z10runThreadsv(), !dbg !2545
  call void @llvm.dbg.declare(metadata ptr %2, metadata !2546, metadata !DIExpression()), !dbg !2548
  store ptr @threads, ptr %2, align 8, !dbg !2549
  call void @llvm.dbg.declare(metadata ptr %3, metadata !2550, metadata !DIExpression()), !dbg !2548
  %6 = call ptr @_ZNSt6vectorISt6threadSaIS0_EE5beginEv(ptr noundef nonnull align 8 dereferenceable(24) @threads) #2, !dbg !2551
  %7 = getelementptr inbounds %"class.__gnu_cxx::__normal_iterator", ptr %3, i32 0, i32 0, !dbg !2551
  store ptr %6, ptr %7, align 8, !dbg !2551
  call void @llvm.dbg.declare(metadata ptr %4, metadata !2552, metadata !DIExpression()), !dbg !2548
  %8 = call ptr @_ZNSt6vectorISt6threadSaIS0_EE3endEv(ptr noundef nonnull align 8 dereferenceable(24) @threads) #2, !dbg !2551
  %9 = getelementptr inbounds %"class.__gnu_cxx::__normal_iterator", ptr %4, i32 0, i32 0, !dbg !2551
  store ptr %8, ptr %9, align 8, !dbg !2551
  br label %10, !dbg !2551

10:                                               ; preds = %15, %0
  %11 = call noundef zeroext i1 @_ZN9__gnu_cxxneIPSt6threadSt6vectorIS1_SaIS1_EEEEbRKNS_17__normal_iteratorIT_T0_EESB_(ptr noundef nonnull align 8 dereferenceable(8) %3, ptr noundef nonnull align 8 dereferenceable(8) %4) #2, !dbg !2551
  br i1 %11, label %12, label %17, !dbg !2551

12:                                               ; preds = %10
  call void @llvm.dbg.declare(metadata ptr %5, metadata !2553, metadata !DIExpression()), !dbg !2555
  %13 = call noundef nonnull align 8 dereferenceable(8) ptr @_ZNK9__gnu_cxx17__normal_iteratorIPSt6threadSt6vectorIS1_SaIS1_EEEdeEv(ptr noundef nonnull align 8 dereferenceable(8) %3) #2, !dbg !2556
  store ptr %13, ptr %5, align 8, !dbg !2555
  %14 = load ptr, ptr %5, align 8, !dbg !2557
  call void @_ZNSt6thread4joinEv(ptr noundef nonnull align 8 dereferenceable(8) %14), !dbg !2559
  br label %15, !dbg !2560

15:                                               ; preds = %12
  %16 = call noundef nonnull align 8 dereferenceable(8) ptr @_ZN9__gnu_cxx17__normal_iteratorIPSt6threadSt6vectorIS1_SaIS1_EEEppEv(ptr noundef nonnull align 8 dereferenceable(8) %3) #2, !dbg !2551
  br label %10, !dbg !2551, !llvm.loop !2561

17:                                               ; preds = %10
  ret i32 0, !dbg !2563
}

; Function Attrs: mustprogress noinline nounwind optnone uwtable
define linkonce_odr dso_local ptr @_ZNSt6vectorISt6threadSaIS0_EE5beginEv(ptr noundef nonnull align 8 dereferenceable(24) %0) #9 comdat align 2 !dbg !2564 {
  %2 = alloca %"class.__gnu_cxx::__normal_iterator", align 8
  %3 = alloca ptr, align 8
  store ptr %0, ptr %3, align 8
  call void @llvm.dbg.declare(metadata ptr %3, metadata !2565, metadata !DIExpression()), !dbg !2566
  %4 = load ptr, ptr %3, align 8
  %5 = getelementptr inbounds %"struct.std::_Vector_base", ptr %4, i32 0, i32 0, !dbg !2567
  %6 = getelementptr inbounds %"struct.std::_Vector_base<std::thread, std::allocator<std::thread>>::_Vector_impl_data", ptr %5, i32 0, i32 0, !dbg !2568
  call void @_ZN9__gnu_cxx17__normal_iteratorIPSt6threadSt6vectorIS1_SaIS1_EEEC2ERKS2_(ptr noundef nonnull align 8 dereferenceable(8) %2, ptr noundef nonnull align 8 dereferenceable(8) %6) #2, !dbg !2569
  %7 = getelementptr inbounds %"class.__gnu_cxx::__normal_iterator", ptr %2, i32 0, i32 0, !dbg !2570
  %8 = load ptr, ptr %7, align 8, !dbg !2570
  ret ptr %8, !dbg !2570
}

; Function Attrs: mustprogress noinline nounwind optnone uwtable
define linkonce_odr dso_local ptr @_ZNSt6vectorISt6threadSaIS0_EE3endEv(ptr noundef nonnull align 8 dereferenceable(24) %0) #9 comdat align 2 !dbg !2571 {
  %2 = alloca %"class.__gnu_cxx::__normal_iterator", align 8
  %3 = alloca ptr, align 8
  store ptr %0, ptr %3, align 8
  call void @llvm.dbg.declare(metadata ptr %3, metadata !2572, metadata !DIExpression()), !dbg !2573
  %4 = load ptr, ptr %3, align 8
  %5 = getelementptr inbounds %"struct.std::_Vector_base", ptr %4, i32 0, i32 0, !dbg !2574
  %6 = getelementptr inbounds %"struct.std::_Vector_base<std::thread, std::allocator<std::thread>>::_Vector_impl_data", ptr %5, i32 0, i32 1, !dbg !2575
  call void @_ZN9__gnu_cxx17__normal_iteratorIPSt6threadSt6vectorIS1_SaIS1_EEEC2ERKS2_(ptr noundef nonnull align 8 dereferenceable(8) %2, ptr noundef nonnull align 8 dereferenceable(8) %6) #2, !dbg !2576
  %7 = getelementptr inbounds %"class.__gnu_cxx::__normal_iterator", ptr %2, i32 0, i32 0, !dbg !2577
  %8 = load ptr, ptr %7, align 8, !dbg !2577
  ret ptr %8, !dbg !2577
}

; Function Attrs: mustprogress noinline nounwind optnone uwtable
define linkonce_odr dso_local noundef zeroext i1 @_ZN9__gnu_cxxneIPSt6threadSt6vectorIS1_SaIS1_EEEEbRKNS_17__normal_iteratorIT_T0_EESB_(ptr noundef nonnull align 8 dereferenceable(8) %0, ptr noundef nonnull align 8 dereferenceable(8) %1) #9 comdat !dbg !2578 {
  %3 = alloca ptr, align 8
  %4 = alloca ptr, align 8
  store ptr %0, ptr %3, align 8
  call void @llvm.dbg.declare(metadata ptr %3, metadata !2582, metadata !DIExpression()), !dbg !2583
  store ptr %1, ptr %4, align 8
  call void @llvm.dbg.declare(metadata ptr %4, metadata !2584, metadata !DIExpression()), !dbg !2585
  %5 = load ptr, ptr %3, align 8, !dbg !2586
  %6 = call noundef nonnull align 8 dereferenceable(8) ptr @_ZNK9__gnu_cxx17__normal_iteratorIPSt6threadSt6vectorIS1_SaIS1_EEE4baseEv(ptr noundef nonnull align 8 dereferenceable(8) %5) #2, !dbg !2587
  %7 = load ptr, ptr %6, align 8, !dbg !2587
  %8 = load ptr, ptr %4, align 8, !dbg !2588
  %9 = call noundef nonnull align 8 dereferenceable(8) ptr @_ZNK9__gnu_cxx17__normal_iteratorIPSt6threadSt6vectorIS1_SaIS1_EEE4baseEv(ptr noundef nonnull align 8 dereferenceable(8) %8) #2, !dbg !2589
  %10 = load ptr, ptr %9, align 8, !dbg !2589
  %11 = icmp ne ptr %7, %10, !dbg !2590
  ret i1 %11, !dbg !2591
}

; Function Attrs: mustprogress noinline nounwind optnone uwtable
define linkonce_odr dso_local noundef nonnull align 8 dereferenceable(8) ptr @_ZNK9__gnu_cxx17__normal_iteratorIPSt6threadSt6vectorIS1_SaIS1_EEEdeEv(ptr noundef nonnull align 8 dereferenceable(8) %0) #9 comdat align 2 !dbg !2592 {
  %2 = alloca ptr, align 8
  store ptr %0, ptr %2, align 8
  call void @llvm.dbg.declare(metadata ptr %2, metadata !2593, metadata !DIExpression()), !dbg !2595
  %3 = load ptr, ptr %2, align 8
  %4 = getelementptr inbounds %"class.__gnu_cxx::__normal_iterator", ptr %3, i32 0, i32 0, !dbg !2596
  %5 = load ptr, ptr %4, align 8, !dbg !2596
  ret ptr %5, !dbg !2597
}

declare void @_ZNSt6thread4joinEv(ptr noundef nonnull align 8 dereferenceable(8)) #5

; Function Attrs: mustprogress noinline nounwind optnone uwtable
define linkonce_odr dso_local noundef nonnull align 8 dereferenceable(8) ptr @_ZN9__gnu_cxx17__normal_iteratorIPSt6threadSt6vectorIS1_SaIS1_EEEppEv(ptr noundef nonnull align 8 dereferenceable(8) %0) #9 comdat align 2 !dbg !2598 {
  %2 = alloca ptr, align 8
  store ptr %0, ptr %2, align 8
  call void @llvm.dbg.declare(metadata ptr %2, metadata !2599, metadata !DIExpression()), !dbg !2601
  %3 = load ptr, ptr %2, align 8
  %4 = getelementptr inbounds %"class.__gnu_cxx::__normal_iterator", ptr %3, i32 0, i32 0, !dbg !2602
  %5 = load ptr, ptr %4, align 8, !dbg !2603
  %6 = getelementptr inbounds %"class.std::thread", ptr %5, i32 1, !dbg !2603
  store ptr %6, ptr %4, align 8, !dbg !2603
  ret ptr %3, !dbg !2604
}

; Function Attrs: noinline nounwind optnone uwtable
define linkonce_odr dso_local void @_ZNSt12_Vector_baseISt6threadSaIS0_EEC2Ev(ptr noundef nonnull align 8 dereferenceable(24) %0) unnamed_addr #1 comdat align 2 !dbg !2605 {
  %2 = alloca ptr, align 8
  store ptr %0, ptr %2, align 8
  call void @llvm.dbg.declare(metadata ptr %2, metadata !2606, metadata !DIExpression()), !dbg !2608
  %3 = load ptr, ptr %2, align 8
  %4 = getelementptr inbounds %"struct.std::_Vector_base", ptr %3, i32 0, i32 0, !dbg !2609
  call void @_ZNSt12_Vector_baseISt6threadSaIS0_EE12_Vector_implC2Ev(ptr noundef nonnull align 8 dereferenceable(24) %4) #2, !dbg !2609
  ret void, !dbg !2610
}

; Function Attrs: noinline nounwind optnone uwtable
define linkonce_odr dso_local void @_ZNSt12_Vector_baseISt6threadSaIS0_EE12_Vector_implC2Ev(ptr noundef nonnull align 8 dereferenceable(24) %0) unnamed_addr #1 comdat align 2 !dbg !2611 {
  %2 = alloca ptr, align 8
  %3 = alloca ptr, align 8
  %4 = alloca ptr, align 8
  store ptr %0, ptr %4, align 8
  call void @llvm.dbg.declare(metadata ptr %4, metadata !2612, metadata !DIExpression()), !dbg !2614
  %5 = load ptr, ptr %4, align 8
  store ptr %5, ptr %3, align 8
  call void @llvm.dbg.declare(metadata ptr %3, metadata !2615, metadata !DIExpression()), !dbg !2618
  %6 = load ptr, ptr %3, align 8
  store ptr %6, ptr %2, align 8
  call void @llvm.dbg.declare(metadata ptr %2, metadata !2620, metadata !DIExpression()), !dbg !2622
  %7 = load ptr, ptr %2, align 8
  call void @_ZNSt12_Vector_baseISt6threadSaIS0_EE17_Vector_impl_dataC2Ev(ptr noundef nonnull align 8 dereferenceable(24) %5) #2, !dbg !2624
  ret void, !dbg !2625
}

; Function Attrs: noinline nounwind optnone uwtable
define linkonce_odr dso_local void @_ZNSt12_Vector_baseISt6threadSaIS0_EE17_Vector_impl_dataC2Ev(ptr noundef nonnull align 8 dereferenceable(24) %0) unnamed_addr #1 comdat align 2 !dbg !2626 {
  %2 = alloca ptr, align 8
  store ptr %0, ptr %2, align 8
  call void @llvm.dbg.declare(metadata ptr %2, metadata !2627, metadata !DIExpression()), !dbg !2629
  %3 = load ptr, ptr %2, align 8
  %4 = getelementptr inbounds %"struct.std::_Vector_base<std::thread, std::allocator<std::thread>>::_Vector_impl_data", ptr %3, i32 0, i32 0, !dbg !2630
  store ptr null, ptr %4, align 8, !dbg !2630
  %5 = getelementptr inbounds %"struct.std::_Vector_base<std::thread, std::allocator<std::thread>>::_Vector_impl_data", ptr %3, i32 0, i32 1, !dbg !2631
  store ptr null, ptr %5, align 8, !dbg !2631
  %6 = getelementptr inbounds %"struct.std::_Vector_base<std::thread, std::allocator<std::thread>>::_Vector_impl_data", ptr %3, i32 0, i32 2, !dbg !2632
  store ptr null, ptr %6, align 8, !dbg !2632
  ret void, !dbg !2633
}

; Function Attrs: mustprogress noinline nounwind optnone uwtable
define linkonce_odr dso_local noundef nonnull align 1 dereferenceable(1) ptr @_ZNSt12_Vector_baseISt6threadSaIS0_EE19_M_get_Tp_allocatorEv(ptr noundef nonnull align 8 dereferenceable(24) %0) #9 comdat align 2 !dbg !2634 {
  %2 = alloca ptr, align 8
  store ptr %0, ptr %2, align 8
  call void @llvm.dbg.declare(metadata ptr %2, metadata !2635, metadata !DIExpression()), !dbg !2636
  %3 = load ptr, ptr %2, align 8
  %4 = getelementptr inbounds %"struct.std::_Vector_base", ptr %3, i32 0, i32 0, !dbg !2637
  ret ptr %4, !dbg !2638
}

declare i32 @__gxx_personality_v0(...)

; Function Attrs: noinline noreturn nounwind
define linkonce_odr hidden void @__clang_call_terminate(ptr noundef %0) #10 comdat {
  %2 = call ptr @__cxa_begin_catch(ptr %0) #2
  call void @_ZSt9terminatev() #15
  unreachable
}

declare ptr @__cxa_begin_catch(ptr)

declare void @_ZSt9terminatev()

; Function Attrs: noinline nounwind optnone uwtable
define linkonce_odr dso_local void @_ZNSt12_Vector_baseISt6threadSaIS0_EED2Ev(ptr noundef nonnull align 8 dereferenceable(24) %0) unnamed_addr #1 comdat align 2 personality ptr @__gxx_personality_v0 !dbg !2639 {
  %2 = alloca ptr, align 8
  store ptr %0, ptr %2, align 8
  call void @llvm.dbg.declare(metadata ptr %2, metadata !2640, metadata !DIExpression()), !dbg !2641
  %3 = load ptr, ptr %2, align 8
  %4 = getelementptr inbounds %"struct.std::_Vector_base", ptr %3, i32 0, i32 0, !dbg !2642
  %5 = getelementptr inbounds %"struct.std::_Vector_base<std::thread, std::allocator<std::thread>>::_Vector_impl_data", ptr %4, i32 0, i32 0, !dbg !2644
  %6 = load ptr, ptr %5, align 8, !dbg !2644
  %7 = getelementptr inbounds %"struct.std::_Vector_base", ptr %3, i32 0, i32 0, !dbg !2645
  %8 = getelementptr inbounds %"struct.std::_Vector_base<std::thread, std::allocator<std::thread>>::_Vector_impl_data", ptr %7, i32 0, i32 2, !dbg !2646
  %9 = load ptr, ptr %8, align 8, !dbg !2646
  %10 = getelementptr inbounds %"struct.std::_Vector_base", ptr %3, i32 0, i32 0, !dbg !2647
  %11 = getelementptr inbounds %"struct.std::_Vector_base<std::thread, std::allocator<std::thread>>::_Vector_impl_data", ptr %10, i32 0, i32 0, !dbg !2648
  %12 = load ptr, ptr %11, align 8, !dbg !2648
  %13 = ptrtoint ptr %9 to i64, !dbg !2649
  %14 = ptrtoint ptr %12 to i64, !dbg !2649
  %15 = sub i64 %13, %14, !dbg !2649
  %16 = sdiv exact i64 %15, 8, !dbg !2649
  invoke void @_ZNSt12_Vector_baseISt6threadSaIS0_EE13_M_deallocateEPS0_m(ptr noundef nonnull align 8 dereferenceable(24) %3, ptr noundef %6, i64 noundef %16)
          to label %17 unwind label %19, !dbg !2650

17:                                               ; preds = %1
  %18 = getelementptr inbounds %"struct.std::_Vector_base", ptr %3, i32 0, i32 0, !dbg !2651
  call void @_ZNSt12_Vector_baseISt6threadSaIS0_EE12_Vector_implD2Ev(ptr noundef nonnull align 8 dereferenceable(24) %18) #2, !dbg !2651
  ret void, !dbg !2652

19:                                               ; preds = %1
  %20 = landingpad { ptr, i32 }
          catch ptr null, !dbg !2650
  %21 = extractvalue { ptr, i32 } %20, 0, !dbg !2650
  call void @__clang_call_terminate(ptr %21) #15, !dbg !2650
  unreachable, !dbg !2650
}

; Function Attrs: mustprogress noinline optnone uwtable
define linkonce_odr dso_local void @_ZSt8_DestroyIPSt6threadEvT_S2_(ptr noundef %0, ptr noundef %1) #3 comdat !dbg !2653 {
  %3 = alloca ptr, align 8
  %4 = alloca ptr, align 8
  store ptr %0, ptr %3, align 8
  call void @llvm.dbg.declare(metadata ptr %3, metadata !2658, metadata !DIExpression()), !dbg !2659
  store ptr %1, ptr %4, align 8
  call void @llvm.dbg.declare(metadata ptr %4, metadata !2660, metadata !DIExpression()), !dbg !2661
  %5 = load ptr, ptr %3, align 8, !dbg !2662
  %6 = load ptr, ptr %4, align 8, !dbg !2663
  call void @_ZNSt12_Destroy_auxILb0EE9__destroyIPSt6threadEEvT_S4_(ptr noundef %5, ptr noundef %6), !dbg !2664
  ret void, !dbg !2665
}

; Function Attrs: mustprogress noinline optnone uwtable
define linkonce_odr dso_local void @_ZNSt12_Destroy_auxILb0EE9__destroyIPSt6threadEEvT_S4_(ptr noundef %0, ptr noundef %1) #3 comdat align 2 !dbg !2666 {
  %3 = alloca ptr, align 8
  %4 = alloca ptr, align 8
  store ptr %0, ptr %3, align 8
  call void @llvm.dbg.declare(metadata ptr %3, metadata !2670, metadata !DIExpression()), !dbg !2671
  store ptr %1, ptr %4, align 8
  call void @llvm.dbg.declare(metadata ptr %4, metadata !2672, metadata !DIExpression()), !dbg !2673
  br label %5, !dbg !2674

5:                                                ; preds = %11, %2
  %6 = load ptr, ptr %3, align 8, !dbg !2675
  %7 = load ptr, ptr %4, align 8, !dbg !2678
  %8 = icmp ne ptr %6, %7, !dbg !2679
  br i1 %8, label %9, label %14, !dbg !2680

9:                                                ; preds = %5
  %10 = load ptr, ptr %3, align 8, !dbg !2681
  call void @_ZSt8_DestroyISt6threadEvPT_(ptr noundef %10), !dbg !2682
  br label %11, !dbg !2682

11:                                               ; preds = %9
  %12 = load ptr, ptr %3, align 8, !dbg !2683
  %13 = getelementptr inbounds %"class.std::thread", ptr %12, i32 1, !dbg !2683
  store ptr %13, ptr %3, align 8, !dbg !2683
  br label %5, !dbg !2684, !llvm.loop !2685

14:                                               ; preds = %5
  ret void, !dbg !2687
}

; Function Attrs: mustprogress noinline nounwind optnone uwtable
define linkonce_odr dso_local void @_ZSt8_DestroyISt6threadEvPT_(ptr noundef %0) #9 comdat !dbg !2688 {
  %2 = alloca ptr, align 8
  store ptr %0, ptr %2, align 8
  call void @llvm.dbg.declare(metadata ptr %2, metadata !2691, metadata !DIExpression()), !dbg !2692
  %3 = load ptr, ptr %2, align 8, !dbg !2693
  call void @_ZNSt6threadD2Ev(ptr noundef nonnull align 8 dereferenceable(8) %3) #2, !dbg !2694
  ret void, !dbg !2695
}

; Function Attrs: noinline nounwind optnone uwtable
define linkonce_odr dso_local void @_ZNSt6threadD2Ev(ptr noundef nonnull align 8 dereferenceable(8) %0) unnamed_addr #1 comdat align 2 !dbg !2696 {
  %2 = alloca ptr, align 8
  store ptr %0, ptr %2, align 8
  call void @llvm.dbg.declare(metadata ptr %2, metadata !2697, metadata !DIExpression()), !dbg !2698
  %3 = load ptr, ptr %2, align 8
  %4 = call noundef zeroext i1 @_ZNKSt6thread8joinableEv(ptr noundef nonnull align 8 dereferenceable(8) %3) #2, !dbg !2699
  br i1 %4, label %5, label %7, !dbg !2702

5:                                                ; preds = %1
  call void @_ZSt9terminatev() #15, !dbg !2703
  unreachable, !dbg !2703

6:                                                ; No predecessors!
  unreachable, !dbg !2706

7:                                                ; preds = %1
  ret void, !dbg !2707
}

; Function Attrs: mustprogress noinline nounwind optnone uwtable
define linkonce_odr dso_local noundef zeroext i1 @_ZNKSt6thread8joinableEv(ptr noundef nonnull align 8 dereferenceable(8) %0) #9 comdat align 2 !dbg !2708 {
  %2 = alloca ptr, align 8
  %3 = alloca %"class.std::thread::id", align 8
  %4 = alloca %"class.std::thread::id", align 8
  store ptr %0, ptr %2, align 8
  call void @llvm.dbg.declare(metadata ptr %2, metadata !2709, metadata !DIExpression()), !dbg !2710
  %5 = load ptr, ptr %2, align 8
  %6 = getelementptr inbounds %"class.std::thread", ptr %5, i32 0, i32 0, !dbg !2711
  call void @llvm.memcpy.p0.p0.i64(ptr align 8 %3, ptr align 8 %6, i64 8, i1 false), !dbg !2711
  call void @_ZNSt6thread2idC2Ev(ptr noundef nonnull align 8 dereferenceable(8) %4) #2, !dbg !2712
  %7 = getelementptr inbounds %"class.std::thread::id", ptr %3, i32 0, i32 0, !dbg !2713
  %8 = load i64, ptr %7, align 8, !dbg !2713
  %9 = getelementptr inbounds %"class.std::thread::id", ptr %4, i32 0, i32 0, !dbg !2713
  %10 = load i64, ptr %9, align 8, !dbg !2713
  %11 = call noundef zeroext i1 @_ZSteqNSt6thread2idES0_(i64 %8, i64 %10) #2, !dbg !2713
  %12 = xor i1 %11, true, !dbg !2714
  ret i1 %12, !dbg !2715
}

; Function Attrs: mustprogress noinline nounwind optnone uwtable
define linkonce_odr dso_local noundef zeroext i1 @_ZSteqNSt6thread2idES0_(i64 %0, i64 %1) #9 comdat !dbg !2716 {
  %3 = alloca %"class.std::thread::id", align 8
  %4 = alloca %"class.std::thread::id", align 8
  %5 = getelementptr inbounds %"class.std::thread::id", ptr %3, i32 0, i32 0
  store i64 %0, ptr %5, align 8
  %6 = getelementptr inbounds %"class.std::thread::id", ptr %4, i32 0, i32 0
  store i64 %1, ptr %6, align 8
  call void @llvm.dbg.declare(metadata ptr %3, metadata !2719, metadata !DIExpression()), !dbg !2720
  call void @llvm.dbg.declare(metadata ptr %4, metadata !2721, metadata !DIExpression()), !dbg !2722
  %7 = getelementptr inbounds %"class.std::thread::id", ptr %3, i32 0, i32 0, !dbg !2723
  %8 = load i64, ptr %7, align 8, !dbg !2723
  %9 = getelementptr inbounds %"class.std::thread::id", ptr %4, i32 0, i32 0, !dbg !2724
  %10 = load i64, ptr %9, align 8, !dbg !2724
  %11 = icmp eq i64 %8, %10, !dbg !2725
  ret i1 %11, !dbg !2726
}

; Function Attrs: nocallback nofree nounwind willreturn memory(argmem: readwrite)
declare void @llvm.memcpy.p0.p0.i64(ptr noalias nocapture writeonly, ptr noalias nocapture readonly, i64, i1 immarg) #11

; Function Attrs: noinline nounwind optnone uwtable
define linkonce_odr dso_local void @_ZNSt6thread2idC2Ev(ptr noundef nonnull align 8 dereferenceable(8) %0) unnamed_addr #1 comdat align 2 !dbg !2727 {
  %2 = alloca ptr, align 8
  store ptr %0, ptr %2, align 8
  call void @llvm.dbg.declare(metadata ptr %2, metadata !2728, metadata !DIExpression()), !dbg !2730
  %3 = load ptr, ptr %2, align 8
  %4 = getelementptr inbounds %"class.std::thread::id", ptr %3, i32 0, i32 0, !dbg !2731
  store i64 0, ptr %4, align 8, !dbg !2731
  ret void, !dbg !2732
}

; Function Attrs: mustprogress noinline optnone uwtable
define linkonce_odr dso_local void @_ZNSt12_Vector_baseISt6threadSaIS0_EE13_M_deallocateEPS0_m(ptr noundef nonnull align 8 dereferenceable(24) %0, ptr noundef %1, i64 noundef %2) #3 comdat align 2 !dbg !2733 {
  %4 = alloca ptr, align 8
  %5 = alloca ptr, align 8
  %6 = alloca i64, align 8
  %7 = alloca ptr, align 8
  %8 = alloca ptr, align 8
  %9 = alloca i64, align 8
  store ptr %0, ptr %7, align 8
  call void @llvm.dbg.declare(metadata ptr %7, metadata !2734, metadata !DIExpression()), !dbg !2735
  store ptr %1, ptr %8, align 8
  call void @llvm.dbg.declare(metadata ptr %8, metadata !2736, metadata !DIExpression()), !dbg !2737
  store i64 %2, ptr %9, align 8
  call void @llvm.dbg.declare(metadata ptr %9, metadata !2738, metadata !DIExpression()), !dbg !2739
  %10 = load ptr, ptr %7, align 8
  %11 = load ptr, ptr %8, align 8, !dbg !2740
  %12 = icmp ne ptr %11, null, !dbg !2740
  br i1 %12, label %13, label %20, !dbg !2742

13:                                               ; preds = %3
  %14 = getelementptr inbounds %"struct.std::_Vector_base", ptr %10, i32 0, i32 0, !dbg !2743
  %15 = load ptr, ptr %8, align 8, !dbg !2744
  %16 = load i64, ptr %9, align 8, !dbg !2745
  store ptr %14, ptr %4, align 8
  call void @llvm.dbg.declare(metadata ptr %4, metadata !2746, metadata !DIExpression()), !dbg !2748
  store ptr %15, ptr %5, align 8
  call void @llvm.dbg.declare(metadata ptr %5, metadata !2750, metadata !DIExpression()), !dbg !2751
  store i64 %16, ptr %6, align 8
  call void @llvm.dbg.declare(metadata ptr %6, metadata !2752, metadata !DIExpression()), !dbg !2753
  %17 = load ptr, ptr %4, align 8, !dbg !2754
  %18 = load ptr, ptr %5, align 8, !dbg !2755
  %19 = load i64, ptr %6, align 8, !dbg !2756
  call void @_ZNSt15__new_allocatorISt6threadE10deallocateEPS0_m(ptr noundef nonnull align 1 dereferenceable(1) %17, ptr noundef %18, i64 noundef %19), !dbg !2757
  br label %20, !dbg !2758

20:                                               ; preds = %13, %3
  ret void, !dbg !2759
}

; Function Attrs: noinline nounwind optnone uwtable
define linkonce_odr dso_local void @_ZNSt12_Vector_baseISt6threadSaIS0_EE12_Vector_implD2Ev(ptr noundef nonnull align 8 dereferenceable(24) %0) unnamed_addr #1 comdat align 2 !dbg !2760 {
  %2 = alloca ptr, align 8
  %3 = alloca ptr, align 8
  store ptr %0, ptr %3, align 8
  call void @llvm.dbg.declare(metadata ptr %3, metadata !2762, metadata !DIExpression()), !dbg !2763
  %4 = load ptr, ptr %3, align 8
  store ptr %4, ptr %2, align 8
  call void @llvm.dbg.declare(metadata ptr %2, metadata !2764, metadata !DIExpression()), !dbg !2766
  %5 = load ptr, ptr %2, align 8
  call void @_ZNSt15__new_allocatorISt6threadED2Ev(ptr noundef nonnull align 1 dereferenceable(1) %5) #2, !dbg !2769
  ret void, !dbg !2771
}

; Function Attrs: mustprogress noinline nounwind optnone uwtable
define linkonce_odr dso_local void @_ZNSt15__new_allocatorISt6threadE10deallocateEPS0_m(ptr noundef nonnull align 1 dereferenceable(1) %0, ptr noundef %1, i64 noundef %2) #9 comdat align 2 !dbg !2772 {
  %4 = alloca ptr, align 8
  %5 = alloca ptr, align 8
  %6 = alloca i64, align 8
  store ptr %0, ptr %4, align 8
  call void @llvm.dbg.declare(metadata ptr %4, metadata !2773, metadata !DIExpression()), !dbg !2774
  store ptr %1, ptr %5, align 8
  call void @llvm.dbg.declare(metadata ptr %5, metadata !2775, metadata !DIExpression()), !dbg !2776
  store i64 %2, ptr %6, align 8
  call void @llvm.dbg.declare(metadata ptr %6, metadata !2777, metadata !DIExpression()), !dbg !2778
  %7 = load ptr, ptr %4, align 8
  %8 = load ptr, ptr %5, align 8, !dbg !2779
  call void @_ZdlPv(ptr noundef %8) #16, !dbg !2780
  ret void, !dbg !2781
}

; Function Attrs: noinline nounwind optnone uwtable
define linkonce_odr dso_local void @_ZNSt15__new_allocatorISt6threadED2Ev(ptr noundef nonnull align 1 dereferenceable(1) %0) unnamed_addr #1 comdat align 2 !dbg !2782 {
  %2 = alloca ptr, align 8
  store ptr %0, ptr %2, align 8
  call void @llvm.dbg.declare(metadata ptr %2, metadata !2783, metadata !DIExpression()), !dbg !2784
  %3 = load ptr, ptr %2, align 8
  ret void, !dbg !2785
}

; Function Attrs: mustprogress noinline optnone uwtable
define linkonce_odr dso_local void @_ZNSt6vectorISt6threadSaIS0_EE17_M_realloc_insertIJRFviERiEEEvN9__gnu_cxx17__normal_iteratorIPS0_S2_EEDpOT_(ptr noundef nonnull align 8 dereferenceable(24) %0, ptr %1, ptr noundef nonnull %2, ptr noundef nonnull align 4 dereferenceable(4) %3) #3 comdat align 2 personality ptr @__gxx_personality_v0 !dbg !2786 {
  %5 = alloca ptr, align 8
  %6 = alloca ptr, align 8
  %7 = alloca ptr, align 8
  %8 = alloca ptr, align 8
  %9 = alloca ptr, align 8
  %10 = alloca ptr, align 8
  %11 = alloca ptr, align 8
  %12 = alloca ptr, align 8
  %13 = alloca ptr, align 8
  %14 = alloca ptr, align 8
  %15 = alloca ptr, align 8
  %16 = alloca ptr, align 8
  %17 = alloca ptr, align 8
  %18 = alloca ptr, align 8
  %19 = alloca ptr, align 8
  %20 = alloca %"class.__gnu_cxx::__normal_iterator", align 8
  %21 = alloca ptr, align 8
  %22 = alloca ptr, align 8
  %23 = alloca ptr, align 8
  %24 = alloca i64, align 8
  %25 = alloca ptr, align 8
  %26 = alloca ptr, align 8
  %27 = alloca i64, align 8
  %28 = alloca %"class.__gnu_cxx::__normal_iterator", align 8
  %29 = alloca ptr, align 8
  %30 = alloca ptr, align 8
  %31 = alloca ptr, align 8
  %32 = alloca i32, align 4
  %33 = getelementptr inbounds %"class.__gnu_cxx::__normal_iterator", ptr %20, i32 0, i32 0
  store ptr %1, ptr %33, align 8
  store ptr %0, ptr %21, align 8
  call void @llvm.dbg.declare(metadata ptr %21, metadata !2790, metadata !DIExpression()), !dbg !2791
  call void @llvm.dbg.declare(metadata ptr %20, metadata !2792, metadata !DIExpression()), !dbg !2793
  store ptr %2, ptr %22, align 8
  call void @llvm.dbg.declare(metadata ptr %22, metadata !2794, metadata !DIExpression()), !dbg !2795
  store ptr %3, ptr %23, align 8
  call void @llvm.dbg.declare(metadata ptr %23, metadata !2796, metadata !DIExpression()), !dbg !2795
  %34 = load ptr, ptr %21, align 8
  call void @llvm.dbg.declare(metadata ptr %24, metadata !2797, metadata !DIExpression()), !dbg !2799
  %35 = call noundef i64 @_ZNKSt6vectorISt6threadSaIS0_EE12_M_check_lenEmPKc(ptr noundef nonnull align 8 dereferenceable(24) %34, i64 noundef 1, ptr noundef @.str.2), !dbg !2800
  store i64 %35, ptr %24, align 8, !dbg !2799
  call void @llvm.dbg.declare(metadata ptr %25, metadata !2801, metadata !DIExpression()), !dbg !2802
  %36 = getelementptr inbounds %"struct.std::_Vector_base", ptr %34, i32 0, i32 0, !dbg !2803
  %37 = getelementptr inbounds %"struct.std::_Vector_base<std::thread, std::allocator<std::thread>>::_Vector_impl_data", ptr %36, i32 0, i32 0, !dbg !2804
  %38 = load ptr, ptr %37, align 8, !dbg !2804
  store ptr %38, ptr %25, align 8, !dbg !2802
  call void @llvm.dbg.declare(metadata ptr %26, metadata !2805, metadata !DIExpression()), !dbg !2806
  %39 = getelementptr inbounds %"struct.std::_Vector_base", ptr %34, i32 0, i32 0, !dbg !2807
  %40 = getelementptr inbounds %"struct.std::_Vector_base<std::thread, std::allocator<std::thread>>::_Vector_impl_data", ptr %39, i32 0, i32 1, !dbg !2808
  %41 = load ptr, ptr %40, align 8, !dbg !2808
  store ptr %41, ptr %26, align 8, !dbg !2806
  call void @llvm.dbg.declare(metadata ptr %27, metadata !2809, metadata !DIExpression()), !dbg !2810
  %42 = call ptr @_ZNSt6vectorISt6threadSaIS0_EE5beginEv(ptr noundef nonnull align 8 dereferenceable(24) %34) #2, !dbg !2811
  %43 = getelementptr inbounds %"class.__gnu_cxx::__normal_iterator", ptr %28, i32 0, i32 0, !dbg !2811
  store ptr %42, ptr %43, align 8, !dbg !2811
  %44 = call noundef i64 @_ZN9__gnu_cxxmiIPSt6threadSt6vectorIS1_SaIS1_EEEENS_17__normal_iteratorIT_T0_E15difference_typeERKS9_SC_(ptr noundef nonnull align 8 dereferenceable(8) %20, ptr noundef nonnull align 8 dereferenceable(8) %28) #2, !dbg !2812
  store i64 %44, ptr %27, align 8, !dbg !2810
  call void @llvm.dbg.declare(metadata ptr %29, metadata !2813, metadata !DIExpression()), !dbg !2814
  %45 = load i64, ptr %24, align 8, !dbg !2815
  %46 = call noundef ptr @_ZNSt12_Vector_baseISt6threadSaIS0_EE11_M_allocateEm(ptr noundef nonnull align 8 dereferenceable(24) %34, i64 noundef %45), !dbg !2816
  store ptr %46, ptr %29, align 8, !dbg !2814
  call void @llvm.dbg.declare(metadata ptr %30, metadata !2817, metadata !DIExpression()), !dbg !2818
  %47 = load ptr, ptr %29, align 8, !dbg !2819
  store ptr %47, ptr %30, align 8, !dbg !2818
  %48 = getelementptr inbounds %"struct.std::_Vector_base", ptr %34, i32 0, i32 0, !dbg !2820
  %49 = load ptr, ptr %29, align 8, !dbg !2822
  %50 = load i64, ptr %27, align 8, !dbg !2823
  %51 = getelementptr inbounds %"class.std::thread", ptr %49, i64 %50, !dbg !2824
  %52 = load ptr, ptr %22, align 8, !dbg !2825
  %53 = load ptr, ptr %23, align 8, !dbg !2825
  store ptr %48, ptr %13, align 8
  call void @llvm.dbg.declare(metadata ptr %13, metadata !2436, metadata !DIExpression()), !dbg !2826
  store ptr %51, ptr %14, align 8
  call void @llvm.dbg.declare(metadata ptr %14, metadata !2445, metadata !DIExpression()), !dbg !2828
  store ptr %52, ptr %15, align 8
  call void @llvm.dbg.declare(metadata ptr %15, metadata !2447, metadata !DIExpression()), !dbg !2829
  store ptr %53, ptr %16, align 8
  call void @llvm.dbg.declare(metadata ptr %16, metadata !2449, metadata !DIExpression()), !dbg !2829
  %54 = load ptr, ptr %13, align 8, !dbg !2830
  %55 = load ptr, ptr %14, align 8, !dbg !2831
  %56 = load ptr, ptr %15, align 8, !dbg !2832
  %57 = load ptr, ptr %16, align 8, !dbg !2832
  store ptr %54, ptr %9, align 8
  call void @llvm.dbg.declare(metadata ptr %9, metadata !2453, metadata !DIExpression()), !dbg !2833
  store ptr %55, ptr %10, align 8
  call void @llvm.dbg.declare(metadata ptr %10, metadata !2461, metadata !DIExpression()), !dbg !2835
  store ptr %56, ptr %11, align 8
  call void @llvm.dbg.declare(metadata ptr %11, metadata !2463, metadata !DIExpression()), !dbg !2836
  store ptr %57, ptr %12, align 8
  call void @llvm.dbg.declare(metadata ptr %12, metadata !2465, metadata !DIExpression()), !dbg !2836
  %58 = load ptr, ptr %9, align 8
  %59 = load ptr, ptr %10, align 8, !dbg !2837
  %60 = load ptr, ptr %11, align 8, !dbg !2838
  %61 = load ptr, ptr %12, align 8, !dbg !2838
  invoke void @_ZNSt6threadC2IRFviEJRiEvEEOT_DpOT0_(ptr noundef nonnull align 8 dereferenceable(8) %59, ptr noundef nonnull %60, ptr noundef nonnull align 4 dereferenceable(4) %61)
          to label %62 unwind label %79, !dbg !2839

62:                                               ; preds = %4
  br label %63, !dbg !2840

63:                                               ; preds = %62
  br label %64, !dbg !2841

64:                                               ; preds = %63
  store ptr null, ptr %30, align 8, !dbg !2842
  %65 = load ptr, ptr %25, align 8, !dbg !2843
  %66 = call noundef nonnull align 8 dereferenceable(8) ptr @_ZNK9__gnu_cxx17__normal_iteratorIPSt6threadSt6vectorIS1_SaIS1_EEE4baseEv(ptr noundef nonnull align 8 dereferenceable(8) %20) #2, !dbg !2846
  %67 = load ptr, ptr %66, align 8, !dbg !2846
  %68 = load ptr, ptr %29, align 8, !dbg !2847
  %69 = call noundef nonnull align 1 dereferenceable(1) ptr @_ZNSt12_Vector_baseISt6threadSaIS0_EE19_M_get_Tp_allocatorEv(ptr noundef nonnull align 8 dereferenceable(24) %34) #2, !dbg !2848
  %70 = call noundef ptr @_ZNSt6vectorISt6threadSaIS0_EE11_S_relocateEPS0_S3_S3_RS1_(ptr noundef %65, ptr noundef %67, ptr noundef %68, ptr noundef nonnull align 1 dereferenceable(1) %69) #2, !dbg !2849
  store ptr %70, ptr %30, align 8, !dbg !2850
  %71 = load ptr, ptr %30, align 8, !dbg !2851
  %72 = getelementptr inbounds %"class.std::thread", ptr %71, i32 1, !dbg !2851
  store ptr %72, ptr %30, align 8, !dbg !2851
  %73 = call noundef nonnull align 8 dereferenceable(8) ptr @_ZNK9__gnu_cxx17__normal_iteratorIPSt6threadSt6vectorIS1_SaIS1_EEE4baseEv(ptr noundef nonnull align 8 dereferenceable(8) %20) #2, !dbg !2852
  %74 = load ptr, ptr %73, align 8, !dbg !2852
  %75 = load ptr, ptr %26, align 8, !dbg !2853
  %76 = load ptr, ptr %30, align 8, !dbg !2854
  %77 = call noundef nonnull align 1 dereferenceable(1) ptr @_ZNSt12_Vector_baseISt6threadSaIS0_EE19_M_get_Tp_allocatorEv(ptr noundef nonnull align 8 dereferenceable(24) %34) #2, !dbg !2855
  %78 = call noundef ptr @_ZNSt6vectorISt6threadSaIS0_EE11_S_relocateEPS0_S3_S3_RS1_(ptr noundef %74, ptr noundef %75, ptr noundef %76, ptr noundef nonnull align 1 dereferenceable(1) %77) #2, !dbg !2856
  store ptr %78, ptr %30, align 8, !dbg !2857
  br label %114, !dbg !2858

79:                                               ; preds = %4
  %80 = landingpad { ptr, i32 }
          catch ptr null, !dbg !2859
  %81 = extractvalue { ptr, i32 } %80, 0, !dbg !2859
  store ptr %81, ptr %31, align 8, !dbg !2859
  %82 = extractvalue { ptr, i32 } %80, 1, !dbg !2859
  store i32 %82, ptr %32, align 4, !dbg !2859
  br label %83, !dbg !2859

83:                                               ; preds = %79
  %84 = load ptr, ptr %31, align 8, !dbg !2858
  %85 = call ptr @__cxa_begin_catch(ptr %84) #2, !dbg !2858
  %86 = load ptr, ptr %30, align 8, !dbg !2860
  %87 = icmp ne ptr %86, null, !dbg !2860
  br i1 %87, label %97, label %88, !dbg !2863

88:                                               ; preds = %83
  %89 = getelementptr inbounds %"struct.std::_Vector_base", ptr %34, i32 0, i32 0, !dbg !2864
  %90 = load ptr, ptr %29, align 8, !dbg !2865
  %91 = load i64, ptr %27, align 8, !dbg !2866
  %92 = getelementptr inbounds %"class.std::thread", ptr %90, i64 %91, !dbg !2867
  store ptr %89, ptr %7, align 8
  call void @llvm.dbg.declare(metadata ptr %7, metadata !2868, metadata !DIExpression()), !dbg !2874
  store ptr %92, ptr %8, align 8
  call void @llvm.dbg.declare(metadata ptr %8, metadata !2876, metadata !DIExpression()), !dbg !2877
  %93 = load ptr, ptr %7, align 8, !dbg !2878
  %94 = load ptr, ptr %8, align 8, !dbg !2879
  store ptr %93, ptr %5, align 8
  call void @llvm.dbg.declare(metadata ptr %5, metadata !2880, metadata !DIExpression()), !dbg !2885
  store ptr %94, ptr %6, align 8
  call void @llvm.dbg.declare(metadata ptr %6, metadata !2887, metadata !DIExpression()), !dbg !2888
  %95 = load ptr, ptr %5, align 8
  %96 = load ptr, ptr %6, align 8, !dbg !2889
  call void @_ZNSt6threadD2Ev(ptr noundef nonnull align 8 dereferenceable(8) %96) #2, !dbg !2890
  br label %109, !dbg !2891

97:                                               ; preds = %83
  %98 = load ptr, ptr %29, align 8, !dbg !2892
  %99 = load ptr, ptr %30, align 8, !dbg !2893
  %100 = call noundef nonnull align 1 dereferenceable(1) ptr @_ZNSt12_Vector_baseISt6threadSaIS0_EE19_M_get_Tp_allocatorEv(ptr noundef nonnull align 8 dereferenceable(24) %34) #2, !dbg !2894
  store ptr %98, ptr %17, align 8
  call void @llvm.dbg.declare(metadata ptr %17, metadata !2339, metadata !DIExpression()), !dbg !2895
  store ptr %99, ptr %18, align 8
  call void @llvm.dbg.declare(metadata ptr %18, metadata !2347, metadata !DIExpression()), !dbg !2897
  store ptr %100, ptr %19, align 8
  call void @llvm.dbg.declare(metadata ptr %19, metadata !2349, metadata !DIExpression()), !dbg !2898
  %101 = load ptr, ptr %17, align 8, !dbg !2899
  %102 = load ptr, ptr %18, align 8, !dbg !2900
  invoke void @_ZSt8_DestroyIPSt6threadEvT_S2_(ptr noundef %101, ptr noundef %102)
          to label %103 unwind label %105, !dbg !2901

103:                                              ; preds = %97
  br label %104, !dbg !2902

104:                                              ; preds = %103
  br label %109

105:                                              ; preds = %97, %112, %109
  %106 = landingpad { ptr, i32 }
          cleanup, !dbg !2903
  %107 = extractvalue { ptr, i32 } %106, 0, !dbg !2903
  store ptr %107, ptr %31, align 8, !dbg !2903
  %108 = extractvalue { ptr, i32 } %106, 1, !dbg !2903
  store i32 %108, ptr %32, align 4, !dbg !2903
  invoke void @__cxa_end_catch()
          to label %113 unwind label %140, !dbg !2904

109:                                              ; preds = %104, %88
  %110 = load ptr, ptr %29, align 8, !dbg !2905
  %111 = load i64, ptr %24, align 8, !dbg !2906
  invoke void @_ZNSt12_Vector_baseISt6threadSaIS0_EE13_M_deallocateEPS0_m(ptr noundef nonnull align 8 dereferenceable(24) %34, ptr noundef %110, i64 noundef %111)
          to label %112 unwind label %105, !dbg !2907

112:                                              ; preds = %109
  invoke void @__cxa_rethrow() #18
          to label %143 unwind label %105, !dbg !2908

113:                                              ; preds = %105
  br label %135, !dbg !2904

114:                                              ; preds = %64
  %115 = load ptr, ptr %25, align 8, !dbg !2909
  %116 = getelementptr inbounds %"struct.std::_Vector_base", ptr %34, i32 0, i32 0, !dbg !2910
  %117 = getelementptr inbounds %"struct.std::_Vector_base<std::thread, std::allocator<std::thread>>::_Vector_impl_data", ptr %116, i32 0, i32 2, !dbg !2911
  %118 = load ptr, ptr %117, align 8, !dbg !2911
  %119 = load ptr, ptr %25, align 8, !dbg !2912
  %120 = ptrtoint ptr %118 to i64, !dbg !2913
  %121 = ptrtoint ptr %119 to i64, !dbg !2913
  %122 = sub i64 %120, %121, !dbg !2913
  %123 = sdiv exact i64 %122, 8, !dbg !2913
  call void @_ZNSt12_Vector_baseISt6threadSaIS0_EE13_M_deallocateEPS0_m(ptr noundef nonnull align 8 dereferenceable(24) %34, ptr noundef %115, i64 noundef %123), !dbg !2914
  %124 = load ptr, ptr %29, align 8, !dbg !2915
  %125 = getelementptr inbounds %"struct.std::_Vector_base", ptr %34, i32 0, i32 0, !dbg !2916
  %126 = getelementptr inbounds %"struct.std::_Vector_base<std::thread, std::allocator<std::thread>>::_Vector_impl_data", ptr %125, i32 0, i32 0, !dbg !2917
  store ptr %124, ptr %126, align 8, !dbg !2918
  %127 = load ptr, ptr %30, align 8, !dbg !2919
  %128 = getelementptr inbounds %"struct.std::_Vector_base", ptr %34, i32 0, i32 0, !dbg !2920
  %129 = getelementptr inbounds %"struct.std::_Vector_base<std::thread, std::allocator<std::thread>>::_Vector_impl_data", ptr %128, i32 0, i32 1, !dbg !2921
  store ptr %127, ptr %129, align 8, !dbg !2922
  %130 = load ptr, ptr %29, align 8, !dbg !2923
  %131 = load i64, ptr %24, align 8, !dbg !2924
  %132 = getelementptr inbounds %"class.std::thread", ptr %130, i64 %131, !dbg !2925
  %133 = getelementptr inbounds %"struct.std::_Vector_base", ptr %34, i32 0, i32 0, !dbg !2926
  %134 = getelementptr inbounds %"struct.std::_Vector_base<std::thread, std::allocator<std::thread>>::_Vector_impl_data", ptr %133, i32 0, i32 2, !dbg !2927
  store ptr %132, ptr %134, align 8, !dbg !2928
  ret void, !dbg !2929

135:                                              ; preds = %113
  %136 = load ptr, ptr %31, align 8, !dbg !2904
  %137 = load i32, ptr %32, align 4, !dbg !2904
  %138 = insertvalue { ptr, i32 } poison, ptr %136, 0, !dbg !2904
  %139 = insertvalue { ptr, i32 } %138, i32 %137, 1, !dbg !2904
  resume { ptr, i32 } %139, !dbg !2904

140:                                              ; preds = %105
  %141 = landingpad { ptr, i32 }
          catch ptr null, !dbg !2904
  %142 = extractvalue { ptr, i32 } %141, 0, !dbg !2904
  call void @__clang_call_terminate(ptr %142) #15, !dbg !2904
  unreachable, !dbg !2904

143:                                              ; preds = %112
  unreachable
}

; Function Attrs: mustprogress noinline nounwind optnone uwtable
define linkonce_odr dso_local noundef nonnull align 8 dereferenceable(8) ptr @_ZNSt6vectorISt6threadSaIS0_EE4backEv(ptr noundef nonnull align 8 dereferenceable(24) %0) #9 comdat align 2 !dbg !2930 {
  %2 = alloca ptr, align 8
  %3 = alloca %"class.__gnu_cxx::__normal_iterator", align 8
  %4 = alloca %"class.__gnu_cxx::__normal_iterator", align 8
  store ptr %0, ptr %2, align 8
  call void @llvm.dbg.declare(metadata ptr %2, metadata !2931, metadata !DIExpression()), !dbg !2932
  %5 = load ptr, ptr %2, align 8
  %6 = call ptr @_ZNSt6vectorISt6threadSaIS0_EE3endEv(ptr noundef nonnull align 8 dereferenceable(24) %5) #2, !dbg !2933
  %7 = getelementptr inbounds %"class.__gnu_cxx::__normal_iterator", ptr %4, i32 0, i32 0, !dbg !2933
  store ptr %6, ptr %7, align 8, !dbg !2933
  %8 = call ptr @_ZNK9__gnu_cxx17__normal_iteratorIPSt6threadSt6vectorIS1_SaIS1_EEEmiEl(ptr noundef nonnull align 8 dereferenceable(8) %4, i64 noundef 1) #2, !dbg !2934
  %9 = getelementptr inbounds %"class.__gnu_cxx::__normal_iterator", ptr %3, i32 0, i32 0, !dbg !2934
  store ptr %8, ptr %9, align 8, !dbg !2934
  %10 = call noundef nonnull align 8 dereferenceable(8) ptr @_ZNK9__gnu_cxx17__normal_iteratorIPSt6threadSt6vectorIS1_SaIS1_EEEdeEv(ptr noundef nonnull align 8 dereferenceable(8) %3) #2, !dbg !2935
  ret ptr %10, !dbg !2936
}

; Function Attrs: noinline optnone uwtable
define linkonce_odr dso_local void @_ZNSt6threadC2IRFviEJRiEvEEOT_DpOT0_(ptr noundef nonnull align 8 dereferenceable(8) %0, ptr noundef nonnull %1, ptr noundef nonnull align 4 dereferenceable(4) %2) unnamed_addr #12 comdat align 2 personality ptr @__gxx_personality_v0 !dbg !2937 {
  %4 = alloca ptr, align 8
  %5 = alloca ptr, align 8
  %6 = alloca ptr, align 8
  %7 = alloca %"class.std::unique_ptr", align 8
  %8 = alloca ptr, align 8
  %9 = alloca i32, align 4
  store ptr %0, ptr %4, align 8
  call void @llvm.dbg.declare(metadata ptr %4, metadata !2946, metadata !DIExpression()), !dbg !2947
  store ptr %1, ptr %5, align 8
  call void @llvm.dbg.declare(metadata ptr %5, metadata !2948, metadata !DIExpression()), !dbg !2949
  store ptr %2, ptr %6, align 8
  call void @llvm.dbg.declare(metadata ptr %6, metadata !2950, metadata !DIExpression()), !dbg !2951
  %10 = load ptr, ptr %4, align 8
  %11 = getelementptr inbounds %"class.std::thread", ptr %10, i32 0, i32 0, !dbg !2952
  call void @_ZNSt6thread2idC2Ev(ptr noundef nonnull align 8 dereferenceable(8) %11) #2, !dbg !2952
  %12 = call noalias noundef nonnull ptr @_Znwm(i64 noundef 24) #17, !dbg !2953, !heapallocsite !2955
  %13 = load ptr, ptr %5, align 8, !dbg !2965
  %14 = load ptr, ptr %6, align 8, !dbg !2966
  invoke void @_ZNSt6thread11_State_implINS_8_InvokerISt5tupleIJPFviEiEEEEEC2IJRS3_RiEEEDpOT_(ptr noundef nonnull align 8 dereferenceable(24) %12, ptr noundef nonnull %13, ptr noundef nonnull align 4 dereferenceable(4) %14)
          to label %15 unwind label %17, !dbg !2967

15:                                               ; preds = %3
  call void @_ZNSt10unique_ptrINSt6thread6_StateESt14default_deleteIS1_EEC2IS3_vEEPS1_(ptr noundef nonnull align 8 dereferenceable(8) %7, ptr noundef %12) #2, !dbg !2968
  invoke void @_ZNSt6thread15_M_start_threadESt10unique_ptrINS_6_StateESt14default_deleteIS1_EEPFvvE(ptr noundef nonnull align 8 dereferenceable(8) %10, ptr noundef %7, ptr noundef @_ZNSt6thread24_M_thread_deps_never_runEv)
          to label %16 unwind label %21, !dbg !2969

16:                                               ; preds = %15
  call void @_ZNSt10unique_ptrINSt6thread6_StateESt14default_deleteIS1_EED2Ev(ptr noundef nonnull align 8 dereferenceable(8) %7) #2, !dbg !2969
  ret void, !dbg !2970

17:                                               ; preds = %3
  %18 = landingpad { ptr, i32 }
          cleanup, !dbg !2971
  %19 = extractvalue { ptr, i32 } %18, 0, !dbg !2971
  store ptr %19, ptr %8, align 8, !dbg !2971
  %20 = extractvalue { ptr, i32 } %18, 1, !dbg !2971
  store i32 %20, ptr %9, align 4, !dbg !2971
  call void @_ZdlPv(ptr noundef %12) #16, !dbg !2953
  br label %25, !dbg !2953

21:                                               ; preds = %15
  %22 = landingpad { ptr, i32 }
          cleanup, !dbg !2971
  %23 = extractvalue { ptr, i32 } %22, 0, !dbg !2971
  store ptr %23, ptr %8, align 8, !dbg !2971
  %24 = extractvalue { ptr, i32 } %22, 1, !dbg !2971
  store i32 %24, ptr %9, align 4, !dbg !2971
  call void @_ZNSt10unique_ptrINSt6thread6_StateESt14default_deleteIS1_EED2Ev(ptr noundef nonnull align 8 dereferenceable(8) %7) #2, !dbg !2969
  br label %25, !dbg !2969

25:                                               ; preds = %21, %17
  %26 = load ptr, ptr %8, align 8, !dbg !2953
  %27 = load i32, ptr %9, align 4, !dbg !2953
  %28 = insertvalue { ptr, i32 } poison, ptr %26, 0, !dbg !2953
  %29 = insertvalue { ptr, i32 } %28, i32 %27, 1, !dbg !2953
  resume { ptr, i32 } %29, !dbg !2953
}

declare void @_ZNSt6thread15_M_start_threadESt10unique_ptrINS_6_StateESt14default_deleteIS1_EEPFvvE(ptr noundef nonnull align 8 dereferenceable(8), ptr noundef, ptr noundef) #5

; Function Attrs: noinline optnone uwtable
define linkonce_odr dso_local void @_ZNSt6thread11_State_implINS_8_InvokerISt5tupleIJPFviEiEEEEEC2IJRS3_RiEEEDpOT_(ptr noundef nonnull align 8 dereferenceable(24) %0, ptr noundef nonnull %1, ptr noundef nonnull align 4 dereferenceable(4) %2) unnamed_addr #12 comdat align 2 personality ptr @__gxx_personality_v0 !dbg !2972 {
  %4 = alloca ptr, align 8
  %5 = alloca ptr, align 8
  %6 = alloca ptr, align 8
  %7 = alloca ptr, align 8
  %8 = alloca i32, align 4
  store ptr %0, ptr %4, align 8
  call void @llvm.dbg.declare(metadata ptr %4, metadata !2976, metadata !DIExpression()), !dbg !2978
  store ptr %1, ptr %5, align 8
  call void @llvm.dbg.declare(metadata ptr %5, metadata !2979, metadata !DIExpression()), !dbg !2980
  store ptr %2, ptr %6, align 8
  call void @llvm.dbg.declare(metadata ptr %6, metadata !2981, metadata !DIExpression()), !dbg !2980
  %9 = load ptr, ptr %4, align 8
  call void @_ZNSt6thread6_StateC2Ev(ptr noundef nonnull align 8 dereferenceable(8) %9) #2, !dbg !2982
  store ptr getelementptr inbounds ({ [5 x ptr] }, ptr @_ZTVNSt6thread11_State_implINS_8_InvokerISt5tupleIJPFviEiEEEEEE, i32 0, inrange i32 0, i32 2), ptr %9, align 8, !dbg !2983
  %10 = getelementptr inbounds %"struct.std::thread::_State_impl", ptr %9, i32 0, i32 1, !dbg !2984
  %11 = load ptr, ptr %5, align 8, !dbg !2985
  %12 = load ptr, ptr %6, align 8, !dbg !2985
  invoke void @_ZNSt6thread8_InvokerISt5tupleIJPFviEiEEEC2IJRS2_RiEEEDpOT_(ptr noundef nonnull align 8 dereferenceable(16) %10, ptr noundef nonnull %11, ptr noundef nonnull align 4 dereferenceable(4) %12)
          to label %13 unwind label %14, !dbg !2984

13:                                               ; preds = %3
  ret void, !dbg !2986

14:                                               ; preds = %3
  %15 = landingpad { ptr, i32 }
          cleanup, !dbg !2986
  %16 = extractvalue { ptr, i32 } %15, 0, !dbg !2986
  store ptr %16, ptr %7, align 8, !dbg !2986
  %17 = extractvalue { ptr, i32 } %15, 1, !dbg !2986
  store i32 %17, ptr %8, align 4, !dbg !2986
  call void @_ZNSt6thread6_StateD2Ev(ptr noundef nonnull align 8 dereferenceable(8) %9) #2, !dbg !2987
  br label %18, !dbg !2987

18:                                               ; preds = %14
  %19 = load ptr, ptr %7, align 8, !dbg !2987
  %20 = load i32, ptr %8, align 4, !dbg !2987
  %21 = insertvalue { ptr, i32 } poison, ptr %19, 0, !dbg !2987
  %22 = insertvalue { ptr, i32 } %21, i32 %20, 1, !dbg !2987
  resume { ptr, i32 } %22, !dbg !2987
}

; Function Attrs: noinline nounwind optnone uwtable
define linkonce_odr dso_local void @_ZNSt10unique_ptrINSt6thread6_StateESt14default_deleteIS1_EEC2IS3_vEEPS1_(ptr noundef nonnull align 8 dereferenceable(8) %0, ptr noundef %1) unnamed_addr #1 comdat align 2 personality ptr @__gxx_personality_v0 !dbg !2989 {
  %3 = alloca ptr, align 8
  %4 = alloca ptr, align 8
  store ptr %0, ptr %3, align 8
  call void @llvm.dbg.declare(metadata ptr %3, metadata !2993, metadata !DIExpression()), !dbg !2995
  store ptr %1, ptr %4, align 8
  call void @llvm.dbg.declare(metadata ptr %4, metadata !2996, metadata !DIExpression()), !dbg !2997
  %5 = load ptr, ptr %3, align 8
  %6 = getelementptr inbounds %"class.std::unique_ptr", ptr %5, i32 0, i32 0, !dbg !2998
  %7 = load ptr, ptr %4, align 8, !dbg !2999
  invoke void @_ZNSt15__uniq_ptr_dataINSt6thread6_StateESt14default_deleteIS1_ELb1ELb1EECI2St15__uniq_ptr_implIS1_S3_EEPS1_(ptr noundef nonnull align 8 dereferenceable(8) %6, ptr noundef %7)
          to label %8 unwind label %9, !dbg !2998

8:                                                ; preds = %2
  ret void, !dbg !3000

9:                                                ; preds = %2
  %10 = landingpad { ptr, i32 }
          catch ptr null, !dbg !2998
  %11 = extractvalue { ptr, i32 } %10, 0, !dbg !2998
  call void @__clang_call_terminate(ptr %11) #15, !dbg !2998
  unreachable, !dbg !2998
}

; Function Attrs: mustprogress noinline optnone uwtable
define linkonce_odr dso_local void @_ZNSt6thread24_M_thread_deps_never_runEv() #3 comdat align 2 !dbg !3001 {
  call void @pthread_create(), !dbg !3002
  call void @pthread_join(), !dbg !3003
  ret void, !dbg !3004
}

; Function Attrs: noinline nounwind optnone uwtable
define linkonce_odr dso_local void @_ZNSt10unique_ptrINSt6thread6_StateESt14default_deleteIS1_EED2Ev(ptr noundef nonnull align 8 dereferenceable(8) %0) unnamed_addr #1 comdat align 2 personality ptr @__gxx_personality_v0 !dbg !3005 {
  %2 = alloca ptr, align 8
  %3 = alloca ptr, align 8
  store ptr %0, ptr %2, align 8
  call void @llvm.dbg.declare(metadata ptr %2, metadata !3006, metadata !DIExpression()), !dbg !3007
  %4 = load ptr, ptr %2, align 8
  call void @llvm.dbg.declare(metadata ptr %3, metadata !3008, metadata !DIExpression()), !dbg !3010
  %5 = getelementptr inbounds %"class.std::unique_ptr", ptr %4, i32 0, i32 0, !dbg !3011
  %6 = call noundef nonnull align 8 dereferenceable(8) ptr @_ZNSt15__uniq_ptr_implINSt6thread6_StateESt14default_deleteIS1_EE6_M_ptrEv(ptr noundef nonnull align 8 dereferenceable(8) %5) #2, !dbg !3012
  store ptr %6, ptr %3, align 8, !dbg !3010
  %7 = load ptr, ptr %3, align 8, !dbg !3013
  %8 = load ptr, ptr %7, align 8, !dbg !3013
  %9 = icmp ne ptr %8, null, !dbg !3015
  br i1 %9, label %10, label %15, !dbg !3016

10:                                               ; preds = %1
  %11 = call noundef nonnull align 1 dereferenceable(1) ptr @_ZNSt10unique_ptrINSt6thread6_StateESt14default_deleteIS1_EE11get_deleterEv(ptr noundef nonnull align 8 dereferenceable(8) %4) #2, !dbg !3017
  %12 = load ptr, ptr %3, align 8, !dbg !3018
  %13 = load ptr, ptr %12, align 8, !dbg !3019
  invoke void @_ZNKSt14default_deleteINSt6thread6_StateEEclEPS1_(ptr noundef nonnull align 1 dereferenceable(1) %11, ptr noundef %13)
          to label %14 unwind label %17, !dbg !3017

14:                                               ; preds = %10
  br label %15, !dbg !3017

15:                                               ; preds = %14, %1
  %16 = load ptr, ptr %3, align 8, !dbg !3020
  store ptr null, ptr %16, align 8, !dbg !3021
  ret void, !dbg !3022

17:                                               ; preds = %10
  %18 = landingpad { ptr, i32 }
          catch ptr null, !dbg !3017
  %19 = extractvalue { ptr, i32 } %18, 0, !dbg !3017
  call void @__clang_call_terminate(ptr %19) #15, !dbg !3017
  unreachable, !dbg !3017
}

; Function Attrs: noinline nounwind optnone uwtable
define linkonce_odr dso_local void @_ZNSt6thread6_StateC2Ev(ptr noundef nonnull align 8 dereferenceable(8) %0) unnamed_addr #1 comdat align 2 !dbg !3023 {
  %2 = alloca ptr, align 8
  store ptr %0, ptr %2, align 8
  call void @llvm.dbg.declare(metadata ptr %2, metadata !3028, metadata !DIExpression()), !dbg !3029
  %3 = load ptr, ptr %2, align 8
  store ptr getelementptr inbounds ({ [5 x ptr] }, ptr @_ZTVNSt6thread6_StateE, i32 0, inrange i32 0, i32 2), ptr %3, align 8, !dbg !3030
  ret void, !dbg !3030
}

; Function Attrs: noinline nounwind optnone uwtable
define linkonce_odr dso_local void @_ZNSt6thread8_InvokerISt5tupleIJPFviEiEEEC2IJRS2_RiEEEDpOT_(ptr noundef nonnull align 8 dereferenceable(16) %0, ptr noundef nonnull %1, ptr noundef nonnull align 4 dereferenceable(4) %2) unnamed_addr #1 comdat align 2 !dbg !3031 {
  %4 = alloca ptr, align 8
  %5 = alloca ptr, align 8
  %6 = alloca ptr, align 8
  store ptr %0, ptr %4, align 8
  call void @llvm.dbg.declare(metadata ptr %4, metadata !3035, metadata !DIExpression()), !dbg !3037
  store ptr %1, ptr %5, align 8
  call void @llvm.dbg.declare(metadata ptr %5, metadata !3038, metadata !DIExpression()), !dbg !3039
  store ptr %2, ptr %6, align 8
  call void @llvm.dbg.declare(metadata ptr %6, metadata !3040, metadata !DIExpression()), !dbg !3039
  %7 = load ptr, ptr %4, align 8
  %8 = getelementptr inbounds %"struct.std::thread::_Invoker", ptr %7, i32 0, i32 0, !dbg !3041
  %9 = load ptr, ptr %5, align 8, !dbg !3042
  %10 = load ptr, ptr %6, align 8, !dbg !3042
  call void @_ZNSt5tupleIJPFviEiEEC2IRS0_RiLb1EEEOT_OT0_(ptr noundef nonnull align 8 dereferenceable(16) %8, ptr noundef nonnull %9, ptr noundef nonnull align 4 dereferenceable(4) %10) #2, !dbg !3041
  ret void, !dbg !3043
}

; Function Attrs: nounwind
declare void @_ZNSt6thread6_StateD2Ev(ptr noundef nonnull align 8 dereferenceable(8)) unnamed_addr #13

; Function Attrs: noinline nounwind optnone uwtable
define linkonce_odr dso_local void @_ZNSt6thread11_State_implINS_8_InvokerISt5tupleIJPFviEiEEEEED2Ev(ptr noundef nonnull align 8 dereferenceable(24) %0) unnamed_addr #1 comdat align 2 !dbg !3044 {
  %2 = alloca ptr, align 8
  store ptr %0, ptr %2, align 8
  call void @llvm.dbg.declare(metadata ptr %2, metadata !3046, metadata !DIExpression()), !dbg !3047
  %3 = load ptr, ptr %2, align 8
  call void @_ZNSt6thread6_StateD2Ev(ptr noundef nonnull align 8 dereferenceable(8) %3) #2, !dbg !3048
  ret void, !dbg !3050
}

; Function Attrs: noinline nounwind optnone uwtable
define linkonce_odr dso_local void @_ZNSt6thread11_State_implINS_8_InvokerISt5tupleIJPFviEiEEEEED0Ev(ptr noundef nonnull align 8 dereferenceable(24) %0) unnamed_addr #1 comdat align 2 !dbg !3051 {
  %2 = alloca ptr, align 8
  store ptr %0, ptr %2, align 8
  call void @llvm.dbg.declare(metadata ptr %2, metadata !3052, metadata !DIExpression()), !dbg !3053
  %3 = load ptr, ptr %2, align 8
  call void @_ZNSt6thread11_State_implINS_8_InvokerISt5tupleIJPFviEiEEEEED2Ev(ptr noundef nonnull align 8 dereferenceable(24) %3) #2, !dbg !3054
  call void @_ZdlPv(ptr noundef %3) #16, !dbg !3054
  ret void, !dbg !3054
}

; Function Attrs: mustprogress noinline optnone uwtable
define linkonce_odr dso_local void @_ZNSt6thread11_State_implINS_8_InvokerISt5tupleIJPFviEiEEEEE6_M_runEv(ptr noundef nonnull align 8 dereferenceable(24) %0) unnamed_addr #3 comdat align 2 !dbg !3055 {
  %2 = alloca ptr, align 8
  store ptr %0, ptr %2, align 8
  call void @llvm.dbg.declare(metadata ptr %2, metadata !3056, metadata !DIExpression()), !dbg !3057
  %3 = load ptr, ptr %2, align 8
  %4 = getelementptr inbounds %"struct.std::thread::_State_impl", ptr %3, i32 0, i32 1, !dbg !3058
  call void @_ZNSt6thread8_InvokerISt5tupleIJPFviEiEEEclEv(ptr noundef nonnull align 8 dereferenceable(16) %4), !dbg !3058
  ret void, !dbg !3059
}

; Function Attrs: noinline nounwind optnone uwtable
define linkonce_odr dso_local void @_ZNSt5tupleIJPFviEiEEC2IRS0_RiLb1EEEOT_OT0_(ptr noundef nonnull align 8 dereferenceable(16) %0, ptr noundef nonnull %1, ptr noundef nonnull align 4 dereferenceable(4) %2) unnamed_addr #1 comdat align 2 personality ptr @__gxx_personality_v0 !dbg !3060 {
  %4 = alloca ptr, align 8
  %5 = alloca ptr, align 8
  %6 = alloca ptr, align 8
  store ptr %0, ptr %4, align 8
  call void @llvm.dbg.declare(metadata ptr %4, metadata !3068, metadata !DIExpression()), !dbg !3070
  store ptr %1, ptr %5, align 8
  call void @llvm.dbg.declare(metadata ptr %5, metadata !3071, metadata !DIExpression()), !dbg !3072
  store ptr %2, ptr %6, align 8
  call void @llvm.dbg.declare(metadata ptr %6, metadata !3073, metadata !DIExpression()), !dbg !3074
  %7 = load ptr, ptr %4, align 8
  %8 = load ptr, ptr %5, align 8, !dbg !3075
  %9 = load ptr, ptr %6, align 8, !dbg !3076
  invoke void @_ZNSt11_Tuple_implILm0EJPFviEiEEC2IRS0_JRiEvEEOT_DpOT0_(ptr noundef nonnull align 8 dereferenceable(16) %7, ptr noundef nonnull %8, ptr noundef nonnull align 4 dereferenceable(4) %9)
          to label %10 unwind label %11, !dbg !3077

10:                                               ; preds = %3
  ret void, !dbg !3078

11:                                               ; preds = %3
  %12 = landingpad { ptr, i32 }
          catch ptr null, !dbg !3077
  %13 = extractvalue { ptr, i32 } %12, 0, !dbg !3077
  call void @__clang_call_terminate(ptr %13) #15, !dbg !3077
  unreachable, !dbg !3077
}

; Function Attrs: noinline optnone uwtable
define linkonce_odr dso_local void @_ZNSt11_Tuple_implILm0EJPFviEiEEC2IRS0_JRiEvEEOT_DpOT0_(ptr noundef nonnull align 8 dereferenceable(16) %0, ptr noundef nonnull %1, ptr noundef nonnull align 4 dereferenceable(4) %2) unnamed_addr #12 comdat align 2 !dbg !3079 {
  %4 = alloca ptr, align 8
  %5 = alloca ptr, align 8
  %6 = alloca ptr, align 8
  %7 = alloca ptr, align 8
  store ptr %0, ptr %4, align 8
  call void @llvm.dbg.declare(metadata ptr %4, metadata !3086, metadata !DIExpression()), !dbg !3088
  store ptr %1, ptr %5, align 8
  call void @llvm.dbg.declare(metadata ptr %5, metadata !3089, metadata !DIExpression()), !dbg !3090
  store ptr %2, ptr %6, align 8
  call void @llvm.dbg.declare(metadata ptr %6, metadata !3091, metadata !DIExpression()), !dbg !3092
  %8 = load ptr, ptr %4, align 8
  %9 = load ptr, ptr %6, align 8, !dbg !3093
  call void @_ZNSt11_Tuple_implILm1EJiEEC2IRiEEOT_(ptr noundef nonnull align 4 dereferenceable(4) %8, ptr noundef nonnull align 4 dereferenceable(4) %9), !dbg !3094
  %10 = getelementptr inbounds i8, ptr %8, i64 8, !dbg !3095
  %11 = load ptr, ptr %5, align 8, !dbg !3096
  store ptr %11, ptr %7, align 8, !dbg !3097
  call void @_ZNSt10_Head_baseILm0EPFviELb0EEC2ERKS1_(ptr noundef nonnull align 8 dereferenceable(8) %10, ptr noundef nonnull align 8 dereferenceable(8) %7), !dbg !3098
  ret void, !dbg !3099
}

; Function Attrs: noinline optnone uwtable
define linkonce_odr dso_local void @_ZNSt11_Tuple_implILm1EJiEEC2IRiEEOT_(ptr noundef nonnull align 4 dereferenceable(4) %0, ptr noundef nonnull align 4 dereferenceable(4) %1) unnamed_addr #12 comdat align 2 !dbg !3100 {
  %3 = alloca ptr, align 8
  %4 = alloca ptr, align 8
  store ptr %0, ptr %3, align 8
  call void @llvm.dbg.declare(metadata ptr %3, metadata !3106, metadata !DIExpression()), !dbg !3108
  store ptr %1, ptr %4, align 8
  call void @llvm.dbg.declare(metadata ptr %4, metadata !3109, metadata !DIExpression()), !dbg !3110
  %5 = load ptr, ptr %3, align 8
  %6 = load ptr, ptr %4, align 8, !dbg !3111
  call void @_ZNSt10_Head_baseILm1EiLb0EEC2IRiEEOT_(ptr noundef nonnull align 4 dereferenceable(4) %5, ptr noundef nonnull align 4 dereferenceable(4) %6), !dbg !3112
  ret void, !dbg !3113
}

; Function Attrs: noinline nounwind optnone uwtable
define linkonce_odr dso_local void @_ZNSt10_Head_baseILm0EPFviELb0EEC2ERKS1_(ptr noundef nonnull align 8 dereferenceable(8) %0, ptr noundef nonnull align 8 dereferenceable(8) %1) unnamed_addr #1 comdat align 2 !dbg !3114 {
  %3 = alloca ptr, align 8
  %4 = alloca ptr, align 8
  store ptr %0, ptr %3, align 8
  call void @llvm.dbg.declare(metadata ptr %3, metadata !3115, metadata !DIExpression()), !dbg !3117
  store ptr %1, ptr %4, align 8
  call void @llvm.dbg.declare(metadata ptr %4, metadata !3118, metadata !DIExpression()), !dbg !3119
  %5 = load ptr, ptr %3, align 8
  %6 = getelementptr inbounds %"struct.std::_Head_base.6", ptr %5, i32 0, i32 0, !dbg !3120
  %7 = load ptr, ptr %4, align 8, !dbg !3121
  %8 = load ptr, ptr %7, align 8, !dbg !3121
  store ptr %8, ptr %6, align 8, !dbg !3120
  ret void, !dbg !3122
}

; Function Attrs: noinline nounwind optnone uwtable
define linkonce_odr dso_local void @_ZNSt10_Head_baseILm1EiLb0EEC2IRiEEOT_(ptr noundef nonnull align 4 dereferenceable(4) %0, ptr noundef nonnull align 4 dereferenceable(4) %1) unnamed_addr #1 comdat align 2 !dbg !3123 {
  %3 = alloca ptr, align 8
  %4 = alloca ptr, align 8
  store ptr %0, ptr %3, align 8
  call void @llvm.dbg.declare(metadata ptr %3, metadata !3127, metadata !DIExpression()), !dbg !3129
  store ptr %1, ptr %4, align 8
  call void @llvm.dbg.declare(metadata ptr %4, metadata !3130, metadata !DIExpression()), !dbg !3131
  %5 = load ptr, ptr %3, align 8
  %6 = getelementptr inbounds %"struct.std::_Head_base.5", ptr %5, i32 0, i32 0, !dbg !3132
  %7 = load ptr, ptr %4, align 8, !dbg !3133
  %8 = load i32, ptr %7, align 4, !dbg !3134
  store i32 %8, ptr %6, align 4, !dbg !3132
  ret void, !dbg !3135
}

; Function Attrs: mustprogress noinline optnone uwtable
define linkonce_odr dso_local void @_ZNSt6thread8_InvokerISt5tupleIJPFviEiEEEclEv(ptr noundef nonnull align 8 dereferenceable(16) %0) #3 comdat align 2 !dbg !3136 {
  %2 = alloca ptr, align 8
  %3 = alloca %"struct.std::_Index_tuple", align 1
  store ptr %0, ptr %2, align 8
  call void @llvm.dbg.declare(metadata ptr %2, metadata !3137, metadata !DIExpression()), !dbg !3138
  %4 = load ptr, ptr %2, align 8
  call void @_ZNSt6thread8_InvokerISt5tupleIJPFviEiEEE9_M_invokeIJLm0ELm1EEEEvSt12_Index_tupleIJXspT_EEE(ptr noundef nonnull align 8 dereferenceable(16) %4), !dbg !3139
  ret void, !dbg !3140
}

; Function Attrs: mustprogress noinline optnone uwtable
define linkonce_odr dso_local void @_ZNSt6thread8_InvokerISt5tupleIJPFviEiEEE9_M_invokeIJLm0ELm1EEEEvSt12_Index_tupleIJXspT_EEE(ptr noundef nonnull align 8 dereferenceable(16) %0) #3 comdat align 2 !dbg !3141 {
  %2 = alloca %"struct.std::_Index_tuple", align 1
  %3 = alloca ptr, align 8
  store ptr %0, ptr %3, align 8
  call void @llvm.dbg.declare(metadata ptr %3, metadata !3154, metadata !DIExpression()), !dbg !3155
  call void @llvm.dbg.declare(metadata ptr %2, metadata !3156, metadata !DIExpression()), !dbg !3157
  %4 = load ptr, ptr %3, align 8
  %5 = getelementptr inbounds %"struct.std::thread::_Invoker", ptr %4, i32 0, i32 0, !dbg !3158
  %6 = call noundef nonnull align 8 dereferenceable(8) ptr @_ZSt3getILm0EJPFviEiEEONSt13tuple_elementIXT_ESt5tupleIJDpT0_EEE4typeEOS6_(ptr noundef nonnull align 8 dereferenceable(16) %5) #2, !dbg !3159
  %7 = getelementptr inbounds %"struct.std::thread::_Invoker", ptr %4, i32 0, i32 0, !dbg !3158
  %8 = call noundef nonnull align 4 dereferenceable(4) ptr @_ZSt3getILm1EJPFviEiEEONSt13tuple_elementIXT_ESt5tupleIJDpT0_EEE4typeEOS6_(ptr noundef nonnull align 8 dereferenceable(16) %7) #2, !dbg !3159
  call void @_ZSt8__invokeIPFviEJiEENSt15__invoke_resultIT_JDpT0_EE4typeEOS3_DpOS4_(ptr noundef nonnull align 8 dereferenceable(8) %6, ptr noundef nonnull align 4 dereferenceable(4) %8), !dbg !3160
  ret void, !dbg !3161
}

; Function Attrs: mustprogress noinline optnone uwtable
define linkonce_odr dso_local void @_ZSt8__invokeIPFviEJiEENSt15__invoke_resultIT_JDpT0_EE4typeEOS3_DpOS4_(ptr noundef nonnull align 8 dereferenceable(8) %0, ptr noundef nonnull align 4 dereferenceable(4) %1) #3 comdat !dbg !435 {
  %3 = alloca ptr, align 8
  %4 = alloca ptr, align 8
  %5 = alloca %"struct.std::__invoke_other", align 1
  store ptr %0, ptr %3, align 8
  call void @llvm.dbg.declare(metadata ptr %3, metadata !3162, metadata !DIExpression()), !dbg !3163
  store ptr %1, ptr %4, align 8
  call void @llvm.dbg.declare(metadata ptr %4, metadata !3164, metadata !DIExpression()), !dbg !3165
  %6 = load ptr, ptr %3, align 8, !dbg !3166
  %7 = load ptr, ptr %4, align 8, !dbg !3167
  call void @_ZSt13__invoke_implIvPFviEJiEET_St14__invoke_otherOT0_DpOT1_(ptr noundef nonnull align 8 dereferenceable(8) %6, ptr noundef nonnull align 4 dereferenceable(4) %7), !dbg !3168
  ret void, !dbg !3169
}

; Function Attrs: mustprogress noinline nounwind optnone uwtable
define linkonce_odr dso_local noundef nonnull align 8 dereferenceable(8) ptr @_ZSt3getILm0EJPFviEiEEONSt13tuple_elementIXT_ESt5tupleIJDpT0_EEE4typeEOS6_(ptr noundef nonnull align 8 dereferenceable(16) %0) #9 comdat !dbg !3170 {
  %2 = alloca ptr, align 8
  store ptr %0, ptr %2, align 8
  call void @llvm.dbg.declare(metadata ptr %2, metadata !3186, metadata !DIExpression()), !dbg !3187
  %3 = load ptr, ptr %2, align 8, !dbg !3188
  %4 = call noundef nonnull align 8 dereferenceable(8) ptr @_ZSt12__get_helperILm0EPFviEJiEERT0_RSt11_Tuple_implIXT_EJS2_DpT1_EE(ptr noundef nonnull align 8 dereferenceable(16) %3) #2, !dbg !3189
  ret ptr %4, !dbg !3190
}

; Function Attrs: mustprogress noinline nounwind optnone uwtable
define linkonce_odr dso_local noundef nonnull align 4 dereferenceable(4) ptr @_ZSt3getILm1EJPFviEiEEONSt13tuple_elementIXT_ESt5tupleIJDpT0_EEE4typeEOS6_(ptr noundef nonnull align 8 dereferenceable(16) %0) #9 comdat !dbg !3191 {
  %2 = alloca ptr, align 8
  store ptr %0, ptr %2, align 8
  call void @llvm.dbg.declare(metadata ptr %2, metadata !3205, metadata !DIExpression()), !dbg !3206
  %3 = load ptr, ptr %2, align 8, !dbg !3207
  %4 = call noundef nonnull align 4 dereferenceable(4) ptr @_ZSt12__get_helperILm1EiJEERT0_RSt11_Tuple_implIXT_EJS0_DpT1_EE(ptr noundef nonnull align 4 dereferenceable(4) %3) #2, !dbg !3208
  ret ptr %4, !dbg !3209
}

; Function Attrs: mustprogress noinline optnone uwtable
define linkonce_odr dso_local void @_ZSt13__invoke_implIvPFviEJiEET_St14__invoke_otherOT0_DpOT1_(ptr noundef nonnull align 8 dereferenceable(8) %0, ptr noundef nonnull align 4 dereferenceable(4) %1) #3 comdat !dbg !3210 {
  %3 = alloca %"struct.std::__invoke_other", align 1
  %4 = alloca ptr, align 8
  %5 = alloca ptr, align 8
  call void @llvm.dbg.declare(metadata ptr %3, metadata !3216, metadata !DIExpression()), !dbg !3217
  store ptr %0, ptr %4, align 8
  call void @llvm.dbg.declare(metadata ptr %4, metadata !3218, metadata !DIExpression()), !dbg !3219
  store ptr %1, ptr %5, align 8
  call void @llvm.dbg.declare(metadata ptr %5, metadata !3220, metadata !DIExpression()), !dbg !3221
  %6 = load ptr, ptr %4, align 8, !dbg !3222
  %7 = load ptr, ptr %6, align 8, !dbg !3223
  %8 = load ptr, ptr %5, align 8, !dbg !3224
  %9 = load i32, ptr %8, align 4, !dbg !3225
  call void %7(i32 noundef %9), !dbg !3223
  ret void, !dbg !3226
}

; Function Attrs: mustprogress noinline nounwind optnone uwtable
define linkonce_odr dso_local noundef nonnull align 8 dereferenceable(8) ptr @_ZSt12__get_helperILm0EPFviEJiEERT0_RSt11_Tuple_implIXT_EJS2_DpT1_EE(ptr noundef nonnull align 8 dereferenceable(16) %0) #9 comdat !dbg !3227 {
  %2 = alloca ptr, align 8
  store ptr %0, ptr %2, align 8
  call void @llvm.dbg.declare(metadata ptr %2, metadata !3230, metadata !DIExpression()), !dbg !3231
  %3 = load ptr, ptr %2, align 8, !dbg !3232
  %4 = call noundef nonnull align 8 dereferenceable(8) ptr @_ZNSt11_Tuple_implILm0EJPFviEiEE7_M_headERS2_(ptr noundef nonnull align 8 dereferenceable(16) %3) #2, !dbg !3233
  ret ptr %4, !dbg !3234
}

; Function Attrs: mustprogress noinline nounwind optnone uwtable
define linkonce_odr dso_local noundef nonnull align 8 dereferenceable(8) ptr @_ZNSt11_Tuple_implILm0EJPFviEiEE7_M_headERS2_(ptr noundef nonnull align 8 dereferenceable(16) %0) #9 comdat align 2 !dbg !3235 {
  %2 = alloca ptr, align 8
  store ptr %0, ptr %2, align 8
  call void @llvm.dbg.declare(metadata ptr %2, metadata !3236, metadata !DIExpression()), !dbg !3237
  %3 = load ptr, ptr %2, align 8, !dbg !3238
  %4 = getelementptr inbounds i8, ptr %3, i64 8, !dbg !3238
  %5 = call noundef nonnull align 8 dereferenceable(8) ptr @_ZNSt10_Head_baseILm0EPFviELb0EE7_M_headERS2_(ptr noundef nonnull align 8 dereferenceable(8) %4) #2, !dbg !3239
  ret ptr %5, !dbg !3240
}

; Function Attrs: mustprogress noinline nounwind optnone uwtable
define linkonce_odr dso_local noundef nonnull align 8 dereferenceable(8) ptr @_ZNSt10_Head_baseILm0EPFviELb0EE7_M_headERS2_(ptr noundef nonnull align 8 dereferenceable(8) %0) #9 comdat align 2 !dbg !3241 {
  %2 = alloca ptr, align 8
  store ptr %0, ptr %2, align 8
  call void @llvm.dbg.declare(metadata ptr %2, metadata !3242, metadata !DIExpression()), !dbg !3243
  %3 = load ptr, ptr %2, align 8, !dbg !3244
  %4 = getelementptr inbounds %"struct.std::_Head_base.6", ptr %3, i32 0, i32 0, !dbg !3245
  ret ptr %4, !dbg !3246
}

; Function Attrs: mustprogress noinline nounwind optnone uwtable
define linkonce_odr dso_local noundef nonnull align 4 dereferenceable(4) ptr @_ZSt12__get_helperILm1EiJEERT0_RSt11_Tuple_implIXT_EJS0_DpT1_EE(ptr noundef nonnull align 4 dereferenceable(4) %0) #9 comdat !dbg !3247 {
  %2 = alloca ptr, align 8
  store ptr %0, ptr %2, align 8
  call void @llvm.dbg.declare(metadata ptr %2, metadata !3250, metadata !DIExpression()), !dbg !3251
  %3 = load ptr, ptr %2, align 8, !dbg !3252
  %4 = call noundef nonnull align 4 dereferenceable(4) ptr @_ZNSt11_Tuple_implILm1EJiEE7_M_headERS0_(ptr noundef nonnull align 4 dereferenceable(4) %3) #2, !dbg !3253
  ret ptr %4, !dbg !3254
}

; Function Attrs: mustprogress noinline nounwind optnone uwtable
define linkonce_odr dso_local noundef nonnull align 4 dereferenceable(4) ptr @_ZNSt11_Tuple_implILm1EJiEE7_M_headERS0_(ptr noundef nonnull align 4 dereferenceable(4) %0) #9 comdat align 2 !dbg !3255 {
  %2 = alloca ptr, align 8
  store ptr %0, ptr %2, align 8
  call void @llvm.dbg.declare(metadata ptr %2, metadata !3256, metadata !DIExpression()), !dbg !3257
  %3 = load ptr, ptr %2, align 8, !dbg !3258
  %4 = call noundef nonnull align 4 dereferenceable(4) ptr @_ZNSt10_Head_baseILm1EiLb0EE7_M_headERS0_(ptr noundef nonnull align 4 dereferenceable(4) %3) #2, !dbg !3259
  ret ptr %4, !dbg !3260
}

; Function Attrs: mustprogress noinline nounwind optnone uwtable
define linkonce_odr dso_local noundef nonnull align 4 dereferenceable(4) ptr @_ZNSt10_Head_baseILm1EiLb0EE7_M_headERS0_(ptr noundef nonnull align 4 dereferenceable(4) %0) #9 comdat align 2 !dbg !3261 {
  %2 = alloca ptr, align 8
  store ptr %0, ptr %2, align 8
  call void @llvm.dbg.declare(metadata ptr %2, metadata !3262, metadata !DIExpression()), !dbg !3263
  %3 = load ptr, ptr %2, align 8, !dbg !3264
  %4 = getelementptr inbounds %"struct.std::_Head_base.5", ptr %3, i32 0, i32 0, !dbg !3265
  ret ptr %4, !dbg !3266
}

; Function Attrs: noinline optnone uwtable
define linkonce_odr dso_local void @_ZNSt15__uniq_ptr_dataINSt6thread6_StateESt14default_deleteIS1_ELb1ELb1EECI2St15__uniq_ptr_implIS1_S3_EEPS1_(ptr noundef nonnull align 8 dereferenceable(8) %0, ptr noundef %1) unnamed_addr #12 comdat align 2 !dbg !3267 {
  %3 = alloca ptr, align 8
  %4 = alloca ptr, align 8
  store ptr %0, ptr %3, align 8
  call void @llvm.dbg.declare(metadata ptr %3, metadata !3271, metadata !DIExpression()), !dbg !3273
  store ptr %1, ptr %4, align 8
  call void @llvm.dbg.declare(metadata ptr %4, metadata !3274, metadata !DIExpression()), !dbg !3273
  %5 = load ptr, ptr %3, align 8
  %6 = load ptr, ptr %4, align 8, !dbg !3275
  call void @_ZNSt15__uniq_ptr_implINSt6thread6_StateESt14default_deleteIS1_EEC2EPS1_(ptr noundef nonnull align 8 dereferenceable(8) %5, ptr noundef %6), !dbg !3275
  ret void, !dbg !3275
}

; Function Attrs: noinline nounwind optnone uwtable
define linkonce_odr dso_local void @_ZNSt15__uniq_ptr_implINSt6thread6_StateESt14default_deleteIS1_EEC2EPS1_(ptr noundef nonnull align 8 dereferenceable(8) %0, ptr noundef %1) unnamed_addr #1 comdat align 2 !dbg !3276 {
  %3 = alloca ptr, align 8
  %4 = alloca ptr, align 8
  store ptr %0, ptr %3, align 8
  call void @llvm.dbg.declare(metadata ptr %3, metadata !3277, metadata !DIExpression()), !dbg !3279
  store ptr %1, ptr %4, align 8
  call void @llvm.dbg.declare(metadata ptr %4, metadata !3280, metadata !DIExpression()), !dbg !3281
  %5 = load ptr, ptr %3, align 8
  %6 = getelementptr inbounds %"class.std::__uniq_ptr_impl", ptr %5, i32 0, i32 0, !dbg !3282
  call void @_ZNSt5tupleIJPNSt6thread6_StateESt14default_deleteIS1_EEEC2ILb1ELb1EEEv(ptr noundef nonnull align 8 dereferenceable(8) %6) #2, !dbg !3282
  %7 = load ptr, ptr %4, align 8, !dbg !3283
  %8 = call noundef nonnull align 8 dereferenceable(8) ptr @_ZNSt15__uniq_ptr_implINSt6thread6_StateESt14default_deleteIS1_EE6_M_ptrEv(ptr noundef nonnull align 8 dereferenceable(8) %5) #2, !dbg !3285
  store ptr %7, ptr %8, align 8, !dbg !3286
  ret void, !dbg !3287
}

; Function Attrs: noinline nounwind optnone uwtable
define linkonce_odr dso_local void @_ZNSt5tupleIJPNSt6thread6_StateESt14default_deleteIS1_EEEC2ILb1ELb1EEEv(ptr noundef nonnull align 8 dereferenceable(8) %0) unnamed_addr #1 comdat align 2 personality ptr @__gxx_personality_v0 !dbg !3288 {
  %2 = alloca ptr, align 8
  store ptr %0, ptr %2, align 8
  call void @llvm.dbg.declare(metadata ptr %2, metadata !3294, metadata !DIExpression()), !dbg !3296
  %3 = load ptr, ptr %2, align 8
  invoke void @_ZNSt11_Tuple_implILm0EJPNSt6thread6_StateESt14default_deleteIS1_EEEC2Ev(ptr noundef nonnull align 8 dereferenceable(8) %3)
          to label %4 unwind label %5, !dbg !3297

4:                                                ; preds = %1
  ret void, !dbg !3298

5:                                                ; preds = %1
  %6 = landingpad { ptr, i32 }
          catch ptr null, !dbg !3297
  %7 = extractvalue { ptr, i32 } %6, 0, !dbg !3297
  call void @__clang_call_terminate(ptr %7) #15, !dbg !3297
  unreachable, !dbg !3297
}

; Function Attrs: mustprogress noinline nounwind optnone uwtable
define linkonce_odr dso_local noundef nonnull align 8 dereferenceable(8) ptr @_ZNSt15__uniq_ptr_implINSt6thread6_StateESt14default_deleteIS1_EE6_M_ptrEv(ptr noundef nonnull align 8 dereferenceable(8) %0) #9 comdat align 2 !dbg !3299 {
  %2 = alloca ptr, align 8
  store ptr %0, ptr %2, align 8
  call void @llvm.dbg.declare(metadata ptr %2, metadata !3300, metadata !DIExpression()), !dbg !3301
  %3 = load ptr, ptr %2, align 8
  %4 = getelementptr inbounds %"class.std::__uniq_ptr_impl", ptr %3, i32 0, i32 0, !dbg !3302
  %5 = call noundef nonnull align 8 dereferenceable(8) ptr @_ZSt3getILm0EJPNSt6thread6_StateESt14default_deleteIS1_EEERNSt13tuple_elementIXT_ESt5tupleIJDpT0_EEE4typeERS9_(ptr noundef nonnull align 8 dereferenceable(8) %4) #2, !dbg !3303
  ret ptr %5, !dbg !3304
}

; Function Attrs: noinline optnone uwtable
define linkonce_odr dso_local void @_ZNSt11_Tuple_implILm0EJPNSt6thread6_StateESt14default_deleteIS1_EEEC2Ev(ptr noundef nonnull align 8 dereferenceable(8) %0) unnamed_addr #12 comdat align 2 !dbg !3305 {
  %2 = alloca ptr, align 8
  store ptr %0, ptr %2, align 8
  call void @llvm.dbg.declare(metadata ptr %2, metadata !3306, metadata !DIExpression()), !dbg !3308
  %3 = load ptr, ptr %2, align 8
  call void @_ZNSt11_Tuple_implILm1EJSt14default_deleteINSt6thread6_StateEEEEC2Ev(ptr noundef nonnull align 1 dereferenceable(1) %3), !dbg !3309
  call void @_ZNSt10_Head_baseILm0EPNSt6thread6_StateELb0EEC2Ev(ptr noundef nonnull align 8 dereferenceable(8) %3), !dbg !3310
  ret void, !dbg !3311
}

; Function Attrs: noinline optnone uwtable
define linkonce_odr dso_local void @_ZNSt11_Tuple_implILm1EJSt14default_deleteINSt6thread6_StateEEEEC2Ev(ptr noundef nonnull align 1 dereferenceable(1) %0) unnamed_addr #12 comdat align 2 !dbg !3312 {
  %2 = alloca ptr, align 8
  store ptr %0, ptr %2, align 8
  call void @llvm.dbg.declare(metadata ptr %2, metadata !3313, metadata !DIExpression()), !dbg !3315
  %3 = load ptr, ptr %2, align 8
  call void @_ZNSt10_Head_baseILm1ESt14default_deleteINSt6thread6_StateEELb1EEC2Ev(ptr noundef nonnull align 1 dereferenceable(1) %3), !dbg !3316
  ret void, !dbg !3317
}

; Function Attrs: noinline nounwind optnone uwtable
define linkonce_odr dso_local void @_ZNSt10_Head_baseILm0EPNSt6thread6_StateELb0EEC2Ev(ptr noundef nonnull align 8 dereferenceable(8) %0) unnamed_addr #1 comdat align 2 !dbg !3318 {
  %2 = alloca ptr, align 8
  store ptr %0, ptr %2, align 8
  call void @llvm.dbg.declare(metadata ptr %2, metadata !3319, metadata !DIExpression()), !dbg !3321
  %3 = load ptr, ptr %2, align 8
  %4 = getelementptr inbounds %"struct.std::_Head_base.1", ptr %3, i32 0, i32 0, !dbg !3322
  store ptr null, ptr %4, align 8, !dbg !3322
  ret void, !dbg !3323
}

; Function Attrs: noinline nounwind optnone uwtable
define linkonce_odr dso_local void @_ZNSt10_Head_baseILm1ESt14default_deleteINSt6thread6_StateEELb1EEC2Ev(ptr noundef nonnull align 1 dereferenceable(1) %0) unnamed_addr #1 comdat align 2 !dbg !3324 {
  %2 = alloca ptr, align 8
  store ptr %0, ptr %2, align 8
  call void @llvm.dbg.declare(metadata ptr %2, metadata !3325, metadata !DIExpression()), !dbg !3327
  %3 = load ptr, ptr %2, align 8
  ret void, !dbg !3328
}

; Function Attrs: mustprogress noinline nounwind optnone uwtable
define linkonce_odr dso_local noundef nonnull align 8 dereferenceable(8) ptr @_ZSt3getILm0EJPNSt6thread6_StateESt14default_deleteIS1_EEERNSt13tuple_elementIXT_ESt5tupleIJDpT0_EEE4typeERS9_(ptr noundef nonnull align 8 dereferenceable(8) %0) #9 comdat !dbg !3329 {
  %2 = alloca ptr, align 8
  store ptr %0, ptr %2, align 8
  call void @llvm.dbg.declare(metadata ptr %2, metadata !3343, metadata !DIExpression()), !dbg !3344
  %3 = load ptr, ptr %2, align 8, !dbg !3345
  %4 = call noundef nonnull align 8 dereferenceable(8) ptr @_ZSt12__get_helperILm0EPNSt6thread6_StateEJSt14default_deleteIS1_EEERT0_RSt11_Tuple_implIXT_EJS5_DpT1_EE(ptr noundef nonnull align 8 dereferenceable(8) %3) #2, !dbg !3346
  ret ptr %4, !dbg !3347
}

; Function Attrs: mustprogress noinline nounwind optnone uwtable
define linkonce_odr dso_local noundef nonnull align 8 dereferenceable(8) ptr @_ZSt12__get_helperILm0EPNSt6thread6_StateEJSt14default_deleteIS1_EEERT0_RSt11_Tuple_implIXT_EJS5_DpT1_EE(ptr noundef nonnull align 8 dereferenceable(8) %0) #9 comdat !dbg !3348 {
  %2 = alloca ptr, align 8
  store ptr %0, ptr %2, align 8
  call void @llvm.dbg.declare(metadata ptr %2, metadata !3351, metadata !DIExpression()), !dbg !3352
  %3 = load ptr, ptr %2, align 8, !dbg !3353
  %4 = call noundef nonnull align 8 dereferenceable(8) ptr @_ZNSt11_Tuple_implILm0EJPNSt6thread6_StateESt14default_deleteIS1_EEE7_M_headERS5_(ptr noundef nonnull align 8 dereferenceable(8) %3) #2, !dbg !3354
  ret ptr %4, !dbg !3355
}

; Function Attrs: mustprogress noinline nounwind optnone uwtable
define linkonce_odr dso_local noundef nonnull align 8 dereferenceable(8) ptr @_ZNSt11_Tuple_implILm0EJPNSt6thread6_StateESt14default_deleteIS1_EEE7_M_headERS5_(ptr noundef nonnull align 8 dereferenceable(8) %0) #9 comdat align 2 !dbg !3356 {
  %2 = alloca ptr, align 8
  store ptr %0, ptr %2, align 8
  call void @llvm.dbg.declare(metadata ptr %2, metadata !3357, metadata !DIExpression()), !dbg !3358
  %3 = load ptr, ptr %2, align 8, !dbg !3359
  %4 = call noundef nonnull align 8 dereferenceable(8) ptr @_ZNSt10_Head_baseILm0EPNSt6thread6_StateELb0EE7_M_headERS3_(ptr noundef nonnull align 8 dereferenceable(8) %3) #2, !dbg !3360
  ret ptr %4, !dbg !3361
}

; Function Attrs: mustprogress noinline nounwind optnone uwtable
define linkonce_odr dso_local noundef nonnull align 8 dereferenceable(8) ptr @_ZNSt10_Head_baseILm0EPNSt6thread6_StateELb0EE7_M_headERS3_(ptr noundef nonnull align 8 dereferenceable(8) %0) #9 comdat align 2 !dbg !3362 {
  %2 = alloca ptr, align 8
  store ptr %0, ptr %2, align 8
  call void @llvm.dbg.declare(metadata ptr %2, metadata !3363, metadata !DIExpression()), !dbg !3364
  %3 = load ptr, ptr %2, align 8, !dbg !3365
  %4 = getelementptr inbounds %"struct.std::_Head_base.1", ptr %3, i32 0, i32 0, !dbg !3366
  ret ptr %4, !dbg !3367
}

; Function Attrs: nounwind
declare i32 @pthread_create(ptr noundef, ptr noundef, ptr noundef, ptr noundef) #13

declare i32 @pthread_join(i64 noundef, ptr noundef) #5

; Function Attrs: mustprogress noinline nounwind optnone uwtable
define linkonce_odr dso_local noundef nonnull align 1 dereferenceable(1) ptr @_ZNSt10unique_ptrINSt6thread6_StateESt14default_deleteIS1_EE11get_deleterEv(ptr noundef nonnull align 8 dereferenceable(8) %0) #9 comdat align 2 !dbg !3368 {
  %2 = alloca ptr, align 8
  store ptr %0, ptr %2, align 8
  call void @llvm.dbg.declare(metadata ptr %2, metadata !3369, metadata !DIExpression()), !dbg !3370
  %3 = load ptr, ptr %2, align 8
  %4 = getelementptr inbounds %"class.std::unique_ptr", ptr %3, i32 0, i32 0, !dbg !3371
  %5 = call noundef nonnull align 1 dereferenceable(1) ptr @_ZNSt15__uniq_ptr_implINSt6thread6_StateESt14default_deleteIS1_EE10_M_deleterEv(ptr noundef nonnull align 8 dereferenceable(8) %4) #2, !dbg !3372
  ret ptr %5, !dbg !3373
}

; Function Attrs: mustprogress noinline nounwind optnone uwtable
define linkonce_odr dso_local void @_ZNKSt14default_deleteINSt6thread6_StateEEclEPS1_(ptr noundef nonnull align 1 dereferenceable(1) %0, ptr noundef %1) #9 comdat align 2 !dbg !3374 {
  %3 = alloca ptr, align 8
  %4 = alloca ptr, align 8
  store ptr %0, ptr %3, align 8
  call void @llvm.dbg.declare(metadata ptr %3, metadata !3375, metadata !DIExpression()), !dbg !3377
  store ptr %1, ptr %4, align 8
  call void @llvm.dbg.declare(metadata ptr %4, metadata !3378, metadata !DIExpression()), !dbg !3379
  %5 = load ptr, ptr %3, align 8
  %6 = load ptr, ptr %4, align 8, !dbg !3380
  %7 = icmp eq ptr %6, null, !dbg !3381
  br i1 %7, label %12, label %8, !dbg !3381

8:                                                ; preds = %2
  %9 = load ptr, ptr %6, align 8, !dbg !3381
  %10 = getelementptr inbounds ptr, ptr %9, i64 1, !dbg !3381
  %11 = load ptr, ptr %10, align 8, !dbg !3381
  call void %11(ptr noundef nonnull align 8 dereferenceable(8) %6) #2, !dbg !3381
  br label %12, !dbg !3381

12:                                               ; preds = %8, %2
  ret void, !dbg !3382
}

; Function Attrs: mustprogress noinline nounwind optnone uwtable
define linkonce_odr dso_local noundef nonnull align 1 dereferenceable(1) ptr @_ZNSt15__uniq_ptr_implINSt6thread6_StateESt14default_deleteIS1_EE10_M_deleterEv(ptr noundef nonnull align 8 dereferenceable(8) %0) #9 comdat align 2 !dbg !3383 {
  %2 = alloca ptr, align 8
  store ptr %0, ptr %2, align 8
  call void @llvm.dbg.declare(metadata ptr %2, metadata !3384, metadata !DIExpression()), !dbg !3385
  %3 = load ptr, ptr %2, align 8
  %4 = getelementptr inbounds %"class.std::__uniq_ptr_impl", ptr %3, i32 0, i32 0, !dbg !3386
  %5 = call noundef nonnull align 1 dereferenceable(1) ptr @_ZSt3getILm1EJPNSt6thread6_StateESt14default_deleteIS1_EEERNSt13tuple_elementIXT_ESt5tupleIJDpT0_EEE4typeERS9_(ptr noundef nonnull align 8 dereferenceable(8) %4) #2, !dbg !3387
  ret ptr %5, !dbg !3388
}

; Function Attrs: mustprogress noinline nounwind optnone uwtable
define linkonce_odr dso_local noundef nonnull align 1 dereferenceable(1) ptr @_ZSt3getILm1EJPNSt6thread6_StateESt14default_deleteIS1_EEERNSt13tuple_elementIXT_ESt5tupleIJDpT0_EEE4typeERS9_(ptr noundef nonnull align 8 dereferenceable(8) %0) #9 comdat !dbg !3389 {
  %2 = alloca ptr, align 8
  store ptr %0, ptr %2, align 8
  call void @llvm.dbg.declare(metadata ptr %2, metadata !3401, metadata !DIExpression()), !dbg !3402
  %3 = load ptr, ptr %2, align 8, !dbg !3403
  %4 = call noundef nonnull align 1 dereferenceable(1) ptr @_ZSt12__get_helperILm1ESt14default_deleteINSt6thread6_StateEEJEERT0_RSt11_Tuple_implIXT_EJS4_DpT1_EE(ptr noundef nonnull align 1 dereferenceable(1) %3) #2, !dbg !3404
  ret ptr %4, !dbg !3405
}

; Function Attrs: mustprogress noinline nounwind optnone uwtable
define linkonce_odr dso_local noundef nonnull align 1 dereferenceable(1) ptr @_ZSt12__get_helperILm1ESt14default_deleteINSt6thread6_StateEEJEERT0_RSt11_Tuple_implIXT_EJS4_DpT1_EE(ptr noundef nonnull align 1 dereferenceable(1) %0) #9 comdat !dbg !3406 {
  %2 = alloca ptr, align 8
  store ptr %0, ptr %2, align 8
  call void @llvm.dbg.declare(metadata ptr %2, metadata !3408, metadata !DIExpression()), !dbg !3409
  %3 = load ptr, ptr %2, align 8, !dbg !3410
  %4 = call noundef nonnull align 1 dereferenceable(1) ptr @_ZNSt11_Tuple_implILm1EJSt14default_deleteINSt6thread6_StateEEEE7_M_headERS4_(ptr noundef nonnull align 1 dereferenceable(1) %3) #2, !dbg !3411
  ret ptr %4, !dbg !3412
}

; Function Attrs: mustprogress noinline nounwind optnone uwtable
define linkonce_odr dso_local noundef nonnull align 1 dereferenceable(1) ptr @_ZNSt11_Tuple_implILm1EJSt14default_deleteINSt6thread6_StateEEEE7_M_headERS4_(ptr noundef nonnull align 1 dereferenceable(1) %0) #9 comdat align 2 !dbg !3413 {
  %2 = alloca ptr, align 8
  store ptr %0, ptr %2, align 8
  call void @llvm.dbg.declare(metadata ptr %2, metadata !3414, metadata !DIExpression()), !dbg !3415
  %3 = load ptr, ptr %2, align 8, !dbg !3416
  %4 = call noundef nonnull align 1 dereferenceable(1) ptr @_ZNSt10_Head_baseILm1ESt14default_deleteINSt6thread6_StateEELb1EE7_M_headERS4_(ptr noundef nonnull align 1 dereferenceable(1) %3) #2, !dbg !3417
  ret ptr %4, !dbg !3418
}

; Function Attrs: mustprogress noinline nounwind optnone uwtable
define linkonce_odr dso_local noundef nonnull align 1 dereferenceable(1) ptr @_ZNSt10_Head_baseILm1ESt14default_deleteINSt6thread6_StateEELb1EE7_M_headERS4_(ptr noundef nonnull align 1 dereferenceable(1) %0) #9 comdat align 2 !dbg !3419 {
  %2 = alloca ptr, align 8
  store ptr %0, ptr %2, align 8
  call void @llvm.dbg.declare(metadata ptr %2, metadata !3420, metadata !DIExpression()), !dbg !3421
  %3 = load ptr, ptr %2, align 8, !dbg !3422
  ret ptr %3, !dbg !3423
}

; Function Attrs: mustprogress noinline optnone uwtable
define linkonce_odr dso_local noundef i64 @_ZNKSt6vectorISt6threadSaIS0_EE12_M_check_lenEmPKc(ptr noundef nonnull align 8 dereferenceable(24) %0, i64 noundef %1, ptr noundef %2) #3 comdat align 2 !dbg !3424 {
  %4 = alloca ptr, align 8
  %5 = alloca i64, align 8
  %6 = alloca ptr, align 8
  %7 = alloca i64, align 8
  %8 = alloca i64, align 8
  store ptr %0, ptr %4, align 8
  call void @llvm.dbg.declare(metadata ptr %4, metadata !3425, metadata !DIExpression()), !dbg !3427
  store i64 %1, ptr %5, align 8
  call void @llvm.dbg.declare(metadata ptr %5, metadata !3428, metadata !DIExpression()), !dbg !3429
  store ptr %2, ptr %6, align 8
  call void @llvm.dbg.declare(metadata ptr %6, metadata !3430, metadata !DIExpression()), !dbg !3431
  %9 = load ptr, ptr %4, align 8
  %10 = call noundef i64 @_ZNKSt6vectorISt6threadSaIS0_EE8max_sizeEv(ptr noundef nonnull align 8 dereferenceable(24) %9) #2, !dbg !3432
  %11 = call noundef i64 @_ZNKSt6vectorISt6threadSaIS0_EE4sizeEv(ptr noundef nonnull align 8 dereferenceable(24) %9) #2, !dbg !3434
  %12 = sub i64 %10, %11, !dbg !3435
  %13 = load i64, ptr %5, align 8, !dbg !3436
  %14 = icmp ult i64 %12, %13, !dbg !3437
  br i1 %14, label %15, label %17, !dbg !3438

15:                                               ; preds = %3
  %16 = load ptr, ptr %6, align 8, !dbg !3439
  call void @_ZSt20__throw_length_errorPKc(ptr noundef %16) #18, !dbg !3440
  unreachable, !dbg !3440

17:                                               ; preds = %3
  call void @llvm.dbg.declare(metadata ptr %7, metadata !3441, metadata !DIExpression()), !dbg !3442
  %18 = call noundef i64 @_ZNKSt6vectorISt6threadSaIS0_EE4sizeEv(ptr noundef nonnull align 8 dereferenceable(24) %9) #2, !dbg !3443
  %19 = call noundef i64 @_ZNKSt6vectorISt6threadSaIS0_EE4sizeEv(ptr noundef nonnull align 8 dereferenceable(24) %9) #2, !dbg !3444
  store i64 %19, ptr %8, align 8, !dbg !3444
  %20 = call noundef nonnull align 8 dereferenceable(8) ptr @_ZSt3maxImERKT_S2_S2_(ptr noundef nonnull align 8 dereferenceable(8) %8, ptr noundef nonnull align 8 dereferenceable(8) %5), !dbg !3445
  %21 = load i64, ptr %20, align 8, !dbg !3445
  %22 = add i64 %18, %21, !dbg !3446
  store i64 %22, ptr %7, align 8, !dbg !3442
  %23 = load i64, ptr %7, align 8, !dbg !3447
  %24 = call noundef i64 @_ZNKSt6vectorISt6threadSaIS0_EE4sizeEv(ptr noundef nonnull align 8 dereferenceable(24) %9) #2, !dbg !3448
  %25 = icmp ult i64 %23, %24, !dbg !3449
  br i1 %25, label %30, label %26, !dbg !3450

26:                                               ; preds = %17
  %27 = load i64, ptr %7, align 8, !dbg !3451
  %28 = call noundef i64 @_ZNKSt6vectorISt6threadSaIS0_EE8max_sizeEv(ptr noundef nonnull align 8 dereferenceable(24) %9) #2, !dbg !3452
  %29 = icmp ugt i64 %27, %28, !dbg !3453
  br i1 %29, label %30, label %32, !dbg !3454

30:                                               ; preds = %26, %17
  %31 = call noundef i64 @_ZNKSt6vectorISt6threadSaIS0_EE8max_sizeEv(ptr noundef nonnull align 8 dereferenceable(24) %9) #2, !dbg !3455
  br label %34, !dbg !3454

32:                                               ; preds = %26
  %33 = load i64, ptr %7, align 8, !dbg !3456
  br label %34, !dbg !3454

34:                                               ; preds = %32, %30
  %35 = phi i64 [ %31, %30 ], [ %33, %32 ], !dbg !3454
  ret i64 %35, !dbg !3457
}

; Function Attrs: mustprogress noinline nounwind optnone uwtable
define linkonce_odr dso_local noundef i64 @_ZN9__gnu_cxxmiIPSt6threadSt6vectorIS1_SaIS1_EEEENS_17__normal_iteratorIT_T0_E15difference_typeERKS9_SC_(ptr noundef nonnull align 8 dereferenceable(8) %0, ptr noundef nonnull align 8 dereferenceable(8) %1) #9 comdat !dbg !3458 {
  %3 = alloca ptr, align 8
  %4 = alloca ptr, align 8
  store ptr %0, ptr %3, align 8
  call void @llvm.dbg.declare(metadata ptr %3, metadata !3461, metadata !DIExpression()), !dbg !3462
  store ptr %1, ptr %4, align 8
  call void @llvm.dbg.declare(metadata ptr %4, metadata !3463, metadata !DIExpression()), !dbg !3464
  %5 = load ptr, ptr %3, align 8, !dbg !3465
  %6 = call noundef nonnull align 8 dereferenceable(8) ptr @_ZNK9__gnu_cxx17__normal_iteratorIPSt6threadSt6vectorIS1_SaIS1_EEE4baseEv(ptr noundef nonnull align 8 dereferenceable(8) %5) #2, !dbg !3466
  %7 = load ptr, ptr %6, align 8, !dbg !3466
  %8 = load ptr, ptr %4, align 8, !dbg !3467
  %9 = call noundef nonnull align 8 dereferenceable(8) ptr @_ZNK9__gnu_cxx17__normal_iteratorIPSt6threadSt6vectorIS1_SaIS1_EEE4baseEv(ptr noundef nonnull align 8 dereferenceable(8) %8) #2, !dbg !3468
  %10 = load ptr, ptr %9, align 8, !dbg !3468
  %11 = ptrtoint ptr %7 to i64, !dbg !3469
  %12 = ptrtoint ptr %10 to i64, !dbg !3469
  %13 = sub i64 %11, %12, !dbg !3469
  %14 = sdiv exact i64 %13, 8, !dbg !3469
  ret i64 %14, !dbg !3470
}

; Function Attrs: mustprogress noinline optnone uwtable
define linkonce_odr dso_local noundef ptr @_ZNSt12_Vector_baseISt6threadSaIS0_EE11_M_allocateEm(ptr noundef nonnull align 8 dereferenceable(24) %0, i64 noundef %1) #3 comdat align 2 !dbg !3471 {
  %3 = alloca ptr, align 8
  %4 = alloca i64, align 8
  %5 = alloca ptr, align 8
  %6 = alloca i64, align 8
  store ptr %0, ptr %5, align 8
  call void @llvm.dbg.declare(metadata ptr %5, metadata !3472, metadata !DIExpression()), !dbg !3473
  store i64 %1, ptr %6, align 8
  call void @llvm.dbg.declare(metadata ptr %6, metadata !3474, metadata !DIExpression()), !dbg !3475
  %7 = load ptr, ptr %5, align 8
  %8 = load i64, ptr %6, align 8, !dbg !3476
  %9 = icmp ne i64 %8, 0, !dbg !3477
  br i1 %9, label %10, label %16, !dbg !3476

10:                                               ; preds = %2
  %11 = getelementptr inbounds %"struct.std::_Vector_base", ptr %7, i32 0, i32 0, !dbg !3478
  %12 = load i64, ptr %6, align 8, !dbg !3479
  store ptr %11, ptr %3, align 8
  call void @llvm.dbg.declare(metadata ptr %3, metadata !3480, metadata !DIExpression()), !dbg !3482
  store i64 %12, ptr %4, align 8
  call void @llvm.dbg.declare(metadata ptr %4, metadata !3484, metadata !DIExpression()), !dbg !3485
  %13 = load ptr, ptr %3, align 8, !dbg !3486
  %14 = load i64, ptr %4, align 8, !dbg !3487
  %15 = call noundef ptr @_ZNSt15__new_allocatorISt6threadE8allocateEmPKv(ptr noundef nonnull align 1 dereferenceable(1) %13, i64 noundef %14, ptr noundef null), !dbg !3488
  br label %17, !dbg !3476

16:                                               ; preds = %2
  br label %17, !dbg !3476

17:                                               ; preds = %16, %10
  %18 = phi ptr [ %15, %10 ], [ null, %16 ], !dbg !3476
  ret ptr %18, !dbg !3489
}

; Function Attrs: mustprogress noinline nounwind optnone uwtable
define linkonce_odr dso_local noundef ptr @_ZNSt6vectorISt6threadSaIS0_EE11_S_relocateEPS0_S3_S3_RS1_(ptr noundef %0, ptr noundef %1, ptr noundef %2, ptr noundef nonnull align 1 dereferenceable(1) %3) #9 comdat align 2 !dbg !3490 {
  %5 = alloca ptr, align 8
  %6 = alloca ptr, align 8
  %7 = alloca ptr, align 8
  %8 = alloca ptr, align 8
  store ptr %0, ptr %5, align 8
  call void @llvm.dbg.declare(metadata ptr %5, metadata !3491, metadata !DIExpression()), !dbg !3492
  store ptr %1, ptr %6, align 8
  call void @llvm.dbg.declare(metadata ptr %6, metadata !3493, metadata !DIExpression()), !dbg !3494
  store ptr %2, ptr %7, align 8
  call void @llvm.dbg.declare(metadata ptr %7, metadata !3495, metadata !DIExpression()), !dbg !3496
  store ptr %3, ptr %8, align 8
  call void @llvm.dbg.declare(metadata ptr %8, metadata !3497, metadata !DIExpression()), !dbg !3498
  %9 = load ptr, ptr %5, align 8, !dbg !3499
  %10 = load ptr, ptr %6, align 8, !dbg !3500
  %11 = load ptr, ptr %7, align 8, !dbg !3501
  %12 = load ptr, ptr %8, align 8, !dbg !3502
  %13 = call noundef ptr @_ZSt12__relocate_aIPSt6threadS1_SaIS0_EET0_T_S4_S3_RT1_(ptr noundef %9, ptr noundef %10, ptr noundef %11, ptr noundef nonnull align 1 dereferenceable(1) %12) #2, !dbg !3503
  ret ptr %13, !dbg !3504
}

; Function Attrs: mustprogress noinline nounwind optnone uwtable
define linkonce_odr dso_local noundef nonnull align 8 dereferenceable(8) ptr @_ZNK9__gnu_cxx17__normal_iteratorIPSt6threadSt6vectorIS1_SaIS1_EEE4baseEv(ptr noundef nonnull align 8 dereferenceable(8) %0) #9 comdat align 2 !dbg !3505 {
  %2 = alloca ptr, align 8
  store ptr %0, ptr %2, align 8
  call void @llvm.dbg.declare(metadata ptr %2, metadata !3506, metadata !DIExpression()), !dbg !3507
  %3 = load ptr, ptr %2, align 8
  %4 = getelementptr inbounds %"class.__gnu_cxx::__normal_iterator", ptr %3, i32 0, i32 0, !dbg !3508
  ret ptr %4, !dbg !3509
}

declare void @__cxa_rethrow()

declare void @__cxa_end_catch()

; Function Attrs: mustprogress noinline nounwind optnone uwtable
define linkonce_odr dso_local noundef i64 @_ZNKSt6vectorISt6threadSaIS0_EE8max_sizeEv(ptr noundef nonnull align 8 dereferenceable(24) %0) #9 comdat align 2 !dbg !3510 {
  %2 = alloca ptr, align 8
  store ptr %0, ptr %2, align 8
  call void @llvm.dbg.declare(metadata ptr %2, metadata !3511, metadata !DIExpression()), !dbg !3512
  %3 = load ptr, ptr %2, align 8
  %4 = call noundef nonnull align 1 dereferenceable(1) ptr @_ZNKSt12_Vector_baseISt6threadSaIS0_EE19_M_get_Tp_allocatorEv(ptr noundef nonnull align 8 dereferenceable(24) %3) #2, !dbg !3513
  %5 = call noundef i64 @_ZNSt6vectorISt6threadSaIS0_EE11_S_max_sizeERKS1_(ptr noundef nonnull align 1 dereferenceable(1) %4) #2, !dbg !3514
  ret i64 %5, !dbg !3515
}

; Function Attrs: mustprogress noinline nounwind optnone uwtable
define linkonce_odr dso_local noundef i64 @_ZNKSt6vectorISt6threadSaIS0_EE4sizeEv(ptr noundef nonnull align 8 dereferenceable(24) %0) #9 comdat align 2 !dbg !3516 {
  %2 = alloca ptr, align 8
  store ptr %0, ptr %2, align 8
  call void @llvm.dbg.declare(metadata ptr %2, metadata !3517, metadata !DIExpression()), !dbg !3518
  %3 = load ptr, ptr %2, align 8
  %4 = getelementptr inbounds %"struct.std::_Vector_base", ptr %3, i32 0, i32 0, !dbg !3519
  %5 = getelementptr inbounds %"struct.std::_Vector_base<std::thread, std::allocator<std::thread>>::_Vector_impl_data", ptr %4, i32 0, i32 1, !dbg !3520
  %6 = load ptr, ptr %5, align 8, !dbg !3520
  %7 = getelementptr inbounds %"struct.std::_Vector_base", ptr %3, i32 0, i32 0, !dbg !3521
  %8 = getelementptr inbounds %"struct.std::_Vector_base<std::thread, std::allocator<std::thread>>::_Vector_impl_data", ptr %7, i32 0, i32 0, !dbg !3522
  %9 = load ptr, ptr %8, align 8, !dbg !3522
  %10 = ptrtoint ptr %6 to i64, !dbg !3523
  %11 = ptrtoint ptr %9 to i64, !dbg !3523
  %12 = sub i64 %10, %11, !dbg !3523
  %13 = sdiv exact i64 %12, 8, !dbg !3523
  ret i64 %13, !dbg !3524
}

; Function Attrs: noreturn
declare void @_ZSt20__throw_length_errorPKc(ptr noundef) #14

; Function Attrs: mustprogress noinline nounwind optnone uwtable
define linkonce_odr dso_local noundef nonnull align 8 dereferenceable(8) ptr @_ZSt3maxImERKT_S2_S2_(ptr noundef nonnull align 8 dereferenceable(8) %0, ptr noundef nonnull align 8 dereferenceable(8) %1) #9 comdat !dbg !3525 {
  %3 = alloca ptr, align 8
  %4 = alloca ptr, align 8
  %5 = alloca ptr, align 8
  store ptr %0, ptr %4, align 8
  call void @llvm.dbg.declare(metadata ptr %4, metadata !3533, metadata !DIExpression()), !dbg !3534
  store ptr %1, ptr %5, align 8
  call void @llvm.dbg.declare(metadata ptr %5, metadata !3535, metadata !DIExpression()), !dbg !3536
  %6 = load ptr, ptr %4, align 8, !dbg !3537
  %7 = load i64, ptr %6, align 8, !dbg !3537
  %8 = load ptr, ptr %5, align 8, !dbg !3539
  %9 = load i64, ptr %8, align 8, !dbg !3539
  %10 = icmp ult i64 %7, %9, !dbg !3540
  br i1 %10, label %11, label %13, !dbg !3541

11:                                               ; preds = %2
  %12 = load ptr, ptr %5, align 8, !dbg !3542
  store ptr %12, ptr %3, align 8, !dbg !3543
  br label %15, !dbg !3543

13:                                               ; preds = %2
  %14 = load ptr, ptr %4, align 8, !dbg !3544
  store ptr %14, ptr %3, align 8, !dbg !3545
  br label %15, !dbg !3545

15:                                               ; preds = %13, %11
  %16 = load ptr, ptr %3, align 8, !dbg !3546
  ret ptr %16, !dbg !3546
}

; Function Attrs: mustprogress noinline nounwind optnone uwtable
define linkonce_odr dso_local noundef i64 @_ZNSt6vectorISt6threadSaIS0_EE11_S_max_sizeERKS1_(ptr noundef nonnull align 1 dereferenceable(1) %0) #9 comdat align 2 personality ptr @__gxx_personality_v0 !dbg !3547 {
  %2 = alloca ptr, align 8
  %3 = alloca ptr, align 8
  %4 = alloca ptr, align 8
  %5 = alloca ptr, align 8
  %6 = alloca i64, align 8
  %7 = alloca i64, align 8
  store ptr %0, ptr %5, align 8
  call void @llvm.dbg.declare(metadata ptr %5, metadata !3548, metadata !DIExpression()), !dbg !3549
  call void @llvm.dbg.declare(metadata ptr %6, metadata !3550, metadata !DIExpression()), !dbg !3552
  store i64 1152921504606846975, ptr %6, align 8, !dbg !3552
  call void @llvm.dbg.declare(metadata ptr %7, metadata !3553, metadata !DIExpression()), !dbg !3554
  %8 = load ptr, ptr %5, align 8, !dbg !3555
  store ptr %8, ptr %4, align 8
  call void @llvm.dbg.declare(metadata ptr %4, metadata !3556, metadata !DIExpression()), !dbg !3558
  %9 = load ptr, ptr %4, align 8, !dbg !3560
  store ptr %9, ptr %3, align 8
  call void @llvm.dbg.declare(metadata ptr %3, metadata !3561, metadata !DIExpression()), !dbg !3564
  %10 = load ptr, ptr %3, align 8
  store ptr %10, ptr %2, align 8
  call void @llvm.dbg.declare(metadata ptr %2, metadata !3566, metadata !DIExpression()), !dbg !3568
  %11 = load ptr, ptr %2, align 8
  store i64 1152921504606846975, ptr %7, align 8, !dbg !3554
  %12 = invoke noundef nonnull align 8 dereferenceable(8) ptr @_ZSt3minImERKT_S2_S2_(ptr noundef nonnull align 8 dereferenceable(8) %6, ptr noundef nonnull align 8 dereferenceable(8) %7)
          to label %13 unwind label %15, !dbg !3570

13:                                               ; preds = %1
  %14 = load i64, ptr %12, align 8, !dbg !3570
  ret i64 %14, !dbg !3571

15:                                               ; preds = %1
  %16 = landingpad { ptr, i32 }
          catch ptr null, !dbg !3570
  %17 = extractvalue { ptr, i32 } %16, 0, !dbg !3570
  call void @__clang_call_terminate(ptr %17) #15, !dbg !3570
  unreachable, !dbg !3570
}

; Function Attrs: mustprogress noinline nounwind optnone uwtable
define linkonce_odr dso_local noundef nonnull align 1 dereferenceable(1) ptr @_ZNKSt12_Vector_baseISt6threadSaIS0_EE19_M_get_Tp_allocatorEv(ptr noundef nonnull align 8 dereferenceable(24) %0) #9 comdat align 2 !dbg !3572 {
  %2 = alloca ptr, align 8
  store ptr %0, ptr %2, align 8
  call void @llvm.dbg.declare(metadata ptr %2, metadata !3573, metadata !DIExpression()), !dbg !3575
  %3 = load ptr, ptr %2, align 8
  %4 = getelementptr inbounds %"struct.std::_Vector_base", ptr %3, i32 0, i32 0, !dbg !3576
  ret ptr %4, !dbg !3577
}

; Function Attrs: mustprogress noinline nounwind optnone uwtable
define linkonce_odr dso_local noundef nonnull align 8 dereferenceable(8) ptr @_ZSt3minImERKT_S2_S2_(ptr noundef nonnull align 8 dereferenceable(8) %0, ptr noundef nonnull align 8 dereferenceable(8) %1) #9 comdat !dbg !3578 {
  %3 = alloca ptr, align 8
  %4 = alloca ptr, align 8
  %5 = alloca ptr, align 8
  store ptr %0, ptr %4, align 8
  call void @llvm.dbg.declare(metadata ptr %4, metadata !3579, metadata !DIExpression()), !dbg !3580
  store ptr %1, ptr %5, align 8
  call void @llvm.dbg.declare(metadata ptr %5, metadata !3581, metadata !DIExpression()), !dbg !3582
  %6 = load ptr, ptr %5, align 8, !dbg !3583
  %7 = load i64, ptr %6, align 8, !dbg !3583
  %8 = load ptr, ptr %4, align 8, !dbg !3585
  %9 = load i64, ptr %8, align 8, !dbg !3585
  %10 = icmp ult i64 %7, %9, !dbg !3586
  br i1 %10, label %11, label %13, !dbg !3587

11:                                               ; preds = %2
  %12 = load ptr, ptr %5, align 8, !dbg !3588
  store ptr %12, ptr %3, align 8, !dbg !3589
  br label %15, !dbg !3589

13:                                               ; preds = %2
  %14 = load ptr, ptr %4, align 8, !dbg !3590
  store ptr %14, ptr %3, align 8, !dbg !3591
  br label %15, !dbg !3591

15:                                               ; preds = %13, %11
  %16 = load ptr, ptr %3, align 8, !dbg !3592
  ret ptr %16, !dbg !3592
}

; Function Attrs: mustprogress noinline optnone uwtable
define linkonce_odr dso_local noundef ptr @_ZNSt15__new_allocatorISt6threadE8allocateEmPKv(ptr noundef nonnull align 1 dereferenceable(1) %0, i64 noundef %1, ptr noundef %2) #3 comdat align 2 !dbg !3593 {
  %4 = alloca ptr, align 8
  %5 = alloca ptr, align 8
  %6 = alloca i64, align 8
  %7 = alloca ptr, align 8
  store ptr %0, ptr %5, align 8
  call void @llvm.dbg.declare(metadata ptr %5, metadata !3594, metadata !DIExpression()), !dbg !3595
  store i64 %1, ptr %6, align 8
  call void @llvm.dbg.declare(metadata ptr %6, metadata !3596, metadata !DIExpression()), !dbg !3597
  store ptr %2, ptr %7, align 8
  call void @llvm.dbg.declare(metadata ptr %7, metadata !3598, metadata !DIExpression()), !dbg !3599
  %8 = load ptr, ptr %5, align 8
  %9 = load i64, ptr %6, align 8, !dbg !3600
  store ptr %8, ptr %4, align 8
  call void @llvm.dbg.declare(metadata ptr %4, metadata !3566, metadata !DIExpression()), !dbg !3602
  %10 = load ptr, ptr %4, align 8
  %11 = icmp ugt i64 %9, 1152921504606846975, !dbg !3604
  br i1 %11, label %12, label %17, !dbg !3605

12:                                               ; preds = %3
  %13 = load i64, ptr %6, align 8, !dbg !3606
  %14 = icmp ugt i64 %13, 2305843009213693951, !dbg !3609
  br i1 %14, label %15, label %16, !dbg !3610

15:                                               ; preds = %12
  call void @_ZSt28__throw_bad_array_new_lengthv() #18, !dbg !3611
  unreachable, !dbg !3611

16:                                               ; preds = %12
  call void @_ZSt17__throw_bad_allocv() #18, !dbg !3612
  unreachable, !dbg !3612

17:                                               ; preds = %3
  %18 = load i64, ptr %6, align 8, !dbg !3613
  %19 = mul i64 %18, 8, !dbg !3614
  %20 = call noalias noundef nonnull ptr @_Znwm(i64 noundef %19) #17, !dbg !3615
  ret ptr %20, !dbg !3616
}

; Function Attrs: noreturn
declare void @_ZSt28__throw_bad_array_new_lengthv() #14

; Function Attrs: noreturn
declare void @_ZSt17__throw_bad_allocv() #14

; Function Attrs: mustprogress noinline nounwind optnone uwtable
define linkonce_odr dso_local noundef ptr @_ZSt12__relocate_aIPSt6threadS1_SaIS0_EET0_T_S4_S3_RT1_(ptr noundef %0, ptr noundef %1, ptr noundef %2, ptr noundef nonnull align 1 dereferenceable(1) %3) #9 comdat !dbg !3617 {
  %5 = alloca ptr, align 8
  %6 = alloca ptr, align 8
  %7 = alloca ptr, align 8
  %8 = alloca ptr, align 8
  store ptr %0, ptr %5, align 8
  call void @llvm.dbg.declare(metadata ptr %5, metadata !3624, metadata !DIExpression()), !dbg !3625
  store ptr %1, ptr %6, align 8
  call void @llvm.dbg.declare(metadata ptr %6, metadata !3626, metadata !DIExpression()), !dbg !3627
  store ptr %2, ptr %7, align 8
  call void @llvm.dbg.declare(metadata ptr %7, metadata !3628, metadata !DIExpression()), !dbg !3629
  store ptr %3, ptr %8, align 8
  call void @llvm.dbg.declare(metadata ptr %8, metadata !3630, metadata !DIExpression()), !dbg !3631
  %9 = load ptr, ptr %5, align 8, !dbg !3632
  %10 = call noundef ptr @_ZSt12__niter_baseIPSt6threadET_S2_(ptr noundef %9) #2, !dbg !3633
  %11 = load ptr, ptr %6, align 8, !dbg !3634
  %12 = call noundef ptr @_ZSt12__niter_baseIPSt6threadET_S2_(ptr noundef %11) #2, !dbg !3635
  %13 = load ptr, ptr %7, align 8, !dbg !3636
  %14 = call noundef ptr @_ZSt12__niter_baseIPSt6threadET_S2_(ptr noundef %13) #2, !dbg !3637
  %15 = load ptr, ptr %8, align 8, !dbg !3638
  %16 = call noundef ptr @_ZSt14__relocate_a_1IPSt6threadS1_SaIS0_EET0_T_S4_S3_RT1_(ptr noundef %10, ptr noundef %12, ptr noundef %14, ptr noundef nonnull align 1 dereferenceable(1) %15) #2, !dbg !3639
  ret ptr %16, !dbg !3640
}

; Function Attrs: mustprogress noinline nounwind optnone uwtable
define linkonce_odr dso_local noundef ptr @_ZSt14__relocate_a_1IPSt6threadS1_SaIS0_EET0_T_S4_S3_RT1_(ptr noundef %0, ptr noundef %1, ptr noundef %2, ptr noundef nonnull align 1 dereferenceable(1) %3) #9 comdat !dbg !3641 {
  %5 = alloca ptr, align 8
  %6 = alloca ptr, align 8
  %7 = alloca ptr, align 8
  %8 = alloca ptr, align 8
  %9 = alloca ptr, align 8
  store ptr %0, ptr %5, align 8
  call void @llvm.dbg.declare(metadata ptr %5, metadata !3642, metadata !DIExpression()), !dbg !3643
  store ptr %1, ptr %6, align 8
  call void @llvm.dbg.declare(metadata ptr %6, metadata !3644, metadata !DIExpression()), !dbg !3645
  store ptr %2, ptr %7, align 8
  call void @llvm.dbg.declare(metadata ptr %7, metadata !3646, metadata !DIExpression()), !dbg !3647
  store ptr %3, ptr %8, align 8
  call void @llvm.dbg.declare(metadata ptr %8, metadata !3648, metadata !DIExpression()), !dbg !3649
  call void @llvm.dbg.declare(metadata ptr %9, metadata !3650, metadata !DIExpression()), !dbg !3651
  %10 = load ptr, ptr %7, align 8, !dbg !3652
  store ptr %10, ptr %9, align 8, !dbg !3651
  br label %11, !dbg !3653

11:                                               ; preds = %19, %4
  %12 = load ptr, ptr %5, align 8, !dbg !3654
  %13 = load ptr, ptr %6, align 8, !dbg !3657
  %14 = icmp ne ptr %12, %13, !dbg !3658
  br i1 %14, label %15, label %24, !dbg !3659

15:                                               ; preds = %11
  %16 = load ptr, ptr %9, align 8, !dbg !3660
  %17 = load ptr, ptr %5, align 8, !dbg !3661
  %18 = load ptr, ptr %8, align 8, !dbg !3662
  call void @_ZSt19__relocate_object_aISt6threadS0_SaIS0_EEvPT_PT0_RT1_(ptr noundef %16, ptr noundef %17, ptr noundef nonnull align 1 dereferenceable(1) %18) #2, !dbg !3663
  br label %19, !dbg !3663

19:                                               ; preds = %15
  %20 = load ptr, ptr %5, align 8, !dbg !3664
  %21 = getelementptr inbounds %"class.std::thread", ptr %20, i32 1, !dbg !3664
  store ptr %21, ptr %5, align 8, !dbg !3664
  %22 = load ptr, ptr %9, align 8, !dbg !3665
  %23 = getelementptr inbounds %"class.std::thread", ptr %22, i32 1, !dbg !3665
  store ptr %23, ptr %9, align 8, !dbg !3665
  br label %11, !dbg !3666, !llvm.loop !3667

24:                                               ; preds = %11
  %25 = load ptr, ptr %9, align 8, !dbg !3669
  ret ptr %25, !dbg !3670
}

; Function Attrs: mustprogress noinline nounwind optnone uwtable
define linkonce_odr dso_local noundef ptr @_ZSt12__niter_baseIPSt6threadET_S2_(ptr noundef %0) #9 comdat !dbg !3671 {
  %2 = alloca ptr, align 8
  store ptr %0, ptr %2, align 8
  call void @llvm.dbg.declare(metadata ptr %2, metadata !3674, metadata !DIExpression()), !dbg !3675
  %3 = load ptr, ptr %2, align 8, !dbg !3676
  ret ptr %3, !dbg !3677
}

; Function Attrs: mustprogress noinline nounwind optnone uwtable
define linkonce_odr dso_local void @_ZSt19__relocate_object_aISt6threadS0_SaIS0_EEvPT_PT0_RT1_(ptr noalias noundef %0, ptr noalias noundef %1, ptr noundef nonnull align 1 dereferenceable(1) %2) #9 comdat !dbg !3678 {
  %4 = alloca ptr, align 8
  %5 = alloca ptr, align 8
  %6 = alloca ptr, align 8
  %7 = alloca ptr, align 8
  %8 = alloca ptr, align 8
  %9 = alloca ptr, align 8
  %10 = alloca ptr, align 8
  %11 = alloca ptr, align 8
  %12 = alloca ptr, align 8
  %13 = alloca ptr, align 8
  %14 = alloca ptr, align 8
  %15 = alloca ptr, align 8
  %16 = alloca ptr, align 8
  store ptr %0, ptr %14, align 8
  call void @llvm.dbg.declare(metadata ptr %14, metadata !3683, metadata !DIExpression()), !dbg !3684
  store ptr %1, ptr %15, align 8
  call void @llvm.dbg.declare(metadata ptr %15, metadata !3685, metadata !DIExpression()), !dbg !3686
  store ptr %2, ptr %16, align 8
  call void @llvm.dbg.declare(metadata ptr %16, metadata !3687, metadata !DIExpression()), !dbg !3688
  %17 = load ptr, ptr %16, align 8, !dbg !3689
  %18 = load ptr, ptr %14, align 8, !dbg !3690
  %19 = load ptr, ptr %15, align 8, !dbg !3691
  store ptr %17, ptr %9, align 8
  call void @llvm.dbg.declare(metadata ptr %9, metadata !3692, metadata !DIExpression()), !dbg !3700
  store ptr %18, ptr %10, align 8
  call void @llvm.dbg.declare(metadata ptr %10, metadata !3702, metadata !DIExpression()), !dbg !3703
  store ptr %19, ptr %11, align 8
  call void @llvm.dbg.declare(metadata ptr %11, metadata !3704, metadata !DIExpression()), !dbg !3705
  %20 = load ptr, ptr %9, align 8, !dbg !3706
  %21 = load ptr, ptr %10, align 8, !dbg !3707
  %22 = load ptr, ptr %11, align 8, !dbg !3708
  store ptr %20, ptr %6, align 8
  call void @llvm.dbg.declare(metadata ptr %6, metadata !3709, metadata !DIExpression()), !dbg !3714
  store ptr %21, ptr %7, align 8
  call void @llvm.dbg.declare(metadata ptr %7, metadata !3716, metadata !DIExpression()), !dbg !3717
  store ptr %22, ptr %8, align 8
  call void @llvm.dbg.declare(metadata ptr %8, metadata !3718, metadata !DIExpression()), !dbg !3719
  %23 = load ptr, ptr %6, align 8
  %24 = load ptr, ptr %7, align 8, !dbg !3720
  %25 = load ptr, ptr %8, align 8, !dbg !3721
  call void @_ZNSt6threadC2EOS_(ptr noundef nonnull align 8 dereferenceable(8) %24, ptr noundef nonnull align 8 dereferenceable(8) %25) #2, !dbg !3722
  %26 = load ptr, ptr %16, align 8, !dbg !3723
  %27 = load ptr, ptr %15, align 8, !dbg !3724
  store ptr %26, ptr %12, align 8
  call void @llvm.dbg.declare(metadata ptr %12, metadata !2868, metadata !DIExpression()), !dbg !3725
  store ptr %27, ptr %13, align 8
  call void @llvm.dbg.declare(metadata ptr %13, metadata !2876, metadata !DIExpression()), !dbg !3727
  %28 = load ptr, ptr %12, align 8, !dbg !3728
  %29 = load ptr, ptr %13, align 8, !dbg !3729
  store ptr %28, ptr %4, align 8
  call void @llvm.dbg.declare(metadata ptr %4, metadata !2880, metadata !DIExpression()), !dbg !3730
  store ptr %29, ptr %5, align 8
  call void @llvm.dbg.declare(metadata ptr %5, metadata !2887, metadata !DIExpression()), !dbg !3732
  %30 = load ptr, ptr %4, align 8
  %31 = load ptr, ptr %5, align 8, !dbg !3733
  call void @_ZNSt6threadD2Ev(ptr noundef nonnull align 8 dereferenceable(8) %31) #2, !dbg !3734
  ret void, !dbg !3735
}

; Function Attrs: noinline nounwind optnone uwtable
define linkonce_odr dso_local void @_ZNSt6threadC2EOS_(ptr noundef nonnull align 8 dereferenceable(8) %0, ptr noundef nonnull align 8 dereferenceable(8) %1) unnamed_addr #1 comdat align 2 !dbg !3736 {
  %3 = alloca ptr, align 8
  %4 = alloca ptr, align 8
  store ptr %0, ptr %3, align 8
  call void @llvm.dbg.declare(metadata ptr %3, metadata !3737, metadata !DIExpression()), !dbg !3738
  store ptr %1, ptr %4, align 8
  call void @llvm.dbg.declare(metadata ptr %4, metadata !3739, metadata !DIExpression()), !dbg !3740
  %5 = load ptr, ptr %3, align 8
  %6 = getelementptr inbounds %"class.std::thread", ptr %5, i32 0, i32 0, !dbg !3741
  call void @_ZNSt6thread2idC2Ev(ptr noundef nonnull align 8 dereferenceable(8) %6) #2, !dbg !3741
  %7 = load ptr, ptr %4, align 8, !dbg !3742
  call void @_ZNSt6thread4swapERS_(ptr noundef nonnull align 8 dereferenceable(8) %5, ptr noundef nonnull align 8 dereferenceable(8) %7) #2, !dbg !3744
  ret void, !dbg !3745
}

; Function Attrs: mustprogress noinline nounwind optnone uwtable
define linkonce_odr dso_local void @_ZNSt6thread4swapERS_(ptr noundef nonnull align 8 dereferenceable(8) %0, ptr noundef nonnull align 8 dereferenceable(8) %1) #9 comdat align 2 !dbg !3746 {
  %3 = alloca ptr, align 8
  %4 = alloca ptr, align 8
  store ptr %0, ptr %3, align 8
  call void @llvm.dbg.declare(metadata ptr %3, metadata !3747, metadata !DIExpression()), !dbg !3748
  store ptr %1, ptr %4, align 8
  call void @llvm.dbg.declare(metadata ptr %4, metadata !3749, metadata !DIExpression()), !dbg !3750
  %5 = load ptr, ptr %3, align 8
  %6 = getelementptr inbounds %"class.std::thread", ptr %5, i32 0, i32 0, !dbg !3751
  %7 = load ptr, ptr %4, align 8, !dbg !3752
  %8 = getelementptr inbounds %"class.std::thread", ptr %7, i32 0, i32 0, !dbg !3753
  call void @_ZSt4swapINSt6thread2idEENSt9enable_ifIXsr6__and_ISt6__not_ISt15__is_tuple_likeIT_EESt21is_move_constructibleIS5_ESt18is_move_assignableIS5_EEE5valueEvE4typeERS5_SE_(ptr noundef nonnull align 8 dereferenceable(8) %6, ptr noundef nonnull align 8 dereferenceable(8) %8) #2, !dbg !3754
  ret void, !dbg !3755
}

; Function Attrs: mustprogress noinline nounwind optnone uwtable
define linkonce_odr dso_local void @_ZSt4swapINSt6thread2idEENSt9enable_ifIXsr6__and_ISt6__not_ISt15__is_tuple_likeIT_EESt21is_move_constructibleIS5_ESt18is_move_assignableIS5_EEE5valueEvE4typeERS5_SE_(ptr noundef nonnull align 8 dereferenceable(8) %0, ptr noundef nonnull align 8 dereferenceable(8) %1) #9 comdat !dbg !3756 {
  %3 = alloca ptr, align 8
  %4 = alloca ptr, align 8
  %5 = alloca %"class.std::thread::id", align 8
  store ptr %0, ptr %3, align 8
  call void @llvm.dbg.declare(metadata ptr %3, metadata !3767, metadata !DIExpression()), !dbg !3768
  store ptr %1, ptr %4, align 8
  call void @llvm.dbg.declare(metadata ptr %4, metadata !3769, metadata !DIExpression()), !dbg !3770
  call void @llvm.dbg.declare(metadata ptr %5, metadata !3771, metadata !DIExpression()), !dbg !3772
  %6 = load ptr, ptr %3, align 8, !dbg !3773
  call void @llvm.memcpy.p0.p0.i64(ptr align 8 %5, ptr align 8 %6, i64 8, i1 false), !dbg !3773
  %7 = load ptr, ptr %4, align 8, !dbg !3774
  %8 = load ptr, ptr %3, align 8, !dbg !3775
  call void @llvm.memcpy.p0.p0.i64(ptr align 8 %8, ptr align 8 %7, i64 8, i1 false), !dbg !3776
  %9 = load ptr, ptr %4, align 8, !dbg !3777
  call void @llvm.memcpy.p0.p0.i64(ptr align 8 %9, ptr align 8 %5, i64 8, i1 false), !dbg !3778
  ret void, !dbg !3779
}

; Function Attrs: mustprogress noinline nounwind optnone uwtable
define linkonce_odr dso_local ptr @_ZNK9__gnu_cxx17__normal_iteratorIPSt6threadSt6vectorIS1_SaIS1_EEEmiEl(ptr noundef nonnull align 8 dereferenceable(8) %0, i64 noundef %1) #9 comdat align 2 !dbg !3780 {
  %3 = alloca %"class.__gnu_cxx::__normal_iterator", align 8
  %4 = alloca ptr, align 8
  %5 = alloca i64, align 8
  %6 = alloca ptr, align 8
  store ptr %0, ptr %4, align 8
  call void @llvm.dbg.declare(metadata ptr %4, metadata !3781, metadata !DIExpression()), !dbg !3782
  store i64 %1, ptr %5, align 8
  call void @llvm.dbg.declare(metadata ptr %5, metadata !3783, metadata !DIExpression()), !dbg !3784
  %7 = load ptr, ptr %4, align 8
  %8 = getelementptr inbounds %"class.__gnu_cxx::__normal_iterator", ptr %7, i32 0, i32 0, !dbg !3785
  %9 = load ptr, ptr %8, align 8, !dbg !3785
  %10 = load i64, ptr %5, align 8, !dbg !3786
  %11 = sub i64 0, %10, !dbg !3787
  %12 = getelementptr inbounds %"class.std::thread", ptr %9, i64 %11, !dbg !3787
  store ptr %12, ptr %6, align 8, !dbg !3785
  call void @_ZN9__gnu_cxx17__normal_iteratorIPSt6threadSt6vectorIS1_SaIS1_EEEC2ERKS2_(ptr noundef nonnull align 8 dereferenceable(8) %3, ptr noundef nonnull align 8 dereferenceable(8) %6) #2, !dbg !3788
  %13 = getelementptr inbounds %"class.__gnu_cxx::__normal_iterator", ptr %3, i32 0, i32 0, !dbg !3789
  %14 = load ptr, ptr %13, align 8, !dbg !3789
  ret ptr %14, !dbg !3789
}

; Function Attrs: noinline nounwind optnone uwtable
define linkonce_odr dso_local void @_ZN9__gnu_cxx17__normal_iteratorIPSt6threadSt6vectorIS1_SaIS1_EEEC2ERKS2_(ptr noundef nonnull align 8 dereferenceable(8) %0, ptr noundef nonnull align 8 dereferenceable(8) %1) unnamed_addr #1 comdat align 2 !dbg !3790 {
  %3 = alloca ptr, align 8
  %4 = alloca ptr, align 8
  store ptr %0, ptr %3, align 8
  call void @llvm.dbg.declare(metadata ptr %3, metadata !3791, metadata !DIExpression()), !dbg !3792
  store ptr %1, ptr %4, align 8
  call void @llvm.dbg.declare(metadata ptr %4, metadata !3793, metadata !DIExpression()), !dbg !3794
  %5 = load ptr, ptr %3, align 8
  %6 = getelementptr inbounds %"class.__gnu_cxx::__normal_iterator", ptr %5, i32 0, i32 0, !dbg !3795
  %7 = load ptr, ptr %4, align 8, !dbg !3796
  %8 = load ptr, ptr %7, align 8, !dbg !3796
  store ptr %8, ptr %6, align 8, !dbg !3795
  ret void, !dbg !3797
}

; Function Attrs: mustprogress noinline optnone uwtable
define linkonce_odr dso_local void @_ZNSt6vectorISt6threadSaIS0_EE17_M_realloc_insertIJRFvPiES4_EEEvN9__gnu_cxx17__normal_iteratorIPS0_S2_EEDpOT_(ptr noundef nonnull align 8 dereferenceable(24) %0, ptr %1, ptr noundef nonnull %2, ptr noundef nonnull align 8 dereferenceable(8) %3) #3 comdat align 2 personality ptr @__gxx_personality_v0 !dbg !3798 {
  %5 = alloca ptr, align 8
  %6 = alloca ptr, align 8
  %7 = alloca ptr, align 8
  %8 = alloca ptr, align 8
  %9 = alloca ptr, align 8
  %10 = alloca ptr, align 8
  %11 = alloca ptr, align 8
  %12 = alloca ptr, align 8
  %13 = alloca ptr, align 8
  %14 = alloca ptr, align 8
  %15 = alloca ptr, align 8
  %16 = alloca ptr, align 8
  %17 = alloca ptr, align 8
  %18 = alloca ptr, align 8
  %19 = alloca ptr, align 8
  %20 = alloca %"class.__gnu_cxx::__normal_iterator", align 8
  %21 = alloca ptr, align 8
  %22 = alloca ptr, align 8
  %23 = alloca ptr, align 8
  %24 = alloca i64, align 8
  %25 = alloca ptr, align 8
  %26 = alloca ptr, align 8
  %27 = alloca i64, align 8
  %28 = alloca %"class.__gnu_cxx::__normal_iterator", align 8
  %29 = alloca ptr, align 8
  %30 = alloca ptr, align 8
  %31 = alloca ptr, align 8
  %32 = alloca i32, align 4
  %33 = getelementptr inbounds %"class.__gnu_cxx::__normal_iterator", ptr %20, i32 0, i32 0
  store ptr %1, ptr %33, align 8
  store ptr %0, ptr %21, align 8
  call void @llvm.dbg.declare(metadata ptr %21, metadata !3802, metadata !DIExpression()), !dbg !3803
  call void @llvm.dbg.declare(metadata ptr %20, metadata !3804, metadata !DIExpression()), !dbg !3805
  store ptr %2, ptr %22, align 8
  call void @llvm.dbg.declare(metadata ptr %22, metadata !3806, metadata !DIExpression()), !dbg !3807
  store ptr %3, ptr %23, align 8
  call void @llvm.dbg.declare(metadata ptr %23, metadata !3808, metadata !DIExpression()), !dbg !3807
  %34 = load ptr, ptr %21, align 8
  call void @llvm.dbg.declare(metadata ptr %24, metadata !3809, metadata !DIExpression()), !dbg !3810
  %35 = call noundef i64 @_ZNKSt6vectorISt6threadSaIS0_EE12_M_check_lenEmPKc(ptr noundef nonnull align 8 dereferenceable(24) %34, i64 noundef 1, ptr noundef @.str.2), !dbg !3811
  store i64 %35, ptr %24, align 8, !dbg !3810
  call void @llvm.dbg.declare(metadata ptr %25, metadata !3812, metadata !DIExpression()), !dbg !3813
  %36 = getelementptr inbounds %"struct.std::_Vector_base", ptr %34, i32 0, i32 0, !dbg !3814
  %37 = getelementptr inbounds %"struct.std::_Vector_base<std::thread, std::allocator<std::thread>>::_Vector_impl_data", ptr %36, i32 0, i32 0, !dbg !3815
  %38 = load ptr, ptr %37, align 8, !dbg !3815
  store ptr %38, ptr %25, align 8, !dbg !3813
  call void @llvm.dbg.declare(metadata ptr %26, metadata !3816, metadata !DIExpression()), !dbg !3817
  %39 = getelementptr inbounds %"struct.std::_Vector_base", ptr %34, i32 0, i32 0, !dbg !3818
  %40 = getelementptr inbounds %"struct.std::_Vector_base<std::thread, std::allocator<std::thread>>::_Vector_impl_data", ptr %39, i32 0, i32 1, !dbg !3819
  %41 = load ptr, ptr %40, align 8, !dbg !3819
  store ptr %41, ptr %26, align 8, !dbg !3817
  call void @llvm.dbg.declare(metadata ptr %27, metadata !3820, metadata !DIExpression()), !dbg !3821
  %42 = call ptr @_ZNSt6vectorISt6threadSaIS0_EE5beginEv(ptr noundef nonnull align 8 dereferenceable(24) %34) #2, !dbg !3822
  %43 = getelementptr inbounds %"class.__gnu_cxx::__normal_iterator", ptr %28, i32 0, i32 0, !dbg !3822
  store ptr %42, ptr %43, align 8, !dbg !3822
  %44 = call noundef i64 @_ZN9__gnu_cxxmiIPSt6threadSt6vectorIS1_SaIS1_EEEENS_17__normal_iteratorIT_T0_E15difference_typeERKS9_SC_(ptr noundef nonnull align 8 dereferenceable(8) %20, ptr noundef nonnull align 8 dereferenceable(8) %28) #2, !dbg !3823
  store i64 %44, ptr %27, align 8, !dbg !3821
  call void @llvm.dbg.declare(metadata ptr %29, metadata !3824, metadata !DIExpression()), !dbg !3825
  %45 = load i64, ptr %24, align 8, !dbg !3826
  %46 = call noundef ptr @_ZNSt12_Vector_baseISt6threadSaIS0_EE11_M_allocateEm(ptr noundef nonnull align 8 dereferenceable(24) %34, i64 noundef %45), !dbg !3827
  store ptr %46, ptr %29, align 8, !dbg !3825
  call void @llvm.dbg.declare(metadata ptr %30, metadata !3828, metadata !DIExpression()), !dbg !3829
  %47 = load ptr, ptr %29, align 8, !dbg !3830
  store ptr %47, ptr %30, align 8, !dbg !3829
  %48 = getelementptr inbounds %"struct.std::_Vector_base", ptr %34, i32 0, i32 0, !dbg !3831
  %49 = load ptr, ptr %29, align 8, !dbg !3833
  %50 = load i64, ptr %27, align 8, !dbg !3834
  %51 = getelementptr inbounds %"class.std::thread", ptr %49, i64 %50, !dbg !3835
  %52 = load ptr, ptr %22, align 8, !dbg !3836
  %53 = load ptr, ptr %23, align 8, !dbg !3836
  store ptr %48, ptr %9, align 8
  call void @llvm.dbg.declare(metadata ptr %9, metadata !2504, metadata !DIExpression()), !dbg !3837
  store ptr %51, ptr %10, align 8
  call void @llvm.dbg.declare(metadata ptr %10, metadata !2512, metadata !DIExpression()), !dbg !3839
  store ptr %52, ptr %11, align 8
  call void @llvm.dbg.declare(metadata ptr %11, metadata !2514, metadata !DIExpression()), !dbg !3840
  store ptr %53, ptr %12, align 8
  call void @llvm.dbg.declare(metadata ptr %12, metadata !2516, metadata !DIExpression()), !dbg !3840
  %54 = load ptr, ptr %9, align 8, !dbg !3841
  %55 = load ptr, ptr %10, align 8, !dbg !3842
  %56 = load ptr, ptr %11, align 8, !dbg !3843
  %57 = load ptr, ptr %12, align 8, !dbg !3843
  store ptr %54, ptr %5, align 8
  call void @llvm.dbg.declare(metadata ptr %5, metadata !2520, metadata !DIExpression()), !dbg !3844
  store ptr %55, ptr %6, align 8
  call void @llvm.dbg.declare(metadata ptr %6, metadata !2527, metadata !DIExpression()), !dbg !3846
  store ptr %56, ptr %7, align 8
  call void @llvm.dbg.declare(metadata ptr %7, metadata !2529, metadata !DIExpression()), !dbg !3847
  store ptr %57, ptr %8, align 8
  call void @llvm.dbg.declare(metadata ptr %8, metadata !2531, metadata !DIExpression()), !dbg !3847
  %58 = load ptr, ptr %5, align 8
  %59 = load ptr, ptr %6, align 8, !dbg !3848
  %60 = load ptr, ptr %7, align 8, !dbg !3849
  %61 = load ptr, ptr %8, align 8, !dbg !3849
  invoke void @_ZNSt6threadC2IRFvPiEJS1_EvEEOT_DpOT0_(ptr noundef nonnull align 8 dereferenceable(8) %59, ptr noundef nonnull %60, ptr noundef nonnull align 8 dereferenceable(8) %61)
          to label %62 unwind label %79, !dbg !3850

62:                                               ; preds = %4
  br label %63, !dbg !3851

63:                                               ; preds = %62
  br label %64, !dbg !3852

64:                                               ; preds = %63
  store ptr null, ptr %30, align 8, !dbg !3853
  %65 = load ptr, ptr %25, align 8, !dbg !3854
  %66 = call noundef nonnull align 8 dereferenceable(8) ptr @_ZNK9__gnu_cxx17__normal_iteratorIPSt6threadSt6vectorIS1_SaIS1_EEE4baseEv(ptr noundef nonnull align 8 dereferenceable(8) %20) #2, !dbg !3857
  %67 = load ptr, ptr %66, align 8, !dbg !3857
  %68 = load ptr, ptr %29, align 8, !dbg !3858
  %69 = call noundef nonnull align 1 dereferenceable(1) ptr @_ZNSt12_Vector_baseISt6threadSaIS0_EE19_M_get_Tp_allocatorEv(ptr noundef nonnull align 8 dereferenceable(24) %34) #2, !dbg !3859
  %70 = call noundef ptr @_ZNSt6vectorISt6threadSaIS0_EE11_S_relocateEPS0_S3_S3_RS1_(ptr noundef %65, ptr noundef %67, ptr noundef %68, ptr noundef nonnull align 1 dereferenceable(1) %69) #2, !dbg !3860
  store ptr %70, ptr %30, align 8, !dbg !3861
  %71 = load ptr, ptr %30, align 8, !dbg !3862
  %72 = getelementptr inbounds %"class.std::thread", ptr %71, i32 1, !dbg !3862
  store ptr %72, ptr %30, align 8, !dbg !3862
  %73 = call noundef nonnull align 8 dereferenceable(8) ptr @_ZNK9__gnu_cxx17__normal_iteratorIPSt6threadSt6vectorIS1_SaIS1_EEE4baseEv(ptr noundef nonnull align 8 dereferenceable(8) %20) #2, !dbg !3863
  %74 = load ptr, ptr %73, align 8, !dbg !3863
  %75 = load ptr, ptr %26, align 8, !dbg !3864
  %76 = load ptr, ptr %30, align 8, !dbg !3865
  %77 = call noundef nonnull align 1 dereferenceable(1) ptr @_ZNSt12_Vector_baseISt6threadSaIS0_EE19_M_get_Tp_allocatorEv(ptr noundef nonnull align 8 dereferenceable(24) %34) #2, !dbg !3866
  %78 = call noundef ptr @_ZNSt6vectorISt6threadSaIS0_EE11_S_relocateEPS0_S3_S3_RS1_(ptr noundef %74, ptr noundef %75, ptr noundef %76, ptr noundef nonnull align 1 dereferenceable(1) %77) #2, !dbg !3867
  store ptr %78, ptr %30, align 8, !dbg !3868
  br label %114, !dbg !3869

79:                                               ; preds = %4
  %80 = landingpad { ptr, i32 }
          catch ptr null, !dbg !3870
  %81 = extractvalue { ptr, i32 } %80, 0, !dbg !3870
  store ptr %81, ptr %31, align 8, !dbg !3870
  %82 = extractvalue { ptr, i32 } %80, 1, !dbg !3870
  store i32 %82, ptr %32, align 4, !dbg !3870
  br label %83, !dbg !3870

83:                                               ; preds = %79
  %84 = load ptr, ptr %31, align 8, !dbg !3869
  %85 = call ptr @__cxa_begin_catch(ptr %84) #2, !dbg !3869
  %86 = load ptr, ptr %30, align 8, !dbg !3871
  %87 = icmp ne ptr %86, null, !dbg !3871
  br i1 %87, label %97, label %88, !dbg !3874

88:                                               ; preds = %83
  %89 = getelementptr inbounds %"struct.std::_Vector_base", ptr %34, i32 0, i32 0, !dbg !3875
  %90 = load ptr, ptr %29, align 8, !dbg !3876
  %91 = load i64, ptr %27, align 8, !dbg !3877
  %92 = getelementptr inbounds %"class.std::thread", ptr %90, i64 %91, !dbg !3878
  store ptr %89, ptr %15, align 8
  call void @llvm.dbg.declare(metadata ptr %15, metadata !2868, metadata !DIExpression()), !dbg !3879
  store ptr %92, ptr %16, align 8
  call void @llvm.dbg.declare(metadata ptr %16, metadata !2876, metadata !DIExpression()), !dbg !3881
  %93 = load ptr, ptr %15, align 8, !dbg !3882
  %94 = load ptr, ptr %16, align 8, !dbg !3883
  store ptr %93, ptr %13, align 8
  call void @llvm.dbg.declare(metadata ptr %13, metadata !2880, metadata !DIExpression()), !dbg !3884
  store ptr %94, ptr %14, align 8
  call void @llvm.dbg.declare(metadata ptr %14, metadata !2887, metadata !DIExpression()), !dbg !3886
  %95 = load ptr, ptr %13, align 8
  %96 = load ptr, ptr %14, align 8, !dbg !3887
  call void @_ZNSt6threadD2Ev(ptr noundef nonnull align 8 dereferenceable(8) %96) #2, !dbg !3888
  br label %109, !dbg !3889

97:                                               ; preds = %83
  %98 = load ptr, ptr %29, align 8, !dbg !3890
  %99 = load ptr, ptr %30, align 8, !dbg !3891
  %100 = call noundef nonnull align 1 dereferenceable(1) ptr @_ZNSt12_Vector_baseISt6threadSaIS0_EE19_M_get_Tp_allocatorEv(ptr noundef nonnull align 8 dereferenceable(24) %34) #2, !dbg !3892
  store ptr %98, ptr %17, align 8
  call void @llvm.dbg.declare(metadata ptr %17, metadata !2339, metadata !DIExpression()), !dbg !3893
  store ptr %99, ptr %18, align 8
  call void @llvm.dbg.declare(metadata ptr %18, metadata !2347, metadata !DIExpression()), !dbg !3895
  store ptr %100, ptr %19, align 8
  call void @llvm.dbg.declare(metadata ptr %19, metadata !2349, metadata !DIExpression()), !dbg !3896
  %101 = load ptr, ptr %17, align 8, !dbg !3897
  %102 = load ptr, ptr %18, align 8, !dbg !3898
  invoke void @_ZSt8_DestroyIPSt6threadEvT_S2_(ptr noundef %101, ptr noundef %102)
          to label %103 unwind label %105, !dbg !3899

103:                                              ; preds = %97
  br label %104, !dbg !3900

104:                                              ; preds = %103
  br label %109

105:                                              ; preds = %97, %112, %109
  %106 = landingpad { ptr, i32 }
          cleanup, !dbg !3901
  %107 = extractvalue { ptr, i32 } %106, 0, !dbg !3901
  store ptr %107, ptr %31, align 8, !dbg !3901
  %108 = extractvalue { ptr, i32 } %106, 1, !dbg !3901
  store i32 %108, ptr %32, align 4, !dbg !3901
  invoke void @__cxa_end_catch()
          to label %113 unwind label %140, !dbg !3902

109:                                              ; preds = %104, %88
  %110 = load ptr, ptr %29, align 8, !dbg !3903
  %111 = load i64, ptr %24, align 8, !dbg !3904
  invoke void @_ZNSt12_Vector_baseISt6threadSaIS0_EE13_M_deallocateEPS0_m(ptr noundef nonnull align 8 dereferenceable(24) %34, ptr noundef %110, i64 noundef %111)
          to label %112 unwind label %105, !dbg !3905

112:                                              ; preds = %109
  invoke void @__cxa_rethrow() #18
          to label %143 unwind label %105, !dbg !3906

113:                                              ; preds = %105
  br label %135, !dbg !3902

114:                                              ; preds = %64
  %115 = load ptr, ptr %25, align 8, !dbg !3907
  %116 = getelementptr inbounds %"struct.std::_Vector_base", ptr %34, i32 0, i32 0, !dbg !3908
  %117 = getelementptr inbounds %"struct.std::_Vector_base<std::thread, std::allocator<std::thread>>::_Vector_impl_data", ptr %116, i32 0, i32 2, !dbg !3909
  %118 = load ptr, ptr %117, align 8, !dbg !3909
  %119 = load ptr, ptr %25, align 8, !dbg !3910
  %120 = ptrtoint ptr %118 to i64, !dbg !3911
  %121 = ptrtoint ptr %119 to i64, !dbg !3911
  %122 = sub i64 %120, %121, !dbg !3911
  %123 = sdiv exact i64 %122, 8, !dbg !3911
  call void @_ZNSt12_Vector_baseISt6threadSaIS0_EE13_M_deallocateEPS0_m(ptr noundef nonnull align 8 dereferenceable(24) %34, ptr noundef %115, i64 noundef %123), !dbg !3912
  %124 = load ptr, ptr %29, align 8, !dbg !3913
  %125 = getelementptr inbounds %"struct.std::_Vector_base", ptr %34, i32 0, i32 0, !dbg !3914
  %126 = getelementptr inbounds %"struct.std::_Vector_base<std::thread, std::allocator<std::thread>>::_Vector_impl_data", ptr %125, i32 0, i32 0, !dbg !3915
  store ptr %124, ptr %126, align 8, !dbg !3916
  %127 = load ptr, ptr %30, align 8, !dbg !3917
  %128 = getelementptr inbounds %"struct.std::_Vector_base", ptr %34, i32 0, i32 0, !dbg !3918
  %129 = getelementptr inbounds %"struct.std::_Vector_base<std::thread, std::allocator<std::thread>>::_Vector_impl_data", ptr %128, i32 0, i32 1, !dbg !3919
  store ptr %127, ptr %129, align 8, !dbg !3920
  %130 = load ptr, ptr %29, align 8, !dbg !3921
  %131 = load i64, ptr %24, align 8, !dbg !3922
  %132 = getelementptr inbounds %"class.std::thread", ptr %130, i64 %131, !dbg !3923
  %133 = getelementptr inbounds %"struct.std::_Vector_base", ptr %34, i32 0, i32 0, !dbg !3924
  %134 = getelementptr inbounds %"struct.std::_Vector_base<std::thread, std::allocator<std::thread>>::_Vector_impl_data", ptr %133, i32 0, i32 2, !dbg !3925
  store ptr %132, ptr %134, align 8, !dbg !3926
  ret void, !dbg !3927

135:                                              ; preds = %113
  %136 = load ptr, ptr %31, align 8, !dbg !3902
  %137 = load i32, ptr %32, align 4, !dbg !3902
  %138 = insertvalue { ptr, i32 } poison, ptr %136, 0, !dbg !3902
  %139 = insertvalue { ptr, i32 } %138, i32 %137, 1, !dbg !3902
  resume { ptr, i32 } %139, !dbg !3902

140:                                              ; preds = %105
  %141 = landingpad { ptr, i32 }
          catch ptr null, !dbg !3902
  %142 = extractvalue { ptr, i32 } %141, 0, !dbg !3902
  call void @__clang_call_terminate(ptr %142) #15, !dbg !3902
  unreachable, !dbg !3902

143:                                              ; preds = %112
  unreachable
}

; Function Attrs: noinline optnone uwtable
define linkonce_odr dso_local void @_ZNSt6threadC2IRFvPiEJS1_EvEEOT_DpOT0_(ptr noundef nonnull align 8 dereferenceable(8) %0, ptr noundef nonnull %1, ptr noundef nonnull align 8 dereferenceable(8) %2) unnamed_addr #12 comdat align 2 personality ptr @__gxx_personality_v0 !dbg !3928 {
  %4 = alloca ptr, align 8
  %5 = alloca ptr, align 8
  %6 = alloca ptr, align 8
  %7 = alloca %"class.std::unique_ptr", align 8
  %8 = alloca ptr, align 8
  %9 = alloca i32, align 4
  store ptr %0, ptr %4, align 8
  call void @llvm.dbg.declare(metadata ptr %4, metadata !3934, metadata !DIExpression()), !dbg !3935
  store ptr %1, ptr %5, align 8
  call void @llvm.dbg.declare(metadata ptr %5, metadata !3936, metadata !DIExpression()), !dbg !3937
  store ptr %2, ptr %6, align 8
  call void @llvm.dbg.declare(metadata ptr %6, metadata !3938, metadata !DIExpression()), !dbg !3939
  %10 = load ptr, ptr %4, align 8
  %11 = getelementptr inbounds %"class.std::thread", ptr %10, i32 0, i32 0, !dbg !3940
  call void @_ZNSt6thread2idC2Ev(ptr noundef nonnull align 8 dereferenceable(8) %11) #2, !dbg !3940
  %12 = call noalias noundef nonnull ptr @_Znwm(i64 noundef 24) #17, !dbg !3941, !heapallocsite !3943
  %13 = load ptr, ptr %5, align 8, !dbg !3953
  %14 = load ptr, ptr %6, align 8, !dbg !3954
  invoke void @_ZNSt6thread11_State_implINS_8_InvokerISt5tupleIJPFvPiES3_EEEEEC2IJRS4_S3_EEEDpOT_(ptr noundef nonnull align 8 dereferenceable(24) %12, ptr noundef nonnull %13, ptr noundef nonnull align 8 dereferenceable(8) %14)
          to label %15 unwind label %17, !dbg !3955

15:                                               ; preds = %3
  call void @_ZNSt10unique_ptrINSt6thread6_StateESt14default_deleteIS1_EEC2IS3_vEEPS1_(ptr noundef nonnull align 8 dereferenceable(8) %7, ptr noundef %12) #2, !dbg !3956
  invoke void @_ZNSt6thread15_M_start_threadESt10unique_ptrINS_6_StateESt14default_deleteIS1_EEPFvvE(ptr noundef nonnull align 8 dereferenceable(8) %10, ptr noundef %7, ptr noundef @_ZNSt6thread24_M_thread_deps_never_runEv)
          to label %16 unwind label %21, !dbg !3957

16:                                               ; preds = %15
  call void @_ZNSt10unique_ptrINSt6thread6_StateESt14default_deleteIS1_EED2Ev(ptr noundef nonnull align 8 dereferenceable(8) %7) #2, !dbg !3957
  ret void, !dbg !3958

17:                                               ; preds = %3
  %18 = landingpad { ptr, i32 }
          cleanup, !dbg !3959
  %19 = extractvalue { ptr, i32 } %18, 0, !dbg !3959
  store ptr %19, ptr %8, align 8, !dbg !3959
  %20 = extractvalue { ptr, i32 } %18, 1, !dbg !3959
  store i32 %20, ptr %9, align 4, !dbg !3959
  call void @_ZdlPv(ptr noundef %12) #16, !dbg !3941
  br label %25, !dbg !3941

21:                                               ; preds = %15
  %22 = landingpad { ptr, i32 }
          cleanup, !dbg !3959
  %23 = extractvalue { ptr, i32 } %22, 0, !dbg !3959
  store ptr %23, ptr %8, align 8, !dbg !3959
  %24 = extractvalue { ptr, i32 } %22, 1, !dbg !3959
  store i32 %24, ptr %9, align 4, !dbg !3959
  call void @_ZNSt10unique_ptrINSt6thread6_StateESt14default_deleteIS1_EED2Ev(ptr noundef nonnull align 8 dereferenceable(8) %7) #2, !dbg !3957
  br label %25, !dbg !3957

25:                                               ; preds = %21, %17
  %26 = load ptr, ptr %8, align 8, !dbg !3941
  %27 = load i32, ptr %9, align 4, !dbg !3941
  %28 = insertvalue { ptr, i32 } poison, ptr %26, 0, !dbg !3941
  %29 = insertvalue { ptr, i32 } %28, i32 %27, 1, !dbg !3941
  resume { ptr, i32 } %29, !dbg !3941
}

; Function Attrs: noinline optnone uwtable
define linkonce_odr dso_local void @_ZNSt6thread11_State_implINS_8_InvokerISt5tupleIJPFvPiES3_EEEEEC2IJRS4_S3_EEEDpOT_(ptr noundef nonnull align 8 dereferenceable(24) %0, ptr noundef nonnull %1, ptr noundef nonnull align 8 dereferenceable(8) %2) unnamed_addr #12 comdat align 2 personality ptr @__gxx_personality_v0 !dbg !3960 {
  %4 = alloca ptr, align 8
  %5 = alloca ptr, align 8
  %6 = alloca ptr, align 8
  %7 = alloca ptr, align 8
  %8 = alloca i32, align 4
  store ptr %0, ptr %4, align 8
  call void @llvm.dbg.declare(metadata ptr %4, metadata !3964, metadata !DIExpression()), !dbg !3966
  store ptr %1, ptr %5, align 8
  call void @llvm.dbg.declare(metadata ptr %5, metadata !3967, metadata !DIExpression()), !dbg !3968
  store ptr %2, ptr %6, align 8
  call void @llvm.dbg.declare(metadata ptr %6, metadata !3969, metadata !DIExpression()), !dbg !3968
  %9 = load ptr, ptr %4, align 8
  call void @_ZNSt6thread6_StateC2Ev(ptr noundef nonnull align 8 dereferenceable(8) %9) #2, !dbg !3970
  store ptr getelementptr inbounds ({ [5 x ptr] }, ptr @_ZTVNSt6thread11_State_implINS_8_InvokerISt5tupleIJPFvPiES3_EEEEEE, i32 0, inrange i32 0, i32 2), ptr %9, align 8, !dbg !3971
  %10 = getelementptr inbounds %"struct.std::thread::_State_impl.7", ptr %9, i32 0, i32 1, !dbg !3972
  %11 = load ptr, ptr %5, align 8, !dbg !3973
  %12 = load ptr, ptr %6, align 8, !dbg !3973
  invoke void @_ZNSt6thread8_InvokerISt5tupleIJPFvPiES2_EEEC2IJRS3_S2_EEEDpOT_(ptr noundef nonnull align 8 dereferenceable(16) %10, ptr noundef nonnull %11, ptr noundef nonnull align 8 dereferenceable(8) %12)
          to label %13 unwind label %14, !dbg !3972

13:                                               ; preds = %3
  ret void, !dbg !3974

14:                                               ; preds = %3
  %15 = landingpad { ptr, i32 }
          cleanup, !dbg !3974
  %16 = extractvalue { ptr, i32 } %15, 0, !dbg !3974
  store ptr %16, ptr %7, align 8, !dbg !3974
  %17 = extractvalue { ptr, i32 } %15, 1, !dbg !3974
  store i32 %17, ptr %8, align 4, !dbg !3974
  call void @_ZNSt6thread6_StateD2Ev(ptr noundef nonnull align 8 dereferenceable(8) %9) #2, !dbg !3975
  br label %18, !dbg !3975

18:                                               ; preds = %14
  %19 = load ptr, ptr %7, align 8, !dbg !3975
  %20 = load i32, ptr %8, align 4, !dbg !3975
  %21 = insertvalue { ptr, i32 } poison, ptr %19, 0, !dbg !3975
  %22 = insertvalue { ptr, i32 } %21, i32 %20, 1, !dbg !3975
  resume { ptr, i32 } %22, !dbg !3975
}

; Function Attrs: noinline nounwind optnone uwtable
define linkonce_odr dso_local void @_ZNSt6thread8_InvokerISt5tupleIJPFvPiES2_EEEC2IJRS3_S2_EEEDpOT_(ptr noundef nonnull align 8 dereferenceable(16) %0, ptr noundef nonnull %1, ptr noundef nonnull align 8 dereferenceable(8) %2) unnamed_addr #1 comdat align 2 !dbg !3977 {
  %4 = alloca ptr, align 8
  %5 = alloca ptr, align 8
  %6 = alloca ptr, align 8
  store ptr %0, ptr %4, align 8
  call void @llvm.dbg.declare(metadata ptr %4, metadata !3981, metadata !DIExpression()), !dbg !3983
  store ptr %1, ptr %5, align 8
  call void @llvm.dbg.declare(metadata ptr %5, metadata !3984, metadata !DIExpression()), !dbg !3985
  store ptr %2, ptr %6, align 8
  call void @llvm.dbg.declare(metadata ptr %6, metadata !3986, metadata !DIExpression()), !dbg !3985
  %7 = load ptr, ptr %4, align 8
  %8 = getelementptr inbounds %"struct.std::thread::_Invoker.8", ptr %7, i32 0, i32 0, !dbg !3987
  %9 = load ptr, ptr %5, align 8, !dbg !3988
  %10 = load ptr, ptr %6, align 8, !dbg !3988
  call void @_ZNSt5tupleIJPFvPiES0_EEC2IRS1_S0_Lb1EEEOT_OT0_(ptr noundef nonnull align 8 dereferenceable(16) %8, ptr noundef nonnull %9, ptr noundef nonnull align 8 dereferenceable(8) %10) #2, !dbg !3987
  ret void, !dbg !3989
}

; Function Attrs: noinline nounwind optnone uwtable
define linkonce_odr dso_local void @_ZNSt6thread11_State_implINS_8_InvokerISt5tupleIJPFvPiES3_EEEEED2Ev(ptr noundef nonnull align 8 dereferenceable(24) %0) unnamed_addr #1 comdat align 2 !dbg !3990 {
  %2 = alloca ptr, align 8
  store ptr %0, ptr %2, align 8
  call void @llvm.dbg.declare(metadata ptr %2, metadata !3992, metadata !DIExpression()), !dbg !3993
  %3 = load ptr, ptr %2, align 8
  call void @_ZNSt6thread6_StateD2Ev(ptr noundef nonnull align 8 dereferenceable(8) %3) #2, !dbg !3994
  ret void, !dbg !3996
}

; Function Attrs: noinline nounwind optnone uwtable
define linkonce_odr dso_local void @_ZNSt6thread11_State_implINS_8_InvokerISt5tupleIJPFvPiES3_EEEEED0Ev(ptr noundef nonnull align 8 dereferenceable(24) %0) unnamed_addr #1 comdat align 2 !dbg !3997 {
  %2 = alloca ptr, align 8
  store ptr %0, ptr %2, align 8
  call void @llvm.dbg.declare(metadata ptr %2, metadata !3998, metadata !DIExpression()), !dbg !3999
  %3 = load ptr, ptr %2, align 8
  call void @_ZNSt6thread11_State_implINS_8_InvokerISt5tupleIJPFvPiES3_EEEEED2Ev(ptr noundef nonnull align 8 dereferenceable(24) %3) #2, !dbg !4000
  call void @_ZdlPv(ptr noundef %3) #16, !dbg !4000
  ret void, !dbg !4000
}

; Function Attrs: mustprogress noinline optnone uwtable
define linkonce_odr dso_local void @_ZNSt6thread11_State_implINS_8_InvokerISt5tupleIJPFvPiES3_EEEEE6_M_runEv(ptr noundef nonnull align 8 dereferenceable(24) %0) unnamed_addr #3 comdat align 2 !dbg !4001 {
  %2 = alloca ptr, align 8
  store ptr %0, ptr %2, align 8
  call void @llvm.dbg.declare(metadata ptr %2, metadata !4002, metadata !DIExpression()), !dbg !4003
  %3 = load ptr, ptr %2, align 8
  %4 = getelementptr inbounds %"struct.std::thread::_State_impl.7", ptr %3, i32 0, i32 1, !dbg !4004
  call void @_ZNSt6thread8_InvokerISt5tupleIJPFvPiES2_EEEclEv(ptr noundef nonnull align 8 dereferenceable(16) %4), !dbg !4004
  ret void, !dbg !4005
}

; Function Attrs: noinline nounwind optnone uwtable
define linkonce_odr dso_local void @_ZNSt5tupleIJPFvPiES0_EEC2IRS1_S0_Lb1EEEOT_OT0_(ptr noundef nonnull align 8 dereferenceable(16) %0, ptr noundef nonnull %1, ptr noundef nonnull align 8 dereferenceable(8) %2) unnamed_addr #1 comdat align 2 personality ptr @__gxx_personality_v0 !dbg !4006 {
  %4 = alloca ptr, align 8
  %5 = alloca ptr, align 8
  %6 = alloca ptr, align 8
  store ptr %0, ptr %4, align 8
  call void @llvm.dbg.declare(metadata ptr %4, metadata !4013, metadata !DIExpression()), !dbg !4015
  store ptr %1, ptr %5, align 8
  call void @llvm.dbg.declare(metadata ptr %5, metadata !4016, metadata !DIExpression()), !dbg !4017
  store ptr %2, ptr %6, align 8
  call void @llvm.dbg.declare(metadata ptr %6, metadata !4018, metadata !DIExpression()), !dbg !4019
  %7 = load ptr, ptr %4, align 8
  %8 = load ptr, ptr %5, align 8, !dbg !4020
  %9 = load ptr, ptr %6, align 8, !dbg !4021
  invoke void @_ZNSt11_Tuple_implILm0EJPFvPiES0_EEC2IRS1_JS0_EvEEOT_DpOT0_(ptr noundef nonnull align 8 dereferenceable(16) %7, ptr noundef nonnull %8, ptr noundef nonnull align 8 dereferenceable(8) %9)
          to label %10 unwind label %11, !dbg !4022

10:                                               ; preds = %3
  ret void, !dbg !4023

11:                                               ; preds = %3
  %12 = landingpad { ptr, i32 }
          catch ptr null, !dbg !4022
  %13 = extractvalue { ptr, i32 } %12, 0, !dbg !4022
  call void @__clang_call_terminate(ptr %13) #15, !dbg !4022
  unreachable, !dbg !4022
}

; Function Attrs: noinline optnone uwtable
define linkonce_odr dso_local void @_ZNSt11_Tuple_implILm0EJPFvPiES0_EEC2IRS1_JS0_EvEEOT_DpOT0_(ptr noundef nonnull align 8 dereferenceable(16) %0, ptr noundef nonnull %1, ptr noundef nonnull align 8 dereferenceable(8) %2) unnamed_addr #12 comdat align 2 !dbg !4024 {
  %4 = alloca ptr, align 8
  %5 = alloca ptr, align 8
  %6 = alloca ptr, align 8
  %7 = alloca ptr, align 8
  store ptr %0, ptr %4, align 8
  call void @llvm.dbg.declare(metadata ptr %4, metadata !4031, metadata !DIExpression()), !dbg !4033
  store ptr %1, ptr %5, align 8
  call void @llvm.dbg.declare(metadata ptr %5, metadata !4034, metadata !DIExpression()), !dbg !4035
  store ptr %2, ptr %6, align 8
  call void @llvm.dbg.declare(metadata ptr %6, metadata !4036, metadata !DIExpression()), !dbg !4037
  %8 = load ptr, ptr %4, align 8
  %9 = load ptr, ptr %6, align 8, !dbg !4038
  call void @_ZNSt11_Tuple_implILm1EJPiEEC2IS0_EEOT_(ptr noundef nonnull align 8 dereferenceable(8) %8, ptr noundef nonnull align 8 dereferenceable(8) %9), !dbg !4039
  %10 = getelementptr inbounds i8, ptr %8, i64 8, !dbg !4040
  %11 = load ptr, ptr %5, align 8, !dbg !4041
  store ptr %11, ptr %7, align 8, !dbg !4042
  call void @_ZNSt10_Head_baseILm0EPFvPiELb0EEC2ERKS2_(ptr noundef nonnull align 8 dereferenceable(8) %10, ptr noundef nonnull align 8 dereferenceable(8) %7), !dbg !4043
  ret void, !dbg !4044
}

; Function Attrs: noinline optnone uwtable
define linkonce_odr dso_local void @_ZNSt11_Tuple_implILm1EJPiEEC2IS0_EEOT_(ptr noundef nonnull align 8 dereferenceable(8) %0, ptr noundef nonnull align 8 dereferenceable(8) %1) unnamed_addr #12 comdat align 2 !dbg !4045 {
  %3 = alloca ptr, align 8
  %4 = alloca ptr, align 8
  store ptr %0, ptr %3, align 8
  call void @llvm.dbg.declare(metadata ptr %3, metadata !4051, metadata !DIExpression()), !dbg !4053
  store ptr %1, ptr %4, align 8
  call void @llvm.dbg.declare(metadata ptr %4, metadata !4054, metadata !DIExpression()), !dbg !4055
  %5 = load ptr, ptr %3, align 8
  %6 = load ptr, ptr %4, align 8, !dbg !4056
  call void @_ZNSt10_Head_baseILm1EPiLb0EEC2IS0_EEOT_(ptr noundef nonnull align 8 dereferenceable(8) %5, ptr noundef nonnull align 8 dereferenceable(8) %6), !dbg !4057
  ret void, !dbg !4058
}

; Function Attrs: noinline nounwind optnone uwtable
define linkonce_odr dso_local void @_ZNSt10_Head_baseILm0EPFvPiELb0EEC2ERKS2_(ptr noundef nonnull align 8 dereferenceable(8) %0, ptr noundef nonnull align 8 dereferenceable(8) %1) unnamed_addr #1 comdat align 2 !dbg !4059 {
  %3 = alloca ptr, align 8
  %4 = alloca ptr, align 8
  store ptr %0, ptr %3, align 8
  call void @llvm.dbg.declare(metadata ptr %3, metadata !4060, metadata !DIExpression()), !dbg !4062
  store ptr %1, ptr %4, align 8
  call void @llvm.dbg.declare(metadata ptr %4, metadata !4063, metadata !DIExpression()), !dbg !4064
  %5 = load ptr, ptr %3, align 8
  %6 = getelementptr inbounds %"struct.std::_Head_base.13", ptr %5, i32 0, i32 0, !dbg !4065
  %7 = load ptr, ptr %4, align 8, !dbg !4066
  %8 = load ptr, ptr %7, align 8, !dbg !4066
  store ptr %8, ptr %6, align 8, !dbg !4065
  ret void, !dbg !4067
}

; Function Attrs: noinline nounwind optnone uwtable
define linkonce_odr dso_local void @_ZNSt10_Head_baseILm1EPiLb0EEC2IS0_EEOT_(ptr noundef nonnull align 8 dereferenceable(8) %0, ptr noundef nonnull align 8 dereferenceable(8) %1) unnamed_addr #1 comdat align 2 !dbg !4068 {
  %3 = alloca ptr, align 8
  %4 = alloca ptr, align 8
  store ptr %0, ptr %3, align 8
  call void @llvm.dbg.declare(metadata ptr %3, metadata !4072, metadata !DIExpression()), !dbg !4074
  store ptr %1, ptr %4, align 8
  call void @llvm.dbg.declare(metadata ptr %4, metadata !4075, metadata !DIExpression()), !dbg !4076
  %5 = load ptr, ptr %3, align 8
  %6 = getelementptr inbounds %"struct.std::_Head_base.12", ptr %5, i32 0, i32 0, !dbg !4077
  %7 = load ptr, ptr %4, align 8, !dbg !4078
  %8 = load ptr, ptr %7, align 8, !dbg !4079
  store ptr %8, ptr %6, align 8, !dbg !4077
  ret void, !dbg !4080
}

; Function Attrs: mustprogress noinline optnone uwtable
define linkonce_odr dso_local void @_ZNSt6thread8_InvokerISt5tupleIJPFvPiES2_EEEclEv(ptr noundef nonnull align 8 dereferenceable(16) %0) #3 comdat align 2 !dbg !4081 {
  %2 = alloca ptr, align 8
  %3 = alloca %"struct.std::_Index_tuple", align 1
  store ptr %0, ptr %2, align 8
  call void @llvm.dbg.declare(metadata ptr %2, metadata !4082, metadata !DIExpression()), !dbg !4083
  %4 = load ptr, ptr %2, align 8
  call void @_ZNSt6thread8_InvokerISt5tupleIJPFvPiES2_EEE9_M_invokeIJLm0ELm1EEEEvSt12_Index_tupleIJXspT_EEE(ptr noundef nonnull align 8 dereferenceable(16) %4), !dbg !4084
  ret void, !dbg !4085
}

; Function Attrs: mustprogress noinline optnone uwtable
define linkonce_odr dso_local void @_ZNSt6thread8_InvokerISt5tupleIJPFvPiES2_EEE9_M_invokeIJLm0ELm1EEEEvSt12_Index_tupleIJXspT_EEE(ptr noundef nonnull align 8 dereferenceable(16) %0) #3 comdat align 2 !dbg !4086 {
  %2 = alloca %"struct.std::_Index_tuple", align 1
  %3 = alloca ptr, align 8
  store ptr %0, ptr %3, align 8
  call void @llvm.dbg.declare(metadata ptr %3, metadata !4090, metadata !DIExpression()), !dbg !4091
  call void @llvm.dbg.declare(metadata ptr %2, metadata !4092, metadata !DIExpression()), !dbg !4093
  %4 = load ptr, ptr %3, align 8
  %5 = getelementptr inbounds %"struct.std::thread::_Invoker.8", ptr %4, i32 0, i32 0, !dbg !4094
  %6 = call noundef nonnull align 8 dereferenceable(8) ptr @_ZSt3getILm0EJPFvPiES0_EEONSt13tuple_elementIXT_ESt5tupleIJDpT0_EEE4typeEOS7_(ptr noundef nonnull align 8 dereferenceable(16) %5) #2, !dbg !4095
  %7 = getelementptr inbounds %"struct.std::thread::_Invoker.8", ptr %4, i32 0, i32 0, !dbg !4094
  %8 = call noundef nonnull align 8 dereferenceable(8) ptr @_ZSt3getILm1EJPFvPiES0_EEONSt13tuple_elementIXT_ESt5tupleIJDpT0_EEE4typeEOS7_(ptr noundef nonnull align 8 dereferenceable(16) %7) #2, !dbg !4095
  call void @_ZSt8__invokeIPFvPiEJS0_EENSt15__invoke_resultIT_JDpT0_EE4typeEOS4_DpOS5_(ptr noundef nonnull align 8 dereferenceable(8) %6, ptr noundef nonnull align 8 dereferenceable(8) %8), !dbg !4096
  ret void, !dbg !4097
}

; Function Attrs: mustprogress noinline optnone uwtable
define linkonce_odr dso_local void @_ZSt8__invokeIPFvPiEJS0_EENSt15__invoke_resultIT_JDpT0_EE4typeEOS4_DpOS5_(ptr noundef nonnull align 8 dereferenceable(8) %0, ptr noundef nonnull align 8 dereferenceable(8) %1) #3 comdat !dbg !1001 {
  %3 = alloca ptr, align 8
  %4 = alloca ptr, align 8
  %5 = alloca %"struct.std::__invoke_other", align 1
  store ptr %0, ptr %3, align 8
  call void @llvm.dbg.declare(metadata ptr %3, metadata !4098, metadata !DIExpression()), !dbg !4099
  store ptr %1, ptr %4, align 8
  call void @llvm.dbg.declare(metadata ptr %4, metadata !4100, metadata !DIExpression()), !dbg !4101
  %6 = load ptr, ptr %3, align 8, !dbg !4102
  %7 = load ptr, ptr %4, align 8, !dbg !4103
  call void @_ZSt13__invoke_implIvPFvPiEJS0_EET_St14__invoke_otherOT0_DpOT1_(ptr noundef nonnull align 8 dereferenceable(8) %6, ptr noundef nonnull align 8 dereferenceable(8) %7), !dbg !4104
  ret void, !dbg !4105
}

; Function Attrs: mustprogress noinline nounwind optnone uwtable
define linkonce_odr dso_local noundef nonnull align 8 dereferenceable(8) ptr @_ZSt3getILm0EJPFvPiES0_EEONSt13tuple_elementIXT_ESt5tupleIJDpT0_EEE4typeEOS7_(ptr noundef nonnull align 8 dereferenceable(16) %0) #9 comdat !dbg !4106 {
  %2 = alloca ptr, align 8
  store ptr %0, ptr %2, align 8
  call void @llvm.dbg.declare(metadata ptr %2, metadata !4120, metadata !DIExpression()), !dbg !4121
  %3 = load ptr, ptr %2, align 8, !dbg !4122
  %4 = call noundef nonnull align 8 dereferenceable(8) ptr @_ZSt12__get_helperILm0EPFvPiEJS0_EERT0_RSt11_Tuple_implIXT_EJS3_DpT1_EE(ptr noundef nonnull align 8 dereferenceable(16) %3) #2, !dbg !4123
  ret ptr %4, !dbg !4124
}

; Function Attrs: mustprogress noinline nounwind optnone uwtable
define linkonce_odr dso_local noundef nonnull align 8 dereferenceable(8) ptr @_ZSt3getILm1EJPFvPiES0_EEONSt13tuple_elementIXT_ESt5tupleIJDpT0_EEE4typeEOS7_(ptr noundef nonnull align 8 dereferenceable(16) %0) #9 comdat !dbg !4125 {
  %2 = alloca ptr, align 8
  store ptr %0, ptr %2, align 8
  call void @llvm.dbg.declare(metadata ptr %2, metadata !4137, metadata !DIExpression()), !dbg !4138
  %3 = load ptr, ptr %2, align 8, !dbg !4139
  %4 = call noundef nonnull align 8 dereferenceable(8) ptr @_ZSt12__get_helperILm1EPiJEERT0_RSt11_Tuple_implIXT_EJS1_DpT1_EE(ptr noundef nonnull align 8 dereferenceable(8) %3) #2, !dbg !4140
  ret ptr %4, !dbg !4141
}

; Function Attrs: mustprogress noinline optnone uwtable
define linkonce_odr dso_local void @_ZSt13__invoke_implIvPFvPiEJS0_EET_St14__invoke_otherOT0_DpOT1_(ptr noundef nonnull align 8 dereferenceable(8) %0, ptr noundef nonnull align 8 dereferenceable(8) %1) #3 comdat !dbg !4142 {
  %3 = alloca %"struct.std::__invoke_other", align 1
  %4 = alloca ptr, align 8
  %5 = alloca ptr, align 8
  call void @llvm.dbg.declare(metadata ptr %3, metadata !4147, metadata !DIExpression()), !dbg !4148
  store ptr %0, ptr %4, align 8
  call void @llvm.dbg.declare(metadata ptr %4, metadata !4149, metadata !DIExpression()), !dbg !4150
  store ptr %1, ptr %5, align 8
  call void @llvm.dbg.declare(metadata ptr %5, metadata !4151, metadata !DIExpression()), !dbg !4152
  %6 = load ptr, ptr %4, align 8, !dbg !4153
  %7 = load ptr, ptr %6, align 8, !dbg !4154
  %8 = load ptr, ptr %5, align 8, !dbg !4155
  %9 = load ptr, ptr %8, align 8, !dbg !4156
  call void %7(ptr noundef %9), !dbg !4154
  ret void, !dbg !4157
}

; Function Attrs: mustprogress noinline nounwind optnone uwtable
define linkonce_odr dso_local noundef nonnull align 8 dereferenceable(8) ptr @_ZSt12__get_helperILm0EPFvPiEJS0_EERT0_RSt11_Tuple_implIXT_EJS3_DpT1_EE(ptr noundef nonnull align 8 dereferenceable(16) %0) #9 comdat !dbg !4158 {
  %2 = alloca ptr, align 8
  store ptr %0, ptr %2, align 8
  call void @llvm.dbg.declare(metadata ptr %2, metadata !4161, metadata !DIExpression()), !dbg !4162
  %3 = load ptr, ptr %2, align 8, !dbg !4163
  %4 = call noundef nonnull align 8 dereferenceable(8) ptr @_ZNSt11_Tuple_implILm0EJPFvPiES0_EE7_M_headERS3_(ptr noundef nonnull align 8 dereferenceable(16) %3) #2, !dbg !4164
  ret ptr %4, !dbg !4165
}

; Function Attrs: mustprogress noinline nounwind optnone uwtable
define linkonce_odr dso_local noundef nonnull align 8 dereferenceable(8) ptr @_ZNSt11_Tuple_implILm0EJPFvPiES0_EE7_M_headERS3_(ptr noundef nonnull align 8 dereferenceable(16) %0) #9 comdat align 2 !dbg !4166 {
  %2 = alloca ptr, align 8
  store ptr %0, ptr %2, align 8
  call void @llvm.dbg.declare(metadata ptr %2, metadata !4167, metadata !DIExpression()), !dbg !4168
  %3 = load ptr, ptr %2, align 8, !dbg !4169
  %4 = getelementptr inbounds i8, ptr %3, i64 8, !dbg !4169
  %5 = call noundef nonnull align 8 dereferenceable(8) ptr @_ZNSt10_Head_baseILm0EPFvPiELb0EE7_M_headERS3_(ptr noundef nonnull align 8 dereferenceable(8) %4) #2, !dbg !4170
  ret ptr %5, !dbg !4171
}

; Function Attrs: mustprogress noinline nounwind optnone uwtable
define linkonce_odr dso_local noundef nonnull align 8 dereferenceable(8) ptr @_ZNSt10_Head_baseILm0EPFvPiELb0EE7_M_headERS3_(ptr noundef nonnull align 8 dereferenceable(8) %0) #9 comdat align 2 !dbg !4172 {
  %2 = alloca ptr, align 8
  store ptr %0, ptr %2, align 8
  call void @llvm.dbg.declare(metadata ptr %2, metadata !4173, metadata !DIExpression()), !dbg !4174
  %3 = load ptr, ptr %2, align 8, !dbg !4175
  %4 = getelementptr inbounds %"struct.std::_Head_base.13", ptr %3, i32 0, i32 0, !dbg !4176
  ret ptr %4, !dbg !4177
}

; Function Attrs: mustprogress noinline nounwind optnone uwtable
define linkonce_odr dso_local noundef nonnull align 8 dereferenceable(8) ptr @_ZSt12__get_helperILm1EPiJEERT0_RSt11_Tuple_implIXT_EJS1_DpT1_EE(ptr noundef nonnull align 8 dereferenceable(8) %0) #9 comdat !dbg !4178 {
  %2 = alloca ptr, align 8
  store ptr %0, ptr %2, align 8
  call void @llvm.dbg.declare(metadata ptr %2, metadata !4180, metadata !DIExpression()), !dbg !4181
  %3 = load ptr, ptr %2, align 8, !dbg !4182
  %4 = call noundef nonnull align 8 dereferenceable(8) ptr @_ZNSt11_Tuple_implILm1EJPiEE7_M_headERS1_(ptr noundef nonnull align 8 dereferenceable(8) %3) #2, !dbg !4183
  ret ptr %4, !dbg !4184
}

; Function Attrs: mustprogress noinline nounwind optnone uwtable
define linkonce_odr dso_local noundef nonnull align 8 dereferenceable(8) ptr @_ZNSt11_Tuple_implILm1EJPiEE7_M_headERS1_(ptr noundef nonnull align 8 dereferenceable(8) %0) #9 comdat align 2 !dbg !4185 {
  %2 = alloca ptr, align 8
  store ptr %0, ptr %2, align 8
  call void @llvm.dbg.declare(metadata ptr %2, metadata !4186, metadata !DIExpression()), !dbg !4187
  %3 = load ptr, ptr %2, align 8, !dbg !4188
  %4 = call noundef nonnull align 8 dereferenceable(8) ptr @_ZNSt10_Head_baseILm1EPiLb0EE7_M_headERS1_(ptr noundef nonnull align 8 dereferenceable(8) %3) #2, !dbg !4189
  ret ptr %4, !dbg !4190
}

; Function Attrs: mustprogress noinline nounwind optnone uwtable
define linkonce_odr dso_local noundef nonnull align 8 dereferenceable(8) ptr @_ZNSt10_Head_baseILm1EPiLb0EE7_M_headERS1_(ptr noundef nonnull align 8 dereferenceable(8) %0) #9 comdat align 2 !dbg !4191 {
  %2 = alloca ptr, align 8
  store ptr %0, ptr %2, align 8
  call void @llvm.dbg.declare(metadata ptr %2, metadata !4192, metadata !DIExpression()), !dbg !4193
  %3 = load ptr, ptr %2, align 8, !dbg !4194
  %4 = getelementptr inbounds %"struct.std::_Head_base.12", ptr %3, i32 0, i32 0, !dbg !4195
  ret ptr %4, !dbg !4196
}

; Function Attrs: noinline uwtable
define internal void @_GLOBAL__sub_I_gpt.cpp() #0 section ".text.startup" !dbg !4197 {
  call void @__cxx_global_var_init(), !dbg !4199
  ret void
}

attributes #0 = { noinline uwtable "frame-pointer"="all" "min-legal-vector-width"="0" "no-trapping-math"="true" "stack-protector-buffer-size"="8" "target-cpu"="x86-64" "target-features"="+cx8,+fxsr,+mmx,+sse,+sse2,+x87" "tune-cpu"="generic" }
attributes #1 = { noinline nounwind optnone uwtable "frame-pointer"="all" "min-legal-vector-width"="0" "no-trapping-math"="true" "stack-protector-buffer-size"="8" "target-cpu"="x86-64" "target-features"="+cx8,+fxsr,+mmx,+sse,+sse2,+x87" "tune-cpu"="generic" }
attributes #2 = { nounwind }
attributes #3 = { mustprogress noinline optnone uwtable "frame-pointer"="all" "min-legal-vector-width"="0" "no-trapping-math"="true" "stack-protector-buffer-size"="8" "target-cpu"="x86-64" "target-features"="+cx8,+fxsr,+mmx,+sse,+sse2,+x87" "tune-cpu"="generic" }
attributes #4 = { nocallback nofree nosync nounwind speculatable willreturn memory(none) }
attributes #5 = { "frame-pointer"="all" "no-trapping-math"="true" "stack-protector-buffer-size"="8" "target-cpu"="x86-64" "target-features"="+cx8,+fxsr,+mmx,+sse,+sse2,+x87" "tune-cpu"="generic" }
attributes #6 = { nobuiltin nounwind "frame-pointer"="all" "no-trapping-math"="true" "stack-protector-buffer-size"="8" "target-cpu"="x86-64" "target-features"="+cx8,+fxsr,+mmx,+sse,+sse2,+x87" "tune-cpu"="generic" }
attributes #7 = { nobuiltin allocsize(0) "frame-pointer"="all" "no-trapping-math"="true" "stack-protector-buffer-size"="8" "target-cpu"="x86-64" "target-features"="+cx8,+fxsr,+mmx,+sse,+sse2,+x87" "tune-cpu"="generic" }
attributes #8 = { mustprogress noinline norecurse optnone uwtable "frame-pointer"="all" "min-legal-vector-width"="0" "no-trapping-math"="true" "stack-protector-buffer-size"="8" "target-cpu"="x86-64" "target-features"="+cx8,+fxsr,+mmx,+sse,+sse2,+x87" "tune-cpu"="generic" }
attributes #9 = { mustprogress noinline nounwind optnone uwtable "frame-pointer"="all" "min-legal-vector-width"="0" "no-trapping-math"="true" "stack-protector-buffer-size"="8" "target-cpu"="x86-64" "target-features"="+cx8,+fxsr,+mmx,+sse,+sse2,+x87" "tune-cpu"="generic" }
attributes #10 = { noinline noreturn nounwind "frame-pointer"="all" "no-trapping-math"="true" "stack-protector-buffer-size"="8" "target-cpu"="x86-64" "target-features"="+cx8,+fxsr,+mmx,+sse,+sse2,+x87" "tune-cpu"="generic" }
attributes #11 = { nocallback nofree nounwind willreturn memory(argmem: readwrite) }
attributes #12 = { noinline optnone uwtable "frame-pointer"="all" "min-legal-vector-width"="0" "no-trapping-math"="true" "stack-protector-buffer-size"="8" "target-cpu"="x86-64" "target-features"="+cx8,+fxsr,+mmx,+sse,+sse2,+x87" "tune-cpu"="generic" }
attributes #13 = { nounwind "frame-pointer"="all" "no-trapping-math"="true" "stack-protector-buffer-size"="8" "target-cpu"="x86-64" "target-features"="+cx8,+fxsr,+mmx,+sse,+sse2,+x87" "tune-cpu"="generic" }
attributes #14 = { noreturn "frame-pointer"="all" "no-trapping-math"="true" "stack-protector-buffer-size"="8" "target-cpu"="x86-64" "target-features"="+cx8,+fxsr,+mmx,+sse,+sse2,+x87" "tune-cpu"="generic" }
attributes #15 = { noreturn nounwind }
attributes #16 = { builtin nounwind }
attributes #17 = { builtin allocsize(0) }
attributes #18 = { noreturn }

!llvm.dbg.cu = !{!2}
!llvm.module.flags = !{!2312, !2313, !2314, !2315, !2316, !2317, !2318}
!llvm.ident = !{!2319}

!0 = !DIGlobalVariableExpression(var: !1, expr: !DIExpression())
!1 = distinct !DIGlobalVariable(name: "threads", scope: !2, file: !1392, line: 6, type: !523, isLocal: false, isDefinition: true)
!2 = distinct !DICompileUnit(language: DW_LANG_C_plus_plus_14, file: !3, producer: "clang version 16.0.0", isOptimized: false, runtimeVersion: 0, emissionKind: FullDebug, retainedTypes: !4, globals: !1389, imports: !1407, splitDebugInlining: false, nameTableKind: None)
!3 = !DIFile(filename: "/home/cs22mtech12008/Reproduced_UAF/Synthetic_bugs/PTHREAD_VERSION/Thread_creation_Patterns/Thread_in_loop/gpt.cpp", directory: "/home/cs22mtech12008", checksumkind: CSK_MD5, checksum: "97fc39fc4307eaef502f57e594941787")
!4 = !{!5, !6, !433, !75, !460, !462, !153, !463, !464, !1000, !853, !523, !526, !529, !548, !554, !640, !12, !8, !99, !96, !134, !93, !201, !90, !86, !83, !80, !76, !1015, !1049, !1083, !1117, !1164, !1193, !1202, !1236, !1270, !1304, !1351, !1380}
!5 = !DIDerivedType(tag: DW_TAG_pointer_type, baseType: null, size: 64)
!6 = !DIDerivedType(tag: DW_TAG_typedef, name: "_State_ptr", scope: !8, file: !7, line: 230, baseType: !76)
!7 = !DIFile(filename: "/usr/lib/gcc/x86_64-linux-gnu/13/../../../../include/c++/13/bits/std_thread.h", directory: "")
!8 = distinct !DICompositeType(tag: DW_TAG_class_type, name: "thread", scope: !9, file: !7, line: 78, size: 64, flags: DIFlagTypePassByReference | DIFlagNonTrivial, elements: !10, identifier: "_ZTSSt6thread")
!9 = !DINamespace(name: "std", scope: null)
!10 = !{!11, !28, !32, !35, !36, !41, !45, !49, !52, !55, !60, !61, !62, !65, !68, !72}
!11 = !DIDerivedType(tag: DW_TAG_member, name: "_M_id", scope: !8, file: !7, line: 123, baseType: !12, size: 64)
!12 = distinct !DICompositeType(tag: DW_TAG_class_type, name: "id", scope: !8, file: !7, line: 92, size: 64, flags: DIFlagPublic | DIFlagTypePassByValue | DIFlagNonTrivial, elements: !13, identifier: "_ZTSNSt6thread2idE")
!13 = !{!14, !21, !25}
!14 = !DIDerivedType(tag: DW_TAG_member, name: "_M_thread", scope: !12, file: !7, line: 94, baseType: !15, size: 64)
!15 = !DIDerivedType(tag: DW_TAG_typedef, name: "native_handle_type", scope: !8, file: !7, line: 82, baseType: !16, flags: DIFlagPublic)
!16 = !DIDerivedType(tag: DW_TAG_typedef, name: "__gthread_t", file: !17, line: 47, baseType: !18)
!17 = !DIFile(filename: "/usr/lib/gcc/x86_64-linux-gnu/13/../../../../include/x86_64-linux-gnu/c++/13/bits/gthr-default.h", directory: "", checksumkind: CSK_MD5, checksum: "3b8e3be5a8b1d69cfdfb7aff03749ca6")
!18 = !DIDerivedType(tag: DW_TAG_typedef, name: "pthread_t", file: !19, line: 27, baseType: !20)
!19 = !DIFile(filename: "/usr/include/x86_64-linux-gnu/bits/pthreadtypes.h", directory: "", checksumkind: CSK_MD5, checksum: "2d764266ce95ab26d4a4767c2ec78176")
!20 = !DIBasicType(name: "unsigned long", size: 64, encoding: DW_ATE_unsigned)
!21 = !DISubprogram(name: "id", scope: !12, file: !7, line: 97, type: !22, scopeLine: 97, flags: DIFlagPublic | DIFlagPrototyped, spFlags: 0)
!22 = !DISubroutineType(types: !23)
!23 = !{null, !24}
!24 = !DIDerivedType(tag: DW_TAG_pointer_type, baseType: !12, size: 64, flags: DIFlagArtificial | DIFlagObjectPointer)
!25 = !DISubprogram(name: "id", scope: !12, file: !7, line: 100, type: !26, scopeLine: 100, flags: DIFlagPublic | DIFlagExplicit | DIFlagPrototyped, spFlags: 0)
!26 = !DISubroutineType(types: !27)
!27 = !{null, !24, !15}
!28 = !DISubprogram(name: "thread", scope: !8, file: !7, line: 132, type: !29, scopeLine: 132, flags: DIFlagPublic | DIFlagPrototyped, spFlags: 0)
!29 = !DISubroutineType(types: !30)
!30 = !{null, !31}
!31 = !DIDerivedType(tag: DW_TAG_pointer_type, baseType: !8, size: 64, flags: DIFlagArtificial | DIFlagObjectPointer)
!32 = !DISubprogram(name: "_M_thread_deps_never_run", linkageName: "_ZNSt6thread24_M_thread_deps_never_runEv", scope: !8, file: !7, line: 143, type: !33, scopeLine: 143, flags: DIFlagPrototyped | DIFlagStaticMember, spFlags: 0)
!33 = !DISubroutineType(types: !34)
!34 = !{null}
!35 = !DISubprogram(name: "~thread", scope: !8, file: !7, line: 170, type: !29, scopeLine: 170, flags: DIFlagPublic | DIFlagPrototyped, spFlags: 0)
!36 = !DISubprogram(name: "thread", scope: !8, file: !7, line: 176, type: !37, scopeLine: 176, flags: DIFlagPublic | DIFlagPrototyped, spFlags: DISPFlagDeleted)
!37 = !DISubroutineType(types: !38)
!38 = !{null, !31, !39}
!39 = !DIDerivedType(tag: DW_TAG_reference_type, baseType: !40, size: 64)
!40 = !DIDerivedType(tag: DW_TAG_const_type, baseType: !8)
!41 = !DISubprogram(name: "thread", scope: !8, file: !7, line: 178, type: !42, scopeLine: 178, flags: DIFlagPublic | DIFlagPrototyped, spFlags: 0)
!42 = !DISubroutineType(types: !43)
!43 = !{null, !31, !44}
!44 = !DIDerivedType(tag: DW_TAG_rvalue_reference_type, baseType: !8, size: 64)
!45 = !DISubprogram(name: "operator=", linkageName: "_ZNSt6threadaSERKS_", scope: !8, file: !7, line: 181, type: !46, scopeLine: 181, flags: DIFlagPublic | DIFlagPrototyped, spFlags: DISPFlagDeleted)
!46 = !DISubroutineType(types: !47)
!47 = !{!48, !31, !39}
!48 = !DIDerivedType(tag: DW_TAG_reference_type, baseType: !8, size: 64)
!49 = !DISubprogram(name: "operator=", linkageName: "_ZNSt6threadaSEOS_", scope: !8, file: !7, line: 183, type: !50, scopeLine: 183, flags: DIFlagPublic | DIFlagPrototyped, spFlags: 0)
!50 = !DISubroutineType(types: !51)
!51 = !{!48, !31, !44}
!52 = !DISubprogram(name: "swap", linkageName: "_ZNSt6thread4swapERS_", scope: !8, file: !7, line: 192, type: !53, scopeLine: 192, flags: DIFlagPublic | DIFlagPrototyped, spFlags: 0)
!53 = !DISubroutineType(types: !54)
!54 = !{null, !31, !48}
!55 = !DISubprogram(name: "joinable", linkageName: "_ZNKSt6thread8joinableEv", scope: !8, file: !7, line: 196, type: !56, scopeLine: 196, flags: DIFlagPublic | DIFlagPrototyped, spFlags: 0)
!56 = !DISubroutineType(types: !57)
!57 = !{!58, !59}
!58 = !DIBasicType(name: "bool", size: 8, encoding: DW_ATE_boolean)
!59 = !DIDerivedType(tag: DW_TAG_pointer_type, baseType: !40, size: 64, flags: DIFlagArtificial | DIFlagObjectPointer)
!60 = !DISubprogram(name: "join", linkageName: "_ZNSt6thread4joinEv", scope: !8, file: !7, line: 200, type: !29, scopeLine: 200, flags: DIFlagPublic | DIFlagPrototyped, spFlags: 0)
!61 = !DISubprogram(name: "detach", linkageName: "_ZNSt6thread6detachEv", scope: !8, file: !7, line: 203, type: !29, scopeLine: 203, flags: DIFlagPublic | DIFlagPrototyped, spFlags: 0)
!62 = !DISubprogram(name: "get_id", linkageName: "_ZNKSt6thread6get_idEv", scope: !8, file: !7, line: 206, type: !63, scopeLine: 206, flags: DIFlagPublic | DIFlagPrototyped, spFlags: 0)
!63 = !DISubroutineType(types: !64)
!64 = !{!12, !59}
!65 = !DISubprogram(name: "native_handle", linkageName: "_ZNSt6thread13native_handleEv", scope: !8, file: !7, line: 212, type: !66, scopeLine: 212, flags: DIFlagPublic | DIFlagPrototyped, spFlags: 0)
!66 = !DISubroutineType(types: !67)
!67 = !{!15, !31}
!68 = !DISubprogram(name: "hardware_concurrency", linkageName: "_ZNSt6thread20hardware_concurrencyEv", scope: !8, file: !7, line: 217, type: !69, scopeLine: 217, flags: DIFlagPublic | DIFlagPrototyped | DIFlagStaticMember, spFlags: 0)
!69 = !DISubroutineType(types: !70)
!70 = !{!71}
!71 = !DIBasicType(name: "unsigned int", size: 32, encoding: DW_ATE_unsigned)
!72 = !DISubprogram(name: "_M_start_thread", linkageName: "_ZNSt6thread15_M_start_threadESt10unique_ptrINS_6_StateESt14default_deleteIS1_EEPFvvE", scope: !8, file: !7, line: 248, type: !73, scopeLine: 248, flags: DIFlagPrototyped, spFlags: 0)
!73 = !DISubroutineType(types: !74)
!74 = !{null, !31, !6, !75}
!75 = !DIDerivedType(tag: DW_TAG_pointer_type, baseType: !33, size: 64)
!76 = distinct !DICompositeType(tag: DW_TAG_class_type, name: "unique_ptr<std::thread::_State, std::default_delete<std::thread::_State> >", scope: !9, file: !77, line: 277, size: 64, flags: DIFlagTypePassByReference | DIFlagNonTrivial, elements: !78, templateParams: !431, identifier: "_ZTSSt10unique_ptrINSt6thread6_StateESt14default_deleteIS1_EE")
!77 = !DIFile(filename: "/usr/lib/gcc/x86_64-linux-gnu/13/../../../../include/c++/13/bits/unique_ptr.h", directory: "", checksumkind: CSK_MD5, checksum: "b1c5f017599d59426bf764ae91a55ae0")
!78 = !{!79, !367, !372, !375, !379, !385, !397, !401, !402, !407, !412, !415, !418, !421, !424, !428}
!79 = !DIDerivedType(tag: DW_TAG_member, name: "_M_t", scope: !76, file: !77, line: 283, baseType: !80, size: 64)
!80 = distinct !DICompositeType(tag: DW_TAG_structure_type, name: "__uniq_ptr_data<std::thread::_State, std::default_delete<std::thread::_State>, true, true>", scope: !9, file: !77, line: 239, size: 64, flags: DIFlagTypePassByReference | DIFlagNonTrivial, elements: !81, templateParams: !366, identifier: "_ZTSSt15__uniq_ptr_dataINSt6thread6_StateESt14default_deleteIS1_ELb1ELb1EE")
!81 = !{!82, !357, !362}
!82 = !DIDerivedType(tag: DW_TAG_inheritance, scope: !80, baseType: !83, extraData: i32 0)
!83 = distinct !DICompositeType(tag: DW_TAG_class_type, name: "__uniq_ptr_impl<std::thread::_State, std::default_delete<std::thread::_State> >", scope: !9, file: !77, line: 148, size: 64, flags: DIFlagTypePassByReference | DIFlagNonTrivial, elements: !84, templateParams: !355, identifier: "_ZTSSt15__uniq_ptr_implINSt6thread6_StateESt14default_deleteIS1_EE")
!84 = !{!85, !311, !315, !325, !329, !333, !337, !342, !345, !348, !349, !352}
!85 = !DIDerivedType(tag: DW_TAG_member, name: "_M_t", scope: !83, file: !77, line: 232, baseType: !86, size: 64)
!86 = distinct !DICompositeType(tag: DW_TAG_class_type, name: "tuple<std::thread::_State *, std::default_delete<std::thread::_State> >", scope: !9, file: !87, line: 1232, size: 64, flags: DIFlagTypePassByReference | DIFlagNonTrivial, elements: !88, templateParams: !310, identifier: "_ZTSSt5tupleIJPNSt6thread6_StateESt14default_deleteIS1_EEE")
!87 = !DIFile(filename: "/usr/lib/gcc/x86_64-linux-gnu/13/../../../../include/c++/13/tuple", directory: "")
!88 = !{!89, !280, !283, !289, !293, !302, !307}
!89 = !DIDerivedType(tag: DW_TAG_inheritance, scope: !86, baseType: !90, flags: DIFlagPublic, extraData: i32 0)
!90 = distinct !DICompositeType(tag: DW_TAG_structure_type, name: "_Tuple_impl<0UL, std::thread::_State *, std::default_delete<std::thread::_State> >", scope: !9, file: !87, line: 259, size: 64, flags: DIFlagTypePassByReference | DIFlagNonTrivial, elements: !91, templateParams: !276, identifier: "_ZTSSt11_Tuple_implILm0EJPNSt6thread6_StateESt14default_deleteIS1_EEE")
!91 = !{!92, !200, !237, !241, !246, !251, !256, !260, !263, !266, !269, !273}
!92 = !DIDerivedType(tag: DW_TAG_inheritance, scope: !90, baseType: !93, extraData: i32 0)
!93 = distinct !DICompositeType(tag: DW_TAG_structure_type, name: "_Tuple_impl<1UL, std::default_delete<std::thread::_State> >", scope: !9, file: !87, line: 489, size: 8, flags: DIFlagTypePassByReference | DIFlagNonTrivial, elements: !94, templateParams: !196, identifier: "_ZTSSt11_Tuple_implILm1EJSt14default_deleteINSt6thread6_StateEEEE")
!94 = !{!95, !167, !171, !176, !180, !183, !186, !189, !193}
!95 = !DIDerivedType(tag: DW_TAG_inheritance, scope: !93, baseType: !96, flags: DIFlagPrivate, extraData: i32 0)
!96 = distinct !DICompositeType(tag: DW_TAG_structure_type, name: "_Head_base<1UL, std::default_delete<std::thread::_State>, true>", scope: !9, file: !87, line: 79, size: 8, flags: DIFlagTypePassByValue | DIFlagNonTrivial, elements: !97, templateParams: !163, identifier: "_ZTSSt10_Head_baseILm1ESt14default_deleteINSt6thread6_StateEELb1EE")
!97 = !{!98, !114, !118, !122, !127, !131, !155, !160}
!98 = !DIDerivedType(tag: DW_TAG_member, name: "_M_head_impl", scope: !96, file: !87, line: 130, baseType: !99, size: 8)
!99 = distinct !DICompositeType(tag: DW_TAG_structure_type, name: "default_delete<std::thread::_State>", scope: !9, file: !77, line: 75, size: 8, flags: DIFlagTypePassByValue, elements: !100, templateParams: !112, identifier: "_ZTSSt14default_deleteINSt6thread6_StateEE")
!100 = !{!101, !105}
!101 = !DISubprogram(name: "default_delete", scope: !99, file: !77, line: 78, type: !102, scopeLine: 78, flags: DIFlagPrototyped, spFlags: 0)
!102 = !DISubroutineType(types: !103)
!103 = !{null, !104}
!104 = !DIDerivedType(tag: DW_TAG_pointer_type, baseType: !99, size: 64, flags: DIFlagArtificial | DIFlagObjectPointer)
!105 = !DISubprogram(name: "operator()", linkageName: "_ZNKSt14default_deleteINSt6thread6_StateEEclEPS1_", scope: !99, file: !77, line: 93, type: !106, scopeLine: 93, flags: DIFlagPrototyped, spFlags: 0)
!106 = !DISubroutineType(types: !107)
!107 = !{null, !108, !110}
!108 = !DIDerivedType(tag: DW_TAG_pointer_type, baseType: !109, size: 64, flags: DIFlagArtificial | DIFlagObjectPointer)
!109 = !DIDerivedType(tag: DW_TAG_const_type, baseType: !99)
!110 = !DIDerivedType(tag: DW_TAG_pointer_type, baseType: !111, size: 64)
!111 = !DICompositeType(tag: DW_TAG_structure_type, name: "_State", scope: !8, file: !7, line: 225, size: 64, flags: DIFlagFwdDecl | DIFlagNonTrivial)
!112 = !{!113}
!113 = !DITemplateTypeParameter(name: "_Tp", type: !111)
!114 = !DISubprogram(name: "_Head_base", scope: !96, file: !87, line: 81, type: !115, scopeLine: 81, flags: DIFlagPrototyped, spFlags: 0)
!115 = !DISubroutineType(types: !116)
!116 = !{null, !117}
!117 = !DIDerivedType(tag: DW_TAG_pointer_type, baseType: !96, size: 64, flags: DIFlagArtificial | DIFlagObjectPointer)
!118 = !DISubprogram(name: "_Head_base", scope: !96, file: !87, line: 84, type: !119, scopeLine: 84, flags: DIFlagPrototyped, spFlags: 0)
!119 = !DISubroutineType(types: !120)
!120 = !{null, !117, !121}
!121 = !DIDerivedType(tag: DW_TAG_reference_type, baseType: !109, size: 64)
!122 = !DISubprogram(name: "_Head_base", scope: !96, file: !87, line: 87, type: !123, scopeLine: 87, flags: DIFlagPrototyped, spFlags: 0)
!123 = !DISubroutineType(types: !124)
!124 = !{null, !117, !125}
!125 = !DIDerivedType(tag: DW_TAG_reference_type, baseType: !126, size: 64)
!126 = !DIDerivedType(tag: DW_TAG_const_type, baseType: !96)
!127 = !DISubprogram(name: "_Head_base", scope: !96, file: !87, line: 88, type: !128, scopeLine: 88, flags: DIFlagPrototyped, spFlags: 0)
!128 = !DISubroutineType(types: !129)
!129 = !{null, !117, !130}
!130 = !DIDerivedType(tag: DW_TAG_rvalue_reference_type, baseType: !96, size: 64)
!131 = !DISubprogram(name: "_Head_base", scope: !96, file: !87, line: 95, type: !132, scopeLine: 95, flags: DIFlagPrototyped, spFlags: 0)
!132 = !DISubroutineType(types: !133)
!133 = !{null, !117, !134, !141}
!134 = distinct !DICompositeType(tag: DW_TAG_structure_type, name: "allocator_arg_t", scope: !9, file: !135, line: 56, size: 8, flags: DIFlagTypePassByValue, elements: !136, identifier: "_ZTSSt15allocator_arg_t")
!135 = !DIFile(filename: "/usr/lib/gcc/x86_64-linux-gnu/13/../../../../include/c++/13/bits/uses_allocator.h", directory: "", checksumkind: CSK_MD5, checksum: "2e154584f12c218d65e98047872045fc")
!136 = !{!137}
!137 = !DISubprogram(name: "allocator_arg_t", scope: !134, file: !135, line: 56, type: !138, scopeLine: 56, flags: DIFlagExplicit | DIFlagPrototyped, spFlags: 0)
!138 = !DISubroutineType(types: !139)
!139 = !{null, !140}
!140 = !DIDerivedType(tag: DW_TAG_pointer_type, baseType: !134, size: 64, flags: DIFlagArtificial | DIFlagObjectPointer)
!141 = distinct !DICompositeType(tag: DW_TAG_structure_type, name: "__uses_alloc0", scope: !9, file: !135, line: 79, size: 8, flags: DIFlagTypePassByValue, elements: !142, identifier: "_ZTSSt13__uses_alloc0")
!142 = !{!143, !146}
!143 = !DIDerivedType(tag: DW_TAG_inheritance, scope: !141, baseType: !144, extraData: i32 0)
!144 = distinct !DICompositeType(tag: DW_TAG_structure_type, name: "__uses_alloc_base", scope: !9, file: !135, line: 77, size: 8, flags: DIFlagTypePassByValue, elements: !145, identifier: "_ZTSSt17__uses_alloc_base")
!145 = !{}
!146 = !DIDerivedType(tag: DW_TAG_member, name: "_M_a", scope: !141, file: !135, line: 81, baseType: !147, size: 8)
!147 = distinct !DICompositeType(tag: DW_TAG_structure_type, name: "_Sink", scope: !141, file: !135, line: 81, size: 8, flags: DIFlagTypePassByValue, elements: !148, identifier: "_ZTSNSt13__uses_alloc05_SinkE")
!148 = !{!149}
!149 = !DISubprogram(name: "operator=", linkageName: "_ZNSt13__uses_alloc05_SinkaSEPKv", scope: !147, file: !135, line: 81, type: !150, scopeLine: 81, flags: DIFlagPrototyped, spFlags: 0)
!150 = !DISubroutineType(types: !151)
!151 = !{null, !152, !153}
!152 = !DIDerivedType(tag: DW_TAG_pointer_type, baseType: !147, size: 64, flags: DIFlagArtificial | DIFlagObjectPointer)
!153 = !DIDerivedType(tag: DW_TAG_pointer_type, baseType: !154, size: 64)
!154 = !DIDerivedType(tag: DW_TAG_const_type, baseType: null)
!155 = !DISubprogram(name: "_M_head", linkageName: "_ZNSt10_Head_baseILm1ESt14default_deleteINSt6thread6_StateEELb1EE7_M_headERS4_", scope: !96, file: !87, line: 125, type: !156, scopeLine: 125, flags: DIFlagPrototyped | DIFlagStaticMember, spFlags: 0)
!156 = !DISubroutineType(types: !157)
!157 = !{!158, !159}
!158 = !DIDerivedType(tag: DW_TAG_reference_type, baseType: !99, size: 64)
!159 = !DIDerivedType(tag: DW_TAG_reference_type, baseType: !96, size: 64)
!160 = !DISubprogram(name: "_M_head", linkageName: "_ZNSt10_Head_baseILm1ESt14default_deleteINSt6thread6_StateEELb1EE7_M_headERKS4_", scope: !96, file: !87, line: 128, type: !161, scopeLine: 128, flags: DIFlagPrototyped | DIFlagStaticMember, spFlags: 0)
!161 = !DISubroutineType(types: !162)
!162 = !{!121, !125}
!163 = !{!164, !165, !166}
!164 = !DITemplateValueParameter(name: "_Idx", type: !20, value: i64 1)
!165 = !DITemplateTypeParameter(name: "_Head", type: !99)
!166 = !DITemplateValueParameter(type: !58, value: i1 true)
!167 = !DISubprogram(name: "_M_head", linkageName: "_ZNSt11_Tuple_implILm1EJSt14default_deleteINSt6thread6_StateEEEE7_M_headERS4_", scope: !93, file: !87, line: 497, type: !168, scopeLine: 497, flags: DIFlagPrototyped | DIFlagStaticMember, spFlags: 0)
!168 = !DISubroutineType(types: !169)
!169 = !{!158, !170}
!170 = !DIDerivedType(tag: DW_TAG_reference_type, baseType: !93, size: 64)
!171 = !DISubprogram(name: "_M_head", linkageName: "_ZNSt11_Tuple_implILm1EJSt14default_deleteINSt6thread6_StateEEEE7_M_headERKS4_", scope: !93, file: !87, line: 500, type: !172, scopeLine: 500, flags: DIFlagPrototyped | DIFlagStaticMember, spFlags: 0)
!172 = !DISubroutineType(types: !173)
!173 = !{!121, !174}
!174 = !DIDerivedType(tag: DW_TAG_reference_type, baseType: !175, size: 64)
!175 = !DIDerivedType(tag: DW_TAG_const_type, baseType: !93)
!176 = !DISubprogram(name: "_Tuple_impl", scope: !93, file: !87, line: 503, type: !177, scopeLine: 503, flags: DIFlagPrototyped, spFlags: 0)
!177 = !DISubroutineType(types: !178)
!178 = !{null, !179}
!179 = !DIDerivedType(tag: DW_TAG_pointer_type, baseType: !93, size: 64, flags: DIFlagArtificial | DIFlagObjectPointer)
!180 = !DISubprogram(name: "_Tuple_impl", scope: !93, file: !87, line: 507, type: !181, scopeLine: 507, flags: DIFlagExplicit | DIFlagPrototyped, spFlags: 0)
!181 = !DISubroutineType(types: !182)
!182 = !{null, !179, !121}
!183 = !DISubprogram(name: "_Tuple_impl", scope: !93, file: !87, line: 517, type: !184, scopeLine: 517, flags: DIFlagPrototyped, spFlags: 0)
!184 = !DISubroutineType(types: !185)
!185 = !{null, !179, !174}
!186 = !DISubprogram(name: "operator=", linkageName: "_ZNSt11_Tuple_implILm1EJSt14default_deleteINSt6thread6_StateEEEEaSERKS4_", scope: !93, file: !87, line: 521, type: !187, scopeLine: 521, flags: DIFlagPrototyped, spFlags: DISPFlagDeleted)
!187 = !DISubroutineType(types: !188)
!188 = !{!170, !179, !174}
!189 = !DISubprogram(name: "_Tuple_impl", scope: !93, file: !87, line: 527, type: !190, scopeLine: 527, flags: DIFlagPrototyped, spFlags: 0)
!190 = !DISubroutineType(types: !191)
!191 = !{null, !179, !192}
!192 = !DIDerivedType(tag: DW_TAG_rvalue_reference_type, baseType: !93, size: 64)
!193 = !DISubprogram(name: "_M_swap", linkageName: "_ZNSt11_Tuple_implILm1EJSt14default_deleteINSt6thread6_StateEEEE7_M_swapERS4_", scope: !93, file: !87, line: 666, type: !194, scopeLine: 666, flags: DIFlagProtected | DIFlagPrototyped, spFlags: 0)
!194 = !DISubroutineType(types: !195)
!195 = !{null, !179, !170}
!196 = !{!164, !197}
!197 = !DITemplateValueParameter(tag: DW_TAG_GNU_template_parameter_pack, name: "_Elements", value: !198)
!198 = !{!199}
!199 = !DITemplateTypeParameter(type: !99)
!200 = !DIDerivedType(tag: DW_TAG_inheritance, scope: !90, baseType: !201, flags: DIFlagPrivate, extraData: i32 0)
!201 = distinct !DICompositeType(tag: DW_TAG_structure_type, name: "_Head_base<0UL, std::thread::_State *, false>", scope: !9, file: !87, line: 188, size: 64, flags: DIFlagTypePassByValue | DIFlagNonTrivial, elements: !202, templateParams: !233, identifier: "_ZTSSt10_Head_baseILm0EPNSt6thread6_StateELb0EE")
!202 = !{!203, !204, !208, !213, !218, !222, !225, !230}
!203 = !DIDerivedType(tag: DW_TAG_member, name: "_M_head_impl", scope: !201, file: !87, line: 239, baseType: !110, size: 64)
!204 = !DISubprogram(name: "_Head_base", scope: !201, file: !87, line: 190, type: !205, scopeLine: 190, flags: DIFlagPrototyped, spFlags: 0)
!205 = !DISubroutineType(types: !206)
!206 = !{null, !207}
!207 = !DIDerivedType(tag: DW_TAG_pointer_type, baseType: !201, size: 64, flags: DIFlagArtificial | DIFlagObjectPointer)
!208 = !DISubprogram(name: "_Head_base", scope: !201, file: !87, line: 193, type: !209, scopeLine: 193, flags: DIFlagPrototyped, spFlags: 0)
!209 = !DISubroutineType(types: !210)
!210 = !{null, !207, !211}
!211 = !DIDerivedType(tag: DW_TAG_reference_type, baseType: !212, size: 64)
!212 = !DIDerivedType(tag: DW_TAG_const_type, baseType: !110)
!213 = !DISubprogram(name: "_Head_base", scope: !201, file: !87, line: 196, type: !214, scopeLine: 196, flags: DIFlagPrototyped, spFlags: 0)
!214 = !DISubroutineType(types: !215)
!215 = !{null, !207, !216}
!216 = !DIDerivedType(tag: DW_TAG_reference_type, baseType: !217, size: 64)
!217 = !DIDerivedType(tag: DW_TAG_const_type, baseType: !201)
!218 = !DISubprogram(name: "_Head_base", scope: !201, file: !87, line: 197, type: !219, scopeLine: 197, flags: DIFlagPrototyped, spFlags: 0)
!219 = !DISubroutineType(types: !220)
!220 = !{null, !207, !221}
!221 = !DIDerivedType(tag: DW_TAG_rvalue_reference_type, baseType: !201, size: 64)
!222 = !DISubprogram(name: "_Head_base", scope: !201, file: !87, line: 204, type: !223, scopeLine: 204, flags: DIFlagPrototyped, spFlags: 0)
!223 = !DISubroutineType(types: !224)
!224 = !{null, !207, !134, !141}
!225 = !DISubprogram(name: "_M_head", linkageName: "_ZNSt10_Head_baseILm0EPNSt6thread6_StateELb0EE7_M_headERS3_", scope: !201, file: !87, line: 234, type: !226, scopeLine: 234, flags: DIFlagPrototyped | DIFlagStaticMember, spFlags: 0)
!226 = !DISubroutineType(types: !227)
!227 = !{!228, !229}
!228 = !DIDerivedType(tag: DW_TAG_reference_type, baseType: !110, size: 64)
!229 = !DIDerivedType(tag: DW_TAG_reference_type, baseType: !201, size: 64)
!230 = !DISubprogram(name: "_M_head", linkageName: "_ZNSt10_Head_baseILm0EPNSt6thread6_StateELb0EE7_M_headERKS3_", scope: !201, file: !87, line: 237, type: !231, scopeLine: 237, flags: DIFlagPrototyped | DIFlagStaticMember, spFlags: 0)
!231 = !DISubroutineType(types: !232)
!232 = !{!211, !216}
!233 = !{!234, !235, !236}
!234 = !DITemplateValueParameter(name: "_Idx", type: !20, value: i64 0)
!235 = !DITemplateTypeParameter(name: "_Head", type: !110)
!236 = !DITemplateValueParameter(type: !58, value: i1 false)
!237 = !DISubprogram(name: "_M_head", linkageName: "_ZNSt11_Tuple_implILm0EJPNSt6thread6_StateESt14default_deleteIS1_EEE7_M_headERS5_", scope: !90, file: !87, line: 269, type: !238, scopeLine: 269, flags: DIFlagPrototyped | DIFlagStaticMember, spFlags: 0)
!238 = !DISubroutineType(types: !239)
!239 = !{!228, !240}
!240 = !DIDerivedType(tag: DW_TAG_reference_type, baseType: !90, size: 64)
!241 = !DISubprogram(name: "_M_head", linkageName: "_ZNSt11_Tuple_implILm0EJPNSt6thread6_StateESt14default_deleteIS1_EEE7_M_headERKS5_", scope: !90, file: !87, line: 272, type: !242, scopeLine: 272, flags: DIFlagPrototyped | DIFlagStaticMember, spFlags: 0)
!242 = !DISubroutineType(types: !243)
!243 = !{!211, !244}
!244 = !DIDerivedType(tag: DW_TAG_reference_type, baseType: !245, size: 64)
!245 = !DIDerivedType(tag: DW_TAG_const_type, baseType: !90)
!246 = !DISubprogram(name: "_M_tail", linkageName: "_ZNSt11_Tuple_implILm0EJPNSt6thread6_StateESt14default_deleteIS1_EEE7_M_tailERS5_", scope: !90, file: !87, line: 275, type: !247, scopeLine: 275, flags: DIFlagPrototyped | DIFlagStaticMember, spFlags: 0)
!247 = !DISubroutineType(types: !248)
!248 = !{!249, !240}
!249 = !DIDerivedType(tag: DW_TAG_reference_type, baseType: !250, size: 64)
!250 = !DIDerivedType(tag: DW_TAG_typedef, name: "_Inherited", scope: !90, file: !87, line: 265, baseType: !93)
!251 = !DISubprogram(name: "_M_tail", linkageName: "_ZNSt11_Tuple_implILm0EJPNSt6thread6_StateESt14default_deleteIS1_EEE7_M_tailERKS5_", scope: !90, file: !87, line: 278, type: !252, scopeLine: 278, flags: DIFlagPrototyped | DIFlagStaticMember, spFlags: 0)
!252 = !DISubroutineType(types: !253)
!253 = !{!254, !244}
!254 = !DIDerivedType(tag: DW_TAG_reference_type, baseType: !255, size: 64)
!255 = !DIDerivedType(tag: DW_TAG_const_type, baseType: !250)
!256 = !DISubprogram(name: "_Tuple_impl", scope: !90, file: !87, line: 280, type: !257, scopeLine: 280, flags: DIFlagPrototyped, spFlags: 0)
!257 = !DISubroutineType(types: !258)
!258 = !{null, !259}
!259 = !DIDerivedType(tag: DW_TAG_pointer_type, baseType: !90, size: 64, flags: DIFlagArtificial | DIFlagObjectPointer)
!260 = !DISubprogram(name: "_Tuple_impl", scope: !90, file: !87, line: 284, type: !261, scopeLine: 284, flags: DIFlagExplicit | DIFlagPrototyped, spFlags: 0)
!261 = !DISubroutineType(types: !262)
!262 = !{null, !259, !211, !121}
!263 = !DISubprogram(name: "_Tuple_impl", scope: !90, file: !87, line: 296, type: !264, scopeLine: 296, flags: DIFlagPrototyped, spFlags: 0)
!264 = !DISubroutineType(types: !265)
!265 = !{null, !259, !244}
!266 = !DISubprogram(name: "operator=", linkageName: "_ZNSt11_Tuple_implILm0EJPNSt6thread6_StateESt14default_deleteIS1_EEEaSERKS5_", scope: !90, file: !87, line: 300, type: !267, scopeLine: 300, flags: DIFlagPrototyped, spFlags: DISPFlagDeleted)
!267 = !DISubroutineType(types: !268)
!268 = !{!240, !259, !244}
!269 = !DISubprogram(name: "_Tuple_impl", scope: !90, file: !87, line: 302, type: !270, scopeLine: 302, flags: DIFlagPrototyped, spFlags: 0)
!270 = !DISubroutineType(types: !271)
!271 = !{null, !259, !272}
!272 = !DIDerivedType(tag: DW_TAG_rvalue_reference_type, baseType: !90, size: 64)
!273 = !DISubprogram(name: "_M_swap", linkageName: "_ZNSt11_Tuple_implILm0EJPNSt6thread6_StateESt14default_deleteIS1_EEE7_M_swapERS5_", scope: !90, file: !87, line: 469, type: !274, scopeLine: 469, flags: DIFlagProtected | DIFlagPrototyped, spFlags: 0)
!274 = !DISubroutineType(types: !275)
!275 = !{null, !259, !240}
!276 = !{!234, !277}
!277 = !DITemplateValueParameter(tag: DW_TAG_GNU_template_parameter_pack, name: "_Elements", value: !278)
!278 = !{!279, !199}
!279 = !DITemplateTypeParameter(type: !110)
!280 = !DISubprogram(name: "__nothrow_default_constructible", linkageName: "_ZNSt5tupleIJPNSt6thread6_StateESt14default_deleteIS1_EEE31__nothrow_default_constructibleEv", scope: !86, file: !87, line: 1286, type: !281, scopeLine: 1286, flags: DIFlagPrototyped | DIFlagStaticMember, spFlags: 0)
!281 = !DISubroutineType(types: !282)
!282 = !{!58}
!283 = !DISubprogram(name: "tuple", scope: !86, file: !87, line: 1349, type: !284, scopeLine: 1349, flags: DIFlagPublic | DIFlagPrototyped, spFlags: 0)
!284 = !DISubroutineType(types: !285)
!285 = !{null, !286, !287}
!286 = !DIDerivedType(tag: DW_TAG_pointer_type, baseType: !86, size: 64, flags: DIFlagArtificial | DIFlagObjectPointer)
!287 = !DIDerivedType(tag: DW_TAG_reference_type, baseType: !288, size: 64)
!288 = !DIDerivedType(tag: DW_TAG_const_type, baseType: !86)
!289 = !DISubprogram(name: "tuple", scope: !86, file: !87, line: 1351, type: !290, scopeLine: 1351, flags: DIFlagPublic | DIFlagPrototyped, spFlags: 0)
!290 = !DISubroutineType(types: !291)
!291 = !{null, !286, !292}
!292 = !DIDerivedType(tag: DW_TAG_rvalue_reference_type, baseType: !86, size: 64)
!293 = !DISubprogram(name: "operator=", linkageName: "_ZNSt5tupleIJPNSt6thread6_StateESt14default_deleteIS1_EEEaSERKS5_", scope: !86, file: !87, line: 1605, type: !294, scopeLine: 1605, flags: DIFlagPublic | DIFlagPrototyped, spFlags: 0)
!294 = !DISubroutineType(types: !295)
!295 = !{!296, !286, !297}
!296 = !DIDerivedType(tag: DW_TAG_reference_type, baseType: !86, size: 64)
!297 = !DIDerivedType(tag: DW_TAG_typedef, name: "__conditional_t<__assignable<std::thread::_State *const &, const std::default_delete<std::thread::_State> &>(), const tuple<_State *, default_delete<_State> > &, const __nonesuch &>", scope: !9, file: !298, line: 134, baseType: !299)
!298 = !DIFile(filename: "/usr/lib/gcc/x86_64-linux-gnu/13/../../../../include/c++/13/type_traits", directory: "")
!299 = !DIDerivedType(tag: DW_TAG_typedef, name: "type<const std::tuple<std::thread::_State *, std::default_delete<std::thread::_State> > &, const std::__nonesuch &>", scope: !300, file: !298, line: 122, baseType: !287)
!300 = distinct !DICompositeType(tag: DW_TAG_structure_type, name: "__conditional<true>", scope: !9, file: !298, line: 119, size: 8, flags: DIFlagTypePassByValue, elements: !145, templateParams: !301, identifier: "_ZTSSt13__conditionalILb1EE")
!301 = !{!166}
!302 = !DISubprogram(name: "operator=", linkageName: "_ZNSt5tupleIJPNSt6thread6_StateESt14default_deleteIS1_EEEaSEOS5_", scope: !86, file: !87, line: 1616, type: !303, scopeLine: 1616, flags: DIFlagPublic | DIFlagPrototyped, spFlags: 0)
!303 = !DISubroutineType(types: !304)
!304 = !{!296, !286, !305}
!305 = !DIDerivedType(tag: DW_TAG_typedef, name: "__conditional_t<__assignable<std::thread::_State *, std::default_delete<std::thread::_State> >(), tuple<_State *, default_delete<_State> > &&, __nonesuch &&>", scope: !9, file: !298, line: 134, baseType: !306)
!306 = !DIDerivedType(tag: DW_TAG_typedef, name: "type<std::tuple<std::thread::_State *, std::default_delete<std::thread::_State> > &&, std::__nonesuch &&>", scope: !300, file: !298, line: 122, baseType: !292)
!307 = !DISubprogram(name: "swap", linkageName: "_ZNSt5tupleIJPNSt6thread6_StateESt14default_deleteIS1_EEE4swapERS5_", scope: !86, file: !87, line: 1731, type: !308, scopeLine: 1731, flags: DIFlagPublic | DIFlagPrototyped, spFlags: 0)
!308 = !DISubroutineType(types: !309)
!309 = !{null, !286, !296}
!310 = !{!277}
!311 = !DISubprogram(name: "__uniq_ptr_impl", scope: !83, file: !77, line: 174, type: !312, scopeLine: 174, flags: DIFlagPublic | DIFlagPrototyped, spFlags: 0)
!312 = !DISubroutineType(types: !313)
!313 = !{null, !314}
!314 = !DIDerivedType(tag: DW_TAG_pointer_type, baseType: !83, size: 64, flags: DIFlagArtificial | DIFlagObjectPointer)
!315 = !DISubprogram(name: "__uniq_ptr_impl", scope: !83, file: !77, line: 176, type: !316, scopeLine: 176, flags: DIFlagPublic | DIFlagPrototyped, spFlags: 0)
!316 = !DISubroutineType(types: !317)
!317 = !{null, !314, !318}
!318 = !DIDerivedType(tag: DW_TAG_typedef, name: "pointer", scope: !83, file: !77, line: 168, baseType: !319, flags: DIFlagPublic)
!319 = !DIDerivedType(tag: DW_TAG_typedef, name: "type", scope: !320, file: !77, line: 153, baseType: !110)
!320 = distinct !DICompositeType(tag: DW_TAG_structure_type, name: "_Ptr<std::thread::_State, std::default_delete<std::thread::_State>, void>", scope: !83, file: !77, line: 151, size: 8, flags: DIFlagTypePassByValue, elements: !145, templateParams: !321, identifier: "_ZTSNSt15__uniq_ptr_implINSt6thread6_StateESt14default_deleteIS1_EE4_PtrIS1_S3_vEE")
!321 = !{!322, !323, !324}
!322 = !DITemplateTypeParameter(name: "_Up", type: !111)
!323 = !DITemplateTypeParameter(name: "_Ep", type: !99)
!324 = !DITemplateTypeParameter(type: null, defaulted: true)
!325 = !DISubprogram(name: "__uniq_ptr_impl", scope: !83, file: !77, line: 184, type: !326, scopeLine: 184, flags: DIFlagPublic | DIFlagPrototyped, spFlags: 0)
!326 = !DISubroutineType(types: !327)
!327 = !{null, !314, !328}
!328 = !DIDerivedType(tag: DW_TAG_rvalue_reference_type, baseType: !83, size: 64)
!329 = !DISubprogram(name: "operator=", linkageName: "_ZNSt15__uniq_ptr_implINSt6thread6_StateESt14default_deleteIS1_EEaSEOS4_", scope: !83, file: !77, line: 189, type: !330, scopeLine: 189, flags: DIFlagPublic | DIFlagPrototyped, spFlags: 0)
!330 = !DISubroutineType(types: !331)
!331 = !{!332, !314, !328}
!332 = !DIDerivedType(tag: DW_TAG_reference_type, baseType: !83, size: 64)
!333 = !DISubprogram(name: "_M_ptr", linkageName: "_ZNSt15__uniq_ptr_implINSt6thread6_StateESt14default_deleteIS1_EE6_M_ptrEv", scope: !83, file: !77, line: 197, type: !334, scopeLine: 197, flags: DIFlagPublic | DIFlagPrototyped, spFlags: 0)
!334 = !DISubroutineType(types: !335)
!335 = !{!336, !314}
!336 = !DIDerivedType(tag: DW_TAG_reference_type, baseType: !318, size: 64)
!337 = !DISubprogram(name: "_M_ptr", linkageName: "_ZNKSt15__uniq_ptr_implINSt6thread6_StateESt14default_deleteIS1_EE6_M_ptrEv", scope: !83, file: !77, line: 199, type: !338, scopeLine: 199, flags: DIFlagPublic | DIFlagPrototyped, spFlags: 0)
!338 = !DISubroutineType(types: !339)
!339 = !{!318, !340}
!340 = !DIDerivedType(tag: DW_TAG_pointer_type, baseType: !341, size: 64, flags: DIFlagArtificial | DIFlagObjectPointer)
!341 = !DIDerivedType(tag: DW_TAG_const_type, baseType: !83)
!342 = !DISubprogram(name: "_M_deleter", linkageName: "_ZNSt15__uniq_ptr_implINSt6thread6_StateESt14default_deleteIS1_EE10_M_deleterEv", scope: !83, file: !77, line: 201, type: !343, scopeLine: 201, flags: DIFlagPublic | DIFlagPrototyped, spFlags: 0)
!343 = !DISubroutineType(types: !344)
!344 = !{!158, !314}
!345 = !DISubprogram(name: "_M_deleter", linkageName: "_ZNKSt15__uniq_ptr_implINSt6thread6_StateESt14default_deleteIS1_EE10_M_deleterEv", scope: !83, file: !77, line: 203, type: !346, scopeLine: 203, flags: DIFlagPublic | DIFlagPrototyped, spFlags: 0)
!346 = !DISubroutineType(types: !347)
!347 = !{!121, !340}
!348 = !DISubprogram(name: "reset", linkageName: "_ZNSt15__uniq_ptr_implINSt6thread6_StateESt14default_deleteIS1_EE5resetEPS1_", scope: !83, file: !77, line: 206, type: !316, scopeLine: 206, flags: DIFlagPublic | DIFlagPrototyped, spFlags: 0)
!349 = !DISubprogram(name: "release", linkageName: "_ZNSt15__uniq_ptr_implINSt6thread6_StateESt14default_deleteIS1_EE7releaseEv", scope: !83, file: !77, line: 215, type: !350, scopeLine: 215, flags: DIFlagPublic | DIFlagPrototyped, spFlags: 0)
!350 = !DISubroutineType(types: !351)
!351 = !{!318, !314}
!352 = !DISubprogram(name: "swap", linkageName: "_ZNSt15__uniq_ptr_implINSt6thread6_StateESt14default_deleteIS1_EE4swapERS4_", scope: !83, file: !77, line: 224, type: !353, scopeLine: 224, flags: DIFlagPublic | DIFlagPrototyped, spFlags: 0)
!353 = !DISubroutineType(types: !354)
!354 = !{null, !314, !332}
!355 = !{!113, !356}
!356 = !DITemplateTypeParameter(name: "_Dp", type: !99)
!357 = !DISubprogram(name: "__uniq_ptr_data", scope: !80, file: !77, line: 242, type: !358, scopeLine: 242, flags: DIFlagPrototyped, spFlags: 0)
!358 = !DISubroutineType(types: !359)
!359 = !{null, !360, !361}
!360 = !DIDerivedType(tag: DW_TAG_pointer_type, baseType: !80, size: 64, flags: DIFlagArtificial | DIFlagObjectPointer)
!361 = !DIDerivedType(tag: DW_TAG_rvalue_reference_type, baseType: !80, size: 64)
!362 = !DISubprogram(name: "operator=", linkageName: "_ZNSt15__uniq_ptr_dataINSt6thread6_StateESt14default_deleteIS1_ELb1ELb1EEaSEOS4_", scope: !80, file: !77, line: 243, type: !363, scopeLine: 243, flags: DIFlagPrototyped, spFlags: 0)
!363 = !DISubroutineType(types: !364)
!364 = !{!365, !360, !361}
!365 = !DIDerivedType(tag: DW_TAG_reference_type, baseType: !80, size: 64)
!366 = !{!113, !356, !166, !166}
!367 = !DISubprogram(name: "unique_ptr", scope: !76, file: !77, line: 366, type: !368, scopeLine: 366, flags: DIFlagPublic | DIFlagPrototyped, spFlags: 0)
!368 = !DISubroutineType(types: !369)
!369 = !{null, !370, !371}
!370 = !DIDerivedType(tag: DW_TAG_pointer_type, baseType: !76, size: 64, flags: DIFlagArtificial | DIFlagObjectPointer)
!371 = !DIDerivedType(tag: DW_TAG_rvalue_reference_type, baseType: !76, size: 64)
!372 = !DISubprogram(name: "~unique_ptr", scope: !76, file: !77, line: 398, type: !373, scopeLine: 398, flags: DIFlagPublic | DIFlagPrototyped, spFlags: 0)
!373 = !DISubroutineType(types: !374)
!374 = !{null, !370}
!375 = !DISubprogram(name: "operator=", linkageName: "_ZNSt10unique_ptrINSt6thread6_StateESt14default_deleteIS1_EEaSEOS4_", scope: !76, file: !77, line: 414, type: !376, scopeLine: 414, flags: DIFlagPublic | DIFlagPrototyped, spFlags: 0)
!376 = !DISubroutineType(types: !377)
!377 = !{!378, !370, !371}
!378 = !DIDerivedType(tag: DW_TAG_reference_type, baseType: !76, size: 64)
!379 = !DISubprogram(name: "operator=", linkageName: "_ZNSt10unique_ptrINSt6thread6_StateESt14default_deleteIS1_EEaSEDn", scope: !76, file: !77, line: 440, type: !380, scopeLine: 440, flags: DIFlagPublic | DIFlagPrototyped, spFlags: 0)
!380 = !DISubroutineType(types: !381)
!381 = !{!378, !370, !382}
!382 = !DIDerivedType(tag: DW_TAG_typedef, name: "nullptr_t", scope: !9, file: !383, line: 312, baseType: !384)
!383 = !DIFile(filename: "/usr/lib/gcc/x86_64-linux-gnu/13/../../../../include/x86_64-linux-gnu/c++/13/bits/c++config.h", directory: "", checksumkind: CSK_MD5, checksum: "0bd4d19ae337473fb101b6a02c4b83e7")
!384 = !DIBasicType(tag: DW_TAG_unspecified_type, name: "decltype(nullptr)")
!385 = !DISubprogram(name: "operator*", linkageName: "_ZNKSt10unique_ptrINSt6thread6_StateESt14default_deleteIS1_EEdeEv", scope: !76, file: !77, line: 451, type: !386, scopeLine: 451, flags: DIFlagPublic | DIFlagPrototyped, spFlags: 0)
!386 = !DISubroutineType(types: !387)
!387 = !{!388, !395}
!388 = !DIDerivedType(tag: DW_TAG_typedef, name: "type", scope: !389, file: !298, line: 1630, baseType: !390)
!389 = distinct !DICompositeType(tag: DW_TAG_structure_type, name: "add_lvalue_reference<std::thread::_State>", scope: !9, file: !298, line: 1629, size: 8, flags: DIFlagTypePassByValue, elements: !145, templateParams: !112, identifier: "_ZTSSt20add_lvalue_referenceINSt6thread6_StateEE")
!390 = !DIDerivedType(tag: DW_TAG_typedef, name: "__add_lval_ref_t<std::thread::_State>", scope: !9, file: !298, line: 1071, baseType: !391)
!391 = !DIDerivedType(tag: DW_TAG_typedef, name: "type", scope: !392, file: !298, line: 1068, baseType: !394)
!392 = distinct !DICompositeType(tag: DW_TAG_structure_type, name: "__add_lvalue_reference_helper<std::thread::_State, void>", scope: !9, file: !298, line: 1067, size: 8, flags: DIFlagTypePassByValue, elements: !145, templateParams: !393, identifier: "_ZTSSt29__add_lvalue_reference_helperINSt6thread6_StateEvE")
!393 = !{!113, !324}
!394 = !DIDerivedType(tag: DW_TAG_reference_type, baseType: !111, size: 64)
!395 = !DIDerivedType(tag: DW_TAG_pointer_type, baseType: !396, size: 64, flags: DIFlagArtificial | DIFlagObjectPointer)
!396 = !DIDerivedType(tag: DW_TAG_const_type, baseType: !76)
!397 = !DISubprogram(name: "operator->", linkageName: "_ZNKSt10unique_ptrINSt6thread6_StateESt14default_deleteIS1_EEptEv", scope: !76, file: !77, line: 460, type: !398, scopeLine: 460, flags: DIFlagPublic | DIFlagPrototyped, spFlags: 0)
!398 = !DISubroutineType(types: !399)
!399 = !{!400, !395}
!400 = !DIDerivedType(tag: DW_TAG_typedef, name: "pointer", scope: !76, file: !77, line: 286, baseType: !318, flags: DIFlagPublic)
!401 = !DISubprogram(name: "get", linkageName: "_ZNKSt10unique_ptrINSt6thread6_StateESt14default_deleteIS1_EE3getEv", scope: !76, file: !77, line: 469, type: !398, scopeLine: 469, flags: DIFlagPublic | DIFlagPrototyped, spFlags: 0)
!402 = !DISubprogram(name: "get_deleter", linkageName: "_ZNSt10unique_ptrINSt6thread6_StateESt14default_deleteIS1_EE11get_deleterEv", scope: !76, file: !77, line: 475, type: !403, scopeLine: 475, flags: DIFlagPublic | DIFlagPrototyped, spFlags: 0)
!403 = !DISubroutineType(types: !404)
!404 = !{!405, !370}
!405 = !DIDerivedType(tag: DW_TAG_reference_type, baseType: !406, size: 64)
!406 = !DIDerivedType(tag: DW_TAG_typedef, name: "deleter_type", scope: !76, file: !77, line: 288, baseType: !99, flags: DIFlagPublic)
!407 = !DISubprogram(name: "get_deleter", linkageName: "_ZNKSt10unique_ptrINSt6thread6_StateESt14default_deleteIS1_EE11get_deleterEv", scope: !76, file: !77, line: 481, type: !408, scopeLine: 481, flags: DIFlagPublic | DIFlagPrototyped, spFlags: 0)
!408 = !DISubroutineType(types: !409)
!409 = !{!410, !395}
!410 = !DIDerivedType(tag: DW_TAG_reference_type, baseType: !411, size: 64)
!411 = !DIDerivedType(tag: DW_TAG_const_type, baseType: !406)
!412 = !DISubprogram(name: "operator bool", linkageName: "_ZNKSt10unique_ptrINSt6thread6_StateESt14default_deleteIS1_EEcvbEv", scope: !76, file: !77, line: 486, type: !413, scopeLine: 486, flags: DIFlagPublic | DIFlagExplicit | DIFlagPrototyped, spFlags: 0)
!413 = !DISubroutineType(types: !414)
!414 = !{!58, !395}
!415 = !DISubprogram(name: "release", linkageName: "_ZNSt10unique_ptrINSt6thread6_StateESt14default_deleteIS1_EE7releaseEv", scope: !76, file: !77, line: 494, type: !416, scopeLine: 494, flags: DIFlagPublic | DIFlagPrototyped, spFlags: 0)
!416 = !DISubroutineType(types: !417)
!417 = !{!400, !370}
!418 = !DISubprogram(name: "reset", linkageName: "_ZNSt10unique_ptrINSt6thread6_StateESt14default_deleteIS1_EE5resetEPS1_", scope: !76, file: !77, line: 505, type: !419, scopeLine: 505, flags: DIFlagPublic | DIFlagPrototyped, spFlags: 0)
!419 = !DISubroutineType(types: !420)
!420 = !{null, !370, !400}
!421 = !DISubprogram(name: "swap", linkageName: "_ZNSt10unique_ptrINSt6thread6_StateESt14default_deleteIS1_EE4swapERS4_", scope: !76, file: !77, line: 515, type: !422, scopeLine: 515, flags: DIFlagPublic | DIFlagPrototyped, spFlags: 0)
!422 = !DISubroutineType(types: !423)
!423 = !{null, !370, !378}
!424 = !DISubprogram(name: "unique_ptr", scope: !76, file: !77, line: 522, type: !425, scopeLine: 522, flags: DIFlagPublic | DIFlagPrototyped, spFlags: DISPFlagDeleted)
!425 = !DISubroutineType(types: !426)
!426 = !{null, !370, !427}
!427 = !DIDerivedType(tag: DW_TAG_reference_type, baseType: !396, size: 64)
!428 = !DISubprogram(name: "operator=", linkageName: "_ZNSt10unique_ptrINSt6thread6_StateESt14default_deleteIS1_EEaSERKS4_", scope: !76, file: !77, line: 523, type: !429, scopeLine: 523, flags: DIFlagPublic | DIFlagPrototyped, spFlags: DISPFlagDeleted)
!429 = !DISubroutineType(types: !430)
!430 = !{!378, !370, !427}
!431 = !{!113, !432}
!432 = !DITemplateTypeParameter(name: "_Dp", type: !99, defaulted: true)
!433 = !DIDerivedType(tag: DW_TAG_typedef, name: "__tag", scope: !435, file: !434, line: 95, baseType: !453)
!434 = !DIFile(filename: "/usr/lib/gcc/x86_64-linux-gnu/13/../../../../include/c++/13/bits/invoke.h", directory: "")
!435 = distinct !DISubprogram(name: "__invoke<void (*)(int), int>", linkageName: "_ZSt8__invokeIPFviEJiEENSt15__invoke_resultIT_JDpT0_EE4typeEOS3_DpOS4_", scope: !9, file: !434, line: 90, type: !436, scopeLine: 92, flags: DIFlagPrototyped, spFlags: DISPFlagDefinition, unit: !2, templateParams: !448, retainedNodes: !145)
!436 = !DISubroutineType(types: !437)
!437 = !{!438, !442, !447}
!438 = !DIDerivedType(tag: DW_TAG_typedef, name: "type", scope: !439, file: !298, line: 2258, baseType: null)
!439 = distinct !DICompositeType(tag: DW_TAG_structure_type, name: "__success_type<void>", scope: !9, file: !298, line: 2257, size: 8, flags: DIFlagTypePassByValue, elements: !145, templateParams: !440, identifier: "_ZTSSt14__success_typeIvE")
!440 = !{!441}
!441 = !DITemplateTypeParameter(name: "_Tp", type: null)
!442 = !DIDerivedType(tag: DW_TAG_rvalue_reference_type, baseType: !443, size: 64)
!443 = !DIDerivedType(tag: DW_TAG_pointer_type, baseType: !444, size: 64)
!444 = !DISubroutineType(types: !445)
!445 = !{null, !446}
!446 = !DIBasicType(name: "int", size: 32, encoding: DW_ATE_signed)
!447 = !DIDerivedType(tag: DW_TAG_rvalue_reference_type, baseType: !446, size: 64)
!448 = !{!449, !450}
!449 = !DITemplateTypeParameter(name: "_Callable", type: !443)
!450 = !DITemplateValueParameter(tag: DW_TAG_GNU_template_parameter_pack, name: "_Args", value: !451)
!451 = !{!452}
!452 = !DITemplateTypeParameter(type: !446)
!453 = !DIDerivedType(tag: DW_TAG_typedef, name: "__invoke_type", scope: !454, file: !298, line: 2411, baseType: !459)
!454 = distinct !DICompositeType(tag: DW_TAG_structure_type, name: "__result_of_success<void, std::__invoke_other>", scope: !9, file: !298, line: 2410, size: 8, flags: DIFlagTypePassByValue, elements: !455, templateParams: !457, identifier: "_ZTSSt19__result_of_successIvSt14__invoke_otherE")
!455 = !{!456}
!456 = !DIDerivedType(tag: DW_TAG_inheritance, scope: !454, baseType: !439, extraData: i32 0)
!457 = !{!441, !458}
!458 = !DITemplateTypeParameter(name: "_Tag", type: !459)
!459 = distinct !DICompositeType(tag: DW_TAG_structure_type, name: "__invoke_other", scope: !9, file: !298, line: 2406, size: 8, flags: DIFlagTypePassByValue, elements: !145, identifier: "_ZTSSt14__invoke_other")
!460 = !DIDerivedType(tag: DW_TAG_typedef, name: "size_type", file: !461, line: 460, baseType: !462, flags: DIFlagPublic)
!461 = !DIFile(filename: "/usr/lib/gcc/x86_64-linux-gnu/13/../../../../include/c++/13/bits/stl_vector.h", directory: "", checksumkind: CSK_MD5, checksum: "28825b5d932ba14be6043884e1fd9548")
!462 = !DIDerivedType(tag: DW_TAG_typedef, name: "size_t", scope: !9, file: !383, line: 308, baseType: !20)
!463 = !DIDerivedType(tag: DW_TAG_pointer_type, baseType: !8, size: 64)
!464 = distinct !DICompositeType(tag: DW_TAG_class_type, name: "__normal_iterator<std::thread *, std::vector<std::thread, std::allocator<std::thread> > >", scope: !466, file: !465, line: 1047, size: 64, flags: DIFlagTypePassByValue | DIFlagNonTrivial, elements: !467, templateParams: !521, identifier: "_ZTSN9__gnu_cxx17__normal_iteratorIPSt6threadSt6vectorIS1_SaIS1_EEEE")
!465 = !DIFile(filename: "/usr/lib/gcc/x86_64-linux-gnu/13/../../../../include/c++/13/bits/stl_iterator.h", directory: "", checksumkind: CSK_MD5, checksum: "5062fe07d9dcd501f4b20e56129c7f5f")
!466 = !DINamespace(name: "__gnu_cxx", scope: null)
!467 = !{!468, !469, !473, !478, !489, !494, !498, !501, !502, !503, !510, !513, !516, !517, !518}
!468 = !DIDerivedType(tag: DW_TAG_member, name: "_M_current", scope: !464, file: !465, line: 1050, baseType: !463, size: 64, flags: DIFlagProtected)
!469 = !DISubprogram(name: "__normal_iterator", scope: !464, file: !465, line: 1072, type: !470, scopeLine: 1072, flags: DIFlagPublic | DIFlagPrototyped, spFlags: 0)
!470 = !DISubroutineType(types: !471)
!471 = !{null, !472}
!472 = !DIDerivedType(tag: DW_TAG_pointer_type, baseType: !464, size: 64, flags: DIFlagArtificial | DIFlagObjectPointer)
!473 = !DISubprogram(name: "__normal_iterator", scope: !464, file: !465, line: 1076, type: !474, scopeLine: 1076, flags: DIFlagPublic | DIFlagExplicit | DIFlagPrototyped, spFlags: 0)
!474 = !DISubroutineType(types: !475)
!475 = !{null, !472, !476}
!476 = !DIDerivedType(tag: DW_TAG_reference_type, baseType: !477, size: 64)
!477 = !DIDerivedType(tag: DW_TAG_const_type, baseType: !463)
!478 = !DISubprogram(name: "operator*", linkageName: "_ZNK9__gnu_cxx17__normal_iteratorIPSt6threadSt6vectorIS1_SaIS1_EEEdeEv", scope: !464, file: !465, line: 1099, type: !479, scopeLine: 1099, flags: DIFlagPublic | DIFlagPrototyped, spFlags: 0)
!479 = !DISubroutineType(types: !480)
!480 = !{!481, !487}
!481 = !DIDerivedType(tag: DW_TAG_typedef, name: "reference", scope: !464, file: !465, line: 1065, baseType: !482, flags: DIFlagPublic)
!482 = !DIDerivedType(tag: DW_TAG_typedef, name: "reference", scope: !484, file: !483, line: 216, baseType: !48)
!483 = !DIFile(filename: "/usr/lib/gcc/x86_64-linux-gnu/13/../../../../include/c++/13/bits/stl_iterator_base_types.h", directory: "")
!484 = distinct !DICompositeType(tag: DW_TAG_structure_type, name: "iterator_traits<std::thread *>", scope: !9, file: !483, line: 210, size: 8, flags: DIFlagTypePassByValue, elements: !145, templateParams: !485, identifier: "_ZTSSt15iterator_traitsIPSt6threadE")
!485 = !{!486}
!486 = !DITemplateTypeParameter(name: "_Iterator", type: !463)
!487 = !DIDerivedType(tag: DW_TAG_pointer_type, baseType: !488, size: 64, flags: DIFlagArtificial | DIFlagObjectPointer)
!488 = !DIDerivedType(tag: DW_TAG_const_type, baseType: !464)
!489 = !DISubprogram(name: "operator->", linkageName: "_ZNK9__gnu_cxx17__normal_iteratorIPSt6threadSt6vectorIS1_SaIS1_EEEptEv", scope: !464, file: !465, line: 1104, type: !490, scopeLine: 1104, flags: DIFlagPublic | DIFlagPrototyped, spFlags: 0)
!490 = !DISubroutineType(types: !491)
!491 = !{!492, !487}
!492 = !DIDerivedType(tag: DW_TAG_typedef, name: "pointer", scope: !464, file: !465, line: 1066, baseType: !493, flags: DIFlagPublic)
!493 = !DIDerivedType(tag: DW_TAG_typedef, name: "pointer", scope: !484, file: !483, line: 215, baseType: !463)
!494 = !DISubprogram(name: "operator++", linkageName: "_ZN9__gnu_cxx17__normal_iteratorIPSt6threadSt6vectorIS1_SaIS1_EEEppEv", scope: !464, file: !465, line: 1109, type: !495, scopeLine: 1109, flags: DIFlagPublic | DIFlagPrototyped, spFlags: 0)
!495 = !DISubroutineType(types: !496)
!496 = !{!497, !472}
!497 = !DIDerivedType(tag: DW_TAG_reference_type, baseType: !464, size: 64)
!498 = !DISubprogram(name: "operator++", linkageName: "_ZN9__gnu_cxx17__normal_iteratorIPSt6threadSt6vectorIS1_SaIS1_EEEppEi", scope: !464, file: !465, line: 1117, type: !499, scopeLine: 1117, flags: DIFlagPublic | DIFlagPrototyped, spFlags: 0)
!499 = !DISubroutineType(types: !500)
!500 = !{!464, !472, !446}
!501 = !DISubprogram(name: "operator--", linkageName: "_ZN9__gnu_cxx17__normal_iteratorIPSt6threadSt6vectorIS1_SaIS1_EEEmmEv", scope: !464, file: !465, line: 1123, type: !495, scopeLine: 1123, flags: DIFlagPublic | DIFlagPrototyped, spFlags: 0)
!502 = !DISubprogram(name: "operator--", linkageName: "_ZN9__gnu_cxx17__normal_iteratorIPSt6threadSt6vectorIS1_SaIS1_EEEmmEi", scope: !464, file: !465, line: 1131, type: !499, scopeLine: 1131, flags: DIFlagPublic | DIFlagPrototyped, spFlags: 0)
!503 = !DISubprogram(name: "operator[]", linkageName: "_ZNK9__gnu_cxx17__normal_iteratorIPSt6threadSt6vectorIS1_SaIS1_EEEixEl", scope: !464, file: !465, line: 1137, type: !504, scopeLine: 1137, flags: DIFlagPublic | DIFlagPrototyped, spFlags: 0)
!504 = !DISubroutineType(types: !505)
!505 = !{!481, !487, !506}
!506 = !DIDerivedType(tag: DW_TAG_typedef, name: "difference_type", scope: !464, file: !465, line: 1064, baseType: !507, flags: DIFlagPublic)
!507 = !DIDerivedType(tag: DW_TAG_typedef, name: "difference_type", scope: !484, file: !483, line: 214, baseType: !508)
!508 = !DIDerivedType(tag: DW_TAG_typedef, name: "ptrdiff_t", scope: !9, file: !383, line: 309, baseType: !509)
!509 = !DIBasicType(name: "long", size: 64, encoding: DW_ATE_signed)
!510 = !DISubprogram(name: "operator+=", linkageName: "_ZN9__gnu_cxx17__normal_iteratorIPSt6threadSt6vectorIS1_SaIS1_EEEpLEl", scope: !464, file: !465, line: 1142, type: !511, scopeLine: 1142, flags: DIFlagPublic | DIFlagPrototyped, spFlags: 0)
!511 = !DISubroutineType(types: !512)
!512 = !{!497, !472, !506}
!513 = !DISubprogram(name: "operator+", linkageName: "_ZNK9__gnu_cxx17__normal_iteratorIPSt6threadSt6vectorIS1_SaIS1_EEEplEl", scope: !464, file: !465, line: 1147, type: !514, scopeLine: 1147, flags: DIFlagPublic | DIFlagPrototyped, spFlags: 0)
!514 = !DISubroutineType(types: !515)
!515 = !{!464, !487, !506}
!516 = !DISubprogram(name: "operator-=", linkageName: "_ZN9__gnu_cxx17__normal_iteratorIPSt6threadSt6vectorIS1_SaIS1_EEEmIEl", scope: !464, file: !465, line: 1152, type: !511, scopeLine: 1152, flags: DIFlagPublic | DIFlagPrototyped, spFlags: 0)
!517 = !DISubprogram(name: "operator-", linkageName: "_ZNK9__gnu_cxx17__normal_iteratorIPSt6threadSt6vectorIS1_SaIS1_EEEmiEl", scope: !464, file: !465, line: 1157, type: !514, scopeLine: 1157, flags: DIFlagPublic | DIFlagPrototyped, spFlags: 0)
!518 = !DISubprogram(name: "base", linkageName: "_ZNK9__gnu_cxx17__normal_iteratorIPSt6threadSt6vectorIS1_SaIS1_EEE4baseEv", scope: !464, file: !465, line: 1162, type: !519, scopeLine: 1162, flags: DIFlagPublic | DIFlagPrototyped, spFlags: 0)
!519 = !DISubroutineType(types: !520)
!520 = !{!476, !487}
!521 = !{!486, !522}
!522 = !DITemplateTypeParameter(name: "_Container", type: !523)
!523 = distinct !DICompositeType(tag: DW_TAG_class_type, name: "vector<std::thread, std::allocator<std::thread> >", scope: !9, file: !461, line: 425, size: 192, flags: DIFlagTypePassByReference | DIFlagNonTrivial, elements: !524, templateParams: !998, identifier: "_ZTSSt6vectorISt6threadSaIS0_EE")
!524 = !{!525, !734, !752, !768, !769, !775, !778, !781, !785, !791, !794, !800, !805, !809, !819, !822, !825, !828, !833, !834, !838, !841, !844, !847, !850, !854, !860, !861, !862, !867, !872, !873, !874, !875, !876, !877, !878, !881, !882, !885, !886, !887, !888, !891, !892, !900, !907, !910, !911, !912, !915, !918, !919, !920, !923, !926, !929, !933, !934, !937, !940, !943, !946, !949, !952, !955, !956, !957, !958, !959, !962, !963, !966, !967, !968, !975, !978, !983, !986, !989, !992, !995}
!525 = !DIDerivedType(tag: DW_TAG_inheritance, scope: !523, baseType: !526, flags: DIFlagProtected, extraData: i32 0)
!526 = distinct !DICompositeType(tag: DW_TAG_structure_type, name: "_Vector_base<std::thread, std::allocator<std::thread> >", scope: !9, file: !461, line: 85, size: 192, flags: DIFlagTypePassByReference | DIFlagNonTrivial, elements: !527, templateParams: !733, identifier: "_ZTSSt12_Vector_baseISt6threadSaIS0_EE")
!527 = !{!528, !684, !689, !694, !698, !701, !706, !709, !712, !716, !719, !722, !725, !726, !729, !732}
!528 = !DIDerivedType(tag: DW_TAG_member, name: "_M_impl", scope: !526, file: !461, line: 371, baseType: !529, size: 192)
!529 = distinct !DICompositeType(tag: DW_TAG_structure_type, name: "_Vector_impl", scope: !526, file: !461, line: 133, size: 192, flags: DIFlagTypePassByReference | DIFlagNonTrivial, elements: !530, identifier: "_ZTSNSt12_Vector_baseISt6threadSaIS0_EE12_Vector_implE")
!530 = !{!531, !639, !664, !668, !673, !677, !681}
!531 = !DIDerivedType(tag: DW_TAG_inheritance, scope: !529, baseType: !532, extraData: i32 0)
