; ModuleID = '/home/cs22mtech12008/Reproduced_UAF/Synthetic_bugs/PTHREAD_VERSION/Thread_creation_Patterns/Thread_in_loop/Thread_in_do_while_UAS_bug.cpp'
source_filename = "/home/cs22mtech12008/Reproduced_UAF/Synthetic_bugs/PTHREAD_VERSION/Thread_creation_Patterns/Thread_in_loop/Thread_in_do_while_UAS_bug.cpp"
target datalayout = "e-m:e-p270:32:32-p271:32:32-p272:64:64-i64:64-f80:128-n8:16:32:64-S128"
target triple = "x86_64-unknown-linux-gnu"

module asm ".globl _ZSt21ios_base_library_initv"

%"class.std::basic_ostream" = type { ptr, %"class.std::basic_ios" }
%"class.std::basic_ios" = type { %"class.std::ios_base", ptr, i8, i8, ptr, ptr, ptr, ptr }
%"class.std::ios_base" = type { ptr, i64, i64, i32, i32, i32, ptr, %"struct.std::ios_base::_Words", [8 x %"struct.std::ios_base::_Words"], i32, ptr, %"class.std::locale" }
%"struct.std::ios_base::_Words" = type { ptr, i64 }
%"class.std::locale" = type { ptr }
%"class.std::vector" = type { %"struct.std::_Vector_base" }
%"struct.std::_Vector_base" = type { %"struct.std::_Vector_base<unsigned long, std::allocator<unsigned long>>::_Vector_impl" }
%"struct.std::_Vector_base<unsigned long, std::allocator<unsigned long>>::_Vector_impl" = type { %"struct.std::_Vector_base<unsigned long, std::allocator<unsigned long>>::_Vector_impl_data" }
%"struct.std::_Vector_base<unsigned long, std::allocator<unsigned long>>::_Vector_impl_data" = type { ptr, ptr, ptr }
%"class.__gnu_cxx::__normal_iterator" = type { ptr }

$_ZNSt6vectorImSaImEEC2Ev = comdat any

$_ZNSt6vectorImSaImEE9push_backERKm = comdat any

$_ZNKSt6vectorImSaImEE4sizeEv = comdat any

$_ZNSt6vectorImSaImEEixEm = comdat any

$_ZNSt6vectorImSaImEED2Ev = comdat any

$_ZNSt12_Vector_baseImSaImEEC2Ev = comdat any

$_ZNSt12_Vector_baseImSaImEE12_Vector_implC2Ev = comdat any

$_ZNSt12_Vector_baseImSaImEE17_Vector_impl_dataC2Ev = comdat any

$_ZNSt12_Vector_baseImSaImEE19_M_get_Tp_allocatorEv = comdat any

$__clang_call_terminate = comdat any

$_ZNSt12_Vector_baseImSaImEED2Ev = comdat any

$_ZSt8_DestroyIPmEvT_S1_ = comdat any

$_ZNSt12_Destroy_auxILb1EE9__destroyIPmEEvT_S3_ = comdat any

$_ZNSt12_Vector_baseImSaImEE13_M_deallocateEPmm = comdat any

$_ZNSt12_Vector_baseImSaImEE12_Vector_implD2Ev = comdat any

$_ZNSt15__new_allocatorImE10deallocateEPmm = comdat any

$_ZNSt15__new_allocatorImED2Ev = comdat any

$_ZNSt6vectorImSaImEE17_M_realloc_insertIJRKmEEEvN9__gnu_cxx17__normal_iteratorIPmS1_EEDpOT_ = comdat any

$_ZNSt6vectorImSaImEE3endEv = comdat any

$_ZNKSt6vectorImSaImEE12_M_check_lenEmPKc = comdat any

$_ZN9__gnu_cxxmiIPmSt6vectorImSaImEEEENS_17__normal_iteratorIT_T0_E15difference_typeERKS8_SB_ = comdat any

$_ZNSt6vectorImSaImEE5beginEv = comdat any

$_ZNSt12_Vector_baseImSaImEE11_M_allocateEm = comdat any

$_ZNSt6vectorImSaImEE11_S_relocateEPmS2_S2_RS0_ = comdat any

$_ZNK9__gnu_cxx17__normal_iteratorIPmSt6vectorImSaImEEE4baseEv = comdat any

$_ZNKSt6vectorImSaImEE8max_sizeEv = comdat any

$_ZSt3maxImERKT_S2_S2_ = comdat any

$_ZNSt6vectorImSaImEE11_S_max_sizeERKS0_ = comdat any

$_ZNKSt12_Vector_baseImSaImEE19_M_get_Tp_allocatorEv = comdat any

$_ZSt3minImERKT_S2_S2_ = comdat any

$_ZN9__gnu_cxx17__normal_iteratorIPmSt6vectorImSaImEEEC2ERKS1_ = comdat any

$_ZNSt15__new_allocatorImE8allocateEmPKv = comdat any

$_ZSt12__relocate_aIPmS0_SaImEET0_T_S3_S2_RT1_ = comdat any

$_ZSt14__relocate_a_1ImmENSt9enable_ifIXsr3std24__is_bitwise_relocatableIT_EE5valueEPS1_E4typeES2_S2_S2_RSaIT0_E = comdat any

$_ZSt12__niter_baseIPmET_S1_ = comdat any

@_ZSt4cout = external global %"class.std::basic_ostream", align 8
@.str = private unnamed_addr constant [30 x i8] c"Thread updated sharedData to \00", align 1, !dbg !0
@.str.1 = private unnamed_addr constant [2 x i8] c"\0A\00", align 1, !dbg !8
@.str.2 = private unnamed_addr constant [12 x i8] c" is joining\00", align 1, !dbg !13
@.str.3 = private unnamed_addr constant [19 x i8] c"Final sharedData: \00", align 1, !dbg !18
@.str.4 = private unnamed_addr constant [26 x i8] c"vector::_M_realloc_insert\00", align 1, !dbg !23

; Function Attrs: mustprogress noinline optnone uwtable
define dso_local noundef ptr @_Z10threadTaskPv(ptr noundef %0) #0 !dbg !1359 {
  %2 = alloca ptr, align 8
  %3 = alloca ptr, align 8
  store ptr %0, ptr %2, align 8
  call void @llvm.dbg.declare(metadata ptr %2, metadata !1362, metadata !DIExpression()), !dbg !1363
  call void @llvm.dbg.declare(metadata ptr %3, metadata !1364, metadata !DIExpression()), !dbg !1365
  %4 = load ptr, ptr %2, align 8, !dbg !1366
  store ptr %4, ptr %3, align 8, !dbg !1365
  %5 = load ptr, ptr %3, align 8, !dbg !1367
  %6 = load i32, ptr %5, align 4, !dbg !1368
  %7 = add nsw i32 %6, 1, !dbg !1368
  store i32 %7, ptr %5, align 4, !dbg !1368
  %8 = call noundef nonnull align 8 dereferenceable(8) ptr @_ZStlsISt11char_traitsIcEERSt13basic_ostreamIcT_ES5_PKc(ptr noundef nonnull align 8 dereferenceable(8) @_ZSt4cout, ptr noundef @.str), !dbg !1369
  %9 = load ptr, ptr %3, align 8, !dbg !1370
  %10 = load i32, ptr %9, align 4, !dbg !1371
  %11 = call noundef nonnull align 8 dereferenceable(8) ptr @_ZNSolsEi(ptr noundef nonnull align 8 dereferenceable(8) %8, i32 noundef %10), !dbg !1372
  %12 = call noundef nonnull align 8 dereferenceable(8) ptr @_ZStlsISt11char_traitsIcEERSt13basic_ostreamIcT_ES5_PKc(ptr noundef nonnull align 8 dereferenceable(8) %11, ptr noundef @.str.1), !dbg !1373
  ret ptr null, !dbg !1374
}

; Function Attrs: nocallback nofree nosync nounwind speculatable willreturn memory(none)
declare void @llvm.dbg.declare(metadata, metadata, metadata) #1

declare noundef nonnull align 8 dereferenceable(8) ptr @_ZStlsISt11char_traitsIcEERSt13basic_ostreamIcT_ES5_PKc(ptr noundef nonnull align 8 dereferenceable(8), ptr noundef) #2

declare noundef nonnull align 8 dereferenceable(8) ptr @_ZNSolsEi(ptr noundef nonnull align 8 dereferenceable(8), i32 noundef) #2

; Function Attrs: mustprogress noinline optnone uwtable
define dso_local noundef ptr @_Z11threadTask2Pv(ptr noundef %0) #0 !dbg !1375 {
  %2 = alloca ptr, align 8
  %3 = alloca i32, align 4
  store ptr %0, ptr %2, align 8
  call void @llvm.dbg.declare(metadata ptr %2, metadata !1376, metadata !DIExpression()), !dbg !1377
  call void @llvm.dbg.declare(metadata ptr %3, metadata !1378, metadata !DIExpression()), !dbg !1379
  %4 = load ptr, ptr %2, align 8, !dbg !1380
  %5 = load i32, ptr %4, align 4, !dbg !1381
  store i32 %5, ptr %3, align 4, !dbg !1379
  %6 = load i32, ptr %3, align 4, !dbg !1382
  %7 = add nsw i32 %6, 1, !dbg !1382
  store i32 %7, ptr %3, align 4, !dbg !1382
  %8 = call noundef nonnull align 8 dereferenceable(8) ptr @_ZStlsISt11char_traitsIcEERSt13basic_ostreamIcT_ES5_PKc(ptr noundef nonnull align 8 dereferenceable(8) @_ZSt4cout, ptr noundef @.str), !dbg !1383
  %9 = load i32, ptr %3, align 4, !dbg !1384
  %10 = call noundef nonnull align 8 dereferenceable(8) ptr @_ZNSolsEi(ptr noundef nonnull align 8 dereferenceable(8) %8, i32 noundef %9), !dbg !1385
  %11 = call noundef nonnull align 8 dereferenceable(8) ptr @_ZStlsISt11char_traitsIcEERSt13basic_ostreamIcT_ES5_PKc(ptr noundef nonnull align 8 dereferenceable(8) %10, ptr noundef @.str.1), !dbg !1386
  ret ptr null, !dbg !1387
}

; Function Attrs: mustprogress noinline norecurse optnone uwtable
define dso_local noundef i32 @main() #3 personality ptr @__gxx_personality_v0 !dbg !1388 {
  %1 = alloca i32, align 4
  %2 = alloca %"class.std::vector", align 8
  %3 = alloca i32, align 4
  %4 = alloca i32, align 4
  %5 = alloca i32, align 4
  %6 = alloca i64, align 8
  %7 = alloca ptr, align 8
  %8 = alloca i32, align 4
  %9 = alloca i64, align 8
  store i32 0, ptr %1, align 4
  call void @llvm.dbg.declare(metadata ptr %2, metadata !1389, metadata !DIExpression()), !dbg !1390
  call void @_ZNSt6vectorImSaImEEC2Ev(ptr noundef nonnull align 8 dereferenceable(24) %2) #12, !dbg !1390
  call void @llvm.dbg.declare(metadata ptr %3, metadata !1391, metadata !DIExpression()), !dbg !1392
  store i32 2, ptr %3, align 4, !dbg !1392
  call void @llvm.dbg.declare(metadata ptr %4, metadata !1393, metadata !DIExpression()), !dbg !1394
  store i32 1, ptr %4, align 4, !dbg !1394
  br label %10, !dbg !1395

10:                                               ; preds = %38, %0
  call void @llvm.dbg.declare(metadata ptr %5, metadata !1396, metadata !DIExpression()), !dbg !1398
  store i32 100, ptr %5, align 4, !dbg !1398
  call void @llvm.dbg.declare(metadata ptr %6, metadata !1399, metadata !DIExpression()), !dbg !1402
  %11 = load i32, ptr %3, align 4, !dbg !1403
  %12 = icmp sgt i32 %11, 1, !dbg !1405
  br i1 %12, label %13, label %23, !dbg !1406

13:                                               ; preds = %10
  %14 = load i32, ptr %3, align 4, !dbg !1407
  %15 = icmp slt i32 %14, 10, !dbg !1408
  br i1 %15, label %16, label %23, !dbg !1409

16:                                               ; preds = %13
  %17 = call i32 @pthread_create(ptr noundef %6, ptr noundef null, ptr noundef @_Z11threadTask2Pv, ptr noundef %5) #12, !dbg !1410
  invoke void @_ZNSt6vectorImSaImEE9push_backERKm(ptr noundef nonnull align 8 dereferenceable(24) %2, ptr noundef nonnull align 8 dereferenceable(8) %6)
          to label %18 unwind label %19, !dbg !1412

18:                                               ; preds = %16
  br label %35, !dbg !1413

19:                                               ; preds = %69, %66, %64, %55, %53, %51, %46, %31, %29, %27, %23, %16
  %20 = landingpad { ptr, i32 }
          cleanup, !dbg !1414
  %21 = extractvalue { ptr, i32 } %20, 0, !dbg !1414
  store ptr %21, ptr %7, align 8, !dbg !1414
  %22 = extractvalue { ptr, i32 } %20, 1, !dbg !1414
  store i32 %22, ptr %8, align 4, !dbg !1414
  call void @_ZNSt6vectorImSaImEED2Ev(ptr noundef nonnull align 8 dereferenceable(24) %2) #12, !dbg !1415
  br label %73, !dbg !1415

23:                                               ; preds = %13, %10
  %24 = call i32 @pthread_create(ptr noundef %6, ptr noundef null, ptr noundef @_Z10threadTaskPv, ptr noundef %5) #12, !dbg !1416
  %25 = load i64, ptr %6, align 8, !dbg !1418
  %26 = invoke noundef nonnull align 8 dereferenceable(8) ptr @_ZNSolsEm(ptr noundef nonnull align 8 dereferenceable(8) @_ZSt4cout, i64 noundef %25)
          to label %27 unwind label %19, !dbg !1419

27:                                               ; preds = %23
  %28 = invoke noundef nonnull align 8 dereferenceable(8) ptr @_ZStlsISt11char_traitsIcEERSt13basic_ostreamIcT_ES5_PKc(ptr noundef nonnull align 8 dereferenceable(8) %26, ptr noundef @.str.2)
          to label %29 unwind label %19, !dbg !1420

29:                                               ; preds = %27
  %30 = invoke noundef nonnull align 8 dereferenceable(8) ptr @_ZNSolsEPFRSoS_E(ptr noundef nonnull align 8 dereferenceable(8) %28, ptr noundef @_ZSt4endlIcSt11char_traitsIcEERSt13basic_ostreamIT_T0_ES6_)
          to label %31 unwind label %19, !dbg !1421

31:                                               ; preds = %29
  %32 = load i64, ptr %6, align 8, !dbg !1422
  %33 = invoke i32 @pthread_join(i64 noundef %32, ptr noundef null)
          to label %34 unwind label %19, !dbg !1423

34:                                               ; preds = %31
  br label %35

35:                                               ; preds = %34, %18
  %36 = load i32, ptr %3, align 4, !dbg !1424
  %37 = add nsw i32 %36, 1, !dbg !1424
  store i32 %37, ptr %3, align 4, !dbg !1424
  br label %38, !dbg !1425

38:                                               ; preds = %35
  %39 = load i32, ptr %3, align 4, !dbg !1426
  %40 = icmp slt i32 %39, 50, !dbg !1427
  br i1 %40, label %10, label %41, !dbg !1425, !llvm.loop !1428

41:                                               ; preds = %38
  call void @llvm.dbg.declare(metadata ptr %9, metadata !1431, metadata !DIExpression()), !dbg !1433
  store i64 2, ptr %9, align 8, !dbg !1433
  br label %42, !dbg !1434

42:                                               ; preds = %61, %41
  %43 = load i64, ptr %9, align 8, !dbg !1435
  %44 = call noundef i64 @_ZNKSt6vectorImSaImEE4sizeEv(ptr noundef nonnull align 8 dereferenceable(24) %2) #12, !dbg !1437
  %45 = icmp ult i64 %43, %44, !dbg !1438
  br i1 %45, label %46, label %64, !dbg !1439

46:                                               ; preds = %42
  %47 = load i64, ptr %9, align 8, !dbg !1440
  %48 = call noundef nonnull align 8 dereferenceable(8) ptr @_ZNSt6vectorImSaImEEixEm(ptr noundef nonnull align 8 dereferenceable(24) %2, i64 noundef %47) #12, !dbg !1442
  %49 = load i64, ptr %48, align 8, !dbg !1442
  %50 = invoke noundef nonnull align 8 dereferenceable(8) ptr @_ZNSolsEm(ptr noundef nonnull align 8 dereferenceable(8) @_ZSt4cout, i64 noundef %49)
          to label %51 unwind label %19, !dbg !1443

51:                                               ; preds = %46
  %52 = invoke noundef nonnull align 8 dereferenceable(8) ptr @_ZStlsISt11char_traitsIcEERSt13basic_ostreamIcT_ES5_PKc(ptr noundef nonnull align 8 dereferenceable(8) %50, ptr noundef @.str.2)
          to label %53 unwind label %19, !dbg !1444

53:                                               ; preds = %51
  %54 = invoke noundef nonnull align 8 dereferenceable(8) ptr @_ZNSolsEPFRSoS_E(ptr noundef nonnull align 8 dereferenceable(8) %52, ptr noundef @_ZSt4endlIcSt11char_traitsIcEERSt13basic_ostreamIT_T0_ES6_)
          to label %55 unwind label %19, !dbg !1445

55:                                               ; preds = %53
  %56 = load i64, ptr %9, align 8, !dbg !1446
  %57 = call noundef nonnull align 8 dereferenceable(8) ptr @_ZNSt6vectorImSaImEEixEm(ptr noundef nonnull align 8 dereferenceable(24) %2, i64 noundef %56) #12, !dbg !1447
  %58 = load i64, ptr %57, align 8, !dbg !1447
  %59 = invoke i32 @pthread_join(i64 noundef %58, ptr noundef null)
          to label %60 unwind label %19, !dbg !1448

60:                                               ; preds = %55
  br label %61, !dbg !1449

61:                                               ; preds = %60
  %62 = load i64, ptr %9, align 8, !dbg !1450
  %63 = add i64 %62, 1, !dbg !1450
  store i64 %63, ptr %9, align 8, !dbg !1450
  br label %42, !dbg !1451, !llvm.loop !1452

64:                                               ; preds = %42
  %65 = invoke noundef nonnull align 8 dereferenceable(8) ptr @_ZStlsISt11char_traitsIcEERSt13basic_ostreamIcT_ES5_PKc(ptr noundef nonnull align 8 dereferenceable(8) @_ZSt4cout, ptr noundef @.str.3)
          to label %66 unwind label %19, !dbg !1454

66:                                               ; preds = %64
  %67 = load i32, ptr %3, align 4, !dbg !1455
  %68 = invoke noundef nonnull align 8 dereferenceable(8) ptr @_ZNSolsEi(ptr noundef nonnull align 8 dereferenceable(8) %65, i32 noundef %67)
          to label %69 unwind label %19, !dbg !1456

69:                                               ; preds = %66
  %70 = invoke noundef nonnull align 8 dereferenceable(8) ptr @_ZStlsISt11char_traitsIcEERSt13basic_ostreamIcT_ES5_PKc(ptr noundef nonnull align 8 dereferenceable(8) %68, ptr noundef @.str.1)
          to label %71 unwind label %19, !dbg !1457

71:                                               ; preds = %69
  store i32 0, ptr %1, align 4, !dbg !1458
  call void @_ZNSt6vectorImSaImEED2Ev(ptr noundef nonnull align 8 dereferenceable(24) %2) #12, !dbg !1415
  %72 = load i32, ptr %1, align 4, !dbg !1415
  ret i32 %72, !dbg !1415

73:                                               ; preds = %19
  %74 = load ptr, ptr %7, align 8, !dbg !1415
  %75 = load i32, ptr %8, align 4, !dbg !1415
  %76 = insertvalue { ptr, i32 } poison, ptr %74, 0, !dbg !1415
  %77 = insertvalue { ptr, i32 } %76, i32 %75, 1, !dbg !1415
  resume { ptr, i32 } %77, !dbg !1415
}

; Function Attrs: noinline nounwind optnone uwtable
define linkonce_odr dso_local void @_ZNSt6vectorImSaImEEC2Ev(ptr noundef nonnull align 8 dereferenceable(24) %0) unnamed_addr #4 comdat align 2 !dbg !1459 {
  %2 = alloca ptr, align 8
  store ptr %0, ptr %2, align 8
  call void @llvm.dbg.declare(metadata ptr %2, metadata !1460, metadata !DIExpression()), !dbg !1462
  %3 = load ptr, ptr %2, align 8
  call void @_ZNSt12_Vector_baseImSaImEEC2Ev(ptr noundef nonnull align 8 dereferenceable(24) %3) #12, !dbg !1463
  ret void, !dbg !1464
}

; Function Attrs: nounwind
declare i32 @pthread_create(ptr noundef, ptr noundef, ptr noundef, ptr noundef) #5

; Function Attrs: mustprogress noinline optnone uwtable
define linkonce_odr dso_local void @_ZNSt6vectorImSaImEE9push_backERKm(ptr noundef nonnull align 8 dereferenceable(24) %0, ptr noundef nonnull align 8 dereferenceable(8) %1) #0 comdat align 2 !dbg !1465 {
  %3 = alloca ptr, align 8
  %4 = alloca ptr, align 8
  %5 = alloca ptr, align 8
  %6 = alloca ptr, align 8
  %7 = alloca ptr, align 8
  %8 = alloca ptr, align 8
  %9 = alloca ptr, align 8
  %10 = alloca ptr, align 8
  %11 = alloca %"class.__gnu_cxx::__normal_iterator", align 8
  store ptr %0, ptr %9, align 8
  call void @llvm.dbg.declare(metadata ptr %9, metadata !1466, metadata !DIExpression()), !dbg !1467
  store ptr %1, ptr %10, align 8
  call void @llvm.dbg.declare(metadata ptr %10, metadata !1468, metadata !DIExpression()), !dbg !1469
  %12 = load ptr, ptr %9, align 8
  %13 = getelementptr inbounds %"struct.std::_Vector_base", ptr %12, i32 0, i32 0, !dbg !1470
  %14 = getelementptr inbounds %"struct.std::_Vector_base<unsigned long, std::allocator<unsigned long>>::_Vector_impl_data", ptr %13, i32 0, i32 1, !dbg !1472
  %15 = load ptr, ptr %14, align 8, !dbg !1472
  %16 = getelementptr inbounds %"struct.std::_Vector_base", ptr %12, i32 0, i32 0, !dbg !1473
  %17 = getelementptr inbounds %"struct.std::_Vector_base<unsigned long, std::allocator<unsigned long>>::_Vector_impl_data", ptr %16, i32 0, i32 2, !dbg !1474
  %18 = load ptr, ptr %17, align 8, !dbg !1474
  %19 = icmp ne ptr %15, %18, !dbg !1475
  br i1 %19, label %20, label %37, !dbg !1476

20:                                               ; preds = %2
  %21 = getelementptr inbounds %"struct.std::_Vector_base", ptr %12, i32 0, i32 0, !dbg !1477
  %22 = getelementptr inbounds %"struct.std::_Vector_base", ptr %12, i32 0, i32 0, !dbg !1479
  %23 = getelementptr inbounds %"struct.std::_Vector_base<unsigned long, std::allocator<unsigned long>>::_Vector_impl_data", ptr %22, i32 0, i32 1, !dbg !1480
  %24 = load ptr, ptr %23, align 8, !dbg !1480
  %25 = load ptr, ptr %10, align 8, !dbg !1481
  store ptr %21, ptr %6, align 8
  call void @llvm.dbg.declare(metadata ptr %6, metadata !1482, metadata !DIExpression()), !dbg !1492
  store ptr %24, ptr %7, align 8
  call void @llvm.dbg.declare(metadata ptr %7, metadata !1494, metadata !DIExpression()), !dbg !1495
  store ptr %25, ptr %8, align 8
  call void @llvm.dbg.declare(metadata ptr %8, metadata !1496, metadata !DIExpression()), !dbg !1497
  %26 = load ptr, ptr %6, align 8, !dbg !1498
  %27 = load ptr, ptr %7, align 8, !dbg !1499
  %28 = load ptr, ptr %8, align 8, !dbg !1500
  store ptr %26, ptr %3, align 8
  call void @llvm.dbg.declare(metadata ptr %3, metadata !1501, metadata !DIExpression()), !dbg !1507
  store ptr %27, ptr %4, align 8
  call void @llvm.dbg.declare(metadata ptr %4, metadata !1509, metadata !DIExpression()), !dbg !1510
  store ptr %28, ptr %5, align 8
  call void @llvm.dbg.declare(metadata ptr %5, metadata !1511, metadata !DIExpression()), !dbg !1512
  %29 = load ptr, ptr %3, align 8
  %30 = load ptr, ptr %4, align 8, !dbg !1513
  %31 = load ptr, ptr %5, align 8, !dbg !1514
  %32 = load i64, ptr %31, align 8, !dbg !1515
  store i64 %32, ptr %30, align 8, !dbg !1516
  %33 = getelementptr inbounds %"struct.std::_Vector_base", ptr %12, i32 0, i32 0, !dbg !1517
  %34 = getelementptr inbounds %"struct.std::_Vector_base<unsigned long, std::allocator<unsigned long>>::_Vector_impl_data", ptr %33, i32 0, i32 1, !dbg !1518
  %35 = load ptr, ptr %34, align 8, !dbg !1519
  %36 = getelementptr inbounds i64, ptr %35, i32 1, !dbg !1519
  store ptr %36, ptr %34, align 8, !dbg !1519
  br label %43, !dbg !1520

37:                                               ; preds = %2
  %38 = call ptr @_ZNSt6vectorImSaImEE3endEv(ptr noundef nonnull align 8 dereferenceable(24) %12) #12, !dbg !1521
  %39 = getelementptr inbounds %"class.__gnu_cxx::__normal_iterator", ptr %11, i32 0, i32 0, !dbg !1521
  store ptr %38, ptr %39, align 8, !dbg !1521
  %40 = load ptr, ptr %10, align 8, !dbg !1522
  %41 = getelementptr inbounds %"class.__gnu_cxx::__normal_iterator", ptr %11, i32 0, i32 0, !dbg !1523
  %42 = load ptr, ptr %41, align 8, !dbg !1523
  call void @_ZNSt6vectorImSaImEE17_M_realloc_insertIJRKmEEEvN9__gnu_cxx17__normal_iteratorIPmS1_EEDpOT_(ptr noundef nonnull align 8 dereferenceable(24) %12, ptr %42, ptr noundef nonnull align 8 dereferenceable(8) %40), !dbg !1523
  br label %43

43:                                               ; preds = %37, %20
  ret void, !dbg !1524
}

declare i32 @__gxx_personality_v0(...)

declare noundef nonnull align 8 dereferenceable(8) ptr @_ZNSolsEm(ptr noundef nonnull align 8 dereferenceable(8), i64 noundef) #2

declare noundef nonnull align 8 dereferenceable(8) ptr @_ZNSolsEPFRSoS_E(ptr noundef nonnull align 8 dereferenceable(8), ptr noundef) #2

declare noundef nonnull align 8 dereferenceable(8) ptr @_ZSt4endlIcSt11char_traitsIcEERSt13basic_ostreamIT_T0_ES6_(ptr noundef nonnull align 8 dereferenceable(8)) #2

declare i32 @pthread_join(i64 noundef, ptr noundef) #2

; Function Attrs: mustprogress noinline nounwind optnone uwtable
define linkonce_odr dso_local noundef i64 @_ZNKSt6vectorImSaImEE4sizeEv(ptr noundef nonnull align 8 dereferenceable(24) %0) #6 comdat align 2 !dbg !1525 {
  %2 = alloca ptr, align 8
  store ptr %0, ptr %2, align 8
  call void @llvm.dbg.declare(metadata ptr %2, metadata !1526, metadata !DIExpression()), !dbg !1528
  %3 = load ptr, ptr %2, align 8
  %4 = getelementptr inbounds %"struct.std::_Vector_base", ptr %3, i32 0, i32 0, !dbg !1529
  %5 = getelementptr inbounds %"struct.std::_Vector_base<unsigned long, std::allocator<unsigned long>>::_Vector_impl_data", ptr %4, i32 0, i32 1, !dbg !1530
  %6 = load ptr, ptr %5, align 8, !dbg !1530
  %7 = getelementptr inbounds %"struct.std::_Vector_base", ptr %3, i32 0, i32 0, !dbg !1531
  %8 = getelementptr inbounds %"struct.std::_Vector_base<unsigned long, std::allocator<unsigned long>>::_Vector_impl_data", ptr %7, i32 0, i32 0, !dbg !1532
  %9 = load ptr, ptr %8, align 8, !dbg !1532
  %10 = ptrtoint ptr %6 to i64, !dbg !1533
  %11 = ptrtoint ptr %9 to i64, !dbg !1533
  %12 = sub i64 %10, %11, !dbg !1533
  %13 = sdiv exact i64 %12, 8, !dbg !1533
  ret i64 %13, !dbg !1534
}

; Function Attrs: mustprogress noinline nounwind optnone uwtable
define linkonce_odr dso_local noundef nonnull align 8 dereferenceable(8) ptr @_ZNSt6vectorImSaImEEixEm(ptr noundef nonnull align 8 dereferenceable(24) %0, i64 noundef %1) #6 comdat align 2 !dbg !1535 {
  %3 = alloca ptr, align 8
  %4 = alloca i64, align 8
  store ptr %0, ptr %3, align 8
  call void @llvm.dbg.declare(metadata ptr %3, metadata !1536, metadata !DIExpression()), !dbg !1537
  store i64 %1, ptr %4, align 8
  call void @llvm.dbg.declare(metadata ptr %4, metadata !1538, metadata !DIExpression()), !dbg !1539
  %5 = load ptr, ptr %3, align 8
  %6 = getelementptr inbounds %"struct.std::_Vector_base", ptr %5, i32 0, i32 0, !dbg !1540
  %7 = getelementptr inbounds %"struct.std::_Vector_base<unsigned long, std::allocator<unsigned long>>::_Vector_impl_data", ptr %6, i32 0, i32 0, !dbg !1541
  %8 = load ptr, ptr %7, align 8, !dbg !1541
  %9 = load i64, ptr %4, align 8, !dbg !1542
  %10 = getelementptr inbounds i64, ptr %8, i64 %9, !dbg !1543
  ret ptr %10, !dbg !1544
}

; Function Attrs: noinline nounwind optnone uwtable
define linkonce_odr dso_local void @_ZNSt6vectorImSaImEED2Ev(ptr noundef nonnull align 8 dereferenceable(24) %0) unnamed_addr #4 comdat align 2 personality ptr @__gxx_personality_v0 !dbg !1545 {
  %2 = alloca ptr, align 8
  %3 = alloca ptr, align 8
  %4 = alloca ptr, align 8
  %5 = alloca ptr, align 8
  store ptr %0, ptr %5, align 8
  call void @llvm.dbg.declare(metadata ptr %5, metadata !1546, metadata !DIExpression()), !dbg !1547
  %6 = load ptr, ptr %5, align 8
  %7 = getelementptr inbounds %"struct.std::_Vector_base", ptr %6, i32 0, i32 0, !dbg !1548
  %8 = getelementptr inbounds %"struct.std::_Vector_base<unsigned long, std::allocator<unsigned long>>::_Vector_impl_data", ptr %7, i32 0, i32 0, !dbg !1550
  %9 = load ptr, ptr %8, align 8, !dbg !1550
  %10 = getelementptr inbounds %"struct.std::_Vector_base", ptr %6, i32 0, i32 0, !dbg !1551
  %11 = getelementptr inbounds %"struct.std::_Vector_base<unsigned long, std::allocator<unsigned long>>::_Vector_impl_data", ptr %10, i32 0, i32 1, !dbg !1552
  %12 = load ptr, ptr %11, align 8, !dbg !1552
  %13 = call noundef nonnull align 1 dereferenceable(1) ptr @_ZNSt12_Vector_baseImSaImEE19_M_get_Tp_allocatorEv(ptr noundef nonnull align 8 dereferenceable(24) %6) #12, !dbg !1553
  store ptr %9, ptr %2, align 8
  call void @llvm.dbg.declare(metadata ptr %2, metadata !1554, metadata !DIExpression()), !dbg !1560
  store ptr %12, ptr %3, align 8
  call void @llvm.dbg.declare(metadata ptr %3, metadata !1562, metadata !DIExpression()), !dbg !1563
  store ptr %13, ptr %4, align 8
  call void @llvm.dbg.declare(metadata ptr %4, metadata !1564, metadata !DIExpression()), !dbg !1565
  %14 = load ptr, ptr %2, align 8, !dbg !1566
  %15 = load ptr, ptr %3, align 8, !dbg !1567
  invoke void @_ZSt8_DestroyIPmEvT_S1_(ptr noundef %14, ptr noundef %15)
          to label %16 unwind label %18, !dbg !1568

16:                                               ; preds = %1
  br label %17, !dbg !1569

17:                                               ; preds = %16
  call void @_ZNSt12_Vector_baseImSaImEED2Ev(ptr noundef nonnull align 8 dereferenceable(24) %6) #12, !dbg !1570
  ret void, !dbg !1571

18:                                               ; preds = %1
  %19 = landingpad { ptr, i32 }
          catch ptr null, !dbg !1572
  %20 = extractvalue { ptr, i32 } %19, 0, !dbg !1572
  call void @__clang_call_terminate(ptr %20) #13, !dbg !1572
  unreachable, !dbg !1572
}

; Function Attrs: noinline nounwind optnone uwtable
define linkonce_odr dso_local void @_ZNSt12_Vector_baseImSaImEEC2Ev(ptr noundef nonnull align 8 dereferenceable(24) %0) unnamed_addr #4 comdat align 2 !dbg !1573 {
  %2 = alloca ptr, align 8
  store ptr %0, ptr %2, align 8
  call void @llvm.dbg.declare(metadata ptr %2, metadata !1574, metadata !DIExpression()), !dbg !1576
  %3 = load ptr, ptr %2, align 8
  %4 = getelementptr inbounds %"struct.std::_Vector_base", ptr %3, i32 0, i32 0, !dbg !1577
  call void @_ZNSt12_Vector_baseImSaImEE12_Vector_implC2Ev(ptr noundef nonnull align 8 dereferenceable(24) %4) #12, !dbg !1577
  ret void, !dbg !1578
}

; Function Attrs: noinline nounwind optnone uwtable
define linkonce_odr dso_local void @_ZNSt12_Vector_baseImSaImEE12_Vector_implC2Ev(ptr noundef nonnull align 8 dereferenceable(24) %0) unnamed_addr #4 comdat align 2 !dbg !1579 {
  %2 = alloca ptr, align 8
  %3 = alloca ptr, align 8
  %4 = alloca ptr, align 8
  store ptr %0, ptr %4, align 8
  call void @llvm.dbg.declare(metadata ptr %4, metadata !1580, metadata !DIExpression()), !dbg !1582
  %5 = load ptr, ptr %4, align 8
  store ptr %5, ptr %3, align 8
  call void @llvm.dbg.declare(metadata ptr %3, metadata !1583, metadata !DIExpression()), !dbg !1586
  %6 = load ptr, ptr %3, align 8
  store ptr %6, ptr %2, align 8
  call void @llvm.dbg.declare(metadata ptr %2, metadata !1588, metadata !DIExpression()), !dbg !1590
  %7 = load ptr, ptr %2, align 8
  call void @_ZNSt12_Vector_baseImSaImEE17_Vector_impl_dataC2Ev(ptr noundef nonnull align 8 dereferenceable(24) %5) #12, !dbg !1592
  ret void, !dbg !1593
}

; Function Attrs: noinline nounwind optnone uwtable
define linkonce_odr dso_local void @_ZNSt12_Vector_baseImSaImEE17_Vector_impl_dataC2Ev(ptr noundef nonnull align 8 dereferenceable(24) %0) unnamed_addr #4 comdat align 2 !dbg !1594 {
  %2 = alloca ptr, align 8
  store ptr %0, ptr %2, align 8
  call void @llvm.dbg.declare(metadata ptr %2, metadata !1595, metadata !DIExpression()), !dbg !1597
  %3 = load ptr, ptr %2, align 8
  %4 = getelementptr inbounds %"struct.std::_Vector_base<unsigned long, std::allocator<unsigned long>>::_Vector_impl_data", ptr %3, i32 0, i32 0, !dbg !1598
  store ptr null, ptr %4, align 8, !dbg !1598
  %5 = getelementptr inbounds %"struct.std::_Vector_base<unsigned long, std::allocator<unsigned long>>::_Vector_impl_data", ptr %3, i32 0, i32 1, !dbg !1599
  store ptr null, ptr %5, align 8, !dbg !1599
  %6 = getelementptr inbounds %"struct.std::_Vector_base<unsigned long, std::allocator<unsigned long>>::_Vector_impl_data", ptr %3, i32 0, i32 2, !dbg !1600
  store ptr null, ptr %6, align 8, !dbg !1600
  ret void, !dbg !1601
}

; Function Attrs: mustprogress noinline nounwind optnone uwtable
define linkonce_odr dso_local noundef nonnull align 1 dereferenceable(1) ptr @_ZNSt12_Vector_baseImSaImEE19_M_get_Tp_allocatorEv(ptr noundef nonnull align 8 dereferenceable(24) %0) #6 comdat align 2 !dbg !1602 {
  %2 = alloca ptr, align 8
  store ptr %0, ptr %2, align 8
  call void @llvm.dbg.declare(metadata ptr %2, metadata !1603, metadata !DIExpression()), !dbg !1604
  %3 = load ptr, ptr %2, align 8
  %4 = getelementptr inbounds %"struct.std::_Vector_base", ptr %3, i32 0, i32 0, !dbg !1605
  ret ptr %4, !dbg !1606
}

; Function Attrs: noinline noreturn nounwind
define linkonce_odr hidden void @__clang_call_terminate(ptr noundef %0) #7 comdat {
  %2 = call ptr @__cxa_begin_catch(ptr %0) #12
  call void @_ZSt9terminatev() #13
  unreachable
}

declare ptr @__cxa_begin_catch(ptr)

declare void @_ZSt9terminatev()

; Function Attrs: noinline nounwind optnone uwtable
define linkonce_odr dso_local void @_ZNSt12_Vector_baseImSaImEED2Ev(ptr noundef nonnull align 8 dereferenceable(24) %0) unnamed_addr #4 comdat align 2 personality ptr @__gxx_personality_v0 !dbg !1607 {
  %2 = alloca ptr, align 8
  store ptr %0, ptr %2, align 8
  call void @llvm.dbg.declare(metadata ptr %2, metadata !1608, metadata !DIExpression()), !dbg !1609
  %3 = load ptr, ptr %2, align 8
  %4 = getelementptr inbounds %"struct.std::_Vector_base", ptr %3, i32 0, i32 0, !dbg !1610
  %5 = getelementptr inbounds %"struct.std::_Vector_base<unsigned long, std::allocator<unsigned long>>::_Vector_impl_data", ptr %4, i32 0, i32 0, !dbg !1612
  %6 = load ptr, ptr %5, align 8, !dbg !1612
  %7 = getelementptr inbounds %"struct.std::_Vector_base", ptr %3, i32 0, i32 0, !dbg !1613
  %8 = getelementptr inbounds %"struct.std::_Vector_base<unsigned long, std::allocator<unsigned long>>::_Vector_impl_data", ptr %7, i32 0, i32 2, !dbg !1614
  %9 = load ptr, ptr %8, align 8, !dbg !1614
  %10 = getelementptr inbounds %"struct.std::_Vector_base", ptr %3, i32 0, i32 0, !dbg !1615
  %11 = getelementptr inbounds %"struct.std::_Vector_base<unsigned long, std::allocator<unsigned long>>::_Vector_impl_data", ptr %10, i32 0, i32 0, !dbg !1616
  %12 = load ptr, ptr %11, align 8, !dbg !1616
  %13 = ptrtoint ptr %9 to i64, !dbg !1617
  %14 = ptrtoint ptr %12 to i64, !dbg !1617
  %15 = sub i64 %13, %14, !dbg !1617
  %16 = sdiv exact i64 %15, 8, !dbg !1617
  invoke void @_ZNSt12_Vector_baseImSaImEE13_M_deallocateEPmm(ptr noundef nonnull align 8 dereferenceable(24) %3, ptr noundef %6, i64 noundef %16)
          to label %17 unwind label %19, !dbg !1618

17:                                               ; preds = %1
  %18 = getelementptr inbounds %"struct.std::_Vector_base", ptr %3, i32 0, i32 0, !dbg !1619
  call void @_ZNSt12_Vector_baseImSaImEE12_Vector_implD2Ev(ptr noundef nonnull align 8 dereferenceable(24) %18) #12, !dbg !1619
  ret void, !dbg !1620

19:                                               ; preds = %1
  %20 = landingpad { ptr, i32 }
          catch ptr null, !dbg !1618
  %21 = extractvalue { ptr, i32 } %20, 0, !dbg !1618
  call void @__clang_call_terminate(ptr %21) #13, !dbg !1618
  unreachable, !dbg !1618
}

; Function Attrs: mustprogress noinline optnone uwtable
define linkonce_odr dso_local void @_ZSt8_DestroyIPmEvT_S1_(ptr noundef %0, ptr noundef %1) #0 comdat !dbg !1621 {
  %3 = alloca ptr, align 8
  %4 = alloca ptr, align 8
  store ptr %0, ptr %3, align 8
  call void @llvm.dbg.declare(metadata ptr %3, metadata !1626, metadata !DIExpression()), !dbg !1627
  store ptr %1, ptr %4, align 8
  call void @llvm.dbg.declare(metadata ptr %4, metadata !1628, metadata !DIExpression()), !dbg !1629
  %5 = load ptr, ptr %3, align 8, !dbg !1630
  %6 = load ptr, ptr %4, align 8, !dbg !1631
  call void @_ZNSt12_Destroy_auxILb1EE9__destroyIPmEEvT_S3_(ptr noundef %5, ptr noundef %6), !dbg !1632
  ret void, !dbg !1633
}

; Function Attrs: mustprogress noinline nounwind optnone uwtable
define linkonce_odr dso_local void @_ZNSt12_Destroy_auxILb1EE9__destroyIPmEEvT_S3_(ptr noundef %0, ptr noundef %1) #6 comdat align 2 !dbg !1634 {
  %3 = alloca ptr, align 8
  %4 = alloca ptr, align 8
  store ptr %0, ptr %3, align 8
  call void @llvm.dbg.declare(metadata ptr %3, metadata !1639, metadata !DIExpression()), !dbg !1640
  store ptr %1, ptr %4, align 8
  call void @llvm.dbg.declare(metadata ptr %4, metadata !1641, metadata !DIExpression()), !dbg !1642
  ret void, !dbg !1643
}

; Function Attrs: mustprogress noinline optnone uwtable
define linkonce_odr dso_local void @_ZNSt12_Vector_baseImSaImEE13_M_deallocateEPmm(ptr noundef nonnull align 8 dereferenceable(24) %0, ptr noundef %1, i64 noundef %2) #0 comdat align 2 !dbg !1644 {
  %4 = alloca ptr, align 8
  %5 = alloca ptr, align 8
  %6 = alloca i64, align 8
  %7 = alloca ptr, align 8
  %8 = alloca ptr, align 8
  %9 = alloca i64, align 8
  store ptr %0, ptr %7, align 8
  call void @llvm.dbg.declare(metadata ptr %7, metadata !1645, metadata !DIExpression()), !dbg !1646
  store ptr %1, ptr %8, align 8
  call void @llvm.dbg.declare(metadata ptr %8, metadata !1647, metadata !DIExpression()), !dbg !1648
  store i64 %2, ptr %9, align 8
  call void @llvm.dbg.declare(metadata ptr %9, metadata !1649, metadata !DIExpression()), !dbg !1650
  %10 = load ptr, ptr %7, align 8
  %11 = load ptr, ptr %8, align 8, !dbg !1651
  %12 = icmp ne ptr %11, null, !dbg !1651
  br i1 %12, label %13, label %20, !dbg !1653

13:                                               ; preds = %3
  %14 = getelementptr inbounds %"struct.std::_Vector_base", ptr %10, i32 0, i32 0, !dbg !1654
  %15 = load ptr, ptr %8, align 8, !dbg !1655
  %16 = load i64, ptr %9, align 8, !dbg !1656
  store ptr %14, ptr %4, align 8
  call void @llvm.dbg.declare(metadata ptr %4, metadata !1657, metadata !DIExpression()), !dbg !1659
  store ptr %15, ptr %5, align 8
  call void @llvm.dbg.declare(metadata ptr %5, metadata !1661, metadata !DIExpression()), !dbg !1662
  store i64 %16, ptr %6, align 8
  call void @llvm.dbg.declare(metadata ptr %6, metadata !1663, metadata !DIExpression()), !dbg !1664
  %17 = load ptr, ptr %4, align 8, !dbg !1665
  %18 = load ptr, ptr %5, align 8, !dbg !1666
  %19 = load i64, ptr %6, align 8, !dbg !1667
  call void @_ZNSt15__new_allocatorImE10deallocateEPmm(ptr noundef nonnull align 1 dereferenceable(1) %17, ptr noundef %18, i64 noundef %19), !dbg !1668
  br label %20, !dbg !1669

20:                                               ; preds = %13, %3
  ret void, !dbg !1670
}

; Function Attrs: noinline nounwind optnone uwtable
define linkonce_odr dso_local void @_ZNSt12_Vector_baseImSaImEE12_Vector_implD2Ev(ptr noundef nonnull align 8 dereferenceable(24) %0) unnamed_addr #4 comdat align 2 !dbg !1671 {
  %2 = alloca ptr, align 8
  %3 = alloca ptr, align 8
  store ptr %0, ptr %3, align 8
  call void @llvm.dbg.declare(metadata ptr %3, metadata !1673, metadata !DIExpression()), !dbg !1674
  %4 = load ptr, ptr %3, align 8
  store ptr %4, ptr %2, align 8
  call void @llvm.dbg.declare(metadata ptr %2, metadata !1675, metadata !DIExpression()), !dbg !1677
  %5 = load ptr, ptr %2, align 8
  call void @_ZNSt15__new_allocatorImED2Ev(ptr noundef nonnull align 1 dereferenceable(1) %5) #12, !dbg !1680
  ret void, !dbg !1682
}

; Function Attrs: mustprogress noinline nounwind optnone uwtable
define linkonce_odr dso_local void @_ZNSt15__new_allocatorImE10deallocateEPmm(ptr noundef nonnull align 1 dereferenceable(1) %0, ptr noundef %1, i64 noundef %2) #6 comdat align 2 !dbg !1683 {
  %4 = alloca ptr, align 8
  %5 = alloca ptr, align 8
  %6 = alloca i64, align 8
  store ptr %0, ptr %4, align 8
  call void @llvm.dbg.declare(metadata ptr %4, metadata !1684, metadata !DIExpression()), !dbg !1685
  store ptr %1, ptr %5, align 8
  call void @llvm.dbg.declare(metadata ptr %5, metadata !1686, metadata !DIExpression()), !dbg !1687
  store i64 %2, ptr %6, align 8
  call void @llvm.dbg.declare(metadata ptr %6, metadata !1688, metadata !DIExpression()), !dbg !1689
  %7 = load ptr, ptr %4, align 8
  %8 = load ptr, ptr %5, align 8, !dbg !1690
  call void @_ZdlPv(ptr noundef %8) #14, !dbg !1691
  ret void, !dbg !1692
}

; Function Attrs: nobuiltin nounwind
declare void @_ZdlPv(ptr noundef) #8

; Function Attrs: noinline nounwind optnone uwtable
define linkonce_odr dso_local void @_ZNSt15__new_allocatorImED2Ev(ptr noundef nonnull align 1 dereferenceable(1) %0) unnamed_addr #4 comdat align 2 !dbg !1693 {
  %2 = alloca ptr, align 8
  store ptr %0, ptr %2, align 8
  call void @llvm.dbg.declare(metadata ptr %2, metadata !1694, metadata !DIExpression()), !dbg !1695
  %3 = load ptr, ptr %2, align 8
  ret void, !dbg !1696
}

; Function Attrs: mustprogress noinline optnone uwtable
define linkonce_odr dso_local void @_ZNSt6vectorImSaImEE17_M_realloc_insertIJRKmEEEvN9__gnu_cxx17__normal_iteratorIPmS1_EEDpOT_(ptr noundef nonnull align 8 dereferenceable(24) %0, ptr %1, ptr noundef nonnull align 8 dereferenceable(8) %2) #0 comdat align 2 !dbg !1697 {
  %4 = alloca ptr, align 8
  %5 = alloca ptr, align 8
  %6 = alloca ptr, align 8
  %7 = alloca ptr, align 8
  %8 = alloca ptr, align 8
  %9 = alloca ptr, align 8
  %10 = alloca %"class.__gnu_cxx::__normal_iterator", align 8
  %11 = alloca ptr, align 8
  %12 = alloca ptr, align 8
  %13 = alloca i64, align 8
  %14 = alloca ptr, align 8
  %15 = alloca ptr, align 8
  %16 = alloca i64, align 8
  %17 = alloca %"class.__gnu_cxx::__normal_iterator", align 8
  %18 = alloca ptr, align 8
  %19 = alloca ptr, align 8
  %20 = getelementptr inbounds %"class.__gnu_cxx::__normal_iterator", ptr %10, i32 0, i32 0
  store ptr %1, ptr %20, align 8
  store ptr %0, ptr %11, align 8
  call void @llvm.dbg.declare(metadata ptr %11, metadata !1702, metadata !DIExpression()), !dbg !1703
  call void @llvm.dbg.declare(metadata ptr %10, metadata !1704, metadata !DIExpression()), !dbg !1705
  store ptr %2, ptr %12, align 8
  call void @llvm.dbg.declare(metadata ptr %12, metadata !1706, metadata !DIExpression()), !dbg !1707
  %21 = load ptr, ptr %11, align 8
  call void @llvm.dbg.declare(metadata ptr %13, metadata !1708, metadata !DIExpression()), !dbg !1710
  %22 = call noundef i64 @_ZNKSt6vectorImSaImEE12_M_check_lenEmPKc(ptr noundef nonnull align 8 dereferenceable(24) %21, i64 noundef 1, ptr noundef @.str.4), !dbg !1711
  store i64 %22, ptr %13, align 8, !dbg !1710
  call void @llvm.dbg.declare(metadata ptr %14, metadata !1712, metadata !DIExpression()), !dbg !1713
  %23 = getelementptr inbounds %"struct.std::_Vector_base", ptr %21, i32 0, i32 0, !dbg !1714
  %24 = getelementptr inbounds %"struct.std::_Vector_base<unsigned long, std::allocator<unsigned long>>::_Vector_impl_data", ptr %23, i32 0, i32 0, !dbg !1715
  %25 = load ptr, ptr %24, align 8, !dbg !1715
  store ptr %25, ptr %14, align 8, !dbg !1713
  call void @llvm.dbg.declare(metadata ptr %15, metadata !1716, metadata !DIExpression()), !dbg !1717
  %26 = getelementptr inbounds %"struct.std::_Vector_base", ptr %21, i32 0, i32 0, !dbg !1718
  %27 = getelementptr inbounds %"struct.std::_Vector_base<unsigned long, std::allocator<unsigned long>>::_Vector_impl_data", ptr %26, i32 0, i32 1, !dbg !1719
  %28 = load ptr, ptr %27, align 8, !dbg !1719
  store ptr %28, ptr %15, align 8, !dbg !1717
  call void @llvm.dbg.declare(metadata ptr %16, metadata !1720, metadata !DIExpression()), !dbg !1721
  %29 = call ptr @_ZNSt6vectorImSaImEE5beginEv(ptr noundef nonnull align 8 dereferenceable(24) %21) #12, !dbg !1722
  %30 = getelementptr inbounds %"class.__gnu_cxx::__normal_iterator", ptr %17, i32 0, i32 0, !dbg !1722
  store ptr %29, ptr %30, align 8, !dbg !1722
  %31 = call noundef i64 @_ZN9__gnu_cxxmiIPmSt6vectorImSaImEEEENS_17__normal_iteratorIT_T0_E15difference_typeERKS8_SB_(ptr noundef nonnull align 8 dereferenceable(8) %10, ptr noundef nonnull align 8 dereferenceable(8) %17) #12, !dbg !1723
  store i64 %31, ptr %16, align 8, !dbg !1721
  call void @llvm.dbg.declare(metadata ptr %18, metadata !1724, metadata !DIExpression()), !dbg !1725
  %32 = load i64, ptr %13, align 8, !dbg !1726
  %33 = call noundef ptr @_ZNSt12_Vector_baseImSaImEE11_M_allocateEm(ptr noundef nonnull align 8 dereferenceable(24) %21, i64 noundef %32), !dbg !1727
  store ptr %33, ptr %18, align 8, !dbg !1725
  call void @llvm.dbg.declare(metadata ptr %19, metadata !1728, metadata !DIExpression()), !dbg !1729
  %34 = load ptr, ptr %18, align 8, !dbg !1730
  store ptr %34, ptr %19, align 8, !dbg !1729
  %35 = getelementptr inbounds %"struct.std::_Vector_base", ptr %21, i32 0, i32 0, !dbg !1731
  %36 = load ptr, ptr %18, align 8, !dbg !1733
  %37 = load i64, ptr %16, align 8, !dbg !1734
  %38 = getelementptr inbounds i64, ptr %36, i64 %37, !dbg !1735
  %39 = load ptr, ptr %12, align 8, !dbg !1736
  store ptr %35, ptr %7, align 8
  call void @llvm.dbg.declare(metadata ptr %7, metadata !1482, metadata !DIExpression()), !dbg !1737
  store ptr %38, ptr %8, align 8
  call void @llvm.dbg.declare(metadata ptr %8, metadata !1494, metadata !DIExpression()), !dbg !1739
  store ptr %39, ptr %9, align 8
  call void @llvm.dbg.declare(metadata ptr %9, metadata !1496, metadata !DIExpression()), !dbg !1740
  %40 = load ptr, ptr %7, align 8, !dbg !1741
  %41 = load ptr, ptr %8, align 8, !dbg !1742
  %42 = load ptr, ptr %9, align 8, !dbg !1743
  store ptr %40, ptr %4, align 8
  call void @llvm.dbg.declare(metadata ptr %4, metadata !1501, metadata !DIExpression()), !dbg !1744
  store ptr %41, ptr %5, align 8
  call void @llvm.dbg.declare(metadata ptr %5, metadata !1509, metadata !DIExpression()), !dbg !1746
  store ptr %42, ptr %6, align 8
  call void @llvm.dbg.declare(metadata ptr %6, metadata !1511, metadata !DIExpression()), !dbg !1747
  %43 = load ptr, ptr %4, align 8
  %44 = load ptr, ptr %5, align 8, !dbg !1748
  %45 = load ptr, ptr %6, align 8, !dbg !1749
  %46 = load i64, ptr %45, align 8, !dbg !1750
  store i64 %46, ptr %44, align 8, !dbg !1751
  store ptr null, ptr %19, align 8, !dbg !1752
  %47 = load ptr, ptr %14, align 8, !dbg !1753
  %48 = call noundef nonnull align 8 dereferenceable(8) ptr @_ZNK9__gnu_cxx17__normal_iteratorIPmSt6vectorImSaImEEE4baseEv(ptr noundef nonnull align 8 dereferenceable(8) %10) #12, !dbg !1756
  %49 = load ptr, ptr %48, align 8, !dbg !1756
  %50 = load ptr, ptr %18, align 8, !dbg !1757
  %51 = call noundef nonnull align 1 dereferenceable(1) ptr @_ZNSt12_Vector_baseImSaImEE19_M_get_Tp_allocatorEv(ptr noundef nonnull align 8 dereferenceable(24) %21) #12, !dbg !1758
  %52 = call noundef ptr @_ZNSt6vectorImSaImEE11_S_relocateEPmS2_S2_RS0_(ptr noundef %47, ptr noundef %49, ptr noundef %50, ptr noundef nonnull align 1 dereferenceable(1) %51) #12, !dbg !1759
  store ptr %52, ptr %19, align 8, !dbg !1760
  %53 = load ptr, ptr %19, align 8, !dbg !1761
  %54 = getelementptr inbounds i64, ptr %53, i32 1, !dbg !1761
  store ptr %54, ptr %19, align 8, !dbg !1761
  %55 = call noundef nonnull align 8 dereferenceable(8) ptr @_ZNK9__gnu_cxx17__normal_iteratorIPmSt6vectorImSaImEEE4baseEv(ptr noundef nonnull align 8 dereferenceable(8) %10) #12, !dbg !1762
  %56 = load ptr, ptr %55, align 8, !dbg !1762
  %57 = load ptr, ptr %15, align 8, !dbg !1763
  %58 = load ptr, ptr %19, align 8, !dbg !1764
  %59 = call noundef nonnull align 1 dereferenceable(1) ptr @_ZNSt12_Vector_baseImSaImEE19_M_get_Tp_allocatorEv(ptr noundef nonnull align 8 dereferenceable(24) %21) #12, !dbg !1765
  %60 = call noundef ptr @_ZNSt6vectorImSaImEE11_S_relocateEPmS2_S2_RS0_(ptr noundef %56, ptr noundef %57, ptr noundef %58, ptr noundef nonnull align 1 dereferenceable(1) %59) #12, !dbg !1766
  store ptr %60, ptr %19, align 8, !dbg !1767
  %61 = load ptr, ptr %14, align 8, !dbg !1768
  %62 = getelementptr inbounds %"struct.std::_Vector_base", ptr %21, i32 0, i32 0, !dbg !1769
  %63 = getelementptr inbounds %"struct.std::_Vector_base<unsigned long, std::allocator<unsigned long>>::_Vector_impl_data", ptr %62, i32 0, i32 2, !dbg !1770
  %64 = load ptr, ptr %63, align 8, !dbg !1770
  %65 = load ptr, ptr %14, align 8, !dbg !1771
  %66 = ptrtoint ptr %64 to i64, !dbg !1772
  %67 = ptrtoint ptr %65 to i64, !dbg !1772
  %68 = sub i64 %66, %67, !dbg !1772
  %69 = sdiv exact i64 %68, 8, !dbg !1772
  call void @_ZNSt12_Vector_baseImSaImEE13_M_deallocateEPmm(ptr noundef nonnull align 8 dereferenceable(24) %21, ptr noundef %61, i64 noundef %69), !dbg !1773
  %70 = load ptr, ptr %18, align 8, !dbg !1774
  %71 = getelementptr inbounds %"struct.std::_Vector_base", ptr %21, i32 0, i32 0, !dbg !1775
  %72 = getelementptr inbounds %"struct.std::_Vector_base<unsigned long, std::allocator<unsigned long>>::_Vector_impl_data", ptr %71, i32 0, i32 0, !dbg !1776
  store ptr %70, ptr %72, align 8, !dbg !1777
  %73 = load ptr, ptr %19, align 8, !dbg !1778
  %74 = getelementptr inbounds %"struct.std::_Vector_base", ptr %21, i32 0, i32 0, !dbg !1779
  %75 = getelementptr inbounds %"struct.std::_Vector_base<unsigned long, std::allocator<unsigned long>>::_Vector_impl_data", ptr %74, i32 0, i32 1, !dbg !1780
  store ptr %73, ptr %75, align 8, !dbg !1781
  %76 = load ptr, ptr %18, align 8, !dbg !1782
  %77 = load i64, ptr %13, align 8, !dbg !1783
  %78 = getelementptr inbounds i64, ptr %76, i64 %77, !dbg !1784
  %79 = getelementptr inbounds %"struct.std::_Vector_base", ptr %21, i32 0, i32 0, !dbg !1785
  %80 = getelementptr inbounds %"struct.std::_Vector_base<unsigned long, std::allocator<unsigned long>>::_Vector_impl_data", ptr %79, i32 0, i32 2, !dbg !1786
  store ptr %78, ptr %80, align 8, !dbg !1787
  ret void, !dbg !1788
}

; Function Attrs: mustprogress noinline nounwind optnone uwtable
define linkonce_odr dso_local ptr @_ZNSt6vectorImSaImEE3endEv(ptr noundef nonnull align 8 dereferenceable(24) %0) #6 comdat align 2 !dbg !1789 {
  %2 = alloca %"class.__gnu_cxx::__normal_iterator", align 8
  %3 = alloca ptr, align 8
  store ptr %0, ptr %3, align 8
  call void @llvm.dbg.declare(metadata ptr %3, metadata !1790, metadata !DIExpression()), !dbg !1791
  %4 = load ptr, ptr %3, align 8
  %5 = getelementptr inbounds %"struct.std::_Vector_base", ptr %4, i32 0, i32 0, !dbg !1792
  %6 = getelementptr inbounds %"struct.std::_Vector_base<unsigned long, std::allocator<unsigned long>>::_Vector_impl_data", ptr %5, i32 0, i32 1, !dbg !1793
  call void @_ZN9__gnu_cxx17__normal_iteratorIPmSt6vectorImSaImEEEC2ERKS1_(ptr noundef nonnull align 8 dereferenceable(8) %2, ptr noundef nonnull align 8 dereferenceable(8) %6) #12, !dbg !1794
  %7 = getelementptr inbounds %"class.__gnu_cxx::__normal_iterator", ptr %2, i32 0, i32 0, !dbg !1795
  %8 = load ptr, ptr %7, align 8, !dbg !1795
  ret ptr %8, !dbg !1795
}

; Function Attrs: mustprogress noinline optnone uwtable
define linkonce_odr dso_local noundef i64 @_ZNKSt6vectorImSaImEE12_M_check_lenEmPKc(ptr noundef nonnull align 8 dereferenceable(24) %0, i64 noundef %1, ptr noundef %2) #0 comdat align 2 !dbg !1796 {
  %4 = alloca ptr, align 8
  %5 = alloca i64, align 8
  %6 = alloca ptr, align 8
  %7 = alloca i64, align 8
  %8 = alloca i64, align 8
  store ptr %0, ptr %4, align 8
  call void @llvm.dbg.declare(metadata ptr %4, metadata !1797, metadata !DIExpression()), !dbg !1798
  store i64 %1, ptr %5, align 8
  call void @llvm.dbg.declare(metadata ptr %5, metadata !1799, metadata !DIExpression()), !dbg !1800
  store ptr %2, ptr %6, align 8
  call void @llvm.dbg.declare(metadata ptr %6, metadata !1801, metadata !DIExpression()), !dbg !1802
  %9 = load ptr, ptr %4, align 8
  %10 = call noundef i64 @_ZNKSt6vectorImSaImEE8max_sizeEv(ptr noundef nonnull align 8 dereferenceable(24) %9) #12, !dbg !1803
  %11 = call noundef i64 @_ZNKSt6vectorImSaImEE4sizeEv(ptr noundef nonnull align 8 dereferenceable(24) %9) #12, !dbg !1805
  %12 = sub i64 %10, %11, !dbg !1806
  %13 = load i64, ptr %5, align 8, !dbg !1807
  %14 = icmp ult i64 %12, %13, !dbg !1808
  br i1 %14, label %15, label %17, !dbg !1809

15:                                               ; preds = %3
  %16 = load ptr, ptr %6, align 8, !dbg !1810
  call void @_ZSt20__throw_length_errorPKc(ptr noundef %16) #15, !dbg !1811
  unreachable, !dbg !1811

17:                                               ; preds = %3
  call void @llvm.dbg.declare(metadata ptr %7, metadata !1812, metadata !DIExpression()), !dbg !1813
  %18 = call noundef i64 @_ZNKSt6vectorImSaImEE4sizeEv(ptr noundef nonnull align 8 dereferenceable(24) %9) #12, !dbg !1814
  %19 = call noundef i64 @_ZNKSt6vectorImSaImEE4sizeEv(ptr noundef nonnull align 8 dereferenceable(24) %9) #12, !dbg !1815
  store i64 %19, ptr %8, align 8, !dbg !1815
  %20 = call noundef nonnull align 8 dereferenceable(8) ptr @_ZSt3maxImERKT_S2_S2_(ptr noundef nonnull align 8 dereferenceable(8) %8, ptr noundef nonnull align 8 dereferenceable(8) %5), !dbg !1816
  %21 = load i64, ptr %20, align 8, !dbg !1816
  %22 = add i64 %18, %21, !dbg !1817
  store i64 %22, ptr %7, align 8, !dbg !1813
  %23 = load i64, ptr %7, align 8, !dbg !1818
  %24 = call noundef i64 @_ZNKSt6vectorImSaImEE4sizeEv(ptr noundef nonnull align 8 dereferenceable(24) %9) #12, !dbg !1819
  %25 = icmp ult i64 %23, %24, !dbg !1820
  br i1 %25, label %30, label %26, !dbg !1821

26:                                               ; preds = %17
  %27 = load i64, ptr %7, align 8, !dbg !1822
  %28 = call noundef i64 @_ZNKSt6vectorImSaImEE8max_sizeEv(ptr noundef nonnull align 8 dereferenceable(24) %9) #12, !dbg !1823
  %29 = icmp ugt i64 %27, %28, !dbg !1824
  br i1 %29, label %30, label %32, !dbg !1825

30:                                               ; preds = %26, %17
  %31 = call noundef i64 @_ZNKSt6vectorImSaImEE8max_sizeEv(ptr noundef nonnull align 8 dereferenceable(24) %9) #12, !dbg !1826
  br label %34, !dbg !1825

32:                                               ; preds = %26
  %33 = load i64, ptr %7, align 8, !dbg !1827
  br label %34, !dbg !1825

34:                                               ; preds = %32, %30
  %35 = phi i64 [ %31, %30 ], [ %33, %32 ], !dbg !1825
  ret i64 %35, !dbg !1828
}

; Function Attrs: mustprogress noinline nounwind optnone uwtable
define linkonce_odr dso_local noundef i64 @_ZN9__gnu_cxxmiIPmSt6vectorImSaImEEEENS_17__normal_iteratorIT_T0_E15difference_typeERKS8_SB_(ptr noundef nonnull align 8 dereferenceable(8) %0, ptr noundef nonnull align 8 dereferenceable(8) %1) #6 comdat !dbg !1829 {
  %3 = alloca ptr, align 8
  %4 = alloca ptr, align 8
  store ptr %0, ptr %3, align 8
  call void @llvm.dbg.declare(metadata ptr %3, metadata !1833, metadata !DIExpression()), !dbg !1834
  store ptr %1, ptr %4, align 8
  call void @llvm.dbg.declare(metadata ptr %4, metadata !1835, metadata !DIExpression()), !dbg !1836
  %5 = load ptr, ptr %3, align 8, !dbg !1837
  %6 = call noundef nonnull align 8 dereferenceable(8) ptr @_ZNK9__gnu_cxx17__normal_iteratorIPmSt6vectorImSaImEEE4baseEv(ptr noundef nonnull align 8 dereferenceable(8) %5) #12, !dbg !1838
  %7 = load ptr, ptr %6, align 8, !dbg !1838
  %8 = load ptr, ptr %4, align 8, !dbg !1839
  %9 = call noundef nonnull align 8 dereferenceable(8) ptr @_ZNK9__gnu_cxx17__normal_iteratorIPmSt6vectorImSaImEEE4baseEv(ptr noundef nonnull align 8 dereferenceable(8) %8) #12, !dbg !1840
  %10 = load ptr, ptr %9, align 8, !dbg !1840
  %11 = ptrtoint ptr %7 to i64, !dbg !1841
  %12 = ptrtoint ptr %10 to i64, !dbg !1841
  %13 = sub i64 %11, %12, !dbg !1841
  %14 = sdiv exact i64 %13, 8, !dbg !1841
  ret i64 %14, !dbg !1842
}

; Function Attrs: mustprogress noinline nounwind optnone uwtable
define linkonce_odr dso_local ptr @_ZNSt6vectorImSaImEE5beginEv(ptr noundef nonnull align 8 dereferenceable(24) %0) #6 comdat align 2 !dbg !1843 {
  %2 = alloca %"class.__gnu_cxx::__normal_iterator", align 8
  %3 = alloca ptr, align 8
  store ptr %0, ptr %3, align 8
  call void @llvm.dbg.declare(metadata ptr %3, metadata !1844, metadata !DIExpression()), !dbg !1845
  %4 = load ptr, ptr %3, align 8
  %5 = getelementptr inbounds %"struct.std::_Vector_base", ptr %4, i32 0, i32 0, !dbg !1846
  %6 = getelementptr inbounds %"struct.std::_Vector_base<unsigned long, std::allocator<unsigned long>>::_Vector_impl_data", ptr %5, i32 0, i32 0, !dbg !1847
  call void @_ZN9__gnu_cxx17__normal_iteratorIPmSt6vectorImSaImEEEC2ERKS1_(ptr noundef nonnull align 8 dereferenceable(8) %2, ptr noundef nonnull align 8 dereferenceable(8) %6) #12, !dbg !1848
  %7 = getelementptr inbounds %"class.__gnu_cxx::__normal_iterator", ptr %2, i32 0, i32 0, !dbg !1849
  %8 = load ptr, ptr %7, align 8, !dbg !1849
  ret ptr %8, !dbg !1849
}

; Function Attrs: mustprogress noinline optnone uwtable
define linkonce_odr dso_local noundef ptr @_ZNSt12_Vector_baseImSaImEE11_M_allocateEm(ptr noundef nonnull align 8 dereferenceable(24) %0, i64 noundef %1) #0 comdat align 2 !dbg !1850 {
  %3 = alloca ptr, align 8
  %4 = alloca i64, align 8
  %5 = alloca ptr, align 8
  %6 = alloca i64, align 8
  store ptr %0, ptr %5, align 8
  call void @llvm.dbg.declare(metadata ptr %5, metadata !1851, metadata !DIExpression()), !dbg !1852
  store i64 %1, ptr %6, align 8
  call void @llvm.dbg.declare(metadata ptr %6, metadata !1853, metadata !DIExpression()), !dbg !1854
  %7 = load ptr, ptr %5, align 8
  %8 = load i64, ptr %6, align 8, !dbg !1855
  %9 = icmp ne i64 %8, 0, !dbg !1856
  br i1 %9, label %10, label %16, !dbg !1855

10:                                               ; preds = %2
  %11 = getelementptr inbounds %"struct.std::_Vector_base", ptr %7, i32 0, i32 0, !dbg !1857
  %12 = load i64, ptr %6, align 8, !dbg !1858
  store ptr %11, ptr %3, align 8
  call void @llvm.dbg.declare(metadata ptr %3, metadata !1859, metadata !DIExpression()), !dbg !1861
  store i64 %12, ptr %4, align 8
  call void @llvm.dbg.declare(metadata ptr %4, metadata !1863, metadata !DIExpression()), !dbg !1864
  %13 = load ptr, ptr %3, align 8, !dbg !1865
  %14 = load i64, ptr %4, align 8, !dbg !1866
  %15 = call noundef ptr @_ZNSt15__new_allocatorImE8allocateEmPKv(ptr noundef nonnull align 1 dereferenceable(1) %13, i64 noundef %14, ptr noundef null), !dbg !1867
  br label %17, !dbg !1855

16:                                               ; preds = %2
  br label %17, !dbg !1855

17:                                               ; preds = %16, %10
  %18 = phi ptr [ %15, %10 ], [ null, %16 ], !dbg !1855
  ret ptr %18, !dbg !1868
}

; Function Attrs: mustprogress noinline nounwind optnone uwtable
define linkonce_odr dso_local noundef ptr @_ZNSt6vectorImSaImEE11_S_relocateEPmS2_S2_RS0_(ptr noundef %0, ptr noundef %1, ptr noundef %2, ptr noundef nonnull align 1 dereferenceable(1) %3) #6 comdat align 2 !dbg !1869 {
  %5 = alloca ptr, align 8
  %6 = alloca ptr, align 8
  %7 = alloca ptr, align 8
  %8 = alloca ptr, align 8
  store ptr %0, ptr %5, align 8
  call void @llvm.dbg.declare(metadata ptr %5, metadata !1870, metadata !DIExpression()), !dbg !1871
  store ptr %1, ptr %6, align 8
  call void @llvm.dbg.declare(metadata ptr %6, metadata !1872, metadata !DIExpression()), !dbg !1873
  store ptr %2, ptr %7, align 8
  call void @llvm.dbg.declare(metadata ptr %7, metadata !1874, metadata !DIExpression()), !dbg !1875
  store ptr %3, ptr %8, align 8
  call void @llvm.dbg.declare(metadata ptr %8, metadata !1876, metadata !DIExpression()), !dbg !1877
  %9 = load ptr, ptr %5, align 8, !dbg !1878
  %10 = load ptr, ptr %6, align 8, !dbg !1879
  %11 = load ptr, ptr %7, align 8, !dbg !1880
  %12 = load ptr, ptr %8, align 8, !dbg !1881
  %13 = call noundef ptr @_ZSt12__relocate_aIPmS0_SaImEET0_T_S3_S2_RT1_(ptr noundef %9, ptr noundef %10, ptr noundef %11, ptr noundef nonnull align 1 dereferenceable(1) %12) #12, !dbg !1882
  ret ptr %13, !dbg !1883
}

; Function Attrs: mustprogress noinline nounwind optnone uwtable
define linkonce_odr dso_local noundef nonnull align 8 dereferenceable(8) ptr @_ZNK9__gnu_cxx17__normal_iteratorIPmSt6vectorImSaImEEE4baseEv(ptr noundef nonnull align 8 dereferenceable(8) %0) #6 comdat align 2 !dbg !1884 {
  %2 = alloca ptr, align 8
  store ptr %0, ptr %2, align 8
  call void @llvm.dbg.declare(metadata ptr %2, metadata !1885, metadata !DIExpression()), !dbg !1887
  %3 = load ptr, ptr %2, align 8
  %4 = getelementptr inbounds %"class.__gnu_cxx::__normal_iterator", ptr %3, i32 0, i32 0, !dbg !1888
  ret ptr %4, !dbg !1889
}

; Function Attrs: mustprogress noinline nounwind optnone uwtable
define linkonce_odr dso_local noundef i64 @_ZNKSt6vectorImSaImEE8max_sizeEv(ptr noundef nonnull align 8 dereferenceable(24) %0) #6 comdat align 2 !dbg !1890 {
  %2 = alloca ptr, align 8
  store ptr %0, ptr %2, align 8
  call void @llvm.dbg.declare(metadata ptr %2, metadata !1891, metadata !DIExpression()), !dbg !1892
  %3 = load ptr, ptr %2, align 8
  %4 = call noundef nonnull align 1 dereferenceable(1) ptr @_ZNKSt12_Vector_baseImSaImEE19_M_get_Tp_allocatorEv(ptr noundef nonnull align 8 dereferenceable(24) %3) #12, !dbg !1893
  %5 = call noundef i64 @_ZNSt6vectorImSaImEE11_S_max_sizeERKS0_(ptr noundef nonnull align 1 dereferenceable(1) %4) #12, !dbg !1894
  ret i64 %5, !dbg !1895
}

; Function Attrs: noreturn
declare void @_ZSt20__throw_length_errorPKc(ptr noundef) #9

; Function Attrs: mustprogress noinline nounwind optnone uwtable
define linkonce_odr dso_local noundef nonnull align 8 dereferenceable(8) ptr @_ZSt3maxImERKT_S2_S2_(ptr noundef nonnull align 8 dereferenceable(8) %0, ptr noundef nonnull align 8 dereferenceable(8) %1) #6 comdat !dbg !1896 {
  %3 = alloca ptr, align 8
  %4 = alloca ptr, align 8
  %5 = alloca ptr, align 8
  store ptr %0, ptr %4, align 8
  call void @llvm.dbg.declare(metadata ptr %4, metadata !1900, metadata !DIExpression()), !dbg !1901
  store ptr %1, ptr %5, align 8
  call void @llvm.dbg.declare(metadata ptr %5, metadata !1902, metadata !DIExpression()), !dbg !1903
  %6 = load ptr, ptr %4, align 8, !dbg !1904
  %7 = load i64, ptr %6, align 8, !dbg !1904
  %8 = load ptr, ptr %5, align 8, !dbg !1906
  %9 = load i64, ptr %8, align 8, !dbg !1906
  %10 = icmp ult i64 %7, %9, !dbg !1907
  br i1 %10, label %11, label %13, !dbg !1908

11:                                               ; preds = %2
  %12 = load ptr, ptr %5, align 8, !dbg !1909
  store ptr %12, ptr %3, align 8, !dbg !1910
  br label %15, !dbg !1910

13:                                               ; preds = %2
  %14 = load ptr, ptr %4, align 8, !dbg !1911
  store ptr %14, ptr %3, align 8, !dbg !1912
  br label %15, !dbg !1912

15:                                               ; preds = %13, %11
  %16 = load ptr, ptr %3, align 8, !dbg !1913
  ret ptr %16, !dbg !1913
}

; Function Attrs: mustprogress noinline nounwind optnone uwtable
define linkonce_odr dso_local noundef i64 @_ZNSt6vectorImSaImEE11_S_max_sizeERKS0_(ptr noundef nonnull align 1 dereferenceable(1) %0) #6 comdat align 2 personality ptr @__gxx_personality_v0 !dbg !1914 {
  %2 = alloca ptr, align 8
  %3 = alloca ptr, align 8
  %4 = alloca ptr, align 8
  %5 = alloca ptr, align 8
  %6 = alloca i64, align 8
  %7 = alloca i64, align 8
  store ptr %0, ptr %5, align 8
  call void @llvm.dbg.declare(metadata ptr %5, metadata !1915, metadata !DIExpression()), !dbg !1916
  call void @llvm.dbg.declare(metadata ptr %6, metadata !1917, metadata !DIExpression()), !dbg !1919
  store i64 1152921504606846975, ptr %6, align 8, !dbg !1919
  call void @llvm.dbg.declare(metadata ptr %7, metadata !1920, metadata !DIExpression()), !dbg !1921
  %8 = load ptr, ptr %5, align 8, !dbg !1922
  store ptr %8, ptr %4, align 8
  call void @llvm.dbg.declare(metadata ptr %4, metadata !1923, metadata !DIExpression()), !dbg !1925
  %9 = load ptr, ptr %4, align 8, !dbg !1927
  store ptr %9, ptr %3, align 8
  call void @llvm.dbg.declare(metadata ptr %3, metadata !1928, metadata !DIExpression()), !dbg !1931
  %10 = load ptr, ptr %3, align 8
  store ptr %10, ptr %2, align 8
  call void @llvm.dbg.declare(metadata ptr %2, metadata !1933, metadata !DIExpression()), !dbg !1935
  %11 = load ptr, ptr %2, align 8
  store i64 1152921504606846975, ptr %7, align 8, !dbg !1921
  %12 = invoke noundef nonnull align 8 dereferenceable(8) ptr @_ZSt3minImERKT_S2_S2_(ptr noundef nonnull align 8 dereferenceable(8) %6, ptr noundef nonnull align 8 dereferenceable(8) %7)
          to label %13 unwind label %15, !dbg !1937

13:                                               ; preds = %1
  %14 = load i64, ptr %12, align 8, !dbg !1937
  ret i64 %14, !dbg !1938

15:                                               ; preds = %1
  %16 = landingpad { ptr, i32 }
          catch ptr null, !dbg !1937
  %17 = extractvalue { ptr, i32 } %16, 0, !dbg !1937
  call void @__clang_call_terminate(ptr %17) #13, !dbg !1937
  unreachable, !dbg !1937
}

; Function Attrs: mustprogress noinline nounwind optnone uwtable
define linkonce_odr dso_local noundef nonnull align 1 dereferenceable(1) ptr @_ZNKSt12_Vector_baseImSaImEE19_M_get_Tp_allocatorEv(ptr noundef nonnull align 8 dereferenceable(24) %0) #6 comdat align 2 !dbg !1939 {
  %2 = alloca ptr, align 8
  store ptr %0, ptr %2, align 8
  call void @llvm.dbg.declare(metadata ptr %2, metadata !1940, metadata !DIExpression()), !dbg !1942
  %3 = load ptr, ptr %2, align 8
  %4 = getelementptr inbounds %"struct.std::_Vector_base", ptr %3, i32 0, i32 0, !dbg !1943
  ret ptr %4, !dbg !1944
}

; Function Attrs: mustprogress noinline nounwind optnone uwtable
define linkonce_odr dso_local noundef nonnull align 8 dereferenceable(8) ptr @_ZSt3minImERKT_S2_S2_(ptr noundef nonnull align 8 dereferenceable(8) %0, ptr noundef nonnull align 8 dereferenceable(8) %1) #6 comdat !dbg !1945 {
  %3 = alloca ptr, align 8
  %4 = alloca ptr, align 8
  %5 = alloca ptr, align 8
  store ptr %0, ptr %4, align 8
  call void @llvm.dbg.declare(metadata ptr %4, metadata !1946, metadata !DIExpression()), !dbg !1947
  store ptr %1, ptr %5, align 8
  call void @llvm.dbg.declare(metadata ptr %5, metadata !1948, metadata !DIExpression()), !dbg !1949
  %6 = load ptr, ptr %5, align 8, !dbg !1950
  %7 = load i64, ptr %6, align 8, !dbg !1950
  %8 = load ptr, ptr %4, align 8, !dbg !1952
  %9 = load i64, ptr %8, align 8, !dbg !1952
  %10 = icmp ult i64 %7, %9, !dbg !1953
  br i1 %10, label %11, label %13, !dbg !1954

11:                                               ; preds = %2
  %12 = load ptr, ptr %5, align 8, !dbg !1955
  store ptr %12, ptr %3, align 8, !dbg !1956
  br label %15, !dbg !1956

13:                                               ; preds = %2
  %14 = load ptr, ptr %4, align 8, !dbg !1957
  store ptr %14, ptr %3, align 8, !dbg !1958
  br label %15, !dbg !1958

15:                                               ; preds = %13, %11
  %16 = load ptr, ptr %3, align 8, !dbg !1959
  ret ptr %16, !dbg !1959
}

; Function Attrs: noinline nounwind optnone uwtable
define linkonce_odr dso_local void @_ZN9__gnu_cxx17__normal_iteratorIPmSt6vectorImSaImEEEC2ERKS1_(ptr noundef nonnull align 8 dereferenceable(8) %0, ptr noundef nonnull align 8 dereferenceable(8) %1) unnamed_addr #4 comdat align 2 !dbg !1960 {
  %3 = alloca ptr, align 8
  %4 = alloca ptr, align 8
  store ptr %0, ptr %3, align 8
  call void @llvm.dbg.declare(metadata ptr %3, metadata !1961, metadata !DIExpression()), !dbg !1963
  store ptr %1, ptr %4, align 8
  call void @llvm.dbg.declare(metadata ptr %4, metadata !1964, metadata !DIExpression()), !dbg !1965
  %5 = load ptr, ptr %3, align 8
  %6 = getelementptr inbounds %"class.__gnu_cxx::__normal_iterator", ptr %5, i32 0, i32 0, !dbg !1966
  %7 = load ptr, ptr %4, align 8, !dbg !1967
  %8 = load ptr, ptr %7, align 8, !dbg !1967
  store ptr %8, ptr %6, align 8, !dbg !1966
  ret void, !dbg !1968
}

; Function Attrs: mustprogress noinline optnone uwtable
define linkonce_odr dso_local noundef ptr @_ZNSt15__new_allocatorImE8allocateEmPKv(ptr noundef nonnull align 1 dereferenceable(1) %0, i64 noundef %1, ptr noundef %2) #0 comdat align 2 !dbg !1969 {
  %4 = alloca ptr, align 8
  %5 = alloca ptr, align 8
  %6 = alloca i64, align 8
  %7 = alloca ptr, align 8
  store ptr %0, ptr %5, align 8
  call void @llvm.dbg.declare(metadata ptr %5, metadata !1970, metadata !DIExpression()), !dbg !1971
  store i64 %1, ptr %6, align 8
  call void @llvm.dbg.declare(metadata ptr %6, metadata !1972, metadata !DIExpression()), !dbg !1973
  store ptr %2, ptr %7, align 8
  call void @llvm.dbg.declare(metadata ptr %7, metadata !1974, metadata !DIExpression()), !dbg !1975
  %8 = load ptr, ptr %5, align 8
  %9 = load i64, ptr %6, align 8, !dbg !1976
  store ptr %8, ptr %4, align 8
  call void @llvm.dbg.declare(metadata ptr %4, metadata !1933, metadata !DIExpression()), !dbg !1978
  %10 = load ptr, ptr %4, align 8
  %11 = icmp ugt i64 %9, 1152921504606846975, !dbg !1980
  br i1 %11, label %12, label %17, !dbg !1981

12:                                               ; preds = %3
  %13 = load i64, ptr %6, align 8, !dbg !1982
  %14 = icmp ugt i64 %13, 2305843009213693951, !dbg !1985
  br i1 %14, label %15, label %16, !dbg !1986

15:                                               ; preds = %12
  call void @_ZSt28__throw_bad_array_new_lengthv() #15, !dbg !1987
  unreachable, !dbg !1987

16:                                               ; preds = %12
  call void @_ZSt17__throw_bad_allocv() #15, !dbg !1988
  unreachable, !dbg !1988

17:                                               ; preds = %3
  %18 = load i64, ptr %6, align 8, !dbg !1989
  %19 = mul i64 %18, 8, !dbg !1990
  %20 = call noalias noundef nonnull ptr @_Znwm(i64 noundef %19) #16, !dbg !1991
  ret ptr %20, !dbg !1992
}

; Function Attrs: noreturn
declare void @_ZSt28__throw_bad_array_new_lengthv() #9

; Function Attrs: noreturn
declare void @_ZSt17__throw_bad_allocv() #9

; Function Attrs: nobuiltin allocsize(0)
declare noundef nonnull ptr @_Znwm(i64 noundef) #10

; Function Attrs: mustprogress noinline nounwind optnone uwtable
define linkonce_odr dso_local noundef ptr @_ZSt12__relocate_aIPmS0_SaImEET0_T_S3_S2_RT1_(ptr noundef %0, ptr noundef %1, ptr noundef %2, ptr noundef nonnull align 1 dereferenceable(1) %3) #6 comdat !dbg !1993 {
  %5 = alloca ptr, align 8
  %6 = alloca ptr, align 8
  %7 = alloca ptr, align 8
  %8 = alloca ptr, align 8
  store ptr %0, ptr %5, align 8
  call void @llvm.dbg.declare(metadata ptr %5, metadata !2000, metadata !DIExpression()), !dbg !2001
  store ptr %1, ptr %6, align 8
  call void @llvm.dbg.declare(metadata ptr %6, metadata !2002, metadata !DIExpression()), !dbg !2003
  store ptr %2, ptr %7, align 8
  call void @llvm.dbg.declare(metadata ptr %7, metadata !2004, metadata !DIExpression()), !dbg !2005
  store ptr %3, ptr %8, align 8
  call void @llvm.dbg.declare(metadata ptr %8, metadata !2006, metadata !DIExpression()), !dbg !2007
  %9 = load ptr, ptr %5, align 8, !dbg !2008
  %10 = call noundef ptr @_ZSt12__niter_baseIPmET_S1_(ptr noundef %9) #12, !dbg !2009
  %11 = load ptr, ptr %6, align 8, !dbg !2010
  %12 = call noundef ptr @_ZSt12__niter_baseIPmET_S1_(ptr noundef %11) #12, !dbg !2011
  %13 = load ptr, ptr %7, align 8, !dbg !2012
  %14 = call noundef ptr @_ZSt12__niter_baseIPmET_S1_(ptr noundef %13) #12, !dbg !2013
  %15 = load ptr, ptr %8, align 8, !dbg !2014
  %16 = call noundef ptr @_ZSt14__relocate_a_1ImmENSt9enable_ifIXsr3std24__is_bitwise_relocatableIT_EE5valueEPS1_E4typeES2_S2_S2_RSaIT0_E(ptr noundef %10, ptr noundef %12, ptr noundef %14, ptr noundef nonnull align 1 dereferenceable(1) %15) #12, !dbg !2015
  ret ptr %16, !dbg !2016
}

; Function Attrs: mustprogress noinline nounwind optnone uwtable
define linkonce_odr dso_local noundef ptr @_ZSt14__relocate_a_1ImmENSt9enable_ifIXsr3std24__is_bitwise_relocatableIT_EE5valueEPS1_E4typeES2_S2_S2_RSaIT0_E(ptr noundef %0, ptr noundef %1, ptr noundef %2, ptr noundef nonnull align 1 dereferenceable(1) %3) #6 comdat !dbg !2017 {
  %5 = alloca ptr, align 8
  %6 = alloca ptr, align 8
  %7 = alloca ptr, align 8
  %8 = alloca ptr, align 8
  %9 = alloca i64, align 8
  store ptr %0, ptr %5, align 8
  call void @llvm.dbg.declare(metadata ptr %5, metadata !2026, metadata !DIExpression()), !dbg !2027
  store ptr %1, ptr %6, align 8
  call void @llvm.dbg.declare(metadata ptr %6, metadata !2028, metadata !DIExpression()), !dbg !2029
  store ptr %2, ptr %7, align 8
  call void @llvm.dbg.declare(metadata ptr %7, metadata !2030, metadata !DIExpression()), !dbg !2031
  store ptr %3, ptr %8, align 8
  call void @llvm.dbg.declare(metadata ptr %8, metadata !2032, metadata !DIExpression()), !dbg !2033
  call void @llvm.dbg.declare(metadata ptr %9, metadata !2034, metadata !DIExpression()), !dbg !2035
  %10 = load ptr, ptr %6, align 8, !dbg !2036
  %11 = load ptr, ptr %5, align 8, !dbg !2037
  %12 = ptrtoint ptr %10 to i64, !dbg !2038
  %13 = ptrtoint ptr %11 to i64, !dbg !2038
  %14 = sub i64 %12, %13, !dbg !2038
  %15 = sdiv exact i64 %14, 8, !dbg !2038
  store i64 %15, ptr %9, align 8, !dbg !2035
  %16 = load i64, ptr %9, align 8, !dbg !2039
  %17 = icmp sgt i64 %16, 0, !dbg !2041
  br i1 %17, label %18, label %23, !dbg !2042

18:                                               ; preds = %4
  %19 = load ptr, ptr %7, align 8, !dbg !2043
  %20 = load ptr, ptr %5, align 8, !dbg !2045
  %21 = load i64, ptr %9, align 8, !dbg !2046
  %22 = mul i64 %21, 8, !dbg !2047
  call void @llvm.memmove.p0.p0.i64(ptr align 8 %19, ptr align 8 %20, i64 %22, i1 false), !dbg !2048
  br label %23, !dbg !2049

23:                                               ; preds = %18, %4
  %24 = load ptr, ptr %7, align 8, !dbg !2050
  %25 = load i64, ptr %9, align 8, !dbg !2051
  %26 = getelementptr inbounds i64, ptr %24, i64 %25, !dbg !2052
  ret ptr %26, !dbg !2053
}

; Function Attrs: mustprogress noinline nounwind optnone uwtable
define linkonce_odr dso_local noundef ptr @_ZSt12__niter_baseIPmET_S1_(ptr noundef %0) #6 comdat !dbg !2054 {
  %2 = alloca ptr, align 8
  store ptr %0, ptr %2, align 8
  call void @llvm.dbg.declare(metadata ptr %2, metadata !2057, metadata !DIExpression()), !dbg !2058
  %3 = load ptr, ptr %2, align 8, !dbg !2059
  ret ptr %3, !dbg !2060
}

; Function Attrs: nocallback nofree nounwind willreturn memory(argmem: readwrite)
declare void @llvm.memmove.p0.p0.i64(ptr nocapture writeonly, ptr nocapture readonly, i64, i1 immarg) #11

attributes #0 = { mustprogress noinline optnone uwtable "frame-pointer"="all" "min-legal-vector-width"="0" "no-trapping-math"="true" "stack-protector-buffer-size"="8" "target-cpu"="x86-64" "target-features"="+cx8,+fxsr,+mmx,+sse,+sse2,+x87" "tune-cpu"="generic" }
attributes #1 = { nocallback nofree nosync nounwind speculatable willreturn memory(none) }
attributes #2 = { "frame-pointer"="all" "no-trapping-math"="true" "stack-protector-buffer-size"="8" "target-cpu"="x86-64" "target-features"="+cx8,+fxsr,+mmx,+sse,+sse2,+x87" "tune-cpu"="generic" }
attributes #3 = { mustprogress noinline norecurse optnone uwtable "frame-pointer"="all" "min-legal-vector-width"="0" "no-trapping-math"="true" "stack-protector-buffer-size"="8" "target-cpu"="x86-64" "target-features"="+cx8,+fxsr,+mmx,+sse,+sse2,+x87" "tune-cpu"="generic" }
attributes #4 = { noinline nounwind optnone uwtable "frame-pointer"="all" "min-legal-vector-width"="0" "no-trapping-math"="true" "stack-protector-buffer-size"="8" "target-cpu"="x86-64" "target-features"="+cx8,+fxsr,+mmx,+sse,+sse2,+x87" "tune-cpu"="generic" }
attributes #5 = { nounwind "frame-pointer"="all" "no-trapping-math"="true" "stack-protector-buffer-size"="8" "target-cpu"="x86-64" "target-features"="+cx8,+fxsr,+mmx,+sse,+sse2,+x87" "tune-cpu"="generic" }
attributes #6 = { mustprogress noinline nounwind optnone uwtable "frame-pointer"="all" "min-legal-vector-width"="0" "no-trapping-math"="true" "stack-protector-buffer-size"="8" "target-cpu"="x86-64" "target-features"="+cx8,+fxsr,+mmx,+sse,+sse2,+x87" "tune-cpu"="generic" }
attributes #7 = { noinline noreturn nounwind "frame-pointer"="all" "no-trapping-math"="true" "stack-protector-buffer-size"="8" "target-cpu"="x86-64" "target-features"="+cx8,+fxsr,+mmx,+sse,+sse2,+x87" "tune-cpu"="generic" }
attributes #8 = { nobuiltin nounwind "frame-pointer"="all" "no-trapping-math"="true" "stack-protector-buffer-size"="8" "target-cpu"="x86-64" "target-features"="+cx8,+fxsr,+mmx,+sse,+sse2,+x87" "tune-cpu"="generic" }
attributes #9 = { noreturn "frame-pointer"="all" "no-trapping-math"="true" "stack-protector-buffer-size"="8" "target-cpu"="x86-64" "target-features"="+cx8,+fxsr,+mmx,+sse,+sse2,+x87" "tune-cpu"="generic" }
attributes #10 = { nobuiltin allocsize(0) "frame-pointer"="all" "no-trapping-math"="true" "stack-protector-buffer-size"="8" "target-cpu"="x86-64" "target-features"="+cx8,+fxsr,+mmx,+sse,+sse2,+x87" "tune-cpu"="generic" }
attributes #11 = { nocallback nofree nounwind willreturn memory(argmem: readwrite) }
attributes #12 = { nounwind }
attributes #13 = { noreturn nounwind }
attributes #14 = { builtin nounwind }
attributes #15 = { noreturn }
attributes #16 = { builtin allocsize(0) }

!llvm.dbg.cu = !{!29}
!llvm.module.flags = !{!1351, !1352, !1353, !1354, !1355, !1356, !1357}
!llvm.ident = !{!1358}

!0 = !DIGlobalVariableExpression(var: !1, expr: !DIExpression())
!1 = distinct !DIGlobalVariable(scope: null, file: !2, line: 14, type: !3, isLocal: true, isDefinition: true)
!2 = !DIFile(filename: "Reproduced_UAF/Synthetic_bugs/PTHREAD_VERSION/Thread_creation_Patterns/Thread_in_loop/Thread_in_do_while_UAS_bug.cpp", directory: "/home/cs22mtech12008", checksumkind: CSK_MD5, checksum: "ebdd8a8e67db45271582df253f7ce095")
!3 = !DICompositeType(tag: DW_TAG_array_type, baseType: !4, size: 240, elements: !6)
!4 = !DIDerivedType(tag: DW_TAG_const_type, baseType: !5)
!5 = !DIBasicType(name: "char", size: 8, encoding: DW_ATE_signed_char)
!6 = !{!7}
!7 = !DISubrange(count: 30)
!8 = !DIGlobalVariableExpression(var: !9, expr: !DIExpression())
!9 = distinct !DIGlobalVariable(scope: null, file: !2, line: 14, type: !10, isLocal: true, isDefinition: true)
!10 = !DICompositeType(tag: DW_TAG_array_type, baseType: !4, size: 16, elements: !11)
!11 = !{!12}
!12 = !DISubrange(count: 2)
!13 = !DIGlobalVariableExpression(var: !14, expr: !DIExpression())
!14 = distinct !DIGlobalVariable(scope: null, file: !2, line: 43, type: !15, isLocal: true, isDefinition: true)
!15 = !DICompositeType(tag: DW_TAG_array_type, baseType: !4, size: 96, elements: !16)
!16 = !{!17}
!17 = !DISubrange(count: 12)
!18 = !DIGlobalVariableExpression(var: !19, expr: !DIExpression())
!19 = distinct !DIGlobalVariable(scope: null, file: !2, line: 54, type: !20, isLocal: true, isDefinition: true)
!20 = !DICompositeType(tag: DW_TAG_array_type, baseType: !4, size: 152, elements: !21)
!21 = !{!22}
!22 = !DISubrange(count: 19)
!23 = !DIGlobalVariableExpression(var: !24, expr: !DIExpression())
!24 = distinct !DIGlobalVariable(scope: null, file: !25, line: 455, type: !26, isLocal: true, isDefinition: true)
!25 = !DIFile(filename: "/usr/lib/gcc/x86_64-linux-gnu/13/../../../../include/c++/13/bits/vector.tcc", directory: "", checksumkind: CSK_MD5, checksum: "7a9b0c21f3a78e011e36d631a0620623")
!26 = !DICompositeType(tag: DW_TAG_array_type, baseType: !4, size: 208, elements: !27)
!27 = !{!28}
!28 = !DISubrange(count: 26)
!29 = distinct !DICompileUnit(language: DW_LANG_C_plus_plus_14, file: !30, producer: "clang version 16.0.0", isOptimized: false, runtimeVersion: 0, emissionKind: FullDebug, retainedTypes: !31, globals: !586, imports: !587, splitDebugInlining: false, nameTableKind: None)
!30 = !DIFile(filename: "/home/cs22mtech12008/Reproduced_UAF/Synthetic_bugs/PTHREAD_VERSION/Thread_creation_Patterns/Thread_in_loop/Thread_in_do_while_UAS_bug.cpp", directory: "/home/cs22mtech12008/UseAfterScope/Scripts", checksumkind: CSK_MD5, checksum: "ebdd8a8e67db45271582df253f7ce095")
!31 = !{!32, !34, !35, !37, !41, !107, !66, !42, !529, !45, !48, !69, !75, !170}
!32 = !DIDerivedType(tag: DW_TAG_pointer_type, baseType: !33, size: 64)
!33 = !DIBasicType(name: "int", size: 32, encoding: DW_ATE_signed)
!34 = !DIDerivedType(tag: DW_TAG_pointer_type, baseType: null, size: 64)
!35 = !DIDerivedType(tag: DW_TAG_typedef, name: "size_type", file: !36, line: 460, baseType: !37, flags: DIFlagPublic)
!36 = !DIFile(filename: "/usr/lib/gcc/x86_64-linux-gnu/13/../../../../include/c++/13/bits/stl_vector.h", directory: "", checksumkind: CSK_MD5, checksum: "28825b5d932ba14be6043884e1fd9548")
!37 = !DIDerivedType(tag: DW_TAG_typedef, name: "size_t", scope: !39, file: !38, line: 308, baseType: !40)
!38 = !DIFile(filename: "/usr/lib/gcc/x86_64-linux-gnu/13/../../../../include/x86_64-linux-gnu/c++/13/bits/c++config.h", directory: "", checksumkind: CSK_MD5, checksum: "0bd4d19ae337473fb101b6a02c4b83e7")
!39 = !DINamespace(name: "std", scope: null)
!40 = !DIBasicType(name: "unsigned long", size: 64, encoding: DW_ATE_unsigned)
!41 = !DIDerivedType(tag: DW_TAG_typedef, name: "iterator", scope: !42, file: !36, line: 455, baseType: !529, flags: DIFlagPublic)
!42 = distinct !DICompositeType(tag: DW_TAG_class_type, name: "vector<unsigned long, std::allocator<unsigned long> >", scope: !39, file: !36, line: 425, size: 192, flags: DIFlagTypePassByReference | DIFlagNonTrivial, elements: !43, templateParams: !527, identifier: "_ZTSSt6vectorImSaImEE")
!43 = !{!44, !264, !283, !299, !300, !306, !309, !312, !316, !322, !325, !331, !336, !340, !350, !353, !356, !359, !364, !365, !369, !372, !375, !378, !381, !384, !391, !392, !393, !398, !403, !404, !405, !406, !407, !408, !409, !412, !413, !416, !417, !418, !419, !422, !423, !431, !438, !441, !442, !443, !446, !449, !450, !451, !454, !457, !460, !464, !465, !468, !471, !474, !477, !480, !483, !486, !487, !488, !489, !490, !493, !494, !497, !498, !499, !504, !507, !512, !515, !518, !521, !524}
!44 = !DIDerivedType(tag: DW_TAG_inheritance, scope: !42, baseType: !45, flags: DIFlagProtected, extraData: i32 0)
!45 = distinct !DICompositeType(tag: DW_TAG_structure_type, name: "_Vector_base<unsigned long, std::allocator<unsigned long> >", scope: !39, file: !36, line: 85, size: 192, flags: DIFlagTypePassByReference | DIFlagNonTrivial, elements: !46, templateParams: !263, identifier: "_ZTSSt12_Vector_baseImSaImEE")
!46 = !{!47, !214, !219, !224, !228, !231, !236, !239, !242, !246, !249, !252, !255, !256, !259, !262}
!47 = !DIDerivedType(tag: DW_TAG_member, name: "_M_impl", scope: !45, file: !36, line: 371, baseType: !48, size: 192)
!48 = distinct !DICompositeType(tag: DW_TAG_structure_type, name: "_Vector_impl", scope: !45, file: !36, line: 133, size: 192, flags: DIFlagTypePassByReference | DIFlagNonTrivial, elements: !49, identifier: "_ZTSNSt12_Vector_baseImSaImEE12_Vector_implE")
!49 = !{!50, !169, !194, !198, !203, !207, !211}
!50 = !DIDerivedType(tag: DW_TAG_inheritance, scope: !48, baseType: !51, extraData: i32 0)
!51 = !DIDerivedType(tag: DW_TAG_typedef, name: "_Tp_alloc_type", scope: !45, file: !36, line: 88, baseType: !52)
!52 = !DIDerivedType(tag: DW_TAG_typedef, name: "other", scope: !54, file: !53, line: 126, baseType: !168)
!53 = !DIFile(filename: "/usr/lib/gcc/x86_64-linux-gnu/13/../../../../include/c++/13/ext/alloc_traits.h", directory: "")
!54 = distinct !DICompositeType(tag: DW_TAG_structure_type, name: "rebind<unsigned long>", scope: !55, file: !53, line: 125, size: 8, flags: DIFlagTypePassByValue, elements: !167, templateParams: !116, identifier: "_ZTSN9__gnu_cxx14__alloc_traitsISaImEmE6rebindImEE")
!55 = distinct !DICompositeType(tag: DW_TAG_structure_type, name: "__alloc_traits<std::allocator<unsigned long>, unsigned long>", scope: !56, file: !53, line: 45, size: 8, flags: DIFlagTypePassByValue, elements: !57, templateParams: !165, identifier: "_ZTSN9__gnu_cxx14__alloc_traitsISaImEmEE")
!56 = !DINamespace(name: "__gnu_cxx", scope: null)
!57 = !{!58, !151, !154, !157, !161, !162, !163, !164}
!58 = !DIDerivedType(tag: DW_TAG_inheritance, scope: !55, baseType: !59, extraData: i32 0)
!59 = distinct !DICompositeType(tag: DW_TAG_structure_type, name: "allocator_traits<std::allocator<unsigned long> >", scope: !39, file: !60, line: 428, size: 8, flags: DIFlagTypePassByValue, elements: !61, templateParams: !149, identifier: "_ZTSSt16allocator_traitsISaImEE")
!60 = !DIFile(filename: "/usr/lib/gcc/x86_64-linux-gnu/13/../../../../include/c++/13/bits/alloc_traits.h", directory: "", checksumkind: CSK_MD5, checksum: "03a5dacef4a19384abf9bee5e839c757")
!61 = !{!62, !133, !137, !140, !146}
!62 = !DISubprogram(name: "allocate", linkageName: "_ZNSt16allocator_traitsISaImEE8allocateERS0_m", scope: !59, file: !60, line: 481, type: !63, scopeLine: 481, flags: DIFlagPrototyped | DIFlagStaticMember, spFlags: 0)
!63 = !DISubroutineType(types: !64)
!64 = !{!65, !67, !132}
!65 = !DIDerivedType(tag: DW_TAG_typedef, name: "pointer", scope: !59, file: !60, line: 437, baseType: !66)
!66 = !DIDerivedType(tag: DW_TAG_pointer_type, baseType: !40, size: 64)
!67 = !DIDerivedType(tag: DW_TAG_reference_type, baseType: !68, size: 64)
!68 = !DIDerivedType(tag: DW_TAG_typedef, name: "allocator_type", scope: !59, file: !60, line: 431, baseType: !69)
!69 = distinct !DICompositeType(tag: DW_TAG_class_type, name: "allocator<unsigned long>", scope: !39, file: !70, line: 130, size: 8, flags: DIFlagTypePassByReference | DIFlagNonTrivial, elements: !71, templateParams: !116, identifier: "_ZTSSaImE")
!70 = !DIFile(filename: "/usr/lib/gcc/x86_64-linux-gnu/13/../../../../include/c++/13/bits/allocator.h", directory: "", checksumkind: CSK_MD5, checksum: "9139beb5391dac1421727b85e114b3d4")
!71 = !{!72, !118, !122, !127, !131}
!72 = !DIDerivedType(tag: DW_TAG_inheritance, scope: !69, baseType: !73, flags: DIFlagPublic, extraData: i32 0)
!73 = !DIDerivedType(tag: DW_TAG_typedef, name: "__allocator_base<unsigned long>", scope: !39, file: !74, line: 47, baseType: !75)
!74 = !DIFile(filename: "/usr/lib/gcc/x86_64-linux-gnu/13/../../../../include/x86_64-linux-gnu/c++/13/bits/c++allocator.h", directory: "", checksumkind: CSK_MD5, checksum: "f56d3b48d132e35738b60e08703928ec")
!75 = distinct !DICompositeType(tag: DW_TAG_class_type, name: "__new_allocator<unsigned long>", scope: !39, file: !76, line: 63, size: 8, flags: DIFlagTypePassByReference | DIFlagNonTrivial, elements: !77, templateParams: !116, identifier: "_ZTSSt15__new_allocatorImE")
!76 = !DIFile(filename: "/usr/lib/gcc/x86_64-linux-gnu/13/../../../../include/c++/13/bits/new_allocator.h", directory: "", checksumkind: CSK_MD5, checksum: "4921ed78c50fb48b72f1f3cf83ff21b4")
!77 = !{!78, !82, !87, !88, !95, !103, !109, !112, !115}
!78 = !DISubprogram(name: "__new_allocator", scope: !75, file: !76, line: 88, type: !79, scopeLine: 88, flags: DIFlagPublic | DIFlagPrototyped, spFlags: 0)
!79 = !DISubroutineType(types: !80)
!80 = !{null, !81}
!81 = !DIDerivedType(tag: DW_TAG_pointer_type, baseType: !75, size: 64, flags: DIFlagArtificial | DIFlagObjectPointer)
!82 = !DISubprogram(name: "__new_allocator", scope: !75, file: !76, line: 92, type: !83, scopeLine: 92, flags: DIFlagPublic | DIFlagPrototyped, spFlags: 0)
!83 = !DISubroutineType(types: !84)
!84 = !{null, !81, !85}
!85 = !DIDerivedType(tag: DW_TAG_reference_type, baseType: !86, size: 64)
!86 = !DIDerivedType(tag: DW_TAG_const_type, baseType: !75)
!87 = !DISubprogram(name: "~__new_allocator", scope: !75, file: !76, line: 100, type: !79, scopeLine: 100, flags: DIFlagPublic | DIFlagPrototyped, spFlags: 0)
!88 = !DISubprogram(name: "address", linkageName: "_ZNKSt15__new_allocatorImE7addressERm", scope: !75, file: !76, line: 103, type: !89, scopeLine: 103, flags: DIFlagPublic | DIFlagPrototyped, spFlags: 0)
!89 = !DISubroutineType(types: !90)
!90 = !{!91, !92, !93}
!91 = !DIDerivedType(tag: DW_TAG_typedef, name: "pointer", scope: !75, file: !76, line: 70, baseType: !66, flags: DIFlagPublic)
!92 = !DIDerivedType(tag: DW_TAG_pointer_type, baseType: !86, size: 64, flags: DIFlagArtificial | DIFlagObjectPointer)
!93 = !DIDerivedType(tag: DW_TAG_typedef, name: "reference", scope: !75, file: !76, line: 72, baseType: !94, flags: DIFlagPublic)
!94 = !DIDerivedType(tag: DW_TAG_reference_type, baseType: !40, size: 64)
!95 = !DISubprogram(name: "address", linkageName: "_ZNKSt15__new_allocatorImE7addressERKm", scope: !75, file: !76, line: 107, type: !96, scopeLine: 107, flags: DIFlagPublic | DIFlagPrototyped, spFlags: 0)
!96 = !DISubroutineType(types: !97)
!97 = !{!98, !92, !101}
!98 = !DIDerivedType(tag: DW_TAG_typedef, name: "const_pointer", scope: !75, file: !76, line: 71, baseType: !99, flags: DIFlagPublic)
!99 = !DIDerivedType(tag: DW_TAG_pointer_type, baseType: !100, size: 64)
!100 = !DIDerivedType(tag: DW_TAG_const_type, baseType: !40)
!101 = !DIDerivedType(tag: DW_TAG_typedef, name: "const_reference", scope: !75, file: !76, line: 73, baseType: !102, flags: DIFlagPublic)
!102 = !DIDerivedType(tag: DW_TAG_reference_type, baseType: !100, size: 64)
!103 = !DISubprogram(name: "allocate", linkageName: "_ZNSt15__new_allocatorImE8allocateEmPKv", scope: !75, file: !76, line: 122, type: !104, scopeLine: 122, flags: DIFlagPublic | DIFlagPrototyped, spFlags: 0)
!104 = !DISubroutineType(types: !105)
!105 = !{!66, !81, !106, !107}
!106 = !DIDerivedType(tag: DW_TAG_typedef, name: "size_type", file: !76, line: 67, baseType: !37, flags: DIFlagPublic)
!107 = !DIDerivedType(tag: DW_TAG_pointer_type, baseType: !108, size: 64)
!108 = !DIDerivedType(tag: DW_TAG_const_type, baseType: null)
!109 = !DISubprogram(name: "deallocate", linkageName: "_ZNSt15__new_allocatorImE10deallocateEPmm", scope: !75, file: !76, line: 152, type: !110, scopeLine: 152, flags: DIFlagPublic | DIFlagPrototyped, spFlags: 0)
!110 = !DISubroutineType(types: !111)
!111 = !{null, !81, !66, !106}
!112 = !DISubprogram(name: "max_size", linkageName: "_ZNKSt15__new_allocatorImE8max_sizeEv", scope: !75, file: !76, line: 178, type: !113, scopeLine: 178, flags: DIFlagPublic | DIFlagPrototyped, spFlags: 0)
!113 = !DISubroutineType(types: !114)
!114 = !{!106, !92}
!115 = !DISubprogram(name: "_M_max_size", linkageName: "_ZNKSt15__new_allocatorImE11_M_max_sizeEv", scope: !75, file: !76, line: 226, type: !113, scopeLine: 226, flags: DIFlagPrototyped, spFlags: 0)
!116 = !{!117}
!117 = !DITemplateTypeParameter(name: "_Tp", type: !40)
!118 = !DISubprogram(name: "allocator", scope: !69, file: !70, line: 163, type: !119, scopeLine: 163, flags: DIFlagPublic | DIFlagPrototyped, spFlags: 0)
!119 = !DISubroutineType(types: !120)
!120 = !{null, !121}
!121 = !DIDerivedType(tag: DW_TAG_pointer_type, baseType: !69, size: 64, flags: DIFlagArtificial | DIFlagObjectPointer)
!122 = !DISubprogram(name: "allocator", scope: !69, file: !70, line: 167, type: !123, scopeLine: 167, flags: DIFlagPublic | DIFlagPrototyped, spFlags: 0)
!123 = !DISubroutineType(types: !124)
!124 = !{null, !121, !125}
!125 = !DIDerivedType(tag: DW_TAG_reference_type, baseType: !126, size: 64)
!126 = !DIDerivedType(tag: DW_TAG_const_type, baseType: !69)
!127 = !DISubprogram(name: "operator=", linkageName: "_ZNSaImEaSERKS_", scope: !69, file: !70, line: 172, type: !128, scopeLine: 172, flags: DIFlagPublic | DIFlagPrototyped, spFlags: 0)
!128 = !DISubroutineType(types: !129)
!129 = !{!130, !121, !125}
!130 = !DIDerivedType(tag: DW_TAG_reference_type, baseType: !69, size: 64)
!131 = !DISubprogram(name: "~allocator", scope: !69, file: !70, line: 184, type: !119, scopeLine: 184, flags: DIFlagPublic | DIFlagPrototyped, spFlags: 0)
!132 = !DIDerivedType(tag: DW_TAG_typedef, name: "size_type", file: !60, line: 452, baseType: !37)
!133 = !DISubprogram(name: "allocate", linkageName: "_ZNSt16allocator_traitsISaImEE8allocateERS0_mPKv", scope: !59, file: !60, line: 496, type: !134, scopeLine: 496, flags: DIFlagPrototyped | DIFlagStaticMember, spFlags: 0)
!134 = !DISubroutineType(types: !135)
!135 = !{!65, !67, !132, !136}
!136 = !DIDerivedType(tag: DW_TAG_typedef, name: "const_void_pointer", file: !60, line: 446, baseType: !107)
!137 = !DISubprogram(name: "deallocate", linkageName: "_ZNSt16allocator_traitsISaImEE10deallocateERS0_Pmm", scope: !59, file: !60, line: 515, type: !138, scopeLine: 515, flags: DIFlagPrototyped | DIFlagStaticMember, spFlags: 0)
!138 = !DISubroutineType(types: !139)
!139 = !{null, !67, !65, !132}
!140 = !DISubprogram(name: "max_size", linkageName: "_ZNSt16allocator_traitsISaImEE8max_sizeERKS0_", scope: !59, file: !60, line: 570, type: !141, scopeLine: 570, flags: DIFlagPrototyped | DIFlagStaticMember, spFlags: 0)
!141 = !DISubroutineType(types: !142)
!142 = !{!143, !144}
!143 = !DIDerivedType(tag: DW_TAG_typedef, name: "size_type", scope: !59, file: !60, line: 452, baseType: !37)
!144 = !DIDerivedType(tag: DW_TAG_reference_type, baseType: !145, size: 64)
!145 = !DIDerivedType(tag: DW_TAG_const_type, baseType: !68)
!146 = !DISubprogram(name: "select_on_container_copy_construction", linkageName: "_ZNSt16allocator_traitsISaImEE37select_on_container_copy_constructionERKS0_", scope: !59, file: !60, line: 586, type: !147, scopeLine: 586, flags: DIFlagPrototyped | DIFlagStaticMember, spFlags: 0)
!147 = !DISubroutineType(types: !148)
!148 = !{!68, !144}
!149 = !{!150}
!150 = !DITemplateTypeParameter(name: "_Alloc", type: !69)
!151 = !DISubprogram(name: "_S_select_on_copy", linkageName: "_ZN9__gnu_cxx14__alloc_traitsISaImEmE17_S_select_on_copyERKS1_", scope: !55, file: !53, line: 97, type: !152, scopeLine: 97, flags: DIFlagPrototyped | DIFlagStaticMember, spFlags: 0)
!152 = !DISubroutineType(types: !153)
!153 = !{!69, !125}
!154 = !DISubprogram(name: "_S_on_swap", linkageName: "_ZN9__gnu_cxx14__alloc_traitsISaImEmE10_S_on_swapERS1_S3_", scope: !55, file: !53, line: 101, type: !155, scopeLine: 101, flags: DIFlagPrototyped | DIFlagStaticMember, spFlags: 0)
!155 = !DISubroutineType(types: !156)
!156 = !{null, !130, !130}
!157 = !DISubprogram(name: "_S_propagate_on_copy_assign", linkageName: "_ZN9__gnu_cxx14__alloc_traitsISaImEmE27_S_propagate_on_copy_assignEv", scope: !55, file: !53, line: 105, type: !158, scopeLine: 105, flags: DIFlagPrototyped | DIFlagStaticMember, spFlags: 0)
!158 = !DISubroutineType(types: !159)
!159 = !{!160}
!160 = !DIBasicType(name: "bool", size: 8, encoding: DW_ATE_boolean)
!161 = !DISubprogram(name: "_S_propagate_on_move_assign", linkageName: "_ZN9__gnu_cxx14__alloc_traitsISaImEmE27_S_propagate_on_move_assignEv", scope: !55, file: !53, line: 109, type: !158, scopeLine: 109, flags: DIFlagPrototyped | DIFlagStaticMember, spFlags: 0)
!162 = !DISubprogram(name: "_S_propagate_on_swap", linkageName: "_ZN9__gnu_cxx14__alloc_traitsISaImEmE20_S_propagate_on_swapEv", scope: !55, file: !53, line: 113, type: !158, scopeLine: 113, flags: DIFlagPrototyped | DIFlagStaticMember, spFlags: 0)
!163 = !DISubprogram(name: "_S_always_equal", linkageName: "_ZN9__gnu_cxx14__alloc_traitsISaImEmE15_S_always_equalEv", scope: !55, file: !53, line: 117, type: !158, scopeLine: 117, flags: DIFlagPrototyped | DIFlagStaticMember, spFlags: 0)
!164 = !DISubprogram(name: "_S_nothrow_move", linkageName: "_ZN9__gnu_cxx14__alloc_traitsISaImEmE15_S_nothrow_moveEv", scope: !55, file: !53, line: 121, type: !158, scopeLine: 121, flags: DIFlagPrototyped | DIFlagStaticMember, spFlags: 0)
!165 = !{!150, !166}
!166 = !DITemplateTypeParameter(type: !40)
!167 = !{}
!168 = !DIDerivedType(tag: DW_TAG_typedef, name: "rebind_alloc<unsigned long>", scope: !59, file: !60, line: 467, baseType: !69)
!169 = !DIDerivedType(tag: DW_TAG_inheritance, scope: !48, baseType: !170, extraData: i32 0)
!170 = distinct !DICompositeType(tag: DW_TAG_structure_type, name: "_Vector_impl_data", scope: !45, file: !36, line: 92, size: 192, flags: DIFlagTypePassByReference | DIFlagNonTrivial, elements: !171, identifier: "_ZTSNSt12_Vector_baseImSaImEE17_Vector_impl_dataE")
!171 = !{!172, !175, !176, !177, !181, !185, !190}
!172 = !DIDerivedType(tag: DW_TAG_member, name: "_M_start", scope: !170, file: !36, line: 94, baseType: !173, size: 64)
!173 = !DIDerivedType(tag: DW_TAG_typedef, name: "pointer", scope: !45, file: !36, line: 90, baseType: !174)
!174 = !DIDerivedType(tag: DW_TAG_typedef, name: "pointer", scope: !55, file: !53, line: 54, baseType: !65)
!175 = !DIDerivedType(tag: DW_TAG_member, name: "_M_finish", scope: !170, file: !36, line: 95, baseType: !173, size: 64, offset: 64)
!176 = !DIDerivedType(tag: DW_TAG_member, name: "_M_end_of_storage", scope: !170, file: !36, line: 96, baseType: !173, size: 64, offset: 128)
!177 = !DISubprogram(name: "_Vector_impl_data", scope: !170, file: !36, line: 99, type: !178, scopeLine: 99, flags: DIFlagPrototyped, spFlags: 0)
!178 = !DISubroutineType(types: !179)
!179 = !{null, !180}
!180 = !DIDerivedType(tag: DW_TAG_pointer_type, baseType: !170, size: 64, flags: DIFlagArtificial | DIFlagObjectPointer)
!181 = !DISubprogram(name: "_Vector_impl_data", scope: !170, file: !36, line: 105, type: !182, scopeLine: 105, flags: DIFlagPrototyped, spFlags: 0)
!182 = !DISubroutineType(types: !183)
!183 = !{null, !180, !184}
!184 = !DIDerivedType(tag: DW_TAG_rvalue_reference_type, baseType: !170, size: 64)
!185 = !DISubprogram(name: "_M_copy_data", linkageName: "_ZNSt12_Vector_baseImSaImEE17_Vector_impl_data12_M_copy_dataERKS2_", scope: !170, file: !36, line: 113, type: !186, scopeLine: 113, flags: DIFlagPrototyped, spFlags: 0)
!186 = !DISubroutineType(types: !187)
!187 = !{null, !180, !188}
!188 = !DIDerivedType(tag: DW_TAG_reference_type, baseType: !189, size: 64)
!189 = !DIDerivedType(tag: DW_TAG_const_type, baseType: !170)
!190 = !DISubprogram(name: "_M_swap_data", linkageName: "_ZNSt12_Vector_baseImSaImEE17_Vector_impl_data12_M_swap_dataERS2_", scope: !170, file: !36, line: 122, type: !191, scopeLine: 122, flags: DIFlagPrototyped, spFlags: 0)
!191 = !DISubroutineType(types: !192)
!192 = !{null, !180, !193}
!193 = !DIDerivedType(tag: DW_TAG_reference_type, baseType: !170, size: 64)
!194 = !DISubprogram(name: "_Vector_impl", scope: !48, file: !36, line: 137, type: !195, scopeLine: 137, flags: DIFlagPrototyped, spFlags: 0)
!195 = !DISubroutineType(types: !196)
!196 = !{null, !197}
!197 = !DIDerivedType(tag: DW_TAG_pointer_type, baseType: !48, size: 64, flags: DIFlagArtificial | DIFlagObjectPointer)
!198 = !DISubprogram(name: "_Vector_impl", scope: !48, file: !36, line: 143, type: !199, scopeLine: 143, flags: DIFlagPrototyped, spFlags: 0)
!199 = !DISubroutineType(types: !200)
!200 = !{null, !197, !201}
!201 = !DIDerivedType(tag: DW_TAG_reference_type, baseType: !202, size: 64)
!202 = !DIDerivedType(tag: DW_TAG_const_type, baseType: !51)
!203 = !DISubprogram(name: "_Vector_impl", scope: !48, file: !36, line: 151, type: !204, scopeLine: 151, flags: DIFlagPrototyped, spFlags: 0)
!204 = !DISubroutineType(types: !205)
!205 = !{null, !197, !206}
!206 = !DIDerivedType(tag: DW_TAG_rvalue_reference_type, baseType: !48, size: 64)
!207 = !DISubprogram(name: "_Vector_impl", scope: !48, file: !36, line: 156, type: !208, scopeLine: 156, flags: DIFlagPrototyped, spFlags: 0)
!208 = !DISubroutineType(types: !209)
!209 = !{null, !197, !210}
!210 = !DIDerivedType(tag: DW_TAG_rvalue_reference_type, baseType: !51, size: 64)
!211 = !DISubprogram(name: "_Vector_impl", scope: !48, file: !36, line: 161, type: !212, scopeLine: 161, flags: DIFlagPrototyped, spFlags: 0)
!212 = !DISubroutineType(types: !213)
!213 = !{null, !197, !210, !206}
!214 = !DISubprogram(name: "_M_get_Tp_allocator", linkageName: "_ZNSt12_Vector_baseImSaImEE19_M_get_Tp_allocatorEv", scope: !45, file: !36, line: 298, type: !215, scopeLine: 298, flags: DIFlagPrototyped, spFlags: 0)
!215 = !DISubroutineType(types: !216)
!216 = !{!217, !218}
!217 = !DIDerivedType(tag: DW_TAG_reference_type, baseType: !51, size: 64)
!218 = !DIDerivedType(tag: DW_TAG_pointer_type, baseType: !45, size: 64, flags: DIFlagArtificial | DIFlagObjectPointer)
!219 = !DISubprogram(name: "_M_get_Tp_allocator", linkageName: "_ZNKSt12_Vector_baseImSaImEE19_M_get_Tp_allocatorEv", scope: !45, file: !36, line: 303, type: !220, scopeLine: 303, flags: DIFlagPrototyped, spFlags: 0)
!220 = !DISubroutineType(types: !221)
!221 = !{!201, !222}
!222 = !DIDerivedType(tag: DW_TAG_pointer_type, baseType: !223, size: 64, flags: DIFlagArtificial | DIFlagObjectPointer)
!223 = !DIDerivedType(tag: DW_TAG_const_type, baseType: !45)
!224 = !DISubprogram(name: "get_allocator", linkageName: "_ZNKSt12_Vector_baseImSaImEE13get_allocatorEv", scope: !45, file: !36, line: 308, type: !225, scopeLine: 308, flags: DIFlagPrototyped, spFlags: 0)
!225 = !DISubroutineType(types: !226)
!226 = !{!227, !222}
!227 = !DIDerivedType(tag: DW_TAG_typedef, name: "allocator_type", scope: !45, file: !36, line: 294, baseType: !69)
!228 = !DISubprogram(name: "_Vector_base", scope: !45, file: !36, line: 312, type: !229, scopeLine: 312, flags: DIFlagPrototyped, spFlags: 0)
!229 = !DISubroutineType(types: !230)
!230 = !{null, !218}
!231 = !DISubprogram(name: "_Vector_base", scope: !45, file: !36, line: 318, type: !232, scopeLine: 318, flags: DIFlagPrototyped, spFlags: 0)
!232 = !DISubroutineType(types: !233)
!233 = !{null, !218, !234}
!234 = !DIDerivedType(tag: DW_TAG_reference_type, baseType: !235, size: 64)
!235 = !DIDerivedType(tag: DW_TAG_const_type, baseType: !227)
!236 = !DISubprogram(name: "_Vector_base", scope: !45, file: !36, line: 324, type: !237, scopeLine: 324, flags: DIFlagPrototyped, spFlags: 0)
!237 = !DISubroutineType(types: !238)
!238 = !{null, !218, !37}
!239 = !DISubprogram(name: "_Vector_base", scope: !45, file: !36, line: 330, type: !240, scopeLine: 330, flags: DIFlagPrototyped, spFlags: 0)
!240 = !DISubroutineType(types: !241)
!241 = !{null, !218, !37, !234}
!242 = !DISubprogram(name: "_Vector_base", scope: !45, file: !36, line: 335, type: !243, scopeLine: 335, flags: DIFlagPrototyped, spFlags: 0)
!243 = !DISubroutineType(types: !244)
!244 = !{null, !218, !245}
!245 = !DIDerivedType(tag: DW_TAG_rvalue_reference_type, baseType: !45, size: 64)
!246 = !DISubprogram(name: "_Vector_base", scope: !45, file: !36, line: 340, type: !247, scopeLine: 340, flags: DIFlagPrototyped, spFlags: 0)
!247 = !DISubroutineType(types: !248)
!248 = !{null, !218, !210}
!249 = !DISubprogram(name: "_Vector_base", scope: !45, file: !36, line: 344, type: !250, scopeLine: 344, flags: DIFlagPrototyped, spFlags: 0)
!250 = !DISubroutineType(types: !251)
!251 = !{null, !218, !245, !234}
!252 = !DISubprogram(name: "_Vector_base", scope: !45, file: !36, line: 358, type: !253, scopeLine: 358, flags: DIFlagPrototyped, spFlags: 0)
!253 = !DISubroutineType(types: !254)
!254 = !{null, !218, !234, !245}
!255 = !DISubprogram(name: "~_Vector_base", scope: !45, file: !36, line: 364, type: !229, scopeLine: 364, flags: DIFlagPrototyped, spFlags: 0)
!256 = !DISubprogram(name: "_M_allocate", linkageName: "_ZNSt12_Vector_baseImSaImEE11_M_allocateEm", scope: !45, file: !36, line: 375, type: !257, scopeLine: 375, flags: DIFlagPrototyped, spFlags: 0)
!257 = !DISubroutineType(types: !258)
!258 = !{!173, !218, !37}
!259 = !DISubprogram(name: "_M_deallocate", linkageName: "_ZNSt12_Vector_baseImSaImEE13_M_deallocateEPmm", scope: !45, file: !36, line: 383, type: !260, scopeLine: 383, flags: DIFlagPrototyped, spFlags: 0)
!260 = !DISubroutineType(types: !261)
!261 = !{null, !218, !173, !37}
!262 = !DISubprogram(name: "_M_create_storage", linkageName: "_ZNSt12_Vector_baseImSaImEE17_M_create_storageEm", scope: !45, file: !36, line: 393, type: !237, scopeLine: 393, flags: DIFlagProtected | DIFlagPrototyped, spFlags: 0)
!263 = !{!117, !150}
!264 = !DISubprogram(name: "_S_nothrow_relocate", linkageName: "_ZNSt6vectorImSaImEE19_S_nothrow_relocateESt17integral_constantIbLb1EE", scope: !42, file: !36, line: 467, type: !265, scopeLine: 467, flags: DIFlagPrototyped | DIFlagStaticMember, spFlags: 0)
!265 = !DISubroutineType(types: !266)
!266 = !{!160, !267}
!267 = !DIDerivedType(tag: DW_TAG_typedef, name: "true_type", scope: !39, file: !268, line: 82, baseType: !269)
!268 = !DIFile(filename: "/usr/lib/gcc/x86_64-linux-gnu/13/../../../../include/c++/13/type_traits", directory: "")
!269 = distinct !DICompositeType(tag: DW_TAG_structure_type, name: "integral_constant<bool, true>", scope: !39, file: !268, line: 62, size: 8, flags: DIFlagTypePassByValue, elements: !270, templateParams: !280, identifier: "_ZTSSt17integral_constantIbLb1EE")
!270 = !{!271, !273, !279}
!271 = !DIDerivedType(tag: DW_TAG_member, name: "value", scope: !269, file: !268, line: 64, baseType: !272, flags: DIFlagStaticMember, extraData: i1 true)
!272 = !DIDerivedType(tag: DW_TAG_const_type, baseType: !160)
!273 = !DISubprogram(name: "operator bool", linkageName: "_ZNKSt17integral_constantIbLb1EEcvbEv", scope: !269, file: !268, line: 67, type: !274, scopeLine: 67, flags: DIFlagPrototyped, spFlags: 0)
!274 = !DISubroutineType(types: !275)
!275 = !{!276, !277}
!276 = !DIDerivedType(tag: DW_TAG_typedef, name: "value_type", scope: !269, file: !268, line: 65, baseType: !160)
!277 = !DIDerivedType(tag: DW_TAG_pointer_type, baseType: !278, size: 64, flags: DIFlagArtificial | DIFlagObjectPointer)
!278 = !DIDerivedType(tag: DW_TAG_const_type, baseType: !269)
!279 = !DISubprogram(name: "operator()", linkageName: "_ZNKSt17integral_constantIbLb1EEclEv", scope: !269, file: !268, line: 72, type: !274, scopeLine: 72, flags: DIFlagPrototyped, spFlags: 0)
!280 = !{!281, !282}
!281 = !DITemplateTypeParameter(name: "_Tp", type: !160)
!282 = !DITemplateValueParameter(name: "__v", type: !160, value: i1 true)
!283 = !DISubprogram(name: "_S_nothrow_relocate", linkageName: "_ZNSt6vectorImSaImEE19_S_nothrow_relocateESt17integral_constantIbLb0EE", scope: !42, file: !36, line: 476, type: !284, scopeLine: 476, flags: DIFlagPrototyped | DIFlagStaticMember, spFlags: 0)
!284 = !DISubroutineType(types: !285)
!285 = !{!160, !286}
!286 = !DIDerivedType(tag: DW_TAG_typedef, name: "false_type", scope: !39, file: !268, line: 85, baseType: !287)
!287 = distinct !DICompositeType(tag: DW_TAG_structure_type, name: "integral_constant<bool, false>", scope: !39, file: !268, line: 62, size: 8, flags: DIFlagTypePassByValue, elements: !288, templateParams: !297, identifier: "_ZTSSt17integral_constantIbLb0EE")
!288 = !{!289, !290, !296}
!289 = !DIDerivedType(tag: DW_TAG_member, name: "value", scope: !287, file: !268, line: 64, baseType: !272, flags: DIFlagStaticMember, extraData: i1 false)
!290 = !DISubprogram(name: "operator bool", linkageName: "_ZNKSt17integral_constantIbLb0EEcvbEv", scope: !287, file: !268, line: 67, type: !291, scopeLine: 67, flags: DIFlagPrototyped, spFlags: 0)
!291 = !DISubroutineType(types: !292)
!292 = !{!293, !294}
!293 = !DIDerivedType(tag: DW_TAG_typedef, name: "value_type", scope: !287, file: !268, line: 65, baseType: !160)
!294 = !DIDerivedType(tag: DW_TAG_pointer_type, baseType: !295, size: 64, flags: DIFlagArtificial | DIFlagObjectPointer)
!295 = !DIDerivedType(tag: DW_TAG_const_type, baseType: !287)
!296 = !DISubprogram(name: "operator()", linkageName: "_ZNKSt17integral_constantIbLb0EEclEv", scope: !287, file: !268, line: 72, type: !291, scopeLine: 72, flags: DIFlagPrototyped, spFlags: 0)
!297 = !{!281, !298}
!298 = !DITemplateValueParameter(name: "__v", type: !160, value: i1 false)
!299 = !DISubprogram(name: "_S_use_relocate", linkageName: "_ZNSt6vectorImSaImEE15_S_use_relocateEv", scope: !42, file: !36, line: 480, type: !158, scopeLine: 480, flags: DIFlagPrototyped | DIFlagStaticMember, spFlags: 0)
!300 = !DISubprogram(name: "_S_do_relocate", linkageName: "_ZNSt6vectorImSaImEE14_S_do_relocateEPmS2_S2_RS0_St17integral_constantIbLb1EE", scope: !42, file: !36, line: 489, type: !301, scopeLine: 489, flags: DIFlagPrototyped | DIFlagStaticMember, spFlags: 0)
!301 = !DISubroutineType(types: !302)
!302 = !{!303, !303, !303, !303, !304, !267}
!303 = !DIDerivedType(tag: DW_TAG_typedef, name: "pointer", scope: !42, file: !36, line: 451, baseType: !173, flags: DIFlagPublic)
!304 = !DIDerivedType(tag: DW_TAG_reference_type, baseType: !305, size: 64)
!305 = !DIDerivedType(tag: DW_TAG_typedef, name: "_Tp_alloc_type", scope: !42, file: !36, line: 446, baseType: !51)
!306 = !DISubprogram(name: "_S_do_relocate", linkageName: "_ZNSt6vectorImSaImEE14_S_do_relocateEPmS2_S2_RS0_St17integral_constantIbLb0EE", scope: !42, file: !36, line: 496, type: !307, scopeLine: 496, flags: DIFlagPrototyped | DIFlagStaticMember, spFlags: 0)
!307 = !DISubroutineType(types: !308)
!308 = !{!303, !303, !303, !303, !304, !286}
!309 = !DISubprogram(name: "_S_relocate", linkageName: "_ZNSt6vectorImSaImEE11_S_relocateEPmS2_S2_RS0_", scope: !42, file: !36, line: 501, type: !310, scopeLine: 501, flags: DIFlagPrototyped | DIFlagStaticMember, spFlags: 0)
!310 = !DISubroutineType(types: !311)
!311 = !{!303, !303, !303, !303, !304}
!312 = !DISubprogram(name: "vector", scope: !42, file: !36, line: 528, type: !313, scopeLine: 528, flags: DIFlagPublic | DIFlagPrototyped, spFlags: 0)
!313 = !DISubroutineType(types: !314)
!314 = !{null, !315}
!315 = !DIDerivedType(tag: DW_TAG_pointer_type, baseType: !42, size: 64, flags: DIFlagArtificial | DIFlagObjectPointer)
!316 = !DISubprogram(name: "vector", scope: !42, file: !36, line: 539, type: !317, scopeLine: 539, flags: DIFlagPublic | DIFlagExplicit | DIFlagPrototyped, spFlags: 0)
!317 = !DISubroutineType(types: !318)
!318 = !{null, !315, !319}
!319 = !DIDerivedType(tag: DW_TAG_reference_type, baseType: !320, size: 64)
!320 = !DIDerivedType(tag: DW_TAG_const_type, baseType: !321)
!321 = !DIDerivedType(tag: DW_TAG_typedef, name: "allocator_type", scope: !42, file: !36, line: 462, baseType: !69, flags: DIFlagPublic)
!322 = !DISubprogram(name: "vector", scope: !42, file: !36, line: 553, type: !323, scopeLine: 553, flags: DIFlagPublic | DIFlagExplicit | DIFlagPrototyped, spFlags: 0)
!323 = !DISubroutineType(types: !324)
!324 = !{null, !315, !35, !319}
!325 = !DISubprogram(name: "vector", scope: !42, file: !36, line: 566, type: !326, scopeLine: 566, flags: DIFlagPublic | DIFlagPrototyped, spFlags: 0)
!326 = !DISubroutineType(types: !327)
!327 = !{null, !315, !35, !328, !319}
!328 = !DIDerivedType(tag: DW_TAG_reference_type, baseType: !329, size: 64)
!329 = !DIDerivedType(tag: DW_TAG_const_type, baseType: !330)
!330 = !DIDerivedType(tag: DW_TAG_typedef, name: "value_type", scope: !42, file: !36, line: 450, baseType: !40, flags: DIFlagPublic)
!331 = !DISubprogram(name: "vector", scope: !42, file: !36, line: 598, type: !332, scopeLine: 598, flags: DIFlagPublic | DIFlagPrototyped, spFlags: 0)
!332 = !DISubroutineType(types: !333)
!333 = !{null, !315, !334}
!334 = !DIDerivedType(tag: DW_TAG_reference_type, baseType: !335, size: 64)
!335 = !DIDerivedType(tag: DW_TAG_const_type, baseType: !42)
!336 = !DISubprogram(name: "vector", scope: !42, file: !36, line: 617, type: !337, scopeLine: 617, flags: DIFlagPublic | DIFlagPrototyped, spFlags: 0)
!337 = !DISubroutineType(types: !338)
!338 = !{null, !315, !339}
!339 = !DIDerivedType(tag: DW_TAG_rvalue_reference_type, baseType: !42, size: 64)
!340 = !DISubprogram(name: "vector", scope: !42, file: !36, line: 621, type: !341, scopeLine: 621, flags: DIFlagPublic | DIFlagPrototyped, spFlags: 0)
!341 = !DISubroutineType(types: !342)
!342 = !{null, !315, !334, !343}
!343 = !DIDerivedType(tag: DW_TAG_reference_type, baseType: !344, size: 64)
!344 = !DIDerivedType(tag: DW_TAG_const_type, baseType: !345)
!345 = !DIDerivedType(tag: DW_TAG_typedef, name: "__type_identity_t<allocator_type>", scope: !39, file: !268, line: 143, baseType: !346)
!346 = !DIDerivedType(tag: DW_TAG_typedef, name: "type", scope: !347, file: !268, line: 140, baseType: !69)
!347 = distinct !DICompositeType(tag: DW_TAG_structure_type, name: "__type_identity<std::allocator<unsigned long> >", scope: !39, file: !268, line: 139, size: 8, flags: DIFlagTypePassByValue, elements: !167, templateParams: !348, identifier: "_ZTSSt15__type_identityISaImEE")
!348 = !{!349}
!349 = !DITemplateTypeParameter(name: "_Type", type: !69)
!350 = !DISubprogram(name: "vector", scope: !42, file: !36, line: 632, type: !351, scopeLine: 632, flags: DIFlagPrototyped, spFlags: 0)
!351 = !DISubroutineType(types: !352)
!352 = !{null, !315, !339, !319, !267}
!353 = !DISubprogram(name: "vector", scope: !42, file: !36, line: 637, type: !354, scopeLine: 637, flags: DIFlagPrototyped, spFlags: 0)
!354 = !DISubroutineType(types: !355)
!355 = !{null, !315, !339, !319, !286}
!356 = !DISubprogram(name: "vector", scope: !42, file: !36, line: 656, type: !357, scopeLine: 656, flags: DIFlagPublic | DIFlagPrototyped, spFlags: 0)
!357 = !DISubroutineType(types: !358)
!358 = !{null, !315, !339, !343}
!359 = !DISubprogram(name: "vector", scope: !42, file: !36, line: 675, type: !360, scopeLine: 675, flags: DIFlagPublic | DIFlagPrototyped, spFlags: 0)
!360 = !DISubroutineType(types: !361)
!361 = !{null, !315, !362, !319}
!362 = !DICompositeType(tag: DW_TAG_class_type, name: "initializer_list<unsigned long>", scope: !39, file: !363, line: 45, flags: DIFlagFwdDecl | DIFlagNonTrivial, identifier: "_ZTSSt16initializer_listImE")
!363 = !DIFile(filename: "/usr/lib/gcc/x86_64-linux-gnu/13/../../../../include/c++/13/initializer_list", directory: "")
!364 = !DISubprogram(name: "~vector", scope: !42, file: !36, line: 730, type: !313, scopeLine: 730, flags: DIFlagPublic | DIFlagPrototyped, spFlags: 0)
!365 = !DISubprogram(name: "operator=", linkageName: "_ZNSt6vectorImSaImEEaSERKS1_", scope: !42, file: !36, line: 748, type: !366, scopeLine: 748, flags: DIFlagPublic | DIFlagPrototyped, spFlags: 0)
!366 = !DISubroutineType(types: !367)
!367 = !{!368, !315, !334}
!368 = !DIDerivedType(tag: DW_TAG_reference_type, baseType: !42, size: 64)
!369 = !DISubprogram(name: "operator=", linkageName: "_ZNSt6vectorImSaImEEaSEOS1_", scope: !42, file: !36, line: 763, type: !370, scopeLine: 763, flags: DIFlagPublic | DIFlagPrototyped, spFlags: 0)
!370 = !DISubroutineType(types: !371)
!371 = !{!368, !315, !339}
!372 = !DISubprogram(name: "operator=", linkageName: "_ZNSt6vectorImSaImEEaSESt16initializer_listImE", scope: !42, file: !36, line: 785, type: !373, scopeLine: 785, flags: DIFlagPublic | DIFlagPrototyped, spFlags: 0)
!373 = !DISubroutineType(types: !374)
!374 = !{!368, !315, !362}
!375 = !DISubprogram(name: "assign", linkageName: "_ZNSt6vectorImSaImEE6assignEmRKm", scope: !42, file: !36, line: 805, type: !376, scopeLine: 805, flags: DIFlagPublic | DIFlagPrototyped, spFlags: 0)
!376 = !DISubroutineType(types: !377)
!377 = !{null, !315, !35, !328}
!378 = !DISubprogram(name: "assign", linkageName: "_ZNSt6vectorImSaImEE6assignESt16initializer_listImE", scope: !42, file: !36, line: 852, type: !379, scopeLine: 852, flags: DIFlagPublic | DIFlagPrototyped, spFlags: 0)
!379 = !DISubroutineType(types: !380)
!380 = !{null, !315, !362}
!381 = !DISubprogram(name: "begin", linkageName: "_ZNSt6vectorImSaImEE5beginEv", scope: !42, file: !36, line: 870, type: !382, scopeLine: 870, flags: DIFlagPublic | DIFlagPrototyped, spFlags: 0)
!382 = !DISubroutineType(types: !383)
!383 = !{!41, !315}
!384 = !DISubprogram(name: "begin", linkageName: "_ZNKSt6vectorImSaImEE5beginEv", scope: !42, file: !36, line: 880, type: !385, scopeLine: 880, flags: DIFlagPublic | DIFlagPrototyped, spFlags: 0)
!385 = !DISubroutineType(types: !386)
!386 = !{!387, !390}
!387 = !DIDerivedType(tag: DW_TAG_typedef, name: "const_iterator", scope: !42, file: !36, line: 457, baseType: !388, flags: DIFlagPublic)
!388 = !DICompositeType(tag: DW_TAG_class_type, name: "__normal_iterator<const unsigned long *, std::vector<unsigned long, std::allocator<unsigned long> > >", scope: !56, file: !389, line: 1047, flags: DIFlagFwdDecl | DIFlagNonTrivial, identifier: "_ZTSN9__gnu_cxx17__normal_iteratorIPKmSt6vectorImSaImEEEE")
!389 = !DIFile(filename: "/usr/lib/gcc/x86_64-linux-gnu/13/../../../../include/c++/13/bits/stl_iterator.h", directory: "", checksumkind: CSK_MD5, checksum: "5062fe07d9dcd501f4b20e56129c7f5f")
!390 = !DIDerivedType(tag: DW_TAG_pointer_type, baseType: !335, size: 64, flags: DIFlagArtificial | DIFlagObjectPointer)
!391 = !DISubprogram(name: "end", linkageName: "_ZNSt6vectorImSaImEE3endEv", scope: !42, file: !36, line: 890, type: !382, scopeLine: 890, flags: DIFlagPublic | DIFlagPrototyped, spFlags: 0)
!392 = !DISubprogram(name: "end", linkageName: "_ZNKSt6vectorImSaImEE3endEv", scope: !42, file: !36, line: 900, type: !385, scopeLine: 900, flags: DIFlagPublic | DIFlagPrototyped, spFlags: 0)
!393 = !DISubprogram(name: "rbegin", linkageName: "_ZNSt6vectorImSaImEE6rbeginEv", scope: !42, file: !36, line: 910, type: !394, scopeLine: 910, flags: DIFlagPublic | DIFlagPrototyped, spFlags: 0)
!394 = !DISubroutineType(types: !395)
!395 = !{!396, !315}
!396 = !DIDerivedType(tag: DW_TAG_typedef, name: "reverse_iterator", scope: !42, file: !36, line: 459, baseType: !397, flags: DIFlagPublic)
!397 = !DICompositeType(tag: DW_TAG_class_type, name: "reverse_iterator<__gnu_cxx::__normal_iterator<unsigned long *, std::vector<unsigned long, std::allocator<unsigned long> > > >", scope: !39, file: !389, line: 136, flags: DIFlagFwdDecl | DIFlagNonTrivial, identifier: "_ZTSSt16reverse_iteratorIN9__gnu_cxx17__normal_iteratorIPmSt6vectorImSaImEEEEE")
!398 = !DISubprogram(name: "rbegin", linkageName: "_ZNKSt6vectorImSaImEE6rbeginEv", scope: !42, file: !36, line: 920, type: !399, scopeLine: 920, flags: DIFlagPublic | DIFlagPrototyped, spFlags: 0)
!399 = !DISubroutineType(types: !400)
!400 = !{!401, !390}
!401 = !DIDerivedType(tag: DW_TAG_typedef, name: "const_reverse_iterator", scope: !42, file: !36, line: 458, baseType: !402, flags: DIFlagPublic)
!402 = !DICompositeType(tag: DW_TAG_class_type, name: "reverse_iterator<__gnu_cxx::__normal_iterator<const unsigned long *, std::vector<unsigned long, std::allocator<unsigned long> > > >", scope: !39, file: !389, line: 136, flags: DIFlagFwdDecl | DIFlagNonTrivial, identifier: "_ZTSSt16reverse_iteratorIN9__gnu_cxx17__normal_iteratorIPKmSt6vectorImSaImEEEEE")
!403 = !DISubprogram(name: "rend", linkageName: "_ZNSt6vectorImSaImEE4rendEv", scope: !42, file: !36, line: 930, type: !394, scopeLine: 930, flags: DIFlagPublic | DIFlagPrototyped, spFlags: 0)
!404 = !DISubprogram(name: "rend", linkageName: "_ZNKSt6vectorImSaImEE4rendEv", scope: !42, file: !36, line: 940, type: !399, scopeLine: 940, flags: DIFlagPublic | DIFlagPrototyped, spFlags: 0)
!405 = !DISubprogram(name: "cbegin", linkageName: "_ZNKSt6vectorImSaImEE6cbeginEv", scope: !42, file: !36, line: 951, type: !385, scopeLine: 951, flags: DIFlagPublic | DIFlagPrototyped, spFlags: 0)
!406 = !DISubprogram(name: "cend", linkageName: "_ZNKSt6vectorImSaImEE4cendEv", scope: !42, file: !36, line: 961, type: !385, scopeLine: 961, flags: DIFlagPublic | DIFlagPrototyped, spFlags: 0)
!407 = !DISubprogram(name: "crbegin", linkageName: "_ZNKSt6vectorImSaImEE7crbeginEv", scope: !42, file: !36, line: 971, type: !399, scopeLine: 971, flags: DIFlagPublic | DIFlagPrototyped, spFlags: 0)
!408 = !DISubprogram(name: "crend", linkageName: "_ZNKSt6vectorImSaImEE5crendEv", scope: !42, file: !36, line: 981, type: !399, scopeLine: 981, flags: DIFlagPublic | DIFlagPrototyped, spFlags: 0)
!409 = !DISubprogram(name: "size", linkageName: "_ZNKSt6vectorImSaImEE4sizeEv", scope: !42, file: !36, line: 989, type: !410, scopeLine: 989, flags: DIFlagPublic | DIFlagPrototyped, spFlags: 0)
!410 = !DISubroutineType(types: !411)
!411 = !{!35, !390}
!412 = !DISubprogram(name: "max_size", linkageName: "_ZNKSt6vectorImSaImEE8max_sizeEv", scope: !42, file: !36, line: 995, type: !410, scopeLine: 995, flags: DIFlagPublic | DIFlagPrototyped, spFlags: 0)
!413 = !DISubprogram(name: "resize", linkageName: "_ZNSt6vectorImSaImEE6resizeEm", scope: !42, file: !36, line: 1010, type: !414, scopeLine: 1010, flags: DIFlagPublic | DIFlagPrototyped, spFlags: 0)
!414 = !DISubroutineType(types: !415)
!415 = !{null, !315, !35}
!416 = !DISubprogram(name: "resize", linkageName: "_ZNSt6vectorImSaImEE6resizeEmRKm", scope: !42, file: !36, line: 1031, type: !376, scopeLine: 1031, flags: DIFlagPublic | DIFlagPrototyped, spFlags: 0)
!417 = !DISubprogram(name: "shrink_to_fit", linkageName: "_ZNSt6vectorImSaImEE13shrink_to_fitEv", scope: !42, file: !36, line: 1065, type: !313, scopeLine: 1065, flags: DIFlagPublic | DIFlagPrototyped, spFlags: 0)
!418 = !DISubprogram(name: "capacity", linkageName: "_ZNKSt6vectorImSaImEE8capacityEv", scope: !42, file: !36, line: 1075, type: !410, scopeLine: 1075, flags: DIFlagPublic | DIFlagPrototyped, spFlags: 0)
!419 = !DISubprogram(name: "empty", linkageName: "_ZNKSt6vectorImSaImEE5emptyEv", scope: !42, file: !36, line: 1085, type: !420, scopeLine: 1085, flags: DIFlagPublic | DIFlagPrototyped, spFlags: 0)
!420 = !DISubroutineType(types: !421)
!421 = !{!160, !390}
!422 = !DISubprogram(name: "reserve", linkageName: "_ZNSt6vectorImSaImEE7reserveEm", scope: !42, file: !36, line: 1107, type: !414, scopeLine: 1107, flags: DIFlagPublic | DIFlagPrototyped, spFlags: 0)
!423 = !DISubprogram(name: "operator[]", linkageName: "_ZNSt6vectorImSaImEEixEm", scope: !42, file: !36, line: 1123, type: !424, scopeLine: 1123, flags: DIFlagPublic | DIFlagPrototyped, spFlags: 0)
!424 = !DISubroutineType(types: !425)
!425 = !{!426, !315, !35}
!426 = !DIDerivedType(tag: DW_TAG_typedef, name: "reference", scope: !42, file: !36, line: 453, baseType: !427, flags: DIFlagPublic)
!427 = !DIDerivedType(tag: DW_TAG_typedef, name: "reference", scope: !55, file: !53, line: 59, baseType: !428)
!428 = !DIDerivedType(tag: DW_TAG_reference_type, baseType: !429, size: 64)
!429 = !DIDerivedType(tag: DW_TAG_typedef, name: "value_type", scope: !55, file: !53, line: 53, baseType: !430)
!430 = !DIDerivedType(tag: DW_TAG_typedef, name: "value_type", scope: !59, file: !60, line: 434, baseType: !40)
!431 = !DISubprogram(name: "operator[]", linkageName: "_ZNKSt6vectorImSaImEEixEm", scope: !42, file: !36, line: 1142, type: !432, scopeLine: 1142, flags: DIFlagPublic | DIFlagPrototyped, spFlags: 0)
!432 = !DISubroutineType(types: !433)
!433 = !{!434, !390, !35}
!434 = !DIDerivedType(tag: DW_TAG_typedef, name: "const_reference", scope: !42, file: !36, line: 454, baseType: !435, flags: DIFlagPublic)
!435 = !DIDerivedType(tag: DW_TAG_typedef, name: "const_reference", scope: !55, file: !53, line: 60, baseType: !436)
!436 = !DIDerivedType(tag: DW_TAG_reference_type, baseType: !437, size: 64)
!437 = !DIDerivedType(tag: DW_TAG_const_type, baseType: !429)
!438 = !DISubprogram(name: "_M_range_check", linkageName: "_ZNKSt6vectorImSaImEE14_M_range_checkEm", scope: !42, file: !36, line: 1152, type: !439, scopeLine: 1152, flags: DIFlagProtected | DIFlagPrototyped, spFlags: 0)
!439 = !DISubroutineType(types: !440)
!440 = !{null, !390, !35}
!441 = !DISubprogram(name: "at", linkageName: "_ZNSt6vectorImSaImEE2atEm", scope: !42, file: !36, line: 1175, type: !424, scopeLine: 1175, flags: DIFlagPublic | DIFlagPrototyped, spFlags: 0)
!442 = !DISubprogram(name: "at", linkageName: "_ZNKSt6vectorImSaImEE2atEm", scope: !42, file: !36, line: 1194, type: !432, scopeLine: 1194, flags: DIFlagPublic | DIFlagPrototyped, spFlags: 0)
!443 = !DISubprogram(name: "front", linkageName: "_ZNSt6vectorImSaImEE5frontEv", scope: !42, file: !36, line: 1206, type: !444, scopeLine: 1206, flags: DIFlagPublic | DIFlagPrototyped, spFlags: 0)
!444 = !DISubroutineType(types: !445)
!445 = !{!426, !315}
!446 = !DISubprogram(name: "front", linkageName: "_ZNKSt6vectorImSaImEE5frontEv", scope: !42, file: !36, line: 1218, type: !447, scopeLine: 1218, flags: DIFlagPublic | DIFlagPrototyped, spFlags: 0)
!447 = !DISubroutineType(types: !448)
!448 = !{!434, !390}
!449 = !DISubprogram(name: "back", linkageName: "_ZNSt6vectorImSaImEE4backEv", scope: !42, file: !36, line: 1230, type: !444, scopeLine: 1230, flags: DIFlagPublic | DIFlagPrototyped, spFlags: 0)
!450 = !DISubprogram(name: "back", linkageName: "_ZNKSt6vectorImSaImEE4backEv", scope: !42, file: !36, line: 1242, type: !447, scopeLine: 1242, flags: DIFlagPublic | DIFlagPrototyped, spFlags: 0)
!451 = !DISubprogram(name: "data", linkageName: "_ZNSt6vectorImSaImEE4dataEv", scope: !42, file: !36, line: 1257, type: !452, scopeLine: 1257, flags: DIFlagPublic | DIFlagPrototyped, spFlags: 0)
!452 = !DISubroutineType(types: !453)
!453 = !{!66, !315}
!454 = !DISubprogram(name: "data", linkageName: "_ZNKSt6vectorImSaImEE4dataEv", scope: !42, file: !36, line: 1262, type: !455, scopeLine: 1262, flags: DIFlagPublic | DIFlagPrototyped, spFlags: 0)
!455 = !DISubroutineType(types: !456)
!456 = !{!99, !390}
!457 = !DISubprogram(name: "push_back", linkageName: "_ZNSt6vectorImSaImEE9push_backERKm", scope: !42, file: !36, line: 1278, type: !458, scopeLine: 1278, flags: DIFlagPublic | DIFlagPrototyped, spFlags: 0)
!458 = !DISubroutineType(types: !459)
!459 = !{null, !315, !328}
!460 = !DISubprogram(name: "push_back", linkageName: "_ZNSt6vectorImSaImEE9push_backEOm", scope: !42, file: !36, line: 1295, type: !461, scopeLine: 1295, flags: DIFlagPublic | DIFlagPrototyped, spFlags: 0)
!461 = !DISubroutineType(types: !462)
!462 = !{null, !315, !463}
!463 = !DIDerivedType(tag: DW_TAG_rvalue_reference_type, baseType: !330, size: 64)
!464 = !DISubprogram(name: "pop_back", linkageName: "_ZNSt6vectorImSaImEE8pop_backEv", scope: !42, file: !36, line: 1319, type: !313, scopeLine: 1319, flags: DIFlagPublic | DIFlagPrototyped, spFlags: 0)
!465 = !DISubprogram(name: "insert", linkageName: "_ZNSt6vectorImSaImEE6insertEN9__gnu_cxx17__normal_iteratorIPKmS1_EERS4_", scope: !42, file: !36, line: 1359, type: !466, scopeLine: 1359, flags: DIFlagPublic | DIFlagPrototyped, spFlags: 0)
!466 = !DISubroutineType(types: !467)
!467 = !{!41, !315, !387, !328}
!468 = !DISubprogram(name: "insert", linkageName: "_ZNSt6vectorImSaImEE6insertEN9__gnu_cxx17__normal_iteratorIPKmS1_EEOm", scope: !42, file: !36, line: 1390, type: !469, scopeLine: 1390, flags: DIFlagPublic | DIFlagPrototyped, spFlags: 0)
!469 = !DISubroutineType(types: !470)
!470 = !{!41, !315, !387, !463}
!471 = !DISubprogram(name: "insert", linkageName: "_ZNSt6vectorImSaImEE6insertEN9__gnu_cxx17__normal_iteratorIPKmS1_EESt16initializer_listImE", scope: !42, file: !36, line: 1408, type: !472, scopeLine: 1408, flags: DIFlagPublic | DIFlagPrototyped, spFlags: 0)
!472 = !DISubroutineType(types: !473)
!473 = !{!41, !315, !387, !362}
!474 = !DISubprogram(name: "insert", linkageName: "_ZNSt6vectorImSaImEE6insertEN9__gnu_cxx17__normal_iteratorIPKmS1_EEmRS4_", scope: !42, file: !36, line: 1434, type: !475, scopeLine: 1434, flags: DIFlagPublic | DIFlagPrototyped, spFlags: 0)
!475 = !DISubroutineType(types: !476)
!476 = !{!41, !315, !387, !35, !328}
!477 = !DISubprogram(name: "erase", linkageName: "_ZNSt6vectorImSaImEE5eraseEN9__gnu_cxx17__normal_iteratorIPKmS1_EE", scope: !42, file: !36, line: 1531, type: !478, scopeLine: 1531, flags: DIFlagPublic | DIFlagPrototyped, spFlags: 0)
!478 = !DISubroutineType(types: !479)
!479 = !{!41, !315, !387}
!480 = !DISubprogram(name: "erase", linkageName: "_ZNSt6vectorImSaImEE5eraseEN9__gnu_cxx17__normal_iteratorIPKmS1_EES6_", scope: !42, file: !36, line: 1559, type: !481, scopeLine: 1559, flags: DIFlagPublic | DIFlagPrototyped, spFlags: 0)
!481 = !DISubroutineType(types: !482)
!482 = !{!41, !315, !387, !387}
!483 = !DISubprogram(name: "swap", linkageName: "_ZNSt6vectorImSaImEE4swapERS1_", scope: !42, file: !36, line: 1583, type: !484, scopeLine: 1583, flags: DIFlagPublic | DIFlagPrototyped, spFlags: 0)
!484 = !DISubroutineType(types: !485)
!485 = !{null, !315, !368}
!486 = !DISubprogram(name: "clear", linkageName: "_ZNSt6vectorImSaImEE5clearEv", scope: !42, file: !36, line: 1602, type: !313, scopeLine: 1602, flags: DIFlagPublic | DIFlagPrototyped, spFlags: 0)
!487 = !DISubprogram(name: "_M_fill_initialize", linkageName: "_ZNSt6vectorImSaImEE18_M_fill_initializeEmRKm", scope: !42, file: !36, line: 1701, type: !376, scopeLine: 1701, flags: DIFlagProtected | DIFlagPrototyped, spFlags: 0)
!488 = !DISubprogram(name: "_M_default_initialize", linkageName: "_ZNSt6vectorImSaImEE21_M_default_initializeEm", scope: !42, file: !36, line: 1712, type: !414, scopeLine: 1712, flags: DIFlagProtected | DIFlagPrototyped, spFlags: 0)
!489 = !DISubprogram(name: "_M_fill_assign", linkageName: "_ZNSt6vectorImSaImEE14_M_fill_assignEmRKm", scope: !42, file: !36, line: 1759, type: !376, scopeLine: 1759, flags: DIFlagProtected | DIFlagPrototyped, spFlags: 0)
!490 = !DISubprogram(name: "_M_fill_insert", linkageName: "_ZNSt6vectorImSaImEE14_M_fill_insertEN9__gnu_cxx17__normal_iteratorIPmS1_EEmRKm", scope: !42, file: !36, line: 1803, type: !491, scopeLine: 1803, flags: DIFlagProtected | DIFlagPrototyped, spFlags: 0)
!491 = !DISubroutineType(types: !492)
!492 = !{null, !315, !41, !35, !328}
!493 = !DISubprogram(name: "_M_default_append", linkageName: "_ZNSt6vectorImSaImEE17_M_default_appendEm", scope: !42, file: !36, line: 1809, type: !414, scopeLine: 1809, flags: DIFlagProtected | DIFlagPrototyped, spFlags: 0)
!494 = !DISubprogram(name: "_M_shrink_to_fit", linkageName: "_ZNSt6vectorImSaImEE16_M_shrink_to_fitEv", scope: !42, file: !36, line: 1813, type: !495, scopeLine: 1813, flags: DIFlagProtected | DIFlagPrototyped, spFlags: 0)
!495 = !DISubroutineType(types: !496)
!496 = !{!160, !315}
!497 = !DISubprogram(name: "_M_insert_rval", linkageName: "_ZNSt6vectorImSaImEE14_M_insert_rvalEN9__gnu_cxx17__normal_iteratorIPKmS1_EEOm", scope: !42, file: !36, line: 1875, type: !469, scopeLine: 1875, flags: DIFlagProtected | DIFlagPrototyped, spFlags: 0)
!498 = !DISubprogram(name: "_M_emplace_aux", linkageName: "_ZNSt6vectorImSaImEE14_M_emplace_auxEN9__gnu_cxx17__normal_iteratorIPKmS1_EEOm", scope: !42, file: !36, line: 1886, type: !469, scopeLine: 1886, flags: DIFlagProtected | DIFlagPrototyped, spFlags: 0)
!499 = !DISubprogram(name: "_M_check_len", linkageName: "_ZNKSt6vectorImSaImEE12_M_check_lenEmPKc", scope: !42, file: !36, line: 1893, type: !500, scopeLine: 1893, flags: DIFlagProtected | DIFlagPrototyped, spFlags: 0)
!500 = !DISubroutineType(types: !501)
!501 = !{!502, !390, !35, !503}
!502 = !DIDerivedType(tag: DW_TAG_typedef, name: "size_type", scope: !42, file: !36, line: 460, baseType: !37, flags: DIFlagPublic)
!503 = !DIDerivedType(tag: DW_TAG_pointer_type, baseType: !4, size: 64)
!504 = !DISubprogram(name: "_S_check_init_len", linkageName: "_ZNSt6vectorImSaImEE17_S_check_init_lenEmRKS0_", scope: !42, file: !36, line: 1904, type: !505, scopeLine: 1904, flags: DIFlagProtected | DIFlagPrototyped | DIFlagStaticMember, spFlags: 0)
!505 = !DISubroutineType(types: !506)
!506 = !{!502, !35, !319}
!507 = !DISubprogram(name: "_S_max_size", linkageName: "_ZNSt6vectorImSaImEE11_S_max_sizeERKS0_", scope: !42, file: !36, line: 1913, type: !508, scopeLine: 1913, flags: DIFlagProtected | DIFlagPrototyped | DIFlagStaticMember, spFlags: 0)
!508 = !DISubroutineType(types: !509)
!509 = !{!502, !510}
!510 = !DIDerivedType(tag: DW_TAG_reference_type, baseType: !511, size: 64)
!511 = !DIDerivedType(tag: DW_TAG_const_type, baseType: !305)
!512 = !DISubprogram(name: "_M_erase_at_end", linkageName: "_ZNSt6vectorImSaImEE15_M_erase_at_endEPm", scope: !42, file: !36, line: 1930, type: !513, scopeLine: 1930, flags: DIFlagProtected | DIFlagPrototyped, spFlags: 0)
!513 = !DISubroutineType(types: !514)
!514 = !{null, !315, !303}
!515 = !DISubprogram(name: "_M_erase", linkageName: "_ZNSt6vectorImSaImEE8_M_eraseEN9__gnu_cxx17__normal_iteratorIPmS1_EE", scope: !42, file: !36, line: 1943, type: !516, scopeLine: 1943, flags: DIFlagProtected | DIFlagPrototyped, spFlags: 0)
!516 = !DISubroutineType(types: !517)
!517 = !{!41, !315, !41}
!518 = !DISubprogram(name: "_M_erase", linkageName: "_ZNSt6vectorImSaImEE8_M_eraseEN9__gnu_cxx17__normal_iteratorIPmS1_EES5_", scope: !42, file: !36, line: 1947, type: !519, scopeLine: 1947, flags: DIFlagProtected | DIFlagPrototyped, spFlags: 0)
!519 = !DISubroutineType(types: !520)
!520 = !{!41, !315, !41, !41}
!521 = !DISubprogram(name: "_M_move_assign", linkageName: "_ZNSt6vectorImSaImEE14_M_move_assignEOS1_St17integral_constantIbLb1EE", scope: !42, file: !36, line: 1956, type: !522, scopeLine: 1956, flags: DIFlagPrototyped, spFlags: 0)
!522 = !DISubroutineType(types: !523)
!523 = !{null, !315, !339, !267}
!524 = !DISubprogram(name: "_M_move_assign", linkageName: "_ZNSt6vectorImSaImEE14_M_move_assignEOS1_St17integral_constantIbLb0EE", scope: !42, file: !36, line: 1968, type: !525, scopeLine: 1968, flags: DIFlagPrototyped, spFlags: 0)
!525 = !DISubroutineType(types: !526)
!526 = !{null, !315, !339, !286}
!527 = !{!117, !528}
!528 = !DITemplateTypeParameter(name: "_Alloc", type: !69, defaulted: true)
!529 = distinct !DICompositeType(tag: DW_TAG_class_type, name: "__normal_iterator<unsigned long *, std::vector<unsigned long, std::allocator<unsigned long> > >", scope: !56, file: !389, line: 1047, size: 64, flags: DIFlagTypePassByValue | DIFlagNonTrivial, elements: !530, templateParams: !584, identifier: "_ZTSN9__gnu_cxx17__normal_iteratorIPmSt6vectorImSaImEEEE")
!530 = !{!531, !532, !536, !541, !552, !557, !561, !564, !565, !566, !573, !576, !579, !580, !581}
!531 = !DIDerivedType(tag: DW_TAG_member, name: "_M_current", scope: !529, file: !389, line: 1050, baseType: !66, size: 64, flags: DIFlagProtected)
!532 = !DISubprogram(name: "__normal_iterator", scope: !529, file: !389, line: 1072, type: !533, scopeLine: 1072, flags: DIFlagPublic | DIFlagPrototyped, spFlags: 0)
!533 = !DISubroutineType(types: !534)
!534 = !{null, !535}
!535 = !DIDerivedType(tag: DW_TAG_pointer_type, baseType: !529, size: 64, flags: DIFlagArtificial | DIFlagObjectPointer)
!536 = !DISubprogram(name: "__normal_iterator", scope: !529, file: !389, line: 1076, type: !537, scopeLine: 1076, flags: DIFlagPublic | DIFlagExplicit | DIFlagPrototyped, spFlags: 0)
!537 = !DISubroutineType(types: !538)
!538 = !{null, !535, !539}
!539 = !DIDerivedType(tag: DW_TAG_reference_type, baseType: !540, size: 64)
!540 = !DIDerivedType(tag: DW_TAG_const_type, baseType: !66)
!541 = !DISubprogram(name: "operator*", linkageName: "_ZNK9__gnu_cxx17__normal_iteratorIPmSt6vectorImSaImEEEdeEv", scope: !529, file: !389, line: 1099, type: !542, scopeLine: 1099, flags: DIFlagPublic | DIFlagPrototyped, spFlags: 0)
!542 = !DISubroutineType(types: !543)
!543 = !{!544, !550}
!544 = !DIDerivedType(tag: DW_TAG_typedef, name: "reference", scope: !529, file: !389, line: 1065, baseType: !545, flags: DIFlagPublic)
!545 = !DIDerivedType(tag: DW_TAG_typedef, name: "reference", scope: !547, file: !546, line: 216, baseType: !94)
!546 = !DIFile(filename: "/usr/lib/gcc/x86_64-linux-gnu/13/../../../../include/c++/13/bits/stl_iterator_base_types.h", directory: "")
!547 = distinct !DICompositeType(tag: DW_TAG_structure_type, name: "iterator_traits<unsigned long *>", scope: !39, file: !546, line: 210, size: 8, flags: DIFlagTypePassByValue, elements: !167, templateParams: !548, identifier: "_ZTSSt15iterator_traitsIPmE")
!548 = !{!549}
!549 = !DITemplateTypeParameter(name: "_Iterator", type: !66)
!550 = !DIDerivedType(tag: DW_TAG_pointer_type, baseType: !551, size: 64, flags: DIFlagArtificial | DIFlagObjectPointer)
!551 = !DIDerivedType(tag: DW_TAG_const_type, baseType: !529)
!552 = !DISubprogram(name: "operator->", linkageName: "_ZNK9__gnu_cxx17__normal_iteratorIPmSt6vectorImSaImEEEptEv", scope: !529, file: !389, line: 1104, type: !553, scopeLine: 1104, flags: DIFlagPublic | DIFlagPrototyped, spFlags: 0)
!553 = !DISubroutineType(types: !554)
!554 = !{!555, !550}
!555 = !DIDerivedType(tag: DW_TAG_typedef, name: "pointer", scope: !529, file: !389, line: 1066, baseType: !556, flags: DIFlagPublic)
!556 = !DIDerivedType(tag: DW_TAG_typedef, name: "pointer", scope: !547, file: !546, line: 215, baseType: !66)
!557 = !DISubprogram(name: "operator++", linkageName: "_ZN9__gnu_cxx17__normal_iteratorIPmSt6vectorImSaImEEEppEv", scope: !529, file: !389, line: 1109, type: !558, scopeLine: 1109, flags: DIFlagPublic | DIFlagPrototyped, spFlags: 0)
!558 = !DISubroutineType(types: !559)
!559 = !{!560, !535}
!560 = !DIDerivedType(tag: DW_TAG_reference_type, baseType: !529, size: 64)
!561 = !DISubprogram(name: "operator++", linkageName: "_ZN9__gnu_cxx17__normal_iteratorIPmSt6vectorImSaImEEEppEi", scope: !529, file: !389, line: 1117, type: !562, scopeLine: 1117, flags: DIFlagPublic | DIFlagPrototyped, spFlags: 0)
!562 = !DISubroutineType(types: !563)
!563 = !{!529, !535, !33}
!564 = !DISubprogram(name: "operator--", linkageName: "_ZN9__gnu_cxx17__normal_iteratorIPmSt6vectorImSaImEEEmmEv", scope: !529, file: !389, line: 1123, type: !558, scopeLine: 1123, flags: DIFlagPublic | DIFlagPrototyped, spFlags: 0)
!565 = !DISubprogram(name: "operator--", linkageName: "_ZN9__gnu_cxx17__normal_iteratorIPmSt6vectorImSaImEEEmmEi", scope: !529, file: !389, line: 1131, type: !562, scopeLine: 1131, flags: DIFlagPublic | DIFlagPrototyped, spFlags: 0)
!566 = !DISubprogram(name: "operator[]", linkageName: "_ZNK9__gnu_cxx17__normal_iteratorIPmSt6vectorImSaImEEEixEl", scope: !529, file: !389, line: 1137, type: !567, scopeLine: 1137, flags: DIFlagPublic | DIFlagPrototyped, spFlags: 0)
!567 = !DISubroutineType(types: !568)
!568 = !{!544, !550, !569}
!569 = !DIDerivedType(tag: DW_TAG_typedef, name: "difference_type", scope: !529, file: !389, line: 1064, baseType: !570, flags: DIFlagPublic)
!570 = !DIDerivedType(tag: DW_TAG_typedef, name: "difference_type", scope: !547, file: !546, line: 214, baseType: !571)
!571 = !DIDerivedType(tag: DW_TAG_typedef, name: "ptrdiff_t", scope: !39, file: !38, line: 309, baseType: !572)
!572 = !DIBasicType(name: "long", size: 64, encoding: DW_ATE_signed)
!573 = !DISubprogram(name: "operator+=", linkageName: "_ZN9__gnu_cxx17__normal_iteratorIPmSt6vectorImSaImEEEpLEl", scope: !529, file: !389, line: 1142, type: !574, scopeLine: 1142, flags: DIFlagPublic | DIFlagPrototyped, spFlags: 0)
!574 = !DISubroutineType(types: !575)
!575 = !{!560, !535, !569}
!576 = !DISubprogram(name: "operator+", linkageName: "_ZNK9__gnu_cxx17__normal_iteratorIPmSt6vectorImSaImEEEplEl", scope: !529, file: !389, line: 1147, type: !577, scopeLine: 1147, flags: DIFlagPublic | DIFlagPrototyped, spFlags: 0)
!577 = !DISubroutineType(types: !578)
!578 = !{!529, !550, !569}
!579 = !DISubprogram(name: "operator-=", linkageName: "_ZN9__gnu_cxx17__normal_iteratorIPmSt6vectorImSaImEEEmIEl", scope: !529, file: !389, line: 1152, type: !574, scopeLine: 1152, flags: DIFlagPublic | DIFlagPrototyped, spFlags: 0)
!580 = !DISubprogram(name: "operator-", linkageName: "_ZNK9__gnu_cxx17__normal_iteratorIPmSt6vectorImSaImEEEmiEl", scope: !529, file: !389, line: 1157, type: !577, scopeLine: 1157, flags: DIFlagPublic | DIFlagPrototyped, spFlags: 0)
!581 = !DISubprogram(name: "base", linkageName: "_ZNK9__gnu_cxx17__normal_iteratorIPmSt6vectorImSaImEEE4baseEv", scope: !529, file: !389, line: 1162, type: !582, scopeLine: 1162, flags: DIFlagPublic | DIFlagPrototyped, spFlags: 0)
!582 = !DISubroutineType(types: !583)
!583 = !{!539, !550}
!584 = !{!549, !585}
!585 = !DITemplateTypeParameter(name: "_Container", type: !42)
!586 = !{!0, !8, !13, !18, !23}
!587 = !{!588, !606, !609, !614, !622, !630, !634, !641, !645, !649, !651, !653, !657, !666, !670, !676, !682, !684, !688, !692, !696, !700, !712, !714, !718, !722, !726, !728, !734, !738, !742, !744, !746, !750, !758, !762, !766, !770, !772, !778, !780, !787, !792, !796, !800, !804, !808, !812, !814, !816, !820, !824, !828, !830, !834, !838, !840, !842, !846, !851, !856, !861, !862, !863, !864, !865, !866, !867, !868, !869, !870, !871, !875, !879, !884, !888, !892, !897, !903, !905, !907, !909, !911, !913, !915, !917, !919, !921, !923, !925, !927, !929, !933, !937, !941, !947, !951, !955, !960, !962, !966, !970, !974, !982, !984, !988, !992, !996, !1000, !1004, !1008, !1012, !1016, !1020, !1024, !1028, !1030, !1034, !1038, !1042, !1048, !1052, !1056, !1058, !1062, !1066, !1072, !1074, !1078, !1082, !1086, !1090, !1094, !1098, !1102, !1103, !1104, !1105, !1107, !1108, !1109, !1110, !1111, !1112, !1113, !1117, !1123, !1128, !1132, !1134, !1136, !1138, !1140, !1147, !1151, !1155, !1159, !1163, !1167, !1172, !1176, !1178, !1182, !1188, !1192, !1197, !1199, !1201, !1205, !1209, !1211, !1213, !1215, !1217, !1221, !1223, !1225, !1229, !1233, !1237, !1241, !1245, !1249, !1251, !1255, !1259, !1263, !1267, !1269, !1271, !1275, !1279, !1280, !1281, !1282, !1283, !1284, !1292, !1300, !1303, !1304, !1306, !1308, !1310, !1312, !1316, !1318, !1320, !1322, !1324, !1326, !1328, !1330, !1332, !1336, !1340, !1342, !1346, !1350}
!588 = !DIImportedEntity(tag: DW_TAG_imported_declaration, scope: !39, entity: !589, file: !605, line: 64)
!589 = !DIDerivedType(tag: DW_TAG_typedef, name: "mbstate_t", file: !590, line: 6, baseType: !591)
!590 = !DIFile(filename: "/usr/include/x86_64-linux-gnu/bits/types/mbstate_t.h", directory: "", checksumkind: CSK_MD5, checksum: "ba8742313715e20e434cf6ccb2db98e3")
!591 = !DIDerivedType(tag: DW_TAG_typedef, name: "__mbstate_t", file: !592, line: 21, baseType: !593)
!592 = !DIFile(filename: "/usr/include/x86_64-linux-gnu/bits/types/__mbstate_t.h", directory: "", checksumkind: CSK_MD5, checksum: "82911a3e689448e3691ded3e0b471a55")
!593 = distinct !DICompositeType(tag: DW_TAG_structure_type, file: !592, line: 13, size: 64, flags: DIFlagTypePassByValue, elements: !594, identifier: "_ZTS11__mbstate_t")
!594 = !{!595, !596}
!595 = !DIDerivedType(tag: DW_TAG_member, name: "__count", scope: !593, file: !592, line: 15, baseType: !33, size: 32)
!596 = !DIDerivedType(tag: DW_TAG_member, name: "__value", scope: !593, file: !592, line: 20, baseType: !597, size: 32, offset: 32)
!597 = distinct !DICompositeType(tag: DW_TAG_union_type, scope: !593, file: !592, line: 16, size: 32, flags: DIFlagTypePassByValue, elements: !598, identifier: "_ZTSN11__mbstate_tUt_E")
!598 = !{!599, !601}
!599 = !DIDerivedType(tag: DW_TAG_member, name: "__wch", scope: !597, file: !592, line: 18, baseType: !600, size: 32)
!600 = !DIBasicType(name: "unsigned int", size: 32, encoding: DW_ATE_unsigned)
!601 = !DIDerivedType(tag: DW_TAG_member, name: "__wchb", scope: !597, file: !592, line: 19, baseType: !602, size: 32)
!602 = !DICompositeType(tag: DW_TAG_array_type, baseType: !5, size: 32, elements: !603)
!603 = !{!604}
!604 = !DISubrange(count: 4)
!605 = !DIFile(filename: "/usr/lib/gcc/x86_64-linux-gnu/13/../../../../include/c++/13/cwchar", directory: "")
!606 = !DIImportedEntity(tag: DW_TAG_imported_declaration, scope: !39, entity: !607, file: !605, line: 141)
!607 = !DIDerivedType(tag: DW_TAG_typedef, name: "wint_t", file: !608, line: 20, baseType: !600)
!608 = !DIFile(filename: "/usr/include/x86_64-linux-gnu/bits/types/wint_t.h", directory: "", checksumkind: CSK_MD5, checksum: "aa31b53ef28dc23152ceb41e2763ded3")
!609 = !DIImportedEntity(tag: DW_TAG_imported_declaration, scope: !39, entity: !610, file: !605, line: 143)
!610 = !DISubprogram(name: "btowc", scope: !611, file: !611, line: 284, type: !612, flags: DIFlagPrototyped, spFlags: 0)
!611 = !DIFile(filename: "/usr/include/wchar.h", directory: "", checksumkind: CSK_MD5, checksum: "8900d9ecbbe40d052c41becfbc5b5531")
!612 = !DISubroutineType(types: !613)
!613 = !{!607, !33}
!614 = !DIImportedEntity(tag: DW_TAG_imported_declaration, scope: !39, entity: !615, file: !605, line: 144)
!615 = !DISubprogram(name: "fgetwc", scope: !611, file: !611, line: 726, type: !616, flags: DIFlagPrototyped, spFlags: 0)
!616 = !DISubroutineType(types: !617)
!617 = !{!607, !618}
!618 = !DIDerivedType(tag: DW_TAG_pointer_type, baseType: !619, size: 64)
!619 = !DIDerivedType(tag: DW_TAG_typedef, name: "__FILE", file: !620, line: 5, baseType: !621)
!620 = !DIFile(filename: "/usr/include/x86_64-linux-gnu/bits/types/__FILE.h", directory: "", checksumkind: CSK_MD5, checksum: "72a8fe90981f484acae7c6f3dfc5c2b7")
!621 = !DICompositeType(tag: DW_TAG_structure_type, name: "_IO_FILE", file: !620, line: 4, flags: DIFlagFwdDecl | DIFlagNonTrivial, identifier: "_ZTS8_IO_FILE")
!622 = !DIImportedEntity(tag: DW_TAG_imported_declaration, scope: !39, entity: !623, file: !605, line: 145)
!623 = !DISubprogram(name: "fgetws", scope: !611, file: !611, line: 755, type: !624, flags: DIFlagPrototyped, spFlags: 0)
!624 = !DISubroutineType(types: !625)
!625 = !{!626, !628, !33, !629}
!626 = !DIDerivedType(tag: DW_TAG_pointer_type, baseType: !627, size: 64)
!627 = !DIBasicType(name: "wchar_t", size: 32, encoding: DW_ATE_signed)
!628 = !DIDerivedType(tag: DW_TAG_restrict_type, baseType: !626)
!629 = !DIDerivedType(tag: DW_TAG_restrict_type, baseType: !618)
!630 = !DIImportedEntity(tag: DW_TAG_imported_declaration, scope: !39, entity: !631, file: !605, line: 146)
!631 = !DISubprogram(name: "fputwc", scope: !611, file: !611, line: 740, type: !632, flags: DIFlagPrototyped, spFlags: 0)
!632 = !DISubroutineType(types: !633)
!633 = !{!607, !627, !618}
!634 = !DIImportedEntity(tag: DW_TAG_imported_declaration, scope: !39, entity: !635, file: !605, line: 147)
!635 = !DISubprogram(name: "fputws", scope: !611, file: !611, line: 762, type: !636, flags: DIFlagPrototyped, spFlags: 0)
!636 = !DISubroutineType(types: !637)
!637 = !{!33, !638, !629}
!638 = !DIDerivedType(tag: DW_TAG_restrict_type, baseType: !639)
!639 = !DIDerivedType(tag: DW_TAG_pointer_type, baseType: !640, size: 64)
!640 = !DIDerivedType(tag: DW_TAG_const_type, baseType: !627)
!641 = !DIImportedEntity(tag: DW_TAG_imported_declaration, scope: !39, entity: !642, file: !605, line: 148)
!642 = !DISubprogram(name: "fwide", scope: !611, file: !611, line: 573, type: !643, flags: DIFlagPrototyped, spFlags: 0)
!643 = !DISubroutineType(types: !644)
!644 = !{!33, !618, !33}
!645 = !DIImportedEntity(tag: DW_TAG_imported_declaration, scope: !39, entity: !646, file: !605, line: 149)
!646 = !DISubprogram(name: "fwprintf", scope: !611, file: !611, line: 580, type: !647, flags: DIFlagPrototyped, spFlags: 0)
!647 = !DISubroutineType(types: !648)
!648 = !{!33, !629, !638, null}
!649 = !DIImportedEntity(tag: DW_TAG_imported_declaration, scope: !39, entity: !650, file: !605, line: 150)
!650 = !DISubprogram(name: "fwscanf", linkageName: "__isoc99_fwscanf", scope: !611, file: !611, line: 640, type: !647, flags: DIFlagPrototyped, spFlags: 0)
!651 = !DIImportedEntity(tag: DW_TAG_imported_declaration, scope: !39, entity: !652, file: !605, line: 151)
!652 = !DISubprogram(name: "getwc", scope: !611, file: !611, line: 727, type: !616, flags: DIFlagPrototyped, spFlags: 0)
!653 = !DIImportedEntity(tag: DW_TAG_imported_declaration, scope: !39, entity: !654, file: !605, line: 152)
!654 = !DISubprogram(name: "getwchar", scope: !611, file: !611, line: 733, type: !655, flags: DIFlagPrototyped, spFlags: 0)
!655 = !DISubroutineType(types: !656)
!656 = !{!607}
!657 = !DIImportedEntity(tag: DW_TAG_imported_declaration, scope: !39, entity: !658, file: !605, line: 153)
!658 = !DISubprogram(name: "mbrlen", scope: !611, file: !611, line: 307, type: !659, flags: DIFlagPrototyped, spFlags: 0)
!659 = !DISubroutineType(types: !660)
!660 = !{!661, !663, !661, !664}
!661 = !DIDerivedType(tag: DW_TAG_typedef, name: "size_t", file: !662, line: 46, baseType: !40)
!662 = !DIFile(filename: "SVF/llvm-16.0.0.obj/lib/clang/16/include/stddef.h", directory: "/home/cs22mtech12008", checksumkind: CSK_MD5, checksum: "f95079da609b0e8f201cb8136304bf3b")
!663 = !DIDerivedType(tag: DW_TAG_restrict_type, baseType: !503)
!664 = !DIDerivedType(tag: DW_TAG_restrict_type, baseType: !665)
!665 = !DIDerivedType(tag: DW_TAG_pointer_type, baseType: !589, size: 64)
!666 = !DIImportedEntity(tag: DW_TAG_imported_declaration, scope: !39, entity: !667, file: !605, line: 154)
!667 = !DISubprogram(name: "mbrtowc", scope: !611, file: !611, line: 296, type: !668, flags: DIFlagPrototyped, spFlags: 0)
!668 = !DISubroutineType(types: !669)
!669 = !{!661, !628, !663, !661, !664}
!670 = !DIImportedEntity(tag: DW_TAG_imported_declaration, scope: !39, entity: !671, file: !605, line: 155)
!671 = !DISubprogram(name: "mbsinit", scope: !611, file: !611, line: 292, type: !672, flags: DIFlagPrototyped, spFlags: 0)
!672 = !DISubroutineType(types: !673)
!673 = !{!33, !674}
!674 = !DIDerivedType(tag: DW_TAG_pointer_type, baseType: !675, size: 64)
!675 = !DIDerivedType(tag: DW_TAG_const_type, baseType: !589)
!676 = !DIImportedEntity(tag: DW_TAG_imported_declaration, scope: !39, entity: !677, file: !605, line: 156)
!677 = !DISubprogram(name: "mbsrtowcs", scope: !611, file: !611, line: 337, type: !678, flags: DIFlagPrototyped, spFlags: 0)
!678 = !DISubroutineType(types: !679)
!679 = !{!661, !628, !680, !661, !664}
!680 = !DIDerivedType(tag: DW_TAG_restrict_type, baseType: !681)
!681 = !DIDerivedType(tag: DW_TAG_pointer_type, baseType: !503, size: 64)
!682 = !DIImportedEntity(tag: DW_TAG_imported_declaration, scope: !39, entity: !683, file: !605, line: 157)
!683 = !DISubprogram(name: "putwc", scope: !611, file: !611, line: 741, type: !632, flags: DIFlagPrototyped, spFlags: 0)
!684 = !DIImportedEntity(tag: DW_TAG_imported_declaration, scope: !39, entity: !685, file: !605, line: 158)
!685 = !DISubprogram(name: "putwchar", scope: !611, file: !611, line: 747, type: !686, flags: DIFlagPrototyped, spFlags: 0)
!686 = !DISubroutineType(types: !687)
!687 = !{!607, !627}
!688 = !DIImportedEntity(tag: DW_TAG_imported_declaration, scope: !39, entity: !689, file: !605, line: 160)
!689 = !DISubprogram(name: "swprintf", scope: !611, file: !611, line: 590, type: !690, flags: DIFlagPrototyped, spFlags: 0)
!690 = !DISubroutineType(types: !691)
!691 = !{!33, !628, !661, !638, null}
!692 = !DIImportedEntity(tag: DW_TAG_imported_declaration, scope: !39, entity: !693, file: !605, line: 162)
!693 = !DISubprogram(name: "swscanf", linkageName: "__isoc99_swscanf", scope: !611, file: !611, line: 647, type: !694, flags: DIFlagPrototyped, spFlags: 0)
!694 = !DISubroutineType(types: !695)
!695 = !{!33, !638, !638, null}
!696 = !DIImportedEntity(tag: DW_TAG_imported_declaration, scope: !39, entity: !697, file: !605, line: 163)
!697 = !DISubprogram(name: "ungetwc", scope: !611, file: !611, line: 770, type: !698, flags: DIFlagPrototyped, spFlags: 0)
!698 = !DISubroutineType(types: !699)
!699 = !{!607, !607, !618}
!700 = !DIImportedEntity(tag: DW_TAG_imported_declaration, scope: !39, entity: !701, file: !605, line: 164)
!701 = !DISubprogram(name: "vfwprintf", scope: !611, file: !611, line: 598, type: !702, flags: DIFlagPrototyped, spFlags: 0)
!702 = !DISubroutineType(types: !703)
!703 = !{!33, !629, !638, !704}
!704 = !DIDerivedType(tag: DW_TAG_pointer_type, baseType: !705, size: 64)
!705 = distinct !DICompositeType(tag: DW_TAG_structure_type, name: "__va_list_tag", size: 192, flags: DIFlagTypePassByValue, elements: !706, identifier: "_ZTS13__va_list_tag")
!706 = !{!707, !709, !710, !711}
!707 = !DIDerivedType(tag: DW_TAG_member, name: "gp_offset", scope: !705, file: !708, baseType: !600, size: 32)
!708 = !DIFile(filename: "Reproduced_UAF/Synthetic_bugs/PTHREAD_VERSION/Thread_creation_Patterns/Thread_in_loop/Thread_in_do_while_UAS_bug.cpp", directory: "/home/cs22mtech12008")
!709 = !DIDerivedType(tag: DW_TAG_member, name: "fp_offset", scope: !705, file: !708, baseType: !600, size: 32, offset: 32)
!710 = !DIDerivedType(tag: DW_TAG_member, name: "overflow_arg_area", scope: !705, file: !708, baseType: !34, size: 64, offset: 64)
!711 = !DIDerivedType(tag: DW_TAG_member, name: "reg_save_area", scope: !705, file: !708, baseType: !34, size: 64, offset: 128)
!712 = !DIImportedEntity(tag: DW_TAG_imported_declaration, scope: !39, entity: !713, file: !605, line: 166)
!713 = !DISubprogram(name: "vfwscanf", linkageName: "__isoc99_vfwscanf", scope: !611, file: !611, line: 693, type: !702, flags: DIFlagPrototyped, spFlags: 0)
!714 = !DIImportedEntity(tag: DW_TAG_imported_declaration, scope: !39, entity: !715, file: !605, line: 169)
!715 = !DISubprogram(name: "vswprintf", scope: !611, file: !611, line: 611, type: !716, flags: DIFlagPrototyped, spFlags: 0)
!716 = !DISubroutineType(types: !717)
!717 = !{!33, !628, !661, !638, !704}
!718 = !DIImportedEntity(tag: DW_TAG_imported_declaration, scope: !39, entity: !719, file: !605, line: 172)
!719 = !DISubprogram(name: "vswscanf", linkageName: "__isoc99_vswscanf", scope: !611, file: !611, line: 700, type: !720, flags: DIFlagPrototyped, spFlags: 0)
!720 = !DISubroutineType(types: !721)
!721 = !{!33, !638, !638, !704}
!722 = !DIImportedEntity(tag: DW_TAG_imported_declaration, scope: !39, entity: !723, file: !605, line: 174)
!723 = !DISubprogram(name: "vwprintf", scope: !611, file: !611, line: 606, type: !724, flags: DIFlagPrototyped, spFlags: 0)
!724 = !DISubroutineType(types: !725)
!725 = !{!33, !638, !704}
!726 = !DIImportedEntity(tag: DW_TAG_imported_declaration, scope: !39, entity: !727, file: !605, line: 176)
!727 = !DISubprogram(name: "vwscanf", linkageName: "__isoc99_vwscanf", scope: !611, file: !611, line: 697, type: !724, flags: DIFlagPrototyped, spFlags: 0)
!728 = !DIImportedEntity(tag: DW_TAG_imported_declaration, scope: !39, entity: !729, file: !605, line: 178)
!729 = !DISubprogram(name: "wcrtomb", scope: !611, file: !611, line: 301, type: !730, flags: DIFlagPrototyped, spFlags: 0)
!730 = !DISubroutineType(types: !731)
!731 = !{!661, !732, !627, !664}
!732 = !DIDerivedType(tag: DW_TAG_restrict_type, baseType: !733)
!733 = !DIDerivedType(tag: DW_TAG_pointer_type, baseType: !5, size: 64)
!734 = !DIImportedEntity(tag: DW_TAG_imported_declaration, scope: !39, entity: !735, file: !605, line: 179)
!735 = !DISubprogram(name: "wcscat", scope: !611, file: !611, line: 97, type: !736, flags: DIFlagPrototyped, spFlags: 0)
!736 = !DISubroutineType(types: !737)
!737 = !{!626, !628, !638}
!738 = !DIImportedEntity(tag: DW_TAG_imported_declaration, scope: !39, entity: !739, file: !605, line: 180)
!739 = !DISubprogram(name: "wcscmp", scope: !611, file: !611, line: 106, type: !740, flags: DIFlagPrototyped, spFlags: 0)
!740 = !DISubroutineType(types: !741)
!741 = !{!33, !639, !639}
!742 = !DIImportedEntity(tag: DW_TAG_imported_declaration, scope: !39, entity: !743, file: !605, line: 181)
!743 = !DISubprogram(name: "wcscoll", scope: !611, file: !611, line: 131, type: !740, flags: DIFlagPrototyped, spFlags: 0)
!744 = !DIImportedEntity(tag: DW_TAG_imported_declaration, scope: !39, entity: !745, file: !605, line: 182)
!745 = !DISubprogram(name: "wcscpy", scope: !611, file: !611, line: 87, type: !736, flags: DIFlagPrototyped, spFlags: 0)
!746 = !DIImportedEntity(tag: DW_TAG_imported_declaration, scope: !39, entity: !747, file: !605, line: 183)
!747 = !DISubprogram(name: "wcscspn", scope: !611, file: !611, line: 187, type: !748, flags: DIFlagPrototyped, spFlags: 0)
!748 = !DISubroutineType(types: !749)
!749 = !{!661, !639, !639}
!750 = !DIImportedEntity(tag: DW_TAG_imported_declaration, scope: !39, entity: !751, file: !605, line: 184)
!751 = !DISubprogram(name: "wcsftime", scope: !611, file: !611, line: 834, type: !752, flags: DIFlagPrototyped, spFlags: 0)
!752 = !DISubroutineType(types: !753)
!753 = !{!661, !628, !661, !638, !754}
!754 = !DIDerivedType(tag: DW_TAG_restrict_type, baseType: !755)
!755 = !DIDerivedType(tag: DW_TAG_pointer_type, baseType: !756, size: 64)
!756 = !DIDerivedType(tag: DW_TAG_const_type, baseType: !757)
!757 = !DICompositeType(tag: DW_TAG_structure_type, name: "tm", file: !611, line: 83, flags: DIFlagFwdDecl | DIFlagNonTrivial, identifier: "_ZTS2tm")
!758 = !DIImportedEntity(tag: DW_TAG_imported_declaration, scope: !39, entity: !759, file: !605, line: 185)
!759 = !DISubprogram(name: "wcslen", scope: !611, file: !611, line: 222, type: !760, flags: DIFlagPrototyped, spFlags: 0)
!760 = !DISubroutineType(types: !761)
!761 = !{!661, !639}
!762 = !DIImportedEntity(tag: DW_TAG_imported_declaration, scope: !39, entity: !763, file: !605, line: 186)
!763 = !DISubprogram(name: "wcsncat", scope: !611, file: !611, line: 101, type: !764, flags: DIFlagPrototyped, spFlags: 0)
!764 = !DISubroutineType(types: !765)
!765 = !{!626, !628, !638, !661}
!766 = !DIImportedEntity(tag: DW_TAG_imported_declaration, scope: !39, entity: !767, file: !605, line: 187)
!767 = !DISubprogram(name: "wcsncmp", scope: !611, file: !611, line: 109, type: !768, flags: DIFlagPrototyped, spFlags: 0)
!768 = !DISubroutineType(types: !769)
!769 = !{!33, !639, !639, !661}
!770 = !DIImportedEntity(tag: DW_TAG_imported_declaration, scope: !39, entity: !771, file: !605, line: 188)
!771 = !DISubprogram(name: "wcsncpy", scope: !611, file: !611, line: 92, type: !764, flags: DIFlagPrototyped, spFlags: 0)
!772 = !DIImportedEntity(tag: DW_TAG_imported_declaration, scope: !39, entity: !773, file: !605, line: 189)
!773 = !DISubprogram(name: "wcsrtombs", scope: !611, file: !611, line: 343, type: !774, flags: DIFlagPrototyped, spFlags: 0)
!774 = !DISubroutineType(types: !775)
!775 = !{!661, !732, !776, !661, !664}
!776 = !DIDerivedType(tag: DW_TAG_restrict_type, baseType: !777)
!777 = !DIDerivedType(tag: DW_TAG_pointer_type, baseType: !639, size: 64)
!778 = !DIImportedEntity(tag: DW_TAG_imported_declaration, scope: !39, entity: !779, file: !605, line: 190)
!779 = !DISubprogram(name: "wcsspn", scope: !611, file: !611, line: 191, type: !748, flags: DIFlagPrototyped, spFlags: 0)
!780 = !DIImportedEntity(tag: DW_TAG_imported_declaration, scope: !39, entity: !781, file: !605, line: 191)
!781 = !DISubprogram(name: "wcstod", scope: !611, file: !611, line: 377, type: !782, flags: DIFlagPrototyped, spFlags: 0)
!782 = !DISubroutineType(types: !783)
!783 = !{!784, !638, !785}
!784 = !DIBasicType(name: "double", size: 64, encoding: DW_ATE_float)
!785 = !DIDerivedType(tag: DW_TAG_restrict_type, baseType: !786)
!786 = !DIDerivedType(tag: DW_TAG_pointer_type, baseType: !626, size: 64)
!787 = !DIImportedEntity(tag: DW_TAG_imported_declaration, scope: !39, entity: !788, file: !605, line: 193)
!788 = !DISubprogram(name: "wcstof", scope: !611, file: !611, line: 382, type: !789, flags: DIFlagPrototyped, spFlags: 0)
!789 = !DISubroutineType(types: !790)
!790 = !{!791, !638, !785}
!791 = !DIBasicType(name: "float", size: 32, encoding: DW_ATE_float)
!792 = !DIImportedEntity(tag: DW_TAG_imported_declaration, scope: !39, entity: !793, file: !605, line: 195)
!793 = !DISubprogram(name: "wcstok", scope: !611, file: !611, line: 217, type: !794, flags: DIFlagPrototyped, spFlags: 0)
!794 = !DISubroutineType(types: !795)
!795 = !{!626, !628, !638, !785}
!796 = !DIImportedEntity(tag: DW_TAG_imported_declaration, scope: !39, entity: !797, file: !605, line: 196)
!797 = !DISubprogram(name: "wcstol", scope: !611, file: !611, line: 428, type: !798, flags: DIFlagPrototyped, spFlags: 0)
!798 = !DISubroutineType(types: !799)
!799 = !{!572, !638, !785, !33}
!800 = !DIImportedEntity(tag: DW_TAG_imported_declaration, scope: !39, entity: !801, file: !605, line: 197)
!801 = !DISubprogram(name: "wcstoul", scope: !611, file: !611, line: 433, type: !802, flags: DIFlagPrototyped, spFlags: 0)
!802 = !DISubroutineType(types: !803)
!803 = !{!40, !638, !785, !33}
!804 = !DIImportedEntity(tag: DW_TAG_imported_declaration, scope: !39, entity: !805, file: !605, line: 198)
!805 = !DISubprogram(name: "wcsxfrm", scope: !611, file: !611, line: 135, type: !806, flags: DIFlagPrototyped, spFlags: 0)
!806 = !DISubroutineType(types: !807)
!807 = !{!661, !628, !638, !661}
!808 = !DIImportedEntity(tag: DW_TAG_imported_declaration, scope: !39, entity: !809, file: !605, line: 199)
!809 = !DISubprogram(name: "wctob", scope: !611, file: !611, line: 288, type: !810, flags: DIFlagPrototyped, spFlags: 0)
!810 = !DISubroutineType(types: !811)
!811 = !{!33, !607}
!812 = !DIImportedEntity(tag: DW_TAG_imported_declaration, scope: !39, entity: !813, file: !605, line: 200)
!813 = !DISubprogram(name: "wmemcmp", scope: !611, file: !611, line: 258, type: !768, flags: DIFlagPrototyped, spFlags: 0)
!814 = !DIImportedEntity(tag: DW_TAG_imported_declaration, scope: !39, entity: !815, file: !605, line: 201)
!815 = !DISubprogram(name: "wmemcpy", scope: !611, file: !611, line: 262, type: !764, flags: DIFlagPrototyped, spFlags: 0)
!816 = !DIImportedEntity(tag: DW_TAG_imported_declaration, scope: !39, entity: !817, file: !605, line: 202)
!817 = !DISubprogram(name: "wmemmove", scope: !611, file: !611, line: 267, type: !818, flags: DIFlagPrototyped, spFlags: 0)
!818 = !DISubroutineType(types: !819)
!819 = !{!626, !626, !639, !661}
!820 = !DIImportedEntity(tag: DW_TAG_imported_declaration, scope: !39, entity: !821, file: !605, line: 203)
!821 = !DISubprogram(name: "wmemset", scope: !611, file: !611, line: 271, type: !822, flags: DIFlagPrototyped, spFlags: 0)
!822 = !DISubroutineType(types: !823)
!823 = !{!626, !626, !627, !661}
!824 = !DIImportedEntity(tag: DW_TAG_imported_declaration, scope: !39, entity: !825, file: !605, line: 204)
!825 = !DISubprogram(name: "wprintf", scope: !611, file: !611, line: 587, type: !826, flags: DIFlagPrototyped, spFlags: 0)
!826 = !DISubroutineType(types: !827)
!827 = !{!33, !638, null}
!828 = !DIImportedEntity(tag: DW_TAG_imported_declaration, scope: !39, entity: !829, file: !605, line: 205)
!829 = !DISubprogram(name: "wscanf", linkageName: "__isoc99_wscanf", scope: !611, file: !611, line: 644, type: !826, flags: DIFlagPrototyped, spFlags: 0)
!830 = !DIImportedEntity(tag: DW_TAG_imported_declaration, scope: !39, entity: !831, file: !605, line: 206)
!831 = !DISubprogram(name: "wcschr", scope: !611, file: !611, line: 164, type: !832, flags: DIFlagPrototyped, spFlags: 0)
!832 = !DISubroutineType(types: !833)
!833 = !{!626, !639, !627}
!834 = !DIImportedEntity(tag: DW_TAG_imported_declaration, scope: !39, entity: !835, file: !605, line: 207)
!835 = !DISubprogram(name: "wcspbrk", scope: !611, file: !611, line: 201, type: !836, flags: DIFlagPrototyped, spFlags: 0)
!836 = !DISubroutineType(types: !837)
!837 = !{!626, !639, !639}
!838 = !DIImportedEntity(tag: DW_TAG_imported_declaration, scope: !39, entity: !839, file: !605, line: 208)
!839 = !DISubprogram(name: "wcsrchr", scope: !611, file: !611, line: 174, type: !832, flags: DIFlagPrototyped, spFlags: 0)
!840 = !DIImportedEntity(tag: DW_TAG_imported_declaration, scope: !39, entity: !841, file: !605, line: 209)
!841 = !DISubprogram(name: "wcsstr", scope: !611, file: !611, line: 212, type: !836, flags: DIFlagPrototyped, spFlags: 0)
!842 = !DIImportedEntity(tag: DW_TAG_imported_declaration, scope: !39, entity: !843, file: !605, line: 210)
!843 = !DISubprogram(name: "wmemchr", scope: !611, file: !611, line: 253, type: !844, flags: DIFlagPrototyped, spFlags: 0)
!844 = !DISubroutineType(types: !845)
!845 = !{!626, !639, !627, !661}
!846 = !DIImportedEntity(tag: DW_TAG_imported_declaration, scope: !56, entity: !847, file: !605, line: 251)
!847 = !DISubprogram(name: "wcstold", scope: !611, file: !611, line: 384, type: !848, flags: DIFlagPrototyped, spFlags: 0)
!848 = !DISubroutineType(types: !849)
!849 = !{!850, !638, !785}
!850 = !DIBasicType(name: "long double", size: 128, encoding: DW_ATE_float)
!851 = !DIImportedEntity(tag: DW_TAG_imported_declaration, scope: !56, entity: !852, file: !605, line: 260)
!852 = !DISubprogram(name: "wcstoll", scope: !611, file: !611, line: 441, type: !853, flags: DIFlagPrototyped, spFlags: 0)
!853 = !DISubroutineType(types: !854)
!854 = !{!855, !638, !785, !33}
!855 = !DIBasicType(name: "long long", size: 64, encoding: DW_ATE_signed)
!856 = !DIImportedEntity(tag: DW_TAG_imported_declaration, scope: !56, entity: !857, file: !605, line: 261)
!857 = !DISubprogram(name: "wcstoull", scope: !611, file: !611, line: 448, type: !858, flags: DIFlagPrototyped, spFlags: 0)
!858 = !DISubroutineType(types: !859)
!859 = !{!860, !638, !785, !33}
!860 = !DIBasicType(name: "unsigned long long", size: 64, encoding: DW_ATE_unsigned)
!861 = !DIImportedEntity(tag: DW_TAG_imported_declaration, scope: !39, entity: !847, file: !605, line: 267)
!862 = !DIImportedEntity(tag: DW_TAG_imported_declaration, scope: !39, entity: !852, file: !605, line: 268)
!863 = !DIImportedEntity(tag: DW_TAG_imported_declaration, scope: !39, entity: !857, file: !605, line: 269)
!864 = !DIImportedEntity(tag: DW_TAG_imported_declaration, scope: !39, entity: !788, file: !605, line: 283)
!865 = !DIImportedEntity(tag: DW_TAG_imported_declaration, scope: !39, entity: !713, file: !605, line: 286)
!866 = !DIImportedEntity(tag: DW_TAG_imported_declaration, scope: !39, entity: !719, file: !605, line: 289)
!867 = !DIImportedEntity(tag: DW_TAG_imported_declaration, scope: !39, entity: !727, file: !605, line: 292)
!868 = !DIImportedEntity(tag: DW_TAG_imported_declaration, scope: !39, entity: !847, file: !605, line: 296)
!869 = !DIImportedEntity(tag: DW_TAG_imported_declaration, scope: !39, entity: !852, file: !605, line: 297)
!870 = !DIImportedEntity(tag: DW_TAG_imported_declaration, scope: !39, entity: !857, file: !605, line: 298)
!871 = !DIImportedEntity(tag: DW_TAG_imported_declaration, scope: !39, entity: !872, file: !873, line: 66)
!872 = !DICompositeType(tag: DW_TAG_class_type, name: "exception_ptr", scope: !874, file: !873, line: 97, size: 64, flags: DIFlagFwdDecl | DIFlagNonTrivial, identifier: "_ZTSNSt15__exception_ptr13exception_ptrE")
!873 = !DIFile(filename: "/usr/lib/gcc/x86_64-linux-gnu/13/../../../../include/c++/13/bits/exception_ptr.h", directory: "", checksumkind: CSK_MD5, checksum: "314ad14748ccb9ff85c65d17ebb0828b")
!874 = !DINamespace(name: "__exception_ptr", scope: !39)
!875 = !DIImportedEntity(tag: DW_TAG_imported_declaration, scope: !874, entity: !876, file: !873, line: 85)
!876 = !DISubprogram(name: "rethrow_exception", linkageName: "_ZSt17rethrow_exceptionNSt15__exception_ptr13exception_ptrE", scope: !39, file: !873, line: 81, type: !877, flags: DIFlagPrototyped | DIFlagNoReturn, spFlags: 0)
!877 = !DISubroutineType(types: !878)
!878 = !{null, !872}
!879 = !DIImportedEntity(tag: DW_TAG_imported_declaration, scope: !39, entity: !880, file: !873, line: 243)
!880 = !DISubprogram(name: "swap", linkageName: "_ZNSt15__exception_ptr4swapERNS_13exception_ptrES1_", scope: !874, file: !873, line: 230, type: !881, flags: DIFlagPrototyped, spFlags: 0)
!881 = !DISubroutineType(types: !882)
!882 = !{null, !883, !883}
!883 = !DIDerivedType(tag: DW_TAG_reference_type, baseType: !872, size: 64)
!884 = !DIImportedEntity(tag: DW_TAG_imported_declaration, scope: !39, entity: !885, file: !887, line: 53)
!885 = !DICompositeType(tag: DW_TAG_structure_type, name: "lconv", file: !886, line: 51, size: 768, flags: DIFlagFwdDecl, identifier: "_ZTS5lconv")
!886 = !DIFile(filename: "/usr/include/locale.h", directory: "", checksumkind: CSK_MD5, checksum: "0cf373fc44eed8073800bdb9da87b72f")
!887 = !DIFile(filename: "/usr/lib/gcc/x86_64-linux-gnu/13/../../../../include/c++/13/clocale", directory: "")
!888 = !DIImportedEntity(tag: DW_TAG_imported_declaration, scope: !39, entity: !889, file: !887, line: 54)
!889 = !DISubprogram(name: "setlocale", scope: !886, file: !886, line: 122, type: !890, flags: DIFlagPrototyped, spFlags: 0)
!890 = !DISubroutineType(types: !891)
!891 = !{!733, !33, !503}
!892 = !DIImportedEntity(tag: DW_TAG_imported_declaration, scope: !39, entity: !893, file: !887, line: 55)
!893 = !DISubprogram(name: "localeconv", scope: !886, file: !886, line: 125, type: !894, flags: DIFlagPrototyped, spFlags: 0)
!894 = !DISubroutineType(types: !895)
!895 = !{!896}
!896 = !DIDerivedType(tag: DW_TAG_pointer_type, baseType: !885, size: 64)
!897 = !DIImportedEntity(tag: DW_TAG_imported_declaration, scope: !39, entity: !898, file: !902, line: 64)
!898 = !DISubprogram(name: "isalnum", scope: !899, file: !899, line: 108, type: !900, flags: DIFlagPrototyped, spFlags: 0)
!899 = !DIFile(filename: "/usr/include/ctype.h", directory: "", checksumkind: CSK_MD5, checksum: "36575f934ef4fe7e9d50a3cb17bd5c66")
!900 = !DISubroutineType(types: !901)
!901 = !{!33, !33}
!902 = !DIFile(filename: "/usr/lib/gcc/x86_64-linux-gnu/13/../../../../include/c++/13/cctype", directory: "")
!903 = !DIImportedEntity(tag: DW_TAG_imported_declaration, scope: !39, entity: !904, file: !902, line: 65)
!904 = !DISubprogram(name: "isalpha", scope: !899, file: !899, line: 109, type: !900, flags: DIFlagPrototyped, spFlags: 0)
!905 = !DIImportedEntity(tag: DW_TAG_imported_declaration, scope: !39, entity: !906, file: !902, line: 66)
!906 = !DISubprogram(name: "iscntrl", scope: !899, file: !899, line: 110, type: !900, flags: DIFlagPrototyped, spFlags: 0)
!907 = !DIImportedEntity(tag: DW_TAG_imported_declaration, scope: !39, entity: !908, file: !902, line: 67)
!908 = !DISubprogram(name: "isdigit", scope: !899, file: !899, line: 111, type: !900, flags: DIFlagPrototyped, spFlags: 0)
!909 = !DIImportedEntity(tag: DW_TAG_imported_declaration, scope: !39, entity: !910, file: !902, line: 68)
!910 = !DISubprogram(name: "isgraph", scope: !899, file: !899, line: 113, type: !900, flags: DIFlagPrototyped, spFlags: 0)
!911 = !DIImportedEntity(tag: DW_TAG_imported_declaration, scope: !39, entity: !912, file: !902, line: 69)
!912 = !DISubprogram(name: "islower", scope: !899, file: !899, line: 112, type: !900, flags: DIFlagPrototyped, spFlags: 0)
!913 = !DIImportedEntity(tag: DW_TAG_imported_declaration, scope: !39, entity: !914, file: !902, line: 70)
!914 = !DISubprogram(name: "isprint", scope: !899, file: !899, line: 114, type: !900, flags: DIFlagPrototyped, spFlags: 0)
!915 = !DIImportedEntity(tag: DW_TAG_imported_declaration, scope: !39, entity: !916, file: !902, line: 71)
!916 = !DISubprogram(name: "ispunct", scope: !899, file: !899, line: 115, type: !900, flags: DIFlagPrototyped, spFlags: 0)
!917 = !DIImportedEntity(tag: DW_TAG_imported_declaration, scope: !39, entity: !918, file: !902, line: 72)
!918 = !DISubprogram(name: "isspace", scope: !899, file: !899, line: 116, type: !900, flags: DIFlagPrototyped, spFlags: 0)
!919 = !DIImportedEntity(tag: DW_TAG_imported_declaration, scope: !39, entity: !920, file: !902, line: 73)
!920 = !DISubprogram(name: "isupper", scope: !899, file: !899, line: 117, type: !900, flags: DIFlagPrototyped, spFlags: 0)
!921 = !DIImportedEntity(tag: DW_TAG_imported_declaration, scope: !39, entity: !922, file: !902, line: 74)
!922 = !DISubprogram(name: "isxdigit", scope: !899, file: !899, line: 118, type: !900, flags: DIFlagPrototyped, spFlags: 0)
!923 = !DIImportedEntity(tag: DW_TAG_imported_declaration, scope: !39, entity: !924, file: !902, line: 75)
!924 = !DISubprogram(name: "tolower", scope: !899, file: !899, line: 122, type: !900, flags: DIFlagPrototyped, spFlags: 0)
!925 = !DIImportedEntity(tag: DW_TAG_imported_declaration, scope: !39, entity: !926, file: !902, line: 76)
!926 = !DISubprogram(name: "toupper", scope: !899, file: !899, line: 125, type: !900, flags: DIFlagPrototyped, spFlags: 0)
!927 = !DIImportedEntity(tag: DW_TAG_imported_declaration, scope: !39, entity: !928, file: !902, line: 87)
!928 = !DISubprogram(name: "isblank", scope: !899, file: !899, line: 130, type: !900, flags: DIFlagPrototyped, spFlags: 0)
!929 = !DIImportedEntity(tag: DW_TAG_imported_module, scope: !930, entity: !931, file: !932, line: 58)
!930 = !DINamespace(name: "__gnu_debug", scope: null)
!931 = !DINamespace(name: "__debug", scope: !39)
!932 = !DIFile(filename: "/usr/lib/gcc/x86_64-linux-gnu/13/../../../../include/c++/13/debug/debug.h", directory: "", checksumkind: CSK_MD5, checksum: "752210a319f5f5d356cc29cd1ce3cdc7")
!933 = !DIImportedEntity(tag: DW_TAG_imported_declaration, scope: !39, entity: !934, file: !936, line: 52)
!934 = !DISubprogram(name: "abs", scope: !935, file: !935, line: 840, type: !900, flags: DIFlagPrototyped, spFlags: 0)
!935 = !DIFile(filename: "/usr/include/stdlib.h", directory: "", checksumkind: CSK_MD5, checksum: "f0db66726d35051e5af2525f5b33bd81")
!936 = !DIFile(filename: "/usr/lib/gcc/x86_64-linux-gnu/13/../../../../include/c++/13/bits/std_abs.h", directory: "")
!937 = !DIImportedEntity(tag: DW_TAG_imported_declaration, scope: !39, entity: !938, file: !940, line: 131)
!938 = !DIDerivedType(tag: DW_TAG_typedef, name: "div_t", file: !935, line: 62, baseType: !939)
!939 = !DICompositeType(tag: DW_TAG_structure_type, file: !935, line: 58, size: 64, flags: DIFlagFwdDecl, identifier: "_ZTS5div_t")
!940 = !DIFile(filename: "/usr/lib/gcc/x86_64-linux-gnu/13/../../../../include/c++/13/cstdlib", directory: "")
!941 = !DIImportedEntity(tag: DW_TAG_imported_declaration, scope: !39, entity: !942, file: !940, line: 132)
!942 = !DIDerivedType(tag: DW_TAG_typedef, name: "ldiv_t", file: !935, line: 70, baseType: !943)
!943 = distinct !DICompositeType(tag: DW_TAG_structure_type, file: !935, line: 66, size: 128, flags: DIFlagTypePassByValue, elements: !944, identifier: "_ZTS6ldiv_t")
!944 = !{!945, !946}
!945 = !DIDerivedType(tag: DW_TAG_member, name: "quot", scope: !943, file: !935, line: 68, baseType: !572, size: 64)
!946 = !DIDerivedType(tag: DW_TAG_member, name: "rem", scope: !943, file: !935, line: 69, baseType: !572, size: 64, offset: 64)
!947 = !DIImportedEntity(tag: DW_TAG_imported_declaration, scope: !39, entity: !948, file: !940, line: 134)
!948 = !DISubprogram(name: "abort", scope: !935, file: !935, line: 591, type: !949, flags: DIFlagPrototyped | DIFlagNoReturn, spFlags: 0)
!949 = !DISubroutineType(types: !950)
!950 = !{null}
!951 = !DIImportedEntity(tag: DW_TAG_imported_declaration, scope: !39, entity: !952, file: !940, line: 136)
!952 = !DISubprogram(name: "aligned_alloc", scope: !935, file: !935, line: 586, type: !953, flags: DIFlagPrototyped, spFlags: 0)
!953 = !DISubroutineType(types: !954)
!954 = !{!34, !661, !661}
!955 = !DIImportedEntity(tag: DW_TAG_imported_declaration, scope: !39, entity: !956, file: !940, line: 138)
!956 = !DISubprogram(name: "atexit", scope: !935, file: !935, line: 595, type: !957, flags: DIFlagPrototyped, spFlags: 0)
!957 = !DISubroutineType(types: !958)
!958 = !{!33, !959}
!959 = !DIDerivedType(tag: DW_TAG_pointer_type, baseType: !949, size: 64)
!960 = !DIImportedEntity(tag: DW_TAG_imported_declaration, scope: !39, entity: !961, file: !940, line: 141)
!961 = !DISubprogram(name: "at_quick_exit", scope: !935, file: !935, line: 600, type: !957, flags: DIFlagPrototyped, spFlags: 0)
!962 = !DIImportedEntity(tag: DW_TAG_imported_declaration, scope: !39, entity: !963, file: !940, line: 144)
!963 = !DISubprogram(name: "atof", scope: !935, file: !935, line: 101, type: !964, flags: DIFlagPrototyped, spFlags: 0)
!964 = !DISubroutineType(types: !965)
!965 = !{!784, !503}
!966 = !DIImportedEntity(tag: DW_TAG_imported_declaration, scope: !39, entity: !967, file: !940, line: 145)
!967 = !DISubprogram(name: "atoi", scope: !935, file: !935, line: 104, type: !968, flags: DIFlagPrototyped, spFlags: 0)
!968 = !DISubroutineType(types: !969)
!969 = !{!33, !503}
!970 = !DIImportedEntity(tag: DW_TAG_imported_declaration, scope: !39, entity: !971, file: !940, line: 146)
!971 = !DISubprogram(name: "atol", scope: !935, file: !935, line: 107, type: !972, flags: DIFlagPrototyped, spFlags: 0)
!972 = !DISubroutineType(types: !973)
!973 = !{!572, !503}
!974 = !DIImportedEntity(tag: DW_TAG_imported_declaration, scope: !39, entity: !975, file: !940, line: 147)
!975 = !DISubprogram(name: "bsearch", scope: !935, file: !935, line: 820, type: !976, flags: DIFlagPrototyped, spFlags: 0)
!976 = !DISubroutineType(types: !977)
!977 = !{!34, !107, !107, !661, !661, !978}
!978 = !DIDerivedType(tag: DW_TAG_typedef, name: "__compar_fn_t", file: !935, line: 808, baseType: !979)
!979 = !DIDerivedType(tag: DW_TAG_pointer_type, baseType: !980, size: 64)
!980 = !DISubroutineType(types: !981)
!981 = !{!33, !107, !107}
!982 = !DIImportedEntity(tag: DW_TAG_imported_declaration, scope: !39, entity: !983, file: !940, line: 148)
!983 = !DISubprogram(name: "calloc", scope: !935, file: !935, line: 542, type: !953, flags: DIFlagPrototyped, spFlags: 0)
!984 = !DIImportedEntity(tag: DW_TAG_imported_declaration, scope: !39, entity: !985, file: !940, line: 149)
!985 = !DISubprogram(name: "div", scope: !935, file: !935, line: 852, type: !986, flags: DIFlagPrototyped, spFlags: 0)
!986 = !DISubroutineType(types: !987)
!987 = !{!938, !33, !33}
!988 = !DIImportedEntity(tag: DW_TAG_imported_declaration, scope: !39, entity: !989, file: !940, line: 150)
!989 = !DISubprogram(name: "exit", scope: !935, file: !935, line: 617, type: !990, flags: DIFlagPrototyped | DIFlagNoReturn, spFlags: 0)
!990 = !DISubroutineType(types: !991)
!991 = !{null, !33}
!992 = !DIImportedEntity(tag: DW_TAG_imported_declaration, scope: !39, entity: !993, file: !940, line: 151)
!993 = !DISubprogram(name: "free", scope: !935, file: !935, line: 565, type: !994, flags: DIFlagPrototyped, spFlags: 0)
!994 = !DISubroutineType(types: !995)
!995 = !{null, !34}
!996 = !DIImportedEntity(tag: DW_TAG_imported_declaration, scope: !39, entity: !997, file: !940, line: 152)
!997 = !DISubprogram(name: "getenv", scope: !935, file: !935, line: 634, type: !998, flags: DIFlagPrototyped, spFlags: 0)
!998 = !DISubroutineType(types: !999)
!999 = !{!733, !503}
!1000 = !DIImportedEntity(tag: DW_TAG_imported_declaration, scope: !39, entity: !1001, file: !940, line: 153)
!1001 = !DISubprogram(name: "labs", scope: !935, file: !935, line: 841, type: !1002, flags: DIFlagPrototyped, spFlags: 0)
!1002 = !DISubroutineType(types: !1003)
!1003 = !{!572, !572}
!1004 = !DIImportedEntity(tag: DW_TAG_imported_declaration, scope: !39, entity: !1005, file: !940, line: 154)
!1005 = !DISubprogram(name: "ldiv", scope: !935, file: !935, line: 854, type: !1006, flags: DIFlagPrototyped, spFlags: 0)
!1006 = !DISubroutineType(types: !1007)
!1007 = !{!942, !572, !572}
!1008 = !DIImportedEntity(tag: DW_TAG_imported_declaration, scope: !39, entity: !1009, file: !940, line: 155)
!1009 = !DISubprogram(name: "malloc", scope: !935, file: !935, line: 539, type: !1010, flags: DIFlagPrototyped, spFlags: 0)
!1010 = !DISubroutineType(types: !1011)
!1011 = !{!34, !661}
!1012 = !DIImportedEntity(tag: DW_TAG_imported_declaration, scope: !39, entity: !1013, file: !940, line: 157)
!1013 = !DISubprogram(name: "mblen", scope: !935, file: !935, line: 922, type: !1014, flags: DIFlagPrototyped, spFlags: 0)
!1014 = !DISubroutineType(types: !1015)
!1015 = !{!33, !503, !661}
!1016 = !DIImportedEntity(tag: DW_TAG_imported_declaration, scope: !39, entity: !1017, file: !940, line: 158)
!1017 = !DISubprogram(name: "mbstowcs", scope: !935, file: !935, line: 933, type: !1018, flags: DIFlagPrototyped, spFlags: 0)
!1018 = !DISubroutineType(types: !1019)
!1019 = !{!661, !628, !663, !661}
!1020 = !DIImportedEntity(tag: DW_TAG_imported_declaration, scope: !39, entity: !1021, file: !940, line: 159)
!1021 = !DISubprogram(name: "mbtowc", scope: !935, file: !935, line: 925, type: !1022, flags: DIFlagPrototyped, spFlags: 0)
!1022 = !DISubroutineType(types: !1023)
!1023 = !{!33, !628, !663, !661}
!1024 = !DIImportedEntity(tag: DW_TAG_imported_declaration, scope: !39, entity: !1025, file: !940, line: 161)
!1025 = !DISubprogram(name: "qsort", scope: !935, file: !935, line: 830, type: !1026, flags: DIFlagPrototyped, spFlags: 0)
!1026 = !DISubroutineType(types: !1027)
!1027 = !{null, !34, !661, !661, !978}
!1028 = !DIImportedEntity(tag: DW_TAG_imported_declaration, scope: !39, entity: !1029, file: !940, line: 164)
!1029 = !DISubprogram(name: "quick_exit", scope: !935, file: !935, line: 623, type: !990, flags: DIFlagPrototyped | DIFlagNoReturn, spFlags: 0)
!1030 = !DIImportedEntity(tag: DW_TAG_imported_declaration, scope: !39, entity: !1031, file: !940, line: 167)
!1031 = !DISubprogram(name: "rand", scope: !935, file: !935, line: 453, type: !1032, flags: DIFlagPrototyped, spFlags: 0)
!1032 = !DISubroutineType(types: !1033)
!1033 = !{!33}
!1034 = !DIImportedEntity(tag: DW_TAG_imported_declaration, scope: !39, entity: !1035, file: !940, line: 168)
!1035 = !DISubprogram(name: "realloc", scope: !935, file: !935, line: 550, type: !1036, flags: DIFlagPrototyped, spFlags: 0)
!1036 = !DISubroutineType(types: !1037)
!1037 = !{!34, !34, !661}
!1038 = !DIImportedEntity(tag: DW_TAG_imported_declaration, scope: !39, entity: !1039, file: !940, line: 169)
!1039 = !DISubprogram(name: "srand", scope: !935, file: !935, line: 455, type: !1040, flags: DIFlagPrototyped, spFlags: 0)
!1040 = !DISubroutineType(types: !1041)
!1041 = !{null, !600}
!1042 = !DIImportedEntity(tag: DW_TAG_imported_declaration, scope: !39, entity: !1043, file: !940, line: 170)
!1043 = !DISubprogram(name: "strtod", scope: !935, file: !935, line: 117, type: !1044, flags: DIFlagPrototyped, spFlags: 0)
!1044 = !DISubroutineType(types: !1045)
!1045 = !{!784, !663, !1046}
!1046 = !DIDerivedType(tag: DW_TAG_restrict_type, baseType: !1047)
!1047 = !DIDerivedType(tag: DW_TAG_pointer_type, baseType: !733, size: 64)
!1048 = !DIImportedEntity(tag: DW_TAG_imported_declaration, scope: !39, entity: !1049, file: !940, line: 171)
!1049 = !DISubprogram(name: "strtol", scope: !935, file: !935, line: 176, type: !1050, flags: DIFlagPrototyped, spFlags: 0)
!1050 = !DISubroutineType(types: !1051)
!1051 = !{!572, !663, !1046, !33}
!1052 = !DIImportedEntity(tag: DW_TAG_imported_declaration, scope: !39, entity: !1053, file: !940, line: 172)
!1053 = !DISubprogram(name: "strtoul", scope: !935, file: !935, line: 180, type: !1054, flags: DIFlagPrototyped, spFlags: 0)
!1054 = !DISubroutineType(types: !1055)
!1055 = !{!40, !663, !1046, !33}
!1056 = !DIImportedEntity(tag: DW_TAG_imported_declaration, scope: !39, entity: !1057, file: !940, line: 173)
!1057 = !DISubprogram(name: "system", scope: !935, file: !935, line: 784, type: !968, flags: DIFlagPrototyped, spFlags: 0)
!1058 = !DIImportedEntity(tag: DW_TAG_imported_declaration, scope: !39, entity: !1059, file: !940, line: 175)
!1059 = !DISubprogram(name: "wcstombs", scope: !935, file: !935, line: 936, type: !1060, flags: DIFlagPrototyped, spFlags: 0)
!1060 = !DISubroutineType(types: !1061)
!1061 = !{!661, !732, !638, !661}
!1062 = !DIImportedEntity(tag: DW_TAG_imported_declaration, scope: !39, entity: !1063, file: !940, line: 176)
!1063 = !DISubprogram(name: "wctomb", scope: !935, file: !935, line: 929, type: !1064, flags: DIFlagPrototyped, spFlags: 0)
!1064 = !DISubroutineType(types: !1065)
!1065 = !{!33, !733, !627}
!1066 = !DIImportedEntity(tag: DW_TAG_imported_declaration, scope: !56, entity: !1067, file: !940, line: 204)
!1067 = !DIDerivedType(tag: DW_TAG_typedef, name: "lldiv_t", file: !935, line: 80, baseType: !1068)
!1068 = distinct !DICompositeType(tag: DW_TAG_structure_type, file: !935, line: 76, size: 128, flags: DIFlagTypePassByValue, elements: !1069, identifier: "_ZTS7lldiv_t")
!1069 = !{!1070, !1071}
!1070 = !DIDerivedType(tag: DW_TAG_member, name: "quot", scope: !1068, file: !935, line: 78, baseType: !855, size: 64)
!1071 = !DIDerivedType(tag: DW_TAG_member, name: "rem", scope: !1068, file: !935, line: 79, baseType: !855, size: 64, offset: 64)
!1072 = !DIImportedEntity(tag: DW_TAG_imported_declaration, scope: !56, entity: !1073, file: !940, line: 210)
!1073 = !DISubprogram(name: "_Exit", scope: !935, file: !935, line: 629, type: !990, flags: DIFlagPrototyped | DIFlagNoReturn, spFlags: 0)
!1074 = !DIImportedEntity(tag: DW_TAG_imported_declaration, scope: !56, entity: !1075, file: !940, line: 214)
!1075 = !DISubprogram(name: "llabs", scope: !935, file: !935, line: 844, type: !1076, flags: DIFlagPrototyped, spFlags: 0)
!1076 = !DISubroutineType(types: !1077)
!1077 = !{!855, !855}
!1078 = !DIImportedEntity(tag: DW_TAG_imported_declaration, scope: !56, entity: !1079, file: !940, line: 220)
!1079 = !DISubprogram(name: "lldiv", scope: !935, file: !935, line: 858, type: !1080, flags: DIFlagPrototyped, spFlags: 0)
!1080 = !DISubroutineType(types: !1081)
!1081 = !{!1067, !855, !855}
!1082 = !DIImportedEntity(tag: DW_TAG_imported_declaration, scope: !56, entity: !1083, file: !940, line: 231)
!1083 = !DISubprogram(name: "atoll", scope: !935, file: !935, line: 112, type: !1084, flags: DIFlagPrototyped, spFlags: 0)
!1084 = !DISubroutineType(types: !1085)
!1085 = !{!855, !503}
!1086 = !DIImportedEntity(tag: DW_TAG_imported_declaration, scope: !56, entity: !1087, file: !940, line: 232)
!1087 = !DISubprogram(name: "strtoll", scope: !935, file: !935, line: 200, type: !1088, flags: DIFlagPrototyped, spFlags: 0)
!1088 = !DISubroutineType(types: !1089)
!1089 = !{!855, !663, !1046, !33}
!1090 = !DIImportedEntity(tag: DW_TAG_imported_declaration, scope: !56, entity: !1091, file: !940, line: 233)
!1091 = !DISubprogram(name: "strtoull", scope: !935, file: !935, line: 205, type: !1092, flags: DIFlagPrototyped, spFlags: 0)
!1092 = !DISubroutineType(types: !1093)
!1093 = !{!860, !663, !1046, !33}
!1094 = !DIImportedEntity(tag: DW_TAG_imported_declaration, scope: !56, entity: !1095, file: !940, line: 235)
!1095 = !DISubprogram(name: "strtof", scope: !935, file: !935, line: 123, type: !1096, flags: DIFlagPrototyped, spFlags: 0)
!1096 = !DISubroutineType(types: !1097)
!1097 = !{!791, !663, !1046}
!1098 = !DIImportedEntity(tag: DW_TAG_imported_declaration, scope: !56, entity: !1099, file: !940, line: 236)
!1099 = !DISubprogram(name: "strtold", scope: !935, file: !935, line: 126, type: !1100, flags: DIFlagPrototyped, spFlags: 0)
!1100 = !DISubroutineType(types: !1101)
!1101 = !{!850, !663, !1046}
!1102 = !DIImportedEntity(tag: DW_TAG_imported_declaration, scope: !39, entity: !1067, file: !940, line: 244)
!1103 = !DIImportedEntity(tag: DW_TAG_imported_declaration, scope: !39, entity: !1073, file: !940, line: 246)
!1104 = !DIImportedEntity(tag: DW_TAG_imported_declaration, scope: !39, entity: !1075, file: !940, line: 248)
!1105 = !DIImportedEntity(tag: DW_TAG_imported_declaration, scope: !39, entity: !1106, file: !940, line: 249)
!1106 = !DISubprogram(name: "div", linkageName: "_ZN9__gnu_cxx3divExx", scope: !56, file: !940, line: 217, type: !1080, flags: DIFlagPrototyped, spFlags: 0)
!1107 = !DIImportedEntity(tag: DW_TAG_imported_declaration, scope: !39, entity: !1079, file: !940, line: 250)
!1108 = !DIImportedEntity(tag: DW_TAG_imported_declaration, scope: !39, entity: !1083, file: !940, line: 252)
!1109 = !DIImportedEntity(tag: DW_TAG_imported_declaration, scope: !39, entity: !1095, file: !940, line: 253)
!1110 = !DIImportedEntity(tag: DW_TAG_imported_declaration, scope: !39, entity: !1087, file: !940, line: 254)
!1111 = !DIImportedEntity(tag: DW_TAG_imported_declaration, scope: !39, entity: !1091, file: !940, line: 255)
!1112 = !DIImportedEntity(tag: DW_TAG_imported_declaration, scope: !39, entity: !1099, file: !940, line: 256)
!1113 = !DIImportedEntity(tag: DW_TAG_imported_declaration, scope: !39, entity: !1114, file: !1116, line: 98)
!1114 = !DIDerivedType(tag: DW_TAG_typedef, name: "FILE", file: !1115, line: 7, baseType: !621)
!1115 = !DIFile(filename: "/usr/include/x86_64-linux-gnu/bits/types/FILE.h", directory: "", checksumkind: CSK_MD5, checksum: "571f9fb6223c42439075fdde11a0de5d")
!1116 = !DIFile(filename: "/usr/lib/gcc/x86_64-linux-gnu/13/../../../../include/c++/13/cstdio", directory: "")
!1117 = !DIImportedEntity(tag: DW_TAG_imported_declaration, scope: !39, entity: !1118, file: !1116, line: 99)
!1118 = !DIDerivedType(tag: DW_TAG_typedef, name: "fpos_t", file: !1119, line: 84, baseType: !1120)
!1119 = !DIFile(filename: "/usr/include/stdio.h", directory: "", checksumkind: CSK_MD5, checksum: "5b917eded35ce2507d1e294bf8cb74d7")
!1120 = !DIDerivedType(tag: DW_TAG_typedef, name: "__fpos_t", file: !1121, line: 14, baseType: !1122)
!1121 = !DIFile(filename: "/usr/include/x86_64-linux-gnu/bits/types/__fpos_t.h", directory: "", checksumkind: CSK_MD5, checksum: "32de8bdaf3551a6c0a9394f9af4389ce")
!1122 = !DICompositeType(tag: DW_TAG_structure_type, name: "_G_fpos_t", file: !1121, line: 10, size: 128, flags: DIFlagFwdDecl, identifier: "_ZTS9_G_fpos_t")
!1123 = !DIImportedEntity(tag: DW_TAG_imported_declaration, scope: !39, entity: !1124, file: !1116, line: 101)
!1124 = !DISubprogram(name: "clearerr", scope: !1119, file: !1119, line: 757, type: !1125, flags: DIFlagPrototyped, spFlags: 0)
!1125 = !DISubroutineType(types: !1126)
!1126 = !{null, !1127}
!1127 = !DIDerivedType(tag: DW_TAG_pointer_type, baseType: !1114, size: 64)
!1128 = !DIImportedEntity(tag: DW_TAG_imported_declaration, scope: !39, entity: !1129, file: !1116, line: 102)
!1129 = !DISubprogram(name: "fclose", scope: !1119, file: !1119, line: 213, type: !1130, flags: DIFlagPrototyped, spFlags: 0)
!1130 = !DISubroutineType(types: !1131)
!1131 = !{!33, !1127}
!1132 = !DIImportedEntity(tag: DW_TAG_imported_declaration, scope: !39, entity: !1133, file: !1116, line: 103)
!1133 = !DISubprogram(name: "feof", scope: !1119, file: !1119, line: 759, type: !1130, flags: DIFlagPrototyped, spFlags: 0)
!1134 = !DIImportedEntity(tag: DW_TAG_imported_declaration, scope: !39, entity: !1135, file: !1116, line: 104)
!1135 = !DISubprogram(name: "ferror", scope: !1119, file: !1119, line: 761, type: !1130, flags: DIFlagPrototyped, spFlags: 0)
!1136 = !DIImportedEntity(tag: DW_TAG_imported_declaration, scope: !39, entity: !1137, file: !1116, line: 105)
!1137 = !DISubprogram(name: "fflush", scope: !1119, file: !1119, line: 218, type: !1130, flags: DIFlagPrototyped, spFlags: 0)
!1138 = !DIImportedEntity(tag: DW_TAG_imported_declaration, scope: !39, entity: !1139, file: !1116, line: 106)
!1139 = !DISubprogram(name: "fgetc", scope: !1119, file: !1119, line: 485, type: !1130, flags: DIFlagPrototyped, spFlags: 0)
!1140 = !DIImportedEntity(tag: DW_TAG_imported_declaration, scope: !39, entity: !1141, file: !1116, line: 107)
!1141 = !DISubprogram(name: "fgetpos", scope: !1119, file: !1119, line: 731, type: !1142, flags: DIFlagPrototyped, spFlags: 0)
!1142 = !DISubroutineType(types: !1143)
!1143 = !{!33, !1144, !1145}
!1144 = !DIDerivedType(tag: DW_TAG_restrict_type, baseType: !1127)
!1145 = !DIDerivedType(tag: DW_TAG_restrict_type, baseType: !1146)
!1146 = !DIDerivedType(tag: DW_TAG_pointer_type, baseType: !1118, size: 64)
!1147 = !DIImportedEntity(tag: DW_TAG_imported_declaration, scope: !39, entity: !1148, file: !1116, line: 108)
!1148 = !DISubprogram(name: "fgets", scope: !1119, file: !1119, line: 564, type: !1149, flags: DIFlagPrototyped, spFlags: 0)
!1149 = !DISubroutineType(types: !1150)
!1150 = !{!733, !732, !33, !1144}
!1151 = !DIImportedEntity(tag: DW_TAG_imported_declaration, scope: !39, entity: !1152, file: !1116, line: 109)
!1152 = !DISubprogram(name: "fopen", scope: !1119, file: !1119, line: 246, type: !1153, flags: DIFlagPrototyped, spFlags: 0)
!1153 = !DISubroutineType(types: !1154)
!1154 = !{!1127, !663, !663}
!1155 = !DIImportedEntity(tag: DW_TAG_imported_declaration, scope: !39, entity: !1156, file: !1116, line: 110)
!1156 = !DISubprogram(name: "fprintf", scope: !1119, file: !1119, line: 326, type: !1157, flags: DIFlagPrototyped, spFlags: 0)
!1157 = !DISubroutineType(types: !1158)
!1158 = !{!33, !1144, !663, null}
!1159 = !DIImportedEntity(tag: DW_TAG_imported_declaration, scope: !39, entity: !1160, file: !1116, line: 111)
!1160 = !DISubprogram(name: "fputc", scope: !1119, file: !1119, line: 521, type: !1161, flags: DIFlagPrototyped, spFlags: 0)
!1161 = !DISubroutineType(types: !1162)
!1162 = !{!33, !33, !1127}
!1163 = !DIImportedEntity(tag: DW_TAG_imported_declaration, scope: !39, entity: !1164, file: !1116, line: 112)
!1164 = !DISubprogram(name: "fputs", scope: !1119, file: !1119, line: 626, type: !1165, flags: DIFlagPrototyped, spFlags: 0)
!1165 = !DISubroutineType(types: !1166)
!1166 = !{!33, !663, !1144}
!1167 = !DIImportedEntity(tag: DW_TAG_imported_declaration, scope: !39, entity: !1168, file: !1116, line: 113)
!1168 = !DISubprogram(name: "fread", scope: !1119, file: !1119, line: 646, type: !1169, flags: DIFlagPrototyped, spFlags: 0)
!1169 = !DISubroutineType(types: !1170)
!1170 = !{!661, !1171, !661, !661, !1144}
!1171 = !DIDerivedType(tag: DW_TAG_restrict_type, baseType: !34)
!1172 = !DIImportedEntity(tag: DW_TAG_imported_declaration, scope: !39, entity: !1173, file: !1116, line: 114)
!1173 = !DISubprogram(name: "freopen", scope: !1119, file: !1119, line: 252, type: !1174, flags: DIFlagPrototyped, spFlags: 0)
!1174 = !DISubroutineType(types: !1175)
!1175 = !{!1127, !663, !663, !1144}
!1176 = !DIImportedEntity(tag: DW_TAG_imported_declaration, scope: !39, entity: !1177, file: !1116, line: 115)
!1177 = !DISubprogram(name: "fscanf", linkageName: "__isoc99_fscanf", scope: !1119, file: !1119, line: 407, type: !1157, flags: DIFlagPrototyped, spFlags: 0)
!1178 = !DIImportedEntity(tag: DW_TAG_imported_declaration, scope: !39, entity: !1179, file: !1116, line: 116)
!1179 = !DISubprogram(name: "fseek", scope: !1119, file: !1119, line: 684, type: !1180, flags: DIFlagPrototyped, spFlags: 0)
!1180 = !DISubroutineType(types: !1181)
!1181 = !{!33, !1127, !572, !33}
!1182 = !DIImportedEntity(tag: DW_TAG_imported_declaration, scope: !39, entity: !1183, file: !1116, line: 117)
!1183 = !DISubprogram(name: "fsetpos", scope: !1119, file: !1119, line: 736, type: !1184, flags: DIFlagPrototyped, spFlags: 0)
!1184 = !DISubroutineType(types: !1185)
!1185 = !{!33, !1127, !1186}
!1186 = !DIDerivedType(tag: DW_TAG_pointer_type, baseType: !1187, size: 64)
!1187 = !DIDerivedType(tag: DW_TAG_const_type, baseType: !1118)
!1188 = !DIImportedEntity(tag: DW_TAG_imported_declaration, scope: !39, entity: !1189, file: !1116, line: 118)
!1189 = !DISubprogram(name: "ftell", scope: !1119, file: !1119, line: 689, type: !1190, flags: DIFlagPrototyped, spFlags: 0)
!1190 = !DISubroutineType(types: !1191)
!1191 = !{!572, !1127}
!1192 = !DIImportedEntity(tag: DW_TAG_imported_declaration, scope: !39, entity: !1193, file: !1116, line: 119)
!1193 = !DISubprogram(name: "fwrite", scope: !1119, file: !1119, line: 652, type: !1194, flags: DIFlagPrototyped, spFlags: 0)
!1194 = !DISubroutineType(types: !1195)
!1195 = !{!661, !1196, !661, !661, !1144}
!1196 = !DIDerivedType(tag: DW_TAG_restrict_type, baseType: !107)
!1197 = !DIImportedEntity(tag: DW_TAG_imported_declaration, scope: !39, entity: !1198, file: !1116, line: 120)
!1198 = !DISubprogram(name: "getc", scope: !1119, file: !1119, line: 486, type: !1130, flags: DIFlagPrototyped, spFlags: 0)
!1199 = !DIImportedEntity(tag: DW_TAG_imported_declaration, scope: !39, entity: !1200, file: !1116, line: 121)
!1200 = !DISubprogram(name: "getchar", scope: !1119, file: !1119, line: 492, type: !1032, flags: DIFlagPrototyped, spFlags: 0)
!1201 = !DIImportedEntity(tag: DW_TAG_imported_declaration, scope: !39, entity: !1202, file: !1116, line: 126)
!1202 = !DISubprogram(name: "perror", scope: !1119, file: !1119, line: 775, type: !1203, flags: DIFlagPrototyped, spFlags: 0)
!1203 = !DISubroutineType(types: !1204)
!1204 = !{null, !503}
!1205 = !DIImportedEntity(tag: DW_TAG_imported_declaration, scope: !39, entity: !1206, file: !1116, line: 127)
!1206 = !DISubprogram(name: "printf", scope: !1119, file: !1119, line: 332, type: !1207, flags: DIFlagPrototyped, spFlags: 0)
!1207 = !DISubroutineType(types: !1208)
!1208 = !{!33, !663, null}
!1209 = !DIImportedEntity(tag: DW_TAG_imported_declaration, scope: !39, entity: !1210, file: !1116, line: 128)
!1210 = !DISubprogram(name: "putc", scope: !1119, file: !1119, line: 522, type: !1161, flags: DIFlagPrototyped, spFlags: 0)
!1211 = !DIImportedEntity(tag: DW_TAG_imported_declaration, scope: !39, entity: !1212, file: !1116, line: 129)
!1212 = !DISubprogram(name: "putchar", scope: !1119, file: !1119, line: 528, type: !900, flags: DIFlagPrototyped, spFlags: 0)
!1213 = !DIImportedEntity(tag: DW_TAG_imported_declaration, scope: !39, entity: !1214, file: !1116, line: 130)
!1214 = !DISubprogram(name: "puts", scope: !1119, file: !1119, line: 632, type: !968, flags: DIFlagPrototyped, spFlags: 0)
!1215 = !DIImportedEntity(tag: DW_TAG_imported_declaration, scope: !39, entity: !1216, file: !1116, line: 131)
!1216 = !DISubprogram(name: "remove", scope: !1119, file: !1119, line: 146, type: !968, flags: DIFlagPrototyped, spFlags: 0)
!1217 = !DIImportedEntity(tag: DW_TAG_imported_declaration, scope: !39, entity: !1218, file: !1116, line: 132)
!1218 = !DISubprogram(name: "rename", scope: !1119, file: !1119, line: 148, type: !1219, flags: DIFlagPrototyped, spFlags: 0)
!1219 = !DISubroutineType(types: !1220)
!1220 = !{!33, !503, !503}
!1221 = !DIImportedEntity(tag: DW_TAG_imported_declaration, scope: !39, entity: !1222, file: !1116, line: 133)
!1222 = !DISubprogram(name: "rewind", scope: !1119, file: !1119, line: 694, type: !1125, flags: DIFlagPrototyped, spFlags: 0)
!1223 = !DIImportedEntity(tag: DW_TAG_imported_declaration, scope: !39, entity: !1224, file: !1116, line: 134)
!1224 = !DISubprogram(name: "scanf", linkageName: "__isoc99_scanf", scope: !1119, file: !1119, line: 410, type: !1207, flags: DIFlagPrototyped, spFlags: 0)
!1225 = !DIImportedEntity(tag: DW_TAG_imported_declaration, scope: !39, entity: !1226, file: !1116, line: 135)
!1226 = !DISubprogram(name: "setbuf", scope: !1119, file: !1119, line: 304, type: !1227, flags: DIFlagPrototyped, spFlags: 0)
!1227 = !DISubroutineType(types: !1228)
!1228 = !{null, !1144, !732}
!1229 = !DIImportedEntity(tag: DW_TAG_imported_declaration, scope: !39, entity: !1230, file: !1116, line: 136)
!1230 = !DISubprogram(name: "setvbuf", scope: !1119, file: !1119, line: 308, type: !1231, flags: DIFlagPrototyped, spFlags: 0)
!1231 = !DISubroutineType(types: !1232)
!1232 = !{!33, !1144, !732, !33, !661}
!1233 = !DIImportedEntity(tag: DW_TAG_imported_declaration, scope: !39, entity: !1234, file: !1116, line: 137)
!1234 = !DISubprogram(name: "sprintf", scope: !1119, file: !1119, line: 334, type: !1235, flags: DIFlagPrototyped, spFlags: 0)
!1235 = !DISubroutineType(types: !1236)
!1236 = !{!33, !732, !663, null}
!1237 = !DIImportedEntity(tag: DW_TAG_imported_declaration, scope: !39, entity: !1238, file: !1116, line: 138)
!1238 = !DISubprogram(name: "sscanf", linkageName: "__isoc99_sscanf", scope: !1119, file: !1119, line: 412, type: !1239, flags: DIFlagPrototyped, spFlags: 0)
!1239 = !DISubroutineType(types: !1240)
!1240 = !{!33, !663, !663, null}
!1241 = !DIImportedEntity(tag: DW_TAG_imported_declaration, scope: !39, entity: !1242, file: !1116, line: 139)
!1242 = !DISubprogram(name: "tmpfile", scope: !1119, file: !1119, line: 173, type: !1243, flags: DIFlagPrototyped, spFlags: 0)
!1243 = !DISubroutineType(types: !1244)
!1244 = !{!1127}
!1245 = !DIImportedEntity(tag: DW_TAG_imported_declaration, scope: !39, entity: !1246, file: !1116, line: 141)
!1246 = !DISubprogram(name: "tmpnam", scope: !1119, file: !1119, line: 187, type: !1247, flags: DIFlagPrototyped, spFlags: 0)
!1247 = !DISubroutineType(types: !1248)
!1248 = !{!733, !733}
!1249 = !DIImportedEntity(tag: DW_TAG_imported_declaration, scope: !39, entity: !1250, file: !1116, line: 143)
!1250 = !DISubprogram(name: "ungetc", scope: !1119, file: !1119, line: 639, type: !1161, flags: DIFlagPrototyped, spFlags: 0)
!1251 = !DIImportedEntity(tag: DW_TAG_imported_declaration, scope: !39, entity: !1252, file: !1116, line: 144)
!1252 = !DISubprogram(name: "vfprintf", scope: !1119, file: !1119, line: 341, type: !1253, flags: DIFlagPrototyped, spFlags: 0)
!1253 = !DISubroutineType(types: !1254)
!1254 = !{!33, !1144, !663, !704}
!1255 = !DIImportedEntity(tag: DW_TAG_imported_declaration, scope: !39, entity: !1256, file: !1116, line: 145)
!1256 = !DISubprogram(name: "vprintf", scope: !1119, file: !1119, line: 347, type: !1257, flags: DIFlagPrototyped, spFlags: 0)
!1257 = !DISubroutineType(types: !1258)
!1258 = !{!33, !663, !704}
!1259 = !DIImportedEntity(tag: DW_TAG_imported_declaration, scope: !39, entity: !1260, file: !1116, line: 146)
!1260 = !DISubprogram(name: "vsprintf", scope: !1119, file: !1119, line: 349, type: !1261, flags: DIFlagPrototyped, spFlags: 0)
!1261 = !DISubroutineType(types: !1262)
!1262 = !{!33, !732, !663, !704}
!1263 = !DIImportedEntity(tag: DW_TAG_imported_declaration, scope: !56, entity: !1264, file: !1116, line: 175)
!1264 = !DISubprogram(name: "snprintf", scope: !1119, file: !1119, line: 354, type: !1265, flags: DIFlagPrototyped, spFlags: 0)
!1265 = !DISubroutineType(types: !1266)
!1266 = !{!33, !732, !661, !663, null}
!1267 = !DIImportedEntity(tag: DW_TAG_imported_declaration, scope: !56, entity: !1268, file: !1116, line: 176)
!1268 = !DISubprogram(name: "vfscanf", linkageName: "__isoc99_vfscanf", scope: !1119, file: !1119, line: 451, type: !1253, flags: DIFlagPrototyped, spFlags: 0)
!1269 = !DIImportedEntity(tag: DW_TAG_imported_declaration, scope: !56, entity: !1270, file: !1116, line: 177)
!1270 = !DISubprogram(name: "vscanf", linkageName: "__isoc99_vscanf", scope: !1119, file: !1119, line: 456, type: !1257, flags: DIFlagPrototyped, spFlags: 0)
!1271 = !DIImportedEntity(tag: DW_TAG_imported_declaration, scope: !56, entity: !1272, file: !1116, line: 178)
!1272 = !DISubprogram(name: "vsnprintf", scope: !1119, file: !1119, line: 358, type: !1273, flags: DIFlagPrototyped, spFlags: 0)
!1273 = !DISubroutineType(types: !1274)
!1274 = !{!33, !732, !661, !663, !704}
!1275 = !DIImportedEntity(tag: DW_TAG_imported_declaration, scope: !56, entity: !1276, file: !1116, line: 179)
!1276 = !DISubprogram(name: "vsscanf", linkageName: "__isoc99_vsscanf", scope: !1119, file: !1119, line: 459, type: !1277, flags: DIFlagPrototyped, spFlags: 0)
!1277 = !DISubroutineType(types: !1278)
!1278 = !{!33, !663, !663, !704}
!1279 = !DIImportedEntity(tag: DW_TAG_imported_declaration, scope: !39, entity: !1264, file: !1116, line: 185)
!1280 = !DIImportedEntity(tag: DW_TAG_imported_declaration, scope: !39, entity: !1268, file: !1116, line: 186)
!1281 = !DIImportedEntity(tag: DW_TAG_imported_declaration, scope: !39, entity: !1270, file: !1116, line: 187)
!1282 = !DIImportedEntity(tag: DW_TAG_imported_declaration, scope: !39, entity: !1272, file: !1116, line: 188)
!1283 = !DIImportedEntity(tag: DW_TAG_imported_declaration, scope: !39, entity: !1276, file: !1116, line: 189)
!1284 = !DIImportedEntity(tag: DW_TAG_imported_declaration, scope: !39, entity: !1285, file: !1291, line: 58)
!1285 = !DIDerivedType(tag: DW_TAG_typedef, name: "max_align_t", file: !1286, line: 24, baseType: !1287)
!1286 = !DIFile(filename: "SVF/llvm-16.0.0.obj/lib/clang/16/include/__stddef_max_align_t.h", directory: "/home/cs22mtech12008", checksumkind: CSK_MD5, checksum: "48e8e2456f77e6cda35d245130fa7259")
!1287 = distinct !DICompositeType(tag: DW_TAG_structure_type, file: !1286, line: 19, size: 256, flags: DIFlagTypePassByValue, elements: !1288, identifier: "_ZTS11max_align_t")
!1288 = !{!1289, !1290}
!1289 = !DIDerivedType(tag: DW_TAG_member, name: "__clang_max_align_nonce1", scope: !1287, file: !1286, line: 20, baseType: !855, size: 64, align: 64)
!1290 = !DIDerivedType(tag: DW_TAG_member, name: "__clang_max_align_nonce2", scope: !1287, file: !1286, line: 22, baseType: !850, size: 128, align: 128, offset: 128)
!1291 = !DIFile(filename: "/usr/lib/gcc/x86_64-linux-gnu/13/../../../../include/c++/13/cstddef", directory: "")
!1292 = !DIImportedEntity(tag: DW_TAG_imported_declaration, scope: !39, entity: !1293, file: !1299, line: 82)
!1293 = !DIDerivedType(tag: DW_TAG_typedef, name: "wctrans_t", file: !1294, line: 48, baseType: !1295)
!1294 = !DIFile(filename: "/usr/include/wctype.h", directory: "", checksumkind: CSK_MD5, checksum: "e83097fbf57cc71ea472db59df3ba75d")
!1295 = !DIDerivedType(tag: DW_TAG_pointer_type, baseType: !1296, size: 64)
!1296 = !DIDerivedType(tag: DW_TAG_const_type, baseType: !1297)
!1297 = !DIDerivedType(tag: DW_TAG_typedef, name: "__int32_t", file: !1298, line: 41, baseType: !33)
!1298 = !DIFile(filename: "/usr/include/x86_64-linux-gnu/bits/types.h", directory: "", checksumkind: CSK_MD5, checksum: "f6304b1a6dcfc6bee76e9a51043b5090")
!1299 = !DIFile(filename: "/usr/lib/gcc/x86_64-linux-gnu/13/../../../../include/c++/13/cwctype", directory: "")
!1300 = !DIImportedEntity(tag: DW_TAG_imported_declaration, scope: !39, entity: !1301, file: !1299, line: 83)
!1301 = !DIDerivedType(tag: DW_TAG_typedef, name: "wctype_t", file: !1302, line: 38, baseType: !40)
!1302 = !DIFile(filename: "/usr/include/x86_64-linux-gnu/bits/wctype-wchar.h", directory: "", checksumkind: CSK_MD5, checksum: "3598b9d23ef5d76319026b46e316b55f")
!1303 = !DIImportedEntity(tag: DW_TAG_imported_declaration, scope: !39, entity: !607, file: !1299, line: 84)
!1304 = !DIImportedEntity(tag: DW_TAG_imported_declaration, scope: !39, entity: !1305, file: !1299, line: 86)
!1305 = !DISubprogram(name: "iswalnum", scope: !1302, file: !1302, line: 95, type: !810, flags: DIFlagPrototyped, spFlags: 0)
!1306 = !DIImportedEntity(tag: DW_TAG_imported_declaration, scope: !39, entity: !1307, file: !1299, line: 87)
!1307 = !DISubprogram(name: "iswalpha", scope: !1302, file: !1302, line: 101, type: !810, flags: DIFlagPrototyped, spFlags: 0)
!1308 = !DIImportedEntity(tag: DW_TAG_imported_declaration, scope: !39, entity: !1309, file: !1299, line: 89)
!1309 = !DISubprogram(name: "iswblank", scope: !1302, file: !1302, line: 146, type: !810, flags: DIFlagPrototyped, spFlags: 0)
!1310 = !DIImportedEntity(tag: DW_TAG_imported_declaration, scope: !39, entity: !1311, file: !1299, line: 91)
!1311 = !DISubprogram(name: "iswcntrl", scope: !1302, file: !1302, line: 104, type: !810, flags: DIFlagPrototyped, spFlags: 0)
!1312 = !DIImportedEntity(tag: DW_TAG_imported_declaration, scope: !39, entity: !1313, file: !1299, line: 92)
!1313 = !DISubprogram(name: "iswctype", scope: !1302, file: !1302, line: 159, type: !1314, flags: DIFlagPrototyped, spFlags: 0)
!1314 = !DISubroutineType(types: !1315)
!1315 = !{!33, !607, !1301}
!1316 = !DIImportedEntity(tag: DW_TAG_imported_declaration, scope: !39, entity: !1317, file: !1299, line: 93)
!1317 = !DISubprogram(name: "iswdigit", scope: !1302, file: !1302, line: 108, type: !810, flags: DIFlagPrototyped, spFlags: 0)
!1318 = !DIImportedEntity(tag: DW_TAG_imported_declaration, scope: !39, entity: !1319, file: !1299, line: 94)
!1319 = !DISubprogram(name: "iswgraph", scope: !1302, file: !1302, line: 112, type: !810, flags: DIFlagPrototyped, spFlags: 0)
!1320 = !DIImportedEntity(tag: DW_TAG_imported_declaration, scope: !39, entity: !1321, file: !1299, line: 95)
!1321 = !DISubprogram(name: "iswlower", scope: !1302, file: !1302, line: 117, type: !810, flags: DIFlagPrototyped, spFlags: 0)
!1322 = !DIImportedEntity(tag: DW_TAG_imported_declaration, scope: !39, entity: !1323, file: !1299, line: 96)
!1323 = !DISubprogram(name: "iswprint", scope: !1302, file: !1302, line: 120, type: !810, flags: DIFlagPrototyped, spFlags: 0)
!1324 = !DIImportedEntity(tag: DW_TAG_imported_declaration, scope: !39, entity: !1325, file: !1299, line: 97)
!1325 = !DISubprogram(name: "iswpunct", scope: !1302, file: !1302, line: 125, type: !810, flags: DIFlagPrototyped, spFlags: 0)
!1326 = !DIImportedEntity(tag: DW_TAG_imported_declaration, scope: !39, entity: !1327, file: !1299, line: 98)
!1327 = !DISubprogram(name: "iswspace", scope: !1302, file: !1302, line: 130, type: !810, flags: DIFlagPrototyped, spFlags: 0)
!1328 = !DIImportedEntity(tag: DW_TAG_imported_declaration, scope: !39, entity: !1329, file: !1299, line: 99)
!1329 = !DISubprogram(name: "iswupper", scope: !1302, file: !1302, line: 135, type: !810, flags: DIFlagPrototyped, spFlags: 0)
!1330 = !DIImportedEntity(tag: DW_TAG_imported_declaration, scope: !39, entity: !1331, file: !1299, line: 100)
!1331 = !DISubprogram(name: "iswxdigit", scope: !1302, file: !1302, line: 140, type: !810, flags: DIFlagPrototyped, spFlags: 0)
!1332 = !DIImportedEntity(tag: DW_TAG_imported_declaration, scope: !39, entity: !1333, file: !1299, line: 101)
!1333 = !DISubprogram(name: "towctrans", scope: !1294, file: !1294, line: 55, type: !1334, flags: DIFlagPrototyped, spFlags: 0)
!1334 = !DISubroutineType(types: !1335)
!1335 = !{!607, !607, !1293}
!1336 = !DIImportedEntity(tag: DW_TAG_imported_declaration, scope: !39, entity: !1337, file: !1299, line: 102)
!1337 = !DISubprogram(name: "towlower", scope: !1302, file: !1302, line: 166, type: !1338, flags: DIFlagPrototyped, spFlags: 0)
!1338 = !DISubroutineType(types: !1339)
!1339 = !{!607, !607}
!1340 = !DIImportedEntity(tag: DW_TAG_imported_declaration, scope: !39, entity: !1341, file: !1299, line: 103)
!1341 = !DISubprogram(name: "towupper", scope: !1302, file: !1302, line: 169, type: !1338, flags: DIFlagPrototyped, spFlags: 0)
!1342 = !DIImportedEntity(tag: DW_TAG_imported_declaration, scope: !39, entity: !1343, file: !1299, line: 104)
!1343 = !DISubprogram(name: "wctrans", scope: !1294, file: !1294, line: 52, type: !1344, flags: DIFlagPrototyped, spFlags: 0)
!1344 = !DISubroutineType(types: !1345)
!1345 = !{!1293, !503}
!1346 = !DIImportedEntity(tag: DW_TAG_imported_declaration, scope: !39, entity: !1347, file: !1299, line: 105)
!1347 = !DISubprogram(name: "wctype", scope: !1302, file: !1302, line: 155, type: !1348, flags: DIFlagPrototyped, spFlags: 0)
!1348 = !DISubroutineType(types: !1349)
!1349 = !{!1301, !503}
!1350 = !DIImportedEntity(tag: DW_TAG_imported_module, scope: !29, entity: !39, file: !2, line: 8)
!1351 = !{i32 7, !"Dwarf Version", i32 5}
!1352 = !{i32 2, !"Debug Info Version", i32 3}
!1353 = !{i32 1, !"wchar_size", i32 4}
!1354 = !{i32 8, !"PIC Level", i32 2}
!1355 = !{i32 7, !"PIE Level", i32 2}
!1356 = !{i32 7, !"uwtable", i32 2}
!1357 = !{i32 7, !"frame-pointer", i32 2}
!1358 = !{!"clang version 16.0.0"}
!1359 = distinct !DISubprogram(name: "threadTask", linkageName: "_Z10threadTaskPv", scope: !2, file: !2, line: 11, type: !1360, scopeLine: 11, flags: DIFlagPrototyped, spFlags: DISPFlagDefinition, unit: !29, retainedNodes: !167)
!1360 = !DISubroutineType(types: !1361)
!1361 = !{!34, !34}
!1362 = !DILocalVariable(name: "arg", arg: 1, scope: !1359, file: !2, line: 11, type: !34)
!1363 = !DILocation(line: 11, column: 24, scope: !1359)
!1364 = !DILocalVariable(name: "sharedData", scope: !1359, file: !2, line: 12, type: !32)
!1365 = !DILocation(line: 12, column: 10, scope: !1359)
!1366 = !DILocation(line: 12, column: 41, scope: !1359)
!1367 = !DILocation(line: 13, column: 7, scope: !1359)
!1368 = !DILocation(line: 13, column: 18, scope: !1359)
!1369 = !DILocation(line: 14, column: 15, scope: !1359)
!1370 = !DILocation(line: 14, column: 54, scope: !1359)
!1371 = !DILocation(line: 14, column: 53, scope: !1359)
!1372 = !DILocation(line: 14, column: 50, scope: !1359)
!1373 = !DILocation(line: 14, column: 65, scope: !1359)
!1374 = !DILocation(line: 15, column: 5, scope: !1359)
!1375 = distinct !DISubprogram(name: "threadTask2", linkageName: "_Z11threadTask2Pv", scope: !2, file: !2, line: 19, type: !1360, scopeLine: 19, flags: DIFlagPrototyped, spFlags: DISPFlagDefinition, unit: !29, retainedNodes: !167)
!1376 = !DILocalVariable(name: "arg", arg: 1, scope: !1375, file: !2, line: 19, type: !34)
!1377 = !DILocation(line: 19, column: 25, scope: !1375)
!1378 = !DILocalVariable(name: "sharedData", scope: !1375, file: !2, line: 20, type: !33)
!1379 = !DILocation(line: 20, column: 9, scope: !1375)
!1380 = !DILocation(line: 20, column: 41, scope: !1375)
!1381 = !DILocation(line: 20, column: 22, scope: !1375)
!1382 = !DILocation(line: 21, column: 15, scope: !1375)
!1383 = !DILocation(line: 22, column: 15, scope: !1375)
!1384 = !DILocation(line: 22, column: 53, scope: !1375)
!1385 = !DILocation(line: 22, column: 50, scope: !1375)
!1386 = !DILocation(line: 22, column: 64, scope: !1375)
!1387 = !DILocation(line: 23, column: 5, scope: !1375)
!1388 = distinct !DISubprogram(name: "main", scope: !2, file: !2, line: 26, type: !1032, scopeLine: 26, flags: DIFlagPrototyped, spFlags: DISPFlagDefinition, unit: !29, retainedNodes: !167)
!1389 = !DILocalVariable(name: "threads", scope: !1388, file: !2, line: 27, type: !42)
!1390 = !DILocation(line: 27, column: 28, scope: !1388)
!1391 = !DILocalVariable(name: "i", scope: !1388, file: !2, line: 28, type: !33)
!1392 = !DILocation(line: 28, column: 9, scope: !1388)
!1393 = !DILocalVariable(name: "id", scope: !1388, file: !2, line: 29, type: !33)
!1394 = !DILocation(line: 29, column: 9, scope: !1388)
!1395 = !DILocation(line: 32, column: 5, scope: !1388)
!1396 = !DILocalVariable(name: "sharedData", scope: !1397, file: !2, line: 33, type: !33)
!1397 = distinct !DILexicalBlock(scope: !1388, file: !2, line: 32, column: 8)
!1398 = !DILocation(line: 33, column: 13, scope: !1397)
!1399 = !DILocalVariable(name: "tid", scope: !1397, file: !2, line: 34, type: !1400)
!1400 = !DIDerivedType(tag: DW_TAG_typedef, name: "pthread_t", file: !1401, line: 27, baseType: !40)
!1401 = !DIFile(filename: "/usr/include/x86_64-linux-gnu/bits/pthreadtypes.h", directory: "", checksumkind: CSK_MD5, checksum: "2d764266ce95ab26d4a4767c2ec78176")
!1402 = !DILocation(line: 34, column: 19, scope: !1397)
!1403 = !DILocation(line: 35, column: 13, scope: !1404)
!1404 = distinct !DILexicalBlock(scope: !1397, file: !2, line: 35, column: 13)
!1405 = !DILocation(line: 35, column: 15, scope: !1404)
!1406 = !DILocation(line: 35, column: 19, scope: !1404)
!1407 = !DILocation(line: 35, column: 22, scope: !1404)
!1408 = !DILocation(line: 35, column: 24, scope: !1404)
!1409 = !DILocation(line: 35, column: 13, scope: !1397)
!1410 = !DILocation(line: 37, column: 13, scope: !1411)
!1411 = distinct !DILexicalBlock(scope: !1404, file: !2, line: 35, column: 30)
!1412 = !DILocation(line: 38, column: 21, scope: !1411)
!1413 = !DILocation(line: 40, column: 9, scope: !1411)
!1414 = !DILocation(line: 56, column: 1, scope: !1411)
!1415 = !DILocation(line: 56, column: 1, scope: !1388)
!1416 = !DILocation(line: 42, column: 13, scope: !1417)
!1417 = distinct !DILexicalBlock(scope: !1404, file: !2, line: 40, column: 16)
!1418 = !DILocation(line: 43, column: 26, scope: !1417)
!1419 = !DILocation(line: 43, column: 23, scope: !1417)
!1420 = !DILocation(line: 43, column: 30, scope: !1417)
!1421 = !DILocation(line: 43, column: 47, scope: !1417)
!1422 = !DILocation(line: 44, column: 26, scope: !1417)
!1423 = !DILocation(line: 44, column: 13, scope: !1417)
!1424 = !DILocation(line: 46, column: 10, scope: !1397)
!1425 = !DILocation(line: 47, column: 5, scope: !1397)
!1426 = !DILocation(line: 47, column: 14, scope: !1388)
!1427 = !DILocation(line: 47, column: 16, scope: !1388)
!1428 = distinct !{!1428, !1395, !1429, !1430}
!1429 = !DILocation(line: 47, column: 20, scope: !1388)
!1430 = !{!"llvm.loop.mustprogress"}
!1431 = !DILocalVariable(name: "i", scope: !1432, file: !2, line: 49, type: !661)
!1432 = distinct !DILexicalBlock(scope: !1388, file: !2, line: 49, column: 5)
!1433 = !DILocation(line: 49, column: 17, scope: !1432)
!1434 = !DILocation(line: 49, column: 10, scope: !1432)
!1435 = !DILocation(line: 49, column: 24, scope: !1436)
!1436 = distinct !DILexicalBlock(scope: !1432, file: !2, line: 49, column: 5)
!1437 = !DILocation(line: 49, column: 36, scope: !1436)
!1438 = !DILocation(line: 49, column: 26, scope: !1436)
!1439 = !DILocation(line: 49, column: 5, scope: !1432)
!1440 = !DILocation(line: 50, column: 30, scope: !1441)
!1441 = distinct !DILexicalBlock(scope: !1436, file: !2, line: 49, column: 49)
!1442 = !DILocation(line: 50, column: 22, scope: !1441)
!1443 = !DILocation(line: 50, column: 19, scope: !1441)
!1444 = !DILocation(line: 50, column: 33, scope: !1441)
!1445 = !DILocation(line: 50, column: 50, scope: !1441)
!1446 = !DILocation(line: 51, column: 30, scope: !1441)
!1447 = !DILocation(line: 51, column: 22, scope: !1441)
!1448 = !DILocation(line: 51, column: 9, scope: !1441)
!1449 = !DILocation(line: 52, column: 5, scope: !1441)
!1450 = !DILocation(line: 49, column: 45, scope: !1436)
!1451 = !DILocation(line: 49, column: 5, scope: !1436)
!1452 = distinct !{!1452, !1439, !1453, !1430}
!1453 = !DILocation(line: 52, column: 5, scope: !1432)
!1454 = !DILocation(line: 54, column: 15, scope: !1388)
!1455 = !DILocation(line: 54, column: 42, scope: !1388)
!1456 = !DILocation(line: 54, column: 39, scope: !1388)
!1457 = !DILocation(line: 54, column: 44, scope: !1388)
!1458 = !DILocation(line: 55, column: 5, scope: !1388)
!1459 = distinct !DISubprogram(name: "vector", linkageName: "_ZNSt6vectorImSaImEEC2Ev", scope: !42, file: !36, line: 528, type: !313, scopeLine: 528, flags: DIFlagPrototyped, spFlags: DISPFlagDefinition, unit: !29, declaration: !312, retainedNodes: !167)
!1460 = !DILocalVariable(name: "this", arg: 1, scope: !1459, type: !1461, flags: DIFlagArtificial | DIFlagObjectPointer)
!1461 = !DIDerivedType(tag: DW_TAG_pointer_type, baseType: !42, size: 64)
!1462 = !DILocation(line: 0, scope: !1459)
!1463 = !DILocation(line: 528, column: 7, scope: !1459)
!1464 = !DILocation(line: 528, column: 24, scope: !1459)
!1465 = distinct !DISubprogram(name: "push_back", linkageName: "_ZNSt6vectorImSaImEE9push_backERKm", scope: !42, file: !36, line: 1278, type: !458, scopeLine: 1279, flags: DIFlagPrototyped, spFlags: DISPFlagDefinition, unit: !29, declaration: !457, retainedNodes: !167)
!1466 = !DILocalVariable(name: "this", arg: 1, scope: !1465, type: !1461, flags: DIFlagArtificial | DIFlagObjectPointer)
!1467 = !DILocation(line: 0, scope: !1465)
!1468 = !DILocalVariable(name: "__x", arg: 2, scope: !1465, file: !36, line: 1278, type: !328)
!1469 = !DILocation(line: 1278, column: 35, scope: !1465)
!1470 = !DILocation(line: 1280, column: 12, scope: !1471)
!1471 = distinct !DILexicalBlock(scope: !1465, file: !36, line: 1280, column: 6)
!1472 = !DILocation(line: 1280, column: 20, scope: !1471)
!1473 = !DILocation(line: 1280, column: 39, scope: !1471)
!1474 = !DILocation(line: 1280, column: 47, scope: !1471)
!1475 = !DILocation(line: 1280, column: 30, scope: !1471)
!1476 = !DILocation(line: 1280, column: 6, scope: !1465)
!1477 = !DILocation(line: 1283, column: 37, scope: !1478)
!1478 = distinct !DILexicalBlock(scope: !1471, file: !36, line: 1281, column: 4)
!1479 = !DILocation(line: 1283, column: 52, scope: !1478)
!1480 = !DILocation(line: 1283, column: 60, scope: !1478)
!1481 = !DILocation(line: 1284, column: 10, scope: !1478)
!1482 = !DILocalVariable(name: "__a", arg: 1, scope: !1483, file: !60, line: 532, type: !67)
!1483 = distinct !DISubprogram(name: "construct<unsigned long, const unsigned long &>", linkageName: "_ZNSt16allocator_traitsISaImEE9constructImJRKmEEEvRS0_PT_DpOT0_", scope: !59, file: !60, line: 532, type: !1484, scopeLine: 535, flags: DIFlagPrototyped, spFlags: DISPFlagDefinition, unit: !29, templateParams: !1487, declaration: !1486, retainedNodes: !167)
!1484 = !DISubroutineType(types: !1485)
!1485 = !{null, !67, !66, !102}
!1486 = !DISubprogram(name: "construct<unsigned long, const unsigned long &>", linkageName: "_ZNSt16allocator_traitsISaImEE9constructImJRKmEEEvRS0_PT_DpOT0_", scope: !59, file: !60, line: 532, type: !1484, scopeLine: 532, flags: DIFlagPrototyped | DIFlagStaticMember, spFlags: 0, templateParams: !1487)
!1487 = !{!1488, !1489}
!1488 = !DITemplateTypeParameter(name: "_Up", type: !40)
!1489 = !DITemplateValueParameter(tag: DW_TAG_GNU_template_parameter_pack, name: "_Args", value: !1490)
!1490 = !{!1491}
!1491 = !DITemplateTypeParameter(type: !102)
!1492 = !DILocation(line: 532, column: 28, scope: !1483, inlinedAt: !1493)
!1493 = distinct !DILocation(line: 1283, column: 6, scope: !1478)
!1494 = !DILocalVariable(name: "__p", arg: 2, scope: !1483, file: !60, line: 532, type: !66)
!1495 = !DILocation(line: 532, column: 66, scope: !1483, inlinedAt: !1493)
!1496 = !DILocalVariable(name: "__args", arg: 3, scope: !1483, file: !60, line: 533, type: !102)
!1497 = !DILocation(line: 533, column: 16, scope: !1483, inlinedAt: !1493)
!1498 = !DILocation(line: 537, column: 4, scope: !1483, inlinedAt: !1493)
!1499 = !DILocation(line: 537, column: 18, scope: !1483, inlinedAt: !1493)
!1500 = !DILocation(line: 537, column: 43, scope: !1483, inlinedAt: !1493)
!1501 = !DILocalVariable(name: "this", arg: 1, scope: !1502, type: !1506, flags: DIFlagArtificial | DIFlagObjectPointer)
!1502 = distinct !DISubprogram(name: "construct<unsigned long, const unsigned long &>", linkageName: "_ZNSt15__new_allocatorImE9constructImJRKmEEEvPT_DpOT0_", scope: !75, file: !76, line: 185, type: !1503, scopeLine: 187, flags: DIFlagPrototyped, spFlags: DISPFlagDefinition, unit: !29, templateParams: !1487, declaration: !1505, retainedNodes: !167)
!1503 = !DISubroutineType(types: !1504)
!1504 = !{null, !81, !66, !102}
!1505 = !DISubprogram(name: "construct<unsigned long, const unsigned long &>", linkageName: "_ZNSt15__new_allocatorImE9constructImJRKmEEEvPT_DpOT0_", scope: !75, file: !76, line: 185, type: !1503, scopeLine: 185, flags: DIFlagPublic | DIFlagPrototyped, spFlags: 0, templateParams: !1487)
!1506 = !DIDerivedType(tag: DW_TAG_pointer_type, baseType: !75, size: 64)
!1507 = !DILocation(line: 0, scope: !1502, inlinedAt: !1508)
!1508 = distinct !DILocation(line: 537, column: 8, scope: !1483, inlinedAt: !1493)
!1509 = !DILocalVariable(name: "__p", arg: 2, scope: !1502, file: !76, line: 185, type: !66)
!1510 = !DILocation(line: 185, column: 17, scope: !1502, inlinedAt: !1508)
!1511 = !DILocalVariable(name: "__args", arg: 3, scope: !1502, file: !76, line: 185, type: !102)
!1512 = !DILocation(line: 185, column: 33, scope: !1502, inlinedAt: !1508)
!1513 = !DILocation(line: 187, column: 18, scope: !1502, inlinedAt: !1508)
!1514 = !DILocation(line: 187, column: 47, scope: !1502, inlinedAt: !1508)
!1515 = !DILocation(line: 187, column: 27, scope: !1502, inlinedAt: !1508)
!1516 = !DILocation(line: 187, column: 4, scope: !1502, inlinedAt: !1508)
!1517 = !DILocation(line: 1285, column: 14, scope: !1478)
!1518 = !DILocation(line: 1285, column: 22, scope: !1478)
!1519 = !DILocation(line: 1285, column: 6, scope: !1478)
!1520 = !DILocation(line: 1287, column: 4, scope: !1478)
!1521 = !DILocation(line: 1289, column: 22, scope: !1471)
!1522 = !DILocation(line: 1289, column: 29, scope: !1471)
!1523 = !DILocation(line: 1289, column: 4, scope: !1471)
!1524 = !DILocation(line: 1290, column: 7, scope: !1465)
!1525 = distinct !DISubprogram(name: "size", linkageName: "_ZNKSt6vectorImSaImEE4sizeEv", scope: !42, file: !36, line: 989, type: !410, scopeLine: 990, flags: DIFlagPrototyped, spFlags: DISPFlagDefinition, unit: !29, declaration: !409, retainedNodes: !167)
!1526 = !DILocalVariable(name: "this", arg: 1, scope: !1525, type: !1527, flags: DIFlagArtificial | DIFlagObjectPointer)
!1527 = !DIDerivedType(tag: DW_TAG_pointer_type, baseType: !335, size: 64)
!1528 = !DILocation(line: 0, scope: !1525)
!1529 = !DILocation(line: 990, column: 32, scope: !1525)
!1530 = !DILocation(line: 990, column: 40, scope: !1525)
!1531 = !DILocation(line: 990, column: 58, scope: !1525)
!1532 = !DILocation(line: 990, column: 66, scope: !1525)
!1533 = !DILocation(line: 990, column: 50, scope: !1525)
!1534 = !DILocation(line: 990, column: 9, scope: !1525)
!1535 = distinct !DISubprogram(name: "operator[]", linkageName: "_ZNSt6vectorImSaImEEixEm", scope: !42, file: !36, line: 1123, type: !424, scopeLine: 1124, flags: DIFlagPrototyped, spFlags: DISPFlagDefinition, unit: !29, declaration: !423, retainedNodes: !167)
!1536 = !DILocalVariable(name: "this", arg: 1, scope: !1535, type: !1461, flags: DIFlagArtificial | DIFlagObjectPointer)
!1537 = !DILocation(line: 0, scope: !1535)
!1538 = !DILocalVariable(name: "__n", arg: 2, scope: !1535, file: !36, line: 1123, type: !35)
!1539 = !DILocation(line: 1123, column: 28, scope: !1535)
!1540 = !DILocation(line: 1126, column: 17, scope: !1535)
!1541 = !DILocation(line: 1126, column: 25, scope: !1535)
!1542 = !DILocation(line: 1126, column: 36, scope: !1535)
!1543 = !DILocation(line: 1126, column: 34, scope: !1535)
!1544 = !DILocation(line: 1126, column: 2, scope: !1535)
!1545 = distinct !DISubprogram(name: "~vector", linkageName: "_ZNSt6vectorImSaImEED2Ev", scope: !42, file: !36, line: 730, type: !313, scopeLine: 731, flags: DIFlagPrototyped, spFlags: DISPFlagDefinition, unit: !29, declaration: !364, retainedNodes: !167)
!1546 = !DILocalVariable(name: "this", arg: 1, scope: !1545, type: !1461, flags: DIFlagArtificial | DIFlagObjectPointer)
!1547 = !DILocation(line: 0, scope: !1545)
!1548 = !DILocation(line: 732, column: 22, scope: !1549)
!1549 = distinct !DILexicalBlock(scope: !1545, file: !36, line: 731, column: 7)
!1550 = !DILocation(line: 732, column: 30, scope: !1549)
!1551 = !DILocation(line: 732, column: 46, scope: !1549)
!1552 = !DILocation(line: 732, column: 54, scope: !1549)
!1553 = !DILocation(line: 733, column: 9, scope: !1549)
!1554 = !DILocalVariable(name: "__first", arg: 1, scope: !1555, file: !60, line: 944, type: !66)
!1555 = distinct !DISubprogram(name: "_Destroy<unsigned long *, unsigned long>", linkageName: "_ZSt8_DestroyIPmmEvT_S1_RSaIT0_E", scope: !39, file: !60, line: 944, type: !1556, scopeLine: 946, flags: DIFlagPrototyped, spFlags: DISPFlagDefinition, unit: !29, templateParams: !1558, retainedNodes: !167)
!1556 = !DISubroutineType(types: !1557)
!1557 = !{null, !66, !66, !130}
!1558 = !{!1559, !117}
!1559 = !DITemplateTypeParameter(name: "_ForwardIterator", type: !66)
!1560 = !DILocation(line: 944, column: 31, scope: !1555, inlinedAt: !1561)
!1561 = distinct !DILocation(line: 732, column: 2, scope: !1549)
!1562 = !DILocalVariable(name: "__last", arg: 2, scope: !1555, file: !60, line: 944, type: !66)
!1563 = !DILocation(line: 944, column: 57, scope: !1555, inlinedAt: !1561)
!1564 = !DILocalVariable(arg: 3, scope: !1555, file: !60, line: 945, type: !130)
!1565 = !DILocation(line: 945, column: 22, scope: !1555, inlinedAt: !1561)
!1566 = !DILocation(line: 947, column: 16, scope: !1555, inlinedAt: !1561)
!1567 = !DILocation(line: 947, column: 25, scope: !1555, inlinedAt: !1561)
!1568 = !DILocation(line: 947, column: 7, scope: !1555, inlinedAt: !1561)
!1569 = !DILocation(line: 948, column: 5, scope: !1555, inlinedAt: !1561)
!1570 = !DILocation(line: 735, column: 7, scope: !1549)
!1571 = !DILocation(line: 735, column: 7, scope: !1545)
!1572 = !DILocation(line: 732, column: 2, scope: !1549)
!1573 = distinct !DISubprogram(name: "_Vector_base", linkageName: "_ZNSt12_Vector_baseImSaImEEC2Ev", scope: !45, file: !36, line: 312, type: !229, scopeLine: 312, flags: DIFlagPrototyped, spFlags: DISPFlagDefinition, unit: !29, declaration: !228, retainedNodes: !167)
!1574 = !DILocalVariable(name: "this", arg: 1, scope: !1573, type: !1575, flags: DIFlagArtificial | DIFlagObjectPointer)
!1575 = !DIDerivedType(tag: DW_TAG_pointer_type, baseType: !45, size: 64)
!1576 = !DILocation(line: 0, scope: !1573)
!1577 = !DILocation(line: 312, column: 7, scope: !1573)
!1578 = !DILocation(line: 312, column: 30, scope: !1573)
!1579 = distinct !DISubprogram(name: "_Vector_impl", linkageName: "_ZNSt12_Vector_baseImSaImEE12_Vector_implC2Ev", scope: !48, file: !36, line: 137, type: !195, scopeLine: 140, flags: DIFlagPrototyped, spFlags: DISPFlagDefinition, unit: !29, declaration: !194, retainedNodes: !167)
!1580 = !DILocalVariable(name: "this", arg: 1, scope: !1579, type: !1581, flags: DIFlagArtificial | DIFlagObjectPointer)
!1581 = !DIDerivedType(tag: DW_TAG_pointer_type, baseType: !48, size: 64)
!1582 = !DILocation(line: 0, scope: !1579)
!1583 = !DILocalVariable(name: "this", arg: 1, scope: !1584, type: !1585, flags: DIFlagArtificial | DIFlagObjectPointer)
!1584 = distinct !DISubprogram(name: "allocator", linkageName: "_ZNSaImEC2Ev", scope: !69, file: !70, line: 163, type: !119, scopeLine: 163, flags: DIFlagPrototyped, spFlags: DISPFlagDefinition, unit: !29, declaration: !118, retainedNodes: !167)
!1585 = !DIDerivedType(tag: DW_TAG_pointer_type, baseType: !69, size: 64)
!1586 = !DILocation(line: 0, scope: !1584, inlinedAt: !1587)
!1587 = distinct !DILocation(line: 139, column: 4, scope: !1579)
!1588 = !DILocalVariable(name: "this", arg: 1, scope: !1589, type: !1506, flags: DIFlagArtificial | DIFlagObjectPointer)
!1589 = distinct !DISubprogram(name: "__new_allocator", linkageName: "_ZNSt15__new_allocatorImEC2Ev", scope: !75, file: !76, line: 88, type: !79, scopeLine: 88, flags: DIFlagPrototyped, spFlags: DISPFlagDefinition, unit: !29, declaration: !78, retainedNodes: !167)
!1590 = !DILocation(line: 0, scope: !1589, inlinedAt: !1591)
!1591 = distinct !DILocation(line: 163, column: 7, scope: !1584, inlinedAt: !1587)
!1592 = !DILocation(line: 137, column: 2, scope: !1579)
!1593 = !DILocation(line: 140, column: 4, scope: !1579)
!1594 = distinct !DISubprogram(name: "_Vector_impl_data", linkageName: "_ZNSt12_Vector_baseImSaImEE17_Vector_impl_dataC2Ev", scope: !170, file: !36, line: 99, type: !178, scopeLine: 101, flags: DIFlagPrototyped, spFlags: DISPFlagDefinition, unit: !29, declaration: !177, retainedNodes: !167)
!1595 = !DILocalVariable(name: "this", arg: 1, scope: !1594, type: !1596, flags: DIFlagArtificial | DIFlagObjectPointer)
!1596 = !DIDerivedType(tag: DW_TAG_pointer_type, baseType: !170, size: 64)
!1597 = !DILocation(line: 0, scope: !1594)
!1598 = !DILocation(line: 100, column: 4, scope: !1594)
!1599 = !DILocation(line: 100, column: 16, scope: !1594)
!1600 = !DILocation(line: 100, column: 29, scope: !1594)
!1601 = !DILocation(line: 101, column: 4, scope: !1594)
!1602 = distinct !DISubprogram(name: "_M_get_Tp_allocator", linkageName: "_ZNSt12_Vector_baseImSaImEE19_M_get_Tp_allocatorEv", scope: !45, file: !36, line: 298, type: !215, scopeLine: 299, flags: DIFlagPrototyped, spFlags: DISPFlagDefinition, unit: !29, declaration: !214, retainedNodes: !167)
!1603 = !DILocalVariable(name: "this", arg: 1, scope: !1602, type: !1575, flags: DIFlagArtificial | DIFlagObjectPointer)
!1604 = !DILocation(line: 0, scope: !1602)
!1605 = !DILocation(line: 299, column: 22, scope: !1602)
!1606 = !DILocation(line: 299, column: 9, scope: !1602)
!1607 = distinct !DISubprogram(name: "~_Vector_base", linkageName: "_ZNSt12_Vector_baseImSaImEED2Ev", scope: !45, file: !36, line: 364, type: !229, scopeLine: 365, flags: DIFlagPrototyped, spFlags: DISPFlagDefinition, unit: !29, declaration: !255, retainedNodes: !167)
!1608 = !DILocalVariable(name: "this", arg: 1, scope: !1607, type: !1575, flags: DIFlagArtificial | DIFlagObjectPointer)
!1609 = !DILocation(line: 0, scope: !1607)
!1610 = !DILocation(line: 366, column: 16, scope: !1611)
!1611 = distinct !DILexicalBlock(scope: !1607, file: !36, line: 365, column: 7)
!1612 = !DILocation(line: 366, column: 24, scope: !1611)
!1613 = !DILocation(line: 367, column: 9, scope: !1611)
!1614 = !DILocation(line: 367, column: 17, scope: !1611)
!1615 = !DILocation(line: 367, column: 37, scope: !1611)
!1616 = !DILocation(line: 367, column: 45, scope: !1611)
!1617 = !DILocation(line: 367, column: 35, scope: !1611)
!1618 = !DILocation(line: 366, column: 2, scope: !1611)
!1619 = !DILocation(line: 368, column: 7, scope: !1611)
!1620 = !DILocation(line: 368, column: 7, scope: !1607)
!1621 = distinct !DISubprogram(name: "_Destroy<unsigned long *>", linkageName: "_ZSt8_DestroyIPmEvT_S1_", scope: !39, file: !1622, line: 182, type: !1623, scopeLine: 183, flags: DIFlagPrototyped, spFlags: DISPFlagDefinition, unit: !29, templateParams: !1625, retainedNodes: !167)
!1622 = !DIFile(filename: "/usr/lib/gcc/x86_64-linux-gnu/13/../../../../include/c++/13/bits/stl_construct.h", directory: "", checksumkind: CSK_MD5, checksum: "d8c38438871764f58e4a882dd7fbb0c7")
!1623 = !DISubroutineType(types: !1624)
!1624 = !{null, !66, !66}
!1625 = !{!1559}
!1626 = !DILocalVariable(name: "__first", arg: 1, scope: !1621, file: !1622, line: 182, type: !66)
!1627 = !DILocation(line: 182, column: 31, scope: !1621)
!1628 = !DILocalVariable(name: "__last", arg: 2, scope: !1621, file: !1622, line: 182, type: !66)
!1629 = !DILocation(line: 182, column: 57, scope: !1621)
!1630 = !DILocation(line: 196, column: 12, scope: !1621)
!1631 = !DILocation(line: 196, column: 21, scope: !1621)
!1632 = !DILocation(line: 195, column: 7, scope: !1621)
!1633 = !DILocation(line: 197, column: 5, scope: !1621)
!1634 = distinct !DISubprogram(name: "__destroy<unsigned long *>", linkageName: "_ZNSt12_Destroy_auxILb1EE9__destroyIPmEEvT_S3_", scope: !1635, file: !1622, line: 172, type: !1623, scopeLine: 172, flags: DIFlagPrototyped, spFlags: DISPFlagDefinition, unit: !29, templateParams: !1625, declaration: !1638, retainedNodes: !167)
!1635 = distinct !DICompositeType(tag: DW_TAG_structure_type, name: "_Destroy_aux<true>", scope: !39, file: !1622, line: 168, size: 8, flags: DIFlagTypePassByValue, elements: !167, templateParams: !1636, identifier: "_ZTSSt12_Destroy_auxILb1EE")
!1636 = !{!1637}
!1637 = !DITemplateValueParameter(type: !160, value: i1 true)
!1638 = !DISubprogram(name: "__destroy<unsigned long *>", linkageName: "_ZNSt12_Destroy_auxILb1EE9__destroyIPmEEvT_S3_", scope: !1635, file: !1622, line: 172, type: !1623, scopeLine: 172, flags: DIFlagPrototyped | DIFlagStaticMember, spFlags: 0, templateParams: !1625)
!1639 = !DILocalVariable(arg: 1, scope: !1634, file: !1622, line: 172, type: !66)
!1640 = !DILocation(line: 172, column: 35, scope: !1634)
!1641 = !DILocalVariable(arg: 2, scope: !1634, file: !1622, line: 172, type: !66)
!1642 = !DILocation(line: 172, column: 53, scope: !1634)
!1643 = !DILocation(line: 172, column: 57, scope: !1634)
!1644 = distinct !DISubprogram(name: "_M_deallocate", linkageName: "_ZNSt12_Vector_baseImSaImEE13_M_deallocateEPmm", scope: !45, file: !36, line: 383, type: !260, scopeLine: 384, flags: DIFlagPrototyped, spFlags: DISPFlagDefinition, unit: !29, declaration: !259, retainedNodes: !167)
!1645 = !DILocalVariable(name: "this", arg: 1, scope: !1644, type: !1575, flags: DIFlagArtificial | DIFlagObjectPointer)
!1646 = !DILocation(line: 0, scope: !1644)
!1647 = !DILocalVariable(name: "__p", arg: 2, scope: !1644, file: !36, line: 383, type: !173)
!1648 = !DILocation(line: 383, column: 29, scope: !1644)
!1649 = !DILocalVariable(name: "__n", arg: 3, scope: !1644, file: !36, line: 383, type: !37)
!1650 = !DILocation(line: 383, column: 41, scope: !1644)
!1651 = !DILocation(line: 386, column: 6, scope: !1652)
!1652 = distinct !DILexicalBlock(scope: !1644, file: !36, line: 386, column: 6)
!1653 = !DILocation(line: 386, column: 6, scope: !1644)
!1654 = !DILocation(line: 387, column: 20, scope: !1652)
!1655 = !DILocation(line: 387, column: 29, scope: !1652)
!1656 = !DILocation(line: 387, column: 34, scope: !1652)
!1657 = !DILocalVariable(name: "__a", arg: 1, scope: !1658, file: !60, line: 515, type: !67)
!1658 = distinct !DISubprogram(name: "deallocate", linkageName: "_ZNSt16allocator_traitsISaImEE10deallocateERS0_Pmm", scope: !59, file: !60, line: 515, type: !138, scopeLine: 516, flags: DIFlagPrototyped, spFlags: DISPFlagDefinition, unit: !29, declaration: !137, retainedNodes: !167)
!1659 = !DILocation(line: 515, column: 34, scope: !1658, inlinedAt: !1660)
!1660 = distinct !DILocation(line: 387, column: 4, scope: !1652)
!1661 = !DILocalVariable(name: "__p", arg: 2, scope: !1658, file: !60, line: 515, type: !65)
!1662 = !DILocation(line: 515, column: 47, scope: !1658, inlinedAt: !1660)
!1663 = !DILocalVariable(name: "__n", arg: 3, scope: !1658, file: !60, line: 515, type: !132)
!1664 = !DILocation(line: 515, column: 62, scope: !1658, inlinedAt: !1660)
!1665 = !DILocation(line: 516, column: 9, scope: !1658, inlinedAt: !1660)
!1666 = !DILocation(line: 516, column: 24, scope: !1658, inlinedAt: !1660)
!1667 = !DILocation(line: 516, column: 29, scope: !1658, inlinedAt: !1660)
!1668 = !DILocation(line: 516, column: 13, scope: !1658, inlinedAt: !1660)
!1669 = !DILocation(line: 387, column: 4, scope: !1652)
!1670 = !DILocation(line: 388, column: 7, scope: !1644)
!1671 = distinct !DISubprogram(name: "~_Vector_impl", linkageName: "_ZNSt12_Vector_baseImSaImEE12_Vector_implD2Ev", scope: !48, file: !36, line: 133, type: !195, scopeLine: 133, flags: DIFlagArtificial | DIFlagPrototyped, spFlags: DISPFlagDefinition, unit: !29, declaration: !1672, retainedNodes: !167)
!1672 = !DISubprogram(name: "~_Vector_impl", scope: !48, type: !195, flags: DIFlagArtificial | DIFlagPrototyped, spFlags: 0)
!1673 = !DILocalVariable(name: "this", arg: 1, scope: !1671, type: !1581, flags: DIFlagArtificial | DIFlagObjectPointer)
!1674 = !DILocation(line: 0, scope: !1671)
!1675 = !DILocalVariable(name: "this", arg: 1, scope: !1676, type: !1585, flags: DIFlagArtificial | DIFlagObjectPointer)
!1676 = distinct !DISubprogram(name: "~allocator", linkageName: "_ZNSaImED2Ev", scope: !69, file: !70, line: 184, type: !119, scopeLine: 184, flags: DIFlagPrototyped, spFlags: DISPFlagDefinition, unit: !29, declaration: !131, retainedNodes: !167)
!1677 = !DILocation(line: 0, scope: !1676, inlinedAt: !1678)
!1678 = distinct !DILocation(line: 133, column: 14, scope: !1679)
!1679 = distinct !DILexicalBlock(scope: !1671, file: !36, line: 133, column: 14)
!1680 = !DILocation(line: 184, column: 39, scope: !1681, inlinedAt: !1678)
!1681 = distinct !DILexicalBlock(scope: !1676, file: !70, line: 184, column: 37)
!1682 = !DILocation(line: 133, column: 14, scope: !1671)
!1683 = distinct !DISubprogram(name: "deallocate", linkageName: "_ZNSt15__new_allocatorImE10deallocateEPmm", scope: !75, file: !76, line: 152, type: !110, scopeLine: 153, flags: DIFlagPrototyped, spFlags: DISPFlagDefinition, unit: !29, declaration: !109, retainedNodes: !167)
!1684 = !DILocalVariable(name: "this", arg: 1, scope: !1683, type: !1506, flags: DIFlagArtificial | DIFlagObjectPointer)
!1685 = !DILocation(line: 0, scope: !1683)
!1686 = !DILocalVariable(name: "__p", arg: 2, scope: !1683, file: !76, line: 152, type: !66)
!1687 = !DILocation(line: 152, column: 23, scope: !1683)
!1688 = !DILocalVariable(name: "__n", arg: 3, scope: !1683, file: !76, line: 152, type: !106)
!1689 = !DILocation(line: 152, column: 38, scope: !1683)
!1690 = !DILocation(line: 168, column: 27, scope: !1683)
!1691 = !DILocation(line: 168, column: 2, scope: !1683)
!1692 = !DILocation(line: 169, column: 7, scope: !1683)
!1693 = distinct !DISubprogram(name: "~__new_allocator", linkageName: "_ZNSt15__new_allocatorImED2Ev", scope: !75, file: !76, line: 100, type: !79, scopeLine: 100, flags: DIFlagPrototyped, spFlags: DISPFlagDefinition, unit: !29, declaration: !87, retainedNodes: !167)
!1694 = !DILocalVariable(name: "this", arg: 1, scope: !1693, type: !1506, flags: DIFlagArtificial | DIFlagObjectPointer)
!1695 = !DILocation(line: 0, scope: !1693)
!1696 = !DILocation(line: 100, column: 50, scope: !1693)
!1697 = distinct !DISubprogram(name: "_M_realloc_insert<const unsigned long &>", linkageName: "_ZNSt6vectorImSaImEE17_M_realloc_insertIJRKmEEEvN9__gnu_cxx17__normal_iteratorIPmS1_EEDpOT_", scope: !42, file: !25, line: 446, type: !1698, scopeLine: 453, flags: DIFlagPrototyped, spFlags: DISPFlagDefinition, unit: !29, templateParams: !1701, declaration: !1700, retainedNodes: !167)
!1698 = !DISubroutineType(types: !1699)
!1699 = !{null, !315, !41, !102}
!1700 = !DISubprogram(name: "_M_realloc_insert<const unsigned long &>", linkageName: "_ZNSt6vectorImSaImEE17_M_realloc_insertIJRKmEEEvN9__gnu_cxx17__normal_iteratorIPmS1_EEDpOT_", scope: !42, file: !36, line: 1870, type: !1698, scopeLine: 1870, flags: DIFlagProtected | DIFlagPrototyped, spFlags: 0, templateParams: !1701)
!1701 = !{!1489}
!1702 = !DILocalVariable(name: "this", arg: 1, scope: !1697, type: !1461, flags: DIFlagArtificial | DIFlagObjectPointer)
!1703 = !DILocation(line: 0, scope: !1697)
!1704 = !DILocalVariable(name: "__position", arg: 2, scope: !1697, file: !36, line: 1870, type: !41)
!1705 = !DILocation(line: 1870, column: 29, scope: !1697)
!1706 = !DILocalVariable(name: "__args", arg: 3, scope: !1697, file: !36, line: 1870, type: !102)
!1707 = !DILocation(line: 1870, column: 52, scope: !1697)
!1708 = !DILocalVariable(name: "__len", scope: !1697, file: !25, line: 454, type: !1709)
!1709 = !DIDerivedType(tag: DW_TAG_const_type, baseType: !35)
!1710 = !DILocation(line: 454, column: 23, scope: !1697)
!1711 = !DILocation(line: 455, column: 2, scope: !1697)
!1712 = !DILocalVariable(name: "__old_start", scope: !1697, file: !25, line: 456, type: !303)
!1713 = !DILocation(line: 456, column: 15, scope: !1697)
!1714 = !DILocation(line: 456, column: 35, scope: !1697)
!1715 = !DILocation(line: 456, column: 43, scope: !1697)
!1716 = !DILocalVariable(name: "__old_finish", scope: !1697, file: !25, line: 457, type: !303)
!1717 = !DILocation(line: 457, column: 15, scope: !1697)
!1718 = !DILocation(line: 457, column: 36, scope: !1697)
!1719 = !DILocation(line: 457, column: 44, scope: !1697)
!1720 = !DILocalVariable(name: "__elems_before", scope: !1697, file: !25, line: 458, type: !1709)
!1721 = !DILocation(line: 458, column: 23, scope: !1697)
!1722 = !DILocation(line: 458, column: 53, scope: !1697)
!1723 = !DILocation(line: 458, column: 51, scope: !1697)
!1724 = !DILocalVariable(name: "__new_start", scope: !1697, file: !25, line: 459, type: !303)
!1725 = !DILocation(line: 459, column: 15, scope: !1697)
!1726 = !DILocation(line: 459, column: 45, scope: !1697)
!1727 = !DILocation(line: 459, column: 33, scope: !1697)
!1728 = !DILocalVariable(name: "__new_finish", scope: !1697, file: !25, line: 460, type: !303)
!1729 = !DILocation(line: 460, column: 15, scope: !1697)
!1730 = !DILocation(line: 460, column: 28, scope: !1697)
!1731 = !DILocation(line: 468, column: 35, scope: !1732)
!1732 = distinct !DILexicalBlock(scope: !1697, file: !25, line: 462, column: 2)
!1733 = !DILocation(line: 469, column: 8, scope: !1732)
!1734 = !DILocation(line: 469, column: 22, scope: !1732)
!1735 = !DILocation(line: 469, column: 20, scope: !1732)
!1736 = !DILocation(line: 471, column: 28, scope: !1732)
!1737 = !DILocation(line: 532, column: 28, scope: !1483, inlinedAt: !1738)
!1738 = distinct !DILocation(line: 468, column: 4, scope: !1732)
!1739 = !DILocation(line: 532, column: 66, scope: !1483, inlinedAt: !1738)
!1740 = !DILocation(line: 533, column: 16, scope: !1483, inlinedAt: !1738)
!1741 = !DILocation(line: 537, column: 4, scope: !1483, inlinedAt: !1738)
!1742 = !DILocation(line: 537, column: 18, scope: !1483, inlinedAt: !1738)
!1743 = !DILocation(line: 537, column: 43, scope: !1483, inlinedAt: !1738)
!1744 = !DILocation(line: 0, scope: !1502, inlinedAt: !1745)
!1745 = distinct !DILocation(line: 537, column: 8, scope: !1483, inlinedAt: !1738)
!1746 = !DILocation(line: 185, column: 17, scope: !1502, inlinedAt: !1745)
!1747 = !DILocation(line: 185, column: 33, scope: !1502, inlinedAt: !1745)
!1748 = !DILocation(line: 187, column: 18, scope: !1502, inlinedAt: !1745)
!1749 = !DILocation(line: 187, column: 47, scope: !1502, inlinedAt: !1745)
!1750 = !DILocation(line: 187, column: 27, scope: !1502, inlinedAt: !1745)
!1751 = !DILocation(line: 187, column: 4, scope: !1502, inlinedAt: !1745)
!1752 = !DILocation(line: 475, column: 17, scope: !1732)
!1753 = !DILocation(line: 480, column: 35, scope: !1754)
!1754 = distinct !DILexicalBlock(scope: !1755, file: !25, line: 479, column: 6)
!1755 = distinct !DILexicalBlock(scope: !1732, file: !25, line: 478, column: 29)
!1756 = !DILocation(line: 480, column: 59, scope: !1754)
!1757 = !DILocation(line: 481, column: 7, scope: !1754)
!1758 = !DILocation(line: 481, column: 20, scope: !1754)
!1759 = !DILocation(line: 480, column: 23, scope: !1754)
!1760 = !DILocation(line: 480, column: 21, scope: !1754)
!1761 = !DILocation(line: 483, column: 8, scope: !1754)
!1762 = !DILocation(line: 485, column: 46, scope: !1754)
!1763 = !DILocation(line: 485, column: 54, scope: !1754)
!1764 = !DILocation(line: 486, column: 7, scope: !1754)
!1765 = !DILocation(line: 486, column: 21, scope: !1754)
!1766 = !DILocation(line: 485, column: 23, scope: !1754)
!1767 = !DILocation(line: 485, column: 21, scope: !1754)
!1768 = !DILocation(line: 519, column: 21, scope: !1697)
!1769 = !DILocation(line: 520, column: 13, scope: !1697)
!1770 = !DILocation(line: 520, column: 21, scope: !1697)
!1771 = !DILocation(line: 520, column: 41, scope: !1697)
!1772 = !DILocation(line: 520, column: 39, scope: !1697)
!1773 = !DILocation(line: 519, column: 7, scope: !1697)
!1774 = !DILocation(line: 521, column: 32, scope: !1697)
!1775 = !DILocation(line: 521, column: 13, scope: !1697)
!1776 = !DILocation(line: 521, column: 21, scope: !1697)
!1777 = !DILocation(line: 521, column: 30, scope: !1697)
!1778 = !DILocation(line: 522, column: 33, scope: !1697)
!1779 = !DILocation(line: 522, column: 13, scope: !1697)
!1780 = !DILocation(line: 522, column: 21, scope: !1697)
!1781 = !DILocation(line: 522, column: 31, scope: !1697)
!1782 = !DILocation(line: 523, column: 41, scope: !1697)
!1783 = !DILocation(line: 523, column: 55, scope: !1697)
!1784 = !DILocation(line: 523, column: 53, scope: !1697)
!1785 = !DILocation(line: 523, column: 13, scope: !1697)
!1786 = !DILocation(line: 523, column: 21, scope: !1697)
!1787 = !DILocation(line: 523, column: 39, scope: !1697)
!1788 = !DILocation(line: 524, column: 5, scope: !1697)
!1789 = distinct !DISubprogram(name: "end", linkageName: "_ZNSt6vectorImSaImEE3endEv", scope: !42, file: !36, line: 890, type: !382, scopeLine: 891, flags: DIFlagPrototyped, spFlags: DISPFlagDefinition, unit: !29, declaration: !391, retainedNodes: !167)
!1790 = !DILocalVariable(name: "this", arg: 1, scope: !1789, type: !1461, flags: DIFlagArtificial | DIFlagObjectPointer)
!1791 = !DILocation(line: 0, scope: !1789)
!1792 = !DILocation(line: 891, column: 31, scope: !1789)
!1793 = !DILocation(line: 891, column: 39, scope: !1789)
!1794 = !DILocation(line: 891, column: 16, scope: !1789)
!1795 = !DILocation(line: 891, column: 9, scope: !1789)
!1796 = distinct !DISubprogram(name: "_M_check_len", linkageName: "_ZNKSt6vectorImSaImEE12_M_check_lenEmPKc", scope: !42, file: !36, line: 1893, type: !500, scopeLine: 1894, flags: DIFlagPrototyped, spFlags: DISPFlagDefinition, unit: !29, declaration: !499, retainedNodes: !167)
!1797 = !DILocalVariable(name: "this", arg: 1, scope: !1796, type: !1527, flags: DIFlagArtificial | DIFlagObjectPointer)
!1798 = !DILocation(line: 0, scope: !1796)
!1799 = !DILocalVariable(name: "__n", arg: 2, scope: !1796, file: !36, line: 1893, type: !35)
!1800 = !DILocation(line: 1893, column: 30, scope: !1796)
!1801 = !DILocalVariable(name: "__s", arg: 3, scope: !1796, file: !36, line: 1893, type: !503)
!1802 = !DILocation(line: 1893, column: 47, scope: !1796)
!1803 = !DILocation(line: 1895, column: 6, scope: !1804)
!1804 = distinct !DILexicalBlock(scope: !1796, file: !36, line: 1895, column: 6)
!1805 = !DILocation(line: 1895, column: 19, scope: !1804)
!1806 = !DILocation(line: 1895, column: 17, scope: !1804)
!1807 = !DILocation(line: 1895, column: 28, scope: !1804)
!1808 = !DILocation(line: 1895, column: 26, scope: !1804)
!1809 = !DILocation(line: 1895, column: 6, scope: !1796)
!1810 = !DILocation(line: 1896, column: 25, scope: !1804)
!1811 = !DILocation(line: 1896, column: 4, scope: !1804)
!1812 = !DILocalVariable(name: "__len", scope: !1796, file: !36, line: 1898, type: !1709)
!1813 = !DILocation(line: 1898, column: 18, scope: !1796)
!1814 = !DILocation(line: 1898, column: 26, scope: !1796)
!1815 = !DILocation(line: 1898, column: 46, scope: !1796)
!1816 = !DILocation(line: 1898, column: 35, scope: !1796)
!1817 = !DILocation(line: 1898, column: 33, scope: !1796)
!1818 = !DILocation(line: 1899, column: 10, scope: !1796)
!1819 = !DILocation(line: 1899, column: 18, scope: !1796)
!1820 = !DILocation(line: 1899, column: 16, scope: !1796)
!1821 = !DILocation(line: 1899, column: 25, scope: !1796)
!1822 = !DILocation(line: 1899, column: 28, scope: !1796)
!1823 = !DILocation(line: 1899, column: 36, scope: !1796)
!1824 = !DILocation(line: 1899, column: 34, scope: !1796)
!1825 = !DILocation(line: 1899, column: 9, scope: !1796)
!1826 = !DILocation(line: 1899, column: 50, scope: !1796)
!1827 = !DILocation(line: 1899, column: 63, scope: !1796)
!1828 = !DILocation(line: 1899, column: 2, scope: !1796)
!1829 = distinct !DISubprogram(name: "operator-<unsigned long *, std::vector<unsigned long, std::allocator<unsigned long> > >", linkageName: "_ZN9__gnu_cxxmiIPmSt6vectorImSaImEEEENS_17__normal_iteratorIT_T0_E15difference_typeERKS8_SB_", scope: !56, file: !389, line: 1334, type: !1830, scopeLine: 1337, flags: DIFlagPrototyped, spFlags: DISPFlagDefinition, unit: !29, templateParams: !584, retainedNodes: !167)
!1830 = !DISubroutineType(types: !1831)
!1831 = !{!569, !1832, !1832}
!1832 = !DIDerivedType(tag: DW_TAG_reference_type, baseType: !551, size: 64)
!1833 = !DILocalVariable(name: "__lhs", arg: 1, scope: !1829, file: !389, line: 1334, type: !1832)
!1834 = !DILocation(line: 1334, column: 63, scope: !1829)
!1835 = !DILocalVariable(name: "__rhs", arg: 2, scope: !1829, file: !389, line: 1335, type: !1832)
!1836 = !DILocation(line: 1335, column: 56, scope: !1829)
!1837 = !DILocation(line: 1337, column: 14, scope: !1829)
!1838 = !DILocation(line: 1337, column: 20, scope: !1829)
!1839 = !DILocation(line: 1337, column: 29, scope: !1829)
!1840 = !DILocation(line: 1337, column: 35, scope: !1829)
!1841 = !DILocation(line: 1337, column: 27, scope: !1829)
!1842 = !DILocation(line: 1337, column: 7, scope: !1829)
!1843 = distinct !DISubprogram(name: "begin", linkageName: "_ZNSt6vectorImSaImEE5beginEv", scope: !42, file: !36, line: 870, type: !382, scopeLine: 871, flags: DIFlagPrototyped, spFlags: DISPFlagDefinition, unit: !29, declaration: !381, retainedNodes: !167)
!1844 = !DILocalVariable(name: "this", arg: 1, scope: !1843, type: !1461, flags: DIFlagArtificial | DIFlagObjectPointer)
!1845 = !DILocation(line: 0, scope: !1843)
!1846 = !DILocation(line: 871, column: 31, scope: !1843)
!1847 = !DILocation(line: 871, column: 39, scope: !1843)
!1848 = !DILocation(line: 871, column: 16, scope: !1843)
!1849 = !DILocation(line: 871, column: 9, scope: !1843)
!1850 = distinct !DISubprogram(name: "_M_allocate", linkageName: "_ZNSt12_Vector_baseImSaImEE11_M_allocateEm", scope: !45, file: !36, line: 375, type: !257, scopeLine: 376, flags: DIFlagPrototyped, spFlags: DISPFlagDefinition, unit: !29, declaration: !256, retainedNodes: !167)
!1851 = !DILocalVariable(name: "this", arg: 1, scope: !1850, type: !1575, flags: DIFlagArtificial | DIFlagObjectPointer)
!1852 = !DILocation(line: 0, scope: !1850)
!1853 = !DILocalVariable(name: "__n", arg: 2, scope: !1850, file: !36, line: 375, type: !37)
!1854 = !DILocation(line: 375, column: 26, scope: !1850)
!1855 = !DILocation(line: 378, column: 9, scope: !1850)
!1856 = !DILocation(line: 378, column: 13, scope: !1850)
!1857 = !DILocation(line: 378, column: 34, scope: !1850)
!1858 = !DILocation(line: 378, column: 43, scope: !1850)
!1859 = !DILocalVariable(name: "__a", arg: 1, scope: !1860, file: !60, line: 481, type: !67)
!1860 = distinct !DISubprogram(name: "allocate", linkageName: "_ZNSt16allocator_traitsISaImEE8allocateERS0_m", scope: !59, file: !60, line: 481, type: !63, scopeLine: 482, flags: DIFlagPrototyped, spFlags: DISPFlagDefinition, unit: !29, declaration: !62, retainedNodes: !167)
!1861 = !DILocation(line: 481, column: 32, scope: !1860, inlinedAt: !1862)
!1862 = distinct !DILocation(line: 378, column: 20, scope: !1850)
!1863 = !DILocalVariable(name: "__n", arg: 2, scope: !1860, file: !60, line: 481, type: !132)
!1864 = !DILocation(line: 481, column: 47, scope: !1860, inlinedAt: !1862)
!1865 = !DILocation(line: 482, column: 16, scope: !1860, inlinedAt: !1862)
!1866 = !DILocation(line: 482, column: 29, scope: !1860, inlinedAt: !1862)
!1867 = !DILocation(line: 482, column: 20, scope: !1860, inlinedAt: !1862)
!1868 = !DILocation(line: 378, column: 2, scope: !1850)
!1869 = distinct !DISubprogram(name: "_S_relocate", linkageName: "_ZNSt6vectorImSaImEE11_S_relocateEPmS2_S2_RS0_", scope: !42, file: !36, line: 501, type: !310, scopeLine: 503, flags: DIFlagPrototyped, spFlags: DISPFlagDefinition, unit: !29, declaration: !309, retainedNodes: !167)
!1870 = !DILocalVariable(name: "__first", arg: 1, scope: !1869, file: !36, line: 501, type: !303)
!1871 = !DILocation(line: 501, column: 27, scope: !1869)
!1872 = !DILocalVariable(name: "__last", arg: 2, scope: !1869, file: !36, line: 501, type: !303)
!1873 = !DILocation(line: 501, column: 44, scope: !1869)
!1874 = !DILocalVariable(name: "__result", arg: 3, scope: !1869, file: !36, line: 501, type: !303)
!1875 = !DILocation(line: 501, column: 60, scope: !1869)
!1876 = !DILocalVariable(name: "__alloc", arg: 4, scope: !1869, file: !36, line: 502, type: !304)
!1877 = !DILocation(line: 502, column: 21, scope: !1869)
!1878 = !DILocation(line: 506, column: 27, scope: !1869)
!1879 = !DILocation(line: 506, column: 36, scope: !1869)
!1880 = !DILocation(line: 506, column: 44, scope: !1869)
!1881 = !DILocation(line: 506, column: 54, scope: !1869)
!1882 = !DILocation(line: 506, column: 9, scope: !1869)
!1883 = !DILocation(line: 506, column: 2, scope: !1869)
!1884 = distinct !DISubprogram(name: "base", linkageName: "_ZNK9__gnu_cxx17__normal_iteratorIPmSt6vectorImSaImEEE4baseEv", scope: !529, file: !389, line: 1162, type: !582, scopeLine: 1163, flags: DIFlagPrototyped, spFlags: DISPFlagDefinition, unit: !29, declaration: !581, retainedNodes: !167)
!1885 = !DILocalVariable(name: "this", arg: 1, scope: !1884, type: !1886, flags: DIFlagArtificial | DIFlagObjectPointer)
!1886 = !DIDerivedType(tag: DW_TAG_pointer_type, baseType: !551, size: 64)
!1887 = !DILocation(line: 0, scope: !1884)
!1888 = !DILocation(line: 1163, column: 16, scope: !1884)
!1889 = !DILocation(line: 1163, column: 9, scope: !1884)
!1890 = distinct !DISubprogram(name: "max_size", linkageName: "_ZNKSt6vectorImSaImEE8max_sizeEv", scope: !42, file: !36, line: 995, type: !410, scopeLine: 996, flags: DIFlagPrototyped, spFlags: DISPFlagDefinition, unit: !29, declaration: !412, retainedNodes: !167)
!1891 = !DILocalVariable(name: "this", arg: 1, scope: !1890, type: !1527, flags: DIFlagArtificial | DIFlagObjectPointer)
!1892 = !DILocation(line: 0, scope: !1890)
!1893 = !DILocation(line: 996, column: 28, scope: !1890)
!1894 = !DILocation(line: 996, column: 16, scope: !1890)
!1895 = !DILocation(line: 996, column: 9, scope: !1890)
!1896 = distinct !DISubprogram(name: "max<unsigned long>", linkageName: "_ZSt3maxImERKT_S2_S2_", scope: !39, file: !1897, line: 257, type: !1898, scopeLine: 258, flags: DIFlagPrototyped, spFlags: DISPFlagDefinition, unit: !29, templateParams: !116, retainedNodes: !167)
!1897 = !DIFile(filename: "/usr/lib/gcc/x86_64-linux-gnu/13/../../../../include/c++/13/bits/stl_algobase.h", directory: "", checksumkind: CSK_MD5, checksum: "8fc8a56a40aa8f840aaf5bc235fc3b17")
!1898 = !DISubroutineType(types: !1899)
!1899 = !{!102, !102, !102}
!1900 = !DILocalVariable(name: "__a", arg: 1, scope: !1896, file: !1897, line: 257, type: !102)
!1901 = !DILocation(line: 257, column: 20, scope: !1896)
!1902 = !DILocalVariable(name: "__b", arg: 2, scope: !1896, file: !1897, line: 257, type: !102)
!1903 = !DILocation(line: 257, column: 36, scope: !1896)
!1904 = !DILocation(line: 262, column: 11, scope: !1905)
!1905 = distinct !DILexicalBlock(scope: !1896, file: !1897, line: 262, column: 11)
!1906 = !DILocation(line: 262, column: 17, scope: !1905)
!1907 = !DILocation(line: 262, column: 15, scope: !1905)
!1908 = !DILocation(line: 262, column: 11, scope: !1896)
!1909 = !DILocation(line: 263, column: 9, scope: !1905)
