; ModuleID = '/home/raj/mongo/src/mongo/util/thread_safety_context_test.cpp'
source_filename = "/home/raj/mongo/src/mongo/util/thread_safety_context_test.cpp"
target datalayout = "e-m:e-p270:32:32-p271:32:32-p272:64:64-i64:64-f80:128-n8:16:32:64-S128"
target triple = "x86_64-unknown-linux-gnu"

%"struct.boost::none_t" = type { i8 }
%"struct.boost::optional_ns::in_place_init_t" = type { i8 }
%"struct.boost::optional_ns::in_place_init_if_t" = type { i8 }
%"class.std::ios_base::Init" = type { i8 }
%"class.mongo::unittest::Test::RegistrationAgent" = type { %"class.mongo::StringData", %"class.mongo::StringData", %"class.mongo::StringData" }
%"class.mongo::StringData" = type { ptr, i64 }
%"class.mongo::unittest::Test::RegistrationAgent.0" = type { %"class.mongo::StringData", %"class.mongo::StringData", %"class.mongo::StringData" }
%"class.mongo::unittest::Test::RegistrationAgent.12" = type { %"class.mongo::StringData", %"class.mongo::StringData", %"class.mongo::StringData" }
%"class.mongo::unittest::Test::RegistrationAgent.13" = type { %"class.mongo::StringData", %"class.mongo::StringData", %"class.mongo::StringData" }
%"struct.boost::none_t::init_tag" = type { i8 }
%"struct.boost::optional_ns::in_place_init_t::init_tag" = type { i8 }
%"struct.boost::optional_ns::in_place_init_if_t::init_tag" = type { i8 }
%"class.std::__cxx11::basic_string" = type { %"struct.std::__cxx11::basic_string<char>::_Alloc_hider", i64, %union.anon }
%"struct.std::__cxx11::basic_string<char>::_Alloc_hider" = type { ptr }
%union.anon = type { i64, [8 x i8] }
%"class.std::function" = type { %"class.std::_Function_base", ptr }
%"class.std::_Function_base" = type { %"union.std::_Any_data", ptr }
%"union.std::_Any_data" = type { %"union.std::_Nocopy_types" }
%"union.std::_Nocopy_types" = type { { i64, i64 } }
%class.anon.26 = type { i8 }
%"class.std::vector" = type { %"struct.std::_Vector_base" }
%"struct.std::_Vector_base" = type { %"struct.std::_Vector_base<mongo::stdx::thread, std::allocator<mongo::stdx::thread>>::_Vector_impl" }
%"struct.std::_Vector_base<mongo::stdx::thread, std::allocator<mongo::stdx::thread>>::_Vector_impl" = type { %"struct.std::_Vector_base<mongo::stdx::thread, std::allocator<mongo::stdx::thread>>::_Vector_impl_data" }
%"struct.std::_Vector_base<mongo::stdx::thread, std::allocator<mongo::stdx::thread>>::_Vector_impl_data" = type { ptr, ptr, ptr }
%class.anon = type { i8 }
%"class.__gnu_cxx::__normal_iterator" = type { ptr }
%"class.mongo::stdx::thread" = type { %"class.std::thread" }
%"class.std::thread" = type { %"class.std::thread::id" }
%"class.std::thread::id" = type { i64 }
%class.anon.58 = type { i8 }
%class.anon.1 = type { i8 }
%class.anon.84 = type <{ %"class.mongo::stdx::support::SigAltStackController", %class.anon.1, %"class.std::tuple.43", [6 x i8] }>
%"class.mongo::stdx::support::SigAltStackController" = type { %"class.std::unique_ptr" }
%"class.std::unique_ptr" = type { %"struct.std::__uniq_ptr_data" }
%"struct.std::__uniq_ptr_data" = type { %"class.std::__uniq_ptr_impl" }
%"class.std::__uniq_ptr_impl" = type { %"class.std::tuple" }
%"class.std::tuple" = type { %"struct.std::_Tuple_impl" }
%"struct.std::_Tuple_impl" = type { %"struct.std::_Head_base.42" }
%"struct.std::_Head_base.42" = type { ptr }
%"class.std::tuple.43" = type { i8 }
%"class.mongo::Duration" = type { i64 }
%class.anon.91 = type { i8 }
%"class.mongo::unittest::Barrier" = type { i64, i64, i64, %"class.std::mutex", %"class.mongo::stdx::condition_variable" }
%"class.std::mutex" = type { %"class.std::__mutex_base" }
%"class.std::__mutex_base" = type { %union.pthread_mutex_t }
%union.pthread_mutex_t = type { %struct.__pthread_mutex_s }
%struct.__pthread_mutex_s = type { i32, i32, i32, i32, i32, i16, i16, %struct.__pthread_internal_list }
%struct.__pthread_internal_list = type { ptr, ptr }
%"class.mongo::stdx::condition_variable" = type { %"class.std::_V2::condition_variable_any", %"class.mongo::AtomicWord.3", %"class.std::mutex", %"class.std::__cxx11::list" }
%"class.std::_V2::condition_variable_any" = type { %"class.std::condition_variable", %"class.std::shared_ptr" }
%"class.std::condition_variable" = type { %"class.std::__condvar" }
%"class.std::__condvar" = type { %union.pthread_cond_t }
%union.pthread_cond_t = type { %struct.__pthread_cond_s }
%struct.__pthread_cond_s = type { %union.__atomic_wide_counter, %union.__atomic_wide_counter, [2 x i32], [2 x i32], i32, i32, [2 x i32] }
%union.__atomic_wide_counter = type { i64 }
%"class.std::shared_ptr" = type { %"class.std::__shared_ptr" }
%"class.std::__shared_ptr" = type { ptr, %"class.std::__shared_count" }
%"class.std::__shared_count" = type { ptr }
%"class.mongo::AtomicWord.3" = type { %"class.mongo::atomic_word_detail::Base.4" }
%"class.mongo::atomic_word_detail::Base.4" = type { %"class.mongo::atomic_word_detail::Base.5" }
%"class.mongo::atomic_word_detail::Base.5" = type { %"class.mongo::atomic_word_detail::Base.6" }
%"class.mongo::atomic_word_detail::Base.6" = type { %"struct.std::atomic.7" }
%"struct.std::atomic.7" = type { %"struct.std::__atomic_base.8" }
%"struct.std::__atomic_base.8" = type { i64 }
%"class.std::__cxx11::list" = type { %"class.std::__cxx11::_List_base" }
%"class.std::__cxx11::_List_base" = type { %"struct.std::__cxx11::_List_base<mongo::Notifyable *, std::allocator<mongo::Notifyable *>>::_List_impl" }
%"struct.std::__cxx11::_List_base<mongo::Notifyable *, std::allocator<mongo::Notifyable *>>::_List_impl" = type { %"struct.std::__detail::_List_node_header" }
%"struct.std::__detail::_List_node_header" = type { %"struct.std::__detail::_List_node_base", i64 }
%"struct.std::__detail::_List_node_base" = type { ptr, ptr }
%class.anon.106 = type { i8 }
%class.anon.14 = type { i8 }
%"struct.mongo::StringData::TrustedInitTag" = type { i8 }
%class.anon.16 = type { i8 }
%"class.std::allocator.18" = type { i8 }
%"struct.std::forward_iterator_tag" = type { i8 }
%"struct.std::random_access_iterator_tag" = type { i8 }
%"struct.std::_List_node" = type { %"struct.std::__detail::_List_node_base", %"struct.__gnu_cxx::__aligned_membuf" }
%"struct.__gnu_cxx::__aligned_membuf" = type { [8 x i8] }
%"class.std::_Sp_counted_base" = type { ptr, i32, i32 }
%"class.mongo::ThreadSafetyContext" = type { %"class.mongo::AtomicWord", %"class.mongo::AtomicWord" }
%"class.mongo::AtomicWord" = type { %"class.mongo::atomic_word_detail::Base" }
%"class.mongo::atomic_word_detail::Base" = type { %"struct.std::atomic" }
%"struct.std::atomic" = type { %"struct.std::__atomic_base" }
%"struct.std::__atomic_base" = type { i8 }
%"struct.std::integral_constant" = type { i8 }
%"struct.std::__invoke_other" = type { i8 }
%"class.mongo::UnitTest_SuiteNameThreadSafetyContextTestTestNameCreateThreadsWithNoSafetyContext" = type { %"class.mongo::ThreadSafetyContextTest" }
%"class.mongo::ThreadSafetyContextTest" = type { %"class.mongo::unittest::Test" }
%"class.mongo::unittest::Test" = type { ptr }
%"class.mongo::Duration.28" = type { i64 }
%class.anon.29 = type { i8 }
%"class.mongo::Status" = type { ptr }
%"struct.mongo::Status::ErrorInfo" = type { %"class.mongo::AtomicWord.31", i32, %"class.std::__cxx11::basic_string", %"class.std::shared_ptr.37" }
%"class.mongo::AtomicWord.31" = type { %"class.mongo::atomic_word_detail::Base.32" }
%"class.mongo::atomic_word_detail::Base.32" = type { %"class.mongo::atomic_word_detail::Base.33" }
%"class.mongo::atomic_word_detail::Base.33" = type { %"class.mongo::atomic_word_detail::Base.34" }
%"class.mongo::atomic_word_detail::Base.34" = type { %"struct.std::atomic.35" }
%"struct.std::atomic.35" = type { %"struct.std::__atomic_base.36" }
%"struct.std::__atomic_base.36" = type { i32 }
%"class.std::shared_ptr.37" = type { %"class.std::__shared_ptr.38" }
%"class.std::__shared_ptr.38" = type { ptr, %"class.std::__shared_count" }
%class.anon.40 = type <{ %"class.mongo::stdx::support::SigAltStackController", %class.anon, %"class.std::tuple.43", [6 x i8] }>
%"class.std::unique_ptr.45" = type { %"struct.std::__uniq_ptr_data.46" }
%"struct.std::__uniq_ptr_data.46" = type { %"class.std::__uniq_ptr_impl.47" }
%"class.std::__uniq_ptr_impl.47" = type { %"class.std::tuple.48" }
%"class.std::tuple.48" = type { %"struct.std::_Tuple_impl.49" }
%"struct.std::_Tuple_impl.49" = type { %"struct.std::_Head_base.52" }
%"struct.std::_Head_base.52" = type { ptr }
%"struct.std::thread::_State_impl" = type { %"struct.std::thread::_State", %"struct.std::thread::_Invoker" }
%"struct.std::thread::_State" = type { ptr }
%"struct.std::thread::_Invoker" = type { %"class.std::tuple.53" }
%"class.std::tuple.53" = type { %"struct.std::_Tuple_impl.54" }
%"struct.std::_Tuple_impl.54" = type { %"struct.std::_Head_base.55" }
%"struct.std::_Head_base.55" = type { %class.anon.40 }
%"struct.std::_Index_tuple" = type { i8 }
%struct.Guard = type { ptr }
%"struct.std::integer_sequence" = type { i8 }
%struct.stack_t = type { ptr, i32, i64 }
%"class.mongo::unittest::DeathTest" = type { %"class.mongo::unittest::DeathTestBase", %"class.std::function.60" }
%"class.mongo::unittest::DeathTestBase" = type { %"class.mongo::unittest::Test" }
%"class.std::function.60" = type { %"class.std::_Function_base", ptr }
%class.anon.70 = type { i8 }
%"class.std::unique_ptr.62" = type { %"struct.std::__uniq_ptr_data.63" }
%"struct.std::__uniq_ptr_data.63" = type { %"class.std::__uniq_ptr_impl.64" }
%"class.std::__uniq_ptr_impl.64" = type { %"class.std::tuple.65" }
%"class.std::tuple.65" = type { %"struct.std::_Tuple_impl.66" }
%"struct.std::_Tuple_impl.66" = type { %"struct.std::_Head_base.69" }
%"struct.std::_Head_base.69" = type { ptr }
%"class.std::unique_ptr.72" = type { %"struct.std::__uniq_ptr_data.73" }
%"struct.std::__uniq_ptr_data.73" = type { %"class.std::__uniq_ptr_impl.74" }
%"class.std::__uniq_ptr_impl.74" = type { %"class.std::tuple.75" }
%"class.std::tuple.75" = type { %"struct.std::_Tuple_impl.76" }
%"struct.std::_Tuple_impl.76" = type { %"struct.std::_Head_base.79" }
%"struct.std::_Head_base.79" = type { ptr }
%"struct.std::thread::_State_impl.86" = type { %"struct.std::thread::_State", %"struct.std::thread::_Invoker.87" }
%"struct.std::thread::_Invoker.87" = type { %"class.std::tuple.88" }
%"class.std::tuple.88" = type { %"struct.std::_Tuple_impl.89" }
%"struct.std::_Tuple_impl.89" = type { %"struct.std::_Head_base.90" }
%"struct.std::_Head_base.90" = type { %class.anon.84 }
%"class.mongo::unittest::DeathTest.93" = type { %"class.mongo::unittest::DeathTestBase", %"class.std::function.60" }
%class.anon.94 = type { i8 }
%"class.std::unique_ptr.96" = type { %"struct.std::__uniq_ptr_data.97" }
%"struct.std::__uniq_ptr_data.97" = type { %"class.std::__uniq_ptr_impl.98" }
%"class.std::__uniq_ptr_impl.98" = type { %"class.std::tuple.99" }
%"class.std::tuple.99" = type { %"struct.std::_Tuple_impl.100" }
%"struct.std::_Tuple_impl.100" = type { %"struct.std::_Head_base.103" }
%"struct.std::_Head_base.103" = type { ptr }
%"class.mongo::UnitTest_SuiteNameThreadSafetyContextTestTestNameCreateThreadsAfterSafetyContext" = type { %"class.mongo::ThreadSafetyContextTest" }
%class.anon.108 = type <{ %"class.mongo::stdx::support::SigAltStackController", %class.anon.14, %"class.std::tuple.43", [6 x i8] }>
%"struct.std::thread::_State_impl.110" = type { %"struct.std::thread::_State", %"struct.std::thread::_Invoker.111" }
%"struct.std::thread::_Invoker.111" = type { %"class.std::tuple.112" }
%"class.std::tuple.112" = type { %"struct.std::_Tuple_impl.113" }
%"struct.std::_Tuple_impl.113" = type { %"struct.std::_Head_base.114" }
%"struct.std::_Head_base.114" = type { %class.anon.108 }

$_ZN5boost4noneE = comdat any

$_ZN5boost6none_tC2ENS0_8init_tagE = comdat any

$_ZN5boost11optional_ns15in_place_init_tC2ENS1_8init_tagE = comdat any

$_ZN5boost11optional_ns18in_place_init_if_tC2ENS1_8init_tagE = comdat any

$_ZN5mongo81UnitTest_SuiteNameThreadSafetyContextTestTestNameCreateThreadsWithNoSafetyContext6_agentE = comdat any

$_ZN5mongo10StringDataC2EPKc = comdat any

$_ZN5mongo8unittest4Test17RegistrationAgentINS_81UnitTest_SuiteNameThreadSafetyContextTestTestNameCreateThreadsWithNoSafetyContextEEC2ENS_10StringDataES5_S5_ = comdat any

$_ZNSt6vectorIN5mongo4stdx6threadESaIS2_EEC2Ev = comdat any

$_ZNSt6vectorIN5mongo4stdx6threadESaIS2_EEixEm = comdat any

$_ZNSt6vectorIN5mongo4stdx6threadESaIS2_EED2Ev = comdat any

$_ZN5mongo90UnitTest_SuiteNameThreadSafetyContextTestTestNameCreateThreadsAfterForbidingMultiThreading6_agentE = comdat any

$_ZN5mongo8unittest4Test17RegistrationAgentINS0_9DeathTestINS_90UnitTest_SuiteNameThreadSafetyContextTestTestNameCreateThreadsAfterForbidingMultiThreadingEEEEC2ENS_10StringDataES7_S7_ = comdat any

$_ZN5mongo4stdx6threadD2Ev = comdat any

$_ZN5mongo8sleepForINS_8DurationISt5ratioILl1ELl1000EEEEEEvT_ = comdat any

$_ZN5mongo8DurationISt5ratioILl1ELl1000EEEC2IiLi0EEERKT_ = comdat any

$_ZN5mongo89UnitTest_SuiteNameThreadSafetyContextTestTestNameForbidMultiThreadingAfterCreatingThreads6_agentE = comdat any

$_ZN5mongo8unittest4Test17RegistrationAgentINS0_9DeathTestINS_89UnitTest_SuiteNameThreadSafetyContextTestTestNameForbidMultiThreadingAfterCreatingThreadsEEEEC2ENS_10StringDataES7_S7_ = comdat any

$_ZN5mongo8unittest7BarrierD2Ev = comdat any

$_ZN5mongo80UnitTest_SuiteNameThreadSafetyContextTestTestNameCreateThreadsAfterSafetyContext6_agentE = comdat any

$_ZN5mongo8unittest4Test17RegistrationAgentINS_80UnitTest_SuiteNameThreadSafetyContextTestTestNameCreateThreadsAfterSafetyContextEEC2ENS_10StringDataES5_S5_ = comdat any

$_ZN5mongo81UnitTest_SuiteNameThreadSafetyContextTestTestNameCreateThreadsWithNoSafetyContextD2Ev = comdat any

$_ZN5mongo81UnitTest_SuiteNameThreadSafetyContextTestTestNameCreateThreadsWithNoSafetyContextD0Ev = comdat any

$_ZN5mongo23ThreadSafetyContextTest5setUpEv = comdat any

$_ZN5mongo23ThreadSafetyContextTest8tearDownEv = comdat any

$_ZN5mongo90UnitTest_SuiteNameThreadSafetyContextTestTestNameCreateThreadsAfterForbidingMultiThreadingD2Ev = comdat any

$_ZN5mongo90UnitTest_SuiteNameThreadSafetyContextTestTestNameCreateThreadsAfterForbidingMultiThreadingD0Ev = comdat any

$_ZN5mongo89UnitTest_SuiteNameThreadSafetyContextTestTestNameForbidMultiThreadingAfterCreatingThreadsD2Ev = comdat any

$_ZN5mongo89UnitTest_SuiteNameThreadSafetyContextTestTestNameForbidMultiThreadingAfterCreatingThreadsD0Ev = comdat any

$_ZN5mongo80UnitTest_SuiteNameThreadSafetyContextTestTestNameCreateThreadsAfterSafetyContextD2Ev = comdat any

$_ZN5mongo80UnitTest_SuiteNameThreadSafetyContextTestTestNameCreateThreadsAfterSafetyContextD0Ev = comdat any

$_ZN5mongo10StringDataC2EPKcm = comdat any

$_ZN5mongo10StringDataC2EPKcmNS0_14TrustedInitTagE = comdat any

$_ZN5mongo31invariantWithContextAndLocationIiZNS_10StringDataC1EPKcmEUlvE_EEvRKT_S3_OT0_S3_j = comdat any

$_ZZN5mongo10StringDataC1EPKcmENKUlvE_clB5cxx11Ev = comdat any

$_ZNSt7__cxx1112basic_stringIcSt11char_traitsIcESaIcEEC2IS3_EEPKcRKS3_ = comdat any

$_ZNSt11char_traitsIcE6lengthEPKc = comdat any

$_ZNSt7__cxx1112basic_stringIcSt11char_traitsIcESaIcEE12_M_constructIPKcEEvT_S8_St20forward_iterator_tag = comdat any

$_ZNSt7__cxx1112basic_stringIcSt11char_traitsIcESaIcEE12_Alloc_hiderD2Ev = comdat any

$_ZN9__gnu_cxx11char_traitsIcE6lengthEPKc = comdat any

$_ZN9__gnu_cxx11char_traitsIcE2eqERKcS3_ = comdat any

$_ZN9__gnu_cxx17__is_null_pointerIKcEEbPT_ = comdat any

$_ZSt8distanceIPKcENSt15iterator_traitsIT_E15difference_typeES3_S3_ = comdat any

$__clang_call_terminate = comdat any

$_ZSt10__distanceIPKcENSt15iterator_traitsIT_E15difference_typeES3_S3_St26random_access_iterator_tag = comdat any

$_ZSt19__iterator_categoryIPKcENSt15iterator_traitsIT_E17iterator_categoryERKS3_ = comdat any

$_ZNSt12_Vector_baseIN5mongo4stdx6threadESaIS2_EEC2Ev = comdat any

$_ZNSt12_Vector_baseIN5mongo4stdx6threadESaIS2_EE12_Vector_implC2Ev = comdat any

$_ZNSaIN5mongo4stdx6threadEEC2Ev = comdat any

$_ZNSt12_Vector_baseIN5mongo4stdx6threadESaIS2_EE17_Vector_impl_dataC2Ev = comdat any

$_ZN9__gnu_cxx13new_allocatorIN5mongo4stdx6threadEEC2Ev = comdat any

$_ZNSt6threadD2Ev = comdat any

$_ZNKSt6thread8joinableEv = comdat any

$_ZSteqNSt6thread2idES0_ = comdat any

$_ZNSt6thread2idC2Ev = comdat any

$_ZN5mongo4stdx18condition_variableD2Ev = comdat any

$_ZNSt7__cxx114listIPN5mongo10NotifyableESaIS3_EED2Ev = comdat any

$_ZNSt3_V222condition_variable_anyD2Ev = comdat any

$_ZNSt7__cxx1110_List_baseIPN5mongo10NotifyableESaIS3_EED2Ev = comdat any

$_ZNSt7__cxx1110_List_baseIPN5mongo10NotifyableESaIS3_EE8_M_clearEv = comdat any

$_ZNSt7__cxx1110_List_baseIPN5mongo10NotifyableESaIS3_EE10_List_implD2Ev = comdat any

$_ZNSt10_List_nodeIPN5mongo10NotifyableEE9_M_valptrEv = comdat any

$_ZNSt16allocator_traitsISaISt10_List_nodeIPN5mongo10NotifyableEEEE7destroyIS3_EEvRS5_PT_ = comdat any

$_ZNSt7__cxx1110_List_baseIPN5mongo10NotifyableESaIS3_EE21_M_get_Node_allocatorEv = comdat any

$_ZNSt7__cxx1110_List_baseIPN5mongo10NotifyableESaIS3_EE11_M_put_nodeEPSt10_List_nodeIS3_E = comdat any

$_ZN9__gnu_cxx16__aligned_membufIPN5mongo10NotifyableEE6_M_ptrEv = comdat any

$_ZN9__gnu_cxx16__aligned_membufIPN5mongo10NotifyableEE7_M_addrEv = comdat any

$_ZN9__gnu_cxx13new_allocatorISt10_List_nodeIPN5mongo10NotifyableEEE7destroyIS4_EEvPT_ = comdat any

$_ZNSt16allocator_traitsISaISt10_List_nodeIPN5mongo10NotifyableEEEE10deallocateERS5_PS4_m = comdat any

$_ZN9__gnu_cxx13new_allocatorISt10_List_nodeIPN5mongo10NotifyableEEE10deallocateEPS5_m = comdat any

$_ZNSaISt10_List_nodeIPN5mongo10NotifyableEEED2Ev = comdat any

$_ZN9__gnu_cxx13new_allocatorISt10_List_nodeIPN5mongo10NotifyableEEED2Ev = comdat any

$_ZNSt10shared_ptrISt5mutexED2Ev = comdat any

$_ZNSt12__shared_ptrISt5mutexLN9__gnu_cxx12_Lock_policyE2EED2Ev = comdat any

$_ZNSt14__shared_countILN9__gnu_cxx12_Lock_policyE2EED2Ev = comdat any

$_ZNSt16_Sp_counted_baseILN9__gnu_cxx12_Lock_policyE2EE10_M_releaseEv = comdat any

$_ZN5mongo23ThreadSafetyContextTest12resetContextEv = comdat any

$_ZN5mongo18atomic_word_detail4BaseIbLNS0_8CategoryE0EE5storeEb = comdat any

$_ZNSt6atomicIbE5storeEbSt12memory_order = comdat any

$_ZStanSt12memory_orderSt23__memory_order_modifier = comdat any

$_ZNK5mongo10StringDatacvNSt7__cxx1112basic_stringIcSt11char_traitsIcESaIcEEEEv = comdat any

$_ZNSt8functionIFvvEEC2IZN5mongo8unittest4Test17RegistrationAgentINS3_81UnitTest_SuiteNameThreadSafetyContextTestTestNameCreateThreadsWithNoSafetyContextEEC1ENS3_10StringDataES9_S9_EUlvE_vEEOT_ = comdat any

$_ZNSt8functionIFvvEED2Ev = comdat any

$_ZNK5mongo10StringData8toStringB5cxx11Ev = comdat any

$_ZNK5mongo10StringData4sizeEv = comdat any

$_ZNSt14_Function_baseC2Ev = comdat any

$_ZNSt14_Function_base13_Base_managerIZN5mongo8unittest4Test17RegistrationAgentINS1_81UnitTest_SuiteNameThreadSafetyContextTestTestNameCreateThreadsWithNoSafetyContextEEC1ENS1_10StringDataES7_S7_EUlvE_E21_M_not_empty_functionIS8_EEbRKT_ = comdat any

$_ZNSt14_Function_base13_Base_managerIZN5mongo8unittest4Test17RegistrationAgentINS1_81UnitTest_SuiteNameThreadSafetyContextTestTestNameCreateThreadsWithNoSafetyContextEEC1ENS1_10StringDataES7_S7_EUlvE_E15_M_init_functorIS8_EEvRSt9_Any_dataOT_ = comdat any

$_ZNSt17_Function_handlerIFvvEZN5mongo8unittest4Test17RegistrationAgentINS1_81UnitTest_SuiteNameThreadSafetyContextTestTestNameCreateThreadsWithNoSafetyContextEEC1ENS1_10StringDataES7_S7_EUlvE_E9_M_invokeERKSt9_Any_data = comdat any

$_ZNSt17_Function_handlerIFvvEZN5mongo8unittest4Test17RegistrationAgentINS1_81UnitTest_SuiteNameThreadSafetyContextTestTestNameCreateThreadsWithNoSafetyContextEEC1ENS1_10StringDataES7_S7_EUlvE_E10_M_managerERSt9_Any_dataRKSA_St18_Manager_operation = comdat any

$_ZNSt14_Function_base13_Base_managerIZN5mongo8unittest4Test17RegistrationAgentINS1_81UnitTest_SuiteNameThreadSafetyContextTestTestNameCreateThreadsWithNoSafetyContextEEC1ENS1_10StringDataES7_S7_EUlvE_E9_M_createIS8_EEvRSt9_Any_dataOT_St17integral_constantIbLb1EE = comdat any

$_ZNSt9_Any_data9_M_accessEv = comdat any

$_ZSt10__invoke_rIvRZN5mongo8unittest4Test17RegistrationAgentINS0_81UnitTest_SuiteNameThreadSafetyContextTestTestNameCreateThreadsWithNoSafetyContextEEC1ENS0_10StringDataES6_S6_EUlvE_JEENSt9enable_ifIX16is_invocable_r_vIT_T0_DpT1_EESA_E4typeEOSB_DpOSC_ = comdat any

$_ZNSt14_Function_base13_Base_managerIZN5mongo8unittest4Test17RegistrationAgentINS1_81UnitTest_SuiteNameThreadSafetyContextTestTestNameCreateThreadsWithNoSafetyContextEEC1ENS1_10StringDataES7_S7_EUlvE_E14_M_get_pointerERKSt9_Any_data = comdat any

$_ZSt13__invoke_implIvRZN5mongo8unittest4Test17RegistrationAgentINS0_81UnitTest_SuiteNameThreadSafetyContextTestTestNameCreateThreadsWithNoSafetyContextEEC1ENS0_10StringDataES6_S6_EUlvE_JEET_St14__invoke_otherOT0_DpOT1_ = comdat any

$_ZZN5mongo8unittest4Test17RegistrationAgentINS_81UnitTest_SuiteNameThreadSafetyContextTestTestNameCreateThreadsWithNoSafetyContextEEC1ENS_10StringDataES5_S5_ENKUlvE_clEv = comdat any

$_ZN5mongo81UnitTest_SuiteNameThreadSafetyContextTestTestNameCreateThreadsWithNoSafetyContextC2Ev = comdat any

$_ZN5mongo23ThreadSafetyContextTestC2Ev = comdat any

$_ZN5mongo23ThreadSafetyContextTestD2Ev = comdat any

$_ZN5mongo23ThreadSafetyContextTestD0Ev = comdat any

$_ZNKSt9_Any_data9_M_accessIZN5mongo8unittest4Test17RegistrationAgentINS1_81UnitTest_SuiteNameThreadSafetyContextTestTestNameCreateThreadsWithNoSafetyContextEEC1ENS1_10StringDataES7_S7_EUlvE_EERKT_v = comdat any

$_ZNKSt9_Any_data9_M_accessEv = comdat any

$_ZNSt9_Any_data9_M_accessIPKSt9type_infoEERT_v = comdat any

$_ZNSt9_Any_data9_M_accessIPZN5mongo8unittest4Test17RegistrationAgentINS1_81UnitTest_SuiteNameThreadSafetyContextTestTestNameCreateThreadsWithNoSafetyContextEEC1ENS1_10StringDataES7_S7_EUlvE_EERT_v = comdat any

$_ZNSt14_Function_base13_Base_managerIZN5mongo8unittest4Test17RegistrationAgentINS1_81UnitTest_SuiteNameThreadSafetyContextTestTestNameCreateThreadsWithNoSafetyContextEEC1ENS1_10StringDataES7_S7_EUlvE_E10_M_managerERSt9_Any_dataRKSA_St18_Manager_operation = comdat any

$_ZNSt14_Function_base13_Base_managerIZN5mongo8unittest4Test17RegistrationAgentINS1_81UnitTest_SuiteNameThreadSafetyContextTestTestNameCreateThreadsWithNoSafetyContextEEC1ENS1_10StringDataES7_S7_EUlvE_E15_M_init_functorIRKS8_EEvRSt9_Any_dataOT_ = comdat any

$_ZNSt14_Function_base13_Base_managerIZN5mongo8unittest4Test17RegistrationAgentINS1_81UnitTest_SuiteNameThreadSafetyContextTestTestNameCreateThreadsWithNoSafetyContextEEC1ENS1_10StringDataES7_S7_EUlvE_E10_M_destroyERSt9_Any_dataSt17integral_constantIbLb1EE = comdat any

$_ZNSt14_Function_base13_Base_managerIZN5mongo8unittest4Test17RegistrationAgentINS1_81UnitTest_SuiteNameThreadSafetyContextTestTestNameCreateThreadsWithNoSafetyContextEEC1ENS1_10StringDataES7_S7_EUlvE_E9_M_createIRKS8_EEvRSt9_Any_dataOT_St17integral_constantIbLb1EE = comdat any

$_ZNSt9_Any_data9_M_accessIZN5mongo8unittest4Test17RegistrationAgentINS1_81UnitTest_SuiteNameThreadSafetyContextTestTestNameCreateThreadsWithNoSafetyContextEEC1ENS1_10StringDataES7_S7_EUlvE_EERT_v = comdat any

$_ZNSt14_Function_baseD2Ev = comdat any

$_ZSt8_DestroyIPN5mongo4stdx6threadES2_EvT_S4_RSaIT0_E = comdat any

$_ZNSt12_Vector_baseIN5mongo4stdx6threadESaIS2_EE19_M_get_Tp_allocatorEv = comdat any

$_ZNSt12_Vector_baseIN5mongo4stdx6threadESaIS2_EED2Ev = comdat any

$_ZSt8_DestroyIPN5mongo4stdx6threadEEvT_S4_ = comdat any

$_ZNSt12_Destroy_auxILb0EE9__destroyIPN5mongo4stdx6threadEEEvT_S6_ = comdat any

$_ZSt8_DestroyIN5mongo4stdx6threadEEvPT_ = comdat any

$_ZNSt12_Vector_baseIN5mongo4stdx6threadESaIS2_EE13_M_deallocateEPS2_m = comdat any

$_ZNSt12_Vector_baseIN5mongo4stdx6threadESaIS2_EE12_Vector_implD2Ev = comdat any

$_ZNSt16allocator_traitsISaIN5mongo4stdx6threadEEE10deallocateERS3_PS2_m = comdat any

$_ZN9__gnu_cxx13new_allocatorIN5mongo4stdx6threadEE10deallocateEPS3_m = comdat any

$_ZNSaIN5mongo4stdx6threadEED2Ev = comdat any

$_ZN9__gnu_cxx13new_allocatorIN5mongo4stdx6threadEED2Ev = comdat any

$_ZN5mongo13durationCountINS_8DurationISt5ratioILl1ELl1000000EEEENS1_IS2_ILl1ELl1000EEEEEExT0_ = comdat any

$_ZN5mongo13duration_castINS_8DurationISt5ratioILl1ELl1000000EEEES2_ILl1ELl1000EEEET_RKNS1_IT0_EE = comdat any

$_ZNK5mongo8DurationISt5ratioILl1ELl1000000EEE5countEv = comdat any

$_ZN5mongo8overflow3mulIlEEbNS_4stdx13type_identityIT_E4typeES6_PS4_ = comdat any

$_ZNK5mongo8DurationISt5ratioILl1ELl1000EEE5countEv = comdat any

$_ZZN5mongo13duration_castINS_8DurationISt5ratioILl1ELl1000000EEEES2_ILl1ELl1000EEEET_RKNS1_IT0_EEENKUlvE_clEv = comdat any

$_ZN5mongo8DurationISt5ratioILl1ELl1000000EEEC2IlLi0EEERKT_ = comdat any

$_ZN5mongo13error_details10makeStatusIRA80_KcEENS_6StatusEiOT_ = comdat any

$_ZN5mongo6StatusD2Ev = comdat any

$_ZN5mongo6Status5unrefEPNS0_9ErrorInfoE = comdat any

$_ZN5mongo18atomic_word_detail4BaseIjLNS0_8CategoryE1EE16subtractAndFetchEj = comdat any

$_ZN5mongo6Status9ErrorInfoD2Ev = comdat any

$_ZN5mongo18atomic_word_detail4BaseIjLNS0_8CategoryE1EE16fetchAndSubtractEj = comdat any

$_ZNSt10shared_ptrIKN5mongo14ErrorExtraInfoEED2Ev = comdat any

$_ZNSt12__shared_ptrIKN5mongo14ErrorExtraInfoELN9__gnu_cxx12_Lock_policyE2EED2Ev = comdat any

$_ZNSt6vectorIN5mongo4stdx6threadESaIS2_EE3endEv = comdat any

$_ZNSt6vectorIN5mongo4stdx6threadESaIS2_EE4backEv = comdat any

$_ZN5mongo4stdx7support21SigAltStackControllerC2Ev = comdat any

$_ZSt10make_tupleIJEESt5tupleIJDpNSt25__strip_reference_wrapperINSt5decayIT_E4typeEE6__typeEEEDpOS3_ = comdat any

$_ZSt11make_uniqueIA_St4byteENSt9_MakeUniqIT_E7__arrayEm = comdat any

$_ZNK5mongo4stdx7support21SigAltStackController12getStackSizeEv = comdat any

$_ZNSt10unique_ptrIA_St4byteSt14default_deleteIS1_EEC2IPS0_S3_vbEET_ = comdat any

$_ZNSt15__uniq_ptr_dataISt4byteSt14default_deleteIA_S0_ELb1ELb1EECI2St15__uniq_ptr_implIS0_S3_EEPS0_ = comdat any

$_ZNSt15__uniq_ptr_implISt4byteSt14default_deleteIA_S0_EEC2EPS0_ = comdat any

$_ZNSt5tupleIJPSt4byteSt14default_deleteIA_S0_EEEC2ILb1ELb1EEEv = comdat any

$_ZNSt15__uniq_ptr_implISt4byteSt14default_deleteIA_S0_EE6_M_ptrEv = comdat any

$_ZNSt11_Tuple_implILm0EJPSt4byteSt14default_deleteIA_S0_EEEC2Ev = comdat any

$_ZNSt11_Tuple_implILm1EJSt14default_deleteIA_St4byteEEEC2Ev = comdat any

$_ZNSt10_Head_baseILm0EPSt4byteLb0EEC2Ev = comdat any

$_ZNSt10_Head_baseILm1ESt14default_deleteIA_St4byteELb1EEC2Ev = comdat any

$_ZSt3getILm0EJPSt4byteSt14default_deleteIA_S0_EEERNSt13tuple_elementIXT_ESt5tupleIJDpT0_EEE4typeERS9_ = comdat any

$_ZSt12__get_helperILm0EPSt4byteJSt14default_deleteIA_S0_EEERT0_RSt11_Tuple_implIXT_EJS5_DpT1_EE = comdat any

$_ZNSt11_Tuple_implILm0EJPSt4byteSt14default_deleteIA_S0_EEE7_M_headERS5_ = comdat any

$_ZNSt10_Head_baseILm0EPSt4byteLb0EE7_M_headERS2_ = comdat any

$_ZNSt10unique_ptrINSt6thread6_StateESt14default_deleteIS1_EEC2IS3_vEEPS1_ = comdat any

$_ZNSt10unique_ptrINSt6thread6_StateESt14default_deleteIS1_EED2Ev = comdat any

$_ZNSt6thread6_StateC2Ev = comdat any

$_ZN5mongo4stdx7support21SigAltStackControllerC2EOS2_ = comdat any

$_ZNSt10unique_ptrIA_St4byteSt14default_deleteIS1_EEC2EOS4_ = comdat any

$_ZNSt15__uniq_ptr_dataISt4byteSt14default_deleteIA_S0_ELb1ELb1EEC2EOS4_ = comdat any

$_ZNSt15__uniq_ptr_implISt4byteSt14default_deleteIA_S0_EEC2EOS4_ = comdat any

$_ZNSt5tupleIJPSt4byteSt14default_deleteIA_S0_EEEC2EOS5_ = comdat any

$_ZNSt11_Tuple_implILm0EJPSt4byteSt14default_deleteIA_S0_EEEC2EOS5_ = comdat any

$_ZNSt11_Tuple_implILm1EJSt14default_deleteIA_St4byteEEEC2EOS4_ = comdat any

$_ZNK5mongo4stdx7support21SigAltStackController16makeInstallGuardEv = comdat any

$_ZZNK5mongo4stdx7support21SigAltStackController16makeInstallGuardEvEN5GuardD2Ev = comdat any

$_ZZNK5mongo4stdx7support21SigAltStackController16makeInstallGuardEvEN5GuardC2ERKS2_ = comdat any

$_ZNK5mongo4stdx7support21SigAltStackController8_installEv = comdat any

$_ZNKSt10unique_ptrIA_St4byteSt14default_deleteIS1_EE3getEv = comdat any

$_ZNKSt15__uniq_ptr_implISt4byteSt14default_deleteIA_S0_EE6_M_ptrEv = comdat any

$_ZSt3getILm0EJPSt4byteSt14default_deleteIA_S0_EEERKNSt13tuple_elementIXT_ESt5tupleIJDpT0_EEE4typeERKS9_ = comdat any

$_ZSt12__get_helperILm0EPSt4byteJSt14default_deleteIA_S0_EEERKT0_RKSt11_Tuple_implIXT_EJS5_DpT1_EE = comdat any

$_ZNSt11_Tuple_implILm0EJPSt4byteSt14default_deleteIA_S0_EEE7_M_headERKS5_ = comdat any

$_ZNSt10_Head_baseILm0EPSt4byteLb0EE7_M_headERKS2_ = comdat any

$_ZNK5mongo4stdx7support21SigAltStackController10_uninstallEv = comdat any

$_ZNSt15__uniq_ptr_dataINSt6thread6_StateESt14default_deleteIS1_ELb1ELb1EECI2St15__uniq_ptr_implIS1_S3_EEPS1_ = comdat any

$_ZNSt15__uniq_ptr_implINSt6thread6_StateESt14default_deleteIS1_EEC2EPS1_ = comdat any

$_ZNSt5tupleIJPNSt6thread6_StateESt14default_deleteIS1_EEEC2ILb1ELb1EEEv = comdat any

$_ZNSt15__uniq_ptr_implINSt6thread6_StateESt14default_deleteIS1_EE6_M_ptrEv = comdat any

$_ZNSt11_Tuple_implILm0EJPNSt6thread6_StateESt14default_deleteIS1_EEEC2Ev = comdat any

$_ZNSt11_Tuple_implILm1EJSt14default_deleteINSt6thread6_StateEEEEC2Ev = comdat any

$_ZNSt10_Head_baseILm0EPNSt6thread6_StateELb0EEC2Ev = comdat any

$_ZNSt10_Head_baseILm1ESt14default_deleteINSt6thread6_StateEELb1EEC2Ev = comdat any

$_ZSt3getILm0EJPNSt6thread6_StateESt14default_deleteIS1_EEERNSt13tuple_elementIXT_ESt5tupleIJDpT0_EEE4typeERS9_ = comdat any

$_ZSt12__get_helperILm0EPNSt6thread6_StateEJSt14default_deleteIS1_EEERT0_RSt11_Tuple_implIXT_EJS5_DpT1_EE = comdat any

$_ZNSt11_Tuple_implILm0EJPNSt6thread6_StateESt14default_deleteIS1_EEE7_M_headERS5_ = comdat any

$_ZNSt10_Head_baseILm0EPNSt6thread6_StateELb0EE7_M_headERS3_ = comdat any

$_ZNSt10unique_ptrINSt6thread6_StateESt14default_deleteIS1_EE11get_deleterEv = comdat any

$_ZNKSt14default_deleteINSt6thread6_StateEEclEPS1_ = comdat any

$_ZNSt15__uniq_ptr_implINSt6thread6_StateESt14default_deleteIS1_EE10_M_deleterEv = comdat any

$_ZSt3getILm1EJPNSt6thread6_StateESt14default_deleteIS1_EEERNSt13tuple_elementIXT_ESt5tupleIJDpT0_EEE4typeERS9_ = comdat any

$_ZSt12__get_helperILm1ESt14default_deleteINSt6thread6_StateEEJEERT0_RSt11_Tuple_implIXT_EJS4_DpT1_EE = comdat any

$_ZNSt11_Tuple_implILm1EJSt14default_deleteINSt6thread6_StateEEEE7_M_headERS4_ = comdat any

$_ZNSt10_Head_baseILm1ESt14default_deleteINSt6thread6_StateEELb1EE7_M_headERS4_ = comdat any

$_ZN5mongo4stdx7support21SigAltStackControllerD2Ev = comdat any

$_ZNSt10unique_ptrIA_St4byteSt14default_deleteIS1_EED2Ev = comdat any

$_ZNSt10unique_ptrIA_St4byteSt14default_deleteIS1_EE11get_deleterEv = comdat any

$_ZNKSt14default_deleteIA_St4byteEclIS0_EENSt9enable_ifIXsr14is_convertibleIPA_T_PS1_EE5valueEvE4typeEPS5_ = comdat any

$_ZNSt15__uniq_ptr_implISt4byteSt14default_deleteIA_S0_EE10_M_deleterEv = comdat any

$_ZSt3getILm1EJPSt4byteSt14default_deleteIA_S0_EEERNSt13tuple_elementIXT_ESt5tupleIJDpT0_EEE4typeERS9_ = comdat any

$_ZSt12__get_helperILm1ESt14default_deleteIA_St4byteEJEERT0_RSt11_Tuple_implIXT_EJS4_DpT1_EE = comdat any

$_ZNSt11_Tuple_implILm1EJSt14default_deleteIA_St4byteEEE7_M_headERS4_ = comdat any

$_ZNSt10_Head_baseILm1ESt14default_deleteIA_St4byteELb1EE7_M_headERS4_ = comdat any

$_ZNKSt6vectorIN5mongo4stdx6threadESaIS2_EE12_M_check_lenEmPKc = comdat any

$_ZN9__gnu_cxxmiIPN5mongo4stdx6threadESt6vectorIS3_SaIS3_EEEENS_17__normal_iteratorIT_T0_E15difference_typeERKSB_SE_ = comdat any

$_ZNSt6vectorIN5mongo4stdx6threadESaIS2_EE5beginEv = comdat any

$_ZNSt12_Vector_baseIN5mongo4stdx6threadESaIS2_EE11_M_allocateEm = comdat any

$_ZNSt6vectorIN5mongo4stdx6threadESaIS2_EE11_S_relocateEPS2_S5_S5_RS3_ = comdat any

$_ZNK9__gnu_cxx17__normal_iteratorIPN5mongo4stdx6threadESt6vectorIS3_SaIS3_EEE4baseEv = comdat any

$_ZNKSt6vectorIN5mongo4stdx6threadESaIS2_EE8max_sizeEv = comdat any

$_ZNKSt6vectorIN5mongo4stdx6threadESaIS2_EE4sizeEv = comdat any

$_ZSt3maxImERKT_S2_S2_ = comdat any

$_ZNSt6vectorIN5mongo4stdx6threadESaIS2_EE11_S_max_sizeERKS3_ = comdat any

$_ZNKSt12_Vector_baseIN5mongo4stdx6threadESaIS2_EE19_M_get_Tp_allocatorEv = comdat any

$_ZNSt16allocator_traitsISaIN5mongo4stdx6threadEEE8max_sizeERKS3_ = comdat any

$_ZSt3minImERKT_S2_S2_ = comdat any

$_ZNK9__gnu_cxx13new_allocatorIN5mongo4stdx6threadEE8max_sizeEv = comdat any

$_ZNK9__gnu_cxx13new_allocatorIN5mongo4stdx6threadEE11_M_max_sizeEv = comdat any

$_ZN9__gnu_cxx17__normal_iteratorIPN5mongo4stdx6threadESt6vectorIS3_SaIS3_EEEC2ERKS4_ = comdat any

$_ZNSt16allocator_traitsISaIN5mongo4stdx6threadEEE8allocateERS3_m = comdat any

$_ZN9__gnu_cxx13new_allocatorIN5mongo4stdx6threadEE8allocateEmPKv = comdat any

$_ZNSt6vectorIN5mongo4stdx6threadESaIS2_EE14_S_do_relocateEPS2_S5_S5_RS3_St17integral_constantIbLb1EE = comdat any

$_ZSt12__relocate_aIPN5mongo4stdx6threadES3_SaIS2_EET0_T_S6_S5_RT1_ = comdat any

$_ZSt14__relocate_a_1IPN5mongo4stdx6threadES3_SaIS2_EET0_T_S6_S5_RT1_ = comdat any

$_ZSt12__niter_baseIPN5mongo4stdx6threadEET_S4_ = comdat any

$_ZSt19__relocate_object_aIN5mongo4stdx6threadES2_SaIS2_EEvPT_PT0_RT1_ = comdat any

$_ZNSt16allocator_traitsISaIN5mongo4stdx6threadEEE9constructIS2_JS2_EEEvRS3_PT_DpOT0_ = comdat any

$_ZNSt16allocator_traitsISaIN5mongo4stdx6threadEEE7destroyIS2_EEvRS3_PT_ = comdat any

$_ZN9__gnu_cxx13new_allocatorIN5mongo4stdx6threadEE9constructIS3_JS3_EEEvPT_DpOT0_ = comdat any

$_ZN5mongo4stdx6threadC2EOS1_ = comdat any

$_ZNSt6threadC2EOS_ = comdat any

$_ZNSt6thread4swapERS_ = comdat any

$_ZSt4swapINSt6thread2idEENSt9enable_ifIXsr6__and_ISt6__not_ISt15__is_tuple_likeIT_EESt21is_move_constructibleIS5_ESt18is_move_assignableIS5_EEE5valueEvE4typeERS5_SE_ = comdat any

$_ZN9__gnu_cxx13new_allocatorIN5mongo4stdx6threadEE7destroyIS3_EEvPT_ = comdat any

$_ZNK9__gnu_cxx17__normal_iteratorIPN5mongo4stdx6threadESt6vectorIS3_SaIS3_EEEmiEl = comdat any

$_ZNK9__gnu_cxx17__normal_iteratorIPN5mongo4stdx6threadESt6vectorIS3_SaIS3_EEEdeEv = comdat any

$_ZNSt8functionIFvvEEC2IZN5mongo8unittest4Test17RegistrationAgentINS4_9DeathTestINS3_90UnitTest_SuiteNameThreadSafetyContextTestTestNameCreateThreadsAfterForbidingMultiThreadingEEEEC1ENS3_10StringDataESB_SB_EUlvE_vEEOT_ = comdat any

$_ZNSt14_Function_base13_Base_managerIZN5mongo8unittest4Test17RegistrationAgentINS2_9DeathTestINS1_90UnitTest_SuiteNameThreadSafetyContextTestTestNameCreateThreadsAfterForbidingMultiThreadingEEEEC1ENS1_10StringDataES9_S9_EUlvE_E21_M_not_empty_functionISA_EEbRKT_ = comdat any

$_ZNSt14_Function_base13_Base_managerIZN5mongo8unittest4Test17RegistrationAgentINS2_9DeathTestINS1_90UnitTest_SuiteNameThreadSafetyContextTestTestNameCreateThreadsAfterForbidingMultiThreadingEEEEC1ENS1_10StringDataES9_S9_EUlvE_E15_M_init_functorISA_EEvRSt9_Any_dataOT_ = comdat any

$_ZNSt17_Function_handlerIFvvEZN5mongo8unittest4Test17RegistrationAgentINS2_9DeathTestINS1_90UnitTest_SuiteNameThreadSafetyContextTestTestNameCreateThreadsAfterForbidingMultiThreadingEEEEC1ENS1_10StringDataES9_S9_EUlvE_E9_M_invokeERKSt9_Any_data = comdat any

$_ZNSt17_Function_handlerIFvvEZN5mongo8unittest4Test17RegistrationAgentINS2_9DeathTestINS1_90UnitTest_SuiteNameThreadSafetyContextTestTestNameCreateThreadsAfterForbidingMultiThreadingEEEEC1ENS1_10StringDataES9_S9_EUlvE_E10_M_managerERSt9_Any_dataRKSC_St18_Manager_operation = comdat any

$_ZNSt14_Function_base13_Base_managerIZN5mongo8unittest4Test17RegistrationAgentINS2_9DeathTestINS1_90UnitTest_SuiteNameThreadSafetyContextTestTestNameCreateThreadsAfterForbidingMultiThreadingEEEEC1ENS1_10StringDataES9_S9_EUlvE_E9_M_createISA_EEvRSt9_Any_dataOT_St17integral_constantIbLb1EE = comdat any

$_ZSt10__invoke_rIvRZN5mongo8unittest4Test17RegistrationAgentINS1_9DeathTestINS0_90UnitTest_SuiteNameThreadSafetyContextTestTestNameCreateThreadsAfterForbidingMultiThreadingEEEEC1ENS0_10StringDataES8_S8_EUlvE_JEENSt9enable_ifIX16is_invocable_r_vIT_T0_DpT1_EESC_E4typeEOSD_DpOSE_ = comdat any

$_ZNSt14_Function_base13_Base_managerIZN5mongo8unittest4Test17RegistrationAgentINS2_9DeathTestINS1_90UnitTest_SuiteNameThreadSafetyContextTestTestNameCreateThreadsAfterForbidingMultiThreadingEEEEC1ENS1_10StringDataES9_S9_EUlvE_E14_M_get_pointerERKSt9_Any_data = comdat any

$_ZSt13__invoke_implIvRZN5mongo8unittest4Test17RegistrationAgentINS1_9DeathTestINS0_90UnitTest_SuiteNameThreadSafetyContextTestTestNameCreateThreadsAfterForbidingMultiThreadingEEEEC1ENS0_10StringDataES8_S8_EUlvE_JEET_St14__invoke_otherOT0_DpOT1_ = comdat any

$_ZZN5mongo8unittest4Test17RegistrationAgentINS0_9DeathTestINS_90UnitTest_SuiteNameThreadSafetyContextTestTestNameCreateThreadsAfterForbidingMultiThreadingEEEEC1ENS_10StringDataES7_S7_ENKUlvE_clEv = comdat any

$_ZN5mongo8unittest9DeathTestINS_90UnitTest_SuiteNameThreadSafetyContextTestTestNameCreateThreadsAfterForbidingMultiThreadingEEC2IJEEEDpOT_ = comdat any

$_ZN5mongo8unittest9DeathTestINS_90UnitTest_SuiteNameThreadSafetyContextTestTestNameCreateThreadsAfterForbidingMultiThreadingEED2Ev = comdat any

$_ZN5mongo8unittest13DeathTestBaseC2Ev = comdat any

$_ZNSt8functionIFSt10unique_ptrIN5mongo8unittest4TestESt14default_deleteIS3_EEvEEC2IZNS2_9DeathTestINS1_90UnitTest_SuiteNameThreadSafetyContextTestTestNameCreateThreadsAfterForbidingMultiThreadingEEC1IJEEEDpOT_EUlvE_vEEOT_ = comdat any

$_ZN5mongo8unittest9DeathTestINS_90UnitTest_SuiteNameThreadSafetyContextTestTestNameCreateThreadsAfterForbidingMultiThreadingEED0Ev = comdat any

$_ZN5mongo8unittest4Test5setUpEv = comdat any

$_ZN5mongo8unittest4Test8tearDownEv = comdat any

$_ZN5mongo8unittest9DeathTestINS_90UnitTest_SuiteNameThreadSafetyContextTestTestNameCreateThreadsAfterForbidingMultiThreadingEE11_doMakeTestEv = comdat any

$_ZN5mongo8unittest9DeathTestINS_90UnitTest_SuiteNameThreadSafetyContextTestTestNameCreateThreadsAfterForbidingMultiThreadingEE13_doGetPatternB5cxx11Ev = comdat any

$_ZN5mongo8unittest9DeathTestINS_90UnitTest_SuiteNameThreadSafetyContextTestTestNameCreateThreadsAfterForbidingMultiThreadingEE8_isRegexEv = comdat any

$_ZN5mongo8unittest9DeathTestINS_90UnitTest_SuiteNameThreadSafetyContextTestTestNameCreateThreadsAfterForbidingMultiThreadingEE8_getLineEv = comdat any

$_ZN5mongo8unittest9DeathTestINS_90UnitTest_SuiteNameThreadSafetyContextTestTestNameCreateThreadsAfterForbidingMultiThreadingEE8_getFileB5cxx11Ev = comdat any

$_ZNSt14_Function_base13_Base_managerIZN5mongo8unittest9DeathTestINS1_90UnitTest_SuiteNameThreadSafetyContextTestTestNameCreateThreadsAfterForbidingMultiThreadingEEC1IJEEEDpOT_EUlvE_E21_M_not_empty_functionISA_EEbRKT_ = comdat any

$_ZNSt14_Function_base13_Base_managerIZN5mongo8unittest9DeathTestINS1_90UnitTest_SuiteNameThreadSafetyContextTestTestNameCreateThreadsAfterForbidingMultiThreadingEEC1IJEEEDpOT_EUlvE_E15_M_init_functorISA_EEvRSt9_Any_dataOT_ = comdat any

$_ZNSt17_Function_handlerIFSt10unique_ptrIN5mongo8unittest4TestESt14default_deleteIS3_EEvEZNS2_9DeathTestINS1_90UnitTest_SuiteNameThreadSafetyContextTestTestNameCreateThreadsAfterForbidingMultiThreadingEEC1IJEEEDpOT_EUlvE_E9_M_invokeERKSt9_Any_data = comdat any

$_ZNSt17_Function_handlerIFSt10unique_ptrIN5mongo8unittest4TestESt14default_deleteIS3_EEvEZNS2_9DeathTestINS1_90UnitTest_SuiteNameThreadSafetyContextTestTestNameCreateThreadsAfterForbidingMultiThreadingEEC1IJEEEDpOT_EUlvE_E10_M_managerERSt9_Any_dataRKSH_St18_Manager_operation = comdat any

$_ZNSt14_Function_base13_Base_managerIZN5mongo8unittest9DeathTestINS1_90UnitTest_SuiteNameThreadSafetyContextTestTestNameCreateThreadsAfterForbidingMultiThreadingEEC1IJEEEDpOT_EUlvE_E9_M_createISA_EEvRSt9_Any_dataOT_St17integral_constantIbLb1EE = comdat any

$_ZSt10__invoke_rISt10unique_ptrIN5mongo8unittest4TestESt14default_deleteIS3_EERZNS2_9DeathTestINS1_90UnitTest_SuiteNameThreadSafetyContextTestTestNameCreateThreadsAfterForbidingMultiThreadingEEC1IJEEEDpOT_EUlvE_JEENSt9enable_ifIX16is_invocable_r_vIT_T0_DpT1_EESH_E4typeEOSI_DpOSJ_ = comdat any

$_ZNSt14_Function_base13_Base_managerIZN5mongo8unittest9DeathTestINS1_90UnitTest_SuiteNameThreadSafetyContextTestTestNameCreateThreadsAfterForbidingMultiThreadingEEC1IJEEEDpOT_EUlvE_E14_M_get_pointerERKSt9_Any_data = comdat any

$_ZSt13__invoke_implISt10unique_ptrIN5mongo90UnitTest_SuiteNameThreadSafetyContextTestTestNameCreateThreadsAfterForbidingMultiThreadingESt14default_deleteIS2_EERZNS1_8unittest9DeathTestIS2_EC1IJEEEDpOT_EUlvE_JEET_St14__invoke_otherOT0_DpOT1_ = comdat any

$_ZNSt10unique_ptrIN5mongo8unittest4TestESt14default_deleteIS2_EEC2INS0_90UnitTest_SuiteNameThreadSafetyContextTestTestNameCreateThreadsAfterForbidingMultiThreadingES3_IS7_EvEEOS_IT_T0_E = comdat any

$_ZNSt10unique_ptrIN5mongo90UnitTest_SuiteNameThreadSafetyContextTestTestNameCreateThreadsAfterForbidingMultiThreadingESt14default_deleteIS1_EED2Ev = comdat any

$_ZZN5mongo8unittest9DeathTestINS_90UnitTest_SuiteNameThreadSafetyContextTestTestNameCreateThreadsAfterForbidingMultiThreadingEEC1IJEEEDpOT_ENKUlvE_clEv = comdat any

$_ZSt11make_uniqueIN5mongo90UnitTest_SuiteNameThreadSafetyContextTestTestNameCreateThreadsAfterForbidingMultiThreadingEJEENSt9_MakeUniqIT_E15__single_objectEDpOT0_ = comdat any

$_ZN5mongo90UnitTest_SuiteNameThreadSafetyContextTestTestNameCreateThreadsAfterForbidingMultiThreadingC2Ev = comdat any

$_ZNSt10unique_ptrIN5mongo90UnitTest_SuiteNameThreadSafetyContextTestTestNameCreateThreadsAfterForbidingMultiThreadingESt14default_deleteIS1_EEC2IS3_vEEPS1_ = comdat any

$_ZNSt15__uniq_ptr_dataIN5mongo90UnitTest_SuiteNameThreadSafetyContextTestTestNameCreateThreadsAfterForbidingMultiThreadingESt14default_deleteIS1_ELb1ELb1EECI2St15__uniq_ptr_implIS1_S3_EEPS1_ = comdat any

$_ZNSt15__uniq_ptr_implIN5mongo90UnitTest_SuiteNameThreadSafetyContextTestTestNameCreateThreadsAfterForbidingMultiThreadingESt14default_deleteIS1_EEC2EPS1_ = comdat any

$_ZNSt5tupleIJPN5mongo90UnitTest_SuiteNameThreadSafetyContextTestTestNameCreateThreadsAfterForbidingMultiThreadingESt14default_deleteIS1_EEEC2ILb1ELb1EEEv = comdat any

$_ZNSt15__uniq_ptr_implIN5mongo90UnitTest_SuiteNameThreadSafetyContextTestTestNameCreateThreadsAfterForbidingMultiThreadingESt14default_deleteIS1_EE6_M_ptrEv = comdat any

$_ZNSt11_Tuple_implILm0EJPN5mongo90UnitTest_SuiteNameThreadSafetyContextTestTestNameCreateThreadsAfterForbidingMultiThreadingESt14default_deleteIS1_EEEC2Ev = comdat any

$_ZNSt11_Tuple_implILm1EJSt14default_deleteIN5mongo90UnitTest_SuiteNameThreadSafetyContextTestTestNameCreateThreadsAfterForbidingMultiThreadingEEEEC2Ev = comdat any

$_ZNSt10_Head_baseILm0EPN5mongo90UnitTest_SuiteNameThreadSafetyContextTestTestNameCreateThreadsAfterForbidingMultiThreadingELb0EEC2Ev = comdat any

$_ZNSt10_Head_baseILm1ESt14default_deleteIN5mongo90UnitTest_SuiteNameThreadSafetyContextTestTestNameCreateThreadsAfterForbidingMultiThreadingEELb1EEC2Ev = comdat any

$_ZSt3getILm0EJPN5mongo90UnitTest_SuiteNameThreadSafetyContextTestTestNameCreateThreadsAfterForbidingMultiThreadingESt14default_deleteIS1_EEERNSt13tuple_elementIXT_ESt5tupleIJDpT0_EEE4typeERS9_ = comdat any

$_ZSt12__get_helperILm0EPN5mongo90UnitTest_SuiteNameThreadSafetyContextTestTestNameCreateThreadsAfterForbidingMultiThreadingEJSt14default_deleteIS1_EEERT0_RSt11_Tuple_implIXT_EJS5_DpT1_EE = comdat any

$_ZNSt11_Tuple_implILm0EJPN5mongo90UnitTest_SuiteNameThreadSafetyContextTestTestNameCreateThreadsAfterForbidingMultiThreadingESt14default_deleteIS1_EEE7_M_headERS5_ = comdat any

$_ZNSt10_Head_baseILm0EPN5mongo90UnitTest_SuiteNameThreadSafetyContextTestTestNameCreateThreadsAfterForbidingMultiThreadingELb0EE7_M_headERS3_ = comdat any

$_ZNSt10unique_ptrIN5mongo90UnitTest_SuiteNameThreadSafetyContextTestTestNameCreateThreadsAfterForbidingMultiThreadingESt14default_deleteIS1_EE7releaseEv = comdat any

$_ZNSt10unique_ptrIN5mongo90UnitTest_SuiteNameThreadSafetyContextTestTestNameCreateThreadsAfterForbidingMultiThreadingESt14default_deleteIS1_EE11get_deleterEv = comdat any

$_ZNSt15__uniq_ptr_dataIN5mongo8unittest4TestESt14default_deleteIS2_ELb1ELb1EECI2St15__uniq_ptr_implIS2_S4_EIS3_INS0_90UnitTest_SuiteNameThreadSafetyContextTestTestNameCreateThreadsAfterForbidingMultiThreadingEEEEPS2_OT_ = comdat any

$_ZNSt15__uniq_ptr_implIN5mongo90UnitTest_SuiteNameThreadSafetyContextTestTestNameCreateThreadsAfterForbidingMultiThreadingESt14default_deleteIS1_EE7releaseEv = comdat any

$_ZNSt15__uniq_ptr_implIN5mongo90UnitTest_SuiteNameThreadSafetyContextTestTestNameCreateThreadsAfterForbidingMultiThreadingESt14default_deleteIS1_EE10_M_deleterEv = comdat any

$_ZSt3getILm1EJPN5mongo90UnitTest_SuiteNameThreadSafetyContextTestTestNameCreateThreadsAfterForbidingMultiThreadingESt14default_deleteIS1_EEERNSt13tuple_elementIXT_ESt5tupleIJDpT0_EEE4typeERS9_ = comdat any

$_ZSt12__get_helperILm1ESt14default_deleteIN5mongo90UnitTest_SuiteNameThreadSafetyContextTestTestNameCreateThreadsAfterForbidingMultiThreadingEEJEERT0_RSt11_Tuple_implIXT_EJS4_DpT1_EE = comdat any

$_ZNSt11_Tuple_implILm1EJSt14default_deleteIN5mongo90UnitTest_SuiteNameThreadSafetyContextTestTestNameCreateThreadsAfterForbidingMultiThreadingEEEE7_M_headERS4_ = comdat any

$_ZNSt10_Head_baseILm1ESt14default_deleteIN5mongo90UnitTest_SuiteNameThreadSafetyContextTestTestNameCreateThreadsAfterForbidingMultiThreadingEELb1EE7_M_headERS4_ = comdat any

$_ZNSt15__uniq_ptr_implIN5mongo8unittest4TestESt14default_deleteIS2_EEC2IS3_INS0_90UnitTest_SuiteNameThreadSafetyContextTestTestNameCreateThreadsAfterForbidingMultiThreadingEEEEPS2_OT_ = comdat any

$_ZNSt5tupleIJPN5mongo8unittest4TestESt14default_deleteIS2_EEEC2IRS3_S4_INS0_90UnitTest_SuiteNameThreadSafetyContextTestTestNameCreateThreadsAfterForbidingMultiThreadingEELb1EEEOT_OT0_ = comdat any

$_ZNSt11_Tuple_implILm0EJPN5mongo8unittest4TestESt14default_deleteIS2_EEEC2IRS3_JS4_INS0_90UnitTest_SuiteNameThreadSafetyContextTestTestNameCreateThreadsAfterForbidingMultiThreadingEEEvEEOT_DpOT0_ = comdat any

$_ZNSt11_Tuple_implILm1EJSt14default_deleteIN5mongo8unittest4TestEEEEC2IS0_INS1_90UnitTest_SuiteNameThreadSafetyContextTestTestNameCreateThreadsAfterForbidingMultiThreadingEEEEOT_ = comdat any

$_ZNSt10_Head_baseILm0EPN5mongo8unittest4TestELb0EEC2IRS3_EEOT_ = comdat any

$_ZNSt10_Head_baseILm1ESt14default_deleteIN5mongo8unittest4TestEELb1EEC2IS0_INS1_90UnitTest_SuiteNameThreadSafetyContextTestTestNameCreateThreadsAfterForbidingMultiThreadingEEEEOT_ = comdat any

$_ZNSt14default_deleteIN5mongo8unittest4TestEEC2INS0_90UnitTest_SuiteNameThreadSafetyContextTestTestNameCreateThreadsAfterForbidingMultiThreadingEvEERKS_IT_E = comdat any

$_ZNKSt14default_deleteIN5mongo90UnitTest_SuiteNameThreadSafetyContextTestTestNameCreateThreadsAfterForbidingMultiThreadingEEclEPS1_ = comdat any

$_ZNKSt9_Any_data9_M_accessIZN5mongo8unittest9DeathTestINS1_90UnitTest_SuiteNameThreadSafetyContextTestTestNameCreateThreadsAfterForbidingMultiThreadingEEC1IJEEEDpOT_EUlvE_EERKT_v = comdat any

$_ZNSt9_Any_data9_M_accessIPZN5mongo8unittest9DeathTestINS1_90UnitTest_SuiteNameThreadSafetyContextTestTestNameCreateThreadsAfterForbidingMultiThreadingEEC1IJEEEDpOT_EUlvE_EERT_v = comdat any

$_ZNSt14_Function_base13_Base_managerIZN5mongo8unittest9DeathTestINS1_90UnitTest_SuiteNameThreadSafetyContextTestTestNameCreateThreadsAfterForbidingMultiThreadingEEC1IJEEEDpOT_EUlvE_E10_M_managerERSt9_Any_dataRKSC_St18_Manager_operation = comdat any

$_ZNSt14_Function_base13_Base_managerIZN5mongo8unittest9DeathTestINS1_90UnitTest_SuiteNameThreadSafetyContextTestTestNameCreateThreadsAfterForbidingMultiThreadingEEC1IJEEEDpOT_EUlvE_E15_M_init_functorIRKSA_EEvRSt9_Any_dataOT_ = comdat any

$_ZNSt14_Function_base13_Base_managerIZN5mongo8unittest9DeathTestINS1_90UnitTest_SuiteNameThreadSafetyContextTestTestNameCreateThreadsAfterForbidingMultiThreadingEEC1IJEEEDpOT_EUlvE_E10_M_destroyERSt9_Any_dataSt17integral_constantIbLb1EE = comdat any

$_ZNSt14_Function_base13_Base_managerIZN5mongo8unittest9DeathTestINS1_90UnitTest_SuiteNameThreadSafetyContextTestTestNameCreateThreadsAfterForbidingMultiThreadingEEC1IJEEEDpOT_EUlvE_E9_M_createIRKSA_EEvRSt9_Any_dataOT_St17integral_constantIbLb1EE = comdat any

$_ZNSt9_Any_data9_M_accessIZN5mongo8unittest9DeathTestINS1_90UnitTest_SuiteNameThreadSafetyContextTestTestNameCreateThreadsAfterForbidingMultiThreadingEEC1IJEEEDpOT_EUlvE_EERT_v = comdat any

$_ZNKSt8functionIFSt10unique_ptrIN5mongo8unittest4TestESt14default_deleteIS3_EEvEEclEv = comdat any

$_ZNKSt14_Function_base8_M_emptyEv = comdat any

$_ZN5mongo90UnitTest_SuiteNameThreadSafetyContextTestTestNameCreateThreadsAfterForbidingMultiThreading10getPatternB5cxx11Ev = comdat any

$_ZN5mongo90UnitTest_SuiteNameThreadSafetyContextTestTestNameCreateThreadsAfterForbidingMultiThreading7isRegexEv = comdat any

$_ZN5mongo90UnitTest_SuiteNameThreadSafetyContextTestTestNameCreateThreadsAfterForbidingMultiThreading7getLineEv = comdat any

$_ZN5mongo90UnitTest_SuiteNameThreadSafetyContextTestTestNameCreateThreadsAfterForbidingMultiThreading7getFileB5cxx11Ev = comdat any

$_ZNSt8functionIFSt10unique_ptrIN5mongo8unittest4TestESt14default_deleteIS3_EEvEED2Ev = comdat any

$_ZN5mongo8unittest13DeathTestBaseD2Ev = comdat any

$_ZNKSt9_Any_data9_M_accessIZN5mongo8unittest4Test17RegistrationAgentINS2_9DeathTestINS1_90UnitTest_SuiteNameThreadSafetyContextTestTestNameCreateThreadsAfterForbidingMultiThreadingEEEEC1ENS1_10StringDataES9_S9_EUlvE_EERKT_v = comdat any

$_ZNSt9_Any_data9_M_accessIPZN5mongo8unittest4Test17RegistrationAgentINS2_9DeathTestINS1_90UnitTest_SuiteNameThreadSafetyContextTestTestNameCreateThreadsAfterForbidingMultiThreadingEEEEC1ENS1_10StringDataES9_S9_EUlvE_EERT_v = comdat any

$_ZNSt14_Function_base13_Base_managerIZN5mongo8unittest4Test17RegistrationAgentINS2_9DeathTestINS1_90UnitTest_SuiteNameThreadSafetyContextTestTestNameCreateThreadsAfterForbidingMultiThreadingEEEEC1ENS1_10StringDataES9_S9_EUlvE_E10_M_managerERSt9_Any_dataRKSC_St18_Manager_operation = comdat any

$_ZNSt14_Function_base13_Base_managerIZN5mongo8unittest4Test17RegistrationAgentINS2_9DeathTestINS1_90UnitTest_SuiteNameThreadSafetyContextTestTestNameCreateThreadsAfterForbidingMultiThreadingEEEEC1ENS1_10StringDataES9_S9_EUlvE_E15_M_init_functorIRKSA_EEvRSt9_Any_dataOT_ = comdat any

$_ZNSt14_Function_base13_Base_managerIZN5mongo8unittest4Test17RegistrationAgentINS2_9DeathTestINS1_90UnitTest_SuiteNameThreadSafetyContextTestTestNameCreateThreadsAfterForbidingMultiThreadingEEEEC1ENS1_10StringDataES9_S9_EUlvE_E10_M_destroyERSt9_Any_dataSt17integral_constantIbLb1EE = comdat any

$_ZNSt14_Function_base13_Base_managerIZN5mongo8unittest4Test17RegistrationAgentINS2_9DeathTestINS1_90UnitTest_SuiteNameThreadSafetyContextTestTestNameCreateThreadsAfterForbidingMultiThreadingEEEEC1ENS1_10StringDataES9_S9_EUlvE_E9_M_createIRKSA_EEvRSt9_Any_dataOT_St17integral_constantIbLb1EE = comdat any

$_ZNSt9_Any_data9_M_accessIZN5mongo8unittest4Test17RegistrationAgentINS2_9DeathTestINS1_90UnitTest_SuiteNameThreadSafetyContextTestTestNameCreateThreadsAfterForbidingMultiThreadingEEEEC1ENS1_10StringDataES9_S9_EUlvE_EERT_v = comdat any

$_ZNSt8functionIFvvEEC2IZN5mongo8unittest4Test17RegistrationAgentINS4_9DeathTestINS3_89UnitTest_SuiteNameThreadSafetyContextTestTestNameForbidMultiThreadingAfterCreatingThreadsEEEEC1ENS3_10StringDataESB_SB_EUlvE_vEEOT_ = comdat any

$_ZNSt14_Function_base13_Base_managerIZN5mongo8unittest4Test17RegistrationAgentINS2_9DeathTestINS1_89UnitTest_SuiteNameThreadSafetyContextTestTestNameForbidMultiThreadingAfterCreatingThreadsEEEEC1ENS1_10StringDataES9_S9_EUlvE_E21_M_not_empty_functionISA_EEbRKT_ = comdat any

$_ZNSt14_Function_base13_Base_managerIZN5mongo8unittest4Test17RegistrationAgentINS2_9DeathTestINS1_89UnitTest_SuiteNameThreadSafetyContextTestTestNameForbidMultiThreadingAfterCreatingThreadsEEEEC1ENS1_10StringDataES9_S9_EUlvE_E15_M_init_functorISA_EEvRSt9_Any_dataOT_ = comdat any

$_ZNSt17_Function_handlerIFvvEZN5mongo8unittest4Test17RegistrationAgentINS2_9DeathTestINS1_89UnitTest_SuiteNameThreadSafetyContextTestTestNameForbidMultiThreadingAfterCreatingThreadsEEEEC1ENS1_10StringDataES9_S9_EUlvE_E9_M_invokeERKSt9_Any_data = comdat any

$_ZNSt17_Function_handlerIFvvEZN5mongo8unittest4Test17RegistrationAgentINS2_9DeathTestINS1_89UnitTest_SuiteNameThreadSafetyContextTestTestNameForbidMultiThreadingAfterCreatingThreadsEEEEC1ENS1_10StringDataES9_S9_EUlvE_E10_M_managerERSt9_Any_dataRKSC_St18_Manager_operation = comdat any

$_ZNSt14_Function_base13_Base_managerIZN5mongo8unittest4Test17RegistrationAgentINS2_9DeathTestINS1_89UnitTest_SuiteNameThreadSafetyContextTestTestNameForbidMultiThreadingAfterCreatingThreadsEEEEC1ENS1_10StringDataES9_S9_EUlvE_E9_M_createISA_EEvRSt9_Any_dataOT_St17integral_constantIbLb1EE = comdat any

$_ZSt10__invoke_rIvRZN5mongo8unittest4Test17RegistrationAgentINS1_9DeathTestINS0_89UnitTest_SuiteNameThreadSafetyContextTestTestNameForbidMultiThreadingAfterCreatingThreadsEEEEC1ENS0_10StringDataES8_S8_EUlvE_JEENSt9enable_ifIX16is_invocable_r_vIT_T0_DpT1_EESC_E4typeEOSD_DpOSE_ = comdat any

$_ZNSt14_Function_base13_Base_managerIZN5mongo8unittest4Test17RegistrationAgentINS2_9DeathTestINS1_89UnitTest_SuiteNameThreadSafetyContextTestTestNameForbidMultiThreadingAfterCreatingThreadsEEEEC1ENS1_10StringDataES9_S9_EUlvE_E14_M_get_pointerERKSt9_Any_data = comdat any

$_ZSt13__invoke_implIvRZN5mongo8unittest4Test17RegistrationAgentINS1_9DeathTestINS0_89UnitTest_SuiteNameThreadSafetyContextTestTestNameForbidMultiThreadingAfterCreatingThreadsEEEEC1ENS0_10StringDataES8_S8_EUlvE_JEET_St14__invoke_otherOT0_DpOT1_ = comdat any

$_ZZN5mongo8unittest4Test17RegistrationAgentINS0_9DeathTestINS_89UnitTest_SuiteNameThreadSafetyContextTestTestNameForbidMultiThreadingAfterCreatingThreadsEEEEC1ENS_10StringDataES7_S7_ENKUlvE_clEv = comdat any

$_ZN5mongo8unittest9DeathTestINS_89UnitTest_SuiteNameThreadSafetyContextTestTestNameForbidMultiThreadingAfterCreatingThreadsEEC2IJEEEDpOT_ = comdat any

$_ZN5mongo8unittest9DeathTestINS_89UnitTest_SuiteNameThreadSafetyContextTestTestNameForbidMultiThreadingAfterCreatingThreadsEED2Ev = comdat any

$_ZNSt8functionIFSt10unique_ptrIN5mongo8unittest4TestESt14default_deleteIS3_EEvEEC2IZNS2_9DeathTestINS1_89UnitTest_SuiteNameThreadSafetyContextTestTestNameForbidMultiThreadingAfterCreatingThreadsEEC1IJEEEDpOT_EUlvE_vEEOT_ = comdat any

$_ZN5mongo8unittest9DeathTestINS_89UnitTest_SuiteNameThreadSafetyContextTestTestNameForbidMultiThreadingAfterCreatingThreadsEED0Ev = comdat any

$_ZN5mongo8unittest9DeathTestINS_89UnitTest_SuiteNameThreadSafetyContextTestTestNameForbidMultiThreadingAfterCreatingThreadsEE11_doMakeTestEv = comdat any

$_ZN5mongo8unittest9DeathTestINS_89UnitTest_SuiteNameThreadSafetyContextTestTestNameForbidMultiThreadingAfterCreatingThreadsEE13_doGetPatternB5cxx11Ev = comdat any

$_ZN5mongo8unittest9DeathTestINS_89UnitTest_SuiteNameThreadSafetyContextTestTestNameForbidMultiThreadingAfterCreatingThreadsEE8_isRegexEv = comdat any

$_ZN5mongo8unittest9DeathTestINS_89UnitTest_SuiteNameThreadSafetyContextTestTestNameForbidMultiThreadingAfterCreatingThreadsEE8_getLineEv = comdat any

$_ZN5mongo8unittest9DeathTestINS_89UnitTest_SuiteNameThreadSafetyContextTestTestNameForbidMultiThreadingAfterCreatingThreadsEE8_getFileB5cxx11Ev = comdat any

$_ZNSt14_Function_base13_Base_managerIZN5mongo8unittest9DeathTestINS1_89UnitTest_SuiteNameThreadSafetyContextTestTestNameForbidMultiThreadingAfterCreatingThreadsEEC1IJEEEDpOT_EUlvE_E21_M_not_empty_functionISA_EEbRKT_ = comdat any

$_ZNSt14_Function_base13_Base_managerIZN5mongo8unittest9DeathTestINS1_89UnitTest_SuiteNameThreadSafetyContextTestTestNameForbidMultiThreadingAfterCreatingThreadsEEC1IJEEEDpOT_EUlvE_E15_M_init_functorISA_EEvRSt9_Any_dataOT_ = comdat any

$_ZNSt17_Function_handlerIFSt10unique_ptrIN5mongo8unittest4TestESt14default_deleteIS3_EEvEZNS2_9DeathTestINS1_89UnitTest_SuiteNameThreadSafetyContextTestTestNameForbidMultiThreadingAfterCreatingThreadsEEC1IJEEEDpOT_EUlvE_E9_M_invokeERKSt9_Any_data = comdat any

$_ZNSt17_Function_handlerIFSt10unique_ptrIN5mongo8unittest4TestESt14default_deleteIS3_EEvEZNS2_9DeathTestINS1_89UnitTest_SuiteNameThreadSafetyContextTestTestNameForbidMultiThreadingAfterCreatingThreadsEEC1IJEEEDpOT_EUlvE_E10_M_managerERSt9_Any_dataRKSH_St18_Manager_operation = comdat any

$_ZNSt14_Function_base13_Base_managerIZN5mongo8unittest9DeathTestINS1_89UnitTest_SuiteNameThreadSafetyContextTestTestNameForbidMultiThreadingAfterCreatingThreadsEEC1IJEEEDpOT_EUlvE_E9_M_createISA_EEvRSt9_Any_dataOT_St17integral_constantIbLb1EE = comdat any

$_ZSt10__invoke_rISt10unique_ptrIN5mongo8unittest4TestESt14default_deleteIS3_EERZNS2_9DeathTestINS1_89UnitTest_SuiteNameThreadSafetyContextTestTestNameForbidMultiThreadingAfterCreatingThreadsEEC1IJEEEDpOT_EUlvE_JEENSt9enable_ifIX16is_invocable_r_vIT_T0_DpT1_EESH_E4typeEOSI_DpOSJ_ = comdat any

$_ZNSt14_Function_base13_Base_managerIZN5mongo8unittest9DeathTestINS1_89UnitTest_SuiteNameThreadSafetyContextTestTestNameForbidMultiThreadingAfterCreatingThreadsEEC1IJEEEDpOT_EUlvE_E14_M_get_pointerERKSt9_Any_data = comdat any

$_ZSt13__invoke_implISt10unique_ptrIN5mongo89UnitTest_SuiteNameThreadSafetyContextTestTestNameForbidMultiThreadingAfterCreatingThreadsESt14default_deleteIS2_EERZNS1_8unittest9DeathTestIS2_EC1IJEEEDpOT_EUlvE_JEET_St14__invoke_otherOT0_DpOT1_ = comdat any

$_ZNSt10unique_ptrIN5mongo8unittest4TestESt14default_deleteIS2_EEC2INS0_89UnitTest_SuiteNameThreadSafetyContextTestTestNameForbidMultiThreadingAfterCreatingThreadsES3_IS7_EvEEOS_IT_T0_E = comdat any

$_ZNSt10unique_ptrIN5mongo89UnitTest_SuiteNameThreadSafetyContextTestTestNameForbidMultiThreadingAfterCreatingThreadsESt14default_deleteIS1_EED2Ev = comdat any

$_ZZN5mongo8unittest9DeathTestINS_89UnitTest_SuiteNameThreadSafetyContextTestTestNameForbidMultiThreadingAfterCreatingThreadsEEC1IJEEEDpOT_ENKUlvE_clEv = comdat any

$_ZSt11make_uniqueIN5mongo89UnitTest_SuiteNameThreadSafetyContextTestTestNameForbidMultiThreadingAfterCreatingThreadsEJEENSt9_MakeUniqIT_E15__single_objectEDpOT0_ = comdat any

$_ZN5mongo89UnitTest_SuiteNameThreadSafetyContextTestTestNameForbidMultiThreadingAfterCreatingThreadsC2Ev = comdat any

$_ZNSt10unique_ptrIN5mongo89UnitTest_SuiteNameThreadSafetyContextTestTestNameForbidMultiThreadingAfterCreatingThreadsESt14default_deleteIS1_EEC2IS3_vEEPS1_ = comdat any

$_ZNSt15__uniq_ptr_dataIN5mongo89UnitTest_SuiteNameThreadSafetyContextTestTestNameForbidMultiThreadingAfterCreatingThreadsESt14default_deleteIS1_ELb1ELb1EECI2St15__uniq_ptr_implIS1_S3_EEPS1_ = comdat any

$_ZNSt15__uniq_ptr_implIN5mongo89UnitTest_SuiteNameThreadSafetyContextTestTestNameForbidMultiThreadingAfterCreatingThreadsESt14default_deleteIS1_EEC2EPS1_ = comdat any

$_ZNSt5tupleIJPN5mongo89UnitTest_SuiteNameThreadSafetyContextTestTestNameForbidMultiThreadingAfterCreatingThreadsESt14default_deleteIS1_EEEC2ILb1ELb1EEEv = comdat any

$_ZNSt15__uniq_ptr_implIN5mongo89UnitTest_SuiteNameThreadSafetyContextTestTestNameForbidMultiThreadingAfterCreatingThreadsESt14default_deleteIS1_EE6_M_ptrEv = comdat any

$_ZNSt11_Tuple_implILm0EJPN5mongo89UnitTest_SuiteNameThreadSafetyContextTestTestNameForbidMultiThreadingAfterCreatingThreadsESt14default_deleteIS1_EEEC2Ev = comdat any

$_ZNSt11_Tuple_implILm1EJSt14default_deleteIN5mongo89UnitTest_SuiteNameThreadSafetyContextTestTestNameForbidMultiThreadingAfterCreatingThreadsEEEEC2Ev = comdat any

$_ZNSt10_Head_baseILm0EPN5mongo89UnitTest_SuiteNameThreadSafetyContextTestTestNameForbidMultiThreadingAfterCreatingThreadsELb0EEC2Ev = comdat any

$_ZNSt10_Head_baseILm1ESt14default_deleteIN5mongo89UnitTest_SuiteNameThreadSafetyContextTestTestNameForbidMultiThreadingAfterCreatingThreadsEELb1EEC2Ev = comdat any

$_ZSt3getILm0EJPN5mongo89UnitTest_SuiteNameThreadSafetyContextTestTestNameForbidMultiThreadingAfterCreatingThreadsESt14default_deleteIS1_EEERNSt13tuple_elementIXT_ESt5tupleIJDpT0_EEE4typeERS9_ = comdat any

$_ZSt12__get_helperILm0EPN5mongo89UnitTest_SuiteNameThreadSafetyContextTestTestNameForbidMultiThreadingAfterCreatingThreadsEJSt14default_deleteIS1_EEERT0_RSt11_Tuple_implIXT_EJS5_DpT1_EE = comdat any

$_ZNSt11_Tuple_implILm0EJPN5mongo89UnitTest_SuiteNameThreadSafetyContextTestTestNameForbidMultiThreadingAfterCreatingThreadsESt14default_deleteIS1_EEE7_M_headERS5_ = comdat any

$_ZNSt10_Head_baseILm0EPN5mongo89UnitTest_SuiteNameThreadSafetyContextTestTestNameForbidMultiThreadingAfterCreatingThreadsELb0EE7_M_headERS3_ = comdat any

$_ZNSt10unique_ptrIN5mongo89UnitTest_SuiteNameThreadSafetyContextTestTestNameForbidMultiThreadingAfterCreatingThreadsESt14default_deleteIS1_EE7releaseEv = comdat any

$_ZNSt10unique_ptrIN5mongo89UnitTest_SuiteNameThreadSafetyContextTestTestNameForbidMultiThreadingAfterCreatingThreadsESt14default_deleteIS1_EE11get_deleterEv = comdat any

$_ZNSt15__uniq_ptr_dataIN5mongo8unittest4TestESt14default_deleteIS2_ELb1ELb1EECI2St15__uniq_ptr_implIS2_S4_EIS3_INS0_89UnitTest_SuiteNameThreadSafetyContextTestTestNameForbidMultiThreadingAfterCreatingThreadsEEEEPS2_OT_ = comdat any

$_ZNSt15__uniq_ptr_implIN5mongo89UnitTest_SuiteNameThreadSafetyContextTestTestNameForbidMultiThreadingAfterCreatingThreadsESt14default_deleteIS1_EE7releaseEv = comdat any

$_ZNSt15__uniq_ptr_implIN5mongo89UnitTest_SuiteNameThreadSafetyContextTestTestNameForbidMultiThreadingAfterCreatingThreadsESt14default_deleteIS1_EE10_M_deleterEv = comdat any

$_ZSt3getILm1EJPN5mongo89UnitTest_SuiteNameThreadSafetyContextTestTestNameForbidMultiThreadingAfterCreatingThreadsESt14default_deleteIS1_EEERNSt13tuple_elementIXT_ESt5tupleIJDpT0_EEE4typeERS9_ = comdat any

$_ZSt12__get_helperILm1ESt14default_deleteIN5mongo89UnitTest_SuiteNameThreadSafetyContextTestTestNameForbidMultiThreadingAfterCreatingThreadsEEJEERT0_RSt11_Tuple_implIXT_EJS4_DpT1_EE = comdat any

$_ZNSt11_Tuple_implILm1EJSt14default_deleteIN5mongo89UnitTest_SuiteNameThreadSafetyContextTestTestNameForbidMultiThreadingAfterCreatingThreadsEEEE7_M_headERS4_ = comdat any

$_ZNSt10_Head_baseILm1ESt14default_deleteIN5mongo89UnitTest_SuiteNameThreadSafetyContextTestTestNameForbidMultiThreadingAfterCreatingThreadsEELb1EE7_M_headERS4_ = comdat any

$_ZNSt15__uniq_ptr_implIN5mongo8unittest4TestESt14default_deleteIS2_EEC2IS3_INS0_89UnitTest_SuiteNameThreadSafetyContextTestTestNameForbidMultiThreadingAfterCreatingThreadsEEEEPS2_OT_ = comdat any

$_ZNSt5tupleIJPN5mongo8unittest4TestESt14default_deleteIS2_EEEC2IRS3_S4_INS0_89UnitTest_SuiteNameThreadSafetyContextTestTestNameForbidMultiThreadingAfterCreatingThreadsEELb1EEEOT_OT0_ = comdat any

$_ZNSt11_Tuple_implILm0EJPN5mongo8unittest4TestESt14default_deleteIS2_EEEC2IRS3_JS4_INS0_89UnitTest_SuiteNameThreadSafetyContextTestTestNameForbidMultiThreadingAfterCreatingThreadsEEEvEEOT_DpOT0_ = comdat any

$_ZNSt11_Tuple_implILm1EJSt14default_deleteIN5mongo8unittest4TestEEEEC2IS0_INS1_89UnitTest_SuiteNameThreadSafetyContextTestTestNameForbidMultiThreadingAfterCreatingThreadsEEEEOT_ = comdat any

$_ZNSt10_Head_baseILm1ESt14default_deleteIN5mongo8unittest4TestEELb1EEC2IS0_INS1_89UnitTest_SuiteNameThreadSafetyContextTestTestNameForbidMultiThreadingAfterCreatingThreadsEEEEOT_ = comdat any

$_ZNSt14default_deleteIN5mongo8unittest4TestEEC2INS0_89UnitTest_SuiteNameThreadSafetyContextTestTestNameForbidMultiThreadingAfterCreatingThreadsEvEERKS_IT_E = comdat any

$_ZNKSt14default_deleteIN5mongo89UnitTest_SuiteNameThreadSafetyContextTestTestNameForbidMultiThreadingAfterCreatingThreadsEEclEPS1_ = comdat any

$_ZNKSt9_Any_data9_M_accessIZN5mongo8unittest9DeathTestINS1_89UnitTest_SuiteNameThreadSafetyContextTestTestNameForbidMultiThreadingAfterCreatingThreadsEEC1IJEEEDpOT_EUlvE_EERKT_v = comdat any

$_ZNSt9_Any_data9_M_accessIPZN5mongo8unittest9DeathTestINS1_89UnitTest_SuiteNameThreadSafetyContextTestTestNameForbidMultiThreadingAfterCreatingThreadsEEC1IJEEEDpOT_EUlvE_EERT_v = comdat any

$_ZNSt14_Function_base13_Base_managerIZN5mongo8unittest9DeathTestINS1_89UnitTest_SuiteNameThreadSafetyContextTestTestNameForbidMultiThreadingAfterCreatingThreadsEEC1IJEEEDpOT_EUlvE_E10_M_managerERSt9_Any_dataRKSC_St18_Manager_operation = comdat any

$_ZNSt14_Function_base13_Base_managerIZN5mongo8unittest9DeathTestINS1_89UnitTest_SuiteNameThreadSafetyContextTestTestNameForbidMultiThreadingAfterCreatingThreadsEEC1IJEEEDpOT_EUlvE_E15_M_init_functorIRKSA_EEvRSt9_Any_dataOT_ = comdat any

$_ZNSt14_Function_base13_Base_managerIZN5mongo8unittest9DeathTestINS1_89UnitTest_SuiteNameThreadSafetyContextTestTestNameForbidMultiThreadingAfterCreatingThreadsEEC1IJEEEDpOT_EUlvE_E10_M_destroyERSt9_Any_dataSt17integral_constantIbLb1EE = comdat any

$_ZNSt14_Function_base13_Base_managerIZN5mongo8unittest9DeathTestINS1_89UnitTest_SuiteNameThreadSafetyContextTestTestNameForbidMultiThreadingAfterCreatingThreadsEEC1IJEEEDpOT_EUlvE_E9_M_createIRKSA_EEvRSt9_Any_dataOT_St17integral_constantIbLb1EE = comdat any

$_ZNSt9_Any_data9_M_accessIZN5mongo8unittest9DeathTestINS1_89UnitTest_SuiteNameThreadSafetyContextTestTestNameForbidMultiThreadingAfterCreatingThreadsEEC1IJEEEDpOT_EUlvE_EERT_v = comdat any

$_ZN5mongo89UnitTest_SuiteNameThreadSafetyContextTestTestNameForbidMultiThreadingAfterCreatingThreads10getPatternB5cxx11Ev = comdat any

$_ZN5mongo89UnitTest_SuiteNameThreadSafetyContextTestTestNameForbidMultiThreadingAfterCreatingThreads7isRegexEv = comdat any

$_ZN5mongo89UnitTest_SuiteNameThreadSafetyContextTestTestNameForbidMultiThreadingAfterCreatingThreads7getLineEv = comdat any

$_ZN5mongo89UnitTest_SuiteNameThreadSafetyContextTestTestNameForbidMultiThreadingAfterCreatingThreads7getFileB5cxx11Ev = comdat any

$_ZNKSt9_Any_data9_M_accessIZN5mongo8unittest4Test17RegistrationAgentINS2_9DeathTestINS1_89UnitTest_SuiteNameThreadSafetyContextTestTestNameForbidMultiThreadingAfterCreatingThreadsEEEEC1ENS1_10StringDataES9_S9_EUlvE_EERKT_v = comdat any

$_ZNSt9_Any_data9_M_accessIPZN5mongo8unittest4Test17RegistrationAgentINS2_9DeathTestINS1_89UnitTest_SuiteNameThreadSafetyContextTestTestNameForbidMultiThreadingAfterCreatingThreadsEEEEC1ENS1_10StringDataES9_S9_EUlvE_EERT_v = comdat any

$_ZNSt14_Function_base13_Base_managerIZN5mongo8unittest4Test17RegistrationAgentINS2_9DeathTestINS1_89UnitTest_SuiteNameThreadSafetyContextTestTestNameForbidMultiThreadingAfterCreatingThreadsEEEEC1ENS1_10StringDataES9_S9_EUlvE_E10_M_managerERSt9_Any_dataRKSC_St18_Manager_operation = comdat any

$_ZNSt14_Function_base13_Base_managerIZN5mongo8unittest4Test17RegistrationAgentINS2_9DeathTestINS1_89UnitTest_SuiteNameThreadSafetyContextTestTestNameForbidMultiThreadingAfterCreatingThreadsEEEEC1ENS1_10StringDataES9_S9_EUlvE_E15_M_init_functorIRKSA_EEvRSt9_Any_dataOT_ = comdat any

$_ZNSt14_Function_base13_Base_managerIZN5mongo8unittest4Test17RegistrationAgentINS2_9DeathTestINS1_89UnitTest_SuiteNameThreadSafetyContextTestTestNameForbidMultiThreadingAfterCreatingThreadsEEEEC1ENS1_10StringDataES9_S9_EUlvE_E10_M_destroyERSt9_Any_dataSt17integral_constantIbLb1EE = comdat any

$_ZNSt14_Function_base13_Base_managerIZN5mongo8unittest4Test17RegistrationAgentINS2_9DeathTestINS1_89UnitTest_SuiteNameThreadSafetyContextTestTestNameForbidMultiThreadingAfterCreatingThreadsEEEEC1ENS1_10StringDataES9_S9_EUlvE_E9_M_createIRKSA_EEvRSt9_Any_dataOT_St17integral_constantIbLb1EE = comdat any

$_ZNSt9_Any_data9_M_accessIZN5mongo8unittest4Test17RegistrationAgentINS2_9DeathTestINS1_89UnitTest_SuiteNameThreadSafetyContextTestTestNameForbidMultiThreadingAfterCreatingThreadsEEEEC1ENS1_10StringDataES9_S9_EUlvE_EERT_v = comdat any

$_ZNSt8functionIFvvEEC2IZN5mongo8unittest4Test17RegistrationAgentINS3_80UnitTest_SuiteNameThreadSafetyContextTestTestNameCreateThreadsAfterSafetyContextEEC1ENS3_10StringDataES9_S9_EUlvE_vEEOT_ = comdat any

$_ZNSt14_Function_base13_Base_managerIZN5mongo8unittest4Test17RegistrationAgentINS1_80UnitTest_SuiteNameThreadSafetyContextTestTestNameCreateThreadsAfterSafetyContextEEC1ENS1_10StringDataES7_S7_EUlvE_E21_M_not_empty_functionIS8_EEbRKT_ = comdat any

$_ZNSt14_Function_base13_Base_managerIZN5mongo8unittest4Test17RegistrationAgentINS1_80UnitTest_SuiteNameThreadSafetyContextTestTestNameCreateThreadsAfterSafetyContextEEC1ENS1_10StringDataES7_S7_EUlvE_E15_M_init_functorIS8_EEvRSt9_Any_dataOT_ = comdat any

$_ZNSt17_Function_handlerIFvvEZN5mongo8unittest4Test17RegistrationAgentINS1_80UnitTest_SuiteNameThreadSafetyContextTestTestNameCreateThreadsAfterSafetyContextEEC1ENS1_10StringDataES7_S7_EUlvE_E9_M_invokeERKSt9_Any_data = comdat any

$_ZNSt17_Function_handlerIFvvEZN5mongo8unittest4Test17RegistrationAgentINS1_80UnitTest_SuiteNameThreadSafetyContextTestTestNameCreateThreadsAfterSafetyContextEEC1ENS1_10StringDataES7_S7_EUlvE_E10_M_managerERSt9_Any_dataRKSA_St18_Manager_operation = comdat any

$_ZNSt14_Function_base13_Base_managerIZN5mongo8unittest4Test17RegistrationAgentINS1_80UnitTest_SuiteNameThreadSafetyContextTestTestNameCreateThreadsAfterSafetyContextEEC1ENS1_10StringDataES7_S7_EUlvE_E9_M_createIS8_EEvRSt9_Any_dataOT_St17integral_constantIbLb1EE = comdat any

$_ZSt10__invoke_rIvRZN5mongo8unittest4Test17RegistrationAgentINS0_80UnitTest_SuiteNameThreadSafetyContextTestTestNameCreateThreadsAfterSafetyContextEEC1ENS0_10StringDataES6_S6_EUlvE_JEENSt9enable_ifIX16is_invocable_r_vIT_T0_DpT1_EESA_E4typeEOSB_DpOSC_ = comdat any

$_ZNSt14_Function_base13_Base_managerIZN5mongo8unittest4Test17RegistrationAgentINS1_80UnitTest_SuiteNameThreadSafetyContextTestTestNameCreateThreadsAfterSafetyContextEEC1ENS1_10StringDataES7_S7_EUlvE_E14_M_get_pointerERKSt9_Any_data = comdat any

$_ZSt13__invoke_implIvRZN5mongo8unittest4Test17RegistrationAgentINS0_80UnitTest_SuiteNameThreadSafetyContextTestTestNameCreateThreadsAfterSafetyContextEEC1ENS0_10StringDataES6_S6_EUlvE_JEET_St14__invoke_otherOT0_DpOT1_ = comdat any

$_ZZN5mongo8unittest4Test17RegistrationAgentINS_80UnitTest_SuiteNameThreadSafetyContextTestTestNameCreateThreadsAfterSafetyContextEEC1ENS_10StringDataES5_S5_ENKUlvE_clEv = comdat any

$_ZN5mongo80UnitTest_SuiteNameThreadSafetyContextTestTestNameCreateThreadsAfterSafetyContextC2Ev = comdat any

$_ZNKSt9_Any_data9_M_accessIZN5mongo8unittest4Test17RegistrationAgentINS1_80UnitTest_SuiteNameThreadSafetyContextTestTestNameCreateThreadsAfterSafetyContextEEC1ENS1_10StringDataES7_S7_EUlvE_EERKT_v = comdat any

$_ZNSt9_Any_data9_M_accessIPZN5mongo8unittest4Test17RegistrationAgentINS1_80UnitTest_SuiteNameThreadSafetyContextTestTestNameCreateThreadsAfterSafetyContextEEC1ENS1_10StringDataES7_S7_EUlvE_EERT_v = comdat any

$_ZNSt14_Function_base13_Base_managerIZN5mongo8unittest4Test17RegistrationAgentINS1_80UnitTest_SuiteNameThreadSafetyContextTestTestNameCreateThreadsAfterSafetyContextEEC1ENS1_10StringDataES7_S7_EUlvE_E10_M_managerERSt9_Any_dataRKSA_St18_Manager_operation = comdat any

$_ZNSt14_Function_base13_Base_managerIZN5mongo8unittest4Test17RegistrationAgentINS1_80UnitTest_SuiteNameThreadSafetyContextTestTestNameCreateThreadsAfterSafetyContextEEC1ENS1_10StringDataES7_S7_EUlvE_E15_M_init_functorIRKS8_EEvRSt9_Any_dataOT_ = comdat any

$_ZNSt14_Function_base13_Base_managerIZN5mongo8unittest4Test17RegistrationAgentINS1_80UnitTest_SuiteNameThreadSafetyContextTestTestNameCreateThreadsAfterSafetyContextEEC1ENS1_10StringDataES7_S7_EUlvE_E10_M_destroyERSt9_Any_dataSt17integral_constantIbLb1EE = comdat any

$_ZNSt14_Function_base13_Base_managerIZN5mongo8unittest4Test17RegistrationAgentINS1_80UnitTest_SuiteNameThreadSafetyContextTestTestNameCreateThreadsAfterSafetyContextEEC1ENS1_10StringDataES7_S7_EUlvE_E9_M_createIRKS8_EEvRSt9_Any_dataOT_St17integral_constantIbLb1EE = comdat any

$_ZNSt9_Any_data9_M_accessIZN5mongo8unittest4Test17RegistrationAgentINS1_80UnitTest_SuiteNameThreadSafetyContextTestTestNameCreateThreadsAfterSafetyContextEEC1ENS1_10StringDataES7_S7_EUlvE_EERT_v = comdat any

$_ZTSN5mongo23ThreadSafetyContextTestE = comdat any

$_ZTIN5mongo23ThreadSafetyContextTestE = comdat any

$_ZTVN5mongo23ThreadSafetyContextTestE = comdat any

$_ZTSZN5mongo8unittest4Test17RegistrationAgentINS_81UnitTest_SuiteNameThreadSafetyContextTestTestNameCreateThreadsWithNoSafetyContextEEC1ENS_10StringDataES5_S5_EUlvE_ = comdat any

$_ZTIZN5mongo8unittest4Test17RegistrationAgentINS_81UnitTest_SuiteNameThreadSafetyContextTestTestNameCreateThreadsWithNoSafetyContextEEC1ENS_10StringDataES5_S5_EUlvE_ = comdat any

$_ZTVN5mongo8unittest9DeathTestINS_90UnitTest_SuiteNameThreadSafetyContextTestTestNameCreateThreadsAfterForbidingMultiThreadingEEE = comdat any

$_ZTSN5mongo8unittest9DeathTestINS_90UnitTest_SuiteNameThreadSafetyContextTestTestNameCreateThreadsAfterForbidingMultiThreadingEEE = comdat any

$_ZTIN5mongo8unittest9DeathTestINS_90UnitTest_SuiteNameThreadSafetyContextTestTestNameCreateThreadsAfterForbidingMultiThreadingEEE = comdat any

$_ZTSZN5mongo8unittest9DeathTestINS_90UnitTest_SuiteNameThreadSafetyContextTestTestNameCreateThreadsAfterForbidingMultiThreadingEEC1IJEEEDpOT_EUlvE_ = comdat any

$_ZTIZN5mongo8unittest9DeathTestINS_90UnitTest_SuiteNameThreadSafetyContextTestTestNameCreateThreadsAfterForbidingMultiThreadingEEC1IJEEEDpOT_EUlvE_ = comdat any

$_ZTSZN5mongo8unittest4Test17RegistrationAgentINS0_9DeathTestINS_90UnitTest_SuiteNameThreadSafetyContextTestTestNameCreateThreadsAfterForbidingMultiThreadingEEEEC1ENS_10StringDataES7_S7_EUlvE_ = comdat any

$_ZTIZN5mongo8unittest4Test17RegistrationAgentINS0_9DeathTestINS_90UnitTest_SuiteNameThreadSafetyContextTestTestNameCreateThreadsAfterForbidingMultiThreadingEEEEC1ENS_10StringDataES7_S7_EUlvE_ = comdat any

$_ZTVN5mongo8unittest9DeathTestINS_89UnitTest_SuiteNameThreadSafetyContextTestTestNameForbidMultiThreadingAfterCreatingThreadsEEE = comdat any

$_ZTSN5mongo8unittest9DeathTestINS_89UnitTest_SuiteNameThreadSafetyContextTestTestNameForbidMultiThreadingAfterCreatingThreadsEEE = comdat any

$_ZTIN5mongo8unittest9DeathTestINS_89UnitTest_SuiteNameThreadSafetyContextTestTestNameForbidMultiThreadingAfterCreatingThreadsEEE = comdat any

$_ZTSZN5mongo8unittest9DeathTestINS_89UnitTest_SuiteNameThreadSafetyContextTestTestNameForbidMultiThreadingAfterCreatingThreadsEEC1IJEEEDpOT_EUlvE_ = comdat any

$_ZTIZN5mongo8unittest9DeathTestINS_89UnitTest_SuiteNameThreadSafetyContextTestTestNameForbidMultiThreadingAfterCreatingThreadsEEC1IJEEEDpOT_EUlvE_ = comdat any

$_ZTSZN5mongo8unittest4Test17RegistrationAgentINS0_9DeathTestINS_89UnitTest_SuiteNameThreadSafetyContextTestTestNameForbidMultiThreadingAfterCreatingThreadsEEEEC1ENS_10StringDataES7_S7_EUlvE_ = comdat any

$_ZTIZN5mongo8unittest4Test17RegistrationAgentINS0_9DeathTestINS_89UnitTest_SuiteNameThreadSafetyContextTestTestNameForbidMultiThreadingAfterCreatingThreadsEEEEC1ENS_10StringDataES7_S7_EUlvE_ = comdat any

$_ZTSZN5mongo8unittest4Test17RegistrationAgentINS_80UnitTest_SuiteNameThreadSafetyContextTestTestNameCreateThreadsAfterSafetyContextEEC1ENS_10StringDataES5_S5_EUlvE_ = comdat any

$_ZTIZN5mongo8unittest4Test17RegistrationAgentINS_80UnitTest_SuiteNameThreadSafetyContextTestTestNameCreateThreadsAfterSafetyContextEEC1ENS_10StringDataES5_S5_EUlvE_ = comdat any

@_ZN5boost4noneE = linkonce_odr dso_local global %"struct.boost::none_t" zeroinitializer, comdat, align 1, !dbg !0
@_ZGVN5boost4noneE = linkonce_odr dso_local global i64 0, comdat($_ZN5boost4noneE), align 8
@_ZN5boost11optional_nsL13in_place_initE = internal global %"struct.boost::optional_ns::in_place_init_t" zeroinitializer, align 1, !dbg !14
@_ZN5boost11optional_nsL16in_place_init_ifE = internal global %"struct.boost::optional_ns::in_place_init_if_t" zeroinitializer, align 1, !dbg !26
@_ZStL8__ioinit = internal global %"class.std::ios_base::Init" zeroinitializer, align 1, !dbg !36
@__dso_handle = external hidden global i8
@_ZN5mongo81UnitTest_SuiteNameThreadSafetyContextTestTestNameCreateThreadsWithNoSafetyContext6_agentE = linkonce_odr dso_local global %"class.mongo::unittest::Test::RegistrationAgent" zeroinitializer, comdat, align 8, !dbg !43
@_ZGVN5mongo81UnitTest_SuiteNameThreadSafetyContextTestTestNameCreateThreadsWithNoSafetyContext6_agentE = linkonce_odr dso_local global i64 0, comdat($_ZN5mongo81UnitTest_SuiteNameThreadSafetyContextTestTestNameCreateThreadsWithNoSafetyContext6_agentE), align 8
@.str = private unnamed_addr constant [24 x i8] c"ThreadSafetyContextTest\00", align 1, !dbg !6176
@.str.5 = private unnamed_addr constant [33 x i8] c"CreateThreadsWithNoSafetyContext\00", align 1, !dbg !6181
@.str.6 = private unnamed_addr constant [62 x i8] c"/home/raj/mongo/src/mongo/util/thread_safety_context_test.cpp\00", align 1, !dbg !6186
@_ZN5mongo90UnitTest_SuiteNameThreadSafetyContextTestTestNameCreateThreadsAfterForbidingMultiThreading6_agentE = linkonce_odr dso_local global %"class.mongo::unittest::Test::RegistrationAgent.0" zeroinitializer, comdat, align 8, !dbg !6196
@_ZGVN5mongo90UnitTest_SuiteNameThreadSafetyContextTestTestNameCreateThreadsAfterForbidingMultiThreading6_agentE = linkonce_odr dso_local global i64 0, comdat($_ZN5mongo90UnitTest_SuiteNameThreadSafetyContextTestTestNameCreateThreadsAfterForbidingMultiThreading6_agentE), align 8
@.str.8 = private unnamed_addr constant [42 x i8] c"CreateThreadsAfterForbidingMultiThreading\00", align 1, !dbg !6191
@_ZN5mongo89UnitTest_SuiteNameThreadSafetyContextTestTestNameForbidMultiThreadingAfterCreatingThreads6_agentE = linkonce_odr dso_local global %"class.mongo::unittest::Test::RegistrationAgent.12" zeroinitializer, comdat, align 8, !dbg !6203
@_ZGVN5mongo89UnitTest_SuiteNameThreadSafetyContextTestTestNameForbidMultiThreadingAfterCreatingThreads6_agentE = linkonce_odr dso_local global i64 0, comdat($_ZN5mongo89UnitTest_SuiteNameThreadSafetyContextTestTestNameForbidMultiThreadingAfterCreatingThreads6_agentE), align 8
@.str.10 = private unnamed_addr constant [41 x i8] c"ForbidMultiThreadingAfterCreatingThreads\00", align 1, !dbg !6198
@_ZN5mongo80UnitTest_SuiteNameThreadSafetyContextTestTestNameCreateThreadsAfterSafetyContext6_agentE = linkonce_odr dso_local global %"class.mongo::unittest::Test::RegistrationAgent.13" zeroinitializer, comdat, align 8, !dbg !6210
@_ZGVN5mongo80UnitTest_SuiteNameThreadSafetyContextTestTestNameCreateThreadsAfterSafetyContext6_agentE = linkonce_odr dso_local global i64 0, comdat($_ZN5mongo80UnitTest_SuiteNameThreadSafetyContextTestTestNameCreateThreadsAfterSafetyContext6_agentE), align 8
@.str.12 = private unnamed_addr constant [32 x i8] c"CreateThreadsAfterSafetyContext\00", align 1, !dbg !6205
@_ZTVN5mongo81UnitTest_SuiteNameThreadSafetyContextTestTestNameCreateThreadsWithNoSafetyContextE = dso_local unnamed_addr constant { [7 x ptr] } { [7 x ptr] [ptr null, ptr @_ZTIN5mongo81UnitTest_SuiteNameThreadSafetyContextTestTestNameCreateThreadsWithNoSafetyContextE, ptr @_ZN5mongo81UnitTest_SuiteNameThreadSafetyContextTestTestNameCreateThreadsWithNoSafetyContextD2Ev, ptr @_ZN5mongo81UnitTest_SuiteNameThreadSafetyContextTestTestNameCreateThreadsWithNoSafetyContextD0Ev, ptr @_ZN5mongo23ThreadSafetyContextTest5setUpEv, ptr @_ZN5mongo23ThreadSafetyContextTest8tearDownEv, ptr @_ZN5mongo81UnitTest_SuiteNameThreadSafetyContextTestTestNameCreateThreadsWithNoSafetyContext7_doTestEv] }, align 8
@_ZTVN10__cxxabiv120__si_class_type_infoE = external global ptr
@_ZTSN5mongo81UnitTest_SuiteNameThreadSafetyContextTestTestNameCreateThreadsWithNoSafetyContextE = dso_local constant [92 x i8] c"N5mongo81UnitTest_SuiteNameThreadSafetyContextTestTestNameCreateThreadsWithNoSafetyContextE\00", align 1
@_ZTSN5mongo23ThreadSafetyContextTestE = linkonce_odr dso_local constant [34 x i8] c"N5mongo23ThreadSafetyContextTestE\00", comdat, align 1
@_ZTIN5mongo8unittest4TestE = external constant ptr
@_ZTIN5mongo23ThreadSafetyContextTestE = linkonce_odr dso_local constant { ptr, ptr, ptr } { ptr getelementptr inbounds (ptr, ptr @_ZTVN10__cxxabiv120__si_class_type_infoE, i64 2), ptr @_ZTSN5mongo23ThreadSafetyContextTestE, ptr @_ZTIN5mongo8unittest4TestE }, comdat, align 8
@_ZTIN5mongo81UnitTest_SuiteNameThreadSafetyContextTestTestNameCreateThreadsWithNoSafetyContextE = dso_local constant { ptr, ptr, ptr } { ptr getelementptr inbounds (ptr, ptr @_ZTVN10__cxxabiv120__si_class_type_infoE, i64 2), ptr @_ZTSN5mongo81UnitTest_SuiteNameThreadSafetyContextTestTestNameCreateThreadsWithNoSafetyContextE, ptr @_ZTIN5mongo23ThreadSafetyContextTestE }, align 8
@_ZTVN5mongo90UnitTest_SuiteNameThreadSafetyContextTestTestNameCreateThreadsAfterForbidingMultiThreadingE = dso_local unnamed_addr constant { [7 x ptr] } { [7 x ptr] [ptr null, ptr @_ZTIN5mongo90UnitTest_SuiteNameThreadSafetyContextTestTestNameCreateThreadsAfterForbidingMultiThreadingE, ptr @_ZN5mongo90UnitTest_SuiteNameThreadSafetyContextTestTestNameCreateThreadsAfterForbidingMultiThreadingD2Ev, ptr @_ZN5mongo90UnitTest_SuiteNameThreadSafetyContextTestTestNameCreateThreadsAfterForbidingMultiThreadingD0Ev, ptr @_ZN5mongo23ThreadSafetyContextTest5setUpEv, ptr @_ZN5mongo23ThreadSafetyContextTest8tearDownEv, ptr @_ZN5mongo90UnitTest_SuiteNameThreadSafetyContextTestTestNameCreateThreadsAfterForbidingMultiThreading7_doTestEv] }, align 8
@_ZTSN5mongo90UnitTest_SuiteNameThreadSafetyContextTestTestNameCreateThreadsAfterForbidingMultiThreadingE = dso_local constant [101 x i8] c"N5mongo90UnitTest_SuiteNameThreadSafetyContextTestTestNameCreateThreadsAfterForbidingMultiThreadingE\00", align 1
@_ZTIN5mongo90UnitTest_SuiteNameThreadSafetyContextTestTestNameCreateThreadsAfterForbidingMultiThreadingE = dso_local constant { ptr, ptr, ptr } { ptr getelementptr inbounds (ptr, ptr @_ZTVN10__cxxabiv120__si_class_type_infoE, i64 2), ptr @_ZTSN5mongo90UnitTest_SuiteNameThreadSafetyContextTestTestNameCreateThreadsAfterForbidingMultiThreadingE, ptr @_ZTIN5mongo23ThreadSafetyContextTestE }, align 8
@_ZTVN5mongo89UnitTest_SuiteNameThreadSafetyContextTestTestNameForbidMultiThreadingAfterCreatingThreadsE = dso_local unnamed_addr constant { [7 x ptr] } { [7 x ptr] [ptr null, ptr @_ZTIN5mongo89UnitTest_SuiteNameThreadSafetyContextTestTestNameForbidMultiThreadingAfterCreatingThreadsE, ptr @_ZN5mongo89UnitTest_SuiteNameThreadSafetyContextTestTestNameForbidMultiThreadingAfterCreatingThreadsD2Ev, ptr @_ZN5mongo89UnitTest_SuiteNameThreadSafetyContextTestTestNameForbidMultiThreadingAfterCreatingThreadsD0Ev, ptr @_ZN5mongo23ThreadSafetyContextTest5setUpEv, ptr @_ZN5mongo23ThreadSafetyContextTest8tearDownEv, ptr @_ZN5mongo89UnitTest_SuiteNameThreadSafetyContextTestTestNameForbidMultiThreadingAfterCreatingThreads7_doTestEv] }, align 8
@_ZTSN5mongo89UnitTest_SuiteNameThreadSafetyContextTestTestNameForbidMultiThreadingAfterCreatingThreadsE = dso_local constant [100 x i8] c"N5mongo89UnitTest_SuiteNameThreadSafetyContextTestTestNameForbidMultiThreadingAfterCreatingThreadsE\00", align 1
@_ZTIN5mongo89UnitTest_SuiteNameThreadSafetyContextTestTestNameForbidMultiThreadingAfterCreatingThreadsE = dso_local constant { ptr, ptr, ptr } { ptr getelementptr inbounds (ptr, ptr @_ZTVN10__cxxabiv120__si_class_type_infoE, i64 2), ptr @_ZTSN5mongo89UnitTest_SuiteNameThreadSafetyContextTestTestNameForbidMultiThreadingAfterCreatingThreadsE, ptr @_ZTIN5mongo23ThreadSafetyContextTestE }, align 8
@_ZTVN5mongo80UnitTest_SuiteNameThreadSafetyContextTestTestNameCreateThreadsAfterSafetyContextE = dso_local unnamed_addr constant { [7 x ptr] } { [7 x ptr] [ptr null, ptr @_ZTIN5mongo80UnitTest_SuiteNameThreadSafetyContextTestTestNameCreateThreadsAfterSafetyContextE, ptr @_ZN5mongo80UnitTest_SuiteNameThreadSafetyContextTestTestNameCreateThreadsAfterSafetyContextD2Ev, ptr @_ZN5mongo80UnitTest_SuiteNameThreadSafetyContextTestTestNameCreateThreadsAfterSafetyContextD0Ev, ptr @_ZN5mongo23ThreadSafetyContextTest5setUpEv, ptr @_ZN5mongo23ThreadSafetyContextTest8tearDownEv, ptr @_ZN5mongo80UnitTest_SuiteNameThreadSafetyContextTestTestNameCreateThreadsAfterSafetyContext7_doTestEv] }, align 8
@_ZTSN5mongo80UnitTest_SuiteNameThreadSafetyContextTestTestNameCreateThreadsAfterSafetyContextE = dso_local constant [91 x i8] c"N5mongo80UnitTest_SuiteNameThreadSafetyContextTestTestNameCreateThreadsAfterSafetyContextE\00", align 1
@_ZTIN5mongo80UnitTest_SuiteNameThreadSafetyContextTestTestNameCreateThreadsAfterSafetyContextE = dso_local constant { ptr, ptr, ptr } { ptr getelementptr inbounds (ptr, ptr @_ZTVN10__cxxabiv120__si_class_type_infoE, i64 2), ptr @_ZTSN5mongo80UnitTest_SuiteNameThreadSafetyContextTestTestNameCreateThreadsAfterSafetyContextE, ptr @_ZTIN5mongo23ThreadSafetyContextTestE }, align 8
@.str.13 = private unnamed_addr constant [2 x i8] c"0\00", align 1, !dbg !6212
@.str.14 = private unnamed_addr constant [45 x i8] c"/home/raj/mongo/src/mongo/base/string_data.h\00", align 1, !dbg !6217
@.str.15 = private unnamed_addr constant [40 x i8] c"StringData(nullptr,len) requires len==0\00", align 1, !dbg !6222
@.str.16 = private unnamed_addr constant [42 x i8] c"basic_string::_M_construct null not valid\00", align 1, !dbg !6225
@__libc_single_threaded = external global i8, align 1
@_ZTVN5mongo23ThreadSafetyContextTestE = linkonce_odr dso_local unnamed_addr constant { [7 x ptr] } { [7 x ptr] [ptr null, ptr @_ZTIN5mongo23ThreadSafetyContextTestE, ptr @_ZN5mongo23ThreadSafetyContextTestD2Ev, ptr @_ZN5mongo23ThreadSafetyContextTestD0Ev, ptr @_ZN5mongo23ThreadSafetyContextTest5setUpEv, ptr @_ZN5mongo23ThreadSafetyContextTest8tearDownEv, ptr @__cxa_pure_virtual] }, comdat, align 8
@_ZTVN10__cxxabiv117__class_type_infoE = external global ptr
@_ZTSZN5mongo8unittest4Test17RegistrationAgentINS_81UnitTest_SuiteNameThreadSafetyContextTestTestNameCreateThreadsWithNoSafetyContextEEC1ENS_10StringDataES5_S5_EUlvE_ = linkonce_odr dso_local constant [162 x i8] c"ZN5mongo8unittest4Test17RegistrationAgentINS_81UnitTest_SuiteNameThreadSafetyContextTestTestNameCreateThreadsWithNoSafetyContextEEC1ENS_10StringDataES5_S5_EUlvE_\00", comdat, align 1
@_ZTIZN5mongo8unittest4Test17RegistrationAgentINS_81UnitTest_SuiteNameThreadSafetyContextTestTestNameCreateThreadsWithNoSafetyContextEEC1ENS_10StringDataES5_S5_EUlvE_ = linkonce_odr dso_local constant { ptr, ptr } { ptr getelementptr inbounds (ptr, ptr @_ZTVN10__cxxabiv117__class_type_infoE, i64 2), ptr @_ZTSZN5mongo8unittest4Test17RegistrationAgentINS_81UnitTest_SuiteNameThreadSafetyContextTestTestNameCreateThreadsWithNoSafetyContextEEC1ENS_10StringDataES5_S5_EUlvE_ }, comdat, align 8
@.str.17 = private unnamed_addr constant [80 x i8] c"Overflow casting from a lower-precision duration to a higher-precision duration\00", align 1, !dbg !6227
@.str.18 = private unnamed_addr constant [42 x i8] c"/home/raj/mongo/src/mongo/util/duration.h\00", align 1, !dbg !6232
@"_ZTVNSt6thread11_State_implINS_8_InvokerISt5tupleIJZN5mongo4stdx6threadC1IZNS3_81UnitTest_SuiteNameThreadSafetyContextTestTestNameCreateThreadsWithNoSafetyContext7_doTestEvE3$_0JELi0EEET_DpOT0_EUlvE_EEEEEE" = internal unnamed_addr constant { [5 x ptr] } { [5 x ptr] [ptr null, ptr @"_ZTINSt6thread11_State_implINS_8_InvokerISt5tupleIJZN5mongo4stdx6threadC1IZNS3_81UnitTest_SuiteNameThreadSafetyContextTestTestNameCreateThreadsWithNoSafetyContext7_doTestEvE3$_0JELi0EEET_DpOT0_EUlvE_EEEEEE", ptr @"_ZNSt6thread11_State_implINS_8_InvokerISt5tupleIJZN5mongo4stdx6threadC1IZNS3_81UnitTest_SuiteNameThreadSafetyContextTestTestNameCreateThreadsWithNoSafetyContext7_doTestEvE3$_0JELi0EEET_DpOT0_EUlvE_EEEEED2Ev", ptr @"_ZNSt6thread11_State_implINS_8_InvokerISt5tupleIJZN5mongo4stdx6threadC1IZNS3_81UnitTest_SuiteNameThreadSafetyContextTestTestNameCreateThreadsWithNoSafetyContext7_doTestEvE3$_0JELi0EEET_DpOT0_EUlvE_EEEEED0Ev", ptr @"_ZNSt6thread11_State_implINS_8_InvokerISt5tupleIJZN5mongo4stdx6threadC1IZNS3_81UnitTest_SuiteNameThreadSafetyContextTestTestNameCreateThreadsWithNoSafetyContext7_doTestEvE3$_0JELi0EEET_DpOT0_EUlvE_EEEEE6_M_runEv"] }, align 8
@"_ZTSNSt6thread11_State_implINS_8_InvokerISt5tupleIJZN5mongo4stdx6threadC1IZNS3_81UnitTest_SuiteNameThreadSafetyContextTestTestNameCreateThreadsWithNoSafetyContext7_doTestEvE3$_0JELi0EEET_DpOT0_EUlvE_EEEEEE" = internal constant [202 x i8] c"NSt6thread11_State_implINS_8_InvokerISt5tupleIJZN5mongo4stdx6threadC1IZNS3_81UnitTest_SuiteNameThreadSafetyContextTestTestNameCreateThreadsWithNoSafetyContext7_doTestEvE3$_0JELi0EEET_DpOT0_EUlvE_EEEEEE\00", align 1
@_ZTINSt6thread6_StateE = external constant ptr
@"_ZTINSt6thread11_State_implINS_8_InvokerISt5tupleIJZN5mongo4stdx6threadC1IZNS3_81UnitTest_SuiteNameThreadSafetyContextTestTestNameCreateThreadsWithNoSafetyContext7_doTestEvE3$_0JELi0EEET_DpOT0_EUlvE_EEEEEE" = internal constant { ptr, ptr, ptr } { ptr getelementptr inbounds (ptr, ptr @_ZTVN10__cxxabiv120__si_class_type_infoE, i64 2), ptr @"_ZTSNSt6thread11_State_implINS_8_InvokerISt5tupleIJZN5mongo4stdx6threadC1IZNS3_81UnitTest_SuiteNameThreadSafetyContextTestTestNameCreateThreadsWithNoSafetyContext7_doTestEvE3$_0JELi0EEET_DpOT0_EUlvE_EEEEEE", ptr @_ZTINSt6thread6_StateE }, align 8
@_ZTVNSt6thread6_StateE = external unnamed_addr constant { [5 x ptr] }, align 8
@.str.19 = private unnamed_addr constant [26 x i8] c"vector::_M_realloc_insert\00", align 1, !dbg !6234
@_ZTVN5mongo8unittest9DeathTestINS_90UnitTest_SuiteNameThreadSafetyContextTestTestNameCreateThreadsAfterForbidingMultiThreadingEEE = linkonce_odr dso_local unnamed_addr constant { [12 x ptr] } { [12 x ptr] [ptr null, ptr @_ZTIN5mongo8unittest9DeathTestINS_90UnitTest_SuiteNameThreadSafetyContextTestTestNameCreateThreadsAfterForbidingMultiThreadingEEE, ptr @_ZN5mongo8unittest9DeathTestINS_90UnitTest_SuiteNameThreadSafetyContextTestTestNameCreateThreadsAfterForbidingMultiThreadingEED2Ev, ptr @_ZN5mongo8unittest9DeathTestINS_90UnitTest_SuiteNameThreadSafetyContextTestTestNameCreateThreadsAfterForbidingMultiThreadingEED0Ev, ptr @_ZN5mongo8unittest4Test5setUpEv, ptr @_ZN5mongo8unittest4Test8tearDownEv, ptr @_ZN5mongo8unittest13DeathTestBase7_doTestEv, ptr @_ZN5mongo8unittest9DeathTestINS_90UnitTest_SuiteNameThreadSafetyContextTestTestNameCreateThreadsAfterForbidingMultiThreadingEE11_doMakeTestEv, ptr @_ZN5mongo8unittest9DeathTestINS_90UnitTest_SuiteNameThreadSafetyContextTestTestNameCreateThreadsAfterForbidingMultiThreadingEE13_doGetPatternB5cxx11Ev, ptr @_ZN5mongo8unittest9DeathTestINS_90UnitTest_SuiteNameThreadSafetyContextTestTestNameCreateThreadsAfterForbidingMultiThreadingEE8_isRegexEv, ptr @_ZN5mongo8unittest9DeathTestINS_90UnitTest_SuiteNameThreadSafetyContextTestTestNameCreateThreadsAfterForbidingMultiThreadingEE8_getLineEv, ptr @_ZN5mongo8unittest9DeathTestINS_90UnitTest_SuiteNameThreadSafetyContextTestTestNameCreateThreadsAfterForbidingMultiThreadingEE8_getFileB5cxx11Ev] }, comdat, align 8
@_ZTSN5mongo8unittest9DeathTestINS_90UnitTest_SuiteNameThreadSafetyContextTestTestNameCreateThreadsAfterForbidingMultiThreadingEEE = linkonce_odr dso_local constant [126 x i8] c"N5mongo8unittest9DeathTestINS_90UnitTest_SuiteNameThreadSafetyContextTestTestNameCreateThreadsAfterForbidingMultiThreadingEEE\00", comdat, align 1
@_ZTIN5mongo8unittest13DeathTestBaseE = external constant ptr
@_ZTIN5mongo8unittest9DeathTestINS_90UnitTest_SuiteNameThreadSafetyContextTestTestNameCreateThreadsAfterForbidingMultiThreadingEEE = linkonce_odr dso_local constant { ptr, ptr, ptr } { ptr getelementptr inbounds (ptr, ptr @_ZTVN10__cxxabiv120__si_class_type_infoE, i64 2), ptr @_ZTSN5mongo8unittest9DeathTestINS_90UnitTest_SuiteNameThreadSafetyContextTestTestNameCreateThreadsAfterForbidingMultiThreadingEEE, ptr @_ZTIN5mongo8unittest13DeathTestBaseE }, comdat, align 8
@_ZTVN5mongo8unittest13DeathTestBaseE = external unnamed_addr constant { [12 x ptr] }, align 8
@_ZTSZN5mongo8unittest9DeathTestINS_90UnitTest_SuiteNameThreadSafetyContextTestTestNameCreateThreadsAfterForbidingMultiThreadingEEC1IJEEEDpOT_EUlvE_ = linkonce_odr dso_local constant [144 x i8] c"ZN5mongo8unittest9DeathTestINS_90UnitTest_SuiteNameThreadSafetyContextTestTestNameCreateThreadsAfterForbidingMultiThreadingEEC1IJEEEDpOT_EUlvE_\00", comdat, align 1
@_ZTIZN5mongo8unittest9DeathTestINS_90UnitTest_SuiteNameThreadSafetyContextTestTestNameCreateThreadsAfterForbidingMultiThreadingEEC1IJEEEDpOT_EUlvE_ = linkonce_odr dso_local constant { ptr, ptr } { ptr getelementptr inbounds (ptr, ptr @_ZTVN10__cxxabiv117__class_type_infoE, i64 2), ptr @_ZTSZN5mongo8unittest9DeathTestINS_90UnitTest_SuiteNameThreadSafetyContextTestTestNameCreateThreadsAfterForbidingMultiThreadingEEC1IJEEEDpOT_EUlvE_ }, comdat, align 8
@.str.20 = private unnamed_addr constant [10 x i8] c"invariant\00", align 1, !dbg !6240
@_ZTSZN5mongo8unittest4Test17RegistrationAgentINS0_9DeathTestINS_90UnitTest_SuiteNameThreadSafetyContextTestTestNameCreateThreadsAfterForbidingMultiThreadingEEEEC1ENS_10StringDataES7_S7_EUlvE_ = linkonce_odr dso_local constant [188 x i8] c"ZN5mongo8unittest4Test17RegistrationAgentINS0_9DeathTestINS_90UnitTest_SuiteNameThreadSafetyContextTestTestNameCreateThreadsAfterForbidingMultiThreadingEEEEC1ENS_10StringDataES7_S7_EUlvE_\00", comdat, align 1
@_ZTIZN5mongo8unittest4Test17RegistrationAgentINS0_9DeathTestINS_90UnitTest_SuiteNameThreadSafetyContextTestTestNameCreateThreadsAfterForbidingMultiThreadingEEEEC1ENS_10StringDataES7_S7_EUlvE_ = linkonce_odr dso_local constant { ptr, ptr } { ptr getelementptr inbounds (ptr, ptr @_ZTVN10__cxxabiv117__class_type_infoE, i64 2), ptr @_ZTSZN5mongo8unittest4Test17RegistrationAgentINS0_9DeathTestINS_90UnitTest_SuiteNameThreadSafetyContextTestTestNameCreateThreadsAfterForbidingMultiThreadingEEEEC1ENS_10StringDataES7_S7_EUlvE_ }, comdat, align 8
@"_ZTVNSt6thread11_State_implINS_8_InvokerISt5tupleIJZN5mongo4stdx6threadC1IZNS3_90UnitTest_SuiteNameThreadSafetyContextTestTestNameCreateThreadsAfterForbidingMultiThreading7_doTestEvE3$_0JELi0EEET_DpOT0_EUlvE_EEEEEE" = internal unnamed_addr constant { [5 x ptr] } { [5 x ptr] [ptr null, ptr @"_ZTINSt6thread11_State_implINS_8_InvokerISt5tupleIJZN5mongo4stdx6threadC1IZNS3_90UnitTest_SuiteNameThreadSafetyContextTestTestNameCreateThreadsAfterForbidingMultiThreading7_doTestEvE3$_0JELi0EEET_DpOT0_EUlvE_EEEEEE", ptr @"_ZNSt6thread11_State_implINS_8_InvokerISt5tupleIJZN5mongo4stdx6threadC1IZNS3_90UnitTest_SuiteNameThreadSafetyContextTestTestNameCreateThreadsAfterForbidingMultiThreading7_doTestEvE3$_0JELi0EEET_DpOT0_EUlvE_EEEEED2Ev", ptr @"_ZNSt6thread11_State_implINS_8_InvokerISt5tupleIJZN5mongo4stdx6threadC1IZNS3_90UnitTest_SuiteNameThreadSafetyContextTestTestNameCreateThreadsAfterForbidingMultiThreading7_doTestEvE3$_0JELi0EEET_DpOT0_EUlvE_EEEEED0Ev", ptr @"_ZNSt6thread11_State_implINS_8_InvokerISt5tupleIJZN5mongo4stdx6threadC1IZNS3_90UnitTest_SuiteNameThreadSafetyContextTestTestNameCreateThreadsAfterForbidingMultiThreading7_doTestEvE3$_0JELi0EEET_DpOT0_EUlvE_EEEEE6_M_runEv"] }, align 8
@"_ZTSNSt6thread11_State_implINS_8_InvokerISt5tupleIJZN5mongo4stdx6threadC1IZNS3_90UnitTest_SuiteNameThreadSafetyContextTestTestNameCreateThreadsAfterForbidingMultiThreading7_doTestEvE3$_0JELi0EEET_DpOT0_EUlvE_EEEEEE" = internal constant [211 x i8] c"NSt6thread11_State_implINS_8_InvokerISt5tupleIJZN5mongo4stdx6threadC1IZNS3_90UnitTest_SuiteNameThreadSafetyContextTestTestNameCreateThreadsAfterForbidingMultiThreading7_doTestEvE3$_0JELi0EEET_DpOT0_EUlvE_EEEEEE\00", align 1
@"_ZTINSt6thread11_State_implINS_8_InvokerISt5tupleIJZN5mongo4stdx6threadC1IZNS3_90UnitTest_SuiteNameThreadSafetyContextTestTestNameCreateThreadsAfterForbidingMultiThreading7_doTestEvE3$_0JELi0EEET_DpOT0_EUlvE_EEEEEE" = internal constant { ptr, ptr, ptr } { ptr getelementptr inbounds (ptr, ptr @_ZTVN10__cxxabiv120__si_class_type_infoE, i64 2), ptr @"_ZTSNSt6thread11_State_implINS_8_InvokerISt5tupleIJZN5mongo4stdx6threadC1IZNS3_90UnitTest_SuiteNameThreadSafetyContextTestTestNameCreateThreadsAfterForbidingMultiThreading7_doTestEvE3$_0JELi0EEET_DpOT0_EUlvE_EEEEEE", ptr @_ZTINSt6thread6_StateE }, align 8
@_ZTVN5mongo8unittest9DeathTestINS_89UnitTest_SuiteNameThreadSafetyContextTestTestNameForbidMultiThreadingAfterCreatingThreadsEEE = linkonce_odr dso_local unnamed_addr constant { [12 x ptr] } { [12 x ptr] [ptr null, ptr @_ZTIN5mongo8unittest9DeathTestINS_89UnitTest_SuiteNameThreadSafetyContextTestTestNameForbidMultiThreadingAfterCreatingThreadsEEE, ptr @_ZN5mongo8unittest9DeathTestINS_89UnitTest_SuiteNameThreadSafetyContextTestTestNameForbidMultiThreadingAfterCreatingThreadsEED2Ev, ptr @_ZN5mongo8unittest9DeathTestINS_89UnitTest_SuiteNameThreadSafetyContextTestTestNameForbidMultiThreadingAfterCreatingThreadsEED0Ev, ptr @_ZN5mongo8unittest4Test5setUpEv, ptr @_ZN5mongo8unittest4Test8tearDownEv, ptr @_ZN5mongo8unittest13DeathTestBase7_doTestEv, ptr @_ZN5mongo8unittest9DeathTestINS_89UnitTest_SuiteNameThreadSafetyContextTestTestNameForbidMultiThreadingAfterCreatingThreadsEE11_doMakeTestEv, ptr @_ZN5mongo8unittest9DeathTestINS_89UnitTest_SuiteNameThreadSafetyContextTestTestNameForbidMultiThreadingAfterCreatingThreadsEE13_doGetPatternB5cxx11Ev, ptr @_ZN5mongo8unittest9DeathTestINS_89UnitTest_SuiteNameThreadSafetyContextTestTestNameForbidMultiThreadingAfterCreatingThreadsEE8_isRegexEv, ptr @_ZN5mongo8unittest9DeathTestINS_89UnitTest_SuiteNameThreadSafetyContextTestTestNameForbidMultiThreadingAfterCreatingThreadsEE8_getLineEv, ptr @_ZN5mongo8unittest9DeathTestINS_89UnitTest_SuiteNameThreadSafetyContextTestTestNameForbidMultiThreadingAfterCreatingThreadsEE8_getFileB5cxx11Ev] }, comdat, align 8
@_ZTSN5mongo8unittest9DeathTestINS_89UnitTest_SuiteNameThreadSafetyContextTestTestNameForbidMultiThreadingAfterCreatingThreadsEEE = linkonce_odr dso_local constant [125 x i8] c"N5mongo8unittest9DeathTestINS_89UnitTest_SuiteNameThreadSafetyContextTestTestNameForbidMultiThreadingAfterCreatingThreadsEEE\00", comdat, align 1
@_ZTIN5mongo8unittest9DeathTestINS_89UnitTest_SuiteNameThreadSafetyContextTestTestNameForbidMultiThreadingAfterCreatingThreadsEEE = linkonce_odr dso_local constant { ptr, ptr, ptr } { ptr getelementptr inbounds (ptr, ptr @_ZTVN10__cxxabiv120__si_class_type_infoE, i64 2), ptr @_ZTSN5mongo8unittest9DeathTestINS_89UnitTest_SuiteNameThreadSafetyContextTestTestNameForbidMultiThreadingAfterCreatingThreadsEEE, ptr @_ZTIN5mongo8unittest13DeathTestBaseE }, comdat, align 8
@_ZTSZN5mongo8unittest9DeathTestINS_89UnitTest_SuiteNameThreadSafetyContextTestTestNameForbidMultiThreadingAfterCreatingThreadsEEC1IJEEEDpOT_EUlvE_ = linkonce_odr dso_local constant [143 x i8] c"ZN5mongo8unittest9DeathTestINS_89UnitTest_SuiteNameThreadSafetyContextTestTestNameForbidMultiThreadingAfterCreatingThreadsEEC1IJEEEDpOT_EUlvE_\00", comdat, align 1
@_ZTIZN5mongo8unittest9DeathTestINS_89UnitTest_SuiteNameThreadSafetyContextTestTestNameForbidMultiThreadingAfterCreatingThreadsEEC1IJEEEDpOT_EUlvE_ = linkonce_odr dso_local constant { ptr, ptr } { ptr getelementptr inbounds (ptr, ptr @_ZTVN10__cxxabiv117__class_type_infoE, i64 2), ptr @_ZTSZN5mongo8unittest9DeathTestINS_89UnitTest_SuiteNameThreadSafetyContextTestTestNameForbidMultiThreadingAfterCreatingThreadsEEC1IJEEEDpOT_EUlvE_ }, comdat, align 8
@_ZTSZN5mongo8unittest4Test17RegistrationAgentINS0_9DeathTestINS_89UnitTest_SuiteNameThreadSafetyContextTestTestNameForbidMultiThreadingAfterCreatingThreadsEEEEC1ENS_10StringDataES7_S7_EUlvE_ = linkonce_odr dso_local constant [187 x i8] c"ZN5mongo8unittest4Test17RegistrationAgentINS0_9DeathTestINS_89UnitTest_SuiteNameThreadSafetyContextTestTestNameForbidMultiThreadingAfterCreatingThreadsEEEEC1ENS_10StringDataES7_S7_EUlvE_\00", comdat, align 1
@_ZTIZN5mongo8unittest4Test17RegistrationAgentINS0_9DeathTestINS_89UnitTest_SuiteNameThreadSafetyContextTestTestNameForbidMultiThreadingAfterCreatingThreadsEEEEC1ENS_10StringDataES7_S7_EUlvE_ = linkonce_odr dso_local constant { ptr, ptr } { ptr getelementptr inbounds (ptr, ptr @_ZTVN10__cxxabiv117__class_type_infoE, i64 2), ptr @_ZTSZN5mongo8unittest4Test17RegistrationAgentINS0_9DeathTestINS_89UnitTest_SuiteNameThreadSafetyContextTestTestNameForbidMultiThreadingAfterCreatingThreadsEEEEC1ENS_10StringDataES7_S7_EUlvE_ }, comdat, align 8
@_ZTSZN5mongo8unittest4Test17RegistrationAgentINS_80UnitTest_SuiteNameThreadSafetyContextTestTestNameCreateThreadsAfterSafetyContextEEC1ENS_10StringDataES5_S5_EUlvE_ = linkonce_odr dso_local constant [161 x i8] c"ZN5mongo8unittest4Test17RegistrationAgentINS_80UnitTest_SuiteNameThreadSafetyContextTestTestNameCreateThreadsAfterSafetyContextEEC1ENS_10StringDataES5_S5_EUlvE_\00", comdat, align 1
@_ZTIZN5mongo8unittest4Test17RegistrationAgentINS_80UnitTest_SuiteNameThreadSafetyContextTestTestNameCreateThreadsAfterSafetyContextEEC1ENS_10StringDataES5_S5_EUlvE_ = linkonce_odr dso_local constant { ptr, ptr } { ptr getelementptr inbounds (ptr, ptr @_ZTVN10__cxxabiv117__class_type_infoE, i64 2), ptr @_ZTSZN5mongo8unittest4Test17RegistrationAgentINS_80UnitTest_SuiteNameThreadSafetyContextTestTestNameCreateThreadsAfterSafetyContextEEC1ENS_10StringDataES5_S5_EUlvE_ }, comdat, align 8
@"_ZTVNSt6thread11_State_implINS_8_InvokerISt5tupleIJZN5mongo4stdx6threadC1IZNS3_80UnitTest_SuiteNameThreadSafetyContextTestTestNameCreateThreadsAfterSafetyContext7_doTestEvE3$_0JELi0EEET_DpOT0_EUlvE_EEEEEE" = internal unnamed_addr constant { [5 x ptr] } { [5 x ptr] [ptr null, ptr @"_ZTINSt6thread11_State_implINS_8_InvokerISt5tupleIJZN5mongo4stdx6threadC1IZNS3_80UnitTest_SuiteNameThreadSafetyContextTestTestNameCreateThreadsAfterSafetyContext7_doTestEvE3$_0JELi0EEET_DpOT0_EUlvE_EEEEEE", ptr @"_ZNSt6thread11_State_implINS_8_InvokerISt5tupleIJZN5mongo4stdx6threadC1IZNS3_80UnitTest_SuiteNameThreadSafetyContextTestTestNameCreateThreadsAfterSafetyContext7_doTestEvE3$_0JELi0EEET_DpOT0_EUlvE_EEEEED2Ev", ptr @"_ZNSt6thread11_State_implINS_8_InvokerISt5tupleIJZN5mongo4stdx6threadC1IZNS3_80UnitTest_SuiteNameThreadSafetyContextTestTestNameCreateThreadsAfterSafetyContext7_doTestEvE3$_0JELi0EEET_DpOT0_EUlvE_EEEEED0Ev", ptr @"_ZNSt6thread11_State_implINS_8_InvokerISt5tupleIJZN5mongo4stdx6threadC1IZNS3_80UnitTest_SuiteNameThreadSafetyContextTestTestNameCreateThreadsAfterSafetyContext7_doTestEvE3$_0JELi0EEET_DpOT0_EUlvE_EEEEE6_M_runEv"] }, align 8
@"_ZTSNSt6thread11_State_implINS_8_InvokerISt5tupleIJZN5mongo4stdx6threadC1IZNS3_80UnitTest_SuiteNameThreadSafetyContextTestTestNameCreateThreadsAfterSafetyContext7_doTestEvE3$_0JELi0EEET_DpOT0_EUlvE_EEEEEE" = internal constant [201 x i8] c"NSt6thread11_State_implINS_8_InvokerISt5tupleIJZN5mongo4stdx6threadC1IZNS3_80UnitTest_SuiteNameThreadSafetyContextTestTestNameCreateThreadsAfterSafetyContext7_doTestEvE3$_0JELi0EEET_DpOT0_EUlvE_EEEEEE\00", align 1
@"_ZTINSt6thread11_State_implINS_8_InvokerISt5tupleIJZN5mongo4stdx6threadC1IZNS3_80UnitTest_SuiteNameThreadSafetyContextTestTestNameCreateThreadsAfterSafetyContext7_doTestEvE3$_0JELi0EEET_DpOT0_EUlvE_EEEEEE" = internal constant { ptr, ptr, ptr } { ptr getelementptr inbounds (ptr, ptr @_ZTVN10__cxxabiv120__si_class_type_infoE, i64 2), ptr @"_ZTSNSt6thread11_State_implINS_8_InvokerISt5tupleIJZN5mongo4stdx6threadC1IZNS3_80UnitTest_SuiteNameThreadSafetyContextTestTestNameCreateThreadsAfterSafetyContext7_doTestEvE3$_0JELi0EEET_DpOT0_EUlvE_EEEEEE", ptr @_ZTINSt6thread6_StateE }, align 8
@llvm.global_ctors = appending global [6 x { i32, ptr, ptr }] [{ i32, ptr, ptr } { i32 65535, ptr @__cxx_global_var_init, ptr @_ZN5boost4noneE }, { i32, ptr, ptr } { i32 65535, ptr @__cxx_global_var_init.4, ptr @_ZN5mongo81UnitTest_SuiteNameThreadSafetyContextTestTestNameCreateThreadsWithNoSafetyContext6_agentE }, { i32, ptr, ptr } { i32 65535, ptr @__cxx_global_var_init.7, ptr @_ZN5mongo90UnitTest_SuiteNameThreadSafetyContextTestTestNameCreateThreadsAfterForbidingMultiThreading6_agentE }, { i32, ptr, ptr } { i32 65535, ptr @__cxx_global_var_init.9, ptr @_ZN5mongo89UnitTest_SuiteNameThreadSafetyContextTestTestNameForbidMultiThreadingAfterCreatingThreads6_agentE }, { i32, ptr, ptr } { i32 65535, ptr @__cxx_global_var_init.11, ptr @_ZN5mongo80UnitTest_SuiteNameThreadSafetyContextTestTestNameCreateThreadsAfterSafetyContext6_agentE }, { i32, ptr, ptr } { i32 65535, ptr @_GLOBAL__sub_I_thread_safety_context_test.cpp, ptr null }]
@llvm.used = appending global [5 x ptr] [ptr @_ZN5boost4noneE, ptr @_ZN5mongo81UnitTest_SuiteNameThreadSafetyContextTestTestNameCreateThreadsWithNoSafetyContext6_agentE, ptr @_ZN5mongo90UnitTest_SuiteNameThreadSafetyContextTestTestNameCreateThreadsAfterForbidingMultiThreading6_agentE, ptr @_ZN5mongo89UnitTest_SuiteNameThreadSafetyContextTestTestNameForbidMultiThreadingAfterCreatingThreads6_agentE, ptr @_ZN5mongo80UnitTest_SuiteNameThreadSafetyContextTestTestNameCreateThreadsAfterSafetyContext6_agentE], section "llvm.metadata"

; Function Attrs: noinline uwtable
define internal void @__cxx_global_var_init() #0 section ".text.startup" comdat($_ZN5boost4noneE) personality ptr @__gxx_personality_v0 !dbg !7876 {
  %1 = alloca %"struct.boost::none_t::init_tag", align 1
  %2 = alloca ptr, align 8
  %3 = alloca i32, align 4
  %4 = load atomic i8, ptr @_ZGVN5boost4noneE acquire, align 8, !dbg !7877
  %5 = icmp eq i8 %4, 0, !dbg !7877
  br i1 %5, label %6, label %11, !dbg !7877

6:                                                ; preds = %0
  %7 = call i32 @__cxa_guard_acquire(ptr @_ZGVN5boost4noneE) #1, !dbg !7877
  %8 = icmp ne i32 %7, 0, !dbg !7877
  br i1 %8, label %9, label %11, !dbg !7877

9:                                                ; preds = %6
  invoke void @_ZN5boost6none_tC2ENS0_8init_tagE(ptr noundef nonnull align 1 dereferenceable(1) @_ZN5boost4noneE)
          to label %10 unwind label %12, !dbg !7878

10:                                               ; preds = %9
  call void @__cxa_guard_release(ptr @_ZGVN5boost4noneE) #1, !dbg !7877
  br label %11, !dbg !7877

11:                                               ; preds = %10, %6, %0
  ret void, !dbg !7880

12:                                               ; preds = %9
  %13 = landingpad { ptr, i32 }
          cleanup, !dbg !7880
  %14 = extractvalue { ptr, i32 } %13, 0, !dbg !7880
  store ptr %14, ptr %2, align 8, !dbg !7880
  %15 = extractvalue { ptr, i32 } %13, 1, !dbg !7880
  store i32 %15, ptr %3, align 4, !dbg !7880
  call void @__cxa_guard_abort(ptr @_ZGVN5boost4noneE) #1, !dbg !7877
  br label %16, !dbg !7877

16:                                               ; preds = %12
  %17 = load ptr, ptr %2, align 8, !dbg !7877
  %18 = load i32, ptr %3, align 4, !dbg !7877
  %19 = insertvalue { ptr, i32 } poison, ptr %17, 0, !dbg !7877
  %20 = insertvalue { ptr, i32 } %19, i32 %18, 1, !dbg !7877
  resume { ptr, i32 } %20, !dbg !7877
}

; Function Attrs: nounwind
declare i32 @__cxa_guard_acquire(ptr) #1

; Function Attrs: noinline nounwind optnone uwtable
define linkonce_odr dso_local void @_ZN5boost6none_tC2ENS0_8init_tagE(ptr noundef nonnull align 1 dereferenceable(1) %0) unnamed_addr #2 comdat align 2 !dbg !7881 {
  %2 = alloca %"struct.boost::none_t::init_tag", align 1
  %3 = alloca ptr, align 8
  store ptr %0, ptr %3, align 8
  call void @llvm.dbg.declare(metadata ptr %3, metadata !7882, metadata !DIExpression()), !dbg !7884
  call void @llvm.dbg.declare(metadata ptr %2, metadata !7885, metadata !DIExpression()), !dbg !7886
  %4 = load ptr, ptr %3, align 8
  ret void, !dbg !7887
}

declare i32 @__gxx_personality_v0(...)

; Function Attrs: nounwind
declare void @__cxa_guard_abort(ptr) #1

; Function Attrs: nounwind
declare void @__cxa_guard_release(ptr) #1

; Function Attrs: noinline uwtable
define internal void @__cxx_global_var_init.1() #0 section ".text.startup" !dbg !7888 {
  %1 = alloca %"struct.boost::optional_ns::in_place_init_t::init_tag", align 1
  call void @_ZN5boost11optional_ns15in_place_init_tC2ENS1_8init_tagE(ptr noundef nonnull align 1 dereferenceable(1) @_ZN5boost11optional_nsL13in_place_initE), !dbg !7889
  ret void, !dbg !7891
}

; Function Attrs: noinline nounwind optnone uwtable
define linkonce_odr dso_local void @_ZN5boost11optional_ns15in_place_init_tC2ENS1_8init_tagE(ptr noundef nonnull align 1 dereferenceable(1) %0) unnamed_addr #2 comdat align 2 !dbg !7892 {
  %2 = alloca %"struct.boost::optional_ns::in_place_init_t::init_tag", align 1
  %3 = alloca ptr, align 8
  store ptr %0, ptr %3, align 8
  call void @llvm.dbg.declare(metadata ptr %3, metadata !7893, metadata !DIExpression()), !dbg !7895
  call void @llvm.dbg.declare(metadata ptr %2, metadata !7896, metadata !DIExpression()), !dbg !7897
  %4 = load ptr, ptr %3, align 8
  ret void, !dbg !7898
}

; Function Attrs: noinline uwtable
define internal void @__cxx_global_var_init.2() #0 section ".text.startup" !dbg !7899 {
  %1 = alloca %"struct.boost::optional_ns::in_place_init_if_t::init_tag", align 1
  call void @_ZN5boost11optional_ns18in_place_init_if_tC2ENS1_8init_tagE(ptr noundef nonnull align 1 dereferenceable(1) @_ZN5boost11optional_nsL16in_place_init_ifE), !dbg !7900
  ret void, !dbg !7902
}

; Function Attrs: noinline nounwind optnone uwtable
define linkonce_odr dso_local void @_ZN5boost11optional_ns18in_place_init_if_tC2ENS1_8init_tagE(ptr noundef nonnull align 1 dereferenceable(1) %0) unnamed_addr #2 comdat align 2 !dbg !7903 {
  %2 = alloca %"struct.boost::optional_ns::in_place_init_if_t::init_tag", align 1
  %3 = alloca ptr, align 8
  store ptr %0, ptr %3, align 8
  call void @llvm.dbg.declare(metadata ptr %3, metadata !7904, metadata !DIExpression()), !dbg !7906
  call void @llvm.dbg.declare(metadata ptr %2, metadata !7907, metadata !DIExpression()), !dbg !7908
  %4 = load ptr, ptr %3, align 8
  ret void, !dbg !7909
}

; Function Attrs: noinline uwtable
define internal void @__cxx_global_var_init.3() #0 section ".text.startup" !dbg !7910 {
  call void @_ZNSt8ios_base4InitC1Ev(ptr noundef nonnull align 1 dereferenceable(1) @_ZStL8__ioinit), !dbg !7911
  %1 = call i32 @__cxa_atexit(ptr @_ZNSt8ios_base4InitD1Ev, ptr @_ZStL8__ioinit, ptr @__dso_handle) #1, !dbg !7913
  ret void, !dbg !7911
}

declare void @_ZNSt8ios_base4InitC1Ev(ptr noundef nonnull align 1 dereferenceable(1)) unnamed_addr #3

; Function Attrs: nounwind
declare void @_ZNSt8ios_base4InitD1Ev(ptr noundef nonnull align 1 dereferenceable(1)) unnamed_addr #4

; Function Attrs: nounwind
declare i32 @__cxa_atexit(ptr, ptr, ptr) #1

; Function Attrs: noinline uwtable
define internal void @__cxx_global_var_init.4() #0 section ".text.startup" comdat($_ZN5mongo81UnitTest_SuiteNameThreadSafetyContextTestTestNameCreateThreadsWithNoSafetyContext6_agentE) personality ptr @__gxx_personality_v0 !dbg !7914 {
  %1 = alloca %"class.mongo::StringData", align 8
  %2 = alloca ptr, align 8
  %3 = alloca i32, align 4
  %4 = alloca %"class.mongo::StringData", align 8
  %5 = alloca %"class.mongo::StringData", align 8
  %6 = load atomic i8, ptr @_ZGVN5mongo81UnitTest_SuiteNameThreadSafetyContextTestTestNameCreateThreadsWithNoSafetyContext6_agentE acquire, align 8, !dbg !7915
  %7 = icmp eq i8 %6, 0, !dbg !7915
  br i1 %7, label %8, label %24, !dbg !7915

8:                                                ; preds = %0
  %9 = call i32 @__cxa_guard_acquire(ptr @_ZGVN5mongo81UnitTest_SuiteNameThreadSafetyContextTestTestNameCreateThreadsWithNoSafetyContext6_agentE) #1, !dbg !7915
  %10 = icmp ne i32 %9, 0, !dbg !7915
  br i1 %10, label %11, label %24, !dbg !7915

11:                                               ; preds = %8
  invoke void @_ZN5mongo10StringDataC2EPKc(ptr noundef nonnull align 8 dereferenceable(16) %1, ptr noundef @.str)
          to label %12 unwind label %25, !dbg !7916

12:                                               ; preds = %11
  invoke void @_ZN5mongo10StringDataC2EPKc(ptr noundef nonnull align 8 dereferenceable(16) %4, ptr noundef @.str.5)
          to label %13 unwind label %25, !dbg !7916

13:                                               ; preds = %12
  invoke void @_ZN5mongo10StringDataC2EPKc(ptr noundef nonnull align 8 dereferenceable(16) %5, ptr noundef @.str.6)
          to label %14 unwind label %25, !dbg !7916

14:                                               ; preds = %13
  %15 = getelementptr inbounds { ptr, i64 }, ptr %1, i32 0, i32 0, !dbg !7916
  %16 = load ptr, ptr %15, align 8, !dbg !7916
  %17 = getelementptr inbounds { ptr, i64 }, ptr %1, i32 0, i32 1, !dbg !7916
  %18 = load i64, ptr %17, align 8, !dbg !7916
  %19 = getelementptr inbounds { ptr, i64 }, ptr %4, i32 0, i32 0, !dbg !7916
  %20 = load ptr, ptr %19, align 8, !dbg !7916
  %21 = getelementptr inbounds { ptr, i64 }, ptr %4, i32 0, i32 1, !dbg !7916
  %22 = load i64, ptr %21, align 8, !dbg !7916
  invoke void @_ZN5mongo8unittest4Test17RegistrationAgentINS_81UnitTest_SuiteNameThreadSafetyContextTestTestNameCreateThreadsWithNoSafetyContextEEC2ENS_10StringDataES5_S5_(ptr noundef nonnull align 8 dereferenceable(48) @_ZN5mongo81UnitTest_SuiteNameThreadSafetyContextTestTestNameCreateThreadsWithNoSafetyContext6_agentE, ptr %16, i64 %18, ptr %20, i64 %22, ptr noundef byval(%"class.mongo::StringData") align 8 %5)
          to label %23 unwind label %25, !dbg !7916

23:                                               ; preds = %14
  call void @__cxa_guard_release(ptr @_ZGVN5mongo81UnitTest_SuiteNameThreadSafetyContextTestTestNameCreateThreadsWithNoSafetyContext6_agentE) #1, !dbg !7915
  br label %24, !dbg !7915

24:                                               ; preds = %23, %8, %0
  ret void, !dbg !7916

25:                                               ; preds = %14, %13, %12, %11
  %26 = landingpad { ptr, i32 }
          cleanup, !dbg !7916
  %27 = extractvalue { ptr, i32 } %26, 0, !dbg !7916
  store ptr %27, ptr %2, align 8, !dbg !7916
  %28 = extractvalue { ptr, i32 } %26, 1, !dbg !7916
  store i32 %28, ptr %3, align 4, !dbg !7916
  call void @__cxa_guard_abort(ptr @_ZGVN5mongo81UnitTest_SuiteNameThreadSafetyContextTestTestNameCreateThreadsWithNoSafetyContext6_agentE) #1, !dbg !7915
  br label %29, !dbg !7915

29:                                               ; preds = %25
  %30 = load ptr, ptr %2, align 8, !dbg !7915
  %31 = load i32, ptr %3, align 4, !dbg !7915
  %32 = insertvalue { ptr, i32 } poison, ptr %30, 0, !dbg !7915
  %33 = insertvalue { ptr, i32 } %32, i32 %31, 1, !dbg !7915
  resume { ptr, i32 } %33, !dbg !7915
}

; Function Attrs: noinline optnone uwtable
define linkonce_odr dso_local void @_ZN5mongo10StringDataC2EPKc(ptr noundef nonnull align 8 dereferenceable(16) %0, ptr noundef %1) unnamed_addr #5 comdat align 2 !dbg !7918 {
  %3 = alloca ptr, align 8
  %4 = alloca ptr, align 8
  store ptr %0, ptr %3, align 8
  call void @llvm.dbg.declare(metadata ptr %3, metadata !7919, metadata !DIExpression()), !dbg !7921
  store ptr %1, ptr %4, align 8
  call void @llvm.dbg.declare(metadata ptr %4, metadata !7922, metadata !DIExpression()), !dbg !7923
  %5 = load ptr, ptr %3, align 8
  %6 = load ptr, ptr %4, align 8, !dbg !7924
  %7 = load ptr, ptr %4, align 8, !dbg !7925
  %8 = icmp ne ptr %7, null, !dbg !7925
  br i1 %8, label %9, label %12, !dbg !7925

9:                                                ; preds = %2
  %10 = load ptr, ptr %4, align 8, !dbg !7926
  %11 = call i64 @strlen(ptr noundef %10) #18, !dbg !7927
  br label %13, !dbg !7925

12:                                               ; preds = %2
  br label %13, !dbg !7925

13:                                               ; preds = %12, %9
  %14 = phi i64 [ %11, %9 ], [ 0, %12 ], !dbg !7925
  call void @_ZN5mongo10StringDataC2EPKcm(ptr noundef nonnull align 8 dereferenceable(16) %5, ptr noundef %6, i64 noundef %14), !dbg !7928
  ret void, !dbg !7929
}

; Function Attrs: noinline optnone uwtable
define linkonce_odr dso_local void @_ZN5mongo8unittest4Test17RegistrationAgentINS_81UnitTest_SuiteNameThreadSafetyContextTestTestNameCreateThreadsWithNoSafetyContextEEC2ENS_10StringDataES5_S5_(ptr noundef nonnull align 8 dereferenceable(48) %0, ptr %1, i64 %2, ptr %3, i64 %4, ptr noundef byval(%"class.mongo::StringData") align 8 %5) unnamed_addr #5 comdat align 2 personality ptr @__gxx_personality_v0 !dbg !2368 {
  %7 = alloca %"class.mongo::StringData", align 8
  %8 = alloca %"class.mongo::StringData", align 8
  %9 = alloca ptr, align 8
  %10 = alloca %"class.mongo::StringData", align 8
  %11 = alloca %"class.std::__cxx11::basic_string", align 8
  %12 = alloca %"class.std::__cxx11::basic_string", align 8
  %13 = alloca ptr, align 8
  %14 = alloca i32, align 4
  %15 = alloca %"class.std::function", align 8
  %16 = alloca %class.anon.26, align 1
  %17 = getelementptr inbounds { ptr, i64 }, ptr %7, i32 0, i32 0
  store ptr %1, ptr %17, align 8
  %18 = getelementptr inbounds { ptr, i64 }, ptr %7, i32 0, i32 1
  store i64 %2, ptr %18, align 8
  %19 = getelementptr inbounds { ptr, i64 }, ptr %8, i32 0, i32 0
  store ptr %3, ptr %19, align 8
  %20 = getelementptr inbounds { ptr, i64 }, ptr %8, i32 0, i32 1
  store i64 %4, ptr %20, align 8
  store ptr %0, ptr %9, align 8
  call void @llvm.dbg.declare(metadata ptr %9, metadata !7930, metadata !DIExpression()), !dbg !7932
  call void @llvm.dbg.declare(metadata ptr %7, metadata !7933, metadata !DIExpression()), !dbg !7934
  call void @llvm.dbg.declare(metadata ptr %8, metadata !7935, metadata !DIExpression()), !dbg !7936
  call void @llvm.dbg.declare(metadata ptr %5, metadata !7937, metadata !DIExpression()), !dbg !7938
  %21 = load ptr, ptr %9, align 8
  %22 = getelementptr inbounds %"class.mongo::unittest::Test::RegistrationAgent", ptr %21, i32 0, i32 0, !dbg !7939
  call void @llvm.memcpy.p0.p0.i64(ptr align 8 %22, ptr align 8 %7, i64 16, i1 false), !dbg !7939
  %23 = getelementptr inbounds %"class.mongo::unittest::Test::RegistrationAgent", ptr %21, i32 0, i32 1, !dbg !7940
  call void @llvm.memcpy.p0.p0.i64(ptr align 8 %23, ptr align 8 %8, i64 16, i1 false), !dbg !7940
  %24 = getelementptr inbounds %"class.mongo::unittest::Test::RegistrationAgent", ptr %21, i32 0, i32 2, !dbg !7941
  call void @llvm.memcpy.p0.p0.i64(ptr align 8 %24, ptr align 8 %5, i64 16, i1 false), !dbg !7941
  %25 = getelementptr inbounds %"class.mongo::unittest::Test::RegistrationAgent", ptr %21, i32 0, i32 0, !dbg !7942
  call void @llvm.memcpy.p0.p0.i64(ptr align 8 %10, ptr align 8 %25, i64 16, i1 false), !dbg !7942
  %26 = getelementptr inbounds { ptr, i64 }, ptr %10, i32 0, i32 0, !dbg !7944
  %27 = load ptr, ptr %26, align 8, !dbg !7944
  %28 = getelementptr inbounds { ptr, i64 }, ptr %10, i32 0, i32 1, !dbg !7944
  %29 = load i64, ptr %28, align 8, !dbg !7944
  %30 = call noundef nonnull align 8 dereferenceable(72) ptr @_ZN5mongo8unittest5Suite8getSuiteENS_10StringDataE(ptr %27, i64 %29), !dbg !7944
  %31 = getelementptr inbounds %"class.mongo::unittest::Test::RegistrationAgent", ptr %21, i32 0, i32 1, !dbg !7945
  call void @_ZNK5mongo10StringDatacvNSt7__cxx1112basic_stringIcSt11char_traitsIcESaIcEEEEv(ptr sret(%"class.std::__cxx11::basic_string") align 8 %11, ptr noundef nonnull align 8 dereferenceable(16) %31), !dbg !7945
  %32 = getelementptr inbounds %"class.mongo::unittest::Test::RegistrationAgent", ptr %21, i32 0, i32 2, !dbg !7946
  invoke void @_ZNK5mongo10StringDatacvNSt7__cxx1112basic_stringIcSt11char_traitsIcESaIcEEEEv(ptr sret(%"class.std::__cxx11::basic_string") align 8 %12, ptr noundef nonnull align 8 dereferenceable(16) %32)
          to label %33 unwind label %35, !dbg !7946

33:                                               ; preds = %6
  call void @_ZNSt8functionIFvvEEC2IZN5mongo8unittest4Test17RegistrationAgentINS3_81UnitTest_SuiteNameThreadSafetyContextTestTestNameCreateThreadsWithNoSafetyContextEEC1ENS3_10StringDataES9_S9_EUlvE_vEEOT_(ptr noundef nonnull align 8 dereferenceable(32) %15, ptr noundef nonnull align 1 dereferenceable(1) %16) #1, !dbg !7947
  invoke void @_ZN5mongo8unittest5Suite3addENSt7__cxx1112basic_stringIcSt11char_traitsIcESaIcEEES7_St8functionIFvvEE(ptr noundef nonnull align 8 dereferenceable(72) %30, ptr noundef %11, ptr noundef %12, ptr noundef %15)
          to label %34 unwind label %39, !dbg !7948

34:                                               ; preds = %33
  call void @_ZNSt8functionIFvvEED2Ev(ptr noundef nonnull align 8 dereferenceable(32) %15) #1, !dbg !7944
  call void @_ZNSt7__cxx1112basic_stringIcSt11char_traitsIcESaIcEED1Ev(ptr noundef nonnull align 8 dereferenceable(32) %12) #1, !dbg !7944
  call void @_ZNSt7__cxx1112basic_stringIcSt11char_traitsIcESaIcEED1Ev(ptr noundef nonnull align 8 dereferenceable(32) %11) #1, !dbg !7944
  ret void, !dbg !7949

35:                                               ; preds = %6
  %36 = landingpad { ptr, i32 }
          cleanup, !dbg !7950
  %37 = extractvalue { ptr, i32 } %36, 0, !dbg !7950
  store ptr %37, ptr %13, align 8, !dbg !7950
  %38 = extractvalue { ptr, i32 } %36, 1, !dbg !7950
  store i32 %38, ptr %14, align 4, !dbg !7950
  br label %43, !dbg !7950

39:                                               ; preds = %33
  %40 = landingpad { ptr, i32 }
          cleanup, !dbg !7950
  %41 = extractvalue { ptr, i32 } %40, 0, !dbg !7950
  store ptr %41, ptr %13, align 8, !dbg !7950
  %42 = extractvalue { ptr, i32 } %40, 1, !dbg !7950
  store i32 %42, ptr %14, align 4, !dbg !7950
  call void @_ZNSt8functionIFvvEED2Ev(ptr noundef nonnull align 8 dereferenceable(32) %15) #1, !dbg !7944
  call void @_ZNSt7__cxx1112basic_stringIcSt11char_traitsIcESaIcEED1Ev(ptr noundef nonnull align 8 dereferenceable(32) %12) #1, !dbg !7944
  br label %43, !dbg !7944

43:                                               ; preds = %39, %35
  call void @_ZNSt7__cxx1112basic_stringIcSt11char_traitsIcESaIcEED1Ev(ptr noundef nonnull align 8 dereferenceable(32) %11) #1, !dbg !7944
  br label %44, !dbg !7944

44:                                               ; preds = %43
  %45 = load ptr, ptr %13, align 8, !dbg !7944
  %46 = load i32, ptr %14, align 4, !dbg !7944
  %47 = insertvalue { ptr, i32 } poison, ptr %45, 0, !dbg !7944
  %48 = insertvalue { ptr, i32 } %47, i32 %46, 1, !dbg !7944
  resume { ptr, i32 } %48, !dbg !7944
}

; Function Attrs: mustprogress noinline optnone uwtable
define dso_local void @_ZN5mongo81UnitTest_SuiteNameThreadSafetyContextTestTestNameCreateThreadsWithNoSafetyContext7_doTestEv(ptr noundef nonnull align 8 dereferenceable(8) %0) unnamed_addr #6 align 2 personality ptr @__gxx_personality_v0 !dbg !2760 {
  %2 = alloca ptr, align 8
  %3 = alloca i32, align 4
  %4 = alloca %"class.std::vector", align 8
  %5 = alloca i32, align 4
  %6 = alloca %class.anon, align 1
  %7 = alloca ptr, align 8
  %8 = alloca i32, align 4
  %9 = alloca i32, align 4
  store ptr %0, ptr %2, align 8
  call void @llvm.dbg.declare(metadata ptr %2, metadata !7951, metadata !DIExpression()), !dbg !7953
  %10 = load ptr, ptr %2, align 8
  call void @llvm.dbg.declare(metadata ptr %3, metadata !7954, metadata !DIExpression()), !dbg !7955
  store i32 16, ptr %3, align 4, !dbg !7955
  call void @llvm.dbg.declare(metadata ptr %4, metadata !7956, metadata !DIExpression()), !dbg !7957
  call void @_ZNSt6vectorIN5mongo4stdx6threadESaIS2_EEC2Ev(ptr noundef nonnull align 8 dereferenceable(24) %4) #1, !dbg !7957
  call void @llvm.dbg.declare(metadata ptr %5, metadata !7958, metadata !DIExpression()), !dbg !7960
  store i32 0, ptr %5, align 4, !dbg !7960
  br label %11, !dbg !7961

11:                                               ; preds = %17, %1
  %12 = load i32, ptr %5, align 4, !dbg !7962
  %13 = icmp slt i32 %12, 16, !dbg !7964
  br i1 %13, label %14, label %24, !dbg !7965

14:                                               ; preds = %11
  %15 = invoke noundef nonnull align 8 dereferenceable(8) ptr @"_ZNSt6vectorIN5mongo4stdx6threadESaIS2_EE12emplace_backIJZNS0_81UnitTest_SuiteNameThreadSafetyContextTestTestNameCreateThreadsWithNoSafetyContext7_doTestEvE3$_0EEERS2_DpOT_"(ptr noundef nonnull align 8 dereferenceable(24) %4, ptr noundef nonnull align 1 dereferenceable(1) %6)
          to label %16 unwind label %20, !dbg !7966

16:                                               ; preds = %14
  br label %17, !dbg !7968

17:                                               ; preds = %16
  %18 = load i32, ptr %5, align 4, !dbg !7969
  %19 = add nsw i32 %18, 1, !dbg !7969
  store i32 %19, ptr %5, align 4, !dbg !7969
  br label %11, !dbg !7970, !llvm.loop !7971

20:                                               ; preds = %28, %14
  %21 = landingpad { ptr, i32 }
          cleanup, !dbg !7974
  %22 = extractvalue { ptr, i32 } %21, 0, !dbg !7974
  store ptr %22, ptr %7, align 8, !dbg !7974
  %23 = extractvalue { ptr, i32 } %21, 1, !dbg !7974
  store i32 %23, ptr %8, align 4, !dbg !7974
  call void @_ZNSt6vectorIN5mongo4stdx6threadESaIS2_EED2Ev(ptr noundef nonnull align 8 dereferenceable(24) %4) #1, !dbg !7975
  br label %37, !dbg !7975

24:                                               ; preds = %11
  call void @llvm.dbg.declare(metadata ptr %9, metadata !7976, metadata !DIExpression()), !dbg !7978
  store i32 0, ptr %9, align 4, !dbg !7978
  br label %25, !dbg !7979

25:                                               ; preds = %33, %24
  %26 = load i32, ptr %9, align 4, !dbg !7980
  %27 = icmp slt i32 %26, 16, !dbg !7982
  br i1 %27, label %28, label %36, !dbg !7983

28:                                               ; preds = %25
  %29 = load i32, ptr %9, align 4, !dbg !7984
  %30 = sext i32 %29 to i64, !dbg !7984
  %31 = call noundef nonnull align 8 dereferenceable(8) ptr @_ZNSt6vectorIN5mongo4stdx6threadESaIS2_EEixEm(ptr noundef nonnull align 8 dereferenceable(24) %4, i64 noundef %30) #1, !dbg !7986
  invoke void @_ZNSt6thread4joinEv(ptr noundef nonnull align 8 dereferenceable(8) %31)
          to label %32 unwind label %20, !dbg !7987

32:                                               ; preds = %28
  br label %33, !dbg !7988

33:                                               ; preds = %32
  %34 = load i32, ptr %9, align 4, !dbg !7989
  %35 = add nsw i32 %34, 1, !dbg !7989
  store i32 %35, ptr %9, align 4, !dbg !7989
  br label %25, !dbg !7990, !llvm.loop !7991

36:                                               ; preds = %25
  call void @_ZNSt6vectorIN5mongo4stdx6threadESaIS2_EED2Ev(ptr noundef nonnull align 8 dereferenceable(24) %4) #1, !dbg !7975
  ret void, !dbg !7975

37:                                               ; preds = %20
  %38 = load ptr, ptr %7, align 8, !dbg !7975
  %39 = load i32, ptr %8, align 4, !dbg !7975
  %40 = insertvalue { ptr, i32 } poison, ptr %38, 0, !dbg !7975
  %41 = insertvalue { ptr, i32 } %40, i32 %39, 1, !dbg !7975
  resume { ptr, i32 } %41, !dbg !7975
}

; Function Attrs: nocallback nofree nosync nounwind speculatable willreturn memory(none)
declare void @llvm.dbg.declare(metadata, metadata, metadata) #7

; Function Attrs: noinline nounwind optnone uwtable
define linkonce_odr dso_local void @_ZNSt6vectorIN5mongo4stdx6threadESaIS2_EEC2Ev(ptr noundef nonnull align 8 dereferenceable(24) %0) unnamed_addr #2 comdat align 2 !dbg !7993 {
  %2 = alloca ptr, align 8
  store ptr %0, ptr %2, align 8
  call void @llvm.dbg.declare(metadata ptr %2, metadata !7994, metadata !DIExpression()), !dbg !7996
  %3 = load ptr, ptr %2, align 8
  call void @_ZNSt12_Vector_baseIN5mongo4stdx6threadESaIS2_EEC2Ev(ptr noundef nonnull align 8 dereferenceable(24) %3) #1, !dbg !7997
  ret void, !dbg !7998
}

; Function Attrs: mustprogress noinline optnone uwtable
define internal noundef nonnull align 8 dereferenceable(8) ptr @"_ZNSt6vectorIN5mongo4stdx6threadESaIS2_EE12emplace_backIJZNS0_81UnitTest_SuiteNameThreadSafetyContextTestTestNameCreateThreadsWithNoSafetyContext7_doTestEvE3$_0EEERS2_DpOT_"(ptr noundef nonnull align 8 dereferenceable(24) %0, ptr noundef nonnull align 1 dereferenceable(1) %1) #6 align 2 !dbg !7999 {
  %3 = alloca ptr, align 8
  %4 = alloca ptr, align 8
  %5 = alloca %"class.__gnu_cxx::__normal_iterator", align 8
  store ptr %0, ptr %3, align 8
  call void @llvm.dbg.declare(metadata ptr %3, metadata !8007, metadata !DIExpression()), !dbg !8008
  store ptr %1, ptr %4, align 8
  call void @llvm.dbg.declare(metadata ptr %4, metadata !8009, metadata !DIExpression()), !dbg !8010
  %6 = load ptr, ptr %3, align 8
  %7 = getelementptr inbounds %"struct.std::_Vector_base", ptr %6, i32 0, i32 0, !dbg !8011
  %8 = getelementptr inbounds %"struct.std::_Vector_base<mongo::stdx::thread, std::allocator<mongo::stdx::thread>>::_Vector_impl_data", ptr %7, i32 0, i32 1, !dbg !8013
  %9 = load ptr, ptr %8, align 8, !dbg !8013
  %10 = getelementptr inbounds %"struct.std::_Vector_base", ptr %6, i32 0, i32 0, !dbg !8014
  %11 = getelementptr inbounds %"struct.std::_Vector_base<mongo::stdx::thread, std::allocator<mongo::stdx::thread>>::_Vector_impl_data", ptr %10, i32 0, i32 2, !dbg !8015
  %12 = load ptr, ptr %11, align 8, !dbg !8015
  %13 = icmp ne ptr %9, %12, !dbg !8016
  br i1 %13, label %14, label %24, !dbg !8017

14:                                               ; preds = %2
  %15 = getelementptr inbounds %"struct.std::_Vector_base", ptr %6, i32 0, i32 0, !dbg !8018
  %16 = getelementptr inbounds %"struct.std::_Vector_base", ptr %6, i32 0, i32 0, !dbg !8020
  %17 = getelementptr inbounds %"struct.std::_Vector_base<mongo::stdx::thread, std::allocator<mongo::stdx::thread>>::_Vector_impl_data", ptr %16, i32 0, i32 1, !dbg !8021
  %18 = load ptr, ptr %17, align 8, !dbg !8021
  %19 = load ptr, ptr %4, align 8, !dbg !8022
  call void @"_ZNSt16allocator_traitsISaIN5mongo4stdx6threadEEE9constructIS2_JZNS0_81UnitTest_SuiteNameThreadSafetyContextTestTestNameCreateThreadsWithNoSafetyContext7_doTestEvE3$_0EEEvRS3_PT_DpOT0_"(ptr noundef nonnull align 1 dereferenceable(1) %15, ptr noundef %18, ptr noundef nonnull align 1 dereferenceable(1) %19) #1, !dbg !8023
  %20 = getelementptr inbounds %"struct.std::_Vector_base", ptr %6, i32 0, i32 0, !dbg !8024
  %21 = getelementptr inbounds %"struct.std::_Vector_base<mongo::stdx::thread, std::allocator<mongo::stdx::thread>>::_Vector_impl_data", ptr %20, i32 0, i32 1, !dbg !8025
  %22 = load ptr, ptr %21, align 8, !dbg !8026
  %23 = getelementptr inbounds %"class.mongo::stdx::thread", ptr %22, i32 1, !dbg !8026
  store ptr %23, ptr %21, align 8, !dbg !8026
  br label %30, !dbg !8027

24:                                               ; preds = %2
  %25 = call ptr @_ZNSt6vectorIN5mongo4stdx6threadESaIS2_EE3endEv(ptr noundef nonnull align 8 dereferenceable(24) %6) #1, !dbg !8028
  %26 = getelementptr inbounds %"class.__gnu_cxx::__normal_iterator", ptr %5, i32 0, i32 0, !dbg !8028
  store ptr %25, ptr %26, align 8, !dbg !8028
  %27 = load ptr, ptr %4, align 8, !dbg !8029
  %28 = getelementptr inbounds %"class.__gnu_cxx::__normal_iterator", ptr %5, i32 0, i32 0, !dbg !8030
  %29 = load ptr, ptr %28, align 8, !dbg !8030
  call void @"_ZNSt6vectorIN5mongo4stdx6threadESaIS2_EE17_M_realloc_insertIJZNS0_81UnitTest_SuiteNameThreadSafetyContextTestTestNameCreateThreadsWithNoSafetyContext7_doTestEvE3$_0EEEvN9__gnu_cxx17__normal_iteratorIPS2_S4_EEDpOT_"(ptr noundef nonnull align 8 dereferenceable(24) %6, ptr %29, ptr noundef nonnull align 1 dereferenceable(1) %27), !dbg !8030
  br label %30

30:                                               ; preds = %24, %14
  %31 = call noundef nonnull align 8 dereferenceable(8) ptr @_ZNSt6vectorIN5mongo4stdx6threadESaIS2_EE4backEv(ptr noundef nonnull align 8 dereferenceable(24) %6) #1, !dbg !8031
  ret ptr %31, !dbg !8032
}

; Function Attrs: mustprogress noinline nounwind optnone uwtable
define linkonce_odr dso_local noundef nonnull align 8 dereferenceable(8) ptr @_ZNSt6vectorIN5mongo4stdx6threadESaIS2_EEixEm(ptr noundef nonnull align 8 dereferenceable(24) %0, i64 noundef %1) #8 comdat align 2 !dbg !8033 {
  %3 = alloca ptr, align 8
  %4 = alloca i64, align 8
  store ptr %0, ptr %3, align 8
  call void @llvm.dbg.declare(metadata ptr %3, metadata !8034, metadata !DIExpression()), !dbg !8035
  store i64 %1, ptr %4, align 8
  call void @llvm.dbg.declare(metadata ptr %4, metadata !8036, metadata !DIExpression()), !dbg !8037
  %5 = load ptr, ptr %3, align 8
  %6 = getelementptr inbounds %"struct.std::_Vector_base", ptr %5, i32 0, i32 0, !dbg !8038
  %7 = getelementptr inbounds %"struct.std::_Vector_base<mongo::stdx::thread, std::allocator<mongo::stdx::thread>>::_Vector_impl_data", ptr %6, i32 0, i32 0, !dbg !8039
  %8 = load ptr, ptr %7, align 8, !dbg !8039
  %9 = load i64, ptr %4, align 8, !dbg !8040
  %10 = getelementptr inbounds %"class.mongo::stdx::thread", ptr %8, i64 %9, !dbg !8041
  ret ptr %10, !dbg !8042
}

declare void @_ZNSt6thread4joinEv(ptr noundef nonnull align 8 dereferenceable(8)) #3

; Function Attrs: noinline nounwind optnone uwtable
define linkonce_odr dso_local void @_ZNSt6vectorIN5mongo4stdx6threadESaIS2_EED2Ev(ptr noundef nonnull align 8 dereferenceable(24) %0) unnamed_addr #2 comdat align 2 personality ptr @__gxx_personality_v0 !dbg !8043 {
  %2 = alloca ptr, align 8
  store ptr %0, ptr %2, align 8
  call void @llvm.dbg.declare(metadata ptr %2, metadata !8044, metadata !DIExpression()), !dbg !8045
  %3 = load ptr, ptr %2, align 8
  %4 = getelementptr inbounds %"struct.std::_Vector_base", ptr %3, i32 0, i32 0, !dbg !8046
  %5 = getelementptr inbounds %"struct.std::_Vector_base<mongo::stdx::thread, std::allocator<mongo::stdx::thread>>::_Vector_impl_data", ptr %4, i32 0, i32 0, !dbg !8048
  %6 = load ptr, ptr %5, align 8, !dbg !8048
  %7 = getelementptr inbounds %"struct.std::_Vector_base", ptr %3, i32 0, i32 0, !dbg !8049
  %8 = getelementptr inbounds %"struct.std::_Vector_base<mongo::stdx::thread, std::allocator<mongo::stdx::thread>>::_Vector_impl_data", ptr %7, i32 0, i32 1, !dbg !8050
  %9 = load ptr, ptr %8, align 8, !dbg !8050
  %10 = call noundef nonnull align 1 dereferenceable(1) ptr @_ZNSt12_Vector_baseIN5mongo4stdx6threadESaIS2_EE19_M_get_Tp_allocatorEv(ptr noundef nonnull align 8 dereferenceable(24) %3) #1, !dbg !8051
  invoke void @_ZSt8_DestroyIPN5mongo4stdx6threadES2_EvT_S4_RSaIT0_E(ptr noundef %6, ptr noundef %9, ptr noundef nonnull align 1 dereferenceable(1) %10)
          to label %11 unwind label %12, !dbg !8052

11:                                               ; preds = %1
  call void @_ZNSt12_Vector_baseIN5mongo4stdx6threadESaIS2_EED2Ev(ptr noundef nonnull align 8 dereferenceable(24) %3) #1, !dbg !8053
  ret void, !dbg !8054

12:                                               ; preds = %1
  %13 = landingpad { ptr, i32 }
          catch ptr null, !dbg !8052
  %14 = extractvalue { ptr, i32 } %13, 0, !dbg !8052
  call void @__clang_call_terminate(ptr %14) #19, !dbg !8052
  unreachable, !dbg !8052
}

; Function Attrs: noinline uwtable
define internal void @__cxx_global_var_init.7() #0 section ".text.startup" comdat($_ZN5mongo90UnitTest_SuiteNameThreadSafetyContextTestTestNameCreateThreadsAfterForbidingMultiThreading6_agentE) personality ptr @__gxx_personality_v0 !dbg !8055 {
  %1 = alloca %"class.mongo::StringData", align 8
  %2 = alloca ptr, align 8
  %3 = alloca i32, align 4
  %4 = alloca %"class.mongo::StringData", align 8
  %5 = alloca %"class.mongo::StringData", align 8
  %6 = load atomic i8, ptr @_ZGVN5mongo90UnitTest_SuiteNameThreadSafetyContextTestTestNameCreateThreadsAfterForbidingMultiThreading6_agentE acquire, align 8, !dbg !8056
  %7 = icmp eq i8 %6, 0, !dbg !8056
  br i1 %7, label %8, label %24, !dbg !8056

8:                                                ; preds = %0
  %9 = call i32 @__cxa_guard_acquire(ptr @_ZGVN5mongo90UnitTest_SuiteNameThreadSafetyContextTestTestNameCreateThreadsAfterForbidingMultiThreading6_agentE) #1, !dbg !8056
  %10 = icmp ne i32 %9, 0, !dbg !8056
  br i1 %10, label %11, label %24, !dbg !8056

11:                                               ; preds = %8
  invoke void @_ZN5mongo10StringDataC2EPKc(ptr noundef nonnull align 8 dereferenceable(16) %1, ptr noundef @.str)
          to label %12 unwind label %25, !dbg !8057

12:                                               ; preds = %11
  invoke void @_ZN5mongo10StringDataC2EPKc(ptr noundef nonnull align 8 dereferenceable(16) %4, ptr noundef @.str.8)
          to label %13 unwind label %25, !dbg !8057

13:                                               ; preds = %12
  invoke void @_ZN5mongo10StringDataC2EPKc(ptr noundef nonnull align 8 dereferenceable(16) %5, ptr noundef @.str.6)
          to label %14 unwind label %25, !dbg !8057

14:                                               ; preds = %13
  %15 = getelementptr inbounds { ptr, i64 }, ptr %1, i32 0, i32 0, !dbg !8057
  %16 = load ptr, ptr %15, align 8, !dbg !8057
  %17 = getelementptr inbounds { ptr, i64 }, ptr %1, i32 0, i32 1, !dbg !8057
  %18 = load i64, ptr %17, align 8, !dbg !8057
  %19 = getelementptr inbounds { ptr, i64 }, ptr %4, i32 0, i32 0, !dbg !8057
  %20 = load ptr, ptr %19, align 8, !dbg !8057
  %21 = getelementptr inbounds { ptr, i64 }, ptr %4, i32 0, i32 1, !dbg !8057
  %22 = load i64, ptr %21, align 8, !dbg !8057
  invoke void @_ZN5mongo8unittest4Test17RegistrationAgentINS0_9DeathTestINS_90UnitTest_SuiteNameThreadSafetyContextTestTestNameCreateThreadsAfterForbidingMultiThreadingEEEEC2ENS_10StringDataES7_S7_(ptr noundef nonnull align 8 dereferenceable(48) @_ZN5mongo90UnitTest_SuiteNameThreadSafetyContextTestTestNameCreateThreadsAfterForbidingMultiThreading6_agentE, ptr %16, i64 %18, ptr %20, i64 %22, ptr noundef byval(%"class.mongo::StringData") align 8 %5)
          to label %23 unwind label %25, !dbg !8057

23:                                               ; preds = %14
  call void @__cxa_guard_release(ptr @_ZGVN5mongo90UnitTest_SuiteNameThreadSafetyContextTestTestNameCreateThreadsAfterForbidingMultiThreading6_agentE) #1, !dbg !8056
  br label %24, !dbg !8056

24:                                               ; preds = %23, %8, %0
  ret void, !dbg !8057

25:                                               ; preds = %14, %13, %12, %11
  %26 = landingpad { ptr, i32 }
          cleanup, !dbg !8057
  %27 = extractvalue { ptr, i32 } %26, 0, !dbg !8057
  store ptr %27, ptr %2, align 8, !dbg !8057
  %28 = extractvalue { ptr, i32 } %26, 1, !dbg !8057
  store i32 %28, ptr %3, align 4, !dbg !8057
  call void @__cxa_guard_abort(ptr @_ZGVN5mongo90UnitTest_SuiteNameThreadSafetyContextTestTestNameCreateThreadsAfterForbidingMultiThreading6_agentE) #1, !dbg !8056
  br label %29, !dbg !8056

29:                                               ; preds = %25
  %30 = load ptr, ptr %2, align 8, !dbg !8056
  %31 = load i32, ptr %3, align 4, !dbg !8056
  %32 = insertvalue { ptr, i32 } poison, ptr %30, 0, !dbg !8056
  %33 = insertvalue { ptr, i32 } %32, i32 %31, 1, !dbg !8056
  resume { ptr, i32 } %33, !dbg !8056
}

; Function Attrs: noinline optnone uwtable
define linkonce_odr dso_local void @_ZN5mongo8unittest4Test17RegistrationAgentINS0_9DeathTestINS_90UnitTest_SuiteNameThreadSafetyContextTestTestNameCreateThreadsAfterForbidingMultiThreadingEEEEC2ENS_10StringDataES7_S7_(ptr noundef nonnull align 8 dereferenceable(48) %0, ptr %1, i64 %2, ptr %3, i64 %4, ptr noundef byval(%"class.mongo::StringData") align 8 %5) unnamed_addr #5 comdat align 2 personality ptr @__gxx_personality_v0 !dbg !3356 {
  %7 = alloca %"class.mongo::StringData", align 8
  %8 = alloca %"class.mongo::StringData", align 8
  %9 = alloca ptr, align 8
  %10 = alloca %"class.mongo::StringData", align 8
  %11 = alloca %"class.std::__cxx11::basic_string", align 8
  %12 = alloca %"class.std::__cxx11::basic_string", align 8
  %13 = alloca ptr, align 8
  %14 = alloca i32, align 4
  %15 = alloca %"class.std::function", align 8
  %16 = alloca %class.anon.58, align 1
  %17 = getelementptr inbounds { ptr, i64 }, ptr %7, i32 0, i32 0
  store ptr %1, ptr %17, align 8
  %18 = getelementptr inbounds { ptr, i64 }, ptr %7, i32 0, i32 1
  store i64 %2, ptr %18, align 8
  %19 = getelementptr inbounds { ptr, i64 }, ptr %8, i32 0, i32 0
  store ptr %3, ptr %19, align 8
  %20 = getelementptr inbounds { ptr, i64 }, ptr %8, i32 0, i32 1
  store i64 %4, ptr %20, align 8
  store ptr %0, ptr %9, align 8
  call void @llvm.dbg.declare(metadata ptr %9, metadata !8059, metadata !DIExpression()), !dbg !8061
  call void @llvm.dbg.declare(metadata ptr %7, metadata !8062, metadata !DIExpression()), !dbg !8063
  call void @llvm.dbg.declare(metadata ptr %8, metadata !8064, metadata !DIExpression()), !dbg !8065
  call void @llvm.dbg.declare(metadata ptr %5, metadata !8066, metadata !DIExpression()), !dbg !8067
  %21 = load ptr, ptr %9, align 8
  %22 = getelementptr inbounds %"class.mongo::unittest::Test::RegistrationAgent.0", ptr %21, i32 0, i32 0, !dbg !8068
  call void @llvm.memcpy.p0.p0.i64(ptr align 8 %22, ptr align 8 %7, i64 16, i1 false), !dbg !8068
  %23 = getelementptr inbounds %"class.mongo::unittest::Test::RegistrationAgent.0", ptr %21, i32 0, i32 1, !dbg !8069
  call void @llvm.memcpy.p0.p0.i64(ptr align 8 %23, ptr align 8 %8, i64 16, i1 false), !dbg !8069
  %24 = getelementptr inbounds %"class.mongo::unittest::Test::RegistrationAgent.0", ptr %21, i32 0, i32 2, !dbg !8070
  call void @llvm.memcpy.p0.p0.i64(ptr align 8 %24, ptr align 8 %5, i64 16, i1 false), !dbg !8070
  %25 = getelementptr inbounds %"class.mongo::unittest::Test::RegistrationAgent.0", ptr %21, i32 0, i32 0, !dbg !8071
  call void @llvm.memcpy.p0.p0.i64(ptr align 8 %10, ptr align 8 %25, i64 16, i1 false), !dbg !8071
  %26 = getelementptr inbounds { ptr, i64 }, ptr %10, i32 0, i32 0, !dbg !8073
  %27 = load ptr, ptr %26, align 8, !dbg !8073
  %28 = getelementptr inbounds { ptr, i64 }, ptr %10, i32 0, i32 1, !dbg !8073
  %29 = load i64, ptr %28, align 8, !dbg !8073
  %30 = call noundef nonnull align 8 dereferenceable(72) ptr @_ZN5mongo8unittest5Suite8getSuiteENS_10StringDataE(ptr %27, i64 %29), !dbg !8073
  %31 = getelementptr inbounds %"class.mongo::unittest::Test::RegistrationAgent.0", ptr %21, i32 0, i32 1, !dbg !8074
  call void @_ZNK5mongo10StringDatacvNSt7__cxx1112basic_stringIcSt11char_traitsIcESaIcEEEEv(ptr sret(%"class.std::__cxx11::basic_string") align 8 %11, ptr noundef nonnull align 8 dereferenceable(16) %31), !dbg !8074
  %32 = getelementptr inbounds %"class.mongo::unittest::Test::RegistrationAgent.0", ptr %21, i32 0, i32 2, !dbg !8075
  invoke void @_ZNK5mongo10StringDatacvNSt7__cxx1112basic_stringIcSt11char_traitsIcESaIcEEEEv(ptr sret(%"class.std::__cxx11::basic_string") align 8 %12, ptr noundef nonnull align 8 dereferenceable(16) %32)
          to label %33 unwind label %35, !dbg !8075

33:                                               ; preds = %6
  call void @_ZNSt8functionIFvvEEC2IZN5mongo8unittest4Test17RegistrationAgentINS4_9DeathTestINS3_90UnitTest_SuiteNameThreadSafetyContextTestTestNameCreateThreadsAfterForbidingMultiThreadingEEEEC1ENS3_10StringDataESB_SB_EUlvE_vEEOT_(ptr noundef nonnull align 8 dereferenceable(32) %15, ptr noundef nonnull align 1 dereferenceable(1) %16) #1, !dbg !8076
  invoke void @_ZN5mongo8unittest5Suite3addENSt7__cxx1112basic_stringIcSt11char_traitsIcESaIcEEES7_St8functionIFvvEE(ptr noundef nonnull align 8 dereferenceable(72) %30, ptr noundef %11, ptr noundef %12, ptr noundef %15)
          to label %34 unwind label %39, !dbg !8077

34:                                               ; preds = %33
  call void @_ZNSt8functionIFvvEED2Ev(ptr noundef nonnull align 8 dereferenceable(32) %15) #1, !dbg !8073
  call void @_ZNSt7__cxx1112basic_stringIcSt11char_traitsIcESaIcEED1Ev(ptr noundef nonnull align 8 dereferenceable(32) %12) #1, !dbg !8073
  call void @_ZNSt7__cxx1112basic_stringIcSt11char_traitsIcESaIcEED1Ev(ptr noundef nonnull align 8 dereferenceable(32) %11) #1, !dbg !8073
  ret void, !dbg !8078

35:                                               ; preds = %6
  %36 = landingpad { ptr, i32 }
          cleanup, !dbg !8079
  %37 = extractvalue { ptr, i32 } %36, 0, !dbg !8079
  store ptr %37, ptr %13, align 8, !dbg !8079
  %38 = extractvalue { ptr, i32 } %36, 1, !dbg !8079
  store i32 %38, ptr %14, align 4, !dbg !8079
  br label %43, !dbg !8079

39:                                               ; preds = %33
  %40 = landingpad { ptr, i32 }
          cleanup, !dbg !8079
  %41 = extractvalue { ptr, i32 } %40, 0, !dbg !8079
  store ptr %41, ptr %13, align 8, !dbg !8079
  %42 = extractvalue { ptr, i32 } %40, 1, !dbg !8079
  store i32 %42, ptr %14, align 4, !dbg !8079
  call void @_ZNSt8functionIFvvEED2Ev(ptr noundef nonnull align 8 dereferenceable(32) %15) #1, !dbg !8073
  call void @_ZNSt7__cxx1112basic_stringIcSt11char_traitsIcESaIcEED1Ev(ptr noundef nonnull align 8 dereferenceable(32) %12) #1, !dbg !8073
  br label %43, !dbg !8073

43:                                               ; preds = %39, %35
  call void @_ZNSt7__cxx1112basic_stringIcSt11char_traitsIcESaIcEED1Ev(ptr noundef nonnull align 8 dereferenceable(32) %11) #1, !dbg !8073
  br label %44, !dbg !8073

44:                                               ; preds = %43
  %45 = load ptr, ptr %13, align 8, !dbg !8073
  %46 = load i32, ptr %14, align 4, !dbg !8073
  %47 = insertvalue { ptr, i32 } poison, ptr %45, 0, !dbg !8073
  %48 = insertvalue { ptr, i32 } %47, i32 %46, 1, !dbg !8073
  resume { ptr, i32 } %48, !dbg !8073
}

; Function Attrs: mustprogress noinline optnone uwtable
define dso_local void @_ZN5mongo90UnitTest_SuiteNameThreadSafetyContextTestTestNameCreateThreadsAfterForbidingMultiThreading7_doTestEv(ptr noundef nonnull align 8 dereferenceable(8) %0) unnamed_addr #6 align 2 personality ptr @__gxx_personality_v0 !dbg !4205 {
  %2 = alloca ptr, align 8
  %3 = alloca %"class.mongo::stdx::thread", align 8
  %4 = alloca %class.anon.1, align 1
  %5 = alloca ptr, align 8
  %6 = alloca i32, align 4
  store ptr %0, ptr %2, align 8
  call void @llvm.dbg.declare(metadata ptr %2, metadata !8080, metadata !DIExpression()), !dbg !8081
  %7 = load ptr, ptr %2, align 8
  %8 = call noundef ptr @_ZN5mongo19ThreadSafetyContext22getThreadSafetyContextEv() #1, !dbg !8082
  call void @_ZN5mongo19ThreadSafetyContext20forbidMultiThreadingEv(ptr noundef nonnull align 1 dereferenceable(2) %8) #1, !dbg !8083
  call void @llvm.dbg.declare(metadata ptr %3, metadata !8084, metadata !DIExpression()), !dbg !8085
  call void @"_ZN5mongo4stdx6threadC2IZNS_90UnitTest_SuiteNameThreadSafetyContextTestTestNameCreateThreadsAfterForbidingMultiThreading7_doTestEvE3$_0JELi0EEET_DpOT0_"(ptr noundef nonnull align 8 dereferenceable(8) %3) #1, !dbg !8086
  invoke void @_ZNSt6thread4joinEv(ptr noundef nonnull align 8 dereferenceable(8) %3)
          to label %9 unwind label %10, !dbg !8087

9:                                                ; preds = %1
  call void @_ZN5mongo4stdx6threadD2Ev(ptr noundef nonnull align 8 dereferenceable(8) %3) #1, !dbg !8088
  ret void, !dbg !8088

10:                                               ; preds = %1
  %11 = landingpad { ptr, i32 }
          cleanup, !dbg !8088
  %12 = extractvalue { ptr, i32 } %11, 0, !dbg !8088
  store ptr %12, ptr %5, align 8, !dbg !8088
  %13 = extractvalue { ptr, i32 } %11, 1, !dbg !8088
  store i32 %13, ptr %6, align 4, !dbg !8088
  call void @_ZN5mongo4stdx6threadD2Ev(ptr noundef nonnull align 8 dereferenceable(8) %3) #1, !dbg !8088
  br label %14, !dbg !8088

14:                                               ; preds = %10
  %15 = load ptr, ptr %5, align 8, !dbg !8088
  %16 = load i32, ptr %6, align 4, !dbg !8088
  %17 = insertvalue { ptr, i32 } poison, ptr %15, 0, !dbg !8088
  %18 = insertvalue { ptr, i32 } %17, i32 %16, 1, !dbg !8088
  resume { ptr, i32 } %18, !dbg !8088
}

; Function Attrs: nounwind
declare noundef ptr @_ZN5mongo19ThreadSafetyContext22getThreadSafetyContextEv() #4

; Function Attrs: nounwind
declare void @_ZN5mongo19ThreadSafetyContext20forbidMultiThreadingEv(ptr noundef nonnull align 1 dereferenceable(2)) #4

; Function Attrs: noinline nounwind optnone uwtable
define internal void @"_ZN5mongo4stdx6threadC2IZNS_90UnitTest_SuiteNameThreadSafetyContextTestTestNameCreateThreadsAfterForbidingMultiThreading7_doTestEvE3$_0JELi0EEET_DpOT0_"(ptr noundef nonnull align 8 dereferenceable(8) %0) unnamed_addr #2 align 2 personality ptr @__gxx_personality_v0 !dbg !4201 {
  %2 = alloca %class.anon.1, align 1
  %3 = alloca ptr, align 8
  %4 = alloca %class.anon.84, align 8
  %5 = alloca %"class.std::tuple.43", align 1
  store ptr %0, ptr %3, align 8
  call void @llvm.dbg.declare(metadata ptr %3, metadata !8089, metadata !DIExpression()), !dbg !8090
  call void @llvm.dbg.declare(metadata ptr %2, metadata !8091, metadata !DIExpression()), !dbg !8092
  %6 = load ptr, ptr %3, align 8
  %7 = getelementptr inbounds %class.anon.84, ptr %4, i32 0, i32 0, !dbg !8093
  call void @llvm.memset.p0.i64(ptr align 8 %7, i8 0, i64 8, i1 false), !dbg !8094
  invoke void @_ZN5mongo4stdx7support21SigAltStackControllerC2Ev(ptr noundef nonnull align 8 dereferenceable(8) %7)
          to label %8 unwind label %12, !dbg !8094

8:                                                ; preds = %1
  %9 = getelementptr inbounds %class.anon.84, ptr %4, i32 0, i32 1, !dbg !8093
  %10 = getelementptr inbounds %class.anon.84, ptr %4, i32 0, i32 2, !dbg !8093
  call void @_ZSt10make_tupleIJEESt5tupleIJDpNSt25__strip_reference_wrapperINSt5decayIT_E4typeEE6__typeEEEDpOS3_(), !dbg !8095
  invoke void @"_ZNSt6threadC2IZN5mongo4stdx6threadC1IZNS1_90UnitTest_SuiteNameThreadSafetyContextTestTestNameCreateThreadsAfterForbidingMultiThreading7_doTestEvE3$_0JELi0EEET_DpOT0_EUlvE_JEvEEOS7_SA_"(ptr noundef nonnull align 8 dereferenceable(8) %6, ptr noundef nonnull align 8 dereferenceable(10) %4)
          to label %11 unwind label %12, !dbg !8096

11:                                               ; preds = %8
  call void @"_ZZN5mongo4stdx6threadC1IZNS_90UnitTest_SuiteNameThreadSafetyContextTestTestNameCreateThreadsAfterForbidingMultiThreading7_doTestEvE3$_0JELi0EEET_DpOT0_ENUlvE_D2Ev"(ptr noundef nonnull align 8 dereferenceable(10) %4) #1, !dbg !8096
  ret void, !dbg !8097

12:                                               ; preds = %8, %1
  %13 = landingpad { ptr, i32 }
          catch ptr null, !dbg !8094
  %14 = extractvalue { ptr, i32 } %13, 0, !dbg !8094
  call void @__clang_call_terminate(ptr %14) #19, !dbg !8094
  unreachable, !dbg !8094
}

; Function Attrs: noinline nounwind optnone uwtable
define linkonce_odr dso_local void @_ZN5mongo4stdx6threadD2Ev(ptr noundef nonnull align 8 dereferenceable(8) %0) unnamed_addr #2 comdat align 2 !dbg !8098 {
  %2 = alloca ptr, align 8
  store ptr %0, ptr %2, align 8
  call void @llvm.dbg.declare(metadata ptr %2, metadata !8099, metadata !DIExpression()), !dbg !8100
  %3 = load ptr, ptr %2, align 8
  call void @_ZNSt6threadD2Ev(ptr noundef nonnull align 8 dereferenceable(8) %3) #1, !dbg !8101
  ret void, !dbg !8103
}

; Function Attrs: mustprogress noinline optnone uwtable
define dso_local noundef ptr @_ZN5mongo21barrierThreadFunctionEPv(ptr noundef %0) #6 !dbg !8104 {
  %2 = alloca ptr, align 8
  %3 = alloca ptr, align 8
  %4 = alloca %"class.mongo::Duration", align 8
  %5 = alloca i32, align 4
  store ptr %0, ptr %2, align 8
  call void @llvm.dbg.declare(metadata ptr %2, metadata !8107, metadata !DIExpression()), !dbg !8108
  call void @llvm.dbg.declare(metadata ptr %3, metadata !8109, metadata !DIExpression()), !dbg !8110
  %6 = load ptr, ptr %2, align 8, !dbg !8111
  store ptr %6, ptr %3, align 8, !dbg !8110
  %7 = load ptr, ptr %3, align 8, !dbg !8112
  call void @_ZN5mongo8unittest7Barrier16countDownAndWaitEv(ptr noundef nonnull align 8 dereferenceable(200) %7), !dbg !8113
  store i32 50, ptr %5, align 4, !dbg !8114
  call void @_ZN5mongo8DurationISt5ratioILl1ELl1000EEEC2IiLi0EEERKT_(ptr noundef nonnull align 8 dereferenceable(8) %4, ptr noundef nonnull align 4 dereferenceable(4) %5), !dbg !8115
  %8 = getelementptr inbounds %"class.mongo::Duration", ptr %4, i32 0, i32 0, !dbg !8116
  %9 = load i64, ptr %8, align 8, !dbg !8116
  call void @_ZN5mongo8sleepForINS_8DurationISt5ratioILl1ELl1000EEEEEEvT_(i64 %9), !dbg !8116
  ret ptr null, !dbg !8117
}

declare void @_ZN5mongo8unittest7Barrier16countDownAndWaitEv(ptr noundef nonnull align 8 dereferenceable(200)) #3

; Function Attrs: mustprogress noinline optnone uwtable
define linkonce_odr dso_local void @_ZN5mongo8sleepForINS_8DurationISt5ratioILl1ELl1000EEEEEEvT_(i64 %0) #6 comdat !dbg !8118 {
  %2 = alloca %"class.mongo::Duration", align 8
  %3 = alloca %"class.mongo::Duration", align 8
  %4 = getelementptr inbounds %"class.mongo::Duration", ptr %2, i32 0, i32 0
  store i64 %0, ptr %4, align 8
  call void @llvm.dbg.declare(metadata ptr %2, metadata !8124, metadata !DIExpression()), !dbg !8125
  call void @llvm.memcpy.p0.p0.i64(ptr align 8 %3, ptr align 8 %2, i64 8, i1 false), !dbg !8126
  %5 = getelementptr inbounds %"class.mongo::Duration", ptr %3, i32 0, i32 0, !dbg !8127
  %6 = load i64, ptr %5, align 8, !dbg !8127
  %7 = call noundef i64 @_ZN5mongo13durationCountINS_8DurationISt5ratioILl1ELl1000000EEEENS1_IS2_ILl1ELl1000EEEEEExT0_(i64 %6), !dbg !8127
  call void @_ZN5mongo11sleepmicrosEx(i64 noundef %7), !dbg !8128
  ret void, !dbg !8129
}

; Function Attrs: noinline nounwind optnone uwtable
define linkonce_odr dso_local void @_ZN5mongo8DurationISt5ratioILl1ELl1000EEEC2IiLi0EEERKT_(ptr noundef nonnull align 8 dereferenceable(8) %0, ptr noundef nonnull align 4 dereferenceable(4) %1) unnamed_addr #2 comdat align 2 !dbg !8130 {
  %3 = alloca ptr, align 8
  %4 = alloca ptr, align 8
  store ptr %0, ptr %3, align 8
  call void @llvm.dbg.declare(metadata ptr %3, metadata !8138, metadata !DIExpression()), !dbg !8140
  store ptr %1, ptr %4, align 8
  call void @llvm.dbg.declare(metadata ptr %4, metadata !8141, metadata !DIExpression()), !dbg !8142
  %5 = load ptr, ptr %3, align 8
  %6 = getelementptr inbounds %"class.mongo::Duration", ptr %5, i32 0, i32 0, !dbg !8143
  %7 = load ptr, ptr %4, align 8, !dbg !8144
  %8 = load i32, ptr %7, align 4, !dbg !8144
  %9 = sext i32 %8 to i64, !dbg !8144
  store i64 %9, ptr %6, align 8, !dbg !8143
  ret void, !dbg !8145
}

; Function Attrs: noinline uwtable
define internal void @__cxx_global_var_init.9() #0 section ".text.startup" comdat($_ZN5mongo89UnitTest_SuiteNameThreadSafetyContextTestTestNameForbidMultiThreadingAfterCreatingThreads6_agentE) personality ptr @__gxx_personality_v0 !dbg !8146 {
  %1 = alloca %"class.mongo::StringData", align 8
  %2 = alloca ptr, align 8
  %3 = alloca i32, align 4
  %4 = alloca %"class.mongo::StringData", align 8
  %5 = alloca %"class.mongo::StringData", align 8
  %6 = load atomic i8, ptr @_ZGVN5mongo89UnitTest_SuiteNameThreadSafetyContextTestTestNameForbidMultiThreadingAfterCreatingThreads6_agentE acquire, align 8, !dbg !8147
  %7 = icmp eq i8 %6, 0, !dbg !8147
  br i1 %7, label %8, label %24, !dbg !8147

8:                                                ; preds = %0
  %9 = call i32 @__cxa_guard_acquire(ptr @_ZGVN5mongo89UnitTest_SuiteNameThreadSafetyContextTestTestNameForbidMultiThreadingAfterCreatingThreads6_agentE) #1, !dbg !8147
  %10 = icmp ne i32 %9, 0, !dbg !8147
  br i1 %10, label %11, label %24, !dbg !8147

11:                                               ; preds = %8
  invoke void @_ZN5mongo10StringDataC2EPKc(ptr noundef nonnull align 8 dereferenceable(16) %1, ptr noundef @.str)
          to label %12 unwind label %25, !dbg !8148

12:                                               ; preds = %11
  invoke void @_ZN5mongo10StringDataC2EPKc(ptr noundef nonnull align 8 dereferenceable(16) %4, ptr noundef @.str.10)
          to label %13 unwind label %25, !dbg !8148

13:                                               ; preds = %12
  invoke void @_ZN5mongo10StringDataC2EPKc(ptr noundef nonnull align 8 dereferenceable(16) %5, ptr noundef @.str.6)
          to label %14 unwind label %25, !dbg !8148

14:                                               ; preds = %13
  %15 = getelementptr inbounds { ptr, i64 }, ptr %1, i32 0, i32 0, !dbg !8148
  %16 = load ptr, ptr %15, align 8, !dbg !8148
  %17 = getelementptr inbounds { ptr, i64 }, ptr %1, i32 0, i32 1, !dbg !8148
  %18 = load i64, ptr %17, align 8, !dbg !8148
  %19 = getelementptr inbounds { ptr, i64 }, ptr %4, i32 0, i32 0, !dbg !8148
  %20 = load ptr, ptr %19, align 8, !dbg !8148
  %21 = getelementptr inbounds { ptr, i64 }, ptr %4, i32 0, i32 1, !dbg !8148
  %22 = load i64, ptr %21, align 8, !dbg !8148
  invoke void @_ZN5mongo8unittest4Test17RegistrationAgentINS0_9DeathTestINS_89UnitTest_SuiteNameThreadSafetyContextTestTestNameForbidMultiThreadingAfterCreatingThreadsEEEEC2ENS_10StringDataES7_S7_(ptr noundef nonnull align 8 dereferenceable(48) @_ZN5mongo89UnitTest_SuiteNameThreadSafetyContextTestTestNameForbidMultiThreadingAfterCreatingThreads6_agentE, ptr %16, i64 %18, ptr %20, i64 %22, ptr noundef byval(%"class.mongo::StringData") align 8 %5)
          to label %23 unwind label %25, !dbg !8148

23:                                               ; preds = %14
  call void @__cxa_guard_release(ptr @_ZGVN5mongo89UnitTest_SuiteNameThreadSafetyContextTestTestNameForbidMultiThreadingAfterCreatingThreads6_agentE) #1, !dbg !8147
  br label %24, !dbg !8147

24:                                               ; preds = %23, %8, %0
  ret void, !dbg !8148

25:                                               ; preds = %14, %13, %12, %11
  %26 = landingpad { ptr, i32 }
          cleanup, !dbg !8148
  %27 = extractvalue { ptr, i32 } %26, 0, !dbg !8148
  store ptr %27, ptr %2, align 8, !dbg !8148
  %28 = extractvalue { ptr, i32 } %26, 1, !dbg !8148
  store i32 %28, ptr %3, align 4, !dbg !8148
  call void @__cxa_guard_abort(ptr @_ZGVN5mongo89UnitTest_SuiteNameThreadSafetyContextTestTestNameForbidMultiThreadingAfterCreatingThreads6_agentE) #1, !dbg !8147
  br label %29, !dbg !8147

29:                                               ; preds = %25
  %30 = load ptr, ptr %2, align 8, !dbg !8147
  %31 = load i32, ptr %3, align 4, !dbg !8147
  %32 = insertvalue { ptr, i32 } poison, ptr %30, 0, !dbg !8147
  %33 = insertvalue { ptr, i32 } %32, i32 %31, 1, !dbg !8147
  resume { ptr, i32 } %33, !dbg !8147
}

; Function Attrs: noinline optnone uwtable
define linkonce_odr dso_local void @_ZN5mongo8unittest4Test17RegistrationAgentINS0_9DeathTestINS_89UnitTest_SuiteNameThreadSafetyContextTestTestNameForbidMultiThreadingAfterCreatingThreadsEEEEC2ENS_10StringDataES7_S7_(ptr noundef nonnull align 8 dereferenceable(48) %0, ptr %1, i64 %2, ptr %3, i64 %4, ptr noundef byval(%"class.mongo::StringData") align 8 %5) unnamed_addr #5 comdat align 2 personality ptr @__gxx_personality_v0 !dbg !4239 {
  %7 = alloca %"class.mongo::StringData", align 8
  %8 = alloca %"class.mongo::StringData", align 8
  %9 = alloca ptr, align 8
  %10 = alloca %"class.mongo::StringData", align 8
  %11 = alloca %"class.std::__cxx11::basic_string", align 8
  %12 = alloca %"class.std::__cxx11::basic_string", align 8
  %13 = alloca ptr, align 8
  %14 = alloca i32, align 4
  %15 = alloca %"class.std::function", align 8
  %16 = alloca %class.anon.91, align 1
  %17 = getelementptr inbounds { ptr, i64 }, ptr %7, i32 0, i32 0
  store ptr %1, ptr %17, align 8
  %18 = getelementptr inbounds { ptr, i64 }, ptr %7, i32 0, i32 1
  store i64 %2, ptr %18, align 8
  %19 = getelementptr inbounds { ptr, i64 }, ptr %8, i32 0, i32 0
  store ptr %3, ptr %19, align 8
  %20 = getelementptr inbounds { ptr, i64 }, ptr %8, i32 0, i32 1
  store i64 %4, ptr %20, align 8
  store ptr %0, ptr %9, align 8
  call void @llvm.dbg.declare(metadata ptr %9, metadata !8150, metadata !DIExpression()), !dbg !8152
  call void @llvm.dbg.declare(metadata ptr %7, metadata !8153, metadata !DIExpression()), !dbg !8154
  call void @llvm.dbg.declare(metadata ptr %8, metadata !8155, metadata !DIExpression()), !dbg !8156
  call void @llvm.dbg.declare(metadata ptr %5, metadata !8157, metadata !DIExpression()), !dbg !8158
  %21 = load ptr, ptr %9, align 8
  %22 = getelementptr inbounds %"class.mongo::unittest::Test::RegistrationAgent.12", ptr %21, i32 0, i32 0, !dbg !8159
  call void @llvm.memcpy.p0.p0.i64(ptr align 8 %22, ptr align 8 %7, i64 16, i1 false), !dbg !8159
  %23 = getelementptr inbounds %"class.mongo::unittest::Test::RegistrationAgent.12", ptr %21, i32 0, i32 1, !dbg !8160
  call void @llvm.memcpy.p0.p0.i64(ptr align 8 %23, ptr align 8 %8, i64 16, i1 false), !dbg !8160
  %24 = getelementptr inbounds %"class.mongo::unittest::Test::RegistrationAgent.12", ptr %21, i32 0, i32 2, !dbg !8161
  call void @llvm.memcpy.p0.p0.i64(ptr align 8 %24, ptr align 8 %5, i64 16, i1 false), !dbg !8161
  %25 = getelementptr inbounds %"class.mongo::unittest::Test::RegistrationAgent.12", ptr %21, i32 0, i32 0, !dbg !8162
  call void @llvm.memcpy.p0.p0.i64(ptr align 8 %10, ptr align 8 %25, i64 16, i1 false), !dbg !8162
  %26 = getelementptr inbounds { ptr, i64 }, ptr %10, i32 0, i32 0, !dbg !8164
  %27 = load ptr, ptr %26, align 8, !dbg !8164
  %28 = getelementptr inbounds { ptr, i64 }, ptr %10, i32 0, i32 1, !dbg !8164
  %29 = load i64, ptr %28, align 8, !dbg !8164
  %30 = call noundef nonnull align 8 dereferenceable(72) ptr @_ZN5mongo8unittest5Suite8getSuiteENS_10StringDataE(ptr %27, i64 %29), !dbg !8164
  %31 = getelementptr inbounds %"class.mongo::unittest::Test::RegistrationAgent.12", ptr %21, i32 0, i32 1, !dbg !8165
  call void @_ZNK5mongo10StringDatacvNSt7__cxx1112basic_stringIcSt11char_traitsIcESaIcEEEEv(ptr sret(%"class.std::__cxx11::basic_string") align 8 %11, ptr noundef nonnull align 8 dereferenceable(16) %31), !dbg !8165
  %32 = getelementptr inbounds %"class.mongo::unittest::Test::RegistrationAgent.12", ptr %21, i32 0, i32 2, !dbg !8166
  invoke void @_ZNK5mongo10StringDatacvNSt7__cxx1112basic_stringIcSt11char_traitsIcESaIcEEEEv(ptr sret(%"class.std::__cxx11::basic_string") align 8 %12, ptr noundef nonnull align 8 dereferenceable(16) %32)
          to label %33 unwind label %35, !dbg !8166

33:                                               ; preds = %6
  call void @_ZNSt8functionIFvvEEC2IZN5mongo8unittest4Test17RegistrationAgentINS4_9DeathTestINS3_89UnitTest_SuiteNameThreadSafetyContextTestTestNameForbidMultiThreadingAfterCreatingThreadsEEEEC1ENS3_10StringDataESB_SB_EUlvE_vEEOT_(ptr noundef nonnull align 8 dereferenceable(32) %15, ptr noundef nonnull align 1 dereferenceable(1) %16) #1, !dbg !8167
  invoke void @_ZN5mongo8unittest5Suite3addENSt7__cxx1112basic_stringIcSt11char_traitsIcESaIcEEES7_St8functionIFvvEE(ptr noundef nonnull align 8 dereferenceable(72) %30, ptr noundef %11, ptr noundef %12, ptr noundef %15)
          to label %34 unwind label %39, !dbg !8168

34:                                               ; preds = %33
  call void @_ZNSt8functionIFvvEED2Ev(ptr noundef nonnull align 8 dereferenceable(32) %15) #1, !dbg !8164
  call void @_ZNSt7__cxx1112basic_stringIcSt11char_traitsIcESaIcEED1Ev(ptr noundef nonnull align 8 dereferenceable(32) %12) #1, !dbg !8164
  call void @_ZNSt7__cxx1112basic_stringIcSt11char_traitsIcESaIcEED1Ev(ptr noundef nonnull align 8 dereferenceable(32) %11) #1, !dbg !8164
  ret void, !dbg !8169

35:                                               ; preds = %6
  %36 = landingpad { ptr, i32 }
          cleanup, !dbg !8170
  %37 = extractvalue { ptr, i32 } %36, 0, !dbg !8170
  store ptr %37, ptr %13, align 8, !dbg !8170
  %38 = extractvalue { ptr, i32 } %36, 1, !dbg !8170
  store i32 %38, ptr %14, align 4, !dbg !8170
  br label %43, !dbg !8170

39:                                               ; preds = %33
  %40 = landingpad { ptr, i32 }
          cleanup, !dbg !8170
  %41 = extractvalue { ptr, i32 } %40, 0, !dbg !8170
  store ptr %41, ptr %13, align 8, !dbg !8170
  %42 = extractvalue { ptr, i32 } %40, 1, !dbg !8170
  store i32 %42, ptr %14, align 4, !dbg !8170
  call void @_ZNSt8functionIFvvEED2Ev(ptr noundef nonnull align 8 dereferenceable(32) %15) #1, !dbg !8164
  call void @_ZNSt7__cxx1112basic_stringIcSt11char_traitsIcESaIcEED1Ev(ptr noundef nonnull align 8 dereferenceable(32) %12) #1, !dbg !8164
  br label %43, !dbg !8164

43:                                               ; preds = %39, %35
  call void @_ZNSt7__cxx1112basic_stringIcSt11char_traitsIcESaIcEED1Ev(ptr noundef nonnull align 8 dereferenceable(32) %11) #1, !dbg !8164
  br label %44, !dbg !8164

44:                                               ; preds = %43
  %45 = load ptr, ptr %13, align 8, !dbg !8164
  %46 = load i32, ptr %14, align 4, !dbg !8164
  %47 = insertvalue { ptr, i32 } poison, ptr %45, 0, !dbg !8164
  %48 = insertvalue { ptr, i32 } %47, i32 %46, 1, !dbg !8164
  resume { ptr, i32 } %48, !dbg !8164
}

; Function Attrs: mustprogress noinline optnone uwtable
define dso_local void @_ZN5mongo89UnitTest_SuiteNameThreadSafetyContextTestTestNameForbidMultiThreadingAfterCreatingThreads7_doTestEv(ptr noundef nonnull align 8 dereferenceable(8) %0) unnamed_addr #6 align 2 personality ptr @__gxx_personality_v0 !dbg !8171 {
  %2 = alloca ptr, align 8
  %3 = alloca %"class.mongo::unittest::Barrier", align 8
  %4 = alloca i64, align 8
  %5 = alloca ptr, align 8
  %6 = alloca i32, align 4
  store ptr %0, ptr %2, align 8
  call void @llvm.dbg.declare(metadata ptr %2, metadata !8172, metadata !DIExpression()), !dbg !8173
  %7 = load ptr, ptr %2, align 8
  call void @llvm.dbg.declare(metadata ptr %3, metadata !8174, metadata !DIExpression()), !dbg !8175
  call void @_ZN5mongo8unittest7BarrierC1Em(ptr noundef nonnull align 8 dereferenceable(200) %3, i64 noundef 2), !dbg !8175
  call void @llvm.dbg.declare(metadata ptr %4, metadata !8176, metadata !DIExpression()), !dbg !8177
  %8 = call i32 @pthread_create(ptr noundef %4, ptr noundef null, ptr noundef @_ZN5mongo21barrierThreadFunctionEPv, ptr noundef %3) #1, !dbg !8178
  invoke void @_ZN5mongo8unittest7Barrier16countDownAndWaitEv(ptr noundef nonnull align 8 dereferenceable(200) %3)
          to label %9 unwind label %11, !dbg !8179

9:                                                ; preds = %1
  %10 = call noundef ptr @_ZN5mongo19ThreadSafetyContext22getThreadSafetyContextEv() #1, !dbg !8180
  call void @_ZN5mongo19ThreadSafetyContext20forbidMultiThreadingEv(ptr noundef nonnull align 1 dereferenceable(2) %10) #1, !dbg !8181
  call void @_ZN5mongo8unittest7BarrierD2Ev(ptr noundef nonnull align 8 dereferenceable(200) %3) #1, !dbg !8182
  ret void, !dbg !8182

11:                                               ; preds = %1
  %12 = landingpad { ptr, i32 }
          cleanup, !dbg !8182
  %13 = extractvalue { ptr, i32 } %12, 0, !dbg !8182
  store ptr %13, ptr %5, align 8, !dbg !8182
  %14 = extractvalue { ptr, i32 } %12, 1, !dbg !8182
  store i32 %14, ptr %6, align 4, !dbg !8182
  call void @_ZN5mongo8unittest7BarrierD2Ev(ptr noundef nonnull align 8 dereferenceable(200) %3) #1, !dbg !8182
  br label %15, !dbg !8182

15:                                               ; preds = %11
  %16 = load ptr, ptr %5, align 8, !dbg !8182
  %17 = load i32, ptr %6, align 4, !dbg !8182
  %18 = insertvalue { ptr, i32 } poison, ptr %16, 0, !dbg !8182
  %19 = insertvalue { ptr, i32 } %18, i32 %17, 1, !dbg !8182
  resume { ptr, i32 } %19, !dbg !8182
}

declare void @_ZN5mongo8unittest7BarrierC1Em(ptr noundef nonnull align 8 dereferenceable(200), i64 noundef) unnamed_addr #3

; Function Attrs: nounwind
declare i32 @pthread_create(ptr noundef, ptr noundef, ptr noundef, ptr noundef) #4

; Function Attrs: noinline nounwind optnone uwtable
define linkonce_odr dso_local void @_ZN5mongo8unittest7BarrierD2Ev(ptr noundef nonnull align 8 dereferenceable(200) %0) unnamed_addr #2 comdat align 2 !dbg !8183 {
  %2 = alloca ptr, align 8
  store ptr %0, ptr %2, align 8
  call void @llvm.dbg.declare(metadata ptr %2, metadata !8188, metadata !DIExpression()), !dbg !8189
  %3 = load ptr, ptr %2, align 8
  %4 = getelementptr inbounds %"class.mongo::unittest::Barrier", ptr %3, i32 0, i32 4, !dbg !8190
  call void @_ZN5mongo4stdx18condition_variableD2Ev(ptr noundef nonnull align 8 dereferenceable(136) %4) #1, !dbg !8190
  ret void, !dbg !8192
}

; Function Attrs: noinline uwtable
define internal void @__cxx_global_var_init.11() #0 section ".text.startup" comdat($_ZN5mongo80UnitTest_SuiteNameThreadSafetyContextTestTestNameCreateThreadsAfterSafetyContext6_agentE) personality ptr @__gxx_personality_v0 !dbg !8193 {
  %1 = alloca %"class.mongo::StringData", align 8
  %2 = alloca ptr, align 8
  %3 = alloca i32, align 4
  %4 = alloca %"class.mongo::StringData", align 8
  %5 = alloca %"class.mongo::StringData", align 8
  %6 = load atomic i8, ptr @_ZGVN5mongo80UnitTest_SuiteNameThreadSafetyContextTestTestNameCreateThreadsAfterSafetyContext6_agentE acquire, align 8, !dbg !8194
  %7 = icmp eq i8 %6, 0, !dbg !8194
  br i1 %7, label %8, label %24, !dbg !8194

8:                                                ; preds = %0
  %9 = call i32 @__cxa_guard_acquire(ptr @_ZGVN5mongo80UnitTest_SuiteNameThreadSafetyContextTestTestNameCreateThreadsAfterSafetyContext6_agentE) #1, !dbg !8194
  %10 = icmp ne i32 %9, 0, !dbg !8194
  br i1 %10, label %11, label %24, !dbg !8194

11:                                               ; preds = %8
  invoke void @_ZN5mongo10StringDataC2EPKc(ptr noundef nonnull align 8 dereferenceable(16) %1, ptr noundef @.str)
          to label %12 unwind label %25, !dbg !8195

12:                                               ; preds = %11
  invoke void @_ZN5mongo10StringDataC2EPKc(ptr noundef nonnull align 8 dereferenceable(16) %4, ptr noundef @.str.12)
          to label %13 unwind label %25, !dbg !8195

13:                                               ; preds = %12
  invoke void @_ZN5mongo10StringDataC2EPKc(ptr noundef nonnull align 8 dereferenceable(16) %5, ptr noundef @.str.6)
          to label %14 unwind label %25, !dbg !8195

14:                                               ; preds = %13
  %15 = getelementptr inbounds { ptr, i64 }, ptr %1, i32 0, i32 0, !dbg !8195
  %16 = load ptr, ptr %15, align 8, !dbg !8195
  %17 = getelementptr inbounds { ptr, i64 }, ptr %1, i32 0, i32 1, !dbg !8195
  %18 = load i64, ptr %17, align 8, !dbg !8195
  %19 = getelementptr inbounds { ptr, i64 }, ptr %4, i32 0, i32 0, !dbg !8195
  %20 = load ptr, ptr %19, align 8, !dbg !8195
  %21 = getelementptr inbounds { ptr, i64 }, ptr %4, i32 0, i32 1, !dbg !8195
  %22 = load i64, ptr %21, align 8, !dbg !8195
  invoke void @_ZN5mongo8unittest4Test17RegistrationAgentINS_80UnitTest_SuiteNameThreadSafetyContextTestTestNameCreateThreadsAfterSafetyContextEEC2ENS_10StringDataES5_S5_(ptr noundef nonnull align 8 dereferenceable(48) @_ZN5mongo80UnitTest_SuiteNameThreadSafetyContextTestTestNameCreateThreadsAfterSafetyContext6_agentE, ptr %16, i64 %18, ptr %20, i64 %22, ptr noundef byval(%"class.mongo::StringData") align 8 %5)
          to label %23 unwind label %25, !dbg !8195

23:                                               ; preds = %14
  call void @__cxa_guard_release(ptr @_ZGVN5mongo80UnitTest_SuiteNameThreadSafetyContextTestTestNameCreateThreadsAfterSafetyContext6_agentE) #1, !dbg !8194
  br label %24, !dbg !8194

24:                                               ; preds = %23, %8, %0
  ret void, !dbg !8195

25:                                               ; preds = %14, %13, %12, %11
  %26 = landingpad { ptr, i32 }
          cleanup, !dbg !8195
  %27 = extractvalue { ptr, i32 } %26, 0, !dbg !8195
  store ptr %27, ptr %2, align 8, !dbg !8195
  %28 = extractvalue { ptr, i32 } %26, 1, !dbg !8195
  store i32 %28, ptr %3, align 4, !dbg !8195
  call void @__cxa_guard_abort(ptr @_ZGVN5mongo80UnitTest_SuiteNameThreadSafetyContextTestTestNameCreateThreadsAfterSafetyContext6_agentE) #1, !dbg !8194
  br label %29, !dbg !8194

29:                                               ; preds = %25
  %30 = load ptr, ptr %2, align 8, !dbg !8194
  %31 = load i32, ptr %3, align 4, !dbg !8194
  %32 = insertvalue { ptr, i32 } poison, ptr %30, 0, !dbg !8194
  %33 = insertvalue { ptr, i32 } %32, i32 %31, 1, !dbg !8194
  resume { ptr, i32 } %33, !dbg !8194
}

; Function Attrs: noinline optnone uwtable
define linkonce_odr dso_local void @_ZN5mongo8unittest4Test17RegistrationAgentINS_80UnitTest_SuiteNameThreadSafetyContextTestTestNameCreateThreadsAfterSafetyContextEEC2ENS_10StringDataES5_S5_(ptr noundef nonnull align 8 dereferenceable(48) %0, ptr %1, i64 %2, ptr %3, i64 %4, ptr noundef byval(%"class.mongo::StringData") align 8 %5) unnamed_addr #5 comdat align 2 personality ptr @__gxx_personality_v0 !dbg !4647 {
  %7 = alloca %"class.mongo::StringData", align 8
  %8 = alloca %"class.mongo::StringData", align 8
  %9 = alloca ptr, align 8
  %10 = alloca %"class.mongo::StringData", align 8
  %11 = alloca %"class.std::__cxx11::basic_string", align 8
  %12 = alloca %"class.std::__cxx11::basic_string", align 8
  %13 = alloca ptr, align 8
  %14 = alloca i32, align 4
  %15 = alloca %"class.std::function", align 8
  %16 = alloca %class.anon.106, align 1
  %17 = getelementptr inbounds { ptr, i64 }, ptr %7, i32 0, i32 0
  store ptr %1, ptr %17, align 8
  %18 = getelementptr inbounds { ptr, i64 }, ptr %7, i32 0, i32 1
  store i64 %2, ptr %18, align 8
  %19 = getelementptr inbounds { ptr, i64 }, ptr %8, i32 0, i32 0
  store ptr %3, ptr %19, align 8
  %20 = getelementptr inbounds { ptr, i64 }, ptr %8, i32 0, i32 1
  store i64 %4, ptr %20, align 8
  store ptr %0, ptr %9, align 8
  call void @llvm.dbg.declare(metadata ptr %9, metadata !8197, metadata !DIExpression()), !dbg !8199
  call void @llvm.dbg.declare(metadata ptr %7, metadata !8200, metadata !DIExpression()), !dbg !8201
  call void @llvm.dbg.declare(metadata ptr %8, metadata !8202, metadata !DIExpression()), !dbg !8203
  call void @llvm.dbg.declare(metadata ptr %5, metadata !8204, metadata !DIExpression()), !dbg !8205
  %21 = load ptr, ptr %9, align 8
  %22 = getelementptr inbounds %"class.mongo::unittest::Test::RegistrationAgent.13", ptr %21, i32 0, i32 0, !dbg !8206
  call void @llvm.memcpy.p0.p0.i64(ptr align 8 %22, ptr align 8 %7, i64 16, i1 false), !dbg !8206
  %23 = getelementptr inbounds %"class.mongo::unittest::Test::RegistrationAgent.13", ptr %21, i32 0, i32 1, !dbg !8207
  call void @llvm.memcpy.p0.p0.i64(ptr align 8 %23, ptr align 8 %8, i64 16, i1 false), !dbg !8207
  %24 = getelementptr inbounds %"class.mongo::unittest::Test::RegistrationAgent.13", ptr %21, i32 0, i32 2, !dbg !8208
  call void @llvm.memcpy.p0.p0.i64(ptr align 8 %24, ptr align 8 %5, i64 16, i1 false), !dbg !8208
  %25 = getelementptr inbounds %"class.mongo::unittest::Test::RegistrationAgent.13", ptr %21, i32 0, i32 0, !dbg !8209
  call void @llvm.memcpy.p0.p0.i64(ptr align 8 %10, ptr align 8 %25, i64 16, i1 false), !dbg !8209
  %26 = getelementptr inbounds { ptr, i64 }, ptr %10, i32 0, i32 0, !dbg !8211
  %27 = load ptr, ptr %26, align 8, !dbg !8211
  %28 = getelementptr inbounds { ptr, i64 }, ptr %10, i32 0, i32 1, !dbg !8211
  %29 = load i64, ptr %28, align 8, !dbg !8211
  %30 = call noundef nonnull align 8 dereferenceable(72) ptr @_ZN5mongo8unittest5Suite8getSuiteENS_10StringDataE(ptr %27, i64 %29), !dbg !8211
  %31 = getelementptr inbounds %"class.mongo::unittest::Test::RegistrationAgent.13", ptr %21, i32 0, i32 1, !dbg !8212
  call void @_ZNK5mongo10StringDatacvNSt7__cxx1112basic_stringIcSt11char_traitsIcESaIcEEEEv(ptr sret(%"class.std::__cxx11::basic_string") align 8 %11, ptr noundef nonnull align 8 dereferenceable(16) %31), !dbg !8212
  %32 = getelementptr inbounds %"class.mongo::unittest::Test::RegistrationAgent.13", ptr %21, i32 0, i32 2, !dbg !8213
  invoke void @_ZNK5mongo10StringDatacvNSt7__cxx1112basic_stringIcSt11char_traitsIcESaIcEEEEv(ptr sret(%"class.std::__cxx11::basic_string") align 8 %12, ptr noundef nonnull align 8 dereferenceable(16) %32)
          to label %33 unwind label %35, !dbg !8213

33:                                               ; preds = %6
  call void @_ZNSt8functionIFvvEEC2IZN5mongo8unittest4Test17RegistrationAgentINS3_80UnitTest_SuiteNameThreadSafetyContextTestTestNameCreateThreadsAfterSafetyContextEEC1ENS3_10StringDataES9_S9_EUlvE_vEEOT_(ptr noundef nonnull align 8 dereferenceable(32) %15, ptr noundef nonnull align 1 dereferenceable(1) %16) #1, !dbg !8214
  invoke void @_ZN5mongo8unittest5Suite3addENSt7__cxx1112basic_stringIcSt11char_traitsIcESaIcEEES7_St8functionIFvvEE(ptr noundef nonnull align 8 dereferenceable(72) %30, ptr noundef %11, ptr noundef %12, ptr noundef %15)
          to label %34 unwind label %39, !dbg !8215

34:                                               ; preds = %33
  call void @_ZNSt8functionIFvvEED2Ev(ptr noundef nonnull align 8 dereferenceable(32) %15) #1, !dbg !8211
  call void @_ZNSt7__cxx1112basic_stringIcSt11char_traitsIcESaIcEED1Ev(ptr noundef nonnull align 8 dereferenceable(32) %12) #1, !dbg !8211
  call void @_ZNSt7__cxx1112basic_stringIcSt11char_traitsIcESaIcEED1Ev(ptr noundef nonnull align 8 dereferenceable(32) %11) #1, !dbg !8211
  ret void, !dbg !8216

35:                                               ; preds = %6
  %36 = landingpad { ptr, i32 }
          cleanup, !dbg !8217
  %37 = extractvalue { ptr, i32 } %36, 0, !dbg !8217
  store ptr %37, ptr %13, align 8, !dbg !8217
  %38 = extractvalue { ptr, i32 } %36, 1, !dbg !8217
  store i32 %38, ptr %14, align 4, !dbg !8217
  br label %43, !dbg !8217

39:                                               ; preds = %33
  %40 = landingpad { ptr, i32 }
          cleanup, !dbg !8217
  %41 = extractvalue { ptr, i32 } %40, 0, !dbg !8217
  store ptr %41, ptr %13, align 8, !dbg !8217
  %42 = extractvalue { ptr, i32 } %40, 1, !dbg !8217
  store i32 %42, ptr %14, align 4, !dbg !8217
  call void @_ZNSt8functionIFvvEED2Ev(ptr noundef nonnull align 8 dereferenceable(32) %15) #1, !dbg !8211
  call void @_ZNSt7__cxx1112basic_stringIcSt11char_traitsIcESaIcEED1Ev(ptr noundef nonnull align 8 dereferenceable(32) %12) #1, !dbg !8211
  br label %43, !dbg !8211

43:                                               ; preds = %39, %35
  call void @_ZNSt7__cxx1112basic_stringIcSt11char_traitsIcESaIcEED1Ev(ptr noundef nonnull align 8 dereferenceable(32) %11) #1, !dbg !8211
  br label %44, !dbg !8211

44:                                               ; preds = %43
  %45 = load ptr, ptr %13, align 8, !dbg !8211
  %46 = load i32, ptr %14, align 4, !dbg !8211
  %47 = insertvalue { ptr, i32 } poison, ptr %45, 0, !dbg !8211
  %48 = insertvalue { ptr, i32 } %47, i32 %46, 1, !dbg !8211
  resume { ptr, i32 } %48, !dbg !8211
}

; Function Attrs: mustprogress noinline optnone uwtable
define dso_local void @_ZN5mongo80UnitTest_SuiteNameThreadSafetyContextTestTestNameCreateThreadsAfterSafetyContext7_doTestEv(ptr noundef nonnull align 8 dereferenceable(8) %0) unnamed_addr #6 align 2 personality ptr @__gxx_personality_v0 !dbg !4690 {
  %2 = alloca ptr, align 8
  %3 = alloca %"class.mongo::Duration", align 8
  %4 = alloca i32, align 4
  %5 = alloca i32, align 4
  %6 = alloca %"class.std::vector", align 8
  %7 = alloca i32, align 4
  %8 = alloca %class.anon.14, align 1
  %9 = alloca ptr, align 8
  %10 = alloca i32, align 4
  %11 = alloca i32, align 4
  store ptr %0, ptr %2, align 8
  call void @llvm.dbg.declare(metadata ptr %2, metadata !8218, metadata !DIExpression()), !dbg !8220
  %12 = load ptr, ptr %2, align 8
  %13 = call noundef ptr @_ZN5mongo19ThreadSafetyContext22getThreadSafetyContextEv() #1, !dbg !8221
  call void @_ZN5mongo19ThreadSafetyContext20forbidMultiThreadingEv(ptr noundef nonnull align 1 dereferenceable(2) %13) #1, !dbg !8222
  store i32 10, ptr %4, align 4, !dbg !8223
  call void @_ZN5mongo8DurationISt5ratioILl1ELl1000EEEC2IiLi0EEERKT_(ptr noundef nonnull align 8 dereferenceable(8) %3, ptr noundef nonnull align 4 dereferenceable(4) %4), !dbg !8224
  %14 = getelementptr inbounds %"class.mongo::Duration", ptr %3, i32 0, i32 0, !dbg !8225
  %15 = load i64, ptr %14, align 8, !dbg !8225
  call void @_ZN5mongo8sleepForINS_8DurationISt5ratioILl1ELl1000EEEEEEvT_(i64 %15), !dbg !8225
  %16 = call noundef ptr @_ZN5mongo19ThreadSafetyContext22getThreadSafetyContextEv() #1, !dbg !8226
  call void @_ZN5mongo19ThreadSafetyContext19allowMultiThreadingEv(ptr noundef nonnull align 1 dereferenceable(2) %16) #1, !dbg !8227
  call void @llvm.dbg.declare(metadata ptr %5, metadata !8228, metadata !DIExpression()), !dbg !8229
  store i32 16, ptr %5, align 4, !dbg !8229
  call void @llvm.dbg.declare(metadata ptr %6, metadata !8230, metadata !DIExpression()), !dbg !8231
  call void @_ZNSt6vectorIN5mongo4stdx6threadESaIS2_EEC2Ev(ptr noundef nonnull align 8 dereferenceable(24) %6) #1, !dbg !8231
  call void @llvm.dbg.declare(metadata ptr %7, metadata !8232, metadata !DIExpression()), !dbg !8234
  store i32 0, ptr %7, align 4, !dbg !8234
  br label %17, !dbg !8235

17:                                               ; preds = %23, %1
  %18 = load i32, ptr %7, align 4, !dbg !8236
  %19 = icmp slt i32 %18, 16, !dbg !8238
  br i1 %19, label %20, label %30, !dbg !8239

20:                                               ; preds = %17
  %21 = invoke noundef nonnull align 8 dereferenceable(8) ptr @"_ZNSt6vectorIN5mongo4stdx6threadESaIS2_EE12emplace_backIJZNS0_80UnitTest_SuiteNameThreadSafetyContextTestTestNameCreateThreadsAfterSafetyContext7_doTestEvE3$_0EEERS2_DpOT_"(ptr noundef nonnull align 8 dereferenceable(24) %6, ptr noundef nonnull align 1 dereferenceable(1) %8)
          to label %22 unwind label %26, !dbg !8240

22:                                               ; preds = %20
  br label %23, !dbg !8242

23:                                               ; preds = %22
  %24 = load i32, ptr %7, align 4, !dbg !8243
  %25 = add nsw i32 %24, 1, !dbg !8243
  store i32 %25, ptr %7, align 4, !dbg !8243
  br label %17, !dbg !8244, !llvm.loop !8245

26:                                               ; preds = %34, %20
  %27 = landingpad { ptr, i32 }
          cleanup, !dbg !8247
  %28 = extractvalue { ptr, i32 } %27, 0, !dbg !8247
  store ptr %28, ptr %9, align 8, !dbg !8247
  %29 = extractvalue { ptr, i32 } %27, 1, !dbg !8247
  store i32 %29, ptr %10, align 4, !dbg !8247
  call void @_ZNSt6vectorIN5mongo4stdx6threadESaIS2_EED2Ev(ptr noundef nonnull align 8 dereferenceable(24) %6) #1, !dbg !8248
  br label %43, !dbg !8248

30:                                               ; preds = %17
  call void @llvm.dbg.declare(metadata ptr %11, metadata !8249, metadata !DIExpression()), !dbg !8251
  store i32 0, ptr %11, align 4, !dbg !8251
  br label %31, !dbg !8252

31:                                               ; preds = %39, %30
  %32 = load i32, ptr %11, align 4, !dbg !8253
  %33 = icmp slt i32 %32, 16, !dbg !8255
  br i1 %33, label %34, label %42, !dbg !8256

34:                                               ; preds = %31
  %35 = load i32, ptr %11, align 4, !dbg !8257
  %36 = sext i32 %35 to i64, !dbg !8257
  %37 = call noundef nonnull align 8 dereferenceable(8) ptr @_ZNSt6vectorIN5mongo4stdx6threadESaIS2_EEixEm(ptr noundef nonnull align 8 dereferenceable(24) %6, i64 noundef %36) #1, !dbg !8259
  invoke void @_ZNSt6thread4joinEv(ptr noundef nonnull align 8 dereferenceable(8) %37)
          to label %38 unwind label %26, !dbg !8260

38:                                               ; preds = %34
  br label %39, !dbg !8261

39:                                               ; preds = %38
  %40 = load i32, ptr %11, align 4, !dbg !8262
  %41 = add nsw i32 %40, 1, !dbg !8262
  store i32 %41, ptr %11, align 4, !dbg !8262
  br label %31, !dbg !8263, !llvm.loop !8264

42:                                               ; preds = %31
  call void @_ZNSt6vectorIN5mongo4stdx6threadESaIS2_EED2Ev(ptr noundef nonnull align 8 dereferenceable(24) %6) #1, !dbg !8248
  ret void, !dbg !8248

43:                                               ; preds = %26
  %44 = load ptr, ptr %9, align 8, !dbg !8248
  %45 = load i32, ptr %10, align 4, !dbg !8248
  %46 = insertvalue { ptr, i32 } poison, ptr %44, 0, !dbg !8248
  %47 = insertvalue { ptr, i32 } %46, i32 %45, 1, !dbg !8248
  resume { ptr, i32 } %47, !dbg !8248
}

; Function Attrs: nounwind
declare void @_ZN5mongo19ThreadSafetyContext19allowMultiThreadingEv(ptr noundef nonnull align 1 dereferenceable(2)) #4

; Function Attrs: mustprogress noinline optnone uwtable
define internal noundef nonnull align 8 dereferenceable(8) ptr @"_ZNSt6vectorIN5mongo4stdx6threadESaIS2_EE12emplace_backIJZNS0_80UnitTest_SuiteNameThreadSafetyContextTestTestNameCreateThreadsAfterSafetyContext7_doTestEvE3$_0EEERS2_DpOT_"(ptr noundef nonnull align 8 dereferenceable(24) %0, ptr noundef nonnull align 1 dereferenceable(1) %1) #6 align 2 !dbg !8266 {
  %3 = alloca ptr, align 8
  %4 = alloca ptr, align 8
  %5 = alloca %"class.__gnu_cxx::__normal_iterator", align 8
  store ptr %0, ptr %3, align 8
  call void @llvm.dbg.declare(metadata ptr %3, metadata !8274, metadata !DIExpression()), !dbg !8275
  store ptr %1, ptr %4, align 8
  call void @llvm.dbg.declare(metadata ptr %4, metadata !8276, metadata !DIExpression()), !dbg !8277
  %6 = load ptr, ptr %3, align 8
  %7 = getelementptr inbounds %"struct.std::_Vector_base", ptr %6, i32 0, i32 0, !dbg !8278
  %8 = getelementptr inbounds %"struct.std::_Vector_base<mongo::stdx::thread, std::allocator<mongo::stdx::thread>>::_Vector_impl_data", ptr %7, i32 0, i32 1, !dbg !8280
  %9 = load ptr, ptr %8, align 8, !dbg !8280
  %10 = getelementptr inbounds %"struct.std::_Vector_base", ptr %6, i32 0, i32 0, !dbg !8281
  %11 = getelementptr inbounds %"struct.std::_Vector_base<mongo::stdx::thread, std::allocator<mongo::stdx::thread>>::_Vector_impl_data", ptr %10, i32 0, i32 2, !dbg !8282
  %12 = load ptr, ptr %11, align 8, !dbg !8282
  %13 = icmp ne ptr %9, %12, !dbg !8283
  br i1 %13, label %14, label %24, !dbg !8284

14:                                               ; preds = %2
  %15 = getelementptr inbounds %"struct.std::_Vector_base", ptr %6, i32 0, i32 0, !dbg !8285
  %16 = getelementptr inbounds %"struct.std::_Vector_base", ptr %6, i32 0, i32 0, !dbg !8287
  %17 = getelementptr inbounds %"struct.std::_Vector_base<mongo::stdx::thread, std::allocator<mongo::stdx::thread>>::_Vector_impl_data", ptr %16, i32 0, i32 1, !dbg !8288
  %18 = load ptr, ptr %17, align 8, !dbg !8288
  %19 = load ptr, ptr %4, align 8, !dbg !8289
  call void @"_ZNSt16allocator_traitsISaIN5mongo4stdx6threadEEE9constructIS2_JZNS0_80UnitTest_SuiteNameThreadSafetyContextTestTestNameCreateThreadsAfterSafetyContext7_doTestEvE3$_0EEEvRS3_PT_DpOT0_"(ptr noundef nonnull align 1 dereferenceable(1) %15, ptr noundef %18, ptr noundef nonnull align 1 dereferenceable(1) %19) #1, !dbg !8290
  %20 = getelementptr inbounds %"struct.std::_Vector_base", ptr %6, i32 0, i32 0, !dbg !8291
  %21 = getelementptr inbounds %"struct.std::_Vector_base<mongo::stdx::thread, std::allocator<mongo::stdx::thread>>::_Vector_impl_data", ptr %20, i32 0, i32 1, !dbg !8292
  %22 = load ptr, ptr %21, align 8, !dbg !8293
  %23 = getelementptr inbounds %"class.mongo::stdx::thread", ptr %22, i32 1, !dbg !8293
  store ptr %23, ptr %21, align 8, !dbg !8293
  br label %30, !dbg !8294

24:                                               ; preds = %2
  %25 = call ptr @_ZNSt6vectorIN5mongo4stdx6threadESaIS2_EE3endEv(ptr noundef nonnull align 8 dereferenceable(24) %6) #1, !dbg !8295
  %26 = getelementptr inbounds %"class.__gnu_cxx::__normal_iterator", ptr %5, i32 0, i32 0, !dbg !8295
  store ptr %25, ptr %26, align 8, !dbg !8295
  %27 = load ptr, ptr %4, align 8, !dbg !8296
  %28 = getelementptr inbounds %"class.__gnu_cxx::__normal_iterator", ptr %5, i32 0, i32 0, !dbg !8297
  %29 = load ptr, ptr %28, align 8, !dbg !8297
  call void @"_ZNSt6vectorIN5mongo4stdx6threadESaIS2_EE17_M_realloc_insertIJZNS0_80UnitTest_SuiteNameThreadSafetyContextTestTestNameCreateThreadsAfterSafetyContext7_doTestEvE3$_0EEEvN9__gnu_cxx17__normal_iteratorIPS2_S4_EEDpOT_"(ptr noundef nonnull align 8 dereferenceable(24) %6, ptr %29, ptr noundef nonnull align 1 dereferenceable(1) %27), !dbg !8297
  br label %30

30:                                               ; preds = %24, %14
  %31 = call noundef nonnull align 8 dereferenceable(8) ptr @_ZNSt6vectorIN5mongo4stdx6threadESaIS2_EE4backEv(ptr noundef nonnull align 8 dereferenceable(24) %6) #1, !dbg !8298
  ret ptr %31, !dbg !8299
}

; Function Attrs: noinline nounwind optnone uwtable
define linkonce_odr dso_local void @_ZN5mongo81UnitTest_SuiteNameThreadSafetyContextTestTestNameCreateThreadsWithNoSafetyContextD2Ev(ptr noundef nonnull align 8 dereferenceable(8) %0) unnamed_addr #2 comdat align 2 !dbg !8300 {
  %2 = alloca ptr, align 8
  store ptr %0, ptr %2, align 8
  call void @llvm.dbg.declare(metadata ptr %2, metadata !8302, metadata !DIExpression()), !dbg !8303
  %3 = load ptr, ptr %2, align 8
  call void @_ZN5mongo23ThreadSafetyContextTestD2Ev(ptr noundef nonnull align 8 dereferenceable(8) %3) #1, !dbg !8304
  ret void, !dbg !8306
}

; Function Attrs: noinline nounwind optnone uwtable
define linkonce_odr dso_local void @_ZN5mongo81UnitTest_SuiteNameThreadSafetyContextTestTestNameCreateThreadsWithNoSafetyContextD0Ev(ptr noundef nonnull align 8 dereferenceable(8) %0) unnamed_addr #2 comdat align 2 !dbg !8307 {
  %2 = alloca ptr, align 8
  store ptr %0, ptr %2, align 8
  call void @llvm.dbg.declare(metadata ptr %2, metadata !8308, metadata !DIExpression()), !dbg !8309
  %3 = load ptr, ptr %2, align 8
  call void @_ZN5mongo81UnitTest_SuiteNameThreadSafetyContextTestTestNameCreateThreadsWithNoSafetyContextD2Ev(ptr noundef nonnull align 8 dereferenceable(8) %3) #1, !dbg !8310
  call void @_ZdlPv(ptr noundef %3) #20, !dbg !8310
  ret void, !dbg !8310
}

; Function Attrs: mustprogress noinline optnone uwtable
define linkonce_odr dso_local void @_ZN5mongo23ThreadSafetyContextTest5setUpEv(ptr noundef nonnull align 8 dereferenceable(8) %0) unnamed_addr #6 comdat align 2 !dbg !8311 {
  %2 = alloca ptr, align 8
  store ptr %0, ptr %2, align 8
  call void @llvm.dbg.declare(metadata ptr %2, metadata !8312, metadata !DIExpression()), !dbg !8314
  %3 = load ptr, ptr %2, align 8
  call void @_ZN5mongo23ThreadSafetyContextTest12resetContextEv(ptr noundef nonnull align 8 dereferenceable(8) %3), !dbg !8315
  ret void, !dbg !8316
}

; Function Attrs: mustprogress noinline optnone uwtable
define linkonce_odr dso_local void @_ZN5mongo23ThreadSafetyContextTest8tearDownEv(ptr noundef nonnull align 8 dereferenceable(8) %0) unnamed_addr #6 comdat align 2 !dbg !8317 {
  %2 = alloca ptr, align 8
  store ptr %0, ptr %2, align 8
  call void @llvm.dbg.declare(metadata ptr %2, metadata !8318, metadata !DIExpression()), !dbg !8319
  %3 = load ptr, ptr %2, align 8
  call void @_ZN5mongo23ThreadSafetyContextTest12resetContextEv(ptr noundef nonnull align 8 dereferenceable(8) %3), !dbg !8320
  ret void, !dbg !8321
}

; Function Attrs: noinline nounwind optnone uwtable
define linkonce_odr dso_local void @_ZN5mongo90UnitTest_SuiteNameThreadSafetyContextTestTestNameCreateThreadsAfterForbidingMultiThreadingD2Ev(ptr noundef nonnull align 8 dereferenceable(8) %0) unnamed_addr #2 comdat align 2 !dbg !8322 {
  %2 = alloca ptr, align 8
  store ptr %0, ptr %2, align 8
  call void @llvm.dbg.declare(metadata ptr %2, metadata !8324, metadata !DIExpression()), !dbg !8325
  %3 = load ptr, ptr %2, align 8
  call void @_ZN5mongo23ThreadSafetyContextTestD2Ev(ptr noundef nonnull align 8 dereferenceable(8) %3) #1, !dbg !8326
  ret void, !dbg !8328
}

; Function Attrs: noinline nounwind optnone uwtable
define linkonce_odr dso_local void @_ZN5mongo90UnitTest_SuiteNameThreadSafetyContextTestTestNameCreateThreadsAfterForbidingMultiThreadingD0Ev(ptr noundef nonnull align 8 dereferenceable(8) %0) unnamed_addr #2 comdat align 2 !dbg !8329 {
  %2 = alloca ptr, align 8
  store ptr %0, ptr %2, align 8
  call void @llvm.dbg.declare(metadata ptr %2, metadata !8330, metadata !DIExpression()), !dbg !8331
  %3 = load ptr, ptr %2, align 8
  call void @_ZN5mongo90UnitTest_SuiteNameThreadSafetyContextTestTestNameCreateThreadsAfterForbidingMultiThreadingD2Ev(ptr noundef nonnull align 8 dereferenceable(8) %3) #1, !dbg !8332
  call void @_ZdlPv(ptr noundef %3) #20, !dbg !8332
  ret void, !dbg !8332
}

; Function Attrs: noinline nounwind optnone uwtable
define linkonce_odr dso_local void @_ZN5mongo89UnitTest_SuiteNameThreadSafetyContextTestTestNameForbidMultiThreadingAfterCreatingThreadsD2Ev(ptr noundef nonnull align 8 dereferenceable(8) %0) unnamed_addr #2 comdat align 2 !dbg !8333 {
  %2 = alloca ptr, align 8
  store ptr %0, ptr %2, align 8
  call void @llvm.dbg.declare(metadata ptr %2, metadata !8335, metadata !DIExpression()), !dbg !8336
  %3 = load ptr, ptr %2, align 8
  call void @_ZN5mongo23ThreadSafetyContextTestD2Ev(ptr noundef nonnull align 8 dereferenceable(8) %3) #1, !dbg !8337
  ret void, !dbg !8339
}

; Function Attrs: noinline nounwind optnone uwtable
define linkonce_odr dso_local void @_ZN5mongo89UnitTest_SuiteNameThreadSafetyContextTestTestNameForbidMultiThreadingAfterCreatingThreadsD0Ev(ptr noundef nonnull align 8 dereferenceable(8) %0) unnamed_addr #2 comdat align 2 !dbg !8340 {
  %2 = alloca ptr, align 8
  store ptr %0, ptr %2, align 8
  call void @llvm.dbg.declare(metadata ptr %2, metadata !8341, metadata !DIExpression()), !dbg !8342
  %3 = load ptr, ptr %2, align 8
  call void @_ZN5mongo89UnitTest_SuiteNameThreadSafetyContextTestTestNameForbidMultiThreadingAfterCreatingThreadsD2Ev(ptr noundef nonnull align 8 dereferenceable(8) %3) #1, !dbg !8343
  call void @_ZdlPv(ptr noundef %3) #20, !dbg !8343
  ret void, !dbg !8343
}

; Function Attrs: noinline nounwind optnone uwtable
define linkonce_odr dso_local void @_ZN5mongo80UnitTest_SuiteNameThreadSafetyContextTestTestNameCreateThreadsAfterSafetyContextD2Ev(ptr noundef nonnull align 8 dereferenceable(8) %0) unnamed_addr #2 comdat align 2 !dbg !8344 {
  %2 = alloca ptr, align 8
  store ptr %0, ptr %2, align 8
  call void @llvm.dbg.declare(metadata ptr %2, metadata !8346, metadata !DIExpression()), !dbg !8347
  %3 = load ptr, ptr %2, align 8
  call void @_ZN5mongo23ThreadSafetyContextTestD2Ev(ptr noundef nonnull align 8 dereferenceable(8) %3) #1, !dbg !8348
  ret void, !dbg !8350
}

; Function Attrs: noinline nounwind optnone uwtable
define linkonce_odr dso_local void @_ZN5mongo80UnitTest_SuiteNameThreadSafetyContextTestTestNameCreateThreadsAfterSafetyContextD0Ev(ptr noundef nonnull align 8 dereferenceable(8) %0) unnamed_addr #2 comdat align 2 !dbg !8351 {
  %2 = alloca ptr, align 8
  store ptr %0, ptr %2, align 8
  call void @llvm.dbg.declare(metadata ptr %2, metadata !8352, metadata !DIExpression()), !dbg !8353
  %3 = load ptr, ptr %2, align 8
  call void @_ZN5mongo80UnitTest_SuiteNameThreadSafetyContextTestTestNameCreateThreadsAfterSafetyContextD2Ev(ptr noundef nonnull align 8 dereferenceable(8) %3) #1, !dbg !8354
  call void @_ZdlPv(ptr noundef %3) #20, !dbg !8354
  ret void, !dbg !8354
}

; Function Attrs: nounwind willreturn memory(read)
declare i64 @strlen(ptr noundef) #9

; Function Attrs: noinline optnone uwtable
define linkonce_odr dso_local void @_ZN5mongo10StringDataC2EPKcm(ptr noundef nonnull align 8 dereferenceable(16) %0, ptr noundef %1, i64 noundef %2) unnamed_addr #5 comdat align 2 !dbg !8355 {
  %4 = alloca ptr, align 8
  %5 = alloca ptr, align 8
  %6 = alloca i64, align 8
  %7 = alloca %"struct.mongo::StringData::TrustedInitTag", align 1
  %8 = alloca i32, align 4
  %9 = alloca %class.anon.16, align 1
  store ptr %0, ptr %4, align 8
  call void @llvm.dbg.declare(metadata ptr %4, metadata !8356, metadata !DIExpression()), !dbg !8357
  store ptr %1, ptr %5, align 8
  call void @llvm.dbg.declare(metadata ptr %5, metadata !8358, metadata !DIExpression()), !dbg !8359
  store i64 %2, ptr %6, align 8
  call void @llvm.dbg.declare(metadata ptr %6, metadata !8360, metadata !DIExpression()), !dbg !8361
  %10 = load ptr, ptr %4, align 8
  %11 = load ptr, ptr %5, align 8, !dbg !8362
  %12 = load i64, ptr %6, align 8, !dbg !8363
  call void @_ZN5mongo10StringDataC2EPKcmNS0_14TrustedInitTagE(ptr noundef nonnull align 8 dereferenceable(16) %10, ptr noundef %11, i64 noundef %12), !dbg !8364
  %13 = getelementptr inbounds %"class.mongo::StringData", ptr %10, i32 0, i32 0, !dbg !8365
  %14 = load ptr, ptr %13, align 8, !dbg !8365
  %15 = icmp ne ptr %14, null, !dbg !8365
  br i1 %15, label %20, label %16, !dbg !8365

16:                                               ; preds = %3
  %17 = getelementptr inbounds %"class.mongo::StringData", ptr %10, i32 0, i32 1, !dbg !8365
  %18 = load i64, ptr %17, align 8, !dbg !8365
  %19 = icmp eq i64 %18, 0, !dbg !8365
  br label %20, !dbg !8365

20:                                               ; preds = %16, %3
  %21 = phi i1 [ true, %3 ], [ %19, %16 ]
  br i1 %21, label %23, label %22, !dbg !8368

22:                                               ; preds = %20
  store i32 0, ptr %8, align 4, !dbg !8369
  call void @_ZN5mongo31invariantWithContextAndLocationIiZNS_10StringDataC1EPKcmEUlvE_EEvRKT_S3_OT0_S3_j(ptr noundef nonnull align 4 dereferenceable(4) %8, ptr noundef @.str.13, ptr noundef nonnull align 1 dereferenceable(1) %9, ptr noundef @.str.14, i32 noundef 100), !dbg !8369
  br label %23, !dbg !8369

23:                                               ; preds = %22, %20
  ret void, !dbg !8370
}

; Function Attrs: noinline nounwind optnone uwtable
define linkonce_odr dso_local void @_ZN5mongo10StringDataC2EPKcmNS0_14TrustedInitTagE(ptr noundef nonnull align 8 dereferenceable(16) %0, ptr noundef %1, i64 noundef %2) unnamed_addr #2 comdat align 2 !dbg !8371 {
  %4 = alloca %"struct.mongo::StringData::TrustedInitTag", align 1
  %5 = alloca ptr, align 8
  %6 = alloca ptr, align 8
  %7 = alloca i64, align 8
  store ptr %0, ptr %5, align 8
  call void @llvm.dbg.declare(metadata ptr %5, metadata !8372, metadata !DIExpression()), !dbg !8373
  store ptr %1, ptr %6, align 8
  call void @llvm.dbg.declare(metadata ptr %6, metadata !8374, metadata !DIExpression()), !dbg !8375
  store i64 %2, ptr %7, align 8
  call void @llvm.dbg.declare(metadata ptr %7, metadata !8376, metadata !DIExpression()), !dbg !8377
  call void @llvm.dbg.declare(metadata ptr %4, metadata !8378, metadata !DIExpression()), !dbg !8379
  %8 = load ptr, ptr %5, align 8
  %9 = getelementptr inbounds %"class.mongo::StringData", ptr %8, i32 0, i32 0, !dbg !8380
  %10 = load ptr, ptr %6, align 8, !dbg !8381
  store ptr %10, ptr %9, align 8, !dbg !8380
  %11 = getelementptr inbounds %"class.mongo::StringData", ptr %8, i32 0, i32 1, !dbg !8382
  %12 = load i64, ptr %7, align 8, !dbg !8383
  store i64 %12, ptr %11, align 8, !dbg !8382
  ret void, !dbg !8384
}

; Function Attrs: mustprogress noinline optnone uwtable
define linkonce_odr dso_local void @_ZN5mongo31invariantWithContextAndLocationIiZNS_10StringDataC1EPKcmEUlvE_EEvRKT_S3_OT0_S3_j(ptr noundef nonnull align 4 dereferenceable(4) %0, ptr noundef %1, ptr noundef nonnull align 1 dereferenceable(1) %2, ptr noundef %3, i32 noundef %4) #6 comdat !dbg !8385 {
  %6 = alloca ptr, align 8
  %7 = alloca ptr, align 8
  %8 = alloca ptr, align 8
  %9 = alloca ptr, align 8
  %10 = alloca i32, align 4
  %11 = alloca %"class.std::__cxx11::basic_string", align 8
  store ptr %0, ptr %6, align 8
  call void @llvm.dbg.declare(metadata ptr %6, metadata !8400, metadata !DIExpression()), !dbg !8401
  store ptr %1, ptr %7, align 8
  call void @llvm.dbg.declare(metadata ptr %7, metadata !8402, metadata !DIExpression()), !dbg !8403
  store ptr %2, ptr %8, align 8
  call void @llvm.dbg.declare(metadata ptr %8, metadata !8404, metadata !DIExpression()), !dbg !8405
  store ptr %3, ptr %9, align 8
  call void @llvm.dbg.declare(metadata ptr %9, metadata !8406, metadata !DIExpression()), !dbg !8407
  store i32 %4, ptr %10, align 4
  call void @llvm.dbg.declare(metadata ptr %10, metadata !8408, metadata !DIExpression()), !dbg !8409
  %12 = load ptr, ptr %6, align 8, !dbg !8410
  %13 = load i32, ptr %12, align 4, !dbg !8410
  %14 = icmp ne i32 %13, 0, !dbg !8410
  %15 = xor i1 %14, true, !dbg !8410
  br i1 %15, label %16, label %21, !dbg !8412

16:                                               ; preds = %5
  %17 = load ptr, ptr %7, align 8, !dbg !8413
  %18 = load ptr, ptr %8, align 8, !dbg !8415
  call void @_ZZN5mongo10StringDataC1EPKcmENKUlvE_clB5cxx11Ev(ptr sret(%"class.std::__cxx11::basic_string") align 8 %11, ptr noundef nonnull align 1 dereferenceable(1) %18), !dbg !8415
  %19 = load ptr, ptr %9, align 8, !dbg !8416
  %20 = load i32, ptr %10, align 4, !dbg !8417
  call void @_ZN5mongo22invariantFailedWithMsgEPKcRKNSt7__cxx1112basic_stringIcSt11char_traitsIcESaIcEEES1_j(ptr noundef %17, ptr noundef nonnull align 8 dereferenceable(32) %11, ptr noundef %19, i32 noundef %20) #19, !dbg !8418
  unreachable, !dbg !8418

21:                                               ; preds = %5
  ret void, !dbg !8419
}

; Function Attrs: noreturn nounwind
declare void @_ZN5mongo22invariantFailedWithMsgEPKcRKNSt7__cxx1112basic_stringIcSt11char_traitsIcESaIcEEES1_j(ptr noundef, ptr noundef nonnull align 8 dereferenceable(32), ptr noundef, i32 noundef) #10

; Function Attrs: mustprogress noinline optnone uwtable
define linkonce_odr dso_local void @_ZZN5mongo10StringDataC1EPKcmENKUlvE_clB5cxx11Ev(ptr noalias sret(%"class.std::__cxx11::basic_string") align 8 %0, ptr noundef nonnull align 1 dereferenceable(1) %1) #6 comdat align 2 personality ptr @__gxx_personality_v0 !dbg !8420 {
  %3 = alloca ptr, align 8
  %4 = alloca ptr, align 8
  %5 = alloca %"class.std::allocator.18", align 1
  %6 = alloca ptr, align 8
  %7 = alloca i32, align 4
  store ptr %0, ptr %3, align 8
  store ptr %1, ptr %4, align 8
  call void @llvm.dbg.declare(metadata ptr %4, metadata !8421, metadata !DIExpression()), !dbg !8423
  %8 = load ptr, ptr %4, align 8
  call void @_ZNSaIcEC1Ev(ptr noundef nonnull align 1 dereferenceable(1) %5) #1, !dbg !8424
  invoke void @_ZNSt7__cxx1112basic_stringIcSt11char_traitsIcESaIcEEC2IS3_EEPKcRKS3_(ptr noundef nonnull align 8 dereferenceable(32) %0, ptr noundef @.str.15, ptr noundef nonnull align 1 dereferenceable(1) %5)
          to label %9 unwind label %10, !dbg !8424

9:                                                ; preds = %2
  call void @_ZNSaIcED1Ev(ptr noundef nonnull align 1 dereferenceable(1) %5) #1, !dbg !8424
  ret void, !dbg !8424

10:                                               ; preds = %2
  %11 = landingpad { ptr, i32 }
          cleanup, !dbg !8424
  %12 = extractvalue { ptr, i32 } %11, 0, !dbg !8424
  store ptr %12, ptr %6, align 8, !dbg !8424
  %13 = extractvalue { ptr, i32 } %11, 1, !dbg !8424
  store i32 %13, ptr %7, align 4, !dbg !8424
  call void @_ZNSaIcED1Ev(ptr noundef nonnull align 1 dereferenceable(1) %5) #1, !dbg !8424
  br label %14, !dbg !8424

14:                                               ; preds = %10
  %15 = load ptr, ptr %6, align 8, !dbg !8424
  %16 = load i32, ptr %7, align 4, !dbg !8424
  %17 = insertvalue { ptr, i32 } poison, ptr %15, 0, !dbg !8424
  %18 = insertvalue { ptr, i32 } %17, i32 %16, 1, !dbg !8424
  resume { ptr, i32 } %18, !dbg !8424
}

; Function Attrs: nounwind
declare void @_ZNSt7__cxx1112basic_stringIcSt11char_traitsIcESaIcEED1Ev(ptr noundef nonnull align 8 dereferenceable(32)) unnamed_addr #4

; Function Attrs: nounwind
declare void @_ZNSaIcEC1Ev(ptr noundef nonnull align 1 dereferenceable(1)) unnamed_addr #4

; Function Attrs: noinline optnone uwtable
define linkonce_odr dso_local void @_ZNSt7__cxx1112basic_stringIcSt11char_traitsIcESaIcEEC2IS3_EEPKcRKS3_(ptr noundef nonnull align 8 dereferenceable(32) %0, ptr noundef %1, ptr noundef nonnull align 1 dereferenceable(1) %2) unnamed_addr #5 comdat align 2 personality ptr @__gxx_personality_v0 !dbg !8425 {
  %4 = alloca ptr, align 8
  %5 = alloca ptr, align 8
  %6 = alloca ptr, align 8
  %7 = alloca ptr, align 8
  %8 = alloca ptr, align 8
  %9 = alloca i32, align 4
  %10 = alloca %"struct.std::forward_iterator_tag", align 1
  %11 = alloca %"struct.std::random_access_iterator_tag", align 1
  store ptr %0, ptr %4, align 8
  call void @llvm.dbg.declare(metadata ptr %4, metadata !8431, metadata !DIExpression()), !dbg !8433
  store ptr %1, ptr %5, align 8
  call void @llvm.dbg.declare(metadata ptr %5, metadata !8434, metadata !DIExpression()), !dbg !8435
  store ptr %2, ptr %6, align 8
  call void @llvm.dbg.declare(metadata ptr %6, metadata !8436, metadata !DIExpression()), !dbg !8437
  %12 = load ptr, ptr %4, align 8
  %13 = getelementptr inbounds %"class.std::__cxx11::basic_string", ptr %12, i32 0, i32 0, !dbg !8438
  %14 = call noundef ptr @_ZNSt7__cxx1112basic_stringIcSt11char_traitsIcESaIcEE13_M_local_dataEv(ptr noundef nonnull align 8 dereferenceable(32) %12), !dbg !8439
  %15 = load ptr, ptr %6, align 8, !dbg !8440
  call void @_ZNSt7__cxx1112basic_stringIcSt11char_traitsIcESaIcEE12_Alloc_hiderC1EPcRKS3_(ptr noundef nonnull align 8 dereferenceable(8) %13, ptr noundef %14, ptr noundef nonnull align 1 dereferenceable(1) %15), !dbg !8438
  call void @llvm.dbg.declare(metadata ptr %7, metadata !8441, metadata !DIExpression()), !dbg !8443
  %16 = load ptr, ptr %5, align 8, !dbg !8444
  %17 = icmp ne ptr %16, null, !dbg !8444
  br i1 %17, label %18, label %24, !dbg !8444

18:                                               ; preds = %3
  %19 = load ptr, ptr %5, align 8, !dbg !8445
  %20 = load ptr, ptr %5, align 8, !dbg !8446
  %21 = invoke noundef i64 @_ZNSt11char_traitsIcE6lengthEPKc(ptr noundef %20)
          to label %22 unwind label %30, !dbg !8447

22:                                               ; preds = %18
  %23 = getelementptr inbounds i8, ptr %19, i64 %21, !dbg !8448
  br label %25, !dbg !8444

24:                                               ; preds = %3
  br label %25, !dbg !8444

25:                                               ; preds = %24, %22
  %26 = phi ptr [ %23, %22 ], [ inttoptr (i64 1 to ptr), %24 ], !dbg !8444
  store ptr %26, ptr %7, align 8, !dbg !8443
  %27 = load ptr, ptr %5, align 8, !dbg !8449
  %28 = load ptr, ptr %7, align 8, !dbg !8450
  invoke void @_ZNSt7__cxx1112basic_stringIcSt11char_traitsIcESaIcEE12_M_constructIPKcEEvT_S8_St20forward_iterator_tag(ptr noundef nonnull align 8 dereferenceable(32) %12, ptr noundef %27, ptr noundef %28)
          to label %29 unwind label %30, !dbg !8451

29:                                               ; preds = %25
  ret void, !dbg !8452

30:                                               ; preds = %25, %18
  %31 = landingpad { ptr, i32 }
          cleanup, !dbg !8453
  %32 = extractvalue { ptr, i32 } %31, 0, !dbg !8453
  store ptr %32, ptr %8, align 8, !dbg !8453
  %33 = extractvalue { ptr, i32 } %31, 1, !dbg !8453
  store i32 %33, ptr %9, align 4, !dbg !8453
  call void @_ZNSt7__cxx1112basic_stringIcSt11char_traitsIcESaIcEE12_Alloc_hiderD2Ev(ptr noundef nonnull align 8 dereferenceable(8) %13) #1, !dbg !8453
  br label %34, !dbg !8453

34:                                               ; preds = %30
  %35 = load ptr, ptr %8, align 8, !dbg !8453
  %36 = load i32, ptr %9, align 4, !dbg !8453
  %37 = insertvalue { ptr, i32 } poison, ptr %35, 0, !dbg !8453
  %38 = insertvalue { ptr, i32 } %37, i32 %36, 1, !dbg !8453
  resume { ptr, i32 } %38, !dbg !8453
}

; Function Attrs: nounwind
declare void @_ZNSaIcED1Ev(ptr noundef nonnull align 1 dereferenceable(1)) unnamed_addr #4

declare noundef ptr @_ZNSt7__cxx1112basic_stringIcSt11char_traitsIcESaIcEE13_M_local_dataEv(ptr noundef nonnull align 8 dereferenceable(32)) #3

declare void @_ZNSt7__cxx1112basic_stringIcSt11char_traitsIcESaIcEE12_Alloc_hiderC1EPcRKS3_(ptr noundef nonnull align 8 dereferenceable(8), ptr noundef, ptr noundef nonnull align 1 dereferenceable(1)) unnamed_addr #3

; Function Attrs: mustprogress noinline optnone uwtable
define linkonce_odr dso_local noundef i64 @_ZNSt11char_traitsIcE6lengthEPKc(ptr noundef %0) #6 comdat align 2 !dbg !8454 {
  %2 = alloca ptr, align 8
  %3 = alloca i64, align 8
  %4 = alloca ptr, align 8
  store ptr %0, ptr %4, align 8
  call void @llvm.dbg.declare(metadata ptr %4, metadata !8455, metadata !DIExpression()), !dbg !8456
  %5 = load ptr, ptr %4, align 8, !dbg !8457
  store ptr %5, ptr %2, align 8
  call void @llvm.dbg.declare(metadata ptr %2, metadata !8459, metadata !DIExpression()), !dbg !8463
  br i1 false, label %6, label %9, !dbg !8465

6:                                                ; preds = %1
  %7 = load ptr, ptr %4, align 8, !dbg !8466
  %8 = call noundef i64 @_ZN9__gnu_cxx11char_traitsIcE6lengthEPKc(ptr noundef %7), !dbg !8467
  store i64 %8, ptr %3, align 8, !dbg !8468
  br label %12, !dbg !8468

9:                                                ; preds = %1
  %10 = load ptr, ptr %4, align 8, !dbg !8469
  %11 = call i64 @strlen(ptr noundef %10) #1, !dbg !8470
  store i64 %11, ptr %3, align 8, !dbg !8471
  br label %12, !dbg !8471

12:                                               ; preds = %9, %6
  %13 = load i64, ptr %3, align 8, !dbg !8472
  ret i64 %13, !dbg !8472
}

; Function Attrs: mustprogress noinline optnone uwtable
define linkonce_odr dso_local void @_ZNSt7__cxx1112basic_stringIcSt11char_traitsIcESaIcEE12_M_constructIPKcEEvT_S8_St20forward_iterator_tag(ptr noundef nonnull align 8 dereferenceable(32) %0, ptr noundef %1, ptr noundef %2) #6 comdat align 2 personality ptr @__gxx_personality_v0 !dbg !8473 {
  %4 = alloca %"struct.std::forward_iterator_tag", align 1
  %5 = alloca ptr, align 8
  %6 = alloca ptr, align 8
  %7 = alloca ptr, align 8
  %8 = alloca i64, align 8
  %9 = alloca ptr, align 8
  %10 = alloca i32, align 4
  store ptr %0, ptr %5, align 8
  call void @llvm.dbg.declare(metadata ptr %5, metadata !8479, metadata !DIExpression()), !dbg !8480
  store ptr %1, ptr %6, align 8
  call void @llvm.dbg.declare(metadata ptr %6, metadata !8481, metadata !DIExpression()), !dbg !8482
  store ptr %2, ptr %7, align 8
  call void @llvm.dbg.declare(metadata ptr %7, metadata !8483, metadata !DIExpression()), !dbg !8484
  call void @llvm.dbg.declare(metadata ptr %4, metadata !8485, metadata !DIExpression()), !dbg !8486
  %11 = load ptr, ptr %5, align 8
  %12 = load ptr, ptr %6, align 8, !dbg !8487
  %13 = call noundef zeroext i1 @_ZN9__gnu_cxx17__is_null_pointerIKcEEbPT_(ptr noundef %12), !dbg !8489
  br i1 %13, label %14, label %19, !dbg !8490

14:                                               ; preds = %3
  %15 = load ptr, ptr %6, align 8, !dbg !8491
  %16 = load ptr, ptr %7, align 8, !dbg !8492
  %17 = icmp ne ptr %15, %16, !dbg !8493
  br i1 %17, label %18, label %19, !dbg !8494

18:                                               ; preds = %14
  call void @_ZSt19__throw_logic_errorPKc(ptr noundef @.str.16) #21, !dbg !8495
  unreachable, !dbg !8495

19:                                               ; preds = %14, %3
  call void @llvm.dbg.declare(metadata ptr %8, metadata !8496, metadata !DIExpression()), !dbg !8497
  %20 = load ptr, ptr %6, align 8, !dbg !8498
  %21 = load ptr, ptr %7, align 8, !dbg !8499
  %22 = call noundef i64 @_ZSt8distanceIPKcENSt15iterator_traitsIT_E15difference_typeES3_S3_(ptr noundef %20, ptr noundef %21), !dbg !8500
  store i64 %22, ptr %8, align 8, !dbg !8497
  %23 = load i64, ptr %8, align 8, !dbg !8501
  %24 = icmp ugt i64 %23, 15, !dbg !8503
  br i1 %24, label %25, label %28, !dbg !8504

25:                                               ; preds = %19
  %26 = call noundef ptr @_ZNSt7__cxx1112basic_stringIcSt11char_traitsIcESaIcEE9_M_createERmm(ptr noundef nonnull align 8 dereferenceable(32) %11, ptr noundef nonnull align 8 dereferenceable(8) %8, i64 noundef 0), !dbg !8505
  call void @_ZNSt7__cxx1112basic_stringIcSt11char_traitsIcESaIcEE7_M_dataEPc(ptr noundef nonnull align 8 dereferenceable(32) %11, ptr noundef %26), !dbg !8507
  %27 = load i64, ptr %8, align 8, !dbg !8508
  call void @_ZNSt7__cxx1112basic_stringIcSt11char_traitsIcESaIcEE11_M_capacityEm(ptr noundef nonnull align 8 dereferenceable(32) %11, i64 noundef %27), !dbg !8509
  br label %28, !dbg !8510

28:                                               ; preds = %25, %19
  %29 = invoke noundef ptr @_ZNKSt7__cxx1112basic_stringIcSt11char_traitsIcESaIcEE7_M_dataEv(ptr noundef nonnull align 8 dereferenceable(32) %11)
          to label %30 unwind label %33, !dbg !8511

30:                                               ; preds = %28
  %31 = load ptr, ptr %6, align 8, !dbg !8513
  %32 = load ptr, ptr %7, align 8, !dbg !8514
  call void @_ZNSt7__cxx1112basic_stringIcSt11char_traitsIcESaIcEE13_S_copy_charsEPcPKcS7_(ptr noundef %29, ptr noundef %31, ptr noundef %32) #1, !dbg !8515
  br label %46, !dbg !8516

33:                                               ; preds = %28
  %34 = landingpad { ptr, i32 }
          catch ptr null, !dbg !8517
  %35 = extractvalue { ptr, i32 } %34, 0, !dbg !8517
  store ptr %35, ptr %9, align 8, !dbg !8517
  %36 = extractvalue { ptr, i32 } %34, 1, !dbg !8517
  store i32 %36, ptr %10, align 4, !dbg !8517
  br label %37, !dbg !8517

37:                                               ; preds = %33
  %38 = load ptr, ptr %9, align 8, !dbg !8516
  %39 = call ptr @__cxa_begin_catch(ptr %38) #1, !dbg !8516
  invoke void @_ZNSt7__cxx1112basic_stringIcSt11char_traitsIcESaIcEE10_M_disposeEv(ptr noundef nonnull align 8 dereferenceable(32) %11)
          to label %40 unwind label %41, !dbg !8518

40:                                               ; preds = %37
  invoke void @__cxa_rethrow() #21
          to label %56 unwind label %41, !dbg !8520

41:                                               ; preds = %40, %37
  %42 = landingpad { ptr, i32 }
          cleanup, !dbg !8521
  %43 = extractvalue { ptr, i32 } %42, 0, !dbg !8521
  store ptr %43, ptr %9, align 8, !dbg !8521
  %44 = extractvalue { ptr, i32 } %42, 1, !dbg !8521
  store i32 %44, ptr %10, align 4, !dbg !8521
  invoke void @__cxa_end_catch()
          to label %45 unwind label %53, !dbg !8522

45:                                               ; preds = %41
  br label %48, !dbg !8522

46:                                               ; preds = %30
  %47 = load i64, ptr %8, align 8, !dbg !8523
  call void @_ZNSt7__cxx1112basic_stringIcSt11char_traitsIcESaIcEE13_M_set_lengthEm(ptr noundef nonnull align 8 dereferenceable(32) %11, i64 noundef %47), !dbg !8524
  ret void, !dbg !8525

48:                                               ; preds = %45
  %49 = load ptr, ptr %9, align 8, !dbg !8522
  %50 = load i32, ptr %10, align 4, !dbg !8522
  %51 = insertvalue { ptr, i32 } poison, ptr %49, 0, !dbg !8522
  %52 = insertvalue { ptr, i32 } %51, i32 %50, 1, !dbg !8522
  resume { ptr, i32 } %52, !dbg !8522

53:                                               ; preds = %41
  %54 = landingpad { ptr, i32 }
          catch ptr null, !dbg !8522
  %55 = extractvalue { ptr, i32 } %54, 0, !dbg !8522
  call void @__clang_call_terminate(ptr %55) #19, !dbg !8522
  unreachable, !dbg !8522

56:                                               ; preds = %40
  unreachable
}

; Function Attrs: noinline nounwind optnone uwtable
define linkonce_odr dso_local void @_ZNSt7__cxx1112basic_stringIcSt11char_traitsIcESaIcEE12_Alloc_hiderD2Ev(ptr noundef nonnull align 8 dereferenceable(8) %0) unnamed_addr #2 comdat align 2 !dbg !8526 {
  %2 = alloca ptr, align 8
  store ptr %0, ptr %2, align 8
  call void @llvm.dbg.declare(metadata ptr %2, metadata !8531, metadata !DIExpression()), !dbg !8533
  %3 = load ptr, ptr %2, align 8
  call void @_ZNSaIcED2Ev(ptr noundef nonnull align 1 dereferenceable(1) %3) #1, !dbg !8534
  ret void, !dbg !8536
}

; Function Attrs: mustprogress noinline optnone uwtable
define linkonce_odr dso_local noundef i64 @_ZN9__gnu_cxx11char_traitsIcE6lengthEPKc(ptr noundef %0) #6 comdat align 2 !dbg !8537 {
  %2 = alloca ptr, align 8
  %3 = alloca i64, align 8
  %4 = alloca i8, align 1
  store ptr %0, ptr %2, align 8
  call void @llvm.dbg.declare(metadata ptr %2, metadata !8589, metadata !DIExpression()), !dbg !8590
  call void @llvm.dbg.declare(metadata ptr %3, metadata !8591, metadata !DIExpression()), !dbg !8592
  store i64 0, ptr %3, align 8, !dbg !8592
  br label %5, !dbg !8593

5:                                                ; preds = %11, %1
  %6 = load ptr, ptr %2, align 8, !dbg !8594
  %7 = load i64, ptr %3, align 8, !dbg !8595
  %8 = getelementptr inbounds i8, ptr %6, i64 %7, !dbg !8594
  store i8 0, ptr %4, align 1, !dbg !8596
  %9 = call noundef zeroext i1 @_ZN9__gnu_cxx11char_traitsIcE2eqERKcS3_(ptr noundef nonnull align 1 dereferenceable(1) %8, ptr noundef nonnull align 1 dereferenceable(1) %4), !dbg !8597
  %10 = xor i1 %9, true, !dbg !8598
  br i1 %10, label %11, label %14, !dbg !8593

11:                                               ; preds = %5
  %12 = load i64, ptr %3, align 8, !dbg !8599
  %13 = add i64 %12, 1, !dbg !8599
  store i64 %13, ptr %3, align 8, !dbg !8599
  br label %5, !dbg !8593, !llvm.loop !8600

14:                                               ; preds = %5
  %15 = load i64, ptr %3, align 8, !dbg !8602
  ret i64 %15, !dbg !8603
}

; Function Attrs: mustprogress noinline nounwind optnone uwtable
define linkonce_odr dso_local noundef zeroext i1 @_ZN9__gnu_cxx11char_traitsIcE2eqERKcS3_(ptr noundef nonnull align 1 dereferenceable(1) %0, ptr noundef nonnull align 1 dereferenceable(1) %1) #8 comdat align 2 !dbg !8604 {
  %3 = alloca ptr, align 8
  %4 = alloca ptr, align 8
  store ptr %0, ptr %3, align 8
  call void @llvm.dbg.declare(metadata ptr %3, metadata !8605, metadata !DIExpression()), !dbg !8606
  store ptr %1, ptr %4, align 8
  call void @llvm.dbg.declare(metadata ptr %4, metadata !8607, metadata !DIExpression()), !dbg !8608
  %5 = load ptr, ptr %3, align 8, !dbg !8609
  %6 = load i8, ptr %5, align 1, !dbg !8609
  %7 = sext i8 %6 to i32, !dbg !8609
  %8 = load ptr, ptr %4, align 8, !dbg !8610
  %9 = load i8, ptr %8, align 1, !dbg !8610
  %10 = sext i8 %9 to i32, !dbg !8610
  %11 = icmp eq i32 %7, %10, !dbg !8611
  ret i1 %11, !dbg !8612
}

; Function Attrs: mustprogress noinline nounwind optnone uwtable
define linkonce_odr dso_local noundef zeroext i1 @_ZN9__gnu_cxx17__is_null_pointerIKcEEbPT_(ptr noundef %0) #8 comdat !dbg !8613 {
  %2 = alloca ptr, align 8
  store ptr %0, ptr %2, align 8
  call void @llvm.dbg.declare(metadata ptr %2, metadata !8617, metadata !DIExpression()), !dbg !8618
  %3 = load ptr, ptr %2, align 8, !dbg !8619
  %4 = icmp eq ptr %3, null, !dbg !8620
  ret i1 %4, !dbg !8621
}

; Function Attrs: noreturn
declare void @_ZSt19__throw_logic_errorPKc(ptr noundef) #11

; Function Attrs: mustprogress noinline optnone uwtable
define linkonce_odr dso_local noundef i64 @_ZSt8distanceIPKcENSt15iterator_traitsIT_E15difference_typeES3_S3_(ptr noundef %0, ptr noundef %1) #6 comdat !dbg !8622 {
  %3 = alloca ptr, align 8
  %4 = alloca ptr, align 8
  %5 = alloca %"struct.std::random_access_iterator_tag", align 1
  %6 = alloca %"struct.std::random_access_iterator_tag", align 1
  store ptr %0, ptr %3, align 8
  call void @llvm.dbg.declare(metadata ptr %3, metadata !8628, metadata !DIExpression()), !dbg !8629
  store ptr %1, ptr %4, align 8
  call void @llvm.dbg.declare(metadata ptr %4, metadata !8630, metadata !DIExpression()), !dbg !8631
  %7 = load ptr, ptr %3, align 8, !dbg !8632
  %8 = load ptr, ptr %4, align 8, !dbg !8633
  call void @_ZSt19__iterator_categoryIPKcENSt15iterator_traitsIT_E17iterator_categoryERKS3_(ptr noundef nonnull align 8 dereferenceable(8) %3), !dbg !8634
  %9 = call noundef i64 @_ZSt10__distanceIPKcENSt15iterator_traitsIT_E15difference_typeES3_S3_St26random_access_iterator_tag(ptr noundef %7, ptr noundef %8), !dbg !8635
  ret i64 %9, !dbg !8636
}

declare void @_ZNSt7__cxx1112basic_stringIcSt11char_traitsIcESaIcEE7_M_dataEPc(ptr noundef nonnull align 8 dereferenceable(32), ptr noundef) #3

declare noundef ptr @_ZNSt7__cxx1112basic_stringIcSt11char_traitsIcESaIcEE9_M_createERmm(ptr noundef nonnull align 8 dereferenceable(32), ptr noundef nonnull align 8 dereferenceable(8), i64 noundef) #3

declare void @_ZNSt7__cxx1112basic_stringIcSt11char_traitsIcESaIcEE11_M_capacityEm(ptr noundef nonnull align 8 dereferenceable(32), i64 noundef) #3

; Function Attrs: nounwind
declare void @_ZNSt7__cxx1112basic_stringIcSt11char_traitsIcESaIcEE13_S_copy_charsEPcPKcS7_(ptr noundef, ptr noundef, ptr noundef) #4

declare noundef ptr @_ZNKSt7__cxx1112basic_stringIcSt11char_traitsIcESaIcEE7_M_dataEv(ptr noundef nonnull align 8 dereferenceable(32)) #3

declare ptr @__cxa_begin_catch(ptr)

declare void @_ZNSt7__cxx1112basic_stringIcSt11char_traitsIcESaIcEE10_M_disposeEv(ptr noundef nonnull align 8 dereferenceable(32)) #3

declare void @__cxa_rethrow()

declare void @__cxa_end_catch()

; Function Attrs: noinline noreturn nounwind
define linkonce_odr hidden void @__clang_call_terminate(ptr noundef %0) #12 comdat {
  %2 = call ptr @__cxa_begin_catch(ptr %0) #1
  call void @_ZSt9terminatev() #19
  unreachable
}

declare void @_ZSt9terminatev()

declare void @_ZNSt7__cxx1112basic_stringIcSt11char_traitsIcESaIcEE13_M_set_lengthEm(ptr noundef nonnull align 8 dereferenceable(32), i64 noundef) #3

; Function Attrs: mustprogress noinline nounwind optnone uwtable
define linkonce_odr dso_local noundef i64 @_ZSt10__distanceIPKcENSt15iterator_traitsIT_E15difference_typeES3_S3_St26random_access_iterator_tag(ptr noundef %0, ptr noundef %1) #8 comdat !dbg !8637 {
  %3 = alloca %"struct.std::random_access_iterator_tag", align 1
  %4 = alloca ptr, align 8
  %5 = alloca ptr, align 8
  store ptr %0, ptr %4, align 8
  call void @llvm.dbg.declare(metadata ptr %4, metadata !8642, metadata !DIExpression()), !dbg !8643
  store ptr %1, ptr %5, align 8
  call void @llvm.dbg.declare(metadata ptr %5, metadata !8644, metadata !DIExpression()), !dbg !8645
  call void @llvm.dbg.declare(metadata ptr %3, metadata !8646, metadata !DIExpression()), !dbg !8647
  %6 = load ptr, ptr %5, align 8, !dbg !8648
  %7 = load ptr, ptr %4, align 8, !dbg !8649
  %8 = ptrtoint ptr %6 to i64, !dbg !8650
  %9 = ptrtoint ptr %7 to i64, !dbg !8650
  %10 = sub i64 %8, %9, !dbg !8650
  ret i64 %10, !dbg !8651
}

; Function Attrs: mustprogress noinline nounwind optnone uwtable
define linkonce_odr dso_local void @_ZSt19__iterator_categoryIPKcENSt15iterator_traitsIT_E17iterator_categoryERKS3_(ptr noundef nonnull align 8 dereferenceable(8) %0) #8 comdat !dbg !8652 {
  %2 = alloca ptr, align 8
  store ptr %0, ptr %2, align 8
  call void @llvm.dbg.declare(metadata ptr %2, metadata !8658, metadata !DIExpression()), !dbg !8659
  ret void, !dbg !8660
}

; Function Attrs: nounwind
declare void @_ZNSaIcED2Ev(ptr noundef nonnull align 1 dereferenceable(1)) unnamed_addr #4

; Function Attrs: noinline nounwind optnone uwtable
define linkonce_odr dso_local void @_ZNSt12_Vector_baseIN5mongo4stdx6threadESaIS2_EEC2Ev(ptr noundef nonnull align 8 dereferenceable(24) %0) unnamed_addr #2 comdat align 2 !dbg !8661 {
  %2 = alloca ptr, align 8
  store ptr %0, ptr %2, align 8
  call void @llvm.dbg.declare(metadata ptr %2, metadata !8662, metadata !DIExpression()), !dbg !8664
  %3 = load ptr, ptr %2, align 8
  %4 = getelementptr inbounds %"struct.std::_Vector_base", ptr %3, i32 0, i32 0, !dbg !8665
  call void @_ZNSt12_Vector_baseIN5mongo4stdx6threadESaIS2_EE12_Vector_implC2Ev(ptr noundef nonnull align 8 dereferenceable(24) %4) #1, !dbg !8665
  ret void, !dbg !8666
}

; Function Attrs: noinline nounwind optnone uwtable
define linkonce_odr dso_local void @_ZNSt12_Vector_baseIN5mongo4stdx6threadESaIS2_EE12_Vector_implC2Ev(ptr noundef nonnull align 8 dereferenceable(24) %0) unnamed_addr #2 comdat align 2 !dbg !8667 {
  %2 = alloca ptr, align 8
  store ptr %0, ptr %2, align 8
  call void @llvm.dbg.declare(metadata ptr %2, metadata !8668, metadata !DIExpression()), !dbg !8670
  %3 = load ptr, ptr %2, align 8
  call void @_ZNSaIN5mongo4stdx6threadEEC2Ev(ptr noundef nonnull align 1 dereferenceable(1) %3) #1, !dbg !8671
  call void @_ZNSt12_Vector_baseIN5mongo4stdx6threadESaIS2_EE17_Vector_impl_dataC2Ev(ptr noundef nonnull align 8 dereferenceable(24) %3) #1, !dbg !8672
  ret void, !dbg !8673
}

; Function Attrs: noinline nounwind optnone uwtable
define linkonce_odr dso_local void @_ZNSaIN5mongo4stdx6threadEEC2Ev(ptr noundef nonnull align 1 dereferenceable(1) %0) unnamed_addr #2 comdat align 2 !dbg !8674 {
  %2 = alloca ptr, align 8
  store ptr %0, ptr %2, align 8
  call void @llvm.dbg.declare(metadata ptr %2, metadata !8675, metadata !DIExpression()), !dbg !8677
  %3 = load ptr, ptr %2, align 8
  call void @_ZN9__gnu_cxx13new_allocatorIN5mongo4stdx6threadEEC2Ev(ptr noundef nonnull align 1 dereferenceable(1) %3) #1, !dbg !8678
  ret void, !dbg !8679
}

; Function Attrs: noinline nounwind optnone uwtable
define linkonce_odr dso_local void @_ZNSt12_Vector_baseIN5mongo4stdx6threadESaIS2_EE17_Vector_impl_dataC2Ev(ptr noundef nonnull align 8 dereferenceable(24) %0) unnamed_addr #2 comdat align 2 !dbg !8680 {
  %2 = alloca ptr, align 8
  store ptr %0, ptr %2, align 8
  call void @llvm.dbg.declare(metadata ptr %2, metadata !8681, metadata !DIExpression()), !dbg !8683
  %3 = load ptr, ptr %2, align 8
  %4 = getelementptr inbounds %"struct.std::_Vector_base<mongo::stdx::thread, std::allocator<mongo::stdx::thread>>::_Vector_impl_data", ptr %3, i32 0, i32 0, !dbg !8684
  store ptr null, ptr %4, align 8, !dbg !8684
  %5 = getelementptr inbounds %"struct.std::_Vector_base<mongo::stdx::thread, std::allocator<mongo::stdx::thread>>::_Vector_impl_data", ptr %3, i32 0, i32 1, !dbg !8685
  store ptr null, ptr %5, align 8, !dbg !8685
  %6 = getelementptr inbounds %"struct.std::_Vector_base<mongo::stdx::thread, std::allocator<mongo::stdx::thread>>::_Vector_impl_data", ptr %3, i32 0, i32 2, !dbg !8686
  store ptr null, ptr %6, align 8, !dbg !8686
  ret void, !dbg !8687
}

; Function Attrs: noinline nounwind optnone uwtable
define linkonce_odr dso_local void @_ZN9__gnu_cxx13new_allocatorIN5mongo4stdx6threadEEC2Ev(ptr noundef nonnull align 1 dereferenceable(1) %0) unnamed_addr #2 comdat align 2 !dbg !8688 {
  %2 = alloca ptr, align 8
  store ptr %0, ptr %2, align 8
  call void @llvm.dbg.declare(metadata ptr %2, metadata !8689, metadata !DIExpression()), !dbg !8691
  %3 = load ptr, ptr %2, align 8
  ret void, !dbg !8692
}

; Function Attrs: noinline nounwind optnone uwtable
define linkonce_odr dso_local void @_ZNSt6threadD2Ev(ptr noundef nonnull align 8 dereferenceable(8) %0) unnamed_addr #2 comdat align 2 !dbg !8693 {
  %2 = alloca ptr, align 8
  store ptr %0, ptr %2, align 8
  call void @llvm.dbg.declare(metadata ptr %2, metadata !8694, metadata !DIExpression()), !dbg !8696
  %3 = load ptr, ptr %2, align 8
  %4 = call noundef zeroext i1 @_ZNKSt6thread8joinableEv(ptr noundef nonnull align 8 dereferenceable(8) %3) #1, !dbg !8697
  br i1 %4, label %5, label %6, !dbg !8700

5:                                                ; preds = %1
  call void @_ZSt9terminatev() #19, !dbg !8701
  unreachable, !dbg !8701

6:                                                ; preds = %1
  ret void, !dbg !8702
}

; Function Attrs: mustprogress noinline nounwind optnone uwtable
define linkonce_odr dso_local noundef zeroext i1 @_ZNKSt6thread8joinableEv(ptr noundef nonnull align 8 dereferenceable(8) %0) #8 comdat align 2 !dbg !8703 {
  %2 = alloca ptr, align 8
  %3 = alloca %"class.std::thread::id", align 8
  %4 = alloca %"class.std::thread::id", align 8
  store ptr %0, ptr %2, align 8
  call void @llvm.dbg.declare(metadata ptr %2, metadata !8704, metadata !DIExpression()), !dbg !8706
  %5 = load ptr, ptr %2, align 8
  %6 = getelementptr inbounds %"class.std::thread", ptr %5, i32 0, i32 0, !dbg !8707
  call void @llvm.memcpy.p0.p0.i64(ptr align 8 %3, ptr align 8 %6, i64 8, i1 false), !dbg !8707
  call void @_ZNSt6thread2idC2Ev(ptr noundef nonnull align 8 dereferenceable(8) %4) #1, !dbg !8708
  %7 = getelementptr inbounds %"class.std::thread::id", ptr %3, i32 0, i32 0, !dbg !8709
  %8 = load i64, ptr %7, align 8, !dbg !8709
  %9 = getelementptr inbounds %"class.std::thread::id", ptr %4, i32 0, i32 0, !dbg !8709
  %10 = load i64, ptr %9, align 8, !dbg !8709
  %11 = call noundef zeroext i1 @_ZSteqNSt6thread2idES0_(i64 %8, i64 %10) #1, !dbg !8709
  %12 = xor i1 %11, true, !dbg !8710
  ret i1 %12, !dbg !8711
}

; Function Attrs: mustprogress noinline nounwind optnone uwtable
define linkonce_odr dso_local noundef zeroext i1 @_ZSteqNSt6thread2idES0_(i64 %0, i64 %1) #8 comdat !dbg !8712 {
  %3 = alloca %"class.std::thread::id", align 8
  %4 = alloca %"class.std::thread::id", align 8
  %5 = getelementptr inbounds %"class.std::thread::id", ptr %3, i32 0, i32 0
  store i64 %0, ptr %5, align 8
  %6 = getelementptr inbounds %"class.std::thread::id", ptr %4, i32 0, i32 0
  store i64 %1, ptr %6, align 8
  call void @llvm.dbg.declare(metadata ptr %3, metadata !8715, metadata !DIExpression()), !dbg !8716
  call void @llvm.dbg.declare(metadata ptr %4, metadata !8717, metadata !DIExpression()), !dbg !8718
  %7 = getelementptr inbounds %"class.std::thread::id", ptr %3, i32 0, i32 0, !dbg !8719
  %8 = load i64, ptr %7, align 8, !dbg !8719
  %9 = getelementptr inbounds %"class.std::thread::id", ptr %4, i32 0, i32 0, !dbg !8720
  %10 = load i64, ptr %9, align 8, !dbg !8720
  %11 = icmp eq i64 %8, %10, !dbg !8721
  ret i1 %11, !dbg !8722
}

; Function Attrs: nocallback nofree nounwind willreturn memory(argmem: readwrite)
declare void @llvm.memcpy.p0.p0.i64(ptr noalias nocapture writeonly, ptr noalias nocapture readonly, i64, i1 immarg) #13

; Function Attrs: noinline nounwind optnone uwtable
define linkonce_odr dso_local void @_ZNSt6thread2idC2Ev(ptr noundef nonnull align 8 dereferenceable(8) %0) unnamed_addr #2 comdat align 2 !dbg !8723 {
  %2 = alloca ptr, align 8
  store ptr %0, ptr %2, align 8
  call void @llvm.dbg.declare(metadata ptr %2, metadata !8724, metadata !DIExpression()), !dbg !8726
  %3 = load ptr, ptr %2, align 8
  %4 = getelementptr inbounds %"class.std::thread::id", ptr %3, i32 0, i32 0, !dbg !8727
  store i64 0, ptr %4, align 8, !dbg !8727
  ret void, !dbg !8728
}

; Function Attrs: noinline nounwind optnone uwtable
define linkonce_odr dso_local void @_ZN5mongo4stdx18condition_variableD2Ev(ptr noundef nonnull align 8 dereferenceable(136) %0) unnamed_addr #2 comdat align 2 !dbg !8729 {
  %2 = alloca ptr, align 8
  store ptr %0, ptr %2, align 8
  call void @llvm.dbg.declare(metadata ptr %2, metadata !8735, metadata !DIExpression()), !dbg !8737
  %3 = load ptr, ptr %2, align 8
  %4 = getelementptr inbounds %"class.mongo::stdx::condition_variable", ptr %3, i32 0, i32 3, !dbg !8738
  call void @_ZNSt7__cxx114listIPN5mongo10NotifyableESaIS3_EED2Ev(ptr noundef nonnull align 8 dereferenceable(24) %4) #1, !dbg !8738
  call void @_ZNSt3_V222condition_variable_anyD2Ev(ptr noundef nonnull align 8 dereferenceable(64) %3) #1, !dbg !8738
  ret void, !dbg !8740
}

; Function Attrs: noinline nounwind optnone uwtable
define linkonce_odr dso_local void @_ZNSt7__cxx114listIPN5mongo10NotifyableESaIS3_EED2Ev(ptr noundef nonnull align 8 dereferenceable(24) %0) unnamed_addr #2 comdat align 2 !dbg !8741 {
  %2 = alloca ptr, align 8
  store ptr %0, ptr %2, align 8
  call void @llvm.dbg.declare(metadata ptr %2, metadata !8747, metadata !DIExpression()), !dbg !8749
  %3 = load ptr, ptr %2, align 8
  call void @_ZNSt7__cxx1110_List_baseIPN5mongo10NotifyableESaIS3_EED2Ev(ptr noundef nonnull align 8 dereferenceable(24) %3) #1, !dbg !8750
  ret void, !dbg !8752
}

; Function Attrs: noinline nounwind optnone uwtable
define linkonce_odr dso_local void @_ZNSt3_V222condition_variable_anyD2Ev(ptr noundef nonnull align 8 dereferenceable(64) %0) unnamed_addr #2 comdat align 2 !dbg !8753 {
  %2 = alloca ptr, align 8
  store ptr %0, ptr %2, align 8
  call void @llvm.dbg.declare(metadata ptr %2, metadata !8760, metadata !DIExpression()), !dbg !8762
  %3 = load ptr, ptr %2, align 8
  %4 = getelementptr inbounds %"class.std::_V2::condition_variable_any", ptr %3, i32 0, i32 1, !dbg !8763
  call void @_ZNSt10shared_ptrISt5mutexED2Ev(ptr noundef nonnull align 8 dereferenceable(16) %4) #1, !dbg !8763
  %5 = getelementptr inbounds %"class.std::_V2::condition_variable_any", ptr %3, i32 0, i32 0, !dbg !8763
  call void @_ZNSt18condition_variableD1Ev(ptr noundef nonnull align 8 dereferenceable(48) %5) #1, !dbg !8763
  ret void, !dbg !8765
}

; Function Attrs: noinline nounwind optnone uwtable
define linkonce_odr dso_local void @_ZNSt7__cxx1110_List_baseIPN5mongo10NotifyableESaIS3_EED2Ev(ptr noundef nonnull align 8 dereferenceable(24) %0) unnamed_addr #2 comdat align 2 !dbg !8766 {
  %2 = alloca ptr, align 8
  store ptr %0, ptr %2, align 8
  call void @llvm.dbg.declare(metadata ptr %2, metadata !8768, metadata !DIExpression()), !dbg !8770
  %3 = load ptr, ptr %2, align 8
  call void @_ZNSt7__cxx1110_List_baseIPN5mongo10NotifyableESaIS3_EE8_M_clearEv(ptr noundef nonnull align 8 dereferenceable(24) %3) #1, !dbg !8771
  %4 = getelementptr inbounds %"class.std::__cxx11::_List_base", ptr %3, i32 0, i32 0, !dbg !8773
  call void @_ZNSt7__cxx1110_List_baseIPN5mongo10NotifyableESaIS3_EE10_List_implD2Ev(ptr noundef nonnull align 8 dereferenceable(24) %4) #1, !dbg !8773
  ret void, !dbg !8774
}

; Function Attrs: mustprogress noinline nounwind optnone uwtable
define linkonce_odr dso_local void @_ZNSt7__cxx1110_List_baseIPN5mongo10NotifyableESaIS3_EE8_M_clearEv(ptr noundef nonnull align 8 dereferenceable(24) %0) #8 comdat align 2 personality ptr @__gxx_personality_v0 !dbg !2275 {
  %2 = alloca ptr, align 8
  %3 = alloca ptr, align 8
  %4 = alloca ptr, align 8
  %5 = alloca ptr, align 8
  store ptr %0, ptr %2, align 8
  call void @llvm.dbg.declare(metadata ptr %2, metadata !8775, metadata !DIExpression()), !dbg !8776
  %6 = load ptr, ptr %2, align 8
  call void @llvm.dbg.declare(metadata ptr %3, metadata !8777, metadata !DIExpression()), !dbg !8778
  %7 = getelementptr inbounds %"class.std::__cxx11::_List_base", ptr %6, i32 0, i32 0, !dbg !8779
  %8 = getelementptr inbounds %"struct.std::__cxx11::_List_base<mongo::Notifyable *, std::allocator<mongo::Notifyable *>>::_List_impl", ptr %7, i32 0, i32 0, !dbg !8780
  %9 = getelementptr inbounds %"struct.std::__detail::_List_node_base", ptr %8, i32 0, i32 0, !dbg !8781
  %10 = load ptr, ptr %9, align 8, !dbg !8781
  store ptr %10, ptr %3, align 8, !dbg !8778
  br label %11, !dbg !8782

11:                                               ; preds = %23, %1
  %12 = load ptr, ptr %3, align 8, !dbg !8783
  %13 = getelementptr inbounds %"class.std::__cxx11::_List_base", ptr %6, i32 0, i32 0, !dbg !8784
  %14 = getelementptr inbounds %"struct.std::__cxx11::_List_base<mongo::Notifyable *, std::allocator<mongo::Notifyable *>>::_List_impl", ptr %13, i32 0, i32 0, !dbg !8785
  %15 = icmp ne ptr %12, %14, !dbg !8786
  br i1 %15, label %16, label %27, !dbg !8782

16:                                               ; preds = %11
  call void @llvm.dbg.declare(metadata ptr %4, metadata !8787, metadata !DIExpression()), !dbg !8789
  %17 = load ptr, ptr %3, align 8, !dbg !8790
  store ptr %17, ptr %4, align 8, !dbg !8789
  %18 = load ptr, ptr %4, align 8, !dbg !8791
  %19 = getelementptr inbounds %"struct.std::__detail::_List_node_base", ptr %18, i32 0, i32 0, !dbg !8792
  %20 = load ptr, ptr %19, align 8, !dbg !8792
  store ptr %20, ptr %3, align 8, !dbg !8793
  call void @llvm.dbg.declare(metadata ptr %5, metadata !8794, metadata !DIExpression()), !dbg !8795
  %21 = load ptr, ptr %4, align 8, !dbg !8796
  %22 = invoke noundef ptr @_ZNSt10_List_nodeIPN5mongo10NotifyableEE9_M_valptrEv(ptr noundef nonnull align 8 dereferenceable(24) %21)
          to label %23 unwind label %28, !dbg !8797

23:                                               ; preds = %16
  store ptr %22, ptr %5, align 8, !dbg !8795
  %24 = call noundef nonnull align 1 dereferenceable(1) ptr @_ZNSt7__cxx1110_List_baseIPN5mongo10NotifyableESaIS3_EE21_M_get_Node_allocatorEv(ptr noundef nonnull align 8 dereferenceable(24) %6) #1, !dbg !8798
  %25 = load ptr, ptr %5, align 8, !dbg !8799
  call void @_ZNSt16allocator_traitsISaISt10_List_nodeIPN5mongo10NotifyableEEEE7destroyIS3_EEvRS5_PT_(ptr noundef nonnull align 1 dereferenceable(1) %24, ptr noundef %25) #1, !dbg !8800
  %26 = load ptr, ptr %4, align 8, !dbg !8801
  call void @_ZNSt7__cxx1110_List_baseIPN5mongo10NotifyableESaIS3_EE11_M_put_nodeEPSt10_List_nodeIS3_E(ptr noundef nonnull align 8 dereferenceable(24) %6, ptr noundef %26) #1, !dbg !8802
  br label %11, !dbg !8782, !llvm.loop !8803

27:                                               ; preds = %11
  ret void, !dbg !8805

28:                                               ; preds = %16
  %29 = landingpad { ptr, i32 }
          catch ptr null, !dbg !8797
  %30 = extractvalue { ptr, i32 } %29, 0, !dbg !8797
  call void @__clang_call_terminate(ptr %30) #19, !dbg !8797
  unreachable, !dbg !8797
}

; Function Attrs: noinline nounwind optnone uwtable
define linkonce_odr dso_local void @_ZNSt7__cxx1110_List_baseIPN5mongo10NotifyableESaIS3_EE10_List_implD2Ev(ptr noundef nonnull align 8 dereferenceable(24) %0) unnamed_addr #2 comdat align 2 !dbg !8806 {
  %2 = alloca ptr, align 8
  store ptr %0, ptr %2, align 8
  call void @llvm.dbg.declare(metadata ptr %2, metadata !8812, metadata !DIExpression()), !dbg !8814
  %3 = load ptr, ptr %2, align 8
  call void @_ZNSaISt10_List_nodeIPN5mongo10NotifyableEEED2Ev(ptr noundef nonnull align 1 dereferenceable(1) %3) #1, !dbg !8815
  ret void, !dbg !8817
}

; Function Attrs: mustprogress noinline nounwind optnone uwtable
define linkonce_odr dso_local noundef ptr @_ZNSt10_List_nodeIPN5mongo10NotifyableEE9_M_valptrEv(ptr noundef nonnull align 8 dereferenceable(24) %0) #8 comdat align 2 !dbg !8818 {
  %2 = alloca ptr, align 8
  store ptr %0, ptr %2, align 8
  call void @llvm.dbg.declare(metadata ptr %2, metadata !8819, metadata !DIExpression()), !dbg !8821
  %3 = load ptr, ptr %2, align 8
  %4 = getelementptr inbounds %"struct.std::_List_node", ptr %3, i32 0, i32 1, !dbg !8822
  %5 = call noundef ptr @_ZN9__gnu_cxx16__aligned_membufIPN5mongo10NotifyableEE6_M_ptrEv(ptr noundef nonnull align 8 dereferenceable(8) %4) #1, !dbg !8823
  ret ptr %5, !dbg !8824
}

; Function Attrs: mustprogress noinline nounwind optnone uwtable
define linkonce_odr dso_local void @_ZNSt16allocator_traitsISaISt10_List_nodeIPN5mongo10NotifyableEEEE7destroyIS3_EEvRS5_PT_(ptr noundef nonnull align 1 dereferenceable(1) %0, ptr noundef %1) #8 comdat align 2 !dbg !8825 {
  %3 = alloca ptr, align 8
  %4 = alloca ptr, align 8
  store ptr %0, ptr %3, align 8
  call void @llvm.dbg.declare(metadata ptr %3, metadata !8857, metadata !DIExpression()), !dbg !8858
  store ptr %1, ptr %4, align 8
  call void @llvm.dbg.declare(metadata ptr %4, metadata !8859, metadata !DIExpression()), !dbg !8860
  %5 = load ptr, ptr %3, align 8, !dbg !8861
  %6 = load ptr, ptr %4, align 8, !dbg !8862
  call void @_ZN9__gnu_cxx13new_allocatorISt10_List_nodeIPN5mongo10NotifyableEEE7destroyIS4_EEvPT_(ptr noundef nonnull align 1 dereferenceable(1) %5, ptr noundef %6) #1, !dbg !8863
  ret void, !dbg !8864
}

; Function Attrs: mustprogress noinline nounwind optnone uwtable
define linkonce_odr dso_local noundef nonnull align 1 dereferenceable(1) ptr @_ZNSt7__cxx1110_List_baseIPN5mongo10NotifyableESaIS3_EE21_M_get_Node_allocatorEv(ptr noundef nonnull align 8 dereferenceable(24) %0) #8 comdat align 2 !dbg !8865 {
  %2 = alloca ptr, align 8
  store ptr %0, ptr %2, align 8
  call void @llvm.dbg.declare(metadata ptr %2, metadata !8921, metadata !DIExpression()), !dbg !8922
  %3 = load ptr, ptr %2, align 8
  %4 = getelementptr inbounds %"class.std::__cxx11::_List_base", ptr %3, i32 0, i32 0, !dbg !8923
  ret ptr %4, !dbg !8924
}

; Function Attrs: mustprogress noinline nounwind optnone uwtable
define linkonce_odr dso_local void @_ZNSt7__cxx1110_List_baseIPN5mongo10NotifyableESaIS3_EE11_M_put_nodeEPSt10_List_nodeIS3_E(ptr noundef nonnull align 8 dereferenceable(24) %0, ptr noundef %1) #8 comdat align 2 personality ptr @__gxx_personality_v0 !dbg !8925 {
  %3 = alloca ptr, align 8
  %4 = alloca ptr, align 8
  store ptr %0, ptr %3, align 8
  call void @llvm.dbg.declare(metadata ptr %3, metadata !8949, metadata !DIExpression()), !dbg !8950
  store ptr %1, ptr %4, align 8
  call void @llvm.dbg.declare(metadata ptr %4, metadata !8951, metadata !DIExpression()), !dbg !8952
  %5 = load ptr, ptr %3, align 8
  %6 = getelementptr inbounds %"class.std::__cxx11::_List_base", ptr %5, i32 0, i32 0, !dbg !8953
  %7 = load ptr, ptr %4, align 8, !dbg !8954
  invoke void @_ZNSt16allocator_traitsISaISt10_List_nodeIPN5mongo10NotifyableEEEE10deallocateERS5_PS4_m(ptr noundef nonnull align 1 dereferenceable(1) %6, ptr noundef %7, i64 noundef 1)
          to label %8 unwind label %9, !dbg !8955

8:                                                ; preds = %2
  ret void, !dbg !8956

9:                                                ; preds = %2
  %10 = landingpad { ptr, i32 }
          catch ptr null, !dbg !8955
  %11 = extractvalue { ptr, i32 } %10, 0, !dbg !8955
  call void @__clang_call_terminate(ptr %11) #19, !dbg !8955
  unreachable, !dbg !8955
}

; Function Attrs: mustprogress noinline nounwind optnone uwtable
define linkonce_odr dso_local noundef ptr @_ZN9__gnu_cxx16__aligned_membufIPN5mongo10NotifyableEE6_M_ptrEv(ptr noundef nonnull align 8 dereferenceable(8) %0) #8 comdat align 2 !dbg !8957 {
  %2 = alloca ptr, align 8
  store ptr %0, ptr %2, align 8
  call void @llvm.dbg.declare(metadata ptr %2, metadata !8958, metadata !DIExpression()), !dbg !8960
  %3 = load ptr, ptr %2, align 8
  %4 = call noundef ptr @_ZN9__gnu_cxx16__aligned_membufIPN5mongo10NotifyableEE7_M_addrEv(ptr noundef nonnull align 8 dereferenceable(8) %3) #1, !dbg !8961
  ret ptr %4, !dbg !8962
}

; Function Attrs: mustprogress noinline nounwind optnone uwtable
define linkonce_odr dso_local noundef ptr @_ZN9__gnu_cxx16__aligned_membufIPN5mongo10NotifyableEE7_M_addrEv(ptr noundef nonnull align 8 dereferenceable(8) %0) #8 comdat align 2 !dbg !8963 {
  %2 = alloca ptr, align 8
  store ptr %0, ptr %2, align 8
  call void @llvm.dbg.declare(metadata ptr %2, metadata !8964, metadata !DIExpression()), !dbg !8965
  %3 = load ptr, ptr %2, align 8
  %4 = getelementptr inbounds %"struct.__gnu_cxx::__aligned_membuf", ptr %3, i32 0, i32 0, !dbg !8966
  ret ptr %4, !dbg !8967
}

; Function Attrs: mustprogress noinline nounwind optnone uwtable
define linkonce_odr dso_local void @_ZN9__gnu_cxx13new_allocatorISt10_List_nodeIPN5mongo10NotifyableEEE7destroyIS4_EEvPT_(ptr noundef nonnull align 1 dereferenceable(1) %0, ptr noundef %1) #8 comdat align 2 !dbg !8968 {
  %3 = alloca ptr, align 8
  %4 = alloca ptr, align 8
  store ptr %0, ptr %3, align 8
  call void @llvm.dbg.declare(metadata ptr %3, metadata !8974, metadata !DIExpression()), !dbg !8976
  store ptr %1, ptr %4, align 8
  call void @llvm.dbg.declare(metadata ptr %4, metadata !8977, metadata !DIExpression()), !dbg !8978
  %5 = load ptr, ptr %3, align 8
  %6 = load ptr, ptr %4, align 8, !dbg !8979
  ret void, !dbg !8980
}

; Function Attrs: mustprogress noinline optnone uwtable
define linkonce_odr dso_local void @_ZNSt16allocator_traitsISaISt10_List_nodeIPN5mongo10NotifyableEEEE10deallocateERS5_PS4_m(ptr noundef nonnull align 1 dereferenceable(1) %0, ptr noundef %1, i64 noundef %2) #6 comdat align 2 !dbg !8981 {
  %4 = alloca ptr, align 8
  %5 = alloca ptr, align 8
  %6 = alloca i64, align 8
  store ptr %0, ptr %4, align 8
  call void @llvm.dbg.declare(metadata ptr %4, metadata !8982, metadata !DIExpression()), !dbg !8983
  store ptr %1, ptr %5, align 8
  call void @llvm.dbg.declare(metadata ptr %5, metadata !8984, metadata !DIExpression()), !dbg !8985
  store i64 %2, ptr %6, align 8
  call void @llvm.dbg.declare(metadata ptr %6, metadata !8986, metadata !DIExpression()), !dbg !8987
  %7 = load ptr, ptr %4, align 8, !dbg !8988
  %8 = load ptr, ptr %5, align 8, !dbg !8989
  %9 = load i64, ptr %6, align 8, !dbg !8990
  call void @_ZN9__gnu_cxx13new_allocatorISt10_List_nodeIPN5mongo10NotifyableEEE10deallocateEPS5_m(ptr noundef nonnull align 1 dereferenceable(1) %7, ptr noundef %8, i64 noundef %9), !dbg !8991
  ret void, !dbg !8992
}

; Function Attrs: mustprogress noinline nounwind optnone uwtable
define linkonce_odr dso_local void @_ZN9__gnu_cxx13new_allocatorISt10_List_nodeIPN5mongo10NotifyableEEE10deallocateEPS5_m(ptr noundef nonnull align 1 dereferenceable(1) %0, ptr noundef %1, i64 noundef %2) #8 comdat align 2 !dbg !8993 {
  %4 = alloca ptr, align 8
  %5 = alloca ptr, align 8
  %6 = alloca i64, align 8
  store ptr %0, ptr %4, align 8
  call void @llvm.dbg.declare(metadata ptr %4, metadata !8997, metadata !DIExpression()), !dbg !8998
  store ptr %1, ptr %5, align 8
  call void @llvm.dbg.declare(metadata ptr %5, metadata !8999, metadata !DIExpression()), !dbg !9000
  store i64 %2, ptr %6, align 8
  call void @llvm.dbg.declare(metadata ptr %6, metadata !9001, metadata !DIExpression()), !dbg !9002
  %7 = load ptr, ptr %4, align 8
  %8 = load ptr, ptr %5, align 8, !dbg !9003
  call void @_ZdlPv(ptr noundef %8) #1, !dbg !9004
  ret void, !dbg !9005
}

; Function Attrs: nobuiltin nounwind
declare void @_ZdlPv(ptr noundef) #14

; Function Attrs: noinline nounwind optnone uwtable
define linkonce_odr dso_local void @_ZNSaISt10_List_nodeIPN5mongo10NotifyableEEED2Ev(ptr noundef nonnull align 1 dereferenceable(1) %0) unnamed_addr #2 comdat align 2 !dbg !9006 {
  %2 = alloca ptr, align 8
  store ptr %0, ptr %2, align 8
  call void @llvm.dbg.declare(metadata ptr %2, metadata !9011, metadata !DIExpression()), !dbg !9013
  %3 = load ptr, ptr %2, align 8
  call void @_ZN9__gnu_cxx13new_allocatorISt10_List_nodeIPN5mongo10NotifyableEEED2Ev(ptr noundef nonnull align 1 dereferenceable(1) %3) #1, !dbg !9014
  ret void, !dbg !9016
}

; Function Attrs: noinline nounwind optnone uwtable
define linkonce_odr dso_local void @_ZN9__gnu_cxx13new_allocatorISt10_List_nodeIPN5mongo10NotifyableEEED2Ev(ptr noundef nonnull align 1 dereferenceable(1) %0) unnamed_addr #2 comdat align 2 !dbg !9017 {
  %2 = alloca ptr, align 8
  store ptr %0, ptr %2, align 8
  call void @llvm.dbg.declare(metadata ptr %2, metadata !9021, metadata !DIExpression()), !dbg !9022
  %3 = load ptr, ptr %2, align 8
  ret void, !dbg !9023
}

; Function Attrs: noinline nounwind optnone uwtable
define linkonce_odr dso_local void @_ZNSt10shared_ptrISt5mutexED2Ev(ptr noundef nonnull align 8 dereferenceable(16) %0) unnamed_addr #2 comdat align 2 !dbg !9024 {
  %2 = alloca ptr, align 8
  store ptr %0, ptr %2, align 8
  call void @llvm.dbg.declare(metadata ptr %2, metadata !9026, metadata !DIExpression()), !dbg !9028
  %3 = load ptr, ptr %2, align 8
  call void @_ZNSt12__shared_ptrISt5mutexLN9__gnu_cxx12_Lock_policyE2EED2Ev(ptr noundef nonnull align 8 dereferenceable(16) %3) #1, !dbg !9029
  ret void, !dbg !9031
}

; Function Attrs: nounwind
declare void @_ZNSt18condition_variableD1Ev(ptr noundef nonnull align 8 dereferenceable(48)) unnamed_addr #4

; Function Attrs: noinline nounwind optnone uwtable
define linkonce_odr dso_local void @_ZNSt12__shared_ptrISt5mutexLN9__gnu_cxx12_Lock_policyE2EED2Ev(ptr noundef nonnull align 8 dereferenceable(16) %0) unnamed_addr #2 comdat align 2 !dbg !9032 {
  %2 = alloca ptr, align 8
  store ptr %0, ptr %2, align 8
  call void @llvm.dbg.declare(metadata ptr %2, metadata !9033, metadata !DIExpression()), !dbg !9035
  %3 = load ptr, ptr %2, align 8
  %4 = getelementptr inbounds %"class.std::__shared_ptr", ptr %3, i32 0, i32 1, !dbg !9036
  call void @_ZNSt14__shared_countILN9__gnu_cxx12_Lock_policyE2EED2Ev(ptr noundef nonnull align 8 dereferenceable(8) %4) #1, !dbg !9036
  ret void, !dbg !9038
}

; Function Attrs: noinline nounwind optnone uwtable
define linkonce_odr dso_local void @_ZNSt14__shared_countILN9__gnu_cxx12_Lock_policyE2EED2Ev(ptr noundef nonnull align 8 dereferenceable(8) %0) unnamed_addr #2 comdat align 2 !dbg !9039 {
  %2 = alloca ptr, align 8
  store ptr %0, ptr %2, align 8
  call void @llvm.dbg.declare(metadata ptr %2, metadata !9040, metadata !DIExpression()), !dbg !9042
  %3 = load ptr, ptr %2, align 8
  %4 = getelementptr inbounds %"class.std::__shared_count", ptr %3, i32 0, i32 0, !dbg !9043
  %5 = load ptr, ptr %4, align 8, !dbg !9043
  %6 = icmp ne ptr %5, null, !dbg !9046
  br i1 %6, label %7, label %10, !dbg !9047

7:                                                ; preds = %1
  %8 = getelementptr inbounds %"class.std::__shared_count", ptr %3, i32 0, i32 0, !dbg !9048
  %9 = load ptr, ptr %8, align 8, !dbg !9048
  call void @_ZNSt16_Sp_counted_baseILN9__gnu_cxx12_Lock_policyE2EE10_M_releaseEv(ptr noundef nonnull align 8 dereferenceable(16) %9) #1, !dbg !9049
  br label %10, !dbg !9048

10:                                               ; preds = %7, %1
  ret void, !dbg !9050
}

; Function Attrs: mustprogress noinline nounwind optnone uwtable
define linkonce_odr dso_local void @_ZNSt16_Sp_counted_baseILN9__gnu_cxx12_Lock_policyE2EE10_M_releaseEv(ptr noundef nonnull align 8 dereferenceable(16) %0) #8 comdat align 2 personality ptr @__gxx_personality_v0 !dbg !9051 {
  %2 = alloca ptr, align 8
  %3 = alloca i32, align 4
  %4 = alloca i32, align 4
  %5 = alloca i32, align 4
  %6 = alloca ptr, align 8
  %7 = alloca i32, align 4
  %8 = alloca i32, align 4
  %9 = alloca i32, align 4
  %10 = alloca ptr, align 8
  %11 = alloca i32, align 4
  %12 = alloca i32, align 4
  %13 = alloca ptr, align 8
  %14 = alloca i32, align 4
  %15 = alloca i32, align 4
  %16 = alloca i32, align 4
  %17 = alloca ptr, align 8
  %18 = alloca i32, align 4
  %19 = alloca i32, align 4
  %20 = alloca ptr, align 8
  %21 = alloca i32, align 4
  %22 = alloca ptr, align 8
  store ptr %0, ptr %22, align 8
  call void @llvm.dbg.declare(metadata ptr %22, metadata !9056, metadata !DIExpression()), !dbg !9057
  %23 = load ptr, ptr %22, align 8
  %24 = getelementptr inbounds %"class.std::_Sp_counted_base", ptr %23, i32 0, i32 1, !dbg !9058
  store ptr %24, ptr %17, align 8
  call void @llvm.dbg.declare(metadata ptr %17, metadata !9060, metadata !DIExpression()), !dbg !9068
  store i32 -1, ptr %18, align 4
  call void @llvm.dbg.declare(metadata ptr %18, metadata !9070, metadata !DIExpression()), !dbg !9071
  %25 = load i8, ptr @__libc_single_threaded, align 1, !dbg !9072
  %26 = icmp ne i8 %25, 0, !dbg !9072
  br i1 %26, label %27, label %37, !dbg !9076

27:                                               ; preds = %1
  %28 = load ptr, ptr %17, align 8, !dbg !9077
  %29 = load i32, ptr %18, align 4, !dbg !9078
  store ptr %28, ptr %13, align 8
  call void @llvm.dbg.declare(metadata ptr %13, metadata !9079, metadata !DIExpression()), !dbg !9081
  store i32 %29, ptr %14, align 4
  call void @llvm.dbg.declare(metadata ptr %14, metadata !9083, metadata !DIExpression()), !dbg !9084
  call void @llvm.dbg.declare(metadata ptr %15, metadata !9085, metadata !DIExpression()), !dbg !9086
  %30 = load ptr, ptr %13, align 8, !dbg !9087
  %31 = load i32, ptr %30, align 4, !dbg !9088
  store i32 %31, ptr %15, align 4, !dbg !9086
  %32 = load i32, ptr %14, align 4, !dbg !9089
  %33 = load ptr, ptr %13, align 8, !dbg !9090
  %34 = load i32, ptr %33, align 4, !dbg !9091
  %35 = add nsw i32 %34, %32, !dbg !9091
  store i32 %35, ptr %33, align 4, !dbg !9091
  %36 = load i32, ptr %15, align 4, !dbg !9092
  store i32 %36, ptr %16, align 4, !dbg !9093
  br label %45, !dbg !9093

37:                                               ; preds = %1
  %38 = load ptr, ptr %17, align 8, !dbg !9094
  %39 = load i32, ptr %18, align 4, !dbg !9095
  store ptr %38, ptr %6, align 8
  call void @llvm.dbg.declare(metadata ptr %6, metadata !9096, metadata !DIExpression()), !dbg !9102
  store i32 %39, ptr %7, align 4
  call void @llvm.dbg.declare(metadata ptr %7, metadata !9104, metadata !DIExpression()), !dbg !9105
  %40 = load ptr, ptr %6, align 8, !dbg !9106
  %41 = load i32, ptr %7, align 4, !dbg !9107
  store i32 %41, ptr %8, align 4, !dbg !9108
  %42 = load i32, ptr %8, align 4, !dbg !9108
  %43 = atomicrmw volatile add ptr %40, i32 %42 acq_rel, align 4, !dbg !9108
  store i32 %43, ptr %9, align 4, !dbg !9108
  %44 = load i32, ptr %9, align 4, !dbg !9108
  store i32 %44, ptr %16, align 4, !dbg !9109
  br label %45, !dbg !9109

45:                                               ; preds = %27, %37
  %46 = load i32, ptr %16, align 4, !dbg !9110
  br label %47, !dbg !9110

47:                                               ; preds = %45
  %48 = icmp eq i32 %46, 1, !dbg !9111
  br i1 %48, label %49, label %83, !dbg !9112

49:                                               ; preds = %47
  %50 = load ptr, ptr %23, align 8, !dbg !9113
  %51 = getelementptr inbounds ptr, ptr %50, i64 2, !dbg !9113
  %52 = load ptr, ptr %51, align 8, !dbg !9113
  call void %52(ptr noundef nonnull align 8 dereferenceable(16) %23) #1, !dbg !9113
  %53 = getelementptr inbounds %"class.std::_Sp_counted_base", ptr %23, i32 0, i32 2, !dbg !9115
  store ptr %53, ptr %20, align 8
  call void @llvm.dbg.declare(metadata ptr %20, metadata !9060, metadata !DIExpression()), !dbg !9117
  store i32 -1, ptr %21, align 4
  call void @llvm.dbg.declare(metadata ptr %21, metadata !9070, metadata !DIExpression()), !dbg !9119
  %54 = load i8, ptr @__libc_single_threaded, align 1, !dbg !9120
  %55 = icmp ne i8 %54, 0, !dbg !9120
  br i1 %55, label %56, label %66, !dbg !9122

56:                                               ; preds = %49
  %57 = load ptr, ptr %20, align 8, !dbg !9123
  %58 = load i32, ptr %21, align 4, !dbg !9124
  store ptr %57, ptr %10, align 8
  call void @llvm.dbg.declare(metadata ptr %10, metadata !9079, metadata !DIExpression()), !dbg !9125
  store i32 %58, ptr %11, align 4
  call void @llvm.dbg.declare(metadata ptr %11, metadata !9083, metadata !DIExpression()), !dbg !9127
  call void @llvm.dbg.declare(metadata ptr %12, metadata !9085, metadata !DIExpression()), !dbg !9128
  %59 = load ptr, ptr %10, align 8, !dbg !9129
  %60 = load i32, ptr %59, align 4, !dbg !9130
  store i32 %60, ptr %12, align 4, !dbg !9128
  %61 = load i32, ptr %11, align 4, !dbg !9131
  %62 = load ptr, ptr %10, align 8, !dbg !9132
  %63 = load i32, ptr %62, align 4, !dbg !9133
  %64 = add nsw i32 %63, %61, !dbg !9133
  store i32 %64, ptr %62, align 4, !dbg !9133
  %65 = load i32, ptr %12, align 4, !dbg !9134
  store i32 %65, ptr %19, align 4, !dbg !9135
  br label %74, !dbg !9135

66:                                               ; preds = %49
  %67 = load ptr, ptr %20, align 8, !dbg !9136
  %68 = load i32, ptr %21, align 4, !dbg !9137
  store ptr %67, ptr %2, align 8
  call void @llvm.dbg.declare(metadata ptr %2, metadata !9096, metadata !DIExpression()), !dbg !9138
  store i32 %68, ptr %3, align 4
  call void @llvm.dbg.declare(metadata ptr %3, metadata !9104, metadata !DIExpression()), !dbg !9140
  %69 = load ptr, ptr %2, align 8, !dbg !9141
  %70 = load i32, ptr %3, align 4, !dbg !9142
  store i32 %70, ptr %4, align 4, !dbg !9143
  %71 = load i32, ptr %4, align 4, !dbg !9143
  %72 = atomicrmw volatile add ptr %69, i32 %71 acq_rel, align 4, !dbg !9143
  store i32 %72, ptr %5, align 4, !dbg !9143
  %73 = load i32, ptr %5, align 4, !dbg !9143
  store i32 %73, ptr %19, align 4, !dbg !9144
  br label %74, !dbg !9144

74:                                               ; preds = %56, %66
  %75 = load i32, ptr %19, align 4, !dbg !9145
  br label %76, !dbg !9145

76:                                               ; preds = %74
  %77 = icmp eq i32 %75, 1, !dbg !9146
  br i1 %77, label %78, label %82, !dbg !9147

78:                                               ; preds = %76
  %79 = load ptr, ptr %23, align 8, !dbg !9148
  %80 = getelementptr inbounds ptr, ptr %79, i64 3, !dbg !9148
  %81 = load ptr, ptr %80, align 8, !dbg !9148
  call void %81(ptr noundef nonnull align 8 dereferenceable(16) %23) #1, !dbg !9148
  br label %82, !dbg !9150

82:                                               ; preds = %78, %76
  br label %83, !dbg !9151

83:                                               ; preds = %82, %47
  ret void, !dbg !9152

84:                                               ; No predecessors!
  %85 = landingpad { ptr, i32 }
          catch ptr null, !dbg !9153
  %86 = extractvalue { ptr, i32 } %85, 0, !dbg !9153
  call void @__clang_call_terminate(ptr %86) #19, !dbg !9153
  unreachable, !dbg !9153
}

; Function Attrs: nounwind
declare void @_ZN5mongo8unittest4TestD2Ev(ptr noundef nonnull align 8 dereferenceable(8)) unnamed_addr #4

; Function Attrs: mustprogress noinline optnone uwtable
define linkonce_odr dso_local void @_ZN5mongo23ThreadSafetyContextTest12resetContextEv(ptr noundef nonnull align 8 dereferenceable(8) %0) #6 comdat align 2 !dbg !9154 {
  %2 = alloca ptr, align 8
  %3 = alloca ptr, align 8
  store ptr %0, ptr %2, align 8
  call void @llvm.dbg.declare(metadata ptr %2, metadata !9155, metadata !DIExpression()), !dbg !9156
  %4 = load ptr, ptr %2, align 8
  call void @llvm.dbg.declare(metadata ptr %3, metadata !9157, metadata !DIExpression()), !dbg !9158
  %5 = call noundef ptr @_ZN5mongo19ThreadSafetyContext22getThreadSafetyContextEv() #1, !dbg !9159
  store ptr %5, ptr %3, align 8, !dbg !9158
  %6 = load ptr, ptr %3, align 8, !dbg !9160
  %7 = getelementptr inbounds %"class.mongo::ThreadSafetyContext", ptr %6, i32 0, i32 0, !dbg !9161
  call void @_ZN5mongo18atomic_word_detail4BaseIbLNS0_8CategoryE0EE5storeEb(ptr noundef nonnull align 1 dereferenceable(1) %7, i1 noundef zeroext true), !dbg !9162
  %8 = load ptr, ptr %3, align 8, !dbg !9163
  %9 = getelementptr inbounds %"class.mongo::ThreadSafetyContext", ptr %8, i32 0, i32 1, !dbg !9164
  call void @_ZN5mongo18atomic_word_detail4BaseIbLNS0_8CategoryE0EE5storeEb(ptr noundef nonnull align 1 dereferenceable(1) %9, i1 noundef zeroext true), !dbg !9165
  ret void, !dbg !9166
}

; Function Attrs: mustprogress noinline nounwind optnone uwtable
define linkonce_odr dso_local void @_ZN5mongo18atomic_word_detail4BaseIbLNS0_8CategoryE0EE5storeEb(ptr noundef nonnull align 1 dereferenceable(1) %0, i1 noundef zeroext %1) #8 comdat align 2 !dbg !9167 {
  %3 = alloca ptr, align 8
  %4 = alloca i8, align 1
  store ptr %0, ptr %3, align 8
  call void @llvm.dbg.declare(metadata ptr %3, metadata !9168, metadata !DIExpression()), !dbg !9170
  %5 = zext i1 %1 to i8
  store i8 %5, ptr %4, align 1
  call void @llvm.dbg.declare(metadata ptr %4, metadata !9171, metadata !DIExpression()), !dbg !9172
  %6 = load ptr, ptr %3, align 8
  %7 = getelementptr inbounds %"class.mongo::atomic_word_detail::Base", ptr %6, i32 0, i32 0, !dbg !9173
  %8 = load i8, ptr %4, align 1, !dbg !9174
  %9 = trunc i8 %8 to i1, !dbg !9174
  call void @_ZNSt6atomicIbE5storeEbSt12memory_order(ptr noundef nonnull align 1 dereferenceable(1) %7, i1 noundef zeroext %9, i32 noundef 5) #1, !dbg !9175
  ret void, !dbg !9176
}

; Function Attrs: mustprogress noinline nounwind optnone uwtable
define linkonce_odr dso_local void @_ZNSt6atomicIbE5storeEbSt12memory_order(ptr noundef nonnull align 1 dereferenceable(1) %0, i1 noundef zeroext %1, i32 noundef %2) #8 comdat align 2 personality ptr @__gxx_personality_v0 !dbg !9177 {
  %4 = alloca ptr, align 8
  %5 = alloca i8, align 1
  %6 = alloca i32, align 4
  %7 = alloca i32, align 4
  %8 = alloca i8, align 1
  %9 = alloca ptr, align 8
  %10 = alloca i8, align 1
  %11 = alloca i32, align 4
  store ptr %0, ptr %9, align 8
  call void @llvm.dbg.declare(metadata ptr %9, metadata !9178, metadata !DIExpression()), !dbg !9180
  %12 = zext i1 %1 to i8
  store i8 %12, ptr %10, align 1
  call void @llvm.dbg.declare(metadata ptr %10, metadata !9181, metadata !DIExpression()), !dbg !9182
  store i32 %2, ptr %11, align 4
  call void @llvm.dbg.declare(metadata ptr %11, metadata !9183, metadata !DIExpression()), !dbg !9184
  %13 = load ptr, ptr %9, align 8
  %14 = getelementptr inbounds %"struct.std::atomic", ptr %13, i32 0, i32 0, !dbg !9185
  %15 = load i8, ptr %10, align 1, !dbg !9186
  %16 = trunc i8 %15 to i1, !dbg !9186
  %17 = load i32, ptr %11, align 4, !dbg !9187
  store ptr %14, ptr %4, align 8
  call void @llvm.dbg.declare(metadata ptr %4, metadata !9188, metadata !DIExpression()), !dbg !9191
  %18 = zext i1 %16 to i8
  store i8 %18, ptr %5, align 1
  call void @llvm.dbg.declare(metadata ptr %5, metadata !9193, metadata !DIExpression()), !dbg !9194
  store i32 %17, ptr %6, align 4
  call void @llvm.dbg.declare(metadata ptr %6, metadata !9195, metadata !DIExpression()), !dbg !9196
  %19 = load ptr, ptr %4, align 8
  call void @llvm.dbg.declare(metadata ptr %7, metadata !9197, metadata !DIExpression()), !dbg !9198
  %20 = load i32, ptr %6, align 4, !dbg !9199
  %21 = invoke noundef i32 @_ZStanSt12memory_orderSt23__memory_order_modifier(i32 noundef %20, i32 noundef 65535)
          to label %22 unwind label %33, !dbg !9200

22:                                               ; preds = %3
  store i32 %21, ptr %7, align 4, !dbg !9198
  %23 = load i32, ptr %6, align 4, !dbg !9201
  %24 = load i8, ptr %5, align 1, !dbg !9202
  %25 = trunc i8 %24 to i1, !dbg !9202
  %26 = zext i1 %25 to i8, !dbg !9203
  store i8 %26, ptr %8, align 1, !dbg !9203
  switch i32 %23, label %27 [
    i32 3, label %29
    i32 5, label %31
  ], !dbg !9203

27:                                               ; preds = %22
  %28 = load i8, ptr %8, align 1, !dbg !9203
  store atomic i8 %28, ptr %19 monotonic, align 1, !dbg !9203
  br label %36, !dbg !9203

29:                                               ; preds = %22
  %30 = load i8, ptr %8, align 1, !dbg !9203
  store atomic i8 %30, ptr %19 release, align 1, !dbg !9203
  br label %36, !dbg !9203

31:                                               ; preds = %22
  %32 = load i8, ptr %8, align 1, !dbg !9203
  store atomic i8 %32, ptr %19 seq_cst, align 1, !dbg !9203
  br label %36, !dbg !9203

33:                                               ; preds = %3
  %34 = landingpad { ptr, i32 }
          catch ptr null, !dbg !9200
  %35 = extractvalue { ptr, i32 } %34, 0, !dbg !9200
  call void @__clang_call_terminate(ptr %35) #19, !dbg !9200
  unreachable, !dbg !9200

36:                                               ; preds = %27, %29, %31
  ret void, !dbg !9204
}

; Function Attrs: mustprogress noinline nounwind optnone uwtable
define linkonce_odr dso_local noundef i32 @_ZStanSt12memory_orderSt23__memory_order_modifier(i32 noundef %0, i32 noundef %1) #8 comdat !dbg !9205 {
  %3 = alloca i32, align 4
  %4 = alloca i32, align 4
  store i32 %0, ptr %3, align 4
  call void @llvm.dbg.declare(metadata ptr %3, metadata !9208, metadata !DIExpression()), !dbg !9209
  store i32 %1, ptr %4, align 4
  call void @llvm.dbg.declare(metadata ptr %4, metadata !9210, metadata !DIExpression()), !dbg !9211
  %5 = load i32, ptr %3, align 4, !dbg !9212
  %6 = load i32, ptr %4, align 4, !dbg !9213
  %7 = and i32 %5, %6, !dbg !9214
  ret i32 %7, !dbg !9215
}

declare noundef nonnull align 8 dereferenceable(72) ptr @_ZN5mongo8unittest5Suite8getSuiteENS_10StringDataE(ptr, i64) #3

declare void @_ZN5mongo8unittest5Suite3addENSt7__cxx1112basic_stringIcSt11char_traitsIcESaIcEEES7_St8functionIFvvEE(ptr noundef nonnull align 8 dereferenceable(72), ptr noundef, ptr noundef, ptr noundef) #3

; Function Attrs: mustprogress noinline optnone uwtable
define linkonce_odr dso_local void @_ZNK5mongo10StringDatacvNSt7__cxx1112basic_stringIcSt11char_traitsIcESaIcEEEEv(ptr noalias sret(%"class.std::__cxx11::basic_string") align 8 %0, ptr noundef nonnull align 8 dereferenceable(16) %1) #6 comdat align 2 !dbg !9216 {
  %3 = alloca ptr, align 8
  %4 = alloca ptr, align 8
  store ptr %0, ptr %3, align 8
  store ptr %1, ptr %4, align 8
  call void @llvm.dbg.declare(metadata ptr %4, metadata !9217, metadata !DIExpression()), !dbg !9219
  %5 = load ptr, ptr %4, align 8
  call void @_ZNK5mongo10StringData8toStringB5cxx11Ev(ptr sret(%"class.std::__cxx11::basic_string") align 8 %0, ptr noundef nonnull align 8 dereferenceable(16) %5), !dbg !9220
  ret void, !dbg !9221
}

; Function Attrs: noinline nounwind optnone uwtable
define linkonce_odr dso_local void @_ZNSt8functionIFvvEEC2IZN5mongo8unittest4Test17RegistrationAgentINS3_81UnitTest_SuiteNameThreadSafetyContextTestTestNameCreateThreadsWithNoSafetyContextEEC1ENS3_10StringDataES9_S9_EUlvE_vEEOT_(ptr noundef nonnull align 8 dereferenceable(32) %0, ptr noundef nonnull align 1 dereferenceable(1) %1) unnamed_addr #2 comdat align 2 personality ptr @__gxx_personality_v0 !dbg !9222 {
  %3 = alloca ptr, align 8
  %4 = alloca ptr, align 8
  store ptr %0, ptr %3, align 8
  call void @llvm.dbg.declare(metadata ptr %3, metadata !9230, metadata !DIExpression()), !dbg !9232
  store ptr %1, ptr %4, align 8
  call void @llvm.dbg.declare(metadata ptr %4, metadata !9233, metadata !DIExpression()), !dbg !9234
  %5 = load ptr, ptr %3, align 8
  %6 = getelementptr inbounds i8, ptr %5, i64 0, !dbg !9235
  call void @llvm.memset.p0.i64(ptr align 8 %6, i8 0, i64 24, i1 false), !dbg !9235
  call void @_ZNSt14_Function_baseC2Ev(ptr noundef nonnull align 8 dereferenceable(24) %5) #1, !dbg !9235
  %7 = getelementptr inbounds %"class.std::function", ptr %5, i32 0, i32 1, !dbg !9236
  store ptr null, ptr %7, align 8, !dbg !9236
  %8 = load ptr, ptr %4, align 8, !dbg !9237
  %9 = invoke noundef zeroext i1 @_ZNSt14_Function_base13_Base_managerIZN5mongo8unittest4Test17RegistrationAgentINS1_81UnitTest_SuiteNameThreadSafetyContextTestTestNameCreateThreadsWithNoSafetyContextEEC1ENS1_10StringDataES7_S7_EUlvE_E21_M_not_empty_functionIS8_EEbRKT_(ptr noundef nonnull align 1 dereferenceable(1) %8)
          to label %10 unwind label %17, !dbg !9240

10:                                               ; preds = %2
  br i1 %9, label %11, label %16, !dbg !9241

11:                                               ; preds = %10
  %12 = getelementptr inbounds %"class.std::_Function_base", ptr %5, i32 0, i32 0, !dbg !9242
  %13 = load ptr, ptr %4, align 8, !dbg !9244
  call void @_ZNSt14_Function_base13_Base_managerIZN5mongo8unittest4Test17RegistrationAgentINS1_81UnitTest_SuiteNameThreadSafetyContextTestTestNameCreateThreadsWithNoSafetyContextEEC1ENS1_10StringDataES7_S7_EUlvE_E15_M_init_functorIS8_EEvRSt9_Any_dataOT_(ptr noundef nonnull align 8 dereferenceable(16) %12, ptr noundef nonnull align 1 dereferenceable(1) %13) #1, !dbg !9245
  %14 = getelementptr inbounds %"class.std::function", ptr %5, i32 0, i32 1, !dbg !9246
  store ptr @_ZNSt17_Function_handlerIFvvEZN5mongo8unittest4Test17RegistrationAgentINS1_81UnitTest_SuiteNameThreadSafetyContextTestTestNameCreateThreadsWithNoSafetyContextEEC1ENS1_10StringDataES7_S7_EUlvE_E9_M_invokeERKSt9_Any_data, ptr %14, align 8, !dbg !9247
  %15 = getelementptr inbounds %"class.std::_Function_base", ptr %5, i32 0, i32 1, !dbg !9248
  store ptr @_ZNSt17_Function_handlerIFvvEZN5mongo8unittest4Test17RegistrationAgentINS1_81UnitTest_SuiteNameThreadSafetyContextTestTestNameCreateThreadsWithNoSafetyContextEEC1ENS1_10StringDataES7_S7_EUlvE_E10_M_managerERSt9_Any_dataRKSA_St18_Manager_operation, ptr %15, align 8, !dbg !9249
  br label %16, !dbg !9250

16:                                               ; preds = %11, %10
  ret void, !dbg !9251

17:                                               ; preds = %2
  %18 = landingpad { ptr, i32 }
          catch ptr null, !dbg !9240
  %19 = extractvalue { ptr, i32 } %18, 0, !dbg !9240
  call void @__clang_call_terminate(ptr %19) #19, !dbg !9240
  unreachable, !dbg !9240
}

; Function Attrs: noinline nounwind optnone uwtable
define linkonce_odr dso_local void @_ZNSt8functionIFvvEED2Ev(ptr noundef nonnull align 8 dereferenceable(32) %0) unnamed_addr #2 comdat align 2 !dbg !9252 {
  %2 = alloca ptr, align 8
  store ptr %0, ptr %2, align 8
  call void @llvm.dbg.declare(metadata ptr %2, metadata !9254, metadata !DIExpression()), !dbg !9255
  %3 = load ptr, ptr %2, align 8
  call void @_ZNSt14_Function_baseD2Ev(ptr noundef nonnull align 8 dereferenceable(24) %3) #1, !dbg !9256
  ret void, !dbg !9258
}

; Function Attrs: mustprogress noinline optnone uwtable
define linkonce_odr dso_local void @_ZNK5mongo10StringData8toStringB5cxx11Ev(ptr noalias sret(%"class.std::__cxx11::basic_string") align 8 %0, ptr noundef nonnull align 8 dereferenceable(16) %1) #6 comdat align 2 personality ptr @__gxx_personality_v0 !dbg !9259 {
  %3 = alloca ptr, align 8
  %4 = alloca ptr, align 8
  %5 = alloca %"class.std::allocator.18", align 1
  %6 = alloca ptr, align 8
  %7 = alloca i32, align 4
  store ptr %0, ptr %3, align 8
  store ptr %1, ptr %4, align 8
  call void @llvm.dbg.declare(metadata ptr %4, metadata !9260, metadata !DIExpression()), !dbg !9261
  %8 = load ptr, ptr %4, align 8
  %9 = getelementptr inbounds %"class.mongo::StringData", ptr %8, i32 0, i32 0, !dbg !9262
  %10 = load ptr, ptr %9, align 8, !dbg !9262
  %11 = call noundef i64 @_ZNK5mongo10StringData4sizeEv(ptr noundef nonnull align 8 dereferenceable(16) %8) #1, !dbg !9263
  call void @_ZNSaIcEC1Ev(ptr noundef nonnull align 1 dereferenceable(1) %5) #1, !dbg !9264
  invoke void @_ZNSt7__cxx1112basic_stringIcSt11char_traitsIcESaIcEEC1EPKcmRKS3_(ptr noundef nonnull align 8 dereferenceable(32) %0, ptr noundef %10, i64 noundef %11, ptr noundef nonnull align 1 dereferenceable(1) %5)
          to label %12 unwind label %13, !dbg !9264

12:                                               ; preds = %2
  call void @_ZNSaIcED1Ev(ptr noundef nonnull align 1 dereferenceable(1) %5) #1, !dbg !9265
  ret void, !dbg !9265

13:                                               ; preds = %2
  %14 = landingpad { ptr, i32 }
          cleanup, !dbg !9266
  %15 = extractvalue { ptr, i32 } %14, 0, !dbg !9266
  store ptr %15, ptr %6, align 8, !dbg !9266
  %16 = extractvalue { ptr, i32 } %14, 1, !dbg !9266
  store i32 %16, ptr %7, align 4, !dbg !9266
  call void @_ZNSaIcED1Ev(ptr noundef nonnull align 1 dereferenceable(1) %5) #1, !dbg !9265
  br label %17, !dbg !9265

17:                                               ; preds = %13
  %18 = load ptr, ptr %6, align 8, !dbg !9265
  %19 = load i32, ptr %7, align 4, !dbg !9265
  %20 = insertvalue { ptr, i32 } poison, ptr %18, 0, !dbg !9265
  %21 = insertvalue { ptr, i32 } %20, i32 %19, 1, !dbg !9265
  resume { ptr, i32 } %21, !dbg !9265
}

; Function Attrs: mustprogress noinline nounwind optnone uwtable
define linkonce_odr dso_local noundef i64 @_ZNK5mongo10StringData4sizeEv(ptr noundef nonnull align 8 dereferenceable(16) %0) #8 comdat align 2 !dbg !9267 {
  %2 = alloca ptr, align 8
  store ptr %0, ptr %2, align 8
  call void @llvm.dbg.declare(metadata ptr %2, metadata !9268, metadata !DIExpression()), !dbg !9269
  %3 = load ptr, ptr %2, align 8
  %4 = getelementptr inbounds %"class.mongo::StringData", ptr %3, i32 0, i32 1, !dbg !9270
  %5 = load i64, ptr %4, align 8, !dbg !9270
  ret i64 %5, !dbg !9271
}

declare void @_ZNSt7__cxx1112basic_stringIcSt11char_traitsIcESaIcEEC1EPKcmRKS3_(ptr noundef nonnull align 8 dereferenceable(32), ptr noundef, i64 noundef, ptr noundef nonnull align 1 dereferenceable(1)) unnamed_addr #3

; Function Attrs: nocallback nofree nounwind willreturn memory(argmem: write)
declare void @llvm.memset.p0.i64(ptr nocapture writeonly, i8, i64, i1 immarg) #15

; Function Attrs: noinline nounwind optnone uwtable
define linkonce_odr dso_local void @_ZNSt14_Function_baseC2Ev(ptr noundef nonnull align 8 dereferenceable(24) %0) unnamed_addr #2 comdat align 2 !dbg !9272 {
  %2 = alloca ptr, align 8
  store ptr %0, ptr %2, align 8
  call void @llvm.dbg.declare(metadata ptr %2, metadata !9273, metadata !DIExpression()), !dbg !9275
  %3 = load ptr, ptr %2, align 8
  %4 = getelementptr inbounds %"class.std::_Function_base", ptr %3, i32 0, i32 0, !dbg !9276
  store ptr null, ptr %4, align 8, !dbg !9277
  %5 = getelementptr inbounds %"class.std::_Function_base", ptr %3, i32 0, i32 1, !dbg !9278
  store ptr null, ptr %5, align 8, !dbg !9278
  ret void, !dbg !9279
}

; Function Attrs: mustprogress noinline nounwind optnone uwtable
define linkonce_odr dso_local noundef zeroext i1 @_ZNSt14_Function_base13_Base_managerIZN5mongo8unittest4Test17RegistrationAgentINS1_81UnitTest_SuiteNameThreadSafetyContextTestTestNameCreateThreadsWithNoSafetyContextEEC1ENS1_10StringDataES7_S7_EUlvE_E21_M_not_empty_functionIS8_EEbRKT_(ptr noundef nonnull align 1 dereferenceable(1) %0) #8 comdat align 2 !dbg !9280 {
  %2 = alloca ptr, align 8
  store ptr %0, ptr %2, align 8
  call void @llvm.dbg.declare(metadata ptr %2, metadata !9301, metadata !DIExpression()), !dbg !9302
  ret i1 true, !dbg !9303
}

; Function Attrs: mustprogress noinline nounwind optnone uwtable
define linkonce_odr dso_local void @_ZNSt14_Function_base13_Base_managerIZN5mongo8unittest4Test17RegistrationAgentINS1_81UnitTest_SuiteNameThreadSafetyContextTestTestNameCreateThreadsWithNoSafetyContextEEC1ENS1_10StringDataES7_S7_EUlvE_E15_M_init_functorIS8_EEvRSt9_Any_dataOT_(ptr noundef nonnull align 8 dereferenceable(16) %0, ptr noundef nonnull align 1 dereferenceable(1) %1) #8 comdat align 2 personality ptr @__gxx_personality_v0 !dbg !9304 {
  %3 = alloca ptr, align 8
  %4 = alloca ptr, align 8
  %5 = alloca %"struct.std::integral_constant", align 1
  store ptr %0, ptr %3, align 8
  call void @llvm.dbg.declare(metadata ptr %3, metadata !9310, metadata !DIExpression()), !dbg !9311
  store ptr %1, ptr %4, align 8
  call void @llvm.dbg.declare(metadata ptr %4, metadata !9312, metadata !DIExpression()), !dbg !9313
  %6 = load ptr, ptr %3, align 8, !dbg !9314
  %7 = load ptr, ptr %4, align 8, !dbg !9315
  invoke void @_ZNSt14_Function_base13_Base_managerIZN5mongo8unittest4Test17RegistrationAgentINS1_81UnitTest_SuiteNameThreadSafetyContextTestTestNameCreateThreadsWithNoSafetyContextEEC1ENS1_10StringDataES7_S7_EUlvE_E9_M_createIS8_EEvRSt9_Any_dataOT_St17integral_constantIbLb1EE(ptr noundef nonnull align 8 dereferenceable(16) %6, ptr noundef nonnull align 1 dereferenceable(1) %7)
          to label %8 unwind label %9, !dbg !9316

8:                                                ; preds = %2
  ret void, !dbg !9317

9:                                                ; preds = %2
  %10 = landingpad { ptr, i32 }
          catch ptr null, !dbg !9316
  %11 = extractvalue { ptr, i32 } %10, 0, !dbg !9316
  call void @__clang_call_terminate(ptr %11) #19, !dbg !9316
  unreachable, !dbg !9316
}

; Function Attrs: mustprogress noinline optnone uwtable
define linkonce_odr dso_local void @_ZNSt17_Function_handlerIFvvEZN5mongo8unittest4Test17RegistrationAgentINS1_81UnitTest_SuiteNameThreadSafetyContextTestTestNameCreateThreadsWithNoSafetyContextEEC1ENS1_10StringDataES7_S7_EUlvE_E9_M_invokeERKSt9_Any_data(ptr noundef nonnull align 8 dereferenceable(16) %0) #6 comdat align 2 !dbg !9318 {
  %2 = alloca ptr, align 8
  store ptr %0, ptr %2, align 8
  call void @llvm.dbg.declare(metadata ptr %2, metadata !9325, metadata !DIExpression()), !dbg !9326
  %3 = load ptr, ptr %2, align 8, !dbg !9327
  %4 = call noundef ptr @_ZNSt14_Function_base13_Base_managerIZN5mongo8unittest4Test17RegistrationAgentINS1_81UnitTest_SuiteNameThreadSafetyContextTestTestNameCreateThreadsWithNoSafetyContextEEC1ENS1_10StringDataES7_S7_EUlvE_E14_M_get_pointerERKSt9_Any_data(ptr noundef nonnull align 8 dereferenceable(16) %3), !dbg !9328
  call void @_ZSt10__invoke_rIvRZN5mongo8unittest4Test17RegistrationAgentINS0_81UnitTest_SuiteNameThreadSafetyContextTestTestNameCreateThreadsWithNoSafetyContextEEC1ENS0_10StringDataES6_S6_EUlvE_JEENSt9enable_ifIX16is_invocable_r_vIT_T0_DpT1_EESA_E4typeEOSB_DpOSC_(ptr noundef nonnull align 1 dereferenceable(1) %4), !dbg !9329
  ret void, !dbg !9330
}

; Function Attrs: mustprogress noinline optnone uwtable
define linkonce_odr dso_local noundef zeroext i1 @_ZNSt17_Function_handlerIFvvEZN5mongo8unittest4Test17RegistrationAgentINS1_81UnitTest_SuiteNameThreadSafetyContextTestTestNameCreateThreadsWithNoSafetyContextEEC1ENS1_10StringDataES7_S7_EUlvE_E10_M_managerERSt9_Any_dataRKSA_St18_Manager_operation(ptr noundef nonnull align 8 dereferenceable(16) %0, ptr noundef nonnull align 8 dereferenceable(16) %1, i32 noundef %2) #6 comdat align 2 !dbg !9331 {
  %4 = alloca ptr, align 8
  %5 = alloca ptr, align 8
  %6 = alloca i32, align 4
  store ptr %0, ptr %4, align 8
  call void @llvm.dbg.declare(metadata ptr %4, metadata !9332, metadata !DIExpression()), !dbg !9333
  store ptr %1, ptr %5, align 8
  call void @llvm.dbg.declare(metadata ptr %5, metadata !9334, metadata !DIExpression()), !dbg !9335
  store i32 %2, ptr %6, align 4
  call void @llvm.dbg.declare(metadata ptr %6, metadata !9336, metadata !DIExpression()), !dbg !9337
  %7 = load i32, ptr %6, align 4, !dbg !9338
  switch i32 %7, label %16 [
    i32 0, label %8
    i32 1, label %11
  ], !dbg !9339

8:                                                ; preds = %3
  %9 = load ptr, ptr %4, align 8, !dbg !9340
  %10 = call noundef nonnull align 8 dereferenceable(8) ptr @_ZNSt9_Any_data9_M_accessIPKSt9type_infoEERT_v(ptr noundef nonnull align 8 dereferenceable(16) %9), !dbg !9342
  store ptr @_ZTIZN5mongo8unittest4Test17RegistrationAgentINS_81UnitTest_SuiteNameThreadSafetyContextTestTestNameCreateThreadsWithNoSafetyContextEEC1ENS_10StringDataES5_S5_EUlvE_, ptr %10, align 8, !dbg !9343
  br label %21, !dbg !9344

11:                                               ; preds = %3
  %12 = load ptr, ptr %5, align 8, !dbg !9345
  %13 = call noundef ptr @_ZNSt14_Function_base13_Base_managerIZN5mongo8unittest4Test17RegistrationAgentINS1_81UnitTest_SuiteNameThreadSafetyContextTestTestNameCreateThreadsWithNoSafetyContextEEC1ENS1_10StringDataES7_S7_EUlvE_E14_M_get_pointerERKSt9_Any_data(ptr noundef nonnull align 8 dereferenceable(16) %12), !dbg !9346
  %14 = load ptr, ptr %4, align 8, !dbg !9347
  %15 = call noundef nonnull align 8 dereferenceable(8) ptr @_ZNSt9_Any_data9_M_accessIPZN5mongo8unittest4Test17RegistrationAgentINS1_81UnitTest_SuiteNameThreadSafetyContextTestTestNameCreateThreadsWithNoSafetyContextEEC1ENS1_10StringDataES7_S7_EUlvE_EERT_v(ptr noundef nonnull align 8 dereferenceable(16) %14), !dbg !9348
  store ptr %13, ptr %15, align 8, !dbg !9349
  br label %21, !dbg !9350

16:                                               ; preds = %3
  %17 = load ptr, ptr %4, align 8, !dbg !9351
  %18 = load ptr, ptr %5, align 8, !dbg !9352
  %19 = load i32, ptr %6, align 4, !dbg !9353
  %20 = call noundef zeroext i1 @_ZNSt14_Function_base13_Base_managerIZN5mongo8unittest4Test17RegistrationAgentINS1_81UnitTest_SuiteNameThreadSafetyContextTestTestNameCreateThreadsWithNoSafetyContextEEC1ENS1_10StringDataES7_S7_EUlvE_E10_M_managerERSt9_Any_dataRKSA_St18_Manager_operation(ptr noundef nonnull align 8 dereferenceable(16) %17, ptr noundef nonnull align 8 dereferenceable(16) %18, i32 noundef %19), !dbg !9354
  br label %21, !dbg !9355

21:                                               ; preds = %16, %11, %8
  ret i1 false, !dbg !9356
}

; Function Attrs: mustprogress noinline optnone uwtable
define linkonce_odr dso_local void @_ZNSt14_Function_base13_Base_managerIZN5mongo8unittest4Test17RegistrationAgentINS1_81UnitTest_SuiteNameThreadSafetyContextTestTestNameCreateThreadsWithNoSafetyContextEEC1ENS1_10StringDataES7_S7_EUlvE_E9_M_createIS8_EEvRSt9_Any_dataOT_St17integral_constantIbLb1EE(ptr noundef nonnull align 8 dereferenceable(16) %0, ptr noundef nonnull align 1 dereferenceable(1) %1) #6 comdat align 2 !dbg !9357 {
  %3 = alloca %"struct.std::integral_constant", align 1
  %4 = alloca ptr, align 8
  %5 = alloca ptr, align 8
  store ptr %0, ptr %4, align 8
  call void @llvm.dbg.declare(metadata ptr %4, metadata !9361, metadata !DIExpression()), !dbg !9362
  store ptr %1, ptr %5, align 8
  call void @llvm.dbg.declare(metadata ptr %5, metadata !9363, metadata !DIExpression()), !dbg !9364
  call void @llvm.dbg.declare(metadata ptr %3, metadata !9365, metadata !DIExpression()), !dbg !9366
  %6 = load ptr, ptr %4, align 8, !dbg !9367
  %7 = call noundef ptr @_ZNSt9_Any_data9_M_accessEv(ptr noundef nonnull align 8 dereferenceable(16) %6), !dbg !9368
  %8 = load ptr, ptr %5, align 8, !dbg !9369
  ret void, !dbg !9370
}

; Function Attrs: mustprogress noinline nounwind optnone uwtable
define linkonce_odr dso_local noundef ptr @_ZNSt9_Any_data9_M_accessEv(ptr noundef nonnull align 8 dereferenceable(16) %0) #8 comdat align 2 !dbg !9371 {
  %2 = alloca ptr, align 8
  store ptr %0, ptr %2, align 8
  call void @llvm.dbg.declare(metadata ptr %2, metadata !9372, metadata !DIExpression()), !dbg !9374
  %3 = load ptr, ptr %2, align 8
  %4 = getelementptr inbounds [16 x i8], ptr %3, i64 0, i64 0, !dbg !9375
  ret ptr %4, !dbg !9376
}

; Function Attrs: mustprogress noinline optnone uwtable
define linkonce_odr dso_local void @_ZSt10__invoke_rIvRZN5mongo8unittest4Test17RegistrationAgentINS0_81UnitTest_SuiteNameThreadSafetyContextTestTestNameCreateThreadsWithNoSafetyContextEEC1ENS0_10StringDataES6_S6_EUlvE_JEENSt9enable_ifIX16is_invocable_r_vIT_T0_DpT1_EESA_E4typeEOSB_DpOSC_(ptr noundef nonnull align 1 dereferenceable(1) %0) #6 comdat !dbg !2357 {
  %2 = alloca ptr, align 8
  %3 = alloca %"struct.std::__invoke_other", align 1
  store ptr %0, ptr %2, align 8
  call void @llvm.dbg.declare(metadata ptr %2, metadata !9377, metadata !DIExpression()), !dbg !9378
  %4 = load ptr, ptr %2, align 8, !dbg !9379
  call void @_ZSt13__invoke_implIvRZN5mongo8unittest4Test17RegistrationAgentINS0_81UnitTest_SuiteNameThreadSafetyContextTestTestNameCreateThreadsWithNoSafetyContextEEC1ENS0_10StringDataES6_S6_EUlvE_JEET_St14__invoke_otherOT0_DpOT1_(ptr noundef nonnull align 1 dereferenceable(1) %4), !dbg !9381
  ret void, !dbg !9382
}

; Function Attrs: mustprogress noinline optnone uwtable
define linkonce_odr dso_local noundef ptr @_ZNSt14_Function_base13_Base_managerIZN5mongo8unittest4Test17RegistrationAgentINS1_81UnitTest_SuiteNameThreadSafetyContextTestTestNameCreateThreadsWithNoSafetyContextEEC1ENS1_10StringDataES7_S7_EUlvE_E14_M_get_pointerERKSt9_Any_data(ptr noundef nonnull align 8 dereferenceable(16) %0) #6 comdat align 2 !dbg !9383 {
  %2 = alloca ptr, align 8
  %3 = alloca ptr, align 8
  store ptr %0, ptr %2, align 8
  call void @llvm.dbg.declare(metadata ptr %2, metadata !9384, metadata !DIExpression()), !dbg !9385
  call void @llvm.dbg.declare(metadata ptr %3, metadata !9386, metadata !DIExpression()), !dbg !9389
  %4 = load ptr, ptr %2, align 8, !dbg !9390
  %5 = call noundef nonnull align 1 dereferenceable(1) ptr @_ZNKSt9_Any_data9_M_accessIZN5mongo8unittest4Test17RegistrationAgentINS1_81UnitTest_SuiteNameThreadSafetyContextTestTestNameCreateThreadsWithNoSafetyContextEEC1ENS1_10StringDataES7_S7_EUlvE_EERKT_v(ptr noundef nonnull align 8 dereferenceable(16) %4), !dbg !9391
  store ptr %5, ptr %3, align 8, !dbg !9389
  %6 = load ptr, ptr %3, align 8, !dbg !9392
  ret ptr %6, !dbg !9393
}

; Function Attrs: mustprogress noinline optnone uwtable
define linkonce_odr dso_local void @_ZSt13__invoke_implIvRZN5mongo8unittest4Test17RegistrationAgentINS0_81UnitTest_SuiteNameThreadSafetyContextTestTestNameCreateThreadsWithNoSafetyContextEEC1ENS0_10StringDataES6_S6_EUlvE_JEET_St14__invoke_otherOT0_DpOT1_(ptr noundef nonnull align 1 dereferenceable(1) %0) #6 comdat !dbg !9394 {
  %2 = alloca %"struct.std::__invoke_other", align 1
  %3 = alloca ptr, align 8
  call void @llvm.dbg.declare(metadata ptr %2, metadata !9399, metadata !DIExpression()), !dbg !9400
  store ptr %0, ptr %3, align 8
  call void @llvm.dbg.declare(metadata ptr %3, metadata !9401, metadata !DIExpression()), !dbg !9402
  %4 = load ptr, ptr %3, align 8, !dbg !9403
  call void @_ZZN5mongo8unittest4Test17RegistrationAgentINS_81UnitTest_SuiteNameThreadSafetyContextTestTestNameCreateThreadsWithNoSafetyContextEEC1ENS_10StringDataES5_S5_ENKUlvE_clEv(ptr noundef nonnull align 1 dereferenceable(1) %4), !dbg !9404
  ret void, !dbg !9405
}

; Function Attrs: mustprogress noinline optnone uwtable
define linkonce_odr dso_local void @_ZZN5mongo8unittest4Test17RegistrationAgentINS_81UnitTest_SuiteNameThreadSafetyContextTestTestNameCreateThreadsWithNoSafetyContextEEC1ENS_10StringDataES5_S5_ENKUlvE_clEv(ptr noundef nonnull align 1 dereferenceable(1) %0) #6 comdat align 2 personality ptr @__gxx_personality_v0 !dbg !9406 {
  %2 = alloca ptr, align 8
  %3 = alloca %"class.mongo::UnitTest_SuiteNameThreadSafetyContextTestTestNameCreateThreadsWithNoSafetyContext", align 8
  %4 = alloca ptr, align 8
  %5 = alloca i32, align 4
  store ptr %0, ptr %2, align 8
  call void @llvm.dbg.declare(metadata ptr %2, metadata !9411, metadata !DIExpression()), !dbg !9412
  %6 = load ptr, ptr %2, align 8
  call void @llvm.memset.p0.i64(ptr align 8 %3, i8 0, i64 8, i1 false), !dbg !9413
  call void @_ZN5mongo81UnitTest_SuiteNameThreadSafetyContextTestTestNameCreateThreadsWithNoSafetyContextC2Ev(ptr noundef nonnull align 8 dereferenceable(8) %3), !dbg !9413
  invoke void @_ZN5mongo8unittest4Test3runEv(ptr noundef nonnull align 8 dereferenceable(8) %3)
          to label %7 unwind label %8, !dbg !9414

7:                                                ; preds = %1
  call void @_ZN5mongo81UnitTest_SuiteNameThreadSafetyContextTestTestNameCreateThreadsWithNoSafetyContextD2Ev(ptr noundef nonnull align 8 dereferenceable(8) %3) #1, !dbg !9413
  ret void, !dbg !9415

8:                                                ; preds = %1
  %9 = landingpad { ptr, i32 }
          cleanup, !dbg !9415
  %10 = extractvalue { ptr, i32 } %9, 0, !dbg !9415
  store ptr %10, ptr %4, align 8, !dbg !9415
  %11 = extractvalue { ptr, i32 } %9, 1, !dbg !9415
  store i32 %11, ptr %5, align 4, !dbg !9415
  call void @_ZN5mongo81UnitTest_SuiteNameThreadSafetyContextTestTestNameCreateThreadsWithNoSafetyContextD2Ev(ptr noundef nonnull align 8 dereferenceable(8) %3) #1, !dbg !9413
  br label %12, !dbg !9413

12:                                               ; preds = %8
  %13 = load ptr, ptr %4, align 8, !dbg !9413
  %14 = load i32, ptr %5, align 4, !dbg !9413
  %15 = insertvalue { ptr, i32 } poison, ptr %13, 0, !dbg !9413
  %16 = insertvalue { ptr, i32 } %15, i32 %14, 1, !dbg !9413
  resume { ptr, i32 } %16, !dbg !9413
}

; Function Attrs: noinline optnone uwtable
define linkonce_odr dso_local void @_ZN5mongo81UnitTest_SuiteNameThreadSafetyContextTestTestNameCreateThreadsWithNoSafetyContextC2Ev(ptr noundef nonnull align 8 dereferenceable(8) %0) unnamed_addr #5 comdat align 2 !dbg !9416 {
  %2 = alloca ptr, align 8
  store ptr %0, ptr %2, align 8
  call void @llvm.dbg.declare(metadata ptr %2, metadata !9418, metadata !DIExpression()), !dbg !9419
  %3 = load ptr, ptr %2, align 8
  call void @_ZN5mongo23ThreadSafetyContextTestC2Ev(ptr noundef nonnull align 8 dereferenceable(8) %3), !dbg !9420
  store ptr getelementptr inbounds ({ [7 x ptr] }, ptr @_ZTVN5mongo81UnitTest_SuiteNameThreadSafetyContextTestTestNameCreateThreadsWithNoSafetyContextE, i32 0, inrange i32 0, i32 2), ptr %3, align 8, !dbg !9420
  ret void, !dbg !9420
}

declare void @_ZN5mongo8unittest4Test3runEv(ptr noundef nonnull align 8 dereferenceable(8)) #3

; Function Attrs: noinline optnone uwtable
define linkonce_odr dso_local void @_ZN5mongo23ThreadSafetyContextTestC2Ev(ptr noundef nonnull align 8 dereferenceable(8) %0) unnamed_addr #5 comdat align 2 !dbg !9421 {
  %2 = alloca ptr, align 8
  store ptr %0, ptr %2, align 8
  call void @llvm.dbg.declare(metadata ptr %2, metadata !9423, metadata !DIExpression()), !dbg !9424
  %3 = load ptr, ptr %2, align 8
  call void @_ZN5mongo8unittest4TestC2Ev(ptr noundef nonnull align 8 dereferenceable(8) %3), !dbg !9425
  store ptr getelementptr inbounds ({ [7 x ptr] }, ptr @_ZTVN5mongo23ThreadSafetyContextTestE, i32 0, inrange i32 0, i32 2), ptr %3, align 8, !dbg !9425
  ret void, !dbg !9425
}

declare void @_ZN5mongo8unittest4TestC2Ev(ptr noundef nonnull align 8 dereferenceable(8)) unnamed_addr #3

; Function Attrs: noinline nounwind optnone uwtable
define linkonce_odr dso_local void @_ZN5mongo23ThreadSafetyContextTestD2Ev(ptr noundef nonnull align 8 dereferenceable(8) %0) unnamed_addr #2 comdat align 2 !dbg !9426 {
  %2 = alloca ptr, align 8
  store ptr %0, ptr %2, align 8
  call void @llvm.dbg.declare(metadata ptr %2, metadata !9428, metadata !DIExpression()), !dbg !9429
  %3 = load ptr, ptr %2, align 8
  call void @_ZN5mongo8unittest4TestD2Ev(ptr noundef nonnull align 8 dereferenceable(8) %3) #1, !dbg !9430
  ret void, !dbg !9432
}

; Function Attrs: noinline nounwind optnone uwtable
define linkonce_odr dso_local void @_ZN5mongo23ThreadSafetyContextTestD0Ev(ptr noundef nonnull align 8 dereferenceable(8) %0) unnamed_addr #2 comdat align 2 !dbg !9433 {
  %2 = alloca ptr, align 8
  store ptr %0, ptr %2, align 8
  call void @llvm.dbg.declare(metadata ptr %2, metadata !9434, metadata !DIExpression()), !dbg !9435
  %3 = load ptr, ptr %2, align 8
  call void @llvm.trap() #19, !dbg !9436
  unreachable, !dbg !9436
}

declare void @__cxa_pure_virtual() unnamed_addr

; Function Attrs: cold noreturn nounwind
declare void @llvm.trap() #16

; Function Attrs: mustprogress noinline optnone uwtable
define linkonce_odr dso_local noundef nonnull align 1 dereferenceable(1) ptr @_ZNKSt9_Any_data9_M_accessIZN5mongo8unittest4Test17RegistrationAgentINS1_81UnitTest_SuiteNameThreadSafetyContextTestTestNameCreateThreadsWithNoSafetyContextEEC1ENS1_10StringDataES7_S7_EUlvE_EERKT_v(ptr noundef nonnull align 8 dereferenceable(16) %0) #6 comdat align 2 !dbg !9437 {
  %2 = alloca ptr, align 8
  store ptr %0, ptr %2, align 8
  call void @llvm.dbg.declare(metadata ptr %2, metadata !9441, metadata !DIExpression()), !dbg !9443
  %3 = load ptr, ptr %2, align 8
  %4 = call noundef ptr @_ZNKSt9_Any_data9_M_accessEv(ptr noundef nonnull align 8 dereferenceable(16) %3), !dbg !9444
  ret ptr %4, !dbg !9445
}

; Function Attrs: mustprogress noinline nounwind optnone uwtable
define linkonce_odr dso_local noundef ptr @_ZNKSt9_Any_data9_M_accessEv(ptr noundef nonnull align 8 dereferenceable(16) %0) #8 comdat align 2 !dbg !9446 {
  %2 = alloca ptr, align 8
  store ptr %0, ptr %2, align 8
  call void @llvm.dbg.declare(metadata ptr %2, metadata !9447, metadata !DIExpression()), !dbg !9448
  %3 = load ptr, ptr %2, align 8
  %4 = getelementptr inbounds [16 x i8], ptr %3, i64 0, i64 0, !dbg !9449
  ret ptr %4, !dbg !9450
}

; Function Attrs: mustprogress noinline nounwind optnone uwtable
define linkonce_odr dso_local noundef nonnull align 8 dereferenceable(8) ptr @_ZNSt9_Any_data9_M_accessIPKSt9type_infoEERT_v(ptr noundef nonnull align 8 dereferenceable(16) %0) #8 comdat align 2 !dbg !9451 {
  %2 = alloca ptr, align 8
  store ptr %0, ptr %2, align 8
  call void @llvm.dbg.declare(metadata ptr %2, metadata !9458, metadata !DIExpression()), !dbg !9459
  %3 = load ptr, ptr %2, align 8
  %4 = call noundef ptr @_ZNSt9_Any_data9_M_accessEv(ptr noundef nonnull align 8 dereferenceable(16) %3), !dbg !9460
  ret ptr %4, !dbg !9461
}

; Function Attrs: mustprogress noinline nounwind optnone uwtable
define linkonce_odr dso_local noundef nonnull align 8 dereferenceable(8) ptr @_ZNSt9_Any_data9_M_accessIPZN5mongo8unittest4Test17RegistrationAgentINS1_81UnitTest_SuiteNameThreadSafetyContextTestTestNameCreateThreadsWithNoSafetyContextEEC1ENS1_10StringDataES7_S7_EUlvE_EERT_v(ptr noundef nonnull align 8 dereferenceable(16) %0) #8 comdat align 2 !dbg !9462 {
  %2 = alloca ptr, align 8
  store ptr %0, ptr %2, align 8
  call void @llvm.dbg.declare(metadata ptr %2, metadata !9469, metadata !DIExpression()), !dbg !9470
  %3 = load ptr, ptr %2, align 8
  %4 = call noundef ptr @_ZNSt9_Any_data9_M_accessEv(ptr noundef nonnull align 8 dereferenceable(16) %3), !dbg !9471
  ret ptr %4, !dbg !9472
}

; Function Attrs: mustprogress noinline optnone uwtable
define linkonce_odr dso_local noundef zeroext i1 @_ZNSt14_Function_base13_Base_managerIZN5mongo8unittest4Test17RegistrationAgentINS1_81UnitTest_SuiteNameThreadSafetyContextTestTestNameCreateThreadsWithNoSafetyContextEEC1ENS1_10StringDataES7_S7_EUlvE_E10_M_managerERSt9_Any_dataRKSA_St18_Manager_operation(ptr noundef nonnull align 8 dereferenceable(16) %0, ptr noundef nonnull align 8 dereferenceable(16) %1, i32 noundef %2) #6 comdat align 2 !dbg !9473 {
  %4 = alloca ptr, align 8
  %5 = alloca ptr, align 8
  %6 = alloca i32, align 4
  %7 = alloca %"struct.std::integral_constant", align 1
  store ptr %0, ptr %4, align 8
  call void @llvm.dbg.declare(metadata ptr %4, metadata !9474, metadata !DIExpression()), !dbg !9475
  store ptr %1, ptr %5, align 8
  call void @llvm.dbg.declare(metadata ptr %5, metadata !9476, metadata !DIExpression()), !dbg !9477
  store i32 %2, ptr %6, align 4
  call void @llvm.dbg.declare(metadata ptr %6, metadata !9478, metadata !DIExpression()), !dbg !9479
  %8 = load i32, ptr %6, align 4, !dbg !9480
  switch i32 %8, label %23 [
    i32 0, label %9
    i32 1, label %12
    i32 2, label %17
    i32 3, label %21
  ], !dbg !9481

9:                                                ; preds = %3
  %10 = load ptr, ptr %4, align 8, !dbg !9482
  %11 = call noundef nonnull align 8 dereferenceable(8) ptr @_ZNSt9_Any_data9_M_accessIPKSt9type_infoEERT_v(ptr noundef nonnull align 8 dereferenceable(16) %10), !dbg !9484
  store ptr @_ZTIZN5mongo8unittest4Test17RegistrationAgentINS_81UnitTest_SuiteNameThreadSafetyContextTestTestNameCreateThreadsWithNoSafetyContextEEC1ENS_10StringDataES5_S5_EUlvE_, ptr %11, align 8, !dbg !9485
  br label %23, !dbg !9486

12:                                               ; preds = %3
  %13 = load ptr, ptr %5, align 8, !dbg !9487
  %14 = call noundef ptr @_ZNSt14_Function_base13_Base_managerIZN5mongo8unittest4Test17RegistrationAgentINS1_81UnitTest_SuiteNameThreadSafetyContextTestTestNameCreateThreadsWithNoSafetyContextEEC1ENS1_10StringDataES7_S7_EUlvE_E14_M_get_pointerERKSt9_Any_data(ptr noundef nonnull align 8 dereferenceable(16) %13), !dbg !9488
  %15 = load ptr, ptr %4, align 8, !dbg !9489
  %16 = call noundef nonnull align 8 dereferenceable(8) ptr @_ZNSt9_Any_data9_M_accessIPZN5mongo8unittest4Test17RegistrationAgentINS1_81UnitTest_SuiteNameThreadSafetyContextTestTestNameCreateThreadsWithNoSafetyContextEEC1ENS1_10StringDataES7_S7_EUlvE_EERT_v(ptr noundef nonnull align 8 dereferenceable(16) %15), !dbg !9490
  store ptr %14, ptr %16, align 8, !dbg !9491
  br label %23, !dbg !9492

17:                                               ; preds = %3
  %18 = load ptr, ptr %4, align 8, !dbg !9493
  %19 = load ptr, ptr %5, align 8, !dbg !9494
  %20 = call noundef ptr @_ZNSt14_Function_base13_Base_managerIZN5mongo8unittest4Test17RegistrationAgentINS1_81UnitTest_SuiteNameThreadSafetyContextTestTestNameCreateThreadsWithNoSafetyContextEEC1ENS1_10StringDataES7_S7_EUlvE_E14_M_get_pointerERKSt9_Any_data(ptr noundef nonnull align 8 dereferenceable(16) %19), !dbg !9495
  call void @_ZNSt14_Function_base13_Base_managerIZN5mongo8unittest4Test17RegistrationAgentINS1_81UnitTest_SuiteNameThreadSafetyContextTestTestNameCreateThreadsWithNoSafetyContextEEC1ENS1_10StringDataES7_S7_EUlvE_E15_M_init_functorIRKS8_EEvRSt9_Any_dataOT_(ptr noundef nonnull align 8 dereferenceable(16) %18, ptr noundef nonnull align 1 dereferenceable(1) %20) #1, !dbg !9496
  br label %23, !dbg !9497

21:                                               ; preds = %3
  %22 = load ptr, ptr %4, align 8, !dbg !9498
  call void @_ZNSt14_Function_base13_Base_managerIZN5mongo8unittest4Test17RegistrationAgentINS1_81UnitTest_SuiteNameThreadSafetyContextTestTestNameCreateThreadsWithNoSafetyContextEEC1ENS1_10StringDataES7_S7_EUlvE_E10_M_destroyERSt9_Any_dataSt17integral_constantIbLb1EE(ptr noundef nonnull align 8 dereferenceable(16) %22), !dbg !9499
  br label %23, !dbg !9500

23:                                               ; preds = %3, %21, %17, %12, %9
  ret i1 false, !dbg !9501
}

; Function Attrs: mustprogress noinline nounwind optnone uwtable
define linkonce_odr dso_local void @_ZNSt14_Function_base13_Base_managerIZN5mongo8unittest4Test17RegistrationAgentINS1_81UnitTest_SuiteNameThreadSafetyContextTestTestNameCreateThreadsWithNoSafetyContextEEC1ENS1_10StringDataES7_S7_EUlvE_E15_M_init_functorIRKS8_EEvRSt9_Any_dataOT_(ptr noundef nonnull align 8 dereferenceable(16) %0, ptr noundef nonnull align 1 dereferenceable(1) %1) #8 comdat align 2 personality ptr @__gxx_personality_v0 !dbg !9502 {
  %3 = alloca ptr, align 8
  %4 = alloca ptr, align 8
  %5 = alloca %"struct.std::integral_constant", align 1
  store ptr %0, ptr %3, align 8
  call void @llvm.dbg.declare(metadata ptr %3, metadata !9508, metadata !DIExpression()), !dbg !9509
  store ptr %1, ptr %4, align 8
  call void @llvm.dbg.declare(metadata ptr %4, metadata !9510, metadata !DIExpression()), !dbg !9511
  %6 = load ptr, ptr %3, align 8, !dbg !9512
  %7 = load ptr, ptr %4, align 8, !dbg !9513
  invoke void @_ZNSt14_Function_base13_Base_managerIZN5mongo8unittest4Test17RegistrationAgentINS1_81UnitTest_SuiteNameThreadSafetyContextTestTestNameCreateThreadsWithNoSafetyContextEEC1ENS1_10StringDataES7_S7_EUlvE_E9_M_createIRKS8_EEvRSt9_Any_dataOT_St17integral_constantIbLb1EE(ptr noundef nonnull align 8 dereferenceable(16) %6, ptr noundef nonnull align 1 dereferenceable(1) %7)
          to label %8 unwind label %9, !dbg !9514

8:                                                ; preds = %2
  ret void, !dbg !9515

9:                                                ; preds = %2
  %10 = landingpad { ptr, i32 }
          catch ptr null, !dbg !9514
  %11 = extractvalue { ptr, i32 } %10, 0, !dbg !9514
  call void @__clang_call_terminate(ptr %11) #19, !dbg !9514
  unreachable, !dbg !9514
}

; Function Attrs: mustprogress noinline optnone uwtable
define linkonce_odr dso_local void @_ZNSt14_Function_base13_Base_managerIZN5mongo8unittest4Test17RegistrationAgentINS1_81UnitTest_SuiteNameThreadSafetyContextTestTestNameCreateThreadsWithNoSafetyContextEEC1ENS1_10StringDataES7_S7_EUlvE_E10_M_destroyERSt9_Any_dataSt17integral_constantIbLb1EE(ptr noundef nonnull align 8 dereferenceable(16) %0) #6 comdat align 2 !dbg !9516 {
  %2 = alloca %"struct.std::integral_constant", align 1
  %3 = alloca ptr, align 8
  store ptr %0, ptr %3, align 8
  call void @llvm.dbg.declare(metadata ptr %3, metadata !9517, metadata !DIExpression()), !dbg !9518
  call void @llvm.dbg.declare(metadata ptr %2, metadata !9519, metadata !DIExpression()), !dbg !9520
  %4 = load ptr, ptr %3, align 8, !dbg !9521
  %5 = call noundef nonnull align 1 dereferenceable(1) ptr @_ZNSt9_Any_data9_M_accessIZN5mongo8unittest4Test17RegistrationAgentINS1_81UnitTest_SuiteNameThreadSafetyContextTestTestNameCreateThreadsWithNoSafetyContextEEC1ENS1_10StringDataES7_S7_EUlvE_EERT_v(ptr noundef nonnull align 8 dereferenceable(16) %4), !dbg !9522
  ret void, !dbg !9523
}

; Function Attrs: mustprogress noinline nounwind optnone uwtable
define linkonce_odr dso_local void @_ZNSt14_Function_base13_Base_managerIZN5mongo8unittest4Test17RegistrationAgentINS1_81UnitTest_SuiteNameThreadSafetyContextTestTestNameCreateThreadsWithNoSafetyContextEEC1ENS1_10StringDataES7_S7_EUlvE_E9_M_createIRKS8_EEvRSt9_Any_dataOT_St17integral_constantIbLb1EE(ptr noundef nonnull align 8 dereferenceable(16) %0, ptr noundef nonnull align 1 dereferenceable(1) %1) #8 comdat align 2 !dbg !9524 {
  %3 = alloca %"struct.std::integral_constant", align 1
  %4 = alloca ptr, align 8
  %5 = alloca ptr, align 8
  store ptr %0, ptr %4, align 8
  call void @llvm.dbg.declare(metadata ptr %4, metadata !9528, metadata !DIExpression()), !dbg !9529
  store ptr %1, ptr %5, align 8
  call void @llvm.dbg.declare(metadata ptr %5, metadata !9530, metadata !DIExpression()), !dbg !9531
  call void @llvm.dbg.declare(metadata ptr %3, metadata !9532, metadata !DIExpression()), !dbg !9533
  %6 = load ptr, ptr %4, align 8, !dbg !9534
  %7 = call noundef ptr @_ZNSt9_Any_data9_M_accessEv(ptr noundef nonnull align 8 dereferenceable(16) %6), !dbg !9535
  %8 = load ptr, ptr %5, align 8, !dbg !9536
  ret void, !dbg !9537
}

; Function Attrs: mustprogress noinline nounwind optnone uwtable
define linkonce_odr dso_local noundef nonnull align 1 dereferenceable(1) ptr @_ZNSt9_Any_data9_M_accessIZN5mongo8unittest4Test17RegistrationAgentINS1_81UnitTest_SuiteNameThreadSafetyContextTestTestNameCreateThreadsWithNoSafetyContextEEC1ENS1_10StringDataES7_S7_EUlvE_EERT_v(ptr noundef nonnull align 8 dereferenceable(16) %0) #8 comdat align 2 !dbg !9538 {
  %2 = alloca ptr, align 8
  store ptr %0, ptr %2, align 8
  call void @llvm.dbg.declare(metadata ptr %2, metadata !9542, metadata !DIExpression()), !dbg !9543
  %3 = load ptr, ptr %2, align 8
  %4 = call noundef ptr @_ZNSt9_Any_data9_M_accessEv(ptr noundef nonnull align 8 dereferenceable(16) %3), !dbg !9544
  ret ptr %4, !dbg !9545
}

; Function Attrs: noinline nounwind optnone uwtable
define linkonce_odr dso_local void @_ZNSt14_Function_baseD2Ev(ptr noundef nonnull align 8 dereferenceable(24) %0) unnamed_addr #2 comdat align 2 personality ptr @__gxx_personality_v0 !dbg !9546 {
  %2 = alloca ptr, align 8
  store ptr %0, ptr %2, align 8
  call void @llvm.dbg.declare(metadata ptr %2, metadata !9547, metadata !DIExpression()), !dbg !9548
  %3 = load ptr, ptr %2, align 8
  %4 = getelementptr inbounds %"class.std::_Function_base", ptr %3, i32 0, i32 1, !dbg !9549
  %5 = load ptr, ptr %4, align 8, !dbg !9549
  %6 = icmp ne ptr %5, null, !dbg !9549
  br i1 %6, label %7, label %14, !dbg !9552

7:                                                ; preds = %1
  %8 = getelementptr inbounds %"class.std::_Function_base", ptr %3, i32 0, i32 1, !dbg !9553
  %9 = load ptr, ptr %8, align 8, !dbg !9553
  %10 = getelementptr inbounds %"class.std::_Function_base", ptr %3, i32 0, i32 0, !dbg !9554
  %11 = getelementptr inbounds %"class.std::_Function_base", ptr %3, i32 0, i32 0, !dbg !9555
  %12 = invoke noundef zeroext i1 %9(ptr noundef nonnull align 8 dereferenceable(16) %10, ptr noundef nonnull align 8 dereferenceable(16) %11, i32 noundef 3)
          to label %13 unwind label %15, !dbg !9553

13:                                               ; preds = %7
  br label %14, !dbg !9553

14:                                               ; preds = %13, %1
  ret void, !dbg !9556

15:                                               ; preds = %7
  %16 = landingpad { ptr, i32 }
          catch ptr null, !dbg !9553
  %17 = extractvalue { ptr, i32 } %16, 0, !dbg !9553
  call void @__clang_call_terminate(ptr %17) #19, !dbg !9553
  unreachable, !dbg !9553
}

; Function Attrs: mustprogress noinline optnone uwtable
define linkonce_odr dso_local void @_ZSt8_DestroyIPN5mongo4stdx6threadES2_EvT_S4_RSaIT0_E(ptr noundef %0, ptr noundef %1, ptr noundef nonnull align 1 dereferenceable(1) %2) #6 comdat !dbg !9557 {
  %4 = alloca ptr, align 8
  %5 = alloca ptr, align 8
  %6 = alloca ptr, align 8
  store ptr %0, ptr %4, align 8
  call void @llvm.dbg.declare(metadata ptr %4, metadata !9562, metadata !DIExpression()), !dbg !9563
  store ptr %1, ptr %5, align 8
  call void @llvm.dbg.declare(metadata ptr %5, metadata !9564, metadata !DIExpression()), !dbg !9565
  store ptr %2, ptr %6, align 8
  call void @llvm.dbg.declare(metadata ptr %6, metadata !9566, metadata !DIExpression()), !dbg !9567
  %7 = load ptr, ptr %4, align 8, !dbg !9568
  %8 = load ptr, ptr %5, align 8, !dbg !9569
  call void @_ZSt8_DestroyIPN5mongo4stdx6threadEEvT_S4_(ptr noundef %7, ptr noundef %8), !dbg !9570
  ret void, !dbg !9571
}

; Function Attrs: mustprogress noinline nounwind optnone uwtable
define linkonce_odr dso_local noundef nonnull align 1 dereferenceable(1) ptr @_ZNSt12_Vector_baseIN5mongo4stdx6threadESaIS2_EE19_M_get_Tp_allocatorEv(ptr noundef nonnull align 8 dereferenceable(24) %0) #8 comdat align 2 !dbg !9572 {
  %2 = alloca ptr, align 8
  store ptr %0, ptr %2, align 8
  call void @llvm.dbg.declare(metadata ptr %2, metadata !9573, metadata !DIExpression()), !dbg !9574
  %3 = load ptr, ptr %2, align 8
  %4 = getelementptr inbounds %"struct.std::_Vector_base", ptr %3, i32 0, i32 0, !dbg !9575
  ret ptr %4, !dbg !9576
}

; Function Attrs: noinline nounwind optnone uwtable
define linkonce_odr dso_local void @_ZNSt12_Vector_baseIN5mongo4stdx6threadESaIS2_EED2Ev(ptr noundef nonnull align 8 dereferenceable(24) %0) unnamed_addr #2 comdat align 2 personality ptr @__gxx_personality_v0 !dbg !9577 {
  %2 = alloca ptr, align 8
  store ptr %0, ptr %2, align 8
  call void @llvm.dbg.declare(metadata ptr %2, metadata !9578, metadata !DIExpression()), !dbg !9579
  %3 = load ptr, ptr %2, align 8
  %4 = getelementptr inbounds %"struct.std::_Vector_base", ptr %3, i32 0, i32 0, !dbg !9580
  %5 = getelementptr inbounds %"struct.std::_Vector_base<mongo::stdx::thread, std::allocator<mongo::stdx::thread>>::_Vector_impl_data", ptr %4, i32 0, i32 0, !dbg !9582
  %6 = load ptr, ptr %5, align 8, !dbg !9582
  %7 = getelementptr inbounds %"struct.std::_Vector_base", ptr %3, i32 0, i32 0, !dbg !9583
  %8 = getelementptr inbounds %"struct.std::_Vector_base<mongo::stdx::thread, std::allocator<mongo::stdx::thread>>::_Vector_impl_data", ptr %7, i32 0, i32 2, !dbg !9584
  %9 = load ptr, ptr %8, align 8, !dbg !9584
  %10 = getelementptr inbounds %"struct.std::_Vector_base", ptr %3, i32 0, i32 0, !dbg !9585
  %11 = getelementptr inbounds %"struct.std::_Vector_base<mongo::stdx::thread, std::allocator<mongo::stdx::thread>>::_Vector_impl_data", ptr %10, i32 0, i32 0, !dbg !9586
  %12 = load ptr, ptr %11, align 8, !dbg !9586
  %13 = ptrtoint ptr %9 to i64, !dbg !9587
  %14 = ptrtoint ptr %12 to i64, !dbg !9587
  %15 = sub i64 %13, %14, !dbg !9587
  %16 = sdiv exact i64 %15, 8, !dbg !9587
  invoke void @_ZNSt12_Vector_baseIN5mongo4stdx6threadESaIS2_EE13_M_deallocateEPS2_m(ptr noundef nonnull align 8 dereferenceable(24) %3, ptr noundef %6, i64 noundef %16)
          to label %17 unwind label %19, !dbg !9588

17:                                               ; preds = %1
  %18 = getelementptr inbounds %"struct.std::_Vector_base", ptr %3, i32 0, i32 0, !dbg !9589
  call void @_ZNSt12_Vector_baseIN5mongo4stdx6threadESaIS2_EE12_Vector_implD2Ev(ptr noundef nonnull align 8 dereferenceable(24) %18) #1, !dbg !9589
  ret void, !dbg !9590

19:                                               ; preds = %1
  %20 = landingpad { ptr, i32 }
          catch ptr null, !dbg !9588
  %21 = extractvalue { ptr, i32 } %20, 0, !dbg !9588
  call void @__clang_call_terminate(ptr %21) #19, !dbg !9588
  unreachable, !dbg !9588
}

; Function Attrs: mustprogress noinline optnone uwtable
define linkonce_odr dso_local void @_ZSt8_DestroyIPN5mongo4stdx6threadEEvT_S4_(ptr noundef %0, ptr noundef %1) #6 comdat !dbg !9591 {
  %3 = alloca ptr, align 8
  %4 = alloca ptr, align 8
  store ptr %0, ptr %3, align 8
  call void @llvm.dbg.declare(metadata ptr %3, metadata !9596, metadata !DIExpression()), !dbg !9597
  store ptr %1, ptr %4, align 8
  call void @llvm.dbg.declare(metadata ptr %4, metadata !9598, metadata !DIExpression()), !dbg !9599
  %5 = load ptr, ptr %3, align 8, !dbg !9600
  %6 = load ptr, ptr %4, align 8, !dbg !9601
  call void @_ZNSt12_Destroy_auxILb0EE9__destroyIPN5mongo4stdx6threadEEEvT_S6_(ptr noundef %5, ptr noundef %6), !dbg !9602
  ret void, !dbg !9603
}

; Function Attrs: mustprogress noinline optnone uwtable
define linkonce_odr dso_local void @_ZNSt12_Destroy_auxILb0EE9__destroyIPN5mongo4stdx6threadEEEvT_S6_(ptr noundef %0, ptr noundef %1) #6 comdat align 2 !dbg !9604 {
  %3 = alloca ptr, align 8
  %4 = alloca ptr, align 8
  store ptr %0, ptr %3, align 8
  call void @llvm.dbg.declare(metadata ptr %3, metadata !9608, metadata !DIExpression()), !dbg !9609
  store ptr %1, ptr %4, align 8
  call void @llvm.dbg.declare(metadata ptr %4, metadata !9610, metadata !DIExpression()), !dbg !9611
  br label %5, !dbg !9612

5:                                                ; preds = %11, %2
  %6 = load ptr, ptr %3, align 8, !dbg !9613
  %7 = load ptr, ptr %4, align 8, !dbg !9616
  %8 = icmp ne ptr %6, %7, !dbg !9617
  br i1 %8, label %9, label %14, !dbg !9618

9:                                                ; preds = %5
  %10 = load ptr, ptr %3, align 8, !dbg !9619
  call void @_ZSt8_DestroyIN5mongo4stdx6threadEEvPT_(ptr noundef %10), !dbg !9620
  br label %11, !dbg !9620

11:                                               ; preds = %9
  %12 = load ptr, ptr %3, align 8, !dbg !9621
  %13 = getelementptr inbounds %"class.mongo::stdx::thread", ptr %12, i32 1, !dbg !9621
  store ptr %13, ptr %3, align 8, !dbg !9621
  br label %5, !dbg !9622, !llvm.loop !9623

14:                                               ; preds = %5
  ret void, !dbg !9625
}

; Function Attrs: mustprogress noinline nounwind optnone uwtable
define linkonce_odr dso_local void @_ZSt8_DestroyIN5mongo4stdx6threadEEvPT_(ptr noundef %0) #8 comdat !dbg !9626 {
  %2 = alloca ptr, align 8
  store ptr %0, ptr %2, align 8
  call void @llvm.dbg.declare(metadata ptr %2, metadata !9629, metadata !DIExpression()), !dbg !9630
  %3 = load ptr, ptr %2, align 8, !dbg !9631
  call void @_ZN5mongo4stdx6threadD2Ev(ptr noundef nonnull align 8 dereferenceable(8) %3) #1, !dbg !9632
  ret void, !dbg !9633
}

; Function Attrs: mustprogress noinline optnone uwtable
define linkonce_odr dso_local void @_ZNSt12_Vector_baseIN5mongo4stdx6threadESaIS2_EE13_M_deallocateEPS2_m(ptr noundef nonnull align 8 dereferenceable(24) %0, ptr noundef %1, i64 noundef %2) #6 comdat align 2 !dbg !9634 {
  %4 = alloca ptr, align 8
  %5 = alloca ptr, align 8
  %6 = alloca i64, align 8
  store ptr %0, ptr %4, align 8
  call void @llvm.dbg.declare(metadata ptr %4, metadata !9635, metadata !DIExpression()), !dbg !9636
  store ptr %1, ptr %5, align 8
  call void @llvm.dbg.declare(metadata ptr %5, metadata !9637, metadata !DIExpression()), !dbg !9638
  store i64 %2, ptr %6, align 8
  call void @llvm.dbg.declare(metadata ptr %6, metadata !9639, metadata !DIExpression()), !dbg !9640
  %7 = load ptr, ptr %4, align 8
  %8 = load ptr, ptr %5, align 8, !dbg !9641
  %9 = icmp ne ptr %8, null, !dbg !9641
  br i1 %9, label %10, label %14, !dbg !9643

10:                                               ; preds = %3
  %11 = getelementptr inbounds %"struct.std::_Vector_base", ptr %7, i32 0, i32 0, !dbg !9644
  %12 = load ptr, ptr %5, align 8, !dbg !9645
  %13 = load i64, ptr %6, align 8, !dbg !9646
  call void @_ZNSt16allocator_traitsISaIN5mongo4stdx6threadEEE10deallocateERS3_PS2_m(ptr noundef nonnull align 1 dereferenceable(1) %11, ptr noundef %12, i64 noundef %13), !dbg !9647
  br label %14, !dbg !9647

14:                                               ; preds = %10, %3
  ret void, !dbg !9648
}

; Function Attrs: noinline nounwind optnone uwtable
define linkonce_odr dso_local void @_ZNSt12_Vector_baseIN5mongo4stdx6threadESaIS2_EE12_Vector_implD2Ev(ptr noundef nonnull align 8 dereferenceable(24) %0) unnamed_addr #2 comdat align 2 !dbg !9649 {
  %2 = alloca ptr, align 8
  store ptr %0, ptr %2, align 8
  call void @llvm.dbg.declare(metadata ptr %2, metadata !9651, metadata !DIExpression()), !dbg !9652
  %3 = load ptr, ptr %2, align 8
  call void @_ZNSaIN5mongo4stdx6threadEED2Ev(ptr noundef nonnull align 1 dereferenceable(1) %3) #1, !dbg !9653
  ret void, !dbg !9655
}

; Function Attrs: mustprogress noinline optnone uwtable
define linkonce_odr dso_local void @_ZNSt16allocator_traitsISaIN5mongo4stdx6threadEEE10deallocateERS3_PS2_m(ptr noundef nonnull align 1 dereferenceable(1) %0, ptr noundef %1, i64 noundef %2) #6 comdat align 2 !dbg !9656 {
  %4 = alloca ptr, align 8
  %5 = alloca ptr, align 8
  %6 = alloca i64, align 8
  store ptr %0, ptr %4, align 8
  call void @llvm.dbg.declare(metadata ptr %4, metadata !9657, metadata !DIExpression()), !dbg !9658
  store ptr %1, ptr %5, align 8
  call void @llvm.dbg.declare(metadata ptr %5, metadata !9659, metadata !DIExpression()), !dbg !9660
  store i64 %2, ptr %6, align 8
  call void @llvm.dbg.declare(metadata ptr %6, metadata !9661, metadata !DIExpression()), !dbg !9662
  %7 = load ptr, ptr %4, align 8, !dbg !9663
  %8 = load ptr, ptr %5, align 8, !dbg !9664
  %9 = load i64, ptr %6, align 8, !dbg !9665
  call void @_ZN9__gnu_cxx13new_allocatorIN5mongo4stdx6threadEE10deallocateEPS3_m(ptr noundef nonnull align 1 dereferenceable(1) %7, ptr noundef %8, i64 noundef %9), !dbg !9666
  ret void, !dbg !9667
}

; Function Attrs: mustprogress noinline nounwind optnone uwtable
define linkonce_odr dso_local void @_ZN9__gnu_cxx13new_allocatorIN5mongo4stdx6threadEE10deallocateEPS3_m(ptr noundef nonnull align 1 dereferenceable(1) %0, ptr noundef %1, i64 noundef %2) #8 comdat align 2 !dbg !9668 {
  %4 = alloca ptr, align 8
  %5 = alloca ptr, align 8
  %6 = alloca i64, align 8
  store ptr %0, ptr %4, align 8
  call void @llvm.dbg.declare(metadata ptr %4, metadata !9669, metadata !DIExpression()), !dbg !9670
  store ptr %1, ptr %5, align 8
  call void @llvm.dbg.declare(metadata ptr %5, metadata !9671, metadata !DIExpression()), !dbg !9672
  store i64 %2, ptr %6, align 8
  call void @llvm.dbg.declare(metadata ptr %6, metadata !9673, metadata !DIExpression()), !dbg !9674
  %7 = load ptr, ptr %4, align 8
  %8 = load ptr, ptr %5, align 8, !dbg !9675
  call void @_ZdlPv(ptr noundef %8) #1, !dbg !9676
  ret void, !dbg !9677
}

; Function Attrs: noinline nounwind optnone uwtable
define linkonce_odr dso_local void @_ZNSaIN5mongo4stdx6threadEED2Ev(ptr noundef nonnull align 1 dereferenceable(1) %0) unnamed_addr #2 comdat align 2 !dbg !9678 {
  %2 = alloca ptr, align 8
  store ptr %0, ptr %2, align 8
  call void @llvm.dbg.declare(metadata ptr %2, metadata !9679, metadata !DIExpression()), !dbg !9680
  %3 = load ptr, ptr %2, align 8
  call void @_ZN9__gnu_cxx13new_allocatorIN5mongo4stdx6threadEED2Ev(ptr noundef nonnull align 1 dereferenceable(1) %3) #1, !dbg !9681
  ret void, !dbg !9683
}

; Function Attrs: noinline nounwind optnone uwtable
define linkonce_odr dso_local void @_ZN9__gnu_cxx13new_allocatorIN5mongo4stdx6threadEED2Ev(ptr noundef nonnull align 1 dereferenceable(1) %0) unnamed_addr #2 comdat align 2 !dbg !9684 {
  %2 = alloca ptr, align 8
  store ptr %0, ptr %2, align 8
  call void @llvm.dbg.declare(metadata ptr %2, metadata !9685, metadata !DIExpression()), !dbg !9686
  %3 = load ptr, ptr %2, align 8
  ret void, !dbg !9687
}

declare void @_ZN5mongo11sleepmicrosEx(i64 noundef) #3

; Function Attrs: mustprogress noinline optnone uwtable
define linkonce_odr dso_local noundef i64 @_ZN5mongo13durationCountINS_8DurationISt5ratioILl1ELl1000000EEEENS1_IS2_ILl1ELl1000EEEEEExT0_(i64 %0) #6 comdat !dbg !9688 {
  %2 = alloca %"class.mongo::Duration", align 8
  %3 = alloca %"class.mongo::Duration.28", align 8
  %4 = getelementptr inbounds %"class.mongo::Duration", ptr %2, i32 0, i32 0
  store i64 %0, ptr %4, align 8
  call void @llvm.dbg.declare(metadata ptr %2, metadata !9694, metadata !DIExpression()), !dbg !9695
  %5 = call i64 @_ZN5mongo13duration_castINS_8DurationISt5ratioILl1ELl1000000EEEES2_ILl1ELl1000EEEET_RKNS1_IT0_EE(ptr noundef nonnull align 8 dereferenceable(8) %2), !dbg !9696
  %6 = getelementptr inbounds %"class.mongo::Duration.28", ptr %3, i32 0, i32 0, !dbg !9696
  store i64 %5, ptr %6, align 8, !dbg !9696
  %7 = call noundef i64 @_ZNK5mongo8DurationISt5ratioILl1ELl1000000EEE5countEv(ptr noundef nonnull align 8 dereferenceable(8) %3), !dbg !9697
  ret i64 %7, !dbg !9698
}

; Function Attrs: mustprogress noinline optnone uwtable
define linkonce_odr dso_local i64 @_ZN5mongo13duration_castINS_8DurationISt5ratioILl1ELl1000000EEEES2_ILl1ELl1000EEEET_RKNS1_IT0_EE(ptr noundef nonnull align 8 dereferenceable(8) %0) #6 comdat !dbg !9699 {
  %2 = alloca %"class.mongo::Duration.28", align 8
  %3 = alloca ptr, align 8
  %4 = alloca i64, align 8
  %5 = alloca %class.anon.29, align 1
  store ptr %0, ptr %3, align 8
  call void @llvm.dbg.declare(metadata ptr %3, metadata !9705, metadata !DIExpression()), !dbg !9706
  call void @llvm.dbg.declare(metadata ptr %4, metadata !9707, metadata !DIExpression()), !dbg !9711
  store i64 0, ptr %4, align 8, !dbg !9711
  br label %6, !dbg !9712

6:                                                ; preds = %1
  %7 = load ptr, ptr %3, align 8, !dbg !9713
  %8 = call noundef i64 @_ZNK5mongo8DurationISt5ratioILl1ELl1000EEE5countEv(ptr noundef nonnull align 8 dereferenceable(8) %7), !dbg !9713
  %9 = call noundef zeroext i1 @_ZN5mongo8overflow3mulIlEEbNS_4stdx13type_identityIT_E4typeES6_PS4_(i64 noundef %8, i64 noundef 1000, ptr noundef %4), !dbg !9713
  %10 = xor i1 %9, true, !dbg !9713
  %11 = xor i1 %10, true, !dbg !9713
  br i1 %11, label %12, label %15, !dbg !9716

12:                                               ; preds = %6
  br label %13, !dbg !9717

13:                                               ; preds = %12
  call void @_ZZN5mongo13duration_castINS_8DurationISt5ratioILl1ELl1000000EEEES2_ILl1ELl1000EEEET_RKNS1_IT0_EEENKUlvE_clEv(ptr noundef nonnull align 1 dereferenceable(1) %5), !dbg !9719
  unreachable, !dbg !9719

14:                                               ; No predecessors!
  br label %15, !dbg !9717

15:                                               ; preds = %14, %6
  br label %16, !dbg !9716

16:                                               ; preds = %15
  call void @_ZN5mongo8DurationISt5ratioILl1ELl1000000EEEC2IlLi0EEERKT_(ptr noundef nonnull align 8 dereferenceable(8) %2, ptr noundef nonnull align 8 dereferenceable(8) %4), !dbg !9721
  %17 = getelementptr inbounds %"class.mongo::Duration.28", ptr %2, i32 0, i32 0, !dbg !9722
  %18 = load i64, ptr %17, align 8, !dbg !9722
  ret i64 %18, !dbg !9722
}

; Function Attrs: mustprogress noinline nounwind optnone uwtable
define linkonce_odr dso_local noundef i64 @_ZNK5mongo8DurationISt5ratioILl1ELl1000000EEE5countEv(ptr noundef nonnull align 8 dereferenceable(8) %0) #8 comdat align 2 !dbg !9723 {
  %2 = alloca ptr, align 8
  store ptr %0, ptr %2, align 8
  call void @llvm.dbg.declare(metadata ptr %2, metadata !9724, metadata !DIExpression()), !dbg !9726
  %3 = load ptr, ptr %2, align 8
  %4 = getelementptr inbounds %"class.mongo::Duration.28", ptr %3, i32 0, i32 0, !dbg !9727
  %5 = load i64, ptr %4, align 8, !dbg !9727
  ret i64 %5, !dbg !9728
}

; Function Attrs: mustprogress noinline nounwind optnone uwtable
define linkonce_odr dso_local noundef zeroext i1 @_ZN5mongo8overflow3mulIlEEbNS_4stdx13type_identityIT_E4typeES6_PS4_(i64 noundef %0, i64 noundef %1, ptr noundef %2) #8 comdat !dbg !9729 {
  %4 = alloca i64, align 8
  %5 = alloca i64, align 8
  %6 = alloca ptr, align 8
  store i64 %0, ptr %4, align 8
  call void @llvm.dbg.declare(metadata ptr %4, metadata !9741, metadata !DIExpression()), !dbg !9742
  store i64 %1, ptr %5, align 8
  call void @llvm.dbg.declare(metadata ptr %5, metadata !9743, metadata !DIExpression()), !dbg !9744
  store ptr %2, ptr %6, align 8
  call void @llvm.dbg.declare(metadata ptr %6, metadata !9745, metadata !DIExpression()), !dbg !9746
  %7 = load i64, ptr %4, align 8, !dbg !9747
  %8 = load i64, ptr %5, align 8, !dbg !9748
  %9 = load ptr, ptr %6, align 8, !dbg !9749
  %10 = call { i64, i1 } @llvm.smul.with.overflow.i64(i64 %7, i64 %8), !dbg !9750
  %11 = extractvalue { i64, i1 } %10, 1, !dbg !9750
  %12 = extractvalue { i64, i1 } %10, 0, !dbg !9750
  store i64 %12, ptr %9, align 8, !dbg !9750
  ret i1 %11, !dbg !9751
}

; Function Attrs: mustprogress noinline nounwind optnone uwtable
define linkonce_odr dso_local noundef i64 @_ZNK5mongo8DurationISt5ratioILl1ELl1000EEE5countEv(ptr noundef nonnull align 8 dereferenceable(8) %0) #8 comdat align 2 !dbg !9752 {
  %2 = alloca ptr, align 8
  store ptr %0, ptr %2, align 8
  call void @llvm.dbg.declare(metadata ptr %2, metadata !9753, metadata !DIExpression()), !dbg !9755
  %3 = load ptr, ptr %2, align 8
  %4 = getelementptr inbounds %"class.mongo::Duration", ptr %3, i32 0, i32 0, !dbg !9756
  %5 = load i64, ptr %4, align 8, !dbg !9756
  ret i64 %5, !dbg !9757
}

; Function Attrs: mustprogress noinline optnone uwtable
define linkonce_odr dso_local void @_ZZN5mongo13duration_castINS_8DurationISt5ratioILl1ELl1000000EEEES2_ILl1ELl1000EEEET_RKNS1_IT0_EEENKUlvE_clEv(ptr noundef nonnull align 1 dereferenceable(1) %0) #6 comdat align 2 personality ptr @__gxx_personality_v0 !dbg !9758 {
  %2 = alloca ptr, align 8
  %3 = alloca %"class.mongo::Status", align 8
  %4 = alloca ptr, align 8
  %5 = alloca i32, align 4
  store ptr %0, ptr %2, align 8
  call void @llvm.dbg.declare(metadata ptr %2, metadata !9765, metadata !DIExpression()), !dbg !9767
  %6 = load ptr, ptr %2, align 8
  call void @_ZN5mongo13error_details10makeStatusIRA80_KcEENS_6StatusEiOT_(ptr sret(%"class.mongo::Status") align 8 %3, i32 noundef 159, ptr noundef nonnull align 1 dereferenceable(80) @.str.17), !dbg !9768
  invoke void @_ZN5mongo21uassertedWithLocationERKNS_6StatusEPKcj(ptr noundef nonnull align 8 dereferenceable(8) %3, ptr noundef @.str.18, i32 noundef 91) #21
          to label %7 unwind label %8, !dbg !9768

7:                                                ; preds = %1
  unreachable, !dbg !9768

8:                                                ; preds = %1
  %9 = landingpad { ptr, i32 }
          cleanup, !dbg !9768
  %10 = extractvalue { ptr, i32 } %9, 0, !dbg !9768
  store ptr %10, ptr %4, align 8, !dbg !9768
  %11 = extractvalue { ptr, i32 } %9, 1, !dbg !9768
  store i32 %11, ptr %5, align 4, !dbg !9768
  call void @_ZN5mongo6StatusD2Ev(ptr noundef nonnull align 8 dereferenceable(8) %3) #1, !dbg !9768
  br label %12, !dbg !9768

12:                                               ; preds = %8
  %13 = load ptr, ptr %4, align 8, !dbg !9768
  %14 = load i32, ptr %5, align 4, !dbg !9768
  %15 = insertvalue { ptr, i32 } poison, ptr %13, 0, !dbg !9768
  %16 = insertvalue { ptr, i32 } %15, i32 %14, 1, !dbg !9768
  resume { ptr, i32 } %16, !dbg !9768
}

; Function Attrs: noinline nounwind optnone uwtable
define linkonce_odr dso_local void @_ZN5mongo8DurationISt5ratioILl1ELl1000000EEEC2IlLi0EEERKT_(ptr noundef nonnull align 8 dereferenceable(8) %0, ptr noundef nonnull align 8 dereferenceable(8) %1) unnamed_addr #2 comdat align 2 !dbg !9769 {
  %3 = alloca ptr, align 8
  %4 = alloca ptr, align 8
  store ptr %0, ptr %3, align 8
  call void @llvm.dbg.declare(metadata ptr %3, metadata !9777, metadata !DIExpression()), !dbg !9779
  store ptr %1, ptr %4, align 8
  call void @llvm.dbg.declare(metadata ptr %4, metadata !9780, metadata !DIExpression()), !dbg !9781
  %5 = load ptr, ptr %3, align 8
  %6 = getelementptr inbounds %"class.mongo::Duration.28", ptr %5, i32 0, i32 0, !dbg !9782
  %7 = load ptr, ptr %4, align 8, !dbg !9783
  %8 = load i64, ptr %7, align 8, !dbg !9783
  store i64 %8, ptr %6, align 8, !dbg !9782
  ret void, !dbg !9784
}

; Function Attrs: nocallback nofree nosync nounwind speculatable willreturn memory(none)
declare { i64, i1 } @llvm.smul.with.overflow.i64(i64, i64) #7

; Function Attrs: noreturn
declare void @_ZN5mongo21uassertedWithLocationERKNS_6StatusEPKcj(ptr noundef nonnull align 8 dereferenceable(8), ptr noundef, i32 noundef) #11

; Function Attrs: mustprogress noinline optnone uwtable
define linkonce_odr dso_local void @_ZN5mongo13error_details10makeStatusIRA80_KcEENS_6StatusEiOT_(ptr noalias sret(%"class.mongo::Status") align 8 %0, i32 noundef %1, ptr noundef nonnull align 1 dereferenceable(80) %2) #6 comdat !dbg !9785 {
  %4 = alloca ptr, align 8
  %5 = alloca i32, align 4
  %6 = alloca ptr, align 8
  store ptr %0, ptr %4, align 8
  store i32 %1, ptr %5, align 4
  call void @llvm.dbg.declare(metadata ptr %5, metadata !9797, metadata !DIExpression()), !dbg !9798
  store ptr %2, ptr %6, align 8
  call void @llvm.dbg.declare(metadata ptr %6, metadata !9799, metadata !DIExpression()), !dbg !9800
  %7 = load i32, ptr %5, align 4, !dbg !9801
  %8 = load ptr, ptr %6, align 8, !dbg !9802
  %9 = getelementptr inbounds [80 x i8], ptr %8, i64 0, i64 0, !dbg !9803
  call void @_ZN5mongo6StatusC1ENS_10ErrorCodes5ErrorEPKc(ptr noundef nonnull align 8 dereferenceable(8) %0, i32 noundef %7, ptr noundef %9), !dbg !9804
  ret void, !dbg !9805
}

; Function Attrs: noinline nounwind optnone uwtable
define linkonce_odr dso_local void @_ZN5mongo6StatusD2Ev(ptr noundef nonnull align 8 dereferenceable(8) %0) unnamed_addr #2 comdat align 2 personality ptr @__gxx_personality_v0 !dbg !9806 {
  %2 = alloca ptr, align 8
  store ptr %0, ptr %2, align 8
  call void @llvm.dbg.declare(metadata ptr %2, metadata !9811, metadata !DIExpression()), !dbg !9813
  %3 = load ptr, ptr %2, align 8
  %4 = getelementptr inbounds %"class.mongo::Status", ptr %3, i32 0, i32 0, !dbg !9814
  %5 = load ptr, ptr %4, align 8, !dbg !9814
  invoke void @_ZN5mongo6Status5unrefEPNS0_9ErrorInfoE(ptr noundef %5)
          to label %6 unwind label %7, !dbg !9816

6:                                                ; preds = %1
  ret void, !dbg !9817

7:                                                ; preds = %1
  %8 = landingpad { ptr, i32 }
          catch ptr null, !dbg !9816
  %9 = extractvalue { ptr, i32 } %8, 0, !dbg !9816
  call void @__clang_call_terminate(ptr %9) #19, !dbg !9816
  unreachable, !dbg !9816
}

declare void @_ZN5mongo6StatusC1ENS_10ErrorCodes5ErrorEPKc(ptr noundef nonnull align 8 dereferenceable(8), i32 noundef, ptr noundef) unnamed_addr #3

; Function Attrs: mustprogress noinline optnone uwtable
define linkonce_odr dso_local void @_ZN5mongo6Status5unrefEPNS0_9ErrorInfoE(ptr noundef %0) #6 comdat align 2 !dbg !9818 {
  %2 = alloca ptr, align 8
  store ptr %0, ptr %2, align 8
  call void @llvm.dbg.declare(metadata ptr %2, metadata !9824, metadata !DIExpression()), !dbg !9825
  %3 = load ptr, ptr %2, align 8, !dbg !9826
  %4 = icmp ne ptr %3, null, !dbg !9826
  br i1 %4, label %5, label %15, !dbg !9828

5:                                                ; preds = %1
  %6 = load ptr, ptr %2, align 8, !dbg !9829
  %7 = getelementptr inbounds %"struct.mongo::Status::ErrorInfo", ptr %6, i32 0, i32 0, !dbg !9830
  %8 = call noundef i32 @_ZN5mongo18atomic_word_detail4BaseIjLNS0_8CategoryE1EE16subtractAndFetchEj(ptr noundef nonnull align 4 dereferenceable(4) %7, i32 noundef 1), !dbg !9831
  %9 = icmp eq i32 %8, 0, !dbg !9832
  br i1 %9, label %10, label %15, !dbg !9833

10:                                               ; preds = %5
  %11 = load ptr, ptr %2, align 8, !dbg !9834
  %12 = icmp eq ptr %11, null, !dbg !9835
  br i1 %12, label %14, label %13, !dbg !9835

13:                                               ; preds = %10
  call void @_ZN5mongo6Status9ErrorInfoD2Ev(ptr noundef nonnull align 8 dereferenceable(56) %11) #1, !dbg !9835
  call void @_ZdlPv(ptr noundef %11) #20, !dbg !9835
  br label %14, !dbg !9835

14:                                               ; preds = %13, %10
  br label %15, !dbg !9835

15:                                               ; preds = %14, %5, %1
  ret void, !dbg !9836
}

; Function Attrs: mustprogress noinline optnone uwtable
define linkonce_odr dso_local noundef i32 @_ZN5mongo18atomic_word_detail4BaseIjLNS0_8CategoryE1EE16subtractAndFetchEj(ptr noundef nonnull align 4 dereferenceable(4) %0, i32 noundef %1) #6 comdat align 2 !dbg !9837 {
  %3 = alloca ptr, align 8
  %4 = alloca i32, align 4
  store ptr %0, ptr %3, align 8
  call void @llvm.dbg.declare(metadata ptr %3, metadata !9852, metadata !DIExpression()), !dbg !9854
  store i32 %1, ptr %4, align 4
  call void @llvm.dbg.declare(metadata ptr %4, metadata !9855, metadata !DIExpression()), !dbg !9856
  %5 = load ptr, ptr %3, align 8
  %6 = load i32, ptr %4, align 4, !dbg !9857
  %7 = call noundef i32 @_ZN5mongo18atomic_word_detail4BaseIjLNS0_8CategoryE1EE16fetchAndSubtractEj(ptr noundef nonnull align 4 dereferenceable(4) %5, i32 noundef %6), !dbg !9858
  %8 = load i32, ptr %4, align 4, !dbg !9859
  %9 = sub i32 %7, %8, !dbg !9860
  ret i32 %9, !dbg !9861
}

; Function Attrs: noinline nounwind optnone uwtable
define linkonce_odr dso_local void @_ZN5mongo6Status9ErrorInfoD2Ev(ptr noundef nonnull align 8 dereferenceable(56) %0) unnamed_addr #2 comdat align 2 !dbg !9862 {
  %2 = alloca ptr, align 8
  store ptr %0, ptr %2, align 8
  call void @llvm.dbg.declare(metadata ptr %2, metadata !9867, metadata !DIExpression()), !dbg !9868
  %3 = load ptr, ptr %2, align 8
  %4 = getelementptr inbounds %"struct.mongo::Status::ErrorInfo", ptr %3, i32 0, i32 3, !dbg !9869
  call void @_ZNSt10shared_ptrIKN5mongo14ErrorExtraInfoEED2Ev(ptr noundef nonnull align 8 dereferenceable(16) %4) #1, !dbg !9869
  %5 = getelementptr inbounds %"struct.mongo::Status::ErrorInfo", ptr %3, i32 0, i32 2, !dbg !9869
  call void @_ZNSt7__cxx1112basic_stringIcSt11char_traitsIcESaIcEED1Ev(ptr noundef nonnull align 8 dereferenceable(32) %5) #1, !dbg !9869
  ret void, !dbg !9871
}

; Function Attrs: mustprogress noinline nounwind optnone uwtable
define linkonce_odr dso_local noundef i32 @_ZN5mongo18atomic_word_detail4BaseIjLNS0_8CategoryE1EE16fetchAndSubtractEj(ptr noundef nonnull align 4 dereferenceable(4) %0, i32 noundef %1) #8 comdat align 2 !dbg !9872 {
  %3 = alloca ptr, align 8
  %4 = alloca i32, align 4
  %5 = alloca i32, align 4
  %6 = alloca i32, align 4
  %7 = alloca i32, align 4
  %8 = alloca ptr, align 8
  %9 = alloca i32, align 4
  store ptr %0, ptr %8, align 8
  call void @llvm.dbg.declare(metadata ptr %8, metadata !9873, metadata !DIExpression()), !dbg !9874
  store i32 %1, ptr %9, align 4
  call void @llvm.dbg.declare(metadata ptr %9, metadata !9875, metadata !DIExpression()), !dbg !9876
  %10 = load ptr, ptr %8, align 8
  %11 = getelementptr inbounds %"class.mongo::atomic_word_detail::Base.34", ptr %10, i32 0, i32 0, !dbg !9877
  %12 = load i32, ptr %9, align 4, !dbg !9878
  store ptr %11, ptr %3, align 8
  call void @llvm.dbg.declare(metadata ptr %3, metadata !9879, metadata !DIExpression()), !dbg !9882
  store i32 %12, ptr %4, align 4
  call void @llvm.dbg.declare(metadata ptr %4, metadata !9884, metadata !DIExpression()), !dbg !9885
  store i32 5, ptr %5, align 4
  call void @llvm.dbg.declare(metadata ptr %5, metadata !9886, metadata !DIExpression()), !dbg !9887
  %13 = load ptr, ptr %3, align 8
  %14 = load i32, ptr %5, align 4, !dbg !9888
  %15 = load i32, ptr %4, align 4, !dbg !9889
  store i32 %15, ptr %6, align 4, !dbg !9890
  switch i32 %14, label %16 [
    i32 1, label %19
    i32 2, label %19
    i32 3, label %22
    i32 4, label %25
    i32 5, label %28
  ], !dbg !9890

16:                                               ; preds = %2
  %17 = load i32, ptr %6, align 4, !dbg !9890
  %18 = atomicrmw sub ptr %13, i32 %17 monotonic, align 4, !dbg !9890
  store i32 %18, ptr %7, align 4, !dbg !9890
  br label %31, !dbg !9890

19:                                               ; preds = %2, %2
  %20 = load i32, ptr %6, align 4, !dbg !9890
  %21 = atomicrmw sub ptr %13, i32 %20 acquire, align 4, !dbg !9890
  store i32 %21, ptr %7, align 4, !dbg !9890
  br label %31, !dbg !9890

22:                                               ; preds = %2
  %23 = load i32, ptr %6, align 4, !dbg !9890
  %24 = atomicrmw sub ptr %13, i32 %23 release, align 4, !dbg !9890
  store i32 %24, ptr %7, align 4, !dbg !9890
  br label %31, !dbg !9890

25:                                               ; preds = %2
  %26 = load i32, ptr %6, align 4, !dbg !9890
  %27 = atomicrmw sub ptr %13, i32 %26 acq_rel, align 4, !dbg !9890
  store i32 %27, ptr %7, align 4, !dbg !9890
  br label %31, !dbg !9890

28:                                               ; preds = %2
  %29 = load i32, ptr %6, align 4, !dbg !9890
  %30 = atomicrmw sub ptr %13, i32 %29 seq_cst, align 4, !dbg !9890
  store i32 %30, ptr %7, align 4, !dbg !9890
  br label %31, !dbg !9890

31:                                               ; preds = %16, %19, %22, %25, %28
  %32 = load i32, ptr %7, align 4, !dbg !9890
  ret i32 %32, !dbg !9891
}

; Function Attrs: noinline nounwind optnone uwtable
define linkonce_odr dso_local void @_ZNSt10shared_ptrIKN5mongo14ErrorExtraInfoEED2Ev(ptr noundef nonnull align 8 dereferenceable(16) %0) unnamed_addr #2 comdat align 2 !dbg !9892 {
  %2 = alloca ptr, align 8
  store ptr %0, ptr %2, align 8
  call void @llvm.dbg.declare(metadata ptr %2, metadata !9894, metadata !DIExpression()), !dbg !9896
  %3 = load ptr, ptr %2, align 8
  call void @_ZNSt12__shared_ptrIKN5mongo14ErrorExtraInfoELN9__gnu_cxx12_Lock_policyE2EED2Ev(ptr noundef nonnull align 8 dereferenceable(16) %3) #1, !dbg !9897
  ret void, !dbg !9899
}

; Function Attrs: noinline nounwind optnone uwtable
define linkonce_odr dso_local void @_ZNSt12__shared_ptrIKN5mongo14ErrorExtraInfoELN9__gnu_cxx12_Lock_policyE2EED2Ev(ptr noundef nonnull align 8 dereferenceable(16) %0) unnamed_addr #2 comdat align 2 !dbg !9900 {
  %2 = alloca ptr, align 8
  store ptr %0, ptr %2, align 8
  call void @llvm.dbg.declare(metadata ptr %2, metadata !9901, metadata !DIExpression()), !dbg !9903
  %3 = load ptr, ptr %2, align 8
  %4 = getelementptr inbounds %"class.std::__shared_ptr.38", ptr %3, i32 0, i32 1, !dbg !9904
  call void @_ZNSt14__shared_countILN9__gnu_cxx12_Lock_policyE2EED2Ev(ptr noundef nonnull align 8 dereferenceable(8) %4) #1, !dbg !9904
  ret void, !dbg !9906
}

; Function Attrs: mustprogress noinline nounwind optnone uwtable
define internal void @"_ZNSt16allocator_traitsISaIN5mongo4stdx6threadEEE9constructIS2_JZNS0_81UnitTest_SuiteNameThreadSafetyContextTestTestNameCreateThreadsWithNoSafetyContext7_doTestEvE3$_0EEEvRS3_PT_DpOT0_"(ptr noundef nonnull align 1 dereferenceable(1) %0, ptr noundef %1, ptr noundef nonnull align 1 dereferenceable(1) %2) #8 align 2 !dbg !9907 {
  %4 = alloca ptr, align 8
  %5 = alloca ptr, align 8
  %6 = alloca ptr, align 8
  store ptr %0, ptr %4, align 8
  call void @llvm.dbg.declare(metadata ptr %4, metadata !9913, metadata !DIExpression()), !dbg !9914
  store ptr %1, ptr %5, align 8
  call void @llvm.dbg.declare(metadata ptr %5, metadata !9915, metadata !DIExpression()), !dbg !9916
  store ptr %2, ptr %6, align 8
  call void @llvm.dbg.declare(metadata ptr %6, metadata !9917, metadata !DIExpression()), !dbg !9918
  %7 = load ptr, ptr %4, align 8, !dbg !9919
  %8 = load ptr, ptr %5, align 8, !dbg !9920
  %9 = load ptr, ptr %6, align 8, !dbg !9921
  call void @"_ZN9__gnu_cxx13new_allocatorIN5mongo4stdx6threadEE9constructIS3_JZNS1_81UnitTest_SuiteNameThreadSafetyContextTestTestNameCreateThreadsWithNoSafetyContext7_doTestEvE3$_0EEEvPT_DpOT0_"(ptr noundef nonnull align 1 dereferenceable(1) %7, ptr noundef %8, ptr noundef nonnull align 1 dereferenceable(1) %9) #1, !dbg !9922
  ret void, !dbg !9923
}

; Function Attrs: mustprogress noinline optnone uwtable
define internal void @"_ZNSt6vectorIN5mongo4stdx6threadESaIS2_EE17_M_realloc_insertIJZNS0_81UnitTest_SuiteNameThreadSafetyContextTestTestNameCreateThreadsWithNoSafetyContext7_doTestEvE3$_0EEEvN9__gnu_cxx17__normal_iteratorIPS2_S4_EEDpOT_"(ptr noundef nonnull align 8 dereferenceable(24) %0, ptr %1, ptr noundef nonnull align 1 dereferenceable(1) %2) #6 align 2 !dbg !9924 {
  %4 = alloca %"class.__gnu_cxx::__normal_iterator", align 8
  %5 = alloca ptr, align 8
  %6 = alloca ptr, align 8
  %7 = alloca i64, align 8
  %8 = alloca ptr, align 8
  %9 = alloca ptr, align 8
  %10 = alloca i64, align 8
  %11 = alloca %"class.__gnu_cxx::__normal_iterator", align 8
  %12 = alloca ptr, align 8
  %13 = alloca ptr, align 8
  %14 = getelementptr inbounds %"class.__gnu_cxx::__normal_iterator", ptr %4, i32 0, i32 0
  store ptr %1, ptr %14, align 8
  store ptr %0, ptr %5, align 8
  call void @llvm.dbg.declare(metadata ptr %5, metadata !9928, metadata !DIExpression()), !dbg !9929
  call void @llvm.dbg.declare(metadata ptr %4, metadata !9930, metadata !DIExpression()), !dbg !9931
  store ptr %2, ptr %6, align 8
  call void @llvm.dbg.declare(metadata ptr %6, metadata !9932, metadata !DIExpression()), !dbg !9933
  %15 = load ptr, ptr %5, align 8
  call void @llvm.dbg.declare(metadata ptr %7, metadata !9934, metadata !DIExpression()), !dbg !9936
  %16 = call noundef i64 @_ZNKSt6vectorIN5mongo4stdx6threadESaIS2_EE12_M_check_lenEmPKc(ptr noundef nonnull align 8 dereferenceable(24) %15, i64 noundef 1, ptr noundef @.str.19), !dbg !9937
  store i64 %16, ptr %7, align 8, !dbg !9936
  call void @llvm.dbg.declare(metadata ptr %8, metadata !9938, metadata !DIExpression()), !dbg !9939
  %17 = getelementptr inbounds %"struct.std::_Vector_base", ptr %15, i32 0, i32 0, !dbg !9940
  %18 = getelementptr inbounds %"struct.std::_Vector_base<mongo::stdx::thread, std::allocator<mongo::stdx::thread>>::_Vector_impl_data", ptr %17, i32 0, i32 0, !dbg !9941
  %19 = load ptr, ptr %18, align 8, !dbg !9941
  store ptr %19, ptr %8, align 8, !dbg !9939
  call void @llvm.dbg.declare(metadata ptr %9, metadata !9942, metadata !DIExpression()), !dbg !9943
  %20 = getelementptr inbounds %"struct.std::_Vector_base", ptr %15, i32 0, i32 0, !dbg !9944
  %21 = getelementptr inbounds %"struct.std::_Vector_base<mongo::stdx::thread, std::allocator<mongo::stdx::thread>>::_Vector_impl_data", ptr %20, i32 0, i32 1, !dbg !9945
  %22 = load ptr, ptr %21, align 8, !dbg !9945
  store ptr %22, ptr %9, align 8, !dbg !9943
  call void @llvm.dbg.declare(metadata ptr %10, metadata !9946, metadata !DIExpression()), !dbg !9947
  %23 = call ptr @_ZNSt6vectorIN5mongo4stdx6threadESaIS2_EE5beginEv(ptr noundef nonnull align 8 dereferenceable(24) %15) #1, !dbg !9948
  %24 = getelementptr inbounds %"class.__gnu_cxx::__normal_iterator", ptr %11, i32 0, i32 0, !dbg !9948
  store ptr %23, ptr %24, align 8, !dbg !9948
  %25 = call noundef i64 @_ZN9__gnu_cxxmiIPN5mongo4stdx6threadESt6vectorIS3_SaIS3_EEEENS_17__normal_iteratorIT_T0_E15difference_typeERKSB_SE_(ptr noundef nonnull align 8 dereferenceable(8) %4, ptr noundef nonnull align 8 dereferenceable(8) %11) #1, !dbg !9949
  store i64 %25, ptr %10, align 8, !dbg !9947
  call void @llvm.dbg.declare(metadata ptr %12, metadata !9950, metadata !DIExpression()), !dbg !9951
  %26 = load i64, ptr %7, align 8, !dbg !9952
  %27 = call noundef ptr @_ZNSt12_Vector_baseIN5mongo4stdx6threadESaIS2_EE11_M_allocateEm(ptr noundef nonnull align 8 dereferenceable(24) %15, i64 noundef %26), !dbg !9953
  store ptr %27, ptr %12, align 8, !dbg !9951
  call void @llvm.dbg.declare(metadata ptr %13, metadata !9954, metadata !DIExpression()), !dbg !9955
  %28 = load ptr, ptr %12, align 8, !dbg !9956
  store ptr %28, ptr %13, align 8, !dbg !9955
  %29 = getelementptr inbounds %"struct.std::_Vector_base", ptr %15, i32 0, i32 0, !dbg !9957
  %30 = load ptr, ptr %12, align 8, !dbg !9959
  %31 = load i64, ptr %10, align 8, !dbg !9960
  %32 = getelementptr inbounds %"class.mongo::stdx::thread", ptr %30, i64 %31, !dbg !9961
  %33 = load ptr, ptr %6, align 8, !dbg !9962
  call void @"_ZNSt16allocator_traitsISaIN5mongo4stdx6threadEEE9constructIS2_JZNS0_81UnitTest_SuiteNameThreadSafetyContextTestTestNameCreateThreadsWithNoSafetyContext7_doTestEvE3$_0EEEvRS3_PT_DpOT0_"(ptr noundef nonnull align 1 dereferenceable(1) %29, ptr noundef %32, ptr noundef nonnull align 1 dereferenceable(1) %33) #1, !dbg !9963
  store ptr null, ptr %13, align 8, !dbg !9964
  %34 = load ptr, ptr %8, align 8, !dbg !9965
  %35 = call noundef nonnull align 8 dereferenceable(8) ptr @_ZNK9__gnu_cxx17__normal_iteratorIPN5mongo4stdx6threadESt6vectorIS3_SaIS3_EEE4baseEv(ptr noundef nonnull align 8 dereferenceable(8) %4) #1, !dbg !9968
  %36 = load ptr, ptr %35, align 8, !dbg !9968
  %37 = load ptr, ptr %12, align 8, !dbg !9969
  %38 = call noundef nonnull align 1 dereferenceable(1) ptr @_ZNSt12_Vector_baseIN5mongo4stdx6threadESaIS2_EE19_M_get_Tp_allocatorEv(ptr noundef nonnull align 8 dereferenceable(24) %15) #1, !dbg !9970
  %39 = call noundef ptr @_ZNSt6vectorIN5mongo4stdx6threadESaIS2_EE11_S_relocateEPS2_S5_S5_RS3_(ptr noundef %34, ptr noundef %36, ptr noundef %37, ptr noundef nonnull align 1 dereferenceable(1) %38) #1, !dbg !9971
  store ptr %39, ptr %13, align 8, !dbg !9972
  %40 = load ptr, ptr %13, align 8, !dbg !9973
  %41 = getelementptr inbounds %"class.mongo::stdx::thread", ptr %40, i32 1, !dbg !9973
  store ptr %41, ptr %13, align 8, !dbg !9973
  %42 = call noundef nonnull align 8 dereferenceable(8) ptr @_ZNK9__gnu_cxx17__normal_iteratorIPN5mongo4stdx6threadESt6vectorIS3_SaIS3_EEE4baseEv(ptr noundef nonnull align 8 dereferenceable(8) %4) #1, !dbg !9974
  %43 = load ptr, ptr %42, align 8, !dbg !9974
  %44 = load ptr, ptr %9, align 8, !dbg !9975
  %45 = load ptr, ptr %13, align 8, !dbg !9976
  %46 = call noundef nonnull align 1 dereferenceable(1) ptr @_ZNSt12_Vector_baseIN5mongo4stdx6threadESaIS2_EE19_M_get_Tp_allocatorEv(ptr noundef nonnull align 8 dereferenceable(24) %15) #1, !dbg !9977
  %47 = call noundef ptr @_ZNSt6vectorIN5mongo4stdx6threadESaIS2_EE11_S_relocateEPS2_S5_S5_RS3_(ptr noundef %43, ptr noundef %44, ptr noundef %45, ptr noundef nonnull align 1 dereferenceable(1) %46) #1, !dbg !9978
  store ptr %47, ptr %13, align 8, !dbg !9979
  %48 = load ptr, ptr %8, align 8, !dbg !9980
  %49 = getelementptr inbounds %"struct.std::_Vector_base", ptr %15, i32 0, i32 0, !dbg !9981
  %50 = getelementptr inbounds %"struct.std::_Vector_base<mongo::stdx::thread, std::allocator<mongo::stdx::thread>>::_Vector_impl_data", ptr %49, i32 0, i32 2, !dbg !9982
  %51 = load ptr, ptr %50, align 8, !dbg !9982
  %52 = load ptr, ptr %8, align 8, !dbg !9983
  %53 = ptrtoint ptr %51 to i64, !dbg !9984
  %54 = ptrtoint ptr %52 to i64, !dbg !9984
  %55 = sub i64 %53, %54, !dbg !9984
  %56 = sdiv exact i64 %55, 8, !dbg !9984
  call void @_ZNSt12_Vector_baseIN5mongo4stdx6threadESaIS2_EE13_M_deallocateEPS2_m(ptr noundef nonnull align 8 dereferenceable(24) %15, ptr noundef %48, i64 noundef %56), !dbg !9985
  %57 = load ptr, ptr %12, align 8, !dbg !9986
  %58 = getelementptr inbounds %"struct.std::_Vector_base", ptr %15, i32 0, i32 0, !dbg !9987
  %59 = getelementptr inbounds %"struct.std::_Vector_base<mongo::stdx::thread, std::allocator<mongo::stdx::thread>>::_Vector_impl_data", ptr %58, i32 0, i32 0, !dbg !9988
  store ptr %57, ptr %59, align 8, !dbg !9989
  %60 = load ptr, ptr %13, align 8, !dbg !9990
  %61 = getelementptr inbounds %"struct.std::_Vector_base", ptr %15, i32 0, i32 0, !dbg !9991
  %62 = getelementptr inbounds %"struct.std::_Vector_base<mongo::stdx::thread, std::allocator<mongo::stdx::thread>>::_Vector_impl_data", ptr %61, i32 0, i32 1, !dbg !9992
  store ptr %60, ptr %62, align 8, !dbg !9993
  %63 = load ptr, ptr %12, align 8, !dbg !9994
  %64 = load i64, ptr %7, align 8, !dbg !9995
  %65 = getelementptr inbounds %"class.mongo::stdx::thread", ptr %63, i64 %64, !dbg !9996
  %66 = getelementptr inbounds %"struct.std::_Vector_base", ptr %15, i32 0, i32 0, !dbg !9997
  %67 = getelementptr inbounds %"struct.std::_Vector_base<mongo::stdx::thread, std::allocator<mongo::stdx::thread>>::_Vector_impl_data", ptr %66, i32 0, i32 2, !dbg !9998
  store ptr %65, ptr %67, align 8, !dbg !9999
  ret void, !dbg !10000
}

; Function Attrs: mustprogress noinline nounwind optnone uwtable
define linkonce_odr dso_local ptr @_ZNSt6vectorIN5mongo4stdx6threadESaIS2_EE3endEv(ptr noundef nonnull align 8 dereferenceable(24) %0) #8 comdat align 2 !dbg !10001 {
  %2 = alloca %"class.__gnu_cxx::__normal_iterator", align 8
  %3 = alloca ptr, align 8
  store ptr %0, ptr %3, align 8
  call void @llvm.dbg.declare(metadata ptr %3, metadata !10002, metadata !DIExpression()), !dbg !10003
  %4 = load ptr, ptr %3, align 8
  %5 = getelementptr inbounds %"struct.std::_Vector_base", ptr %4, i32 0, i32 0, !dbg !10004
  %6 = getelementptr inbounds %"struct.std::_Vector_base<mongo::stdx::thread, std::allocator<mongo::stdx::thread>>::_Vector_impl_data", ptr %5, i32 0, i32 1, !dbg !10005
  call void @_ZN9__gnu_cxx17__normal_iteratorIPN5mongo4stdx6threadESt6vectorIS3_SaIS3_EEEC2ERKS4_(ptr noundef nonnull align 8 dereferenceable(8) %2, ptr noundef nonnull align 8 dereferenceable(8) %6) #1, !dbg !10006
  %7 = getelementptr inbounds %"class.__gnu_cxx::__normal_iterator", ptr %2, i32 0, i32 0, !dbg !10007
  %8 = load ptr, ptr %7, align 8, !dbg !10007
  ret ptr %8, !dbg !10007
}

; Function Attrs: mustprogress noinline nounwind optnone uwtable
define linkonce_odr dso_local noundef nonnull align 8 dereferenceable(8) ptr @_ZNSt6vectorIN5mongo4stdx6threadESaIS2_EE4backEv(ptr noundef nonnull align 8 dereferenceable(24) %0) #8 comdat align 2 !dbg !10008 {
  %2 = alloca ptr, align 8
  %3 = alloca %"class.__gnu_cxx::__normal_iterator", align 8
  %4 = alloca %"class.__gnu_cxx::__normal_iterator", align 8
  store ptr %0, ptr %2, align 8
  call void @llvm.dbg.declare(metadata ptr %2, metadata !10009, metadata !DIExpression()), !dbg !10010
  %5 = load ptr, ptr %2, align 8
  %6 = call ptr @_ZNSt6vectorIN5mongo4stdx6threadESaIS2_EE3endEv(ptr noundef nonnull align 8 dereferenceable(24) %5) #1, !dbg !10011
  %7 = getelementptr inbounds %"class.__gnu_cxx::__normal_iterator", ptr %4, i32 0, i32 0, !dbg !10011
  store ptr %6, ptr %7, align 8, !dbg !10011
  %8 = call ptr @_ZNK9__gnu_cxx17__normal_iteratorIPN5mongo4stdx6threadESt6vectorIS3_SaIS3_EEEmiEl(ptr noundef nonnull align 8 dereferenceable(8) %4, i64 noundef 1) #1, !dbg !10012
  %9 = getelementptr inbounds %"class.__gnu_cxx::__normal_iterator", ptr %3, i32 0, i32 0, !dbg !10012
  store ptr %8, ptr %9, align 8, !dbg !10012
  %10 = call noundef nonnull align 8 dereferenceable(8) ptr @_ZNK9__gnu_cxx17__normal_iteratorIPN5mongo4stdx6threadESt6vectorIS3_SaIS3_EEEdeEv(ptr noundef nonnull align 8 dereferenceable(8) %3) #1, !dbg !10013
  ret ptr %10, !dbg !10014
}

; Function Attrs: mustprogress noinline nounwind optnone uwtable
define internal void @"_ZN9__gnu_cxx13new_allocatorIN5mongo4stdx6threadEE9constructIS3_JZNS1_81UnitTest_SuiteNameThreadSafetyContextTestTestNameCreateThreadsWithNoSafetyContext7_doTestEvE3$_0EEEvPT_DpOT0_"(ptr noundef nonnull align 1 dereferenceable(1) %0, ptr noundef %1, ptr noundef nonnull align 1 dereferenceable(1) %2) #8 align 2 !dbg !10015 {
  %4 = alloca ptr, align 8
  %5 = alloca ptr, align 8
  %6 = alloca ptr, align 8
  %7 = alloca %class.anon, align 1
  store ptr %0, ptr %4, align 8
  call void @llvm.dbg.declare(metadata ptr %4, metadata !10019, metadata !DIExpression()), !dbg !10020
  store ptr %1, ptr %5, align 8
  call void @llvm.dbg.declare(metadata ptr %5, metadata !10021, metadata !DIExpression()), !dbg !10022
  store ptr %2, ptr %6, align 8
  call void @llvm.dbg.declare(metadata ptr %6, metadata !10023, metadata !DIExpression()), !dbg !10024
  %8 = load ptr, ptr %4, align 8
  %9 = load ptr, ptr %5, align 8, !dbg !10025
  %10 = load ptr, ptr %6, align 8, !dbg !10026
  call void @"_ZN5mongo4stdx6threadC2IZNS_81UnitTest_SuiteNameThreadSafetyContextTestTestNameCreateThreadsWithNoSafetyContext7_doTestEvE3$_0JELi0EEET_DpOT0_"(ptr noundef nonnull align 8 dereferenceable(8) %9) #1, !dbg !10027
  ret void, !dbg !10028
}

; Function Attrs: noinline nounwind optnone uwtable
define internal void @"_ZN5mongo4stdx6threadC2IZNS_81UnitTest_SuiteNameThreadSafetyContextTestTestNameCreateThreadsWithNoSafetyContext7_doTestEvE3$_0JELi0EEET_DpOT0_"(ptr noundef nonnull align 8 dereferenceable(8) %0) unnamed_addr #2 align 2 personality ptr @__gxx_personality_v0 !dbg !2756 {
  %2 = alloca %class.anon, align 1
  %3 = alloca ptr, align 8
  %4 = alloca %class.anon.40, align 8
  %5 = alloca %"class.std::tuple.43", align 1
  store ptr %0, ptr %3, align 8
  call void @llvm.dbg.declare(metadata ptr %3, metadata !10029, metadata !DIExpression()), !dbg !10030
  call void @llvm.dbg.declare(metadata ptr %2, metadata !10031, metadata !DIExpression()), !dbg !10032
  %6 = load ptr, ptr %3, align 8
  %7 = getelementptr inbounds %class.anon.40, ptr %4, i32 0, i32 0, !dbg !10033
  call void @llvm.memset.p0.i64(ptr align 8 %7, i8 0, i64 8, i1 false), !dbg !10034
  invoke void @_ZN5mongo4stdx7support21SigAltStackControllerC2Ev(ptr noundef nonnull align 8 dereferenceable(8) %7)
          to label %8 unwind label %13, !dbg !10034

8:                                                ; preds = %1
  %9 = getelementptr inbounds %class.anon.40, ptr %4, i32 0, i32 1, !dbg !10033
  %10 = getelementptr inbounds %class.anon.40, ptr %4, i32 0, i32 2, !dbg !10033
  invoke void @_ZSt10make_tupleIJEESt5tupleIJDpNSt25__strip_reference_wrapperINSt5decayIT_E4typeEE6__typeEEEDpOS3_()
          to label %11 unwind label %13, !dbg !10035

11:                                               ; preds = %8
  invoke void @"_ZNSt6threadC2IZN5mongo4stdx6threadC1IZNS1_81UnitTest_SuiteNameThreadSafetyContextTestTestNameCreateThreadsWithNoSafetyContext7_doTestEvE3$_0JELi0EEET_DpOT0_EUlvE_JEvEEOS7_SA_"(ptr noundef nonnull align 8 dereferenceable(8) %6, ptr noundef nonnull align 8 dereferenceable(10) %4)
          to label %12 unwind label %13, !dbg !10036

12:                                               ; preds = %11
  call void @"_ZZN5mongo4stdx6threadC1IZNS_81UnitTest_SuiteNameThreadSafetyContextTestTestNameCreateThreadsWithNoSafetyContext7_doTestEvE3$_0JELi0EEET_DpOT0_ENUlvE_D2Ev"(ptr noundef nonnull align 8 dereferenceable(10) %4) #1, !dbg !10036
  ret void, !dbg !10037

13:                                               ; preds = %11, %8, %1
  %14 = landingpad { ptr, i32 }
          catch ptr null, !dbg !10034
  %15 = extractvalue { ptr, i32 } %14, 0, !dbg !10034
  call void @__clang_call_terminate(ptr %15) #19, !dbg !10034
  unreachable, !dbg !10034
}

; Function Attrs: noinline optnone uwtable
define linkonce_odr dso_local void @_ZN5mongo4stdx7support21SigAltStackControllerC2Ev(ptr noundef nonnull align 8 dereferenceable(8) %0) unnamed_addr #5 comdat align 2 !dbg !10038 {
  %2 = alloca ptr, align 8
  store ptr %0, ptr %2, align 8
  call void @llvm.dbg.declare(metadata ptr %2, metadata !10043, metadata !DIExpression()), !dbg !10045
  %3 = load ptr, ptr %2, align 8
  %4 = getelementptr inbounds %"class.mongo::stdx::support::SigAltStackController", ptr %3, i32 0, i32 0, !dbg !10046
  %5 = call noundef i64 @_ZNK5mongo4stdx7support21SigAltStackController12getStackSizeEv(ptr noundef nonnull align 8 dereferenceable(8) %3), !dbg !10047
  call void @_ZSt11make_uniqueIA_St4byteENSt9_MakeUniqIT_E7__arrayEm(ptr sret(%"class.std::unique_ptr") align 8 %4, i64 noundef %5), !dbg !10048
  ret void, !dbg !10049
}

; Function Attrs: mustprogress noinline nounwind optnone uwtable
define linkonce_odr dso_local void @_ZSt10make_tupleIJEESt5tupleIJDpNSt25__strip_reference_wrapperINSt5decayIT_E4typeEE6__typeEEEDpOS3_() #8 comdat !dbg !10050 {
  ret void, !dbg !10053
}

; Function Attrs: noinline optnone uwtable
define internal void @"_ZNSt6threadC2IZN5mongo4stdx6threadC1IZNS1_81UnitTest_SuiteNameThreadSafetyContextTestTestNameCreateThreadsWithNoSafetyContext7_doTestEvE3$_0JELi0EEET_DpOT0_EUlvE_JEvEEOS7_SA_"(ptr noundef nonnull align 8 dereferenceable(8) %0, ptr noundef nonnull align 8 dereferenceable(10) %1) unnamed_addr #5 align 2 personality ptr @__gxx_personality_v0 !dbg !10054 {
  %3 = alloca ptr, align 8
  %4 = alloca ptr, align 8
  %5 = alloca ptr, align 8
  %6 = alloca %"class.std::unique_ptr.45", align 8
  %7 = alloca ptr, align 8
  %8 = alloca i32, align 4
  store ptr %0, ptr %3, align 8
  call void @llvm.dbg.declare(metadata ptr %3, metadata !10060, metadata !DIExpression()), !dbg !10061
  store ptr %1, ptr %4, align 8
  call void @llvm.dbg.declare(metadata ptr %4, metadata !10062, metadata !DIExpression()), !dbg !10063
  %9 = load ptr, ptr %3, align 8
  %10 = getelementptr inbounds %"class.std::thread", ptr %9, i32 0, i32 0, !dbg !10064
  call void @_ZNSt6thread2idC2Ev(ptr noundef nonnull align 8 dereferenceable(8) %10) #1, !dbg !10064
  call void @llvm.dbg.declare(metadata ptr %5, metadata !10065, metadata !DIExpression()), !dbg !10067
  store ptr null, ptr %5, align 8, !dbg !10067
  %11 = call noalias noundef nonnull ptr @_Znwm(i64 noundef 24) #22, !dbg !10068, !heapallocsite !10069
  %12 = load ptr, ptr %4, align 8, !dbg !10079
  invoke void @"_ZNSt6thread11_State_implINS_8_InvokerISt5tupleIJZN5mongo4stdx6threadC1IZNS3_81UnitTest_SuiteNameThreadSafetyContextTestTestNameCreateThreadsWithNoSafetyContext7_doTestEvE3$_0JELi0EEET_DpOT0_EUlvE_EEEEEC2IJSD_EEEDpOT_"(ptr noundef nonnull align 8 dereferenceable(24) %11, ptr noundef nonnull align 8 dereferenceable(10) %12)
          to label %13 unwind label %15, !dbg !10080

13:                                               ; preds = %2
  call void @_ZNSt10unique_ptrINSt6thread6_StateESt14default_deleteIS1_EEC2IS3_vEEPS1_(ptr noundef nonnull align 8 dereferenceable(8) %6, ptr noundef %11) #1, !dbg !10081
  invoke void @_ZNSt6thread15_M_start_threadESt10unique_ptrINS_6_StateESt14default_deleteIS1_EEPFvvE(ptr noundef nonnull align 8 dereferenceable(8) %9, ptr noundef %6, ptr noundef null)
          to label %14 unwind label %19, !dbg !10082

14:                                               ; preds = %13
  call void @_ZNSt10unique_ptrINSt6thread6_StateESt14default_deleteIS1_EED2Ev(ptr noundef nonnull align 8 dereferenceable(8) %6) #1, !dbg !10082
  ret void, !dbg !10083

15:                                               ; preds = %2
  %16 = landingpad { ptr, i32 }
          cleanup, !dbg !10084
  %17 = extractvalue { ptr, i32 } %16, 0, !dbg !10084
  store ptr %17, ptr %7, align 8, !dbg !10084
  %18 = extractvalue { ptr, i32 } %16, 1, !dbg !10084
  store i32 %18, ptr %8, align 4, !dbg !10084
  call void @_ZdlPv(ptr noundef %11) #20, !dbg !10068
  br label %23, !dbg !10068

19:                                               ; preds = %13
  %20 = landingpad { ptr, i32 }
          cleanup, !dbg !10084
  %21 = extractvalue { ptr, i32 } %20, 0, !dbg !10084
  store ptr %21, ptr %7, align 8, !dbg !10084
  %22 = extractvalue { ptr, i32 } %20, 1, !dbg !10084
  store i32 %22, ptr %8, align 4, !dbg !10084
  call void @_ZNSt10unique_ptrINSt6thread6_StateESt14default_deleteIS1_EED2Ev(ptr noundef nonnull align 8 dereferenceable(8) %6) #1, !dbg !10082
  br label %23, !dbg !10082

23:                                               ; preds = %19, %15
  %24 = load ptr, ptr %7, align 8, !dbg !10068
  %25 = load i32, ptr %8, align 4, !dbg !10068
  %26 = insertvalue { ptr, i32 } poison, ptr %24, 0, !dbg !10068
  %27 = insertvalue { ptr, i32 } %26, i32 %25, 1, !dbg !10068
  resume { ptr, i32 } %27, !dbg !10068
}

; Function Attrs: noinline nounwind optnone uwtable
define internal void @"_ZZN5mongo4stdx6threadC1IZNS_81UnitTest_SuiteNameThreadSafetyContextTestTestNameCreateThreadsWithNoSafetyContext7_doTestEvE3$_0JELi0EEET_DpOT0_ENUlvE_D2Ev"(ptr noundef nonnull align 8 dereferenceable(10) %0) unnamed_addr #2 align 2 !dbg !10085 {
  %2 = alloca ptr, align 8
  store ptr %0, ptr %2, align 8
  call void @llvm.dbg.declare(metadata ptr %2, metadata !10090, metadata !DIExpression()), !dbg !10092
  %3 = load ptr, ptr %2, align 8
  %4 = getelementptr inbounds %class.anon.40, ptr %3, i32 0, i32 0, !dbg !10093
  call void @_ZN5mongo4stdx7support21SigAltStackControllerD2Ev(ptr noundef nonnull align 8 dereferenceable(8) %4) #1, !dbg !10093
  ret void, !dbg !10095
}

; Function Attrs: mustprogress noinline optnone uwtable
define linkonce_odr dso_local void @_ZSt11make_uniqueIA_St4byteENSt9_MakeUniqIT_E7__arrayEm(ptr noalias sret(%"class.std::unique_ptr") align 8 %0, i64 noundef %1) #6 comdat !dbg !10096 {
  %3 = alloca ptr, align 8
  %4 = alloca i64, align 8
  store ptr %0, ptr %3, align 8
  store i64 %1, ptr %4, align 8
  call void @llvm.dbg.declare(metadata ptr %4, metadata !10101, metadata !DIExpression()), !dbg !10102
  %5 = load i64, ptr %4, align 8, !dbg !10103
  %6 = call noalias noundef nonnull ptr @_Znam(i64 noundef %5) #22, !dbg !10104, !heapallocsite !10105
  call void @llvm.memset.p0.i64(ptr align 1 %6, i8 0, i64 %5, i1 false), !dbg !10104
  call void @_ZNSt10unique_ptrIA_St4byteSt14default_deleteIS1_EEC2IPS0_S3_vbEET_(ptr noundef nonnull align 8 dereferenceable(8) %0, ptr noundef %6) #1, !dbg !10108
  ret void, !dbg !10109
}

; Function Attrs: mustprogress noinline nounwind optnone uwtable
define linkonce_odr dso_local noundef i64 @_ZNK5mongo4stdx7support21SigAltStackController12getStackSizeEv(ptr noundef nonnull align 8 dereferenceable(8) %0) #8 comdat align 2 !dbg !10110 {
  %2 = alloca ptr, align 8
  store ptr %0, ptr %2, align 8
  call void @llvm.dbg.declare(metadata ptr %2, metadata !10111, metadata !DIExpression()), !dbg !10113
  %3 = load ptr, ptr %2, align 8
  %4 = call i64 @sysconf(i32 noundef 250) #1, !dbg !10114
  %5 = icmp ugt i64 %4, 65536, !dbg !10115
  br i1 %5, label %6, label %8, !dbg !10116

6:                                                ; preds = %1
  %7 = call i64 @sysconf(i32 noundef 250) #1, !dbg !10117
  br label %9, !dbg !10116

8:                                                ; preds = %1
  br label %9, !dbg !10116

9:                                                ; preds = %8, %6
  %10 = phi i64 [ %7, %6 ], [ 65536, %8 ], !dbg !10116
  ret i64 %10, !dbg !10118
}

; Function Attrs: nobuiltin allocsize(0)
declare noundef nonnull ptr @_Znam(i64 noundef) #17

; Function Attrs: noinline nounwind optnone uwtable
define linkonce_odr dso_local void @_ZNSt10unique_ptrIA_St4byteSt14default_deleteIS1_EEC2IPS0_S3_vbEET_(ptr noundef nonnull align 8 dereferenceable(8) %0, ptr noundef %1) unnamed_addr #2 comdat align 2 personality ptr @__gxx_personality_v0 !dbg !10119 {
  %3 = alloca ptr, align 8
  %4 = alloca ptr, align 8
  store ptr %0, ptr %3, align 8
  call void @llvm.dbg.declare(metadata ptr %3, metadata !10127, metadata !DIExpression()), !dbg !10129
  store ptr %1, ptr %4, align 8
  call void @llvm.dbg.declare(metadata ptr %4, metadata !10130, metadata !DIExpression()), !dbg !10131
  %5 = load ptr, ptr %3, align 8
  %6 = getelementptr inbounds %"class.std::unique_ptr", ptr %5, i32 0, i32 0, !dbg !10132
  %7 = load ptr, ptr %4, align 8, !dbg !10133
  invoke void @_ZNSt15__uniq_ptr_dataISt4byteSt14default_deleteIA_S0_ELb1ELb1EECI2St15__uniq_ptr_implIS0_S3_EEPS0_(ptr noundef nonnull align 8 dereferenceable(8) %6, ptr noundef %7)
          to label %8 unwind label %9, !dbg !10132

8:                                                ; preds = %2
  ret void, !dbg !10134

9:                                                ; preds = %2
  %10 = landingpad { ptr, i32 }
          catch ptr null, !dbg !10132
  %11 = extractvalue { ptr, i32 } %10, 0, !dbg !10132
  call void @__clang_call_terminate(ptr %11) #19, !dbg !10132
  unreachable, !dbg !10132
}

; Function Attrs: noinline optnone uwtable
define linkonce_odr dso_local void @_ZNSt15__uniq_ptr_dataISt4byteSt14default_deleteIA_S0_ELb1ELb1EECI2St15__uniq_ptr_implIS0_S3_EEPS0_(ptr noundef nonnull align 8 dereferenceable(8) %0, ptr noundef %1) unnamed_addr #5 comdat align 2 !dbg !10135 {
  %3 = alloca ptr, align 8
  %4 = alloca ptr, align 8
  store ptr %0, ptr %3, align 8
  call void @llvm.dbg.declare(metadata ptr %3, metadata !10139, metadata !DIExpression()), !dbg !10141
  store ptr %1, ptr %4, align 8
  call void @llvm.dbg.declare(metadata ptr %4, metadata !10142, metadata !DIExpression()), !dbg !10141
  %5 = load ptr, ptr %3, align 8
  %6 = load ptr, ptr %4, align 8, !dbg !10143
  call void @_ZNSt15__uniq_ptr_implISt4byteSt14default_deleteIA_S0_EEC2EPS0_(ptr noundef nonnull align 8 dereferenceable(8) %5, ptr noundef %6), !dbg !10143
  ret void, !dbg !10143
}

; Function Attrs: noinline optnone uwtable
define linkonce_odr dso_local void @_ZNSt15__uniq_ptr_implISt4byteSt14default_deleteIA_S0_EEC2EPS0_(ptr noundef nonnull align 8 dereferenceable(8) %0, ptr noundef %1) unnamed_addr #5 comdat align 2 !dbg !10144 {
  %3 = alloca ptr, align 8
  %4 = alloca ptr, align 8
  store ptr %0, ptr %3, align 8
  call void @llvm.dbg.declare(metadata ptr %3, metadata !10145, metadata !DIExpression()), !dbg !10147
  store ptr %1, ptr %4, align 8
  call void @llvm.dbg.declare(metadata ptr %4, metadata !10148, metadata !DIExpression()), !dbg !10149
  %5 = load ptr, ptr %3, align 8
  %6 = getelementptr inbounds %"class.std::__uniq_ptr_impl", ptr %5, i32 0, i32 0, !dbg !10150
  call void @_ZNSt5tupleIJPSt4byteSt14default_deleteIA_S0_EEEC2ILb1ELb1EEEv(ptr noundef nonnull align 8 dereferenceable(8) %6) #1, !dbg !10150
  %7 = load ptr, ptr %4, align 8, !dbg !10151
  %8 = call noundef nonnull align 8 dereferenceable(8) ptr @_ZNSt15__uniq_ptr_implISt4byteSt14default_deleteIA_S0_EE6_M_ptrEv(ptr noundef nonnull align 8 dereferenceable(8) %5), !dbg !10153
  store ptr %7, ptr %8, align 8, !dbg !10154
  ret void, !dbg !10155
}

; Function Attrs: noinline nounwind optnone uwtable
define linkonce_odr dso_local void @_ZNSt5tupleIJPSt4byteSt14default_deleteIA_S0_EEEC2ILb1ELb1EEEv(ptr noundef nonnull align 8 dereferenceable(8) %0) unnamed_addr #2 comdat align 2 personality ptr @__gxx_personality_v0 !dbg !10156 {
  %2 = alloca ptr, align 8
  store ptr %0, ptr %2, align 8
  call void @llvm.dbg.declare(metadata ptr %2, metadata !10163, metadata !DIExpression()), !dbg !10165
  %3 = load ptr, ptr %2, align 8
  invoke void @_ZNSt11_Tuple_implILm0EJPSt4byteSt14default_deleteIA_S0_EEEC2Ev(ptr noundef nonnull align 8 dereferenceable(8) %3)
          to label %4 unwind label %5, !dbg !10166

4:                                                ; preds = %1
  ret void, !dbg !10167

5:                                                ; preds = %1
  %6 = landingpad { ptr, i32 }
          catch ptr null, !dbg !10166
  %7 = extractvalue { ptr, i32 } %6, 0, !dbg !10166
  call void @__clang_call_terminate(ptr %7) #19, !dbg !10166
  unreachable, !dbg !10166
}

; Function Attrs: mustprogress noinline nounwind optnone uwtable
define linkonce_odr dso_local noundef nonnull align 8 dereferenceable(8) ptr @_ZNSt15__uniq_ptr_implISt4byteSt14default_deleteIA_S0_EE6_M_ptrEv(ptr noundef nonnull align 8 dereferenceable(8) %0) #8 comdat align 2 !dbg !10168 {
  %2 = alloca ptr, align 8
  store ptr %0, ptr %2, align 8
  call void @llvm.dbg.declare(metadata ptr %2, metadata !10169, metadata !DIExpression()), !dbg !10170
  %3 = load ptr, ptr %2, align 8
  %4 = getelementptr inbounds %"class.std::__uniq_ptr_impl", ptr %3, i32 0, i32 0, !dbg !10171
  %5 = call noundef nonnull align 8 dereferenceable(8) ptr @_ZSt3getILm0EJPSt4byteSt14default_deleteIA_S0_EEERNSt13tuple_elementIXT_ESt5tupleIJDpT0_EEE4typeERS9_(ptr noundef nonnull align 8 dereferenceable(8) %4) #1, !dbg !10172
  ret ptr %5, !dbg !10173
}

; Function Attrs: noinline optnone uwtable
define linkonce_odr dso_local void @_ZNSt11_Tuple_implILm0EJPSt4byteSt14default_deleteIA_S0_EEEC2Ev(ptr noundef nonnull align 8 dereferenceable(8) %0) unnamed_addr #5 comdat align 2 !dbg !10174 {
  %2 = alloca ptr, align 8
  store ptr %0, ptr %2, align 8
  call void @llvm.dbg.declare(metadata ptr %2, metadata !10175, metadata !DIExpression()), !dbg !10177
  %3 = load ptr, ptr %2, align 8
  call void @_ZNSt11_Tuple_implILm1EJSt14default_deleteIA_St4byteEEEC2Ev(ptr noundef nonnull align 1 dereferenceable(1) %3), !dbg !10178
  call void @_ZNSt10_Head_baseILm0EPSt4byteLb0EEC2Ev(ptr noundef nonnull align 8 dereferenceable(8) %3), !dbg !10179
  ret void, !dbg !10180
}

; Function Attrs: noinline optnone uwtable
define linkonce_odr dso_local void @_ZNSt11_Tuple_implILm1EJSt14default_deleteIA_St4byteEEEC2Ev(ptr noundef nonnull align 1 dereferenceable(1) %0) unnamed_addr #5 comdat align 2 !dbg !10181 {
  %2 = alloca ptr, align 8
  store ptr %0, ptr %2, align 8
  call void @llvm.dbg.declare(metadata ptr %2, metadata !10182, metadata !DIExpression()), !dbg !10184
  %3 = load ptr, ptr %2, align 8
  call void @_ZNSt10_Head_baseILm1ESt14default_deleteIA_St4byteELb1EEC2Ev(ptr noundef nonnull align 1 dereferenceable(1) %3), !dbg !10185
  ret void, !dbg !10186
}

; Function Attrs: noinline nounwind optnone uwtable
define linkonce_odr dso_local void @_ZNSt10_Head_baseILm0EPSt4byteLb0EEC2Ev(ptr noundef nonnull align 8 dereferenceable(8) %0) unnamed_addr #2 comdat align 2 !dbg !10187 {
  %2 = alloca ptr, align 8
  store ptr %0, ptr %2, align 8
  call void @llvm.dbg.declare(metadata ptr %2, metadata !10188, metadata !DIExpression()), !dbg !10190
  %3 = load ptr, ptr %2, align 8
  %4 = getelementptr inbounds %"struct.std::_Head_base.42", ptr %3, i32 0, i32 0, !dbg !10191
  store ptr null, ptr %4, align 8, !dbg !10191
  ret void, !dbg !10192
}

; Function Attrs: noinline nounwind optnone uwtable
define linkonce_odr dso_local void @_ZNSt10_Head_baseILm1ESt14default_deleteIA_St4byteELb1EEC2Ev(ptr noundef nonnull align 1 dereferenceable(1) %0) unnamed_addr #2 comdat align 2 !dbg !10193 {
  %2 = alloca ptr, align 8
  store ptr %0, ptr %2, align 8
  call void @llvm.dbg.declare(metadata ptr %2, metadata !10194, metadata !DIExpression()), !dbg !10196
  %3 = load ptr, ptr %2, align 8
  ret void, !dbg !10197
}

; Function Attrs: mustprogress noinline nounwind optnone uwtable
define linkonce_odr dso_local noundef nonnull align 8 dereferenceable(8) ptr @_ZSt3getILm0EJPSt4byteSt14default_deleteIA_S0_EEERNSt13tuple_elementIXT_ESt5tupleIJDpT0_EEE4typeERS9_(ptr noundef nonnull align 8 dereferenceable(8) %0) #8 comdat !dbg !10198 {
  %2 = alloca ptr, align 8
  store ptr %0, ptr %2, align 8
  call void @llvm.dbg.declare(metadata ptr %2, metadata !10210, metadata !DIExpression()), !dbg !10211
  %3 = load ptr, ptr %2, align 8, !dbg !10212
  %4 = call noundef nonnull align 8 dereferenceable(8) ptr @_ZSt12__get_helperILm0EPSt4byteJSt14default_deleteIA_S0_EEERT0_RSt11_Tuple_implIXT_EJS5_DpT1_EE(ptr noundef nonnull align 8 dereferenceable(8) %3) #1, !dbg !10213
  ret ptr %4, !dbg !10214
}

; Function Attrs: mustprogress noinline nounwind optnone uwtable
define linkonce_odr dso_local noundef nonnull align 8 dereferenceable(8) ptr @_ZSt12__get_helperILm0EPSt4byteJSt14default_deleteIA_S0_EEERT0_RSt11_Tuple_implIXT_EJS5_DpT1_EE(ptr noundef nonnull align 8 dereferenceable(8) %0) #8 comdat !dbg !10215 {
  %2 = alloca ptr, align 8
  store ptr %0, ptr %2, align 8
  call void @llvm.dbg.declare(metadata ptr %2, metadata !10218, metadata !DIExpression()), !dbg !10219
  %3 = load ptr, ptr %2, align 8, !dbg !10220
  %4 = call noundef nonnull align 8 dereferenceable(8) ptr @_ZNSt11_Tuple_implILm0EJPSt4byteSt14default_deleteIA_S0_EEE7_M_headERS5_(ptr noundef nonnull align 8 dereferenceable(8) %3) #1, !dbg !10221
  ret ptr %4, !dbg !10222
}

; Function Attrs: mustprogress noinline nounwind optnone uwtable
define linkonce_odr dso_local noundef nonnull align 8 dereferenceable(8) ptr @_ZNSt11_Tuple_implILm0EJPSt4byteSt14default_deleteIA_S0_EEE7_M_headERS5_(ptr noundef nonnull align 8 dereferenceable(8) %0) #8 comdat align 2 !dbg !10223 {
  %2 = alloca ptr, align 8
  store ptr %0, ptr %2, align 8
  call void @llvm.dbg.declare(metadata ptr %2, metadata !10224, metadata !DIExpression()), !dbg !10225
  %3 = load ptr, ptr %2, align 8, !dbg !10226
  %4 = call noundef nonnull align 8 dereferenceable(8) ptr @_ZNSt10_Head_baseILm0EPSt4byteLb0EE7_M_headERS2_(ptr noundef nonnull align 8 dereferenceable(8) %3) #1, !dbg !10227
  ret ptr %4, !dbg !10228
}

; Function Attrs: mustprogress noinline nounwind optnone uwtable
define linkonce_odr dso_local noundef nonnull align 8 dereferenceable(8) ptr @_ZNSt10_Head_baseILm0EPSt4byteLb0EE7_M_headERS2_(ptr noundef nonnull align 8 dereferenceable(8) %0) #8 comdat align 2 !dbg !10229 {
  %2 = alloca ptr, align 8
  store ptr %0, ptr %2, align 8
  call void @llvm.dbg.declare(metadata ptr %2, metadata !10230, metadata !DIExpression()), !dbg !10231
  %3 = load ptr, ptr %2, align 8, !dbg !10232
  %4 = getelementptr inbounds %"struct.std::_Head_base.42", ptr %3, i32 0, i32 0, !dbg !10233
  ret ptr %4, !dbg !10234
}

; Function Attrs: nounwind
declare i64 @sysconf(i32 noundef) #4

declare void @_ZNSt6thread15_M_start_threadESt10unique_ptrINS_6_StateESt14default_deleteIS1_EEPFvvE(ptr noundef nonnull align 8 dereferenceable(8), ptr noundef, ptr noundef) #3

; Function Attrs: nobuiltin allocsize(0)
declare noundef nonnull ptr @_Znwm(i64 noundef) #17

; Function Attrs: noinline optnone uwtable
define internal void @"_ZNSt6thread11_State_implINS_8_InvokerISt5tupleIJZN5mongo4stdx6threadC1IZNS3_81UnitTest_SuiteNameThreadSafetyContextTestTestNameCreateThreadsWithNoSafetyContext7_doTestEvE3$_0JELi0EEET_DpOT0_EUlvE_EEEEEC2IJSD_EEEDpOT_"(ptr noundef nonnull align 8 dereferenceable(24) %0, ptr noundef nonnull align 8 dereferenceable(10) %1) unnamed_addr #5 align 2 personality ptr @__gxx_personality_v0 !dbg !10235 {
  %3 = alloca ptr, align 8
  %4 = alloca ptr, align 8
  %5 = alloca ptr, align 8
  %6 = alloca i32, align 4
  store ptr %0, ptr %3, align 8
  call void @llvm.dbg.declare(metadata ptr %3, metadata !10241, metadata !DIExpression()), !dbg !10243
  store ptr %1, ptr %4, align 8
  call void @llvm.dbg.declare(metadata ptr %4, metadata !10244, metadata !DIExpression()), !dbg !10245
  %7 = load ptr, ptr %3, align 8
  call void @_ZNSt6thread6_StateC2Ev(ptr noundef nonnull align 8 dereferenceable(8) %7) #1, !dbg !10246
  store ptr getelementptr inbounds ({ [5 x ptr] }, ptr @"_ZTVNSt6thread11_State_implINS_8_InvokerISt5tupleIJZN5mongo4stdx6threadC1IZNS3_81UnitTest_SuiteNameThreadSafetyContextTestTestNameCreateThreadsWithNoSafetyContext7_doTestEvE3$_0JELi0EEET_DpOT0_EUlvE_EEEEEE", i32 0, inrange i32 0, i32 2), ptr %7, align 8, !dbg !10247
  %8 = getelementptr inbounds %"struct.std::thread::_State_impl", ptr %7, i32 0, i32 1, !dbg !10248
  %9 = load ptr, ptr %4, align 8, !dbg !10249
  invoke void @"_ZNSt6thread8_InvokerISt5tupleIJZN5mongo4stdx6threadC1IZNS2_81UnitTest_SuiteNameThreadSafetyContextTestTestNameCreateThreadsWithNoSafetyContext7_doTestEvE3$_0JELi0EEET_DpOT0_EUlvE_EEEC2IJSC_EEEDpOT_"(ptr noundef nonnull align 8 dereferenceable(16) %8, ptr noundef nonnull align 8 dereferenceable(10) %9)
          to label %10 unwind label %11, !dbg !10248

10:                                               ; preds = %2
  ret void, !dbg !10250

11:                                               ; preds = %2
  %12 = landingpad { ptr, i32 }
          cleanup, !dbg !10250
  %13 = extractvalue { ptr, i32 } %12, 0, !dbg !10250
  store ptr %13, ptr %5, align 8, !dbg !10250
  %14 = extractvalue { ptr, i32 } %12, 1, !dbg !10250
  store i32 %14, ptr %6, align 4, !dbg !10250
  call void @_ZNSt6thread6_StateD2Ev(ptr noundef nonnull align 8 dereferenceable(8) %7) #1, !dbg !10251
  br label %15, !dbg !10251

15:                                               ; preds = %11
  %16 = load ptr, ptr %5, align 8, !dbg !10251
  %17 = load i32, ptr %6, align 4, !dbg !10251
  %18 = insertvalue { ptr, i32 } poison, ptr %16, 0, !dbg !10251
  %19 = insertvalue { ptr, i32 } %18, i32 %17, 1, !dbg !10251
  resume { ptr, i32 } %19, !dbg !10251
}

; Function Attrs: noinline nounwind optnone uwtable
define linkonce_odr dso_local void @_ZNSt10unique_ptrINSt6thread6_StateESt14default_deleteIS1_EEC2IS3_vEEPS1_(ptr noundef nonnull align 8 dereferenceable(8) %0, ptr noundef %1) unnamed_addr #2 comdat align 2 personality ptr @__gxx_personality_v0 !dbg !10253 {
  %3 = alloca ptr, align 8
  %4 = alloca ptr, align 8
  store ptr %0, ptr %3, align 8
  call void @llvm.dbg.declare(metadata ptr %3, metadata !10257, metadata !DIExpression()), !dbg !10259
  store ptr %1, ptr %4, align 8
  call void @llvm.dbg.declare(metadata ptr %4, metadata !10260, metadata !DIExpression()), !dbg !10261
  %5 = load ptr, ptr %3, align 8
  %6 = getelementptr inbounds %"class.std::unique_ptr.45", ptr %5, i32 0, i32 0, !dbg !10262
  %7 = load ptr, ptr %4, align 8, !dbg !10263
  invoke void @_ZNSt15__uniq_ptr_dataINSt6thread6_StateESt14default_deleteIS1_ELb1ELb1EECI2St15__uniq_ptr_implIS1_S3_EEPS1_(ptr noundef nonnull align 8 dereferenceable(8) %6, ptr noundef %7)
          to label %8 unwind label %9, !dbg !10262

8:                                                ; preds = %2
  ret void, !dbg !10264

9:                                                ; preds = %2
  %10 = landingpad { ptr, i32 }
          catch ptr null, !dbg !10262
  %11 = extractvalue { ptr, i32 } %10, 0, !dbg !10262
  call void @__clang_call_terminate(ptr %11) #19, !dbg !10262
  unreachable, !dbg !10262
}

; Function Attrs: noinline nounwind optnone uwtable
define linkonce_odr dso_local void @_ZNSt10unique_ptrINSt6thread6_StateESt14default_deleteIS1_EED2Ev(ptr noundef nonnull align 8 dereferenceable(8) %0) unnamed_addr #2 comdat align 2 personality ptr @__gxx_personality_v0 !dbg !10265 {
  %2 = alloca ptr, align 8
  %3 = alloca ptr, align 8
  store ptr %0, ptr %2, align 8
  call void @llvm.dbg.declare(metadata ptr %2, metadata !10266, metadata !DIExpression()), !dbg !10267
  %4 = load ptr, ptr %2, align 8
  call void @llvm.dbg.declare(metadata ptr %3, metadata !10268, metadata !DIExpression()), !dbg !10270
  %5 = getelementptr inbounds %"class.std::unique_ptr.45", ptr %4, i32 0, i32 0, !dbg !10271
  %6 = call noundef nonnull align 8 dereferenceable(8) ptr @_ZNSt15__uniq_ptr_implINSt6thread6_StateESt14default_deleteIS1_EE6_M_ptrEv(ptr noundef nonnull align 8 dereferenceable(8) %5), !dbg !10272
  store ptr %6, ptr %3, align 8, !dbg !10270
  %7 = load ptr, ptr %3, align 8, !dbg !10273
  %8 = load ptr, ptr %7, align 8, !dbg !10273
  %9 = icmp ne ptr %8, null, !dbg !10275
  br i1 %9, label %10, label %15, !dbg !10276

10:                                               ; preds = %1
  %11 = call noundef nonnull align 1 dereferenceable(1) ptr @_ZNSt10unique_ptrINSt6thread6_StateESt14default_deleteIS1_EE11get_deleterEv(ptr noundef nonnull align 8 dereferenceable(8) %4) #1, !dbg !10277
  %12 = load ptr, ptr %3, align 8, !dbg !10278
  %13 = load ptr, ptr %12, align 8, !dbg !10279
  invoke void @_ZNKSt14default_deleteINSt6thread6_StateEEclEPS1_(ptr noundef nonnull align 1 dereferenceable(1) %11, ptr noundef %13)
          to label %14 unwind label %17, !dbg !10277

14:                                               ; preds = %10
  br label %15, !dbg !10277

15:                                               ; preds = %14, %1
  %16 = load ptr, ptr %3, align 8, !dbg !10280
  store ptr null, ptr %16, align 8, !dbg !10281
  ret void, !dbg !10282

17:                                               ; preds = %10
  %18 = landingpad { ptr, i32 }
          catch ptr null, !dbg !10277
  %19 = extractvalue { ptr, i32 } %18, 0, !dbg !10277
  call void @__clang_call_terminate(ptr %19) #19, !dbg !10277
  unreachable, !dbg !10277
}

; Function Attrs: noinline nounwind optnone uwtable
define linkonce_odr dso_local void @_ZNSt6thread6_StateC2Ev(ptr noundef nonnull align 8 dereferenceable(8) %0) unnamed_addr #2 comdat align 2 !dbg !10283 {
  %2 = alloca ptr, align 8
  store ptr %0, ptr %2, align 8
  call void @llvm.dbg.declare(metadata ptr %2, metadata !10288, metadata !DIExpression()), !dbg !10289
  %3 = load ptr, ptr %2, align 8
  store ptr getelementptr inbounds ({ [5 x ptr] }, ptr @_ZTVNSt6thread6_StateE, i32 0, inrange i32 0, i32 2), ptr %3, align 8, !dbg !10290
  ret void, !dbg !10290
}

; Function Attrs: noinline nounwind optnone uwtable
define internal void @"_ZNSt6thread8_InvokerISt5tupleIJZN5mongo4stdx6threadC1IZNS2_81UnitTest_SuiteNameThreadSafetyContextTestTestNameCreateThreadsWithNoSafetyContext7_doTestEvE3$_0JELi0EEET_DpOT0_EUlvE_EEEC2IJSC_EEEDpOT_"(ptr noundef nonnull align 8 dereferenceable(16) %0, ptr noundef nonnull align 8 dereferenceable(10) %1) unnamed_addr #2 align 2 !dbg !10291 {
  %3 = alloca ptr, align 8
  %4 = alloca ptr, align 8
  store ptr %0, ptr %3, align 8
  call void @llvm.dbg.declare(metadata ptr %3, metadata !10295, metadata !DIExpression()), !dbg !10297
  store ptr %1, ptr %4, align 8
  call void @llvm.dbg.declare(metadata ptr %4, metadata !10298, metadata !DIExpression()), !dbg !10299
  %5 = load ptr, ptr %3, align 8
  %6 = getelementptr inbounds %"struct.std::thread::_Invoker", ptr %5, i32 0, i32 0, !dbg !10300
  %7 = load ptr, ptr %4, align 8, !dbg !10301
  call void @"_ZNSt5tupleIJZN5mongo4stdx6threadC1IZNS0_81UnitTest_SuiteNameThreadSafetyContextTestTestNameCreateThreadsWithNoSafetyContext7_doTestEvE3$_0JELi0EEET_DpOT0_EUlvE_EEC2IJSA_ELb1ELb1EEEDpOT_"(ptr noundef nonnull align 8 dereferenceable(16) %6, ptr noundef nonnull align 8 dereferenceable(10) %7) #1, !dbg !10300
  ret void, !dbg !10302
}

; Function Attrs: nounwind
declare void @_ZNSt6thread6_StateD2Ev(ptr noundef nonnull align 8 dereferenceable(8)) unnamed_addr #4

; Function Attrs: noinline nounwind optnone uwtable
define internal void @"_ZNSt6thread11_State_implINS_8_InvokerISt5tupleIJZN5mongo4stdx6threadC1IZNS3_81UnitTest_SuiteNameThreadSafetyContextTestTestNameCreateThreadsWithNoSafetyContext7_doTestEvE3$_0JELi0EEET_DpOT0_EUlvE_EEEEED2Ev"(ptr noundef nonnull align 8 dereferenceable(24) %0) unnamed_addr #2 align 2 !dbg !10303 {
  %2 = alloca ptr, align 8
  store ptr %0, ptr %2, align 8
  call void @llvm.dbg.declare(metadata ptr %2, metadata !10305, metadata !DIExpression()), !dbg !10306
  %3 = load ptr, ptr %2, align 8
  store ptr getelementptr inbounds ({ [5 x ptr] }, ptr @"_ZTVNSt6thread11_State_implINS_8_InvokerISt5tupleIJZN5mongo4stdx6threadC1IZNS3_81UnitTest_SuiteNameThreadSafetyContextTestTestNameCreateThreadsWithNoSafetyContext7_doTestEvE3$_0JELi0EEET_DpOT0_EUlvE_EEEEEE", i32 0, inrange i32 0, i32 2), ptr %3, align 8, !dbg !10307
  %4 = getelementptr inbounds %"struct.std::thread::_State_impl", ptr %3, i32 0, i32 1, !dbg !10308
  call void @"_ZNSt6thread8_InvokerISt5tupleIJZN5mongo4stdx6threadC1IZNS2_81UnitTest_SuiteNameThreadSafetyContextTestTestNameCreateThreadsWithNoSafetyContext7_doTestEvE3$_0JELi0EEET_DpOT0_EUlvE_EEED2Ev"(ptr noundef nonnull align 8 dereferenceable(16) %4) #1, !dbg !10308
  call void @_ZNSt6thread6_StateD2Ev(ptr noundef nonnull align 8 dereferenceable(8) %3) #1, !dbg !10308
  ret void, !dbg !10307
}

; Function Attrs: noinline nounwind optnone uwtable
define internal void @"_ZNSt6thread11_State_implINS_8_InvokerISt5tupleIJZN5mongo4stdx6threadC1IZNS3_81UnitTest_SuiteNameThreadSafetyContextTestTestNameCreateThreadsWithNoSafetyContext7_doTestEvE3$_0JELi0EEET_DpOT0_EUlvE_EEEEED0Ev"(ptr noundef nonnull align 8 dereferenceable(24) %0) unnamed_addr #2 align 2 !dbg !10310 {
  %2 = alloca ptr, align 8
  store ptr %0, ptr %2, align 8
  call void @llvm.dbg.declare(metadata ptr %2, metadata !10311, metadata !DIExpression()), !dbg !10312
  %3 = load ptr, ptr %2, align 8
  call void @"_ZNSt6thread11_State_implINS_8_InvokerISt5tupleIJZN5mongo4stdx6threadC1IZNS3_81UnitTest_SuiteNameThreadSafetyContextTestTestNameCreateThreadsWithNoSafetyContext7_doTestEvE3$_0JELi0EEET_DpOT0_EUlvE_EEEEED2Ev"(ptr noundef nonnull align 8 dereferenceable(24) %3) #1, !dbg !10313
  call void @_ZdlPv(ptr noundef %3) #20, !dbg !10313
  ret void, !dbg !10313
}

; Function Attrs: mustprogress noinline optnone uwtable
define internal void @"_ZNSt6thread11_State_implINS_8_InvokerISt5tupleIJZN5mongo4stdx6threadC1IZNS3_81UnitTest_SuiteNameThreadSafetyContextTestTestNameCreateThreadsWithNoSafetyContext7_doTestEvE3$_0JELi0EEET_DpOT0_EUlvE_EEEEE6_M_runEv"(ptr noundef nonnull align 8 dereferenceable(24) %0) unnamed_addr #6 align 2 !dbg !10314 {
  %2 = alloca ptr, align 8
  store ptr %0, ptr %2, align 8
  call void @llvm.dbg.declare(metadata ptr %2, metadata !10315, metadata !DIExpression()), !dbg !10316
  %3 = load ptr, ptr %2, align 8
  %4 = getelementptr inbounds %"struct.std::thread::_State_impl", ptr %3, i32 0, i32 1, !dbg !10317
  call void @"_ZNSt6thread8_InvokerISt5tupleIJZN5mongo4stdx6threadC1IZNS2_81UnitTest_SuiteNameThreadSafetyContextTestTestNameCreateThreadsWithNoSafetyContext7_doTestEvE3$_0JELi0EEET_DpOT0_EUlvE_EEEclEv"(ptr noundef nonnull align 8 dereferenceable(16) %4), !dbg !10317
  ret void, !dbg !10318
}

; Function Attrs: noinline nounwind optnone uwtable
define internal void @"_ZNSt5tupleIJZN5mongo4stdx6threadC1IZNS0_81UnitTest_SuiteNameThreadSafetyContextTestTestNameCreateThreadsWithNoSafetyContext7_doTestEvE3$_0JELi0EEET_DpOT0_EUlvE_EEC2IJSA_ELb1ELb1EEEDpOT_"(ptr noundef nonnull align 8 dereferenceable(16) %0, ptr noundef nonnull align 8 dereferenceable(10) %1) unnamed_addr #2 align 2 personality ptr @__gxx_personality_v0 !dbg !10319 {
  %3 = alloca ptr, align 8
  %4 = alloca ptr, align 8
  store ptr %0, ptr %3, align 8
  call void @llvm.dbg.declare(metadata ptr %3, metadata !10326, metadata !DIExpression()), !dbg !10328
  store ptr %1, ptr %4, align 8
  call void @llvm.dbg.declare(metadata ptr %4, metadata !10329, metadata !DIExpression()), !dbg !10330
  %5 = load ptr, ptr %3, align 8
  %6 = load ptr, ptr %4, align 8, !dbg !10331
  invoke void @"_ZNSt11_Tuple_implILm0EJZN5mongo4stdx6threadC1IZNS0_81UnitTest_SuiteNameThreadSafetyContextTestTestNameCreateThreadsWithNoSafetyContext7_doTestEvE3$_0JELi0EEET_DpOT0_EUlvE_EEC2ISA_EEOS6_"(ptr noundef nonnull align 8 dereferenceable(16) %5, ptr noundef nonnull align 8 dereferenceable(10) %6)
          to label %7 unwind label %8, !dbg !10332

7:                                                ; preds = %2
  ret void, !dbg !10333

8:                                                ; preds = %2
  %9 = landingpad { ptr, i32 }
          catch ptr null, !dbg !10332
  %10 = extractvalue { ptr, i32 } %9, 0, !dbg !10332
  call void @__clang_call_terminate(ptr %10) #19, !dbg !10332
  unreachable, !dbg !10332
}

; Function Attrs: noinline optnone uwtable
define internal void @"_ZNSt11_Tuple_implILm0EJZN5mongo4stdx6threadC1IZNS0_81UnitTest_SuiteNameThreadSafetyContextTestTestNameCreateThreadsWithNoSafetyContext7_doTestEvE3$_0JELi0EEET_DpOT0_EUlvE_EEC2ISA_EEOS6_"(ptr noundef nonnull align 8 dereferenceable(16) %0, ptr noundef nonnull align 8 dereferenceable(10) %1) unnamed_addr #5 align 2 !dbg !10334 {
  %3 = alloca ptr, align 8
  %4 = alloca ptr, align 8
  store ptr %0, ptr %3, align 8
  call void @llvm.dbg.declare(metadata ptr %3, metadata !10340, metadata !DIExpression()), !dbg !10342
  store ptr %1, ptr %4, align 8
  call void @llvm.dbg.declare(metadata ptr %4, metadata !10343, metadata !DIExpression()), !dbg !10344
  %5 = load ptr, ptr %3, align 8
  %6 = load ptr, ptr %4, align 8, !dbg !10345
  call void @"_ZNSt10_Head_baseILm0EZN5mongo4stdx6threadC1IZNS0_81UnitTest_SuiteNameThreadSafetyContextTestTestNameCreateThreadsWithNoSafetyContext7_doTestEvE3$_0JELi0EEET_DpOT0_EUlvE_Lb0EEC2ISA_EEOS6_"(ptr noundef nonnull align 8 dereferenceable(16) %5, ptr noundef nonnull align 8 dereferenceable(10) %6), !dbg !10346
  ret void, !dbg !10347
}

; Function Attrs: noinline nounwind optnone uwtable
define internal void @"_ZNSt10_Head_baseILm0EZN5mongo4stdx6threadC1IZNS0_81UnitTest_SuiteNameThreadSafetyContextTestTestNameCreateThreadsWithNoSafetyContext7_doTestEvE3$_0JELi0EEET_DpOT0_EUlvE_Lb0EEC2ISA_EEOS6_"(ptr noundef nonnull align 8 dereferenceable(16) %0, ptr noundef nonnull align 8 dereferenceable(10) %1) unnamed_addr #2 align 2 !dbg !10348 {
  %3 = alloca ptr, align 8
  %4 = alloca ptr, align 8
  store ptr %0, ptr %3, align 8
  call void @llvm.dbg.declare(metadata ptr %3, metadata !10352, metadata !DIExpression()), !dbg !10354
  store ptr %1, ptr %4, align 8
  call void @llvm.dbg.declare(metadata ptr %4, metadata !10355, metadata !DIExpression()), !dbg !10356
  %5 = load ptr, ptr %3, align 8
  %6 = getelementptr inbounds %"struct.std::_Head_base.55", ptr %5, i32 0, i32 0, !dbg !10357
  %7 = load ptr, ptr %4, align 8, !dbg !10358
  call void @"_ZZN5mongo4stdx6threadC1IZNS_81UnitTest_SuiteNameThreadSafetyContextTestTestNameCreateThreadsWithNoSafetyContext7_doTestEvE3$_0JELi0EEET_DpOT0_ENUlvE_C2EOS9_"(ptr noundef nonnull align 8 dereferenceable(10) %6, ptr noundef nonnull align 8 dereferenceable(10) %7) #1, !dbg !10357
  ret void, !dbg !10359
}

; Function Attrs: noinline nounwind optnone uwtable
define internal void @"_ZZN5mongo4stdx6threadC1IZNS_81UnitTest_SuiteNameThreadSafetyContextTestTestNameCreateThreadsWithNoSafetyContext7_doTestEvE3$_0JELi0EEET_DpOT0_ENUlvE_C2EOS9_"(ptr noundef nonnull align 8 dereferenceable(10) %0, ptr noundef nonnull align 8 dereferenceable(10) %1) unnamed_addr #2 align 2 !dbg !10360 {
  %3 = alloca ptr, align 8
  %4 = alloca ptr, align 8
  store ptr %0, ptr %3, align 8
  call void @llvm.dbg.declare(metadata ptr %3, metadata !10364, metadata !DIExpression()), !dbg !10365
  store ptr %1, ptr %4, align 8
  call void @llvm.dbg.declare(metadata ptr %4, metadata !10366, metadata !DIExpression()), !dbg !10365
  %5 = load ptr, ptr %3, align 8
  %6 = getelementptr inbounds %class.anon.40, ptr %5, i32 0, i32 0, !dbg !10367
  %7 = load ptr, ptr %4, align 8, !dbg !10367
  %8 = getelementptr inbounds %class.anon.40, ptr %7, i32 0, i32 0, !dbg !10367
  call void @_ZN5mongo4stdx7support21SigAltStackControllerC2EOS2_(ptr noundef nonnull align 8 dereferenceable(8) %6, ptr noundef nonnull align 8 dereferenceable(8) %8) #1, !dbg !10367
  %9 = getelementptr inbounds %class.anon.40, ptr %5, i32 0, i32 1, !dbg !10367
  %10 = load ptr, ptr %4, align 8, !dbg !10367
  %11 = getelementptr inbounds %class.anon.40, ptr %10, i32 0, i32 1, !dbg !10367
  call void @llvm.memcpy.p0.p0.i64(ptr align 8 %9, ptr align 8 %11, i64 1, i1 false), !dbg !10367
  ret void, !dbg !10367
}

; Function Attrs: noinline nounwind optnone uwtable
define linkonce_odr dso_local void @_ZN5mongo4stdx7support21SigAltStackControllerC2EOS2_(ptr noundef nonnull align 8 dereferenceable(8) %0, ptr noundef nonnull align 8 dereferenceable(8) %1) unnamed_addr #2 comdat align 2 !dbg !10368 {
  %3 = alloca ptr, align 8
  %4 = alloca ptr, align 8
  store ptr %0, ptr %3, align 8
  call void @llvm.dbg.declare(metadata ptr %3, metadata !10373, metadata !DIExpression()), !dbg !10374
  store ptr %1, ptr %4, align 8
  call void @llvm.dbg.declare(metadata ptr %4, metadata !10375, metadata !DIExpression()), !dbg !10374
  %5 = load ptr, ptr %3, align 8
  %6 = getelementptr inbounds %"class.mongo::stdx::support::SigAltStackController", ptr %5, i32 0, i32 0, !dbg !10376
  %7 = load ptr, ptr %4, align 8, !dbg !10376
  %8 = getelementptr inbounds %"class.mongo::stdx::support::SigAltStackController", ptr %7, i32 0, i32 0, !dbg !10376
  call void @_ZNSt10unique_ptrIA_St4byteSt14default_deleteIS1_EEC2EOS4_(ptr noundef nonnull align 8 dereferenceable(8) %6, ptr noundef nonnull align 8 dereferenceable(8) %8) #1, !dbg !10376
  ret void, !dbg !10376
}

; Function Attrs: noinline nounwind optnone uwtable
define linkonce_odr dso_local void @_ZNSt10unique_ptrIA_St4byteSt14default_deleteIS1_EEC2EOS4_(ptr noundef nonnull align 8 dereferenceable(8) %0, ptr noundef nonnull align 8 dereferenceable(8) %1) unnamed_addr #2 comdat align 2 !dbg !10377 {
  %3 = alloca ptr, align 8
  %4 = alloca ptr, align 8
  store ptr %0, ptr %3, align 8
  call void @llvm.dbg.declare(metadata ptr %3, metadata !10378, metadata !DIExpression()), !dbg !10379
  store ptr %1, ptr %4, align 8
  call void @llvm.dbg.declare(metadata ptr %4, metadata !10380, metadata !DIExpression()), !dbg !10381
  %5 = load ptr, ptr %3, align 8
  %6 = getelementptr inbounds %"class.std::unique_ptr", ptr %5, i32 0, i32 0, !dbg !10382
  %7 = load ptr, ptr %4, align 8, !dbg !10382
  %8 = getelementptr inbounds %"class.std::unique_ptr", ptr %7, i32 0, i32 0, !dbg !10382
  call void @_ZNSt15__uniq_ptr_dataISt4byteSt14default_deleteIA_S0_ELb1ELb1EEC2EOS4_(ptr noundef nonnull align 8 dereferenceable(8) %6, ptr noundef nonnull align 8 dereferenceable(8) %8) #1, !dbg !10382
  ret void, !dbg !10383
}

; Function Attrs: noinline nounwind optnone uwtable
define linkonce_odr dso_local void @_ZNSt15__uniq_ptr_dataISt4byteSt14default_deleteIA_S0_ELb1ELb1EEC2EOS4_(ptr noundef nonnull align 8 dereferenceable(8) %0, ptr noundef nonnull align 8 dereferenceable(8) %1) unnamed_addr #2 comdat align 2 !dbg !10384 {
  %3 = alloca ptr, align 8
  %4 = alloca ptr, align 8
  store ptr %0, ptr %3, align 8
  call void @llvm.dbg.declare(metadata ptr %3, metadata !10385, metadata !DIExpression()), !dbg !10386
  store ptr %1, ptr %4, align 8
  call void @llvm.dbg.declare(metadata ptr %4, metadata !10387, metadata !DIExpression()), !dbg !10388
  %5 = load ptr, ptr %3, align 8
  %6 = load ptr, ptr %4, align 8, !dbg !10389
  call void @_ZNSt15__uniq_ptr_implISt4byteSt14default_deleteIA_S0_EEC2EOS4_(ptr noundef nonnull align 8 dereferenceable(8) %5, ptr noundef nonnull align 8 dereferenceable(8) %6) #1, !dbg !10389
  ret void, !dbg !10390
}

; Function Attrs: noinline nounwind optnone uwtable
define linkonce_odr dso_local void @_ZNSt15__uniq_ptr_implISt4byteSt14default_deleteIA_S0_EEC2EOS4_(ptr noundef nonnull align 8 dereferenceable(8) %0, ptr noundef nonnull align 8 dereferenceable(8) %1) unnamed_addr #2 comdat align 2 !dbg !10391 {
  %3 = alloca ptr, align 8
  %4 = alloca ptr, align 8
  store ptr %0, ptr %3, align 8
  call void @llvm.dbg.declare(metadata ptr %3, metadata !10392, metadata !DIExpression()), !dbg !10393
  store ptr %1, ptr %4, align 8
  call void @llvm.dbg.declare(metadata ptr %4, metadata !10394, metadata !DIExpression()), !dbg !10395
  %5 = load ptr, ptr %3, align 8
  %6 = getelementptr inbounds %"class.std::__uniq_ptr_impl", ptr %5, i32 0, i32 0, !dbg !10396
  %7 = load ptr, ptr %4, align 8, !dbg !10397
  %8 = getelementptr inbounds %"class.std::__uniq_ptr_impl", ptr %7, i32 0, i32 0, !dbg !10398
  call void @_ZNSt5tupleIJPSt4byteSt14default_deleteIA_S0_EEEC2EOS5_(ptr noundef nonnull align 8 dereferenceable(8) %6, ptr noundef nonnull align 8 dereferenceable(8) %8) #1, !dbg !10396
  %9 = load ptr, ptr %4, align 8, !dbg !10399
  %10 = call noundef nonnull align 8 dereferenceable(8) ptr @_ZNSt15__uniq_ptr_implISt4byteSt14default_deleteIA_S0_EE6_M_ptrEv(ptr noundef nonnull align 8 dereferenceable(8) %9), !dbg !10401
  store ptr null, ptr %10, align 8, !dbg !10402
  ret void, !dbg !10403
}

; Function Attrs: noinline nounwind optnone uwtable
define linkonce_odr dso_local void @_ZNSt5tupleIJPSt4byteSt14default_deleteIA_S0_EEEC2EOS5_(ptr noundef nonnull align 8 dereferenceable(8) %0, ptr noundef nonnull align 8 dereferenceable(8) %1) unnamed_addr #2 comdat align 2 !dbg !10404 {
  %3 = alloca ptr, align 8
  %4 = alloca ptr, align 8
  store ptr %0, ptr %3, align 8
  call void @llvm.dbg.declare(metadata ptr %3, metadata !10405, metadata !DIExpression()), !dbg !10406
  store ptr %1, ptr %4, align 8
  call void @llvm.dbg.declare(metadata ptr %4, metadata !10407, metadata !DIExpression()), !dbg !10408
  %5 = load ptr, ptr %3, align 8
  %6 = load ptr, ptr %4, align 8, !dbg !10409
  call void @_ZNSt11_Tuple_implILm0EJPSt4byteSt14default_deleteIA_S0_EEEC2EOS5_(ptr noundef nonnull align 8 dereferenceable(8) %5, ptr noundef nonnull align 8 dereferenceable(8) %6) #1, !dbg !10409
  ret void, !dbg !10410
}

; Function Attrs: noinline nounwind optnone uwtable
define linkonce_odr dso_local void @_ZNSt11_Tuple_implILm0EJPSt4byteSt14default_deleteIA_S0_EEEC2EOS5_(ptr noundef nonnull align 8 dereferenceable(8) %0, ptr noundef nonnull align 8 dereferenceable(8) %1) unnamed_addr #2 comdat align 2 !dbg !10411 {
  %3 = alloca ptr, align 8
  %4 = alloca ptr, align 8
  store ptr %0, ptr %3, align 8
  call void @llvm.dbg.declare(metadata ptr %3, metadata !10412, metadata !DIExpression()), !dbg !10413
  store ptr %1, ptr %4, align 8
  call void @llvm.dbg.declare(metadata ptr %4, metadata !10414, metadata !DIExpression()), !dbg !10415
  %5 = load ptr, ptr %3, align 8
  %6 = load ptr, ptr %4, align 8, !dbg !10416
  call void @_ZNSt11_Tuple_implILm1EJSt14default_deleteIA_St4byteEEEC2EOS4_(ptr noundef nonnull align 1 dereferenceable(1) %5, ptr noundef nonnull align 1 dereferenceable(1) %6) #1, !dbg !10416
  %7 = load ptr, ptr %4, align 8, !dbg !10416
  call void @llvm.memcpy.p0.p0.i64(ptr align 8 %5, ptr align 8 %7, i64 8, i1 false), !dbg !10416
  ret void, !dbg !10417
}

; Function Attrs: noinline nounwind optnone uwtable
define linkonce_odr dso_local void @_ZNSt11_Tuple_implILm1EJSt14default_deleteIA_St4byteEEEC2EOS4_(ptr noundef nonnull align 1 dereferenceable(1) %0, ptr noundef nonnull align 1 dereferenceable(1) %1) unnamed_addr #2 comdat align 2 !dbg !10418 {
  %3 = alloca ptr, align 8
  %4 = alloca ptr, align 8
  store ptr %0, ptr %3, align 8
  call void @llvm.dbg.declare(metadata ptr %3, metadata !10419, metadata !DIExpression()), !dbg !10420
  store ptr %1, ptr %4, align 8
  call void @llvm.dbg.declare(metadata ptr %4, metadata !10421, metadata !DIExpression()), !dbg !10422
  %5 = load ptr, ptr %3, align 8
  %6 = load ptr, ptr %4, align 8, !dbg !10423
  ret void, !dbg !10424
}

; Function Attrs: noinline nounwind optnone uwtable
define internal void @"_ZNSt6thread8_InvokerISt5tupleIJZN5mongo4stdx6threadC1IZNS2_81UnitTest_SuiteNameThreadSafetyContextTestTestNameCreateThreadsWithNoSafetyContext7_doTestEvE3$_0JELi0EEET_DpOT0_EUlvE_EEED2Ev"(ptr noundef nonnull align 8 dereferenceable(16) %0) unnamed_addr #2 align 2 !dbg !10425 {
  %2 = alloca ptr, align 8
  store ptr %0, ptr %2, align 8
  call void @llvm.dbg.declare(metadata ptr %2, metadata !10429, metadata !DIExpression()), !dbg !10430
  %3 = load ptr, ptr %2, align 8
  %4 = getelementptr inbounds %"struct.std::thread::_Invoker", ptr %3, i32 0, i32 0, !dbg !10431
  call void @"_ZNSt5tupleIJZN5mongo4stdx6threadC1IZNS0_81UnitTest_SuiteNameThreadSafetyContextTestTestNameCreateThreadsWithNoSafetyContext7_doTestEvE3$_0JELi0EEET_DpOT0_EUlvE_EED2Ev"(ptr noundef nonnull align 8 dereferenceable(16) %4) #1, !dbg !10431
  ret void, !dbg !10433
}

; Function Attrs: noinline nounwind optnone uwtable
define internal void @"_ZNSt5tupleIJZN5mongo4stdx6threadC1IZNS0_81UnitTest_SuiteNameThreadSafetyContextTestTestNameCreateThreadsWithNoSafetyContext7_doTestEvE3$_0JELi0EEET_DpOT0_EUlvE_EED2Ev"(ptr noundef nonnull align 8 dereferenceable(16) %0) unnamed_addr #2 align 2 !dbg !10434 {
  %2 = alloca ptr, align 8
  store ptr %0, ptr %2, align 8
  call void @llvm.dbg.declare(metadata ptr %2, metadata !10438, metadata !DIExpression()), !dbg !10439
  %3 = load ptr, ptr %2, align 8
  call void @"_ZNSt11_Tuple_implILm0EJZN5mongo4stdx6threadC1IZNS0_81UnitTest_SuiteNameThreadSafetyContextTestTestNameCreateThreadsWithNoSafetyContext7_doTestEvE3$_0JELi0EEET_DpOT0_EUlvE_EED2Ev"(ptr noundef nonnull align 8 dereferenceable(16) %3) #1, !dbg !10440
  ret void, !dbg !10442
}

; Function Attrs: noinline nounwind optnone uwtable
define internal void @"_ZNSt11_Tuple_implILm0EJZN5mongo4stdx6threadC1IZNS0_81UnitTest_SuiteNameThreadSafetyContextTestTestNameCreateThreadsWithNoSafetyContext7_doTestEvE3$_0JELi0EEET_DpOT0_EUlvE_EED2Ev"(ptr noundef nonnull align 8 dereferenceable(16) %0) unnamed_addr #2 align 2 !dbg !10443 {
  %2 = alloca ptr, align 8
  store ptr %0, ptr %2, align 8
  call void @llvm.dbg.declare(metadata ptr %2, metadata !10445, metadata !DIExpression()), !dbg !10446
  %3 = load ptr, ptr %2, align 8
  call void @"_ZNSt10_Head_baseILm0EZN5mongo4stdx6threadC1IZNS0_81UnitTest_SuiteNameThreadSafetyContextTestTestNameCreateThreadsWithNoSafetyContext7_doTestEvE3$_0JELi0EEET_DpOT0_EUlvE_Lb0EED2Ev"(ptr noundef nonnull align 8 dereferenceable(16) %3) #1, !dbg !10447
  ret void, !dbg !10449
}

; Function Attrs: noinline nounwind optnone uwtable
define internal void @"_ZNSt10_Head_baseILm0EZN5mongo4stdx6threadC1IZNS0_81UnitTest_SuiteNameThreadSafetyContextTestTestNameCreateThreadsWithNoSafetyContext7_doTestEvE3$_0JELi0EEET_DpOT0_EUlvE_Lb0EED2Ev"(ptr noundef nonnull align 8 dereferenceable(16) %0) unnamed_addr #2 align 2 !dbg !10450 {
  %2 = alloca ptr, align 8
  store ptr %0, ptr %2, align 8
  call void @llvm.dbg.declare(metadata ptr %2, metadata !10452, metadata !DIExpression()), !dbg !10453
  %3 = load ptr, ptr %2, align 8
  %4 = getelementptr inbounds %"struct.std::_Head_base.55", ptr %3, i32 0, i32 0, !dbg !10454
  call void @"_ZZN5mongo4stdx6threadC1IZNS_81UnitTest_SuiteNameThreadSafetyContextTestTestNameCreateThreadsWithNoSafetyContext7_doTestEvE3$_0JELi0EEET_DpOT0_ENUlvE_D2Ev"(ptr noundef nonnull align 8 dereferenceable(10) %4) #1, !dbg !10454
  ret void, !dbg !10456
}

; Function Attrs: mustprogress noinline optnone uwtable
define internal void @"_ZNSt6thread8_InvokerISt5tupleIJZN5mongo4stdx6threadC1IZNS2_81UnitTest_SuiteNameThreadSafetyContextTestTestNameCreateThreadsWithNoSafetyContext7_doTestEvE3$_0JELi0EEET_DpOT0_EUlvE_EEEclEv"(ptr noundef nonnull align 8 dereferenceable(16) %0) #6 align 2 !dbg !10457 {
  %2 = alloca ptr, align 8
  %3 = alloca %"struct.std::_Index_tuple", align 1
  store ptr %0, ptr %2, align 8
  call void @llvm.dbg.declare(metadata ptr %2, metadata !10458, metadata !DIExpression()), !dbg !10459
  %4 = load ptr, ptr %2, align 8
  call void @"_ZNSt6thread8_InvokerISt5tupleIJZN5mongo4stdx6threadC1IZNS2_81UnitTest_SuiteNameThreadSafetyContextTestTestNameCreateThreadsWithNoSafetyContext7_doTestEvE3$_0JELi0EEET_DpOT0_EUlvE_EEE9_M_invokeIJLm0EEEEvSt12_Index_tupleIJXspT_EEE"(ptr noundef nonnull align 8 dereferenceable(16) %4), !dbg !10460
  ret void, !dbg !10461
}

; Function Attrs: mustprogress noinline nounwind optnone uwtable
define internal void @"_ZNSt6thread8_InvokerISt5tupleIJZN5mongo4stdx6threadC1IZNS2_81UnitTest_SuiteNameThreadSafetyContextTestTestNameCreateThreadsWithNoSafetyContext7_doTestEvE3$_0JELi0EEET_DpOT0_EUlvE_EEE9_M_invokeIJLm0EEEEvSt12_Index_tupleIJXspT_EEE"(ptr noundef nonnull align 8 dereferenceable(16) %0) #8 align 2 !dbg !10462 {
  %2 = alloca %"struct.std::_Index_tuple", align 1
  %3 = alloca ptr, align 8
  store ptr %0, ptr %3, align 8
  call void @llvm.dbg.declare(metadata ptr %3, metadata !10473, metadata !DIExpression()), !dbg !10474
  call void @llvm.dbg.declare(metadata ptr %2, metadata !10475, metadata !DIExpression()), !dbg !10476
  %4 = load ptr, ptr %3, align 8
  %5 = getelementptr inbounds %"struct.std::thread::_Invoker", ptr %4, i32 0, i32 0, !dbg !10477
  %6 = call noundef nonnull align 8 dereferenceable(10) ptr @"_ZSt3getILm0EJZN5mongo4stdx6threadC1IZNS0_81UnitTest_SuiteNameThreadSafetyContextTestTestNameCreateThreadsWithNoSafetyContext7_doTestEvE3$_0JELi0EEET_DpOT0_EUlvE_EEONSt13tuple_elementIXT_ESt5tupleIJDpS7_EEE4typeEOSE_"(ptr noundef nonnull align 8 dereferenceable(16) %5) #1, !dbg !10478
  call void @"_ZSt8__invokeIZN5mongo4stdx6threadC1IZNS0_81UnitTest_SuiteNameThreadSafetyContextTestTestNameCreateThreadsWithNoSafetyContext7_doTestEvE3$_0JELi0EEET_DpOT0_EUlvE_JEENSt15__invoke_resultIS6_JDpS7_EE4typeEOS6_S9_"(ptr noundef nonnull align 8 dereferenceable(10) %6) #1, !dbg !10479
  ret void, !dbg !10480
}

; Function Attrs: mustprogress noinline nounwind optnone uwtable
define internal void @"_ZSt8__invokeIZN5mongo4stdx6threadC1IZNS0_81UnitTest_SuiteNameThreadSafetyContextTestTestNameCreateThreadsWithNoSafetyContext7_doTestEvE3$_0JELi0EEET_DpOT0_EUlvE_JEENSt15__invoke_resultIS6_JDpS7_EE4typeEOS6_S9_"(ptr noundef nonnull align 8 dereferenceable(10) %0) #8 personality ptr @__gxx_personality_v0 !dbg !2750 {
  %2 = alloca ptr, align 8
  %3 = alloca %"struct.std::__invoke_other", align 1
  store ptr %0, ptr %2, align 8
  call void @llvm.dbg.declare(metadata ptr %2, metadata !10481, metadata !DIExpression()), !dbg !10482
  %4 = load ptr, ptr %2, align 8, !dbg !10483
  invoke void @"_ZSt13__invoke_implIvZN5mongo4stdx6threadC1IZNS0_81UnitTest_SuiteNameThreadSafetyContextTestTestNameCreateThreadsWithNoSafetyContext7_doTestEvE3$_0JELi0EEET_DpOT0_EUlvE_JEES6_St14__invoke_otherOT0_DpOT1_"(ptr noundef nonnull align 8 dereferenceable(10) %4)
          to label %5 unwind label %6, !dbg !10484

5:                                                ; preds = %1
  ret void, !dbg !10485

6:                                                ; preds = %1
  %7 = landingpad { ptr, i32 }
          catch ptr null, !dbg !10484
  %8 = extractvalue { ptr, i32 } %7, 0, !dbg !10484
  call void @__clang_call_terminate(ptr %8) #19, !dbg !10484
  unreachable, !dbg !10484
}

; Function Attrs: mustprogress noinline nounwind optnone uwtable
define internal noundef nonnull align 8 dereferenceable(10) ptr @"_ZSt3getILm0EJZN5mongo4stdx6threadC1IZNS0_81UnitTest_SuiteNameThreadSafetyContextTestTestNameCreateThreadsWithNoSafetyContext7_doTestEvE3$_0JELi0EEET_DpOT0_EUlvE_EEONSt13tuple_elementIXT_ESt5tupleIJDpS7_EEE4typeEOSE_"(ptr noundef nonnull align 8 dereferenceable(16) %0) #8 !dbg !10486 {
  %2 = alloca ptr, align 8
  store ptr %0, ptr %2, align 8
  call void @llvm.dbg.declare(metadata ptr %2, metadata !10496, metadata !DIExpression()), !dbg !10497
  %3 = load ptr, ptr %2, align 8, !dbg !10498
  %4 = call noundef nonnull align 8 dereferenceable(10) ptr @"_ZSt12__get_helperILm0EZN5mongo4stdx6threadC1IZNS0_81UnitTest_SuiteNameThreadSafetyContextTestTestNameCreateThreadsWithNoSafetyContext7_doTestEvE3$_0JELi0EEET_DpOT0_EUlvE_JEERT0_RSt11_Tuple_implIXT_EJSB_DpT1_EE"(ptr noundef nonnull align 8 dereferenceable(16) %3) #1, !dbg !10499
  ret ptr %4, !dbg !10500
}

; Function Attrs: mustprogress noinline nounwind optnone uwtable
define internal void @"_ZSt13__invoke_implIvZN5mongo4stdx6threadC1IZNS0_81UnitTest_SuiteNameThreadSafetyContextTestTestNameCreateThreadsWithNoSafetyContext7_doTestEvE3$_0JELi0EEET_DpOT0_EUlvE_JEES6_St14__invoke_otherOT0_DpOT1_"(ptr noundef nonnull align 8 dereferenceable(10) %0) #8 !dbg !10501 {
  %2 = alloca %"struct.std::__invoke_other", align 1
  %3 = alloca ptr, align 8
  call void @llvm.dbg.declare(metadata ptr %2, metadata !10506, metadata !DIExpression()), !dbg !10507
  store ptr %0, ptr %3, align 8
  call void @llvm.dbg.declare(metadata ptr %3, metadata !10508, metadata !DIExpression()), !dbg !10509
  %4 = load ptr, ptr %3, align 8, !dbg !10510
  call void @"_ZZN5mongo4stdx6threadC1IZNS_81UnitTest_SuiteNameThreadSafetyContextTestTestNameCreateThreadsWithNoSafetyContext7_doTestEvE3$_0JELi0EEET_DpOT0_ENUlvE_clEv"(ptr noundef nonnull align 8 dereferenceable(10) %4) #1, !dbg !10511
  ret void, !dbg !10512
}

; Function Attrs: mustprogress noinline nounwind optnone uwtable
define internal void @"_ZZN5mongo4stdx6threadC1IZNS_81UnitTest_SuiteNameThreadSafetyContextTestTestNameCreateThreadsWithNoSafetyContext7_doTestEvE3$_0JELi0EEET_DpOT0_ENUlvE_clEv"(ptr noundef nonnull align 8 dereferenceable(10) %0) #8 align 2 personality ptr @__gxx_personality_v0 !dbg !10513 {
  %2 = alloca ptr, align 8
  %3 = alloca %struct.Guard, align 8
  store ptr %0, ptr %2, align 8
  call void @llvm.dbg.declare(metadata ptr %2, metadata !10517, metadata !DIExpression()), !dbg !10518
  %4 = load ptr, ptr %2, align 8
  %5 = call noundef ptr @_ZN5mongo19ThreadSafetyContext22getThreadSafetyContextEv() #1, !dbg !10519
  call void @_ZN5mongo19ThreadSafetyContext14onThreadCreateEv(ptr noundef nonnull align 1 dereferenceable(2) %5) #1, !dbg !10520
  call void @llvm.dbg.declare(metadata ptr %3, metadata !10521, metadata !DIExpression()), !dbg !10522
  %6 = getelementptr inbounds %class.anon.40, ptr %4, i32 0, i32 0, !dbg !10523
  invoke void @_ZNK5mongo4stdx7support21SigAltStackController16makeInstallGuardEv(ptr sret(%struct.Guard) align 8 %3, ptr noundef nonnull align 8 dereferenceable(8) %6)
          to label %7 unwind label %11, !dbg !10524

7:                                                ; preds = %1
  %8 = getelementptr inbounds %class.anon.40, ptr %4, i32 0, i32 1, !dbg !10525
  %9 = getelementptr inbounds %class.anon.40, ptr %4, i32 0, i32 2, !dbg !10526
  invoke void @"_ZSt5applyIZN5mongo81UnitTest_SuiteNameThreadSafetyContextTestTestNameCreateThreadsWithNoSafetyContext7_doTestEvE3$_0St5tupleIJEEEDcOT_OT0_"(ptr noundef nonnull align 1 dereferenceable(1) %8, ptr noundef nonnull align 1 dereferenceable(1) %9)
          to label %10 unwind label %11, !dbg !10527

10:                                               ; preds = %7
  call void @_ZZNK5mongo4stdx7support21SigAltStackController16makeInstallGuardEvEN5GuardD2Ev(ptr noundef nonnull align 8 dereferenceable(8) %3) #1, !dbg !10528
  ret void, !dbg !10528

11:                                               ; preds = %7, %1
  %12 = landingpad { ptr, i32 }
          catch ptr null, !dbg !10524
  %13 = extractvalue { ptr, i32 } %12, 0, !dbg !10524
  call void @__clang_call_terminate(ptr %13) #19, !dbg !10524
  unreachable, !dbg !10524
}

; Function Attrs: nounwind
declare void @_ZN5mongo19ThreadSafetyContext14onThreadCreateEv(ptr noundef nonnull align 1 dereferenceable(2)) #4

; Function Attrs: mustprogress noinline optnone uwtable
define linkonce_odr dso_local void @_ZNK5mongo4stdx7support21SigAltStackController16makeInstallGuardEv(ptr noalias sret(%struct.Guard) align 8 %0, ptr noundef nonnull align 8 dereferenceable(8) %1) #6 comdat align 2 !dbg !5939 {
  %3 = alloca ptr, align 8
  %4 = alloca ptr, align 8
  store ptr %0, ptr %3, align 8
  store ptr %1, ptr %4, align 8
  call void @llvm.dbg.declare(metadata ptr %4, metadata !10529, metadata !DIExpression()), !dbg !10530
  %5 = load ptr, ptr %4, align 8
  call void @_ZZNK5mongo4stdx7support21SigAltStackController16makeInstallGuardEvEN5GuardC2ERKS2_(ptr noundef nonnull align 8 dereferenceable(8) %0, ptr noundef nonnull align 8 dereferenceable(8) %5), !dbg !10531
  ret void, !dbg !10532
}

; Function Attrs: mustprogress noinline optnone uwtable
define internal void @"_ZSt5applyIZN5mongo81UnitTest_SuiteNameThreadSafetyContextTestTestNameCreateThreadsWithNoSafetyContext7_doTestEvE3$_0St5tupleIJEEEDcOT_OT0_"(ptr noundef nonnull align 1 dereferenceable(1) %0, ptr noundef nonnull align 1 dereferenceable(1) %1) #6 !dbg !2805 {
  %3 = alloca ptr, align 8
  %4 = alloca ptr, align 8
  %5 = alloca %"struct.std::integer_sequence", align 1
  store ptr %0, ptr %3, align 8
  call void @llvm.dbg.declare(metadata ptr %3, metadata !10533, metadata !DIExpression()), !dbg !10534
  store ptr %1, ptr %4, align 8
  call void @llvm.dbg.declare(metadata ptr %4, metadata !10535, metadata !DIExpression()), !dbg !10536
  %6 = load ptr, ptr %3, align 8, !dbg !10537
  %7 = load ptr, ptr %4, align 8, !dbg !10538
  call void @"_ZSt12__apply_implIZN5mongo81UnitTest_SuiteNameThreadSafetyContextTestTestNameCreateThreadsWithNoSafetyContext7_doTestEvE3$_0St5tupleIJEEJEEDcOT_OT0_St16integer_sequenceImJXspT1_EEE"(ptr noundef nonnull align 1 dereferenceable(1) %6, ptr noundef nonnull align 1 dereferenceable(1) %7), !dbg !10539
  ret void, !dbg !10540
}

; Function Attrs: noinline nounwind optnone uwtable
define linkonce_odr dso_local void @_ZZNK5mongo4stdx7support21SigAltStackController16makeInstallGuardEvEN5GuardD2Ev(ptr noundef nonnull align 8 dereferenceable(8) %0) unnamed_addr #2 comdat align 2 personality ptr @__gxx_personality_v0 !dbg !10541 {
  %2 = alloca ptr, align 8
  store ptr %0, ptr %2, align 8
  call void @llvm.dbg.declare(metadata ptr %2, metadata !10542, metadata !DIExpression()), !dbg !10544
  %3 = load ptr, ptr %2, align 8
  %4 = getelementptr inbounds %struct.Guard, ptr %3, i32 0, i32 0, !dbg !10545
  %5 = load ptr, ptr %4, align 8, !dbg !10545
  invoke void @_ZNK5mongo4stdx7support21SigAltStackController10_uninstallEv(ptr noundef nonnull align 8 dereferenceable(8) %5)
          to label %6 unwind label %7, !dbg !10547

6:                                                ; preds = %1
  ret void, !dbg !10548

7:                                                ; preds = %1
  %8 = landingpad { ptr, i32 }
          catch ptr null, !dbg !10547
  %9 = extractvalue { ptr, i32 } %8, 0, !dbg !10547
  call void @__clang_call_terminate(ptr %9) #19, !dbg !10547
  unreachable, !dbg !10547
}

; Function Attrs: noinline optnone uwtable
define linkonce_odr dso_local void @_ZZNK5mongo4stdx7support21SigAltStackController16makeInstallGuardEvEN5GuardC2ERKS2_(ptr noundef nonnull align 8 dereferenceable(8) %0, ptr noundef nonnull align 8 dereferenceable(8) %1) unnamed_addr #5 comdat align 2 !dbg !10549 {
  %3 = alloca ptr, align 8
  %4 = alloca ptr, align 8
  store ptr %0, ptr %3, align 8
  call void @llvm.dbg.declare(metadata ptr %3, metadata !10550, metadata !DIExpression()), !dbg !10551
  store ptr %1, ptr %4, align 8
  call void @llvm.dbg.declare(metadata ptr %4, metadata !10552, metadata !DIExpression()), !dbg !10553
  %5 = load ptr, ptr %3, align 8
  %6 = getelementptr inbounds %struct.Guard, ptr %5, i32 0, i32 0, !dbg !10554
  %7 = load ptr, ptr %4, align 8, !dbg !10555
  store ptr %7, ptr %6, align 8, !dbg !10554
  %8 = getelementptr inbounds %struct.Guard, ptr %5, i32 0, i32 0, !dbg !10556
  %9 = load ptr, ptr %8, align 8, !dbg !10556
  call void @_ZNK5mongo4stdx7support21SigAltStackController8_installEv(ptr noundef nonnull align 8 dereferenceable(8) %9), !dbg !10558
  ret void, !dbg !10559
}

; Function Attrs: mustprogress noinline nounwind optnone uwtable
define linkonce_odr dso_local void @_ZNK5mongo4stdx7support21SigAltStackController8_installEv(ptr noundef nonnull align 8 dereferenceable(8) %0) #8 comdat align 2 !dbg !10560 {
  %2 = alloca ptr, align 8
  %3 = alloca %struct.stack_t, align 8
  store ptr %0, ptr %2, align 8
  call void @llvm.dbg.declare(metadata ptr %2, metadata !10561, metadata !DIExpression()), !dbg !10562
  %4 = load ptr, ptr %2, align 8
  call void @llvm.dbg.declare(metadata ptr %3, metadata !10563, metadata !DIExpression()), !dbg !10571
  call void @llvm.memset.p0.i64(ptr align 8 %3, i8 0, i64 24, i1 false), !dbg !10571
  %5 = getelementptr inbounds %"class.mongo::stdx::support::SigAltStackController", ptr %4, i32 0, i32 0, !dbg !10572
  %6 = call noundef ptr @_ZNKSt10unique_ptrIA_St4byteSt14default_deleteIS1_EE3getEv(ptr noundef nonnull align 8 dereferenceable(8) %5) #1, !dbg !10573
  %7 = getelementptr inbounds %struct.stack_t, ptr %3, i32 0, i32 0, !dbg !10574
  store ptr %6, ptr %7, align 8, !dbg !10575
  %8 = getelementptr inbounds %struct.stack_t, ptr %3, i32 0, i32 1, !dbg !10576
  store i32 0, ptr %8, align 8, !dbg !10577
  %9 = call noundef i64 @_ZNK5mongo4stdx7support21SigAltStackController12getStackSizeEv(ptr noundef nonnull align 8 dereferenceable(8) %4), !dbg !10578
  %10 = getelementptr inbounds %struct.stack_t, ptr %3, i32 0, i32 2, !dbg !10579
  store i64 %9, ptr %10, align 8, !dbg !10580
  %11 = call i32 @sigaltstack(ptr noundef %3, ptr noundef null) #1, !dbg !10581
  %12 = icmp ne i32 %11, 0, !dbg !10581
  br i1 %12, label %13, label %14, !dbg !10583

13:                                               ; preds = %1
  call void @abort() #19, !dbg !10584
  unreachable, !dbg !10584

14:                                               ; preds = %1
  ret void, !dbg !10586
}

; Function Attrs: mustprogress noinline nounwind optnone uwtable
define linkonce_odr dso_local noundef ptr @_ZNKSt10unique_ptrIA_St4byteSt14default_deleteIS1_EE3getEv(ptr noundef nonnull align 8 dereferenceable(8) %0) #8 comdat align 2 personality ptr @__gxx_personality_v0 !dbg !10587 {
  %2 = alloca ptr, align 8
  store ptr %0, ptr %2, align 8
  call void @llvm.dbg.declare(metadata ptr %2, metadata !10588, metadata !DIExpression()), !dbg !10590
  %3 = load ptr, ptr %2, align 8
  %4 = getelementptr inbounds %"class.std::unique_ptr", ptr %3, i32 0, i32 0, !dbg !10591
  %5 = invoke noundef ptr @_ZNKSt15__uniq_ptr_implISt4byteSt14default_deleteIA_S0_EE6_M_ptrEv(ptr noundef nonnull align 8 dereferenceable(8) %4)
          to label %6 unwind label %7, !dbg !10592

6:                                                ; preds = %1
  ret ptr %5, !dbg !10593

7:                                                ; preds = %1
  %8 = landingpad { ptr, i32 }
          catch ptr null, !dbg !10592
  %9 = extractvalue { ptr, i32 } %8, 0, !dbg !10592
  call void @__clang_call_terminate(ptr %9) #19, !dbg !10592
  unreachable, !dbg !10592
}

; Function Attrs: nounwind
declare i32 @sigaltstack(ptr noundef, ptr noundef) #4

; Function Attrs: noreturn nounwind
declare void @abort() #10

; Function Attrs: mustprogress noinline nounwind optnone uwtable
define linkonce_odr dso_local noundef ptr @_ZNKSt15__uniq_ptr_implISt4byteSt14default_deleteIA_S0_EE6_M_ptrEv(ptr noundef nonnull align 8 dereferenceable(8) %0) #8 comdat align 2 !dbg !10594 {
  %2 = alloca ptr, align 8
  store ptr %0, ptr %2, align 8
  call void @llvm.dbg.declare(metadata ptr %2, metadata !10595, metadata !DIExpression()), !dbg !10597
  %3 = load ptr, ptr %2, align 8
  %4 = getelementptr inbounds %"class.std::__uniq_ptr_impl", ptr %3, i32 0, i32 0, !dbg !10598
  %5 = call noundef nonnull align 8 dereferenceable(8) ptr @_ZSt3getILm0EJPSt4byteSt14default_deleteIA_S0_EEERKNSt13tuple_elementIXT_ESt5tupleIJDpT0_EEE4typeERKS9_(ptr noundef nonnull align 8 dereferenceable(8) %4) #1, !dbg !10599
  %6 = load ptr, ptr %5, align 8, !dbg !10599
  ret ptr %6, !dbg !10600
}

; Function Attrs: mustprogress noinline nounwind optnone uwtable
define linkonce_odr dso_local noundef nonnull align 8 dereferenceable(8) ptr @_ZSt3getILm0EJPSt4byteSt14default_deleteIA_S0_EEERKNSt13tuple_elementIXT_ESt5tupleIJDpT0_EEE4typeERKS9_(ptr noundef nonnull align 8 dereferenceable(8) %0) #8 comdat !dbg !10601 {
  %2 = alloca ptr, align 8
  store ptr %0, ptr %2, align 8
  call void @llvm.dbg.declare(metadata ptr %2, metadata !10606, metadata !DIExpression()), !dbg !10607
  %3 = load ptr, ptr %2, align 8, !dbg !10608
  %4 = call noundef nonnull align 8 dereferenceable(8) ptr @_ZSt12__get_helperILm0EPSt4byteJSt14default_deleteIA_S0_EEERKT0_RKSt11_Tuple_implIXT_EJS5_DpT1_EE(ptr noundef nonnull align 8 dereferenceable(8) %3) #1, !dbg !10609
  ret ptr %4, !dbg !10610
}

; Function Attrs: mustprogress noinline nounwind optnone uwtable
define linkonce_odr dso_local noundef nonnull align 8 dereferenceable(8) ptr @_ZSt12__get_helperILm0EPSt4byteJSt14default_deleteIA_S0_EEERKT0_RKSt11_Tuple_implIXT_EJS5_DpT1_EE(ptr noundef nonnull align 8 dereferenceable(8) %0) #8 comdat !dbg !10611 {
  %2 = alloca ptr, align 8
  store ptr %0, ptr %2, align 8
  call void @llvm.dbg.declare(metadata ptr %2, metadata !10612, metadata !DIExpression()), !dbg !10613
  %3 = load ptr, ptr %2, align 8, !dbg !10614
  %4 = call noundef nonnull align 8 dereferenceable(8) ptr @_ZNSt11_Tuple_implILm0EJPSt4byteSt14default_deleteIA_S0_EEE7_M_headERKS5_(ptr noundef nonnull align 8 dereferenceable(8) %3) #1, !dbg !10615
  ret ptr %4, !dbg !10616
}

; Function Attrs: mustprogress noinline nounwind optnone uwtable
define linkonce_odr dso_local noundef nonnull align 8 dereferenceable(8) ptr @_ZNSt11_Tuple_implILm0EJPSt4byteSt14default_deleteIA_S0_EEE7_M_headERKS5_(ptr noundef nonnull align 8 dereferenceable(8) %0) #8 comdat align 2 !dbg !10617 {
  %2 = alloca ptr, align 8
  store ptr %0, ptr %2, align 8
  call void @llvm.dbg.declare(metadata ptr %2, metadata !10618, metadata !DIExpression()), !dbg !10619
  %3 = load ptr, ptr %2, align 8, !dbg !10620
  %4 = call noundef nonnull align 8 dereferenceable(8) ptr @_ZNSt10_Head_baseILm0EPSt4byteLb0EE7_M_headERKS2_(ptr noundef nonnull align 8 dereferenceable(8) %3) #1, !dbg !10621
  ret ptr %4, !dbg !10622
}

; Function Attrs: mustprogress noinline nounwind optnone uwtable
define linkonce_odr dso_local noundef nonnull align 8 dereferenceable(8) ptr @_ZNSt10_Head_baseILm0EPSt4byteLb0EE7_M_headERKS2_(ptr noundef nonnull align 8 dereferenceable(8) %0) #8 comdat align 2 !dbg !10623 {
  %2 = alloca ptr, align 8
  store ptr %0, ptr %2, align 8
  call void @llvm.dbg.declare(metadata ptr %2, metadata !10624, metadata !DIExpression()), !dbg !10625
  %3 = load ptr, ptr %2, align 8, !dbg !10626
  %4 = getelementptr inbounds %"struct.std::_Head_base.42", ptr %3, i32 0, i32 0, !dbg !10627
  ret ptr %4, !dbg !10628
}

; Function Attrs: mustprogress noinline optnone uwtable
define internal void @"_ZSt12__apply_implIZN5mongo81UnitTest_SuiteNameThreadSafetyContextTestTestNameCreateThreadsWithNoSafetyContext7_doTestEvE3$_0St5tupleIJEEJEEDcOT_OT0_St16integer_sequenceImJXspT1_EEE"(ptr noundef nonnull align 1 dereferenceable(1) %0, ptr noundef nonnull align 1 dereferenceable(1) %1) #6 !dbg !10629 {
  %3 = alloca %"struct.std::integer_sequence", align 1
  %4 = alloca ptr, align 8
  %5 = alloca ptr, align 8
  store ptr %0, ptr %4, align 8
  call void @llvm.dbg.declare(metadata ptr %4, metadata !10634, metadata !DIExpression()), !dbg !10635
  store ptr %1, ptr %5, align 8
  call void @llvm.dbg.declare(metadata ptr %5, metadata !10636, metadata !DIExpression()), !dbg !10637
  call void @llvm.dbg.declare(metadata ptr %3, metadata !10638, metadata !DIExpression()), !dbg !10639
  %6 = load ptr, ptr %4, align 8, !dbg !10640
  call void @"_ZSt8__invokeIZN5mongo81UnitTest_SuiteNameThreadSafetyContextTestTestNameCreateThreadsWithNoSafetyContext7_doTestEvE3$_0JEENSt15__invoke_resultIT_JDpT0_EE4typeEOS4_DpOS5_"(ptr noundef nonnull align 1 dereferenceable(1) %6), !dbg !10641
  ret void, !dbg !10642
}

; Function Attrs: mustprogress noinline optnone uwtable
define internal void @"_ZSt8__invokeIZN5mongo81UnitTest_SuiteNameThreadSafetyContextTestTestNameCreateThreadsWithNoSafetyContext7_doTestEvE3$_0JEENSt15__invoke_resultIT_JDpT0_EE4typeEOS4_DpOS5_"(ptr noundef nonnull align 1 dereferenceable(1) %0) #6 !dbg !2825 {
  %2 = alloca ptr, align 8
  %3 = alloca %"struct.std::__invoke_other", align 1
  store ptr %0, ptr %2, align 8
  call void @llvm.dbg.declare(metadata ptr %2, metadata !10643, metadata !DIExpression()), !dbg !10644
  %4 = load ptr, ptr %2, align 8, !dbg !10645
  call void @"_ZSt13__invoke_implIvZN5mongo81UnitTest_SuiteNameThreadSafetyContextTestTestNameCreateThreadsWithNoSafetyContext7_doTestEvE3$_0JEET_St14__invoke_otherOT0_DpOT1_"(ptr noundef nonnull align 1 dereferenceable(1) %4), !dbg !10646
  ret void, !dbg !10647
}

; Function Attrs: mustprogress noinline optnone uwtable
define internal void @"_ZSt13__invoke_implIvZN5mongo81UnitTest_SuiteNameThreadSafetyContextTestTestNameCreateThreadsWithNoSafetyContext7_doTestEvE3$_0JEET_St14__invoke_otherOT0_DpOT1_"(ptr noundef nonnull align 1 dereferenceable(1) %0) #6 !dbg !10648 {
  %2 = alloca %"struct.std::__invoke_other", align 1
  %3 = alloca ptr, align 8
  call void @llvm.dbg.declare(metadata ptr %2, metadata !10652, metadata !DIExpression()), !dbg !10653
  store ptr %0, ptr %3, align 8
  call void @llvm.dbg.declare(metadata ptr %3, metadata !10654, metadata !DIExpression()), !dbg !10655
  %4 = load ptr, ptr %3, align 8, !dbg !10656
  call void @"_ZZN5mongo81UnitTest_SuiteNameThreadSafetyContextTestTestNameCreateThreadsWithNoSafetyContext7_doTestEvENK3$_0clEv"(ptr noundef nonnull align 1 dereferenceable(1) %4), !dbg !10657
  ret void, !dbg !10658
}

; Function Attrs: mustprogress noinline optnone uwtable
define internal void @"_ZZN5mongo81UnitTest_SuiteNameThreadSafetyContextTestTestNameCreateThreadsWithNoSafetyContext7_doTestEvENK3$_0clEv"(ptr noundef nonnull align 1 dereferenceable(1) %0) #6 align 2 !dbg !10659 {
  %2 = alloca ptr, align 8
  %3 = alloca %"class.mongo::Duration", align 8
  %4 = alloca i32, align 4
  store ptr %0, ptr %2, align 8
  call void @llvm.dbg.declare(metadata ptr %2, metadata !10665, metadata !DIExpression()), !dbg !10667
  %5 = load ptr, ptr %2, align 8
  store i32 10, ptr %4, align 4, !dbg !10668
  call void @_ZN5mongo8DurationISt5ratioILl1ELl1000EEEC2IiLi0EEERKT_(ptr noundef nonnull align 8 dereferenceable(8) %3, ptr noundef nonnull align 4 dereferenceable(4) %4), !dbg !10669
  %6 = getelementptr inbounds %"class.mongo::Duration", ptr %3, i32 0, i32 0, !dbg !10670
  %7 = load i64, ptr %6, align 8, !dbg !10670
  call void @_ZN5mongo8sleepForINS_8DurationISt5ratioILl1ELl1000EEEEEEvT_(i64 %7), !dbg !10670
  ret void, !dbg !10671
}

; Function Attrs: mustprogress noinline nounwind optnone uwtable
define linkonce_odr dso_local void @_ZNK5mongo4stdx7support21SigAltStackController10_uninstallEv(ptr noundef nonnull align 8 dereferenceable(8) %0) #8 comdat align 2 !dbg !10672 {
  %2 = alloca ptr, align 8
  %3 = alloca %struct.stack_t, align 8
  store ptr %0, ptr %2, align 8
  call void @llvm.dbg.declare(metadata ptr %2, metadata !10673, metadata !DIExpression()), !dbg !10674
  %4 = load ptr, ptr %2, align 8
  call void @llvm.dbg.declare(metadata ptr %3, metadata !10675, metadata !DIExpression()), !dbg !10676
  call void @llvm.memset.p0.i64(ptr align 8 %3, i8 0, i64 24, i1 false), !dbg !10676
  %5 = getelementptr inbounds %struct.stack_t, ptr %3, i32 0, i32 1, !dbg !10677
  store i32 2, ptr %5, align 8, !dbg !10678
  %6 = call i32 @sigaltstack(ptr noundef %3, ptr noundef null) #1, !dbg !10679
  %7 = icmp ne i32 %6, 0, !dbg !10679
  br i1 %7, label %8, label %9, !dbg !10681

8:                                                ; preds = %1
  call void @abort() #19, !dbg !10682
  unreachable, !dbg !10682

9:                                                ; preds = %1
  ret void, !dbg !10684
}

; Function Attrs: mustprogress noinline nounwind optnone uwtable
define internal noundef nonnull align 8 dereferenceable(10) ptr @"_ZSt12__get_helperILm0EZN5mongo4stdx6threadC1IZNS0_81UnitTest_SuiteNameThreadSafetyContextTestTestNameCreateThreadsWithNoSafetyContext7_doTestEvE3$_0JELi0EEET_DpOT0_EUlvE_JEERT0_RSt11_Tuple_implIXT_EJSB_DpT1_EE"(ptr noundef nonnull align 8 dereferenceable(16) %0) #8 !dbg !10685 {
  %2 = alloca ptr, align 8
  store ptr %0, ptr %2, align 8
  call void @llvm.dbg.declare(metadata ptr %2, metadata !10688, metadata !DIExpression()), !dbg !10689
  %3 = load ptr, ptr %2, align 8, !dbg !10690
  %4 = call noundef nonnull align 8 dereferenceable(10) ptr @"_ZNSt11_Tuple_implILm0EJZN5mongo4stdx6threadC1IZNS0_81UnitTest_SuiteNameThreadSafetyContextTestTestNameCreateThreadsWithNoSafetyContext7_doTestEvE3$_0JELi0EEET_DpOT0_EUlvE_EE7_M_headERSB_"(ptr noundef nonnull align 8 dereferenceable(16) %3) #1, !dbg !10691
  ret ptr %4, !dbg !10692
}

; Function Attrs: mustprogress noinline nounwind optnone uwtable
define internal noundef nonnull align 8 dereferenceable(10) ptr @"_ZNSt11_Tuple_implILm0EJZN5mongo4stdx6threadC1IZNS0_81UnitTest_SuiteNameThreadSafetyContextTestTestNameCreateThreadsWithNoSafetyContext7_doTestEvE3$_0JELi0EEET_DpOT0_EUlvE_EE7_M_headERSB_"(ptr noundef nonnull align 8 dereferenceable(16) %0) #8 align 2 !dbg !10693 {
  %2 = alloca ptr, align 8
  store ptr %0, ptr %2, align 8
  call void @llvm.dbg.declare(metadata ptr %2, metadata !10694, metadata !DIExpression()), !dbg !10695
  %3 = load ptr, ptr %2, align 8, !dbg !10696
  %4 = call noundef nonnull align 8 dereferenceable(10) ptr @"_ZNSt10_Head_baseILm0EZN5mongo4stdx6threadC1IZNS0_81UnitTest_SuiteNameThreadSafetyContextTestTestNameCreateThreadsWithNoSafetyContext7_doTestEvE3$_0JELi0EEET_DpOT0_EUlvE_Lb0EE7_M_headERSB_"(ptr noundef nonnull align 8 dereferenceable(16) %3) #1, !dbg !10697
  ret ptr %4, !dbg !10698
}

; Function Attrs: mustprogress noinline nounwind optnone uwtable
define internal noundef nonnull align 8 dereferenceable(10) ptr @"_ZNSt10_Head_baseILm0EZN5mongo4stdx6threadC1IZNS0_81UnitTest_SuiteNameThreadSafetyContextTestTestNameCreateThreadsWithNoSafetyContext7_doTestEvE3$_0JELi0EEET_DpOT0_EUlvE_Lb0EE7_M_headERSB_"(ptr noundef nonnull align 8 dereferenceable(16) %0) #8 align 2 !dbg !10699 {
  %2 = alloca ptr, align 8
  store ptr %0, ptr %2, align 8
  call void @llvm.dbg.declare(metadata ptr %2, metadata !10700, metadata !DIExpression()), !dbg !10701
  %3 = load ptr, ptr %2, align 8, !dbg !10702
  %4 = getelementptr inbounds %"struct.std::_Head_base.55", ptr %3, i32 0, i32 0, !dbg !10703
  ret ptr %4, !dbg !10704
}

; Function Attrs: noinline optnone uwtable
define linkonce_odr dso_local void @_ZNSt15__uniq_ptr_dataINSt6thread6_StateESt14default_deleteIS1_ELb1ELb1EECI2St15__uniq_ptr_implIS1_S3_EEPS1_(ptr noundef nonnull align 8 dereferenceable(8) %0, ptr noundef %1) unnamed_addr #5 comdat align 2 !dbg !10705 {
  %3 = alloca ptr, align 8
  %4 = alloca ptr, align 8
  store ptr %0, ptr %3, align 8
  call void @llvm.dbg.declare(metadata ptr %3, metadata !10709, metadata !DIExpression()), !dbg !10711
  store ptr %1, ptr %4, align 8
  call void @llvm.dbg.declare(metadata ptr %4, metadata !10712, metadata !DIExpression()), !dbg !10711
  %5 = load ptr, ptr %3, align 8
  %6 = load ptr, ptr %4, align 8, !dbg !10713
  call void @_ZNSt15__uniq_ptr_implINSt6thread6_StateESt14default_deleteIS1_EEC2EPS1_(ptr noundef nonnull align 8 dereferenceable(8) %5, ptr noundef %6), !dbg !10713
  ret void, !dbg !10713
}

; Function Attrs: noinline optnone uwtable
define linkonce_odr dso_local void @_ZNSt15__uniq_ptr_implINSt6thread6_StateESt14default_deleteIS1_EEC2EPS1_(ptr noundef nonnull align 8 dereferenceable(8) %0, ptr noundef %1) unnamed_addr #5 comdat align 2 !dbg !10714 {
  %3 = alloca ptr, align 8
  %4 = alloca ptr, align 8
  store ptr %0, ptr %3, align 8
  call void @llvm.dbg.declare(metadata ptr %3, metadata !10715, metadata !DIExpression()), !dbg !10717
  store ptr %1, ptr %4, align 8
  call void @llvm.dbg.declare(metadata ptr %4, metadata !10718, metadata !DIExpression()), !dbg !10719
  %5 = load ptr, ptr %3, align 8
  %6 = getelementptr inbounds %"class.std::__uniq_ptr_impl.47", ptr %5, i32 0, i32 0, !dbg !10720
  call void @_ZNSt5tupleIJPNSt6thread6_StateESt14default_deleteIS1_EEEC2ILb1ELb1EEEv(ptr noundef nonnull align 8 dereferenceable(8) %6) #1, !dbg !10720
  %7 = load ptr, ptr %4, align 8, !dbg !10721
  %8 = call noundef nonnull align 8 dereferenceable(8) ptr @_ZNSt15__uniq_ptr_implINSt6thread6_StateESt14default_deleteIS1_EE6_M_ptrEv(ptr noundef nonnull align 8 dereferenceable(8) %5), !dbg !10723
  store ptr %7, ptr %8, align 8, !dbg !10724
  ret void, !dbg !10725
}

; Function Attrs: noinline nounwind optnone uwtable
define linkonce_odr dso_local void @_ZNSt5tupleIJPNSt6thread6_StateESt14default_deleteIS1_EEEC2ILb1ELb1EEEv(ptr noundef nonnull align 8 dereferenceable(8) %0) unnamed_addr #2 comdat align 2 personality ptr @__gxx_personality_v0 !dbg !10726 {
  %2 = alloca ptr, align 8
  store ptr %0, ptr %2, align 8
  call void @llvm.dbg.declare(metadata ptr %2, metadata !10730, metadata !DIExpression()), !dbg !10732
  %3 = load ptr, ptr %2, align 8
  invoke void @_ZNSt11_Tuple_implILm0EJPNSt6thread6_StateESt14default_deleteIS1_EEEC2Ev(ptr noundef nonnull align 8 dereferenceable(8) %3)
          to label %4 unwind label %5, !dbg !10733

4:                                                ; preds = %1
  ret void, !dbg !10734

5:                                                ; preds = %1
  %6 = landingpad { ptr, i32 }
          catch ptr null, !dbg !10733
  %7 = extractvalue { ptr, i32 } %6, 0, !dbg !10733
  call void @__clang_call_terminate(ptr %7) #19, !dbg !10733
  unreachable, !dbg !10733
}

; Function Attrs: mustprogress noinline nounwind optnone uwtable
define linkonce_odr dso_local noundef nonnull align 8 dereferenceable(8) ptr @_ZNSt15__uniq_ptr_implINSt6thread6_StateESt14default_deleteIS1_EE6_M_ptrEv(ptr noundef nonnull align 8 dereferenceable(8) %0) #8 comdat align 2 !dbg !10735 {
  %2 = alloca ptr, align 8
  store ptr %0, ptr %2, align 8
  call void @llvm.dbg.declare(metadata ptr %2, metadata !10736, metadata !DIExpression()), !dbg !10737
  %3 = load ptr, ptr %2, align 8
  %4 = getelementptr inbounds %"class.std::__uniq_ptr_impl.47", ptr %3, i32 0, i32 0, !dbg !10738
  %5 = call noundef nonnull align 8 dereferenceable(8) ptr @_ZSt3getILm0EJPNSt6thread6_StateESt14default_deleteIS1_EEERNSt13tuple_elementIXT_ESt5tupleIJDpT0_EEE4typeERS9_(ptr noundef nonnull align 8 dereferenceable(8) %4) #1, !dbg !10739
  ret ptr %5, !dbg !10740
}

; Function Attrs: noinline optnone uwtable
define linkonce_odr dso_local void @_ZNSt11_Tuple_implILm0EJPNSt6thread6_StateESt14default_deleteIS1_EEEC2Ev(ptr noundef nonnull align 8 dereferenceable(8) %0) unnamed_addr #5 comdat align 2 !dbg !10741 {
  %2 = alloca ptr, align 8
  store ptr %0, ptr %2, align 8
  call void @llvm.dbg.declare(metadata ptr %2, metadata !10742, metadata !DIExpression()), !dbg !10744
  %3 = load ptr, ptr %2, align 8
  call void @_ZNSt11_Tuple_implILm1EJSt14default_deleteINSt6thread6_StateEEEEC2Ev(ptr noundef nonnull align 1 dereferenceable(1) %3), !dbg !10745
  call void @_ZNSt10_Head_baseILm0EPNSt6thread6_StateELb0EEC2Ev(ptr noundef nonnull align 8 dereferenceable(8) %3), !dbg !10746
  ret void, !dbg !10747
}

; Function Attrs: noinline optnone uwtable
define linkonce_odr dso_local void @_ZNSt11_Tuple_implILm1EJSt14default_deleteINSt6thread6_StateEEEEC2Ev(ptr noundef nonnull align 1 dereferenceable(1) %0) unnamed_addr #5 comdat align 2 !dbg !10748 {
  %2 = alloca ptr, align 8
  store ptr %0, ptr %2, align 8
  call void @llvm.dbg.declare(metadata ptr %2, metadata !10749, metadata !DIExpression()), !dbg !10751
  %3 = load ptr, ptr %2, align 8
  call void @_ZNSt10_Head_baseILm1ESt14default_deleteINSt6thread6_StateEELb1EEC2Ev(ptr noundef nonnull align 1 dereferenceable(1) %3), !dbg !10752
  ret void, !dbg !10753
}

; Function Attrs: noinline nounwind optnone uwtable
define linkonce_odr dso_local void @_ZNSt10_Head_baseILm0EPNSt6thread6_StateELb0EEC2Ev(ptr noundef nonnull align 8 dereferenceable(8) %0) unnamed_addr #2 comdat align 2 !dbg !10754 {
  %2 = alloca ptr, align 8
  store ptr %0, ptr %2, align 8
  call void @llvm.dbg.declare(metadata ptr %2, metadata !10755, metadata !DIExpression()), !dbg !10757
  %3 = load ptr, ptr %2, align 8
  %4 = getelementptr inbounds %"struct.std::_Head_base.52", ptr %3, i32 0, i32 0, !dbg !10758
  store ptr null, ptr %4, align 8, !dbg !10758
  ret void, !dbg !10759
}

; Function Attrs: noinline nounwind optnone uwtable
define linkonce_odr dso_local void @_ZNSt10_Head_baseILm1ESt14default_deleteINSt6thread6_StateEELb1EEC2Ev(ptr noundef nonnull align 1 dereferenceable(1) %0) unnamed_addr #2 comdat align 2 !dbg !10760 {
  %2 = alloca ptr, align 8
  store ptr %0, ptr %2, align 8
  call void @llvm.dbg.declare(metadata ptr %2, metadata !10761, metadata !DIExpression()), !dbg !10763
  %3 = load ptr, ptr %2, align 8
  ret void, !dbg !10764
}

; Function Attrs: mustprogress noinline nounwind optnone uwtable
define linkonce_odr dso_local noundef nonnull align 8 dereferenceable(8) ptr @_ZSt3getILm0EJPNSt6thread6_StateESt14default_deleteIS1_EEERNSt13tuple_elementIXT_ESt5tupleIJDpT0_EEE4typeERS9_(ptr noundef nonnull align 8 dereferenceable(8) %0) #8 comdat !dbg !10765 {
  %2 = alloca ptr, align 8
  store ptr %0, ptr %2, align 8
  call void @llvm.dbg.declare(metadata ptr %2, metadata !10775, metadata !DIExpression()), !dbg !10776
  %3 = load ptr, ptr %2, align 8, !dbg !10777
  %4 = call noundef nonnull align 8 dereferenceable(8) ptr @_ZSt12__get_helperILm0EPNSt6thread6_StateEJSt14default_deleteIS1_EEERT0_RSt11_Tuple_implIXT_EJS5_DpT1_EE(ptr noundef nonnull align 8 dereferenceable(8) %3) #1, !dbg !10778
  ret ptr %4, !dbg !10779
}

; Function Attrs: mustprogress noinline nounwind optnone uwtable
define linkonce_odr dso_local noundef nonnull align 8 dereferenceable(8) ptr @_ZSt12__get_helperILm0EPNSt6thread6_StateEJSt14default_deleteIS1_EEERT0_RSt11_Tuple_implIXT_EJS5_DpT1_EE(ptr noundef nonnull align 8 dereferenceable(8) %0) #8 comdat !dbg !10780 {
  %2 = alloca ptr, align 8
  store ptr %0, ptr %2, align 8
  call void @llvm.dbg.declare(metadata ptr %2, metadata !10783, metadata !DIExpression()), !dbg !10784
  %3 = load ptr, ptr %2, align 8, !dbg !10785
  %4 = call noundef nonnull align 8 dereferenceable(8) ptr @_ZNSt11_Tuple_implILm0EJPNSt6thread6_StateESt14default_deleteIS1_EEE7_M_headERS5_(ptr noundef nonnull align 8 dereferenceable(8) %3) #1, !dbg !10786
  ret ptr %4, !dbg !10787
}

; Function Attrs: mustprogress noinline nounwind optnone uwtable
define linkonce_odr dso_local noundef nonnull align 8 dereferenceable(8) ptr @_ZNSt11_Tuple_implILm0EJPNSt6thread6_StateESt14default_deleteIS1_EEE7_M_headERS5_(ptr noundef nonnull align 8 dereferenceable(8) %0) #8 comdat align 2 !dbg !10788 {
  %2 = alloca ptr, align 8
  store ptr %0, ptr %2, align 8
  call void @llvm.dbg.declare(metadata ptr %2, metadata !10789, metadata !DIExpression()), !dbg !10790
  %3 = load ptr, ptr %2, align 8, !dbg !10791
  %4 = call noundef nonnull align 8 dereferenceable(8) ptr @_ZNSt10_Head_baseILm0EPNSt6thread6_StateELb0EE7_M_headERS3_(ptr noundef nonnull align 8 dereferenceable(8) %3) #1, !dbg !10792
  ret ptr %4, !dbg !10793
}

; Function Attrs: mustprogress noinline nounwind optnone uwtable
define linkonce_odr dso_local noundef nonnull align 8 dereferenceable(8) ptr @_ZNSt10_Head_baseILm0EPNSt6thread6_StateELb0EE7_M_headERS3_(ptr noundef nonnull align 8 dereferenceable(8) %0) #8 comdat align 2 !dbg !10794 {
  %2 = alloca ptr, align 8
  store ptr %0, ptr %2, align 8
  call void @llvm.dbg.declare(metadata ptr %2, metadata !10795, metadata !DIExpression()), !dbg !10796
  %3 = load ptr, ptr %2, align 8, !dbg !10797
  %4 = getelementptr inbounds %"struct.std::_Head_base.52", ptr %3, i32 0, i32 0, !dbg !10798
  ret ptr %4, !dbg !10799
}

; Function Attrs: mustprogress noinline nounwind optnone uwtable
define linkonce_odr dso_local noundef nonnull align 1 dereferenceable(1) ptr @_ZNSt10unique_ptrINSt6thread6_StateESt14default_deleteIS1_EE11get_deleterEv(ptr noundef nonnull align 8 dereferenceable(8) %0) #8 comdat align 2 personality ptr @__gxx_personality_v0 !dbg !10800 {
  %2 = alloca ptr, align 8
  store ptr %0, ptr %2, align 8
  call void @llvm.dbg.declare(metadata ptr %2, metadata !10801, metadata !DIExpression()), !dbg !10802
  %3 = load ptr, ptr %2, align 8
  %4 = getelementptr inbounds %"class.std::unique_ptr.45", ptr %3, i32 0, i32 0, !dbg !10803
  %5 = invoke noundef nonnull align 1 dereferenceable(1) ptr @_ZNSt15__uniq_ptr_implINSt6thread6_StateESt14default_deleteIS1_EE10_M_deleterEv(ptr noundef nonnull align 8 dereferenceable(8) %4)
          to label %6 unwind label %7, !dbg !10804

6:                                                ; preds = %1
  ret ptr %5, !dbg !10805

7:                                                ; preds = %1
  %8 = landingpad { ptr, i32 }
          catch ptr null, !dbg !10804
  %9 = extractvalue { ptr, i32 } %8, 0, !dbg !10804
  call void @__clang_call_terminate(ptr %9) #19, !dbg !10804
  unreachable, !dbg !10804
}

; Function Attrs: mustprogress noinline nounwind optnone uwtable
define linkonce_odr dso_local void @_ZNKSt14default_deleteINSt6thread6_StateEEclEPS1_(ptr noundef nonnull align 1 dereferenceable(1) %0, ptr noundef %1) #8 comdat align 2 !dbg !10806 {
  %3 = alloca ptr, align 8
  %4 = alloca ptr, align 8
  store ptr %0, ptr %3, align 8
  call void @llvm.dbg.declare(metadata ptr %3, metadata !10807, metadata !DIExpression()), !dbg !10809
  store ptr %1, ptr %4, align 8
  call void @llvm.dbg.declare(metadata ptr %4, metadata !10810, metadata !DIExpression()), !dbg !10811
  %5 = load ptr, ptr %3, align 8
  %6 = load ptr, ptr %4, align 8, !dbg !10812
  %7 = icmp eq ptr %6, null, !dbg !10813
  br i1 %7, label %12, label %8, !dbg !10813

8:                                                ; preds = %2
  %9 = load ptr, ptr %6, align 8, !dbg !10813
  %10 = getelementptr inbounds ptr, ptr %9, i64 1, !dbg !10813
  %11 = load ptr, ptr %10, align 8, !dbg !10813
  call void %11(ptr noundef nonnull align 8 dereferenceable(8) %6) #1, !dbg !10813
  br label %12, !dbg !10813

12:                                               ; preds = %8, %2
  ret void, !dbg !10814
}

; Function Attrs: mustprogress noinline nounwind optnone uwtable
define linkonce_odr dso_local noundef nonnull align 1 dereferenceable(1) ptr @_ZNSt15__uniq_ptr_implINSt6thread6_StateESt14default_deleteIS1_EE10_M_deleterEv(ptr noundef nonnull align 8 dereferenceable(8) %0) #8 comdat align 2 !dbg !10815 {
  %2 = alloca ptr, align 8
  store ptr %0, ptr %2, align 8
  call void @llvm.dbg.declare(metadata ptr %2, metadata !10816, metadata !DIExpression()), !dbg !10817
  %3 = load ptr, ptr %2, align 8
  %4 = getelementptr inbounds %"class.std::__uniq_ptr_impl.47", ptr %3, i32 0, i32 0, !dbg !10818
  %5 = call noundef nonnull align 1 dereferenceable(1) ptr @_ZSt3getILm1EJPNSt6thread6_StateESt14default_deleteIS1_EEERNSt13tuple_elementIXT_ESt5tupleIJDpT0_EEE4typeERS9_(ptr noundef nonnull align 8 dereferenceable(8) %4) #1, !dbg !10819
  ret ptr %5, !dbg !10820
}

; Function Attrs: mustprogress noinline nounwind optnone uwtable
define linkonce_odr dso_local noundef nonnull align 1 dereferenceable(1) ptr @_ZSt3getILm1EJPNSt6thread6_StateESt14default_deleteIS1_EEERNSt13tuple_elementIXT_ESt5tupleIJDpT0_EEE4typeERS9_(ptr noundef nonnull align 8 dereferenceable(8) %0) #8 comdat !dbg !10821 {
  %2 = alloca ptr, align 8
  store ptr %0, ptr %2, align 8
  call void @llvm.dbg.declare(metadata ptr %2, metadata !10833, metadata !DIExpression()), !dbg !10834
  %3 = load ptr, ptr %2, align 8, !dbg !10835
  %4 = call noundef nonnull align 1 dereferenceable(1) ptr @_ZSt12__get_helperILm1ESt14default_deleteINSt6thread6_StateEEJEERT0_RSt11_Tuple_implIXT_EJS4_DpT1_EE(ptr noundef nonnull align 1 dereferenceable(1) %3) #1, !dbg !10836
  ret ptr %4, !dbg !10837
}

; Function Attrs: mustprogress noinline nounwind optnone uwtable
define linkonce_odr dso_local noundef nonnull align 1 dereferenceable(1) ptr @_ZSt12__get_helperILm1ESt14default_deleteINSt6thread6_StateEEJEERT0_RSt11_Tuple_implIXT_EJS4_DpT1_EE(ptr noundef nonnull align 1 dereferenceable(1) %0) #8 comdat !dbg !10838 {
  %2 = alloca ptr, align 8
  store ptr %0, ptr %2, align 8
  call void @llvm.dbg.declare(metadata ptr %2, metadata !10840, metadata !DIExpression()), !dbg !10841
  %3 = load ptr, ptr %2, align 8, !dbg !10842
  %4 = call noundef nonnull align 1 dereferenceable(1) ptr @_ZNSt11_Tuple_implILm1EJSt14default_deleteINSt6thread6_StateEEEE7_M_headERS4_(ptr noundef nonnull align 1 dereferenceable(1) %3) #1, !dbg !10843
  ret ptr %4, !dbg !10844
}

; Function Attrs: mustprogress noinline nounwind optnone uwtable
define linkonce_odr dso_local noundef nonnull align 1 dereferenceable(1) ptr @_ZNSt11_Tuple_implILm1EJSt14default_deleteINSt6thread6_StateEEEE7_M_headERS4_(ptr noundef nonnull align 1 dereferenceable(1) %0) #8 comdat align 2 !dbg !10845 {
  %2 = alloca ptr, align 8
  store ptr %0, ptr %2, align 8
  call void @llvm.dbg.declare(metadata ptr %2, metadata !10846, metadata !DIExpression()), !dbg !10847
  %3 = load ptr, ptr %2, align 8, !dbg !10848
  %4 = call noundef nonnull align 1 dereferenceable(1) ptr @_ZNSt10_Head_baseILm1ESt14default_deleteINSt6thread6_StateEELb1EE7_M_headERS4_(ptr noundef nonnull align 1 dereferenceable(1) %3) #1, !dbg !10849
  ret ptr %4, !dbg !10850
}

; Function Attrs: mustprogress noinline nounwind optnone uwtable
define linkonce_odr dso_local noundef nonnull align 1 dereferenceable(1) ptr @_ZNSt10_Head_baseILm1ESt14default_deleteINSt6thread6_StateEELb1EE7_M_headERS4_(ptr noundef nonnull align 1 dereferenceable(1) %0) #8 comdat align 2 !dbg !10851 {
  %2 = alloca ptr, align 8
  store ptr %0, ptr %2, align 8
  call void @llvm.dbg.declare(metadata ptr %2, metadata !10852, metadata !DIExpression()), !dbg !10853
  %3 = load ptr, ptr %2, align 8, !dbg !10854
  ret ptr %3, !dbg !10855
}

; Function Attrs: noinline nounwind optnone uwtable
define linkonce_odr dso_local void @_ZN5mongo4stdx7support21SigAltStackControllerD2Ev(ptr noundef nonnull align 8 dereferenceable(8) %0) unnamed_addr #2 comdat align 2 !dbg !10856 {
  %2 = alloca ptr, align 8
  store ptr %0, ptr %2, align 8
  call void @llvm.dbg.declare(metadata ptr %2, metadata !10858, metadata !DIExpression()), !dbg !10859
  %3 = load ptr, ptr %2, align 8
  %4 = getelementptr inbounds %"class.mongo::stdx::support::SigAltStackController", ptr %3, i32 0, i32 0, !dbg !10860
  call void @_ZNSt10unique_ptrIA_St4byteSt14default_deleteIS1_EED2Ev(ptr noundef nonnull align 8 dereferenceable(8) %4) #1, !dbg !10860
  ret void, !dbg !10862
}

; Function Attrs: noinline nounwind optnone uwtable
define linkonce_odr dso_local void @_ZNSt10unique_ptrIA_St4byteSt14default_deleteIS1_EED2Ev(ptr noundef nonnull align 8 dereferenceable(8) %0) unnamed_addr #2 comdat align 2 personality ptr @__gxx_personality_v0 !dbg !10863 {
  %2 = alloca ptr, align 8
  %3 = alloca ptr, align 8
  store ptr %0, ptr %2, align 8
  call void @llvm.dbg.declare(metadata ptr %2, metadata !10864, metadata !DIExpression()), !dbg !10865
  %4 = load ptr, ptr %2, align 8
  call void @llvm.dbg.declare(metadata ptr %3, metadata !10866, metadata !DIExpression()), !dbg !10868
  %5 = getelementptr inbounds %"class.std::unique_ptr", ptr %4, i32 0, i32 0, !dbg !10869
  %6 = call noundef nonnull align 8 dereferenceable(8) ptr @_ZNSt15__uniq_ptr_implISt4byteSt14default_deleteIA_S0_EE6_M_ptrEv(ptr noundef nonnull align 8 dereferenceable(8) %5), !dbg !10870
  store ptr %6, ptr %3, align 8, !dbg !10868
  %7 = load ptr, ptr %3, align 8, !dbg !10871
  %8 = load ptr, ptr %7, align 8, !dbg !10871
  %9 = icmp ne ptr %8, null, !dbg !10873
  br i1 %9, label %10, label %15, !dbg !10874

10:                                               ; preds = %1
  %11 = call noundef nonnull align 1 dereferenceable(1) ptr @_ZNSt10unique_ptrIA_St4byteSt14default_deleteIS1_EE11get_deleterEv(ptr noundef nonnull align 8 dereferenceable(8) %4) #1, !dbg !10875
  %12 = load ptr, ptr %3, align 8, !dbg !10876
  %13 = load ptr, ptr %12, align 8, !dbg !10876
  invoke void @_ZNKSt14default_deleteIA_St4byteEclIS0_EENSt9enable_ifIXsr14is_convertibleIPA_T_PS1_EE5valueEvE4typeEPS5_(ptr noundef nonnull align 1 dereferenceable(1) %11, ptr noundef %13)
          to label %14 unwind label %17, !dbg !10875

14:                                               ; preds = %10
  br label %15, !dbg !10875

15:                                               ; preds = %14, %1
  %16 = load ptr, ptr %3, align 8, !dbg !10877
  store ptr null, ptr %16, align 8, !dbg !10878
  ret void, !dbg !10879

17:                                               ; preds = %10
  %18 = landingpad { ptr, i32 }
          catch ptr null, !dbg !10875
  %19 = extractvalue { ptr, i32 } %18, 0, !dbg !10875
  call void @__clang_call_terminate(ptr %19) #19, !dbg !10875
  unreachable, !dbg !10875
}

; Function Attrs: mustprogress noinline nounwind optnone uwtable
define linkonce_odr dso_local noundef nonnull align 1 dereferenceable(1) ptr @_ZNSt10unique_ptrIA_St4byteSt14default_deleteIS1_EE11get_deleterEv(ptr noundef nonnull align 8 dereferenceable(8) %0) #8 comdat align 2 personality ptr @__gxx_personality_v0 !dbg !10880 {
  %2 = alloca ptr, align 8
  store ptr %0, ptr %2, align 8
  call void @llvm.dbg.declare(metadata ptr %2, metadata !10881, metadata !DIExpression()), !dbg !10882
  %3 = load ptr, ptr %2, align 8
  %4 = getelementptr inbounds %"class.std::unique_ptr", ptr %3, i32 0, i32 0, !dbg !10883
  %5 = invoke noundef nonnull align 1 dereferenceable(1) ptr @_ZNSt15__uniq_ptr_implISt4byteSt14default_deleteIA_S0_EE10_M_deleterEv(ptr noundef nonnull align 8 dereferenceable(8) %4)
          to label %6 unwind label %7, !dbg !10884

6:                                                ; preds = %1
  ret ptr %5, !dbg !10885

7:                                                ; preds = %1
  %8 = landingpad { ptr, i32 }
          catch ptr null, !dbg !10884
  %9 = extractvalue { ptr, i32 } %8, 0, !dbg !10884
  call void @__clang_call_terminate(ptr %9) #19, !dbg !10884
  unreachable, !dbg !10884
}

; Function Attrs: mustprogress noinline nounwind optnone uwtable
define linkonce_odr dso_local void @_ZNKSt14default_deleteIA_St4byteEclIS0_EENSt9enable_ifIXsr14is_convertibleIPA_T_PS1_EE5valueEvE4typeEPS5_(ptr noundef nonnull align 1 dereferenceable(1) %0, ptr noundef %1) #8 comdat align 2 !dbg !10886 {
  %3 = alloca ptr, align 8
  %4 = alloca ptr, align 8
  store ptr %0, ptr %3, align 8
  call void @llvm.dbg.declare(metadata ptr %3, metadata !10892, metadata !DIExpression()), !dbg !10894
  store ptr %1, ptr %4, align 8
  call void @llvm.dbg.declare(metadata ptr %4, metadata !10895, metadata !DIExpression()), !dbg !10896
  %5 = load ptr, ptr %3, align 8
  %6 = load ptr, ptr %4, align 8, !dbg !10897
  %7 = icmp eq ptr %6, null, !dbg !10898
  br i1 %7, label %9, label %8, !dbg !10898

8:                                                ; preds = %2
  call void @_ZdaPv(ptr noundef %6) #20, !dbg !10898
  br label %9, !dbg !10898

9:                                                ; preds = %8, %2
  ret void, !dbg !10899
}

; Function Attrs: mustprogress noinline nounwind optnone uwtable
define linkonce_odr dso_local noundef nonnull align 1 dereferenceable(1) ptr @_ZNSt15__uniq_ptr_implISt4byteSt14default_deleteIA_S0_EE10_M_deleterEv(ptr noundef nonnull align 8 dereferenceable(8) %0) #8 comdat align 2 !dbg !10900 {
  %2 = alloca ptr, align 8
  store ptr %0, ptr %2, align 8
  call void @llvm.dbg.declare(metadata ptr %2, metadata !10901, metadata !DIExpression()), !dbg !10902
  %3 = load ptr, ptr %2, align 8
  %4 = getelementptr inbounds %"class.std::__uniq_ptr_impl", ptr %3, i32 0, i32 0, !dbg !10903
  %5 = call noundef nonnull align 1 dereferenceable(1) ptr @_ZSt3getILm1EJPSt4byteSt14default_deleteIA_S0_EEERNSt13tuple_elementIXT_ESt5tupleIJDpT0_EEE4typeERS9_(ptr noundef nonnull align 8 dereferenceable(8) %4) #1, !dbg !10904
  ret ptr %5, !dbg !10905
}

; Function Attrs: mustprogress noinline nounwind optnone uwtable
define linkonce_odr dso_local noundef nonnull align 1 dereferenceable(1) ptr @_ZSt3getILm1EJPSt4byteSt14default_deleteIA_S0_EEERNSt13tuple_elementIXT_ESt5tupleIJDpT0_EEE4typeERS9_(ptr noundef nonnull align 8 dereferenceable(8) %0) #8 comdat !dbg !10906 {
  %2 = alloca ptr, align 8
  store ptr %0, ptr %2, align 8
  call void @llvm.dbg.declare(metadata ptr %2, metadata !10917, metadata !DIExpression()), !dbg !10918
  %3 = load ptr, ptr %2, align 8, !dbg !10919
  %4 = call noundef nonnull align 1 dereferenceable(1) ptr @_ZSt12__get_helperILm1ESt14default_deleteIA_St4byteEJEERT0_RSt11_Tuple_implIXT_EJS4_DpT1_EE(ptr noundef nonnull align 1 dereferenceable(1) %3) #1, !dbg !10920
  ret ptr %4, !dbg !10921
}

; Function Attrs: mustprogress noinline nounwind optnone uwtable
define linkonce_odr dso_local noundef nonnull align 1 dereferenceable(1) ptr @_ZSt12__get_helperILm1ESt14default_deleteIA_St4byteEJEERT0_RSt11_Tuple_implIXT_EJS4_DpT1_EE(ptr noundef nonnull align 1 dereferenceable(1) %0) #8 comdat !dbg !10922 {
  %2 = alloca ptr, align 8
  store ptr %0, ptr %2, align 8
  call void @llvm.dbg.declare(metadata ptr %2, metadata !10924, metadata !DIExpression()), !dbg !10925
  %3 = load ptr, ptr %2, align 8, !dbg !10926
  %4 = call noundef nonnull align 1 dereferenceable(1) ptr @_ZNSt11_Tuple_implILm1EJSt14default_deleteIA_St4byteEEE7_M_headERS4_(ptr noundef nonnull align 1 dereferenceable(1) %3) #1, !dbg !10927
  ret ptr %4, !dbg !10928
}

; Function Attrs: mustprogress noinline nounwind optnone uwtable
define linkonce_odr dso_local noundef nonnull align 1 dereferenceable(1) ptr @_ZNSt11_Tuple_implILm1EJSt14default_deleteIA_St4byteEEE7_M_headERS4_(ptr noundef nonnull align 1 dereferenceable(1) %0) #8 comdat align 2 !dbg !10929 {
  %2 = alloca ptr, align 8
  store ptr %0, ptr %2, align 8
  call void @llvm.dbg.declare(metadata ptr %2, metadata !10930, metadata !DIExpression()), !dbg !10931
  %3 = load ptr, ptr %2, align 8, !dbg !10932
  %4 = call noundef nonnull align 1 dereferenceable(1) ptr @_ZNSt10_Head_baseILm1ESt14default_deleteIA_St4byteELb1EE7_M_headERS4_(ptr noundef nonnull align 1 dereferenceable(1) %3) #1, !dbg !10933
  ret ptr %4, !dbg !10934
}

; Function Attrs: mustprogress noinline nounwind optnone uwtable
define linkonce_odr dso_local noundef nonnull align 1 dereferenceable(1) ptr @_ZNSt10_Head_baseILm1ESt14default_deleteIA_St4byteELb1EE7_M_headERS4_(ptr noundef nonnull align 1 dereferenceable(1) %0) #8 comdat align 2 !dbg !10935 {
  %2 = alloca ptr, align 8
  store ptr %0, ptr %2, align 8
  call void @llvm.dbg.declare(metadata ptr %2, metadata !10936, metadata !DIExpression()), !dbg !10937
  %3 = load ptr, ptr %2, align 8, !dbg !10938
  ret ptr %3, !dbg !10939
}

; Function Attrs: nobuiltin nounwind
declare void @_ZdaPv(ptr noundef) #14

; Function Attrs: mustprogress noinline optnone uwtable
define linkonce_odr dso_local noundef i64 @_ZNKSt6vectorIN5mongo4stdx6threadESaIS2_EE12_M_check_lenEmPKc(ptr noundef nonnull align 8 dereferenceable(24) %0, i64 noundef %1, ptr noundef %2) #6 comdat align 2 !dbg !10940 {
  %4 = alloca ptr, align 8
  %5 = alloca i64, align 8
  %6 = alloca ptr, align 8
  %7 = alloca i64, align 8
  %8 = alloca i64, align 8
  store ptr %0, ptr %4, align 8
  call void @llvm.dbg.declare(metadata ptr %4, metadata !10941, metadata !DIExpression()), !dbg !10943
  store i64 %1, ptr %5, align 8
  call void @llvm.dbg.declare(metadata ptr %5, metadata !10944, metadata !DIExpression()), !dbg !10945
  store ptr %2, ptr %6, align 8
  call void @llvm.dbg.declare(metadata ptr %6, metadata !10946, metadata !DIExpression()), !dbg !10947
  %9 = load ptr, ptr %4, align 8
  %10 = call noundef i64 @_ZNKSt6vectorIN5mongo4stdx6threadESaIS2_EE8max_sizeEv(ptr noundef nonnull align 8 dereferenceable(24) %9) #1, !dbg !10948
  %11 = call noundef i64 @_ZNKSt6vectorIN5mongo4stdx6threadESaIS2_EE4sizeEv(ptr noundef nonnull align 8 dereferenceable(24) %9) #1, !dbg !10950
  %12 = sub i64 %10, %11, !dbg !10951
  %13 = load i64, ptr %5, align 8, !dbg !10952
  %14 = icmp ult i64 %12, %13, !dbg !10953
  br i1 %14, label %15, label %17, !dbg !10954

15:                                               ; preds = %3
  %16 = load ptr, ptr %6, align 8, !dbg !10955
  call void @_ZSt20__throw_length_errorPKc(ptr noundef %16) #21, !dbg !10956
  unreachable, !dbg !10956

17:                                               ; preds = %3
  call void @llvm.dbg.declare(metadata ptr %7, metadata !10957, metadata !DIExpression()), !dbg !10958
  %18 = call noundef i64 @_ZNKSt6vectorIN5mongo4stdx6threadESaIS2_EE4sizeEv(ptr noundef nonnull align 8 dereferenceable(24) %9) #1, !dbg !10959
  %19 = call noundef i64 @_ZNKSt6vectorIN5mongo4stdx6threadESaIS2_EE4sizeEv(ptr noundef nonnull align 8 dereferenceable(24) %9) #1, !dbg !10960
  store i64 %19, ptr %8, align 8, !dbg !10960
  %20 = call noundef nonnull align 8 dereferenceable(8) ptr @_ZSt3maxImERKT_S2_S2_(ptr noundef nonnull align 8 dereferenceable(8) %8, ptr noundef nonnull align 8 dereferenceable(8) %5), !dbg !10961
  %21 = load i64, ptr %20, align 8, !dbg !10961
  %22 = add i64 %18, %21, !dbg !10962
  store i64 %22, ptr %7, align 8, !dbg !10958
  %23 = load i64, ptr %7, align 8, !dbg !10963
  %24 = call noundef i64 @_ZNKSt6vectorIN5mongo4stdx6threadESaIS2_EE4sizeEv(ptr noundef nonnull align 8 dereferenceable(24) %9) #1, !dbg !10964
  %25 = icmp ult i64 %23, %24, !dbg !10965
  br i1 %25, label %30, label %26, !dbg !10966

26:                                               ; preds = %17
  %27 = load i64, ptr %7, align 8, !dbg !10967
  %28 = call noundef i64 @_ZNKSt6vectorIN5mongo4stdx6threadESaIS2_EE8max_sizeEv(ptr noundef nonnull align 8 dereferenceable(24) %9) #1, !dbg !10968
  %29 = icmp ugt i64 %27, %28, !dbg !10969
  br i1 %29, label %30, label %32, !dbg !10970

30:                                               ; preds = %26, %17
  %31 = call noundef i64 @_ZNKSt6vectorIN5mongo4stdx6threadESaIS2_EE8max_sizeEv(ptr noundef nonnull align 8 dereferenceable(24) %9) #1, !dbg !10971
  br label %34, !dbg !10970

32:                                               ; preds = %26
  %33 = load i64, ptr %7, align 8, !dbg !10972
  br label %34, !dbg !10970

34:                                               ; preds = %32, %30
  %35 = phi i64 [ %31, %30 ], [ %33, %32 ], !dbg !10970
  ret i64 %35, !dbg !10973
}

; Function Attrs: mustprogress noinline nounwind optnone uwtable
define linkonce_odr dso_local noundef i64 @_ZN9__gnu_cxxmiIPN5mongo4stdx6threadESt6vectorIS3_SaIS3_EEEENS_17__normal_iteratorIT_T0_E15difference_typeERKSB_SE_(ptr noundef nonnull align 8 dereferenceable(8) %0, ptr noundef nonnull align 8 dereferenceable(8) %1) #8 comdat !dbg !10974 {
  %3 = alloca ptr, align 8
  %4 = alloca ptr, align 8
  store ptr %0, ptr %3, align 8
  call void @llvm.dbg.declare(metadata ptr %3, metadata !10978, metadata !DIExpression()), !dbg !10979
  store ptr %1, ptr %4, align 8
  call void @llvm.dbg.declare(metadata ptr %4, metadata !10980, metadata !DIExpression()), !dbg !10981
  %5 = load ptr, ptr %3, align 8, !dbg !10982
  %6 = call noundef nonnull align 8 dereferenceable(8) ptr @_ZNK9__gnu_cxx17__normal_iteratorIPN5mongo4stdx6threadESt6vectorIS3_SaIS3_EEE4baseEv(ptr noundef nonnull align 8 dereferenceable(8) %5) #1, !dbg !10983
  %7 = load ptr, ptr %6, align 8, !dbg !10983
  %8 = load ptr, ptr %4, align 8, !dbg !10984
  %9 = call noundef nonnull align 8 dereferenceable(8) ptr @_ZNK9__gnu_cxx17__normal_iteratorIPN5mongo4stdx6threadESt6vectorIS3_SaIS3_EEE4baseEv(ptr noundef nonnull align 8 dereferenceable(8) %8) #1, !dbg !10985
  %10 = load ptr, ptr %9, align 8, !dbg !10985
  %11 = ptrtoint ptr %7 to i64, !dbg !10986
  %12 = ptrtoint ptr %10 to i64, !dbg !10986
  %13 = sub i64 %11, %12, !dbg !10986
  %14 = sdiv exact i64 %13, 8, !dbg !10986
  ret i64 %14, !dbg !10987
}

; Function Attrs: mustprogress noinline nounwind optnone uwtable
define linkonce_odr dso_local ptr @_ZNSt6vectorIN5mongo4stdx6threadESaIS2_EE5beginEv(ptr noundef nonnull align 8 dereferenceable(24) %0) #8 comdat align 2 !dbg !10988 {
  %2 = alloca %"class.__gnu_cxx::__normal_iterator", align 8
  %3 = alloca ptr, align 8
  store ptr %0, ptr %3, align 8
  call void @llvm.dbg.declare(metadata ptr %3, metadata !10989, metadata !DIExpression()), !dbg !10990
  %4 = load ptr, ptr %3, align 8
  %5 = getelementptr inbounds %"struct.std::_Vector_base", ptr %4, i32 0, i32 0, !dbg !10991
  %6 = getelementptr inbounds %"struct.std::_Vector_base<mongo::stdx::thread, std::allocator<mongo::stdx::thread>>::_Vector_impl_data", ptr %5, i32 0, i32 0, !dbg !10992
  call void @_ZN9__gnu_cxx17__normal_iteratorIPN5mongo4stdx6threadESt6vectorIS3_SaIS3_EEEC2ERKS4_(ptr noundef nonnull align 8 dereferenceable(8) %2, ptr noundef nonnull align 8 dereferenceable(8) %6) #1, !dbg !10993
  %7 = getelementptr inbounds %"class.__gnu_cxx::__normal_iterator", ptr %2, i32 0, i32 0, !dbg !10994
  %8 = load ptr, ptr %7, align 8, !dbg !10994
  ret ptr %8, !dbg !10994
}

; Function Attrs: mustprogress noinline optnone uwtable
define linkonce_odr dso_local noundef ptr @_ZNSt12_Vector_baseIN5mongo4stdx6threadESaIS2_EE11_M_allocateEm(ptr noundef nonnull align 8 dereferenceable(24) %0, i64 noundef %1) #6 comdat align 2 !dbg !10995 {
  %3 = alloca ptr, align 8
  %4 = alloca i64, align 8
  store ptr %0, ptr %3, align 8
  call void @llvm.dbg.declare(metadata ptr %3, metadata !10996, metadata !DIExpression()), !dbg !10997
  store i64 %1, ptr %4, align 8
  call void @llvm.dbg.declare(metadata ptr %4, metadata !10998, metadata !DIExpression()), !dbg !10999
  %5 = load ptr, ptr %3, align 8
  %6 = load i64, ptr %4, align 8, !dbg !11000
  %7 = icmp ne i64 %6, 0, !dbg !11001
  br i1 %7, label %8, label %12, !dbg !11000

8:                                                ; preds = %2
  %9 = getelementptr inbounds %"struct.std::_Vector_base", ptr %5, i32 0, i32 0, !dbg !11002
  %10 = load i64, ptr %4, align 8, !dbg !11003
  %11 = call noundef ptr @_ZNSt16allocator_traitsISaIN5mongo4stdx6threadEEE8allocateERS3_m(ptr noundef nonnull align 1 dereferenceable(1) %9, i64 noundef %10), !dbg !11004
  br label %13, !dbg !11000

12:                                               ; preds = %2
  br label %13, !dbg !11000

13:                                               ; preds = %12, %8
  %14 = phi ptr [ %11, %8 ], [ null, %12 ], !dbg !11000
  ret ptr %14, !dbg !11005
}

; Function Attrs: mustprogress noinline nounwind optnone uwtable
define linkonce_odr dso_local noundef ptr @_ZNSt6vectorIN5mongo4stdx6threadESaIS2_EE11_S_relocateEPS2_S5_S5_RS3_(ptr noundef %0, ptr noundef %1, ptr noundef %2, ptr noundef nonnull align 1 dereferenceable(1) %3) #8 comdat align 2 !dbg !3348 {
  %5 = alloca ptr, align 8
  %6 = alloca ptr, align 8
  %7 = alloca ptr, align 8
  %8 = alloca ptr, align 8
  %9 = alloca %"struct.std::integral_constant", align 1
  store ptr %0, ptr %5, align 8
  call void @llvm.dbg.declare(metadata ptr %5, metadata !11006, metadata !DIExpression()), !dbg !11007
  store ptr %1, ptr %6, align 8
  call void @llvm.dbg.declare(metadata ptr %6, metadata !11008, metadata !DIExpression()), !dbg !11009
  store ptr %2, ptr %7, align 8
  call void @llvm.dbg.declare(metadata ptr %7, metadata !11010, metadata !DIExpression()), !dbg !11011
  store ptr %3, ptr %8, align 8
  call void @llvm.dbg.declare(metadata ptr %8, metadata !11012, metadata !DIExpression()), !dbg !11013
  %10 = load ptr, ptr %5, align 8, !dbg !11014
  %11 = load ptr, ptr %6, align 8, !dbg !11015
  %12 = load ptr, ptr %7, align 8, !dbg !11016
  %13 = load ptr, ptr %8, align 8, !dbg !11017
  %14 = call noundef ptr @_ZNSt6vectorIN5mongo4stdx6threadESaIS2_EE14_S_do_relocateEPS2_S5_S5_RS3_St17integral_constantIbLb1EE(ptr noundef %10, ptr noundef %11, ptr noundef %12, ptr noundef nonnull align 1 dereferenceable(1) %13) #1, !dbg !11018
  ret ptr %14, !dbg !11019
}

; Function Attrs: mustprogress noinline nounwind optnone uwtable
define linkonce_odr dso_local noundef nonnull align 8 dereferenceable(8) ptr @_ZNK9__gnu_cxx17__normal_iteratorIPN5mongo4stdx6threadESt6vectorIS3_SaIS3_EEE4baseEv(ptr noundef nonnull align 8 dereferenceable(8) %0) #8 comdat align 2 !dbg !11020 {
  %2 = alloca ptr, align 8
  store ptr %0, ptr %2, align 8
  call void @llvm.dbg.declare(metadata ptr %2, metadata !11021, metadata !DIExpression()), !dbg !11023
  %3 = load ptr, ptr %2, align 8
  %4 = getelementptr inbounds %"class.__gnu_cxx::__normal_iterator", ptr %3, i32 0, i32 0, !dbg !11024
  ret ptr %4, !dbg !11025
}

; Function Attrs: mustprogress noinline nounwind optnone uwtable
define linkonce_odr dso_local noundef i64 @_ZNKSt6vectorIN5mongo4stdx6threadESaIS2_EE8max_sizeEv(ptr noundef nonnull align 8 dereferenceable(24) %0) #8 comdat align 2 !dbg !11026 {
  %2 = alloca ptr, align 8
  store ptr %0, ptr %2, align 8
  call void @llvm.dbg.declare(metadata ptr %2, metadata !11027, metadata !DIExpression()), !dbg !11028
  %3 = load ptr, ptr %2, align 8
  %4 = call noundef nonnull align 1 dereferenceable(1) ptr @_ZNKSt12_Vector_baseIN5mongo4stdx6threadESaIS2_EE19_M_get_Tp_allocatorEv(ptr noundef nonnull align 8 dereferenceable(24) %3) #1, !dbg !11029
  %5 = call noundef i64 @_ZNSt6vectorIN5mongo4stdx6threadESaIS2_EE11_S_max_sizeERKS3_(ptr noundef nonnull align 1 dereferenceable(1) %4) #1, !dbg !11030
  ret i64 %5, !dbg !11031
}

; Function Attrs: mustprogress noinline nounwind optnone uwtable
define linkonce_odr dso_local noundef i64 @_ZNKSt6vectorIN5mongo4stdx6threadESaIS2_EE4sizeEv(ptr noundef nonnull align 8 dereferenceable(24) %0) #8 comdat align 2 !dbg !11032 {
  %2 = alloca ptr, align 8
  store ptr %0, ptr %2, align 8
  call void @llvm.dbg.declare(metadata ptr %2, metadata !11033, metadata !DIExpression()), !dbg !11034
  %3 = load ptr, ptr %2, align 8
  %4 = getelementptr inbounds %"struct.std::_Vector_base", ptr %3, i32 0, i32 0, !dbg !11035
  %5 = getelementptr inbounds %"struct.std::_Vector_base<mongo::stdx::thread, std::allocator<mongo::stdx::thread>>::_Vector_impl_data", ptr %4, i32 0, i32 1, !dbg !11036
  %6 = load ptr, ptr %5, align 8, !dbg !11036
  %7 = getelementptr inbounds %"struct.std::_Vector_base", ptr %3, i32 0, i32 0, !dbg !11037
  %8 = getelementptr inbounds %"struct.std::_Vector_base<mongo::stdx::thread, std::allocator<mongo::stdx::thread>>::_Vector_impl_data", ptr %7, i32 0, i32 0, !dbg !11038
  %9 = load ptr, ptr %8, align 8, !dbg !11038
  %10 = ptrtoint ptr %6 to i64, !dbg !11039
  %11 = ptrtoint ptr %9 to i64, !dbg !11039
  %12 = sub i64 %10, %11, !dbg !11039
  %13 = sdiv exact i64 %12, 8, !dbg !11039
  ret i64 %13, !dbg !11040
}

; Function Attrs: noreturn
declare void @_ZSt20__throw_length_errorPKc(ptr noundef) #11

; Function Attrs: mustprogress noinline nounwind optnone uwtable
define linkonce_odr dso_local noundef nonnull align 8 dereferenceable(8) ptr @_ZSt3maxImERKT_S2_S2_(ptr noundef nonnull align 8 dereferenceable(8) %0, ptr noundef nonnull align 8 dereferenceable(8) %1) #8 comdat !dbg !11041 {
  %3 = alloca ptr, align 8
  %4 = alloca ptr, align 8
  %5 = alloca ptr, align 8
  store ptr %0, ptr %4, align 8
  call void @llvm.dbg.declare(metadata ptr %4, metadata !11048, metadata !DIExpression()), !dbg !11049
  store ptr %1, ptr %5, align 8
  call void @llvm.dbg.declare(metadata ptr %5, metadata !11050, metadata !DIExpression()), !dbg !11051
  %6 = load ptr, ptr %4, align 8, !dbg !11052
  %7 = load i64, ptr %6, align 8, !dbg !11052
  %8 = load ptr, ptr %5, align 8, !dbg !11054
  %9 = load i64, ptr %8, align 8, !dbg !11054
  %10 = icmp ult i64 %7, %9, !dbg !11055
  br i1 %10, label %11, label %13, !dbg !11056

11:                                               ; preds = %2
  %12 = load ptr, ptr %5, align 8, !dbg !11057
  store ptr %12, ptr %3, align 8, !dbg !11058
  br label %15, !dbg !11058

13:                                               ; preds = %2
  %14 = load ptr, ptr %4, align 8, !dbg !11059
  store ptr %14, ptr %3, align 8, !dbg !11060
  br label %15, !dbg !11060

15:                                               ; preds = %13, %11
  %16 = load ptr, ptr %3, align 8, !dbg !11061
  ret ptr %16, !dbg !11061
}

; Function Attrs: mustprogress noinline nounwind optnone uwtable
define linkonce_odr dso_local noundef i64 @_ZNSt6vectorIN5mongo4stdx6threadESaIS2_EE11_S_max_sizeERKS3_(ptr noundef nonnull align 1 dereferenceable(1) %0) #8 comdat align 2 personality ptr @__gxx_personality_v0 !dbg !11062 {
  %2 = alloca ptr, align 8
  %3 = alloca i64, align 8
  %4 = alloca i64, align 8
  store ptr %0, ptr %2, align 8
  call void @llvm.dbg.declare(metadata ptr %2, metadata !11063, metadata !DIExpression()), !dbg !11064
  call void @llvm.dbg.declare(metadata ptr %3, metadata !11065, metadata !DIExpression()), !dbg !11066
  store i64 1152921504606846975, ptr %3, align 8, !dbg !11066
  call void @llvm.dbg.declare(metadata ptr %4, metadata !11067, metadata !DIExpression()), !dbg !11068
  %5 = load ptr, ptr %2, align 8, !dbg !11069
  %6 = call noundef i64 @_ZNSt16allocator_traitsISaIN5mongo4stdx6threadEEE8max_sizeERKS3_(ptr noundef nonnull align 1 dereferenceable(1) %5) #1, !dbg !11070
  store i64 %6, ptr %4, align 8, !dbg !11068
  %7 = invoke noundef nonnull align 8 dereferenceable(8) ptr @_ZSt3minImERKT_S2_S2_(ptr noundef nonnull align 8 dereferenceable(8) %3, ptr noundef nonnull align 8 dereferenceable(8) %4)
          to label %8 unwind label %10, !dbg !11071

8:                                                ; preds = %1
  %9 = load i64, ptr %7, align 8, !dbg !11071
  ret i64 %9, !dbg !11072

10:                                               ; preds = %1
  %11 = landingpad { ptr, i32 }
          catch ptr null, !dbg !11071
  %12 = extractvalue { ptr, i32 } %11, 0, !dbg !11071
  call void @__clang_call_terminate(ptr %12) #19, !dbg !11071
  unreachable, !dbg !11071
}

; Function Attrs: mustprogress noinline nounwind optnone uwtable
define linkonce_odr dso_local noundef nonnull align 1 dereferenceable(1) ptr @_ZNKSt12_Vector_baseIN5mongo4stdx6threadESaIS2_EE19_M_get_Tp_allocatorEv(ptr noundef nonnull align 8 dereferenceable(24) %0) #8 comdat align 2 !dbg !11073 {
  %2 = alloca ptr, align 8
  store ptr %0, ptr %2, align 8
  call void @llvm.dbg.declare(metadata ptr %2, metadata !11074, metadata !DIExpression()), !dbg !11076
  %3 = load ptr, ptr %2, align 8
  %4 = getelementptr inbounds %"struct.std::_Vector_base", ptr %3, i32 0, i32 0, !dbg !11077
  ret ptr %4, !dbg !11078
}

; Function Attrs: mustprogress noinline nounwind optnone uwtable
define linkonce_odr dso_local noundef i64 @_ZNSt16allocator_traitsISaIN5mongo4stdx6threadEEE8max_sizeERKS3_(ptr noundef nonnull align 1 dereferenceable(1) %0) #8 comdat align 2 !dbg !11079 {
  %2 = alloca ptr, align 8
  store ptr %0, ptr %2, align 8
  call void @llvm.dbg.declare(metadata ptr %2, metadata !11080, metadata !DIExpression()), !dbg !11081
  %3 = load ptr, ptr %2, align 8, !dbg !11082
  %4 = call noundef i64 @_ZNK9__gnu_cxx13new_allocatorIN5mongo4stdx6threadEE8max_sizeEv(ptr noundef nonnull align 1 dereferenceable(1) %3) #1, !dbg !11083
  ret i64 %4, !dbg !11084
}

; Function Attrs: mustprogress noinline nounwind optnone uwtable
define linkonce_odr dso_local noundef nonnull align 8 dereferenceable(8) ptr @_ZSt3minImERKT_S2_S2_(ptr noundef nonnull align 8 dereferenceable(8) %0, ptr noundef nonnull align 8 dereferenceable(8) %1) #8 comdat !dbg !11085 {
  %3 = alloca ptr, align 8
  %4 = alloca ptr, align 8
  %5 = alloca ptr, align 8
  store ptr %0, ptr %4, align 8
  call void @llvm.dbg.declare(metadata ptr %4, metadata !11086, metadata !DIExpression()), !dbg !11087
  store ptr %1, ptr %5, align 8
  call void @llvm.dbg.declare(metadata ptr %5, metadata !11088, metadata !DIExpression()), !dbg !11089
  %6 = load ptr, ptr %5, align 8, !dbg !11090
  %7 = load i64, ptr %6, align 8, !dbg !11090
  %8 = load ptr, ptr %4, align 8, !dbg !11092
  %9 = load i64, ptr %8, align 8, !dbg !11092
  %10 = icmp ult i64 %7, %9, !dbg !11093
  br i1 %10, label %11, label %13, !dbg !11094

11:                                               ; preds = %2
  %12 = load ptr, ptr %5, align 8, !dbg !11095
  store ptr %12, ptr %3, align 8, !dbg !11096
  br label %15, !dbg !11096

13:                                               ; preds = %2
  %14 = load ptr, ptr %4, align 8, !dbg !11097
  store ptr %14, ptr %3, align 8, !dbg !11098
  br label %15, !dbg !11098

15:                                               ; preds = %13, %11
  %16 = load ptr, ptr %3, align 8, !dbg !11099
  ret ptr %16, !dbg !11099
}

; Function Attrs: mustprogress noinline nounwind optnone uwtable
define linkonce_odr dso_local noundef i64 @_ZNK9__gnu_cxx13new_allocatorIN5mongo4stdx6threadEE8max_sizeEv(ptr noundef nonnull align 1 dereferenceable(1) %0) #8 comdat align 2 !dbg !11100 {
  %2 = alloca ptr, align 8
  store ptr %0, ptr %2, align 8
  call void @llvm.dbg.declare(metadata ptr %2, metadata !11101, metadata !DIExpression()), !dbg !11103
  %3 = load ptr, ptr %2, align 8
  %4 = call noundef i64 @_ZNK9__gnu_cxx13new_allocatorIN5mongo4stdx6threadEE11_M_max_sizeEv(ptr noundef nonnull align 1 dereferenceable(1) %3) #1, !dbg !11104
  ret i64 %4, !dbg !11105
}

; Function Attrs: mustprogress noinline nounwind optnone uwtable
define linkonce_odr dso_local noundef i64 @_ZNK9__gnu_cxx13new_allocatorIN5mongo4stdx6threadEE11_M_max_sizeEv(ptr noundef nonnull align 1 dereferenceable(1) %0) #8 comdat align 2 !dbg !11106 {
  %2 = alloca ptr, align 8
  store ptr %0, ptr %2, align 8
  call void @llvm.dbg.declare(metadata ptr %2, metadata !11107, metadata !DIExpression()), !dbg !11108
  %3 = load ptr, ptr %2, align 8
  ret i64 1152921504606846975, !dbg !11109
}

; Function Attrs: noinline nounwind optnone uwtable
define linkonce_odr dso_local void @_ZN9__gnu_cxx17__normal_iteratorIPN5mongo4stdx6threadESt6vectorIS3_SaIS3_EEEC2ERKS4_(ptr noundef nonnull align 8 dereferenceable(8) %0, ptr noundef nonnull align 8 dereferenceable(8) %1) unnamed_addr #2 comdat align 2 !dbg !11110 {
  %3 = alloca ptr, align 8
  %4 = alloca ptr, align 8
  store ptr %0, ptr %3, align 8
  call void @llvm.dbg.declare(metadata ptr %3, metadata !11111, metadata !DIExpression()), !dbg !11113
  store ptr %1, ptr %4, align 8
  call void @llvm.dbg.declare(metadata ptr %4, metadata !11114, metadata !DIExpression()), !dbg !11115
  %5 = load ptr, ptr %3, align 8
  %6 = getelementptr inbounds %"class.__gnu_cxx::__normal_iterator", ptr %5, i32 0, i32 0, !dbg !11116
  %7 = load ptr, ptr %4, align 8, !dbg !11117
  %8 = load ptr, ptr %7, align 8, !dbg !11117
  store ptr %8, ptr %6, align 8, !dbg !11116
  ret void, !dbg !11118
}

; Function Attrs: mustprogress noinline optnone uwtable
define linkonce_odr dso_local noundef ptr @_ZNSt16allocator_traitsISaIN5mongo4stdx6threadEEE8allocateERS3_m(ptr noundef nonnull align 1 dereferenceable(1) %0, i64 noundef %1) #6 comdat align 2 !dbg !11119 {
  %3 = alloca ptr, align 8
  %4 = alloca i64, align 8
  store ptr %0, ptr %3, align 8
  call void @llvm.dbg.declare(metadata ptr %3, metadata !11120, metadata !DIExpression()), !dbg !11121
  store i64 %1, ptr %4, align 8
  call void @llvm.dbg.declare(metadata ptr %4, metadata !11122, metadata !DIExpression()), !dbg !11123
  %5 = load ptr, ptr %3, align 8, !dbg !11124
  %6 = load i64, ptr %4, align 8, !dbg !11125
  %7 = call noundef ptr @_ZN9__gnu_cxx13new_allocatorIN5mongo4stdx6threadEE8allocateEmPKv(ptr noundef nonnull align 1 dereferenceable(1) %5, i64 noundef %6, ptr noundef null), !dbg !11126
  ret ptr %7, !dbg !11127
}

; Function Attrs: mustprogress noinline optnone uwtable
define linkonce_odr dso_local noundef ptr @_ZN9__gnu_cxx13new_allocatorIN5mongo4stdx6threadEE8allocateEmPKv(ptr noundef nonnull align 1 dereferenceable(1) %0, i64 noundef %1, ptr noundef %2) #6 comdat align 2 !dbg !11128 {
  %4 = alloca ptr, align 8
  %5 = alloca i64, align 8
  %6 = alloca ptr, align 8
  store ptr %0, ptr %4, align 8
  call void @llvm.dbg.declare(metadata ptr %4, metadata !11129, metadata !DIExpression()), !dbg !11130
  store i64 %1, ptr %5, align 8
  call void @llvm.dbg.declare(metadata ptr %5, metadata !11131, metadata !DIExpression()), !dbg !11132
  store ptr %2, ptr %6, align 8
  call void @llvm.dbg.declare(metadata ptr %6, metadata !11133, metadata !DIExpression()), !dbg !11134
  %7 = load ptr, ptr %4, align 8
  %8 = load i64, ptr %5, align 8, !dbg !11135
  %9 = call noundef i64 @_ZNK9__gnu_cxx13new_allocatorIN5mongo4stdx6threadEE11_M_max_sizeEv(ptr noundef nonnull align 1 dereferenceable(1) %7) #1, !dbg !11137
  %10 = icmp ugt i64 %8, %9, !dbg !11138
  br i1 %10, label %11, label %16, !dbg !11139

11:                                               ; preds = %3
  %12 = load i64, ptr %5, align 8, !dbg !11140
  %13 = icmp ugt i64 %12, 2305843009213693951, !dbg !11143
  br i1 %13, label %14, label %15, !dbg !11144

14:                                               ; preds = %11
  call void @_ZSt28__throw_bad_array_new_lengthv() #21, !dbg !11145
  unreachable, !dbg !11145

15:                                               ; preds = %11
  call void @_ZSt17__throw_bad_allocv() #21, !dbg !11146
  unreachable, !dbg !11146

16:                                               ; preds = %3
  %17 = load i64, ptr %5, align 8, !dbg !11147
  %18 = mul i64 %17, 8, !dbg !11148
  %19 = call noalias noundef nonnull ptr @_Znwm(i64 noundef %18) #23, !dbg !11149
  ret ptr %19, !dbg !11150
}

; Function Attrs: noreturn
declare void @_ZSt28__throw_bad_array_new_lengthv() #11

; Function Attrs: noreturn
declare void @_ZSt17__throw_bad_allocv() #11

; Function Attrs: mustprogress noinline nounwind optnone uwtable
define linkonce_odr dso_local noundef ptr @_ZNSt6vectorIN5mongo4stdx6threadESaIS2_EE14_S_do_relocateEPS2_S5_S5_RS3_St17integral_constantIbLb1EE(ptr noundef %0, ptr noundef %1, ptr noundef %2, ptr noundef nonnull align 1 dereferenceable(1) %3) #8 comdat align 2 !dbg !11151 {
  %5 = alloca %"struct.std::integral_constant", align 1
  %6 = alloca ptr, align 8
  %7 = alloca ptr, align 8
  %8 = alloca ptr, align 8
  %9 = alloca ptr, align 8
  store ptr %0, ptr %6, align 8
  call void @llvm.dbg.declare(metadata ptr %6, metadata !11152, metadata !DIExpression()), !dbg !11153
  store ptr %1, ptr %7, align 8
  call void @llvm.dbg.declare(metadata ptr %7, metadata !11154, metadata !DIExpression()), !dbg !11155
  store ptr %2, ptr %8, align 8
  call void @llvm.dbg.declare(metadata ptr %8, metadata !11156, metadata !DIExpression()), !dbg !11157
  store ptr %3, ptr %9, align 8
  call void @llvm.dbg.declare(metadata ptr %9, metadata !11158, metadata !DIExpression()), !dbg !11159
  call void @llvm.dbg.declare(metadata ptr %5, metadata !11160, metadata !DIExpression()), !dbg !11161
  %10 = load ptr, ptr %6, align 8, !dbg !11162
  %11 = load ptr, ptr %7, align 8, !dbg !11163
  %12 = load ptr, ptr %8, align 8, !dbg !11164
  %13 = load ptr, ptr %9, align 8, !dbg !11165
  %14 = call noundef ptr @_ZSt12__relocate_aIPN5mongo4stdx6threadES3_SaIS2_EET0_T_S6_S5_RT1_(ptr noundef %10, ptr noundef %11, ptr noundef %12, ptr noundef nonnull align 1 dereferenceable(1) %13) #1, !dbg !11166
  ret ptr %14, !dbg !11167
}

; Function Attrs: mustprogress noinline nounwind optnone uwtable
define linkonce_odr dso_local noundef ptr @_ZSt12__relocate_aIPN5mongo4stdx6threadES3_SaIS2_EET0_T_S6_S5_RT1_(ptr noundef %0, ptr noundef %1, ptr noundef %2, ptr noundef nonnull align 1 dereferenceable(1) %3) #8 comdat !dbg !11168 {
  %5 = alloca ptr, align 8
  %6 = alloca ptr, align 8
  %7 = alloca ptr, align 8
  %8 = alloca ptr, align 8
  store ptr %0, ptr %5, align 8
  call void @llvm.dbg.declare(metadata ptr %5, metadata !11175, metadata !DIExpression()), !dbg !11176
  store ptr %1, ptr %6, align 8
  call void @llvm.dbg.declare(metadata ptr %6, metadata !11177, metadata !DIExpression()), !dbg !11178
  store ptr %2, ptr %7, align 8
  call void @llvm.dbg.declare(metadata ptr %7, metadata !11179, metadata !DIExpression()), !dbg !11180
  store ptr %3, ptr %8, align 8
  call void @llvm.dbg.declare(metadata ptr %8, metadata !11181, metadata !DIExpression()), !dbg !11182
  %9 = load ptr, ptr %5, align 8, !dbg !11183
  %10 = call noundef ptr @_ZSt12__niter_baseIPN5mongo4stdx6threadEET_S4_(ptr noundef %9) #1, !dbg !11184
  %11 = load ptr, ptr %6, align 8, !dbg !11185
  %12 = call noundef ptr @_ZSt12__niter_baseIPN5mongo4stdx6threadEET_S4_(ptr noundef %11) #1, !dbg !11186
  %13 = load ptr, ptr %7, align 8, !dbg !11187
  %14 = call noundef ptr @_ZSt12__niter_baseIPN5mongo4stdx6threadEET_S4_(ptr noundef %13) #1, !dbg !11188
  %15 = load ptr, ptr %8, align 8, !dbg !11189
  %16 = call noundef ptr @_ZSt14__relocate_a_1IPN5mongo4stdx6threadES3_SaIS2_EET0_T_S6_S5_RT1_(ptr noundef %10, ptr noundef %12, ptr noundef %14, ptr noundef nonnull align 1 dereferenceable(1) %15) #1, !dbg !11190
  ret ptr %16, !dbg !11191
}

; Function Attrs: mustprogress noinline nounwind optnone uwtable
define linkonce_odr dso_local noundef ptr @_ZSt14__relocate_a_1IPN5mongo4stdx6threadES3_SaIS2_EET0_T_S6_S5_RT1_(ptr noundef %0, ptr noundef %1, ptr noundef %2, ptr noundef nonnull align 1 dereferenceable(1) %3) #8 comdat !dbg !11192 {
  %5 = alloca ptr, align 8
  %6 = alloca ptr, align 8
  %7 = alloca ptr, align 8
  %8 = alloca ptr, align 8
  %9 = alloca ptr, align 8
  store ptr %0, ptr %5, align 8
  call void @llvm.dbg.declare(metadata ptr %5, metadata !11193, metadata !DIExpression()), !dbg !11194
  store ptr %1, ptr %6, align 8
  call void @llvm.dbg.declare(metadata ptr %6, metadata !11195, metadata !DIExpression()), !dbg !11196
  store ptr %2, ptr %7, align 8
  call void @llvm.dbg.declare(metadata ptr %7, metadata !11197, metadata !DIExpression()), !dbg !11198
  store ptr %3, ptr %8, align 8
  call void @llvm.dbg.declare(metadata ptr %8, metadata !11199, metadata !DIExpression()), !dbg !11200
  call void @llvm.dbg.declare(metadata ptr %9, metadata !11201, metadata !DIExpression()), !dbg !11202
  %10 = load ptr, ptr %7, align 8, !dbg !11203
  store ptr %10, ptr %9, align 8, !dbg !11202
  br label %11, !dbg !11204

11:                                               ; preds = %19, %4
  %12 = load ptr, ptr %5, align 8, !dbg !11205
  %13 = load ptr, ptr %6, align 8, !dbg !11208
  %14 = icmp ne ptr %12, %13, !dbg !11209
  br i1 %14, label %15, label %24, !dbg !11210

15:                                               ; preds = %11
  %16 = load ptr, ptr %9, align 8, !dbg !11211
  %17 = load ptr, ptr %5, align 8, !dbg !11212
  %18 = load ptr, ptr %8, align 8, !dbg !11213
  call void @_ZSt19__relocate_object_aIN5mongo4stdx6threadES2_SaIS2_EEvPT_PT0_RT1_(ptr noundef %16, ptr noundef %17, ptr noundef nonnull align 1 dereferenceable(1) %18) #1, !dbg !11214
  br label %19, !dbg !11214

19:                                               ; preds = %15
  %20 = load ptr, ptr %5, align 8, !dbg !11215
  %21 = getelementptr inbounds %"class.mongo::stdx::thread", ptr %20, i32 1, !dbg !11215
  store ptr %21, ptr %5, align 8, !dbg !11215
  %22 = load ptr, ptr %9, align 8, !dbg !11216
  %23 = getelementptr inbounds %"class.mongo::stdx::thread", ptr %22, i32 1, !dbg !11216
  store ptr %23, ptr %9, align 8, !dbg !11216
  br label %11, !dbg !11217, !llvm.loop !11218

24:                                               ; preds = %11
  %25 = load ptr, ptr %9, align 8, !dbg !11220
  ret ptr %25, !dbg !11221
}

; Function Attrs: mustprogress noinline nounwind optnone uwtable
define linkonce_odr dso_local noundef ptr @_ZSt12__niter_baseIPN5mongo4stdx6threadEET_S4_(ptr noundef %0) #8 comdat !dbg !11222 {
  %2 = alloca ptr, align 8
  store ptr %0, ptr %2, align 8
  call void @llvm.dbg.declare(metadata ptr %2, metadata !11225, metadata !DIExpression()), !dbg !11226
  %3 = load ptr, ptr %2, align 8, !dbg !11227
  ret ptr %3, !dbg !11228
}

; Function Attrs: mustprogress noinline nounwind optnone uwtable
define linkonce_odr dso_local void @_ZSt19__relocate_object_aIN5mongo4stdx6threadES2_SaIS2_EEvPT_PT0_RT1_(ptr noalias noundef %0, ptr noalias noundef %1, ptr noundef nonnull align 1 dereferenceable(1) %2) #8 comdat !dbg !11229 {
  %4 = alloca ptr, align 8
  %5 = alloca ptr, align 8
  %6 = alloca ptr, align 8
  store ptr %0, ptr %4, align 8
  call void @llvm.dbg.declare(metadata ptr %4, metadata !11234, metadata !DIExpression()), !dbg !11235
  store ptr %1, ptr %5, align 8
  call void @llvm.dbg.declare(metadata ptr %5, metadata !11236, metadata !DIExpression()), !dbg !11237
  store ptr %2, ptr %6, align 8
  call void @llvm.dbg.declare(metadata ptr %6, metadata !11238, metadata !DIExpression()), !dbg !11239
  %7 = load ptr, ptr %6, align 8, !dbg !11240
  %8 = load ptr, ptr %4, align 8, !dbg !11241
  %9 = load ptr, ptr %5, align 8, !dbg !11242
  call void @_ZNSt16allocator_traitsISaIN5mongo4stdx6threadEEE9constructIS2_JS2_EEEvRS3_PT_DpOT0_(ptr noundef nonnull align 1 dereferenceable(1) %7, ptr noundef %8, ptr noundef nonnull align 8 dereferenceable(8) %9) #1, !dbg !11243
  %10 = load ptr, ptr %6, align 8, !dbg !11244
  %11 = load ptr, ptr %5, align 8, !dbg !11245
  call void @_ZNSt16allocator_traitsISaIN5mongo4stdx6threadEEE7destroyIS2_EEvRS3_PT_(ptr noundef nonnull align 1 dereferenceable(1) %10, ptr noundef %11) #1, !dbg !11246
  ret void, !dbg !11247
}

; Function Attrs: mustprogress noinline nounwind optnone uwtable
define linkonce_odr dso_local void @_ZNSt16allocator_traitsISaIN5mongo4stdx6threadEEE9constructIS2_JS2_EEEvRS3_PT_DpOT0_(ptr noundef nonnull align 1 dereferenceable(1) %0, ptr noundef %1, ptr noundef nonnull align 8 dereferenceable(8) %2) #8 comdat align 2 !dbg !11248 {
  %4 = alloca ptr, align 8
  %5 = alloca ptr, align 8
  %6 = alloca ptr, align 8
  store ptr %0, ptr %4, align 8
  call void @llvm.dbg.declare(metadata ptr %4, metadata !11255, metadata !DIExpression()), !dbg !11256
  store ptr %1, ptr %5, align 8
  call void @llvm.dbg.declare(metadata ptr %5, metadata !11257, metadata !DIExpression()), !dbg !11258
  store ptr %2, ptr %6, align 8
  call void @llvm.dbg.declare(metadata ptr %6, metadata !11259, metadata !DIExpression()), !dbg !11260
  %7 = load ptr, ptr %4, align 8, !dbg !11261
  %8 = load ptr, ptr %5, align 8, !dbg !11262
  %9 = load ptr, ptr %6, align 8, !dbg !11263
  call void @_ZN9__gnu_cxx13new_allocatorIN5mongo4stdx6threadEE9constructIS3_JS3_EEEvPT_DpOT0_(ptr noundef nonnull align 1 dereferenceable(1) %7, ptr noundef %8, ptr noundef nonnull align 8 dereferenceable(8) %9) #1, !dbg !11264
  ret void, !dbg !11265
}

; Function Attrs: mustprogress noinline nounwind optnone uwtable
define linkonce_odr dso_local void @_ZNSt16allocator_traitsISaIN5mongo4stdx6threadEEE7destroyIS2_EEvRS3_PT_(ptr noundef nonnull align 1 dereferenceable(1) %0, ptr noundef %1) #8 comdat align 2 !dbg !11266 {
  %3 = alloca ptr, align 8
  %4 = alloca ptr, align 8
  store ptr %0, ptr %3, align 8
  call void @llvm.dbg.declare(metadata ptr %3, metadata !11271, metadata !DIExpression()), !dbg !11272
  store ptr %1, ptr %4, align 8
  call void @llvm.dbg.declare(metadata ptr %4, metadata !11273, metadata !DIExpression()), !dbg !11274
  %5 = load ptr, ptr %3, align 8, !dbg !11275
  %6 = load ptr, ptr %4, align 8, !dbg !11276
  call void @_ZN9__gnu_cxx13new_allocatorIN5mongo4stdx6threadEE7destroyIS3_EEvPT_(ptr noundef nonnull align 1 dereferenceable(1) %5, ptr noundef %6) #1, !dbg !11277
  ret void, !dbg !11278
}

; Function Attrs: mustprogress noinline nounwind optnone uwtable
define linkonce_odr dso_local void @_ZN9__gnu_cxx13new_allocatorIN5mongo4stdx6threadEE9constructIS3_JS3_EEEvPT_DpOT0_(ptr noundef nonnull align 1 dereferenceable(1) %0, ptr noundef %1, ptr noundef nonnull align 8 dereferenceable(8) %2) #8 comdat align 2 !dbg !11279 {
  %4 = alloca ptr, align 8
  %5 = alloca ptr, align 8
  %6 = alloca ptr, align 8
  store ptr %0, ptr %4, align 8
  call void @llvm.dbg.declare(metadata ptr %4, metadata !11283, metadata !DIExpression()), !dbg !11284
  store ptr %1, ptr %5, align 8
  call void @llvm.dbg.declare(metadata ptr %5, metadata !11285, metadata !DIExpression()), !dbg !11286
  store ptr %2, ptr %6, align 8
  call void @llvm.dbg.declare(metadata ptr %6, metadata !11287, metadata !DIExpression()), !dbg !11288
  %7 = load ptr, ptr %4, align 8
  %8 = load ptr, ptr %5, align 8, !dbg !11289
  %9 = load ptr, ptr %6, align 8, !dbg !11290
  call void @_ZN5mongo4stdx6threadC2EOS1_(ptr noundef nonnull align 8 dereferenceable(8) %8, ptr noundef nonnull align 8 dereferenceable(8) %9) #1, !dbg !11291
  ret void, !dbg !11292
}

; Function Attrs: noinline nounwind optnone uwtable
define linkonce_odr dso_local void @_ZN5mongo4stdx6threadC2EOS1_(ptr noundef nonnull align 8 dereferenceable(8) %0, ptr noundef nonnull align 8 dereferenceable(8) %1) unnamed_addr #2 comdat align 2 !dbg !11293 {
  %3 = alloca ptr, align 8
  %4 = alloca ptr, align 8
  store ptr %0, ptr %3, align 8
  call void @llvm.dbg.declare(metadata ptr %3, metadata !11294, metadata !DIExpression()), !dbg !11295
  store ptr %1, ptr %4, align 8
  call void @llvm.dbg.declare(metadata ptr %4, metadata !11296, metadata !DIExpression()), !dbg !11297
  %5 = load ptr, ptr %3, align 8
  %6 = load ptr, ptr %4, align 8, !dbg !11298
  call void @_ZNSt6threadC2EOS_(ptr noundef nonnull align 8 dereferenceable(8) %5, ptr noundef nonnull align 8 dereferenceable(8) %6) #1, !dbg !11298
  ret void, !dbg !11299
}

; Function Attrs: noinline nounwind optnone uwtable
define linkonce_odr dso_local void @_ZNSt6threadC2EOS_(ptr noundef nonnull align 8 dereferenceable(8) %0, ptr noundef nonnull align 8 dereferenceable(8) %1) unnamed_addr #2 comdat align 2 !dbg !11300 {
  %3 = alloca ptr, align 8
  %4 = alloca ptr, align 8
  store ptr %0, ptr %3, align 8
  call void @llvm.dbg.declare(metadata ptr %3, metadata !11301, metadata !DIExpression()), !dbg !11302
  store ptr %1, ptr %4, align 8
  call void @llvm.dbg.declare(metadata ptr %4, metadata !11303, metadata !DIExpression()), !dbg !11304
  %5 = load ptr, ptr %3, align 8
  %6 = getelementptr inbounds %"class.std::thread", ptr %5, i32 0, i32 0, !dbg !11305
  call void @_ZNSt6thread2idC2Ev(ptr noundef nonnull align 8 dereferenceable(8) %6) #1, !dbg !11305
  %7 = load ptr, ptr %4, align 8, !dbg !11306
  call void @_ZNSt6thread4swapERS_(ptr noundef nonnull align 8 dereferenceable(8) %5, ptr noundef nonnull align 8 dereferenceable(8) %7) #1, !dbg !11308
  ret void, !dbg !11309
}

; Function Attrs: mustprogress noinline nounwind optnone uwtable
define linkonce_odr dso_local void @_ZNSt6thread4swapERS_(ptr noundef nonnull align 8 dereferenceable(8) %0, ptr noundef nonnull align 8 dereferenceable(8) %1) #8 comdat align 2 !dbg !11310 {
  %3 = alloca ptr, align 8
  %4 = alloca ptr, align 8
  store ptr %0, ptr %3, align 8
  call void @llvm.dbg.declare(metadata ptr %3, metadata !11311, metadata !DIExpression()), !dbg !11312
  store ptr %1, ptr %4, align 8
  call void @llvm.dbg.declare(metadata ptr %4, metadata !11313, metadata !DIExpression()), !dbg !11314
  %5 = load ptr, ptr %3, align 8
  %6 = getelementptr inbounds %"class.std::thread", ptr %5, i32 0, i32 0, !dbg !11315
  %7 = load ptr, ptr %4, align 8, !dbg !11316
  %8 = getelementptr inbounds %"class.std::thread", ptr %7, i32 0, i32 0, !dbg !11317
  call void @_ZSt4swapINSt6thread2idEENSt9enable_ifIXsr6__and_ISt6__not_ISt15__is_tuple_likeIT_EESt21is_move_constructibleIS5_ESt18is_move_assignableIS5_EEE5valueEvE4typeERS5_SE_(ptr noundef nonnull align 8 dereferenceable(8) %6, ptr noundef nonnull align 8 dereferenceable(8) %8) #1, !dbg !11318
  ret void, !dbg !11319
}

; Function Attrs: mustprogress noinline nounwind optnone uwtable
define linkonce_odr dso_local void @_ZSt4swapINSt6thread2idEENSt9enable_ifIXsr6__and_ISt6__not_ISt15__is_tuple_likeIT_EESt21is_move_constructibleIS5_ESt18is_move_assignableIS5_EEE5valueEvE4typeERS5_SE_(ptr noundef nonnull align 8 dereferenceable(8) %0, ptr noundef nonnull align 8 dereferenceable(8) %1) #8 comdat !dbg !11320 {
  %3 = alloca ptr, align 8
  %4 = alloca ptr, align 8
  %5 = alloca %"class.std::thread::id", align 8
  store ptr %0, ptr %3, align 8
  call void @llvm.dbg.declare(metadata ptr %3, metadata !11327, metadata !DIExpression()), !dbg !11328
  store ptr %1, ptr %4, align 8
  call void @llvm.dbg.declare(metadata ptr %4, metadata !11329, metadata !DIExpression()), !dbg !11330
  call void @llvm.dbg.declare(metadata ptr %5, metadata !11331, metadata !DIExpression()), !dbg !11332
  %6 = load ptr, ptr %3, align 8, !dbg !11333
  call void @llvm.memcpy.p0.p0.i64(ptr align 8 %5, ptr align 8 %6, i64 8, i1 false), !dbg !11333
  %7 = load ptr, ptr %4, align 8, !dbg !11334
  %8 = load ptr, ptr %3, align 8, !dbg !11335
  call void @llvm.memcpy.p0.p0.i64(ptr align 8 %8, ptr align 8 %7, i64 8, i1 false), !dbg !11336
  %9 = load ptr, ptr %4, align 8, !dbg !11337
  call void @llvm.memcpy.p0.p0.i64(ptr align 8 %9, ptr align 8 %5, i64 8, i1 false), !dbg !11338
  ret void, !dbg !11339
}

; Function Attrs: mustprogress noinline nounwind optnone uwtable
define linkonce_odr dso_local void @_ZN9__gnu_cxx13new_allocatorIN5mongo4stdx6threadEE7destroyIS3_EEvPT_(ptr noundef nonnull align 1 dereferenceable(1) %0, ptr noundef %1) #8 comdat align 2 !dbg !11340 {
  %3 = alloca ptr, align 8
  %4 = alloca ptr, align 8
  store ptr %0, ptr %3, align 8
  call void @llvm.dbg.declare(metadata ptr %3, metadata !11344, metadata !DIExpression()), !dbg !11345
  store ptr %1, ptr %4, align 8
  call void @llvm.dbg.declare(metadata ptr %4, metadata !11346, metadata !DIExpression()), !dbg !11347
  %5 = load ptr, ptr %3, align 8
  %6 = load ptr, ptr %4, align 8, !dbg !11348
  call void @_ZN5mongo4stdx6threadD2Ev(ptr noundef nonnull align 8 dereferenceable(8) %6) #1, !dbg !11349
  ret void, !dbg !11350
}

; Function Attrs: mustprogress noinline nounwind optnone uwtable
define linkonce_odr dso_local ptr @_ZNK9__gnu_cxx17__normal_iteratorIPN5mongo4stdx6threadESt6vectorIS3_SaIS3_EEEmiEl(ptr noundef nonnull align 8 dereferenceable(8) %0, i64 noundef %1) #8 comdat align 2 !dbg !11351 {
  %3 = alloca %"class.__gnu_cxx::__normal_iterator", align 8
  %4 = alloca ptr, align 8
  %5 = alloca i64, align 8
  %6 = alloca ptr, align 8
  store ptr %0, ptr %4, align 8
  call void @llvm.dbg.declare(metadata ptr %4, metadata !11352, metadata !DIExpression()), !dbg !11353
  store i64 %1, ptr %5, align 8
  call void @llvm.dbg.declare(metadata ptr %5, metadata !11354, metadata !DIExpression()), !dbg !11355
  %7 = load ptr, ptr %4, align 8
  %8 = getelementptr inbounds %"class.__gnu_cxx::__normal_iterator", ptr %7, i32 0, i32 0, !dbg !11356
  %9 = load ptr, ptr %8, align 8, !dbg !11356
  %10 = load i64, ptr %5, align 8, !dbg !11357
  %11 = sub i64 0, %10, !dbg !11358
  %12 = getelementptr inbounds %"class.mongo::stdx::thread", ptr %9, i64 %11, !dbg !11358
  store ptr %12, ptr %6, align 8, !dbg !11356
  call void @_ZN9__gnu_cxx17__normal_iteratorIPN5mongo4stdx6threadESt6vectorIS3_SaIS3_EEEC2ERKS4_(ptr noundef nonnull align 8 dereferenceable(8) %3, ptr noundef nonnull align 8 dereferenceable(8) %6) #1, !dbg !11359
  %13 = getelementptr inbounds %"class.__gnu_cxx::__normal_iterator", ptr %3, i32 0, i32 0, !dbg !11360
  %14 = load ptr, ptr %13, align 8, !dbg !11360
  ret ptr %14, !dbg !11360
}

; Function Attrs: mustprogress noinline nounwind optnone uwtable
define linkonce_odr dso_local noundef nonnull align 8 dereferenceable(8) ptr @_ZNK9__gnu_cxx17__normal_iteratorIPN5mongo4stdx6threadESt6vectorIS3_SaIS3_EEEdeEv(ptr noundef nonnull align 8 dereferenceable(8) %0) #8 comdat align 2 !dbg !11361 {
  %2 = alloca ptr, align 8
  store ptr %0, ptr %2, align 8
  call void @llvm.dbg.declare(metadata ptr %2, metadata !11362, metadata !DIExpression()), !dbg !11363
  %3 = load ptr, ptr %2, align 8
  %4 = getelementptr inbounds %"class.__gnu_cxx::__normal_iterator", ptr %3, i32 0, i32 0, !dbg !11364
  %5 = load ptr, ptr %4, align 8, !dbg !11364
  ret ptr %5, !dbg !11365
}

; Function Attrs: noinline nounwind optnone uwtable
define linkonce_odr dso_local void @_ZNSt8functionIFvvEEC2IZN5mongo8unittest4Test17RegistrationAgentINS4_9DeathTestINS3_90UnitTest_SuiteNameThreadSafetyContextTestTestNameCreateThreadsAfterForbidingMultiThreadingEEEEC1ENS3_10StringDataESB_SB_EUlvE_vEEOT_(ptr noundef nonnull align 8 dereferenceable(32) %0, ptr noundef nonnull align 1 dereferenceable(1) %1) unnamed_addr #2 comdat align 2 personality ptr @__gxx_personality_v0 !dbg !11366 {
  %3 = alloca ptr, align 8
  %4 = alloca ptr, align 8
  store ptr %0, ptr %3, align 8
  call void @llvm.dbg.declare(metadata ptr %3, metadata !11373, metadata !DIExpression()), !dbg !11374
  store ptr %1, ptr %4, align 8
  call void @llvm.dbg.declare(metadata ptr %4, metadata !11375, metadata !DIExpression()), !dbg !11376
  %5 = load ptr, ptr %3, align 8
  %6 = getelementptr inbounds i8, ptr %5, i64 0, !dbg !11377
  call void @llvm.memset.p0.i64(ptr align 8 %6, i8 0, i64 24, i1 false), !dbg !11377
  call void @_ZNSt14_Function_baseC2Ev(ptr noundef nonnull align 8 dereferenceable(24) %5) #1, !dbg !11377
  %7 = getelementptr inbounds %"class.std::function", ptr %5, i32 0, i32 1, !dbg !11378
  store ptr null, ptr %7, align 8, !dbg !11378
  %8 = load ptr, ptr %4, align 8, !dbg !11379
  %9 = invoke noundef zeroext i1 @_ZNSt14_Function_base13_Base_managerIZN5mongo8unittest4Test17RegistrationAgentINS2_9DeathTestINS1_90UnitTest_SuiteNameThreadSafetyContextTestTestNameCreateThreadsAfterForbidingMultiThreadingEEEEC1ENS1_10StringDataES9_S9_EUlvE_E21_M_not_empty_functionISA_EEbRKT_(ptr noundef nonnull align 1 dereferenceable(1) %8)
          to label %10 unwind label %17, !dbg !11382

10:                                               ; preds = %2
  br i1 %9, label %11, label %16, !dbg !11383

11:                                               ; preds = %10
  %12 = getelementptr inbounds %"class.std::_Function_base", ptr %5, i32 0, i32 0, !dbg !11384
  %13 = load ptr, ptr %4, align 8, !dbg !11386
  call void @_ZNSt14_Function_base13_Base_managerIZN5mongo8unittest4Test17RegistrationAgentINS2_9DeathTestINS1_90UnitTest_SuiteNameThreadSafetyContextTestTestNameCreateThreadsAfterForbidingMultiThreadingEEEEC1ENS1_10StringDataES9_S9_EUlvE_E15_M_init_functorISA_EEvRSt9_Any_dataOT_(ptr noundef nonnull align 8 dereferenceable(16) %12, ptr noundef nonnull align 1 dereferenceable(1) %13) #1, !dbg !11387
  %14 = getelementptr inbounds %"class.std::function", ptr %5, i32 0, i32 1, !dbg !11388
  store ptr @_ZNSt17_Function_handlerIFvvEZN5mongo8unittest4Test17RegistrationAgentINS2_9DeathTestINS1_90UnitTest_SuiteNameThreadSafetyContextTestTestNameCreateThreadsAfterForbidingMultiThreadingEEEEC1ENS1_10StringDataES9_S9_EUlvE_E9_M_invokeERKSt9_Any_data, ptr %14, align 8, !dbg !11389
  %15 = getelementptr inbounds %"class.std::_Function_base", ptr %5, i32 0, i32 1, !dbg !11390
  store ptr @_ZNSt17_Function_handlerIFvvEZN5mongo8unittest4Test17RegistrationAgentINS2_9DeathTestINS1_90UnitTest_SuiteNameThreadSafetyContextTestTestNameCreateThreadsAfterForbidingMultiThreadingEEEEC1ENS1_10StringDataES9_S9_EUlvE_E10_M_managerERSt9_Any_dataRKSC_St18_Manager_operation, ptr %15, align 8, !dbg !11391
  br label %16, !dbg !11392

16:                                               ; preds = %11, %10
  ret void, !dbg !11393

17:                                               ; preds = %2
  %18 = landingpad { ptr, i32 }
          catch ptr null, !dbg !11382
  %19 = extractvalue { ptr, i32 } %18, 0, !dbg !11382
  call void @__clang_call_terminate(ptr %19) #19, !dbg !11382
  unreachable, !dbg !11382
}

; Function Attrs: mustprogress noinline nounwind optnone uwtable
define linkonce_odr dso_local noundef zeroext i1 @_ZNSt14_Function_base13_Base_managerIZN5mongo8unittest4Test17RegistrationAgentINS2_9DeathTestINS1_90UnitTest_SuiteNameThreadSafetyContextTestTestNameCreateThreadsAfterForbidingMultiThreadingEEEEC1ENS1_10StringDataES9_S9_EUlvE_E21_M_not_empty_functionISA_EEbRKT_(ptr noundef nonnull align 1 dereferenceable(1) %0) #8 comdat align 2 !dbg !11394 {
  %2 = alloca ptr, align 8
  store ptr %0, ptr %2, align 8
  call void @llvm.dbg.declare(metadata ptr %2, metadata !11411, metadata !DIExpression()), !dbg !11412
  ret i1 true, !dbg !11413
}

; Function Attrs: mustprogress noinline nounwind optnone uwtable
define linkonce_odr dso_local void @_ZNSt14_Function_base13_Base_managerIZN5mongo8unittest4Test17RegistrationAgentINS2_9DeathTestINS1_90UnitTest_SuiteNameThreadSafetyContextTestTestNameCreateThreadsAfterForbidingMultiThreadingEEEEC1ENS1_10StringDataES9_S9_EUlvE_E15_M_init_functorISA_EEvRSt9_Any_dataOT_(ptr noundef nonnull align 8 dereferenceable(16) %0, ptr noundef nonnull align 1 dereferenceable(1) %1) #8 comdat align 2 personality ptr @__gxx_personality_v0 !dbg !11414 {
  %3 = alloca ptr, align 8
  %4 = alloca ptr, align 8
  %5 = alloca %"struct.std::integral_constant", align 1
  store ptr %0, ptr %3, align 8
  call void @llvm.dbg.declare(metadata ptr %3, metadata !11420, metadata !DIExpression()), !dbg !11421
  store ptr %1, ptr %4, align 8
  call void @llvm.dbg.declare(metadata ptr %4, metadata !11422, metadata !DIExpression()), !dbg !11423
  %6 = load ptr, ptr %3, align 8, !dbg !11424
  %7 = load ptr, ptr %4, align 8, !dbg !11425
  invoke void @_ZNSt14_Function_base13_Base_managerIZN5mongo8unittest4Test17RegistrationAgentINS2_9DeathTestINS1_90UnitTest_SuiteNameThreadSafetyContextTestTestNameCreateThreadsAfterForbidingMultiThreadingEEEEC1ENS1_10StringDataES9_S9_EUlvE_E9_M_createISA_EEvRSt9_Any_dataOT_St17integral_constantIbLb1EE(ptr noundef nonnull align 8 dereferenceable(16) %6, ptr noundef nonnull align 1 dereferenceable(1) %7)
          to label %8 unwind label %9, !dbg !11426

8:                                                ; preds = %2
  ret void, !dbg !11427

9:                                                ; preds = %2
  %10 = landingpad { ptr, i32 }
          catch ptr null, !dbg !11426
  %11 = extractvalue { ptr, i32 } %10, 0, !dbg !11426
  call void @__clang_call_terminate(ptr %11) #19, !dbg !11426
  unreachable, !dbg !11426
}

; Function Attrs: mustprogress noinline optnone uwtable
define linkonce_odr dso_local void @_ZNSt17_Function_handlerIFvvEZN5mongo8unittest4Test17RegistrationAgentINS2_9DeathTestINS1_90UnitTest_SuiteNameThreadSafetyContextTestTestNameCreateThreadsAfterForbidingMultiThreadingEEEEC1ENS1_10StringDataES9_S9_EUlvE_E9_M_invokeERKSt9_Any_data(ptr noundef nonnull align 8 dereferenceable(16) %0) #6 comdat align 2 !dbg !11428 {
  %2 = alloca ptr, align 8
  store ptr %0, ptr %2, align 8
  call void @llvm.dbg.declare(metadata ptr %2, metadata !11435, metadata !DIExpression()), !dbg !11436
  %3 = load ptr, ptr %2, align 8, !dbg !11437
  %4 = call noundef ptr @_ZNSt14_Function_base13_Base_managerIZN5mongo8unittest4Test17RegistrationAgentINS2_9DeathTestINS1_90UnitTest_SuiteNameThreadSafetyContextTestTestNameCreateThreadsAfterForbidingMultiThreadingEEEEC1ENS1_10StringDataES9_S9_EUlvE_E14_M_get_pointerERKSt9_Any_data(ptr noundef nonnull align 8 dereferenceable(16) %3), !dbg !11438
  call void @_ZSt10__invoke_rIvRZN5mongo8unittest4Test17RegistrationAgentINS1_9DeathTestINS0_90UnitTest_SuiteNameThreadSafetyContextTestTestNameCreateThreadsAfterForbidingMultiThreadingEEEEC1ENS0_10StringDataES8_S8_EUlvE_JEENSt9enable_ifIX16is_invocable_r_vIT_T0_DpT1_EESC_E4typeEOSD_DpOSE_(ptr noundef nonnull align 1 dereferenceable(1) %4), !dbg !11439
  ret void, !dbg !11440
}

; Function Attrs: mustprogress noinline optnone uwtable
define linkonce_odr dso_local noundef zeroext i1 @_ZNSt17_Function_handlerIFvvEZN5mongo8unittest4Test17RegistrationAgentINS2_9DeathTestINS1_90UnitTest_SuiteNameThreadSafetyContextTestTestNameCreateThreadsAfterForbidingMultiThreadingEEEEC1ENS1_10StringDataES9_S9_EUlvE_E10_M_managerERSt9_Any_dataRKSC_St18_Manager_operation(ptr noundef nonnull align 8 dereferenceable(16) %0, ptr noundef nonnull align 8 dereferenceable(16) %1, i32 noundef %2) #6 comdat align 2 !dbg !11441 {
  %4 = alloca ptr, align 8
  %5 = alloca ptr, align 8
  %6 = alloca i32, align 4
  store ptr %0, ptr %4, align 8
  call void @llvm.dbg.declare(metadata ptr %4, metadata !11442, metadata !DIExpression()), !dbg !11443
  store ptr %1, ptr %5, align 8
  call void @llvm.dbg.declare(metadata ptr %5, metadata !11444, metadata !DIExpression()), !dbg !11445
  store i32 %2, ptr %6, align 4
  call void @llvm.dbg.declare(metadata ptr %6, metadata !11446, metadata !DIExpression()), !dbg !11447
  %7 = load i32, ptr %6, align 4, !dbg !11448
  switch i32 %7, label %16 [
    i32 0, label %8
    i32 1, label %11
  ], !dbg !11449

8:                                                ; preds = %3
  %9 = load ptr, ptr %4, align 8, !dbg !11450
  %10 = call noundef nonnull align 8 dereferenceable(8) ptr @_ZNSt9_Any_data9_M_accessIPKSt9type_infoEERT_v(ptr noundef nonnull align 8 dereferenceable(16) %9), !dbg !11452
  store ptr @_ZTIZN5mongo8unittest4Test17RegistrationAgentINS0_9DeathTestINS_90UnitTest_SuiteNameThreadSafetyContextTestTestNameCreateThreadsAfterForbidingMultiThreadingEEEEC1ENS_10StringDataES7_S7_EUlvE_, ptr %10, align 8, !dbg !11453
  br label %21, !dbg !11454

11:                                               ; preds = %3
  %12 = load ptr, ptr %5, align 8, !dbg !11455
  %13 = call noundef ptr @_ZNSt14_Function_base13_Base_managerIZN5mongo8unittest4Test17RegistrationAgentINS2_9DeathTestINS1_90UnitTest_SuiteNameThreadSafetyContextTestTestNameCreateThreadsAfterForbidingMultiThreadingEEEEC1ENS1_10StringDataES9_S9_EUlvE_E14_M_get_pointerERKSt9_Any_data(ptr noundef nonnull align 8 dereferenceable(16) %12), !dbg !11456
  %14 = load ptr, ptr %4, align 8, !dbg !11457
  %15 = call noundef nonnull align 8 dereferenceable(8) ptr @_ZNSt9_Any_data9_M_accessIPZN5mongo8unittest4Test17RegistrationAgentINS2_9DeathTestINS1_90UnitTest_SuiteNameThreadSafetyContextTestTestNameCreateThreadsAfterForbidingMultiThreadingEEEEC1ENS1_10StringDataES9_S9_EUlvE_EERT_v(ptr noundef nonnull align 8 dereferenceable(16) %14), !dbg !11458
  store ptr %13, ptr %15, align 8, !dbg !11459
  br label %21, !dbg !11460

16:                                               ; preds = %3
  %17 = load ptr, ptr %4, align 8, !dbg !11461
  %18 = load ptr, ptr %5, align 8, !dbg !11462
  %19 = load i32, ptr %6, align 4, !dbg !11463
  %20 = call noundef zeroext i1 @_ZNSt14_Function_base13_Base_managerIZN5mongo8unittest4Test17RegistrationAgentINS2_9DeathTestINS1_90UnitTest_SuiteNameThreadSafetyContextTestTestNameCreateThreadsAfterForbidingMultiThreadingEEEEC1ENS1_10StringDataES9_S9_EUlvE_E10_M_managerERSt9_Any_dataRKSC_St18_Manager_operation(ptr noundef nonnull align 8 dereferenceable(16) %17, ptr noundef nonnull align 8 dereferenceable(16) %18, i32 noundef %19), !dbg !11464
  br label %21, !dbg !11465

21:                                               ; preds = %16, %11, %8
  ret i1 false, !dbg !11466
}

; Function Attrs: mustprogress noinline nounwind optnone uwtable
define linkonce_odr dso_local void @_ZNSt14_Function_base13_Base_managerIZN5mongo8unittest4Test17RegistrationAgentINS2_9DeathTestINS1_90UnitTest_SuiteNameThreadSafetyContextTestTestNameCreateThreadsAfterForbidingMultiThreadingEEEEC1ENS1_10StringDataES9_S9_EUlvE_E9_M_createISA_EEvRSt9_Any_dataOT_St17integral_constantIbLb1EE(ptr noundef nonnull align 8 dereferenceable(16) %0, ptr noundef nonnull align 1 dereferenceable(1) %1) #8 comdat align 2 !dbg !11467 {
  %3 = alloca %"struct.std::integral_constant", align 1
  %4 = alloca ptr, align 8
  %5 = alloca ptr, align 8
  store ptr %0, ptr %4, align 8
  call void @llvm.dbg.declare(metadata ptr %4, metadata !11471, metadata !DIExpression()), !dbg !11472
  store ptr %1, ptr %5, align 8
  call void @llvm.dbg.declare(metadata ptr %5, metadata !11473, metadata !DIExpression()), !dbg !11474
  call void @llvm.dbg.declare(metadata ptr %3, metadata !11475, metadata !DIExpression()), !dbg !11476
  %6 = load ptr, ptr %4, align 8, !dbg !11477
  %7 = call noundef ptr @_ZNSt9_Any_data9_M_accessEv(ptr noundef nonnull align 8 dereferenceable(16) %6), !dbg !11478
  %8 = load ptr, ptr %5, align 8, !dbg !11479
  ret void, !dbg !11480
}

; Function Attrs: mustprogress noinline optnone uwtable
define linkonce_odr dso_local void @_ZSt10__invoke_rIvRZN5mongo8unittest4Test17RegistrationAgentINS1_9DeathTestINS0_90UnitTest_SuiteNameThreadSafetyContextTestTestNameCreateThreadsAfterForbidingMultiThreadingEEEEC1ENS0_10StringDataES8_S8_EUlvE_JEENSt9enable_ifIX16is_invocable_r_vIT_T0_DpT1_EESC_E4typeEOSD_DpOSE_(ptr noundef nonnull align 1 dereferenceable(1) %0) #6 comdat !dbg !3351 {
  %2 = alloca ptr, align 8
  %3 = alloca %"struct.std::__invoke_other", align 1
  store ptr %0, ptr %2, align 8
  call void @llvm.dbg.declare(metadata ptr %2, metadata !11481, metadata !DIExpression()), !dbg !11482
  %4 = load ptr, ptr %2, align 8, !dbg !11483
  call void @_ZSt13__invoke_implIvRZN5mongo8unittest4Test17RegistrationAgentINS1_9DeathTestINS0_90UnitTest_SuiteNameThreadSafetyContextTestTestNameCreateThreadsAfterForbidingMultiThreadingEEEEC1ENS0_10StringDataES8_S8_EUlvE_JEET_St14__invoke_otherOT0_DpOT1_(ptr noundef nonnull align 1 dereferenceable(1) %4), !dbg !11485
  ret void, !dbg !11486
}

; Function Attrs: mustprogress noinline optnone uwtable
define linkonce_odr dso_local noundef ptr @_ZNSt14_Function_base13_Base_managerIZN5mongo8unittest4Test17RegistrationAgentINS2_9DeathTestINS1_90UnitTest_SuiteNameThreadSafetyContextTestTestNameCreateThreadsAfterForbidingMultiThreadingEEEEC1ENS1_10StringDataES9_S9_EUlvE_E14_M_get_pointerERKSt9_Any_data(ptr noundef nonnull align 8 dereferenceable(16) %0) #6 comdat align 2 !dbg !11487 {
  %2 = alloca ptr, align 8
  %3 = alloca ptr, align 8
  store ptr %0, ptr %2, align 8
  call void @llvm.dbg.declare(metadata ptr %2, metadata !11488, metadata !DIExpression()), !dbg !11489
  call void @llvm.dbg.declare(metadata ptr %3, metadata !11490, metadata !DIExpression()), !dbg !11493
  %4 = load ptr, ptr %2, align 8, !dbg !11494
  %5 = call noundef nonnull align 1 dereferenceable(1) ptr @_ZNKSt9_Any_data9_M_accessIZN5mongo8unittest4Test17RegistrationAgentINS2_9DeathTestINS1_90UnitTest_SuiteNameThreadSafetyContextTestTestNameCreateThreadsAfterForbidingMultiThreadingEEEEC1ENS1_10StringDataES9_S9_EUlvE_EERKT_v(ptr noundef nonnull align 8 dereferenceable(16) %4), !dbg !11495
  store ptr %5, ptr %3, align 8, !dbg !11493
  %6 = load ptr, ptr %3, align 8, !dbg !11496
  ret ptr %6, !dbg !11497
}

; Function Attrs: mustprogress noinline optnone uwtable
define linkonce_odr dso_local void @_ZSt13__invoke_implIvRZN5mongo8unittest4Test17RegistrationAgentINS1_9DeathTestINS0_90UnitTest_SuiteNameThreadSafetyContextTestTestNameCreateThreadsAfterForbidingMultiThreadingEEEEC1ENS0_10StringDataES8_S8_EUlvE_JEET_St14__invoke_otherOT0_DpOT1_(ptr noundef nonnull align 1 dereferenceable(1) %0) #6 comdat !dbg !11498 {
  %2 = alloca %"struct.std::__invoke_other", align 1
  %3 = alloca ptr, align 8
  call void @llvm.dbg.declare(metadata ptr %2, metadata !11503, metadata !DIExpression()), !dbg !11504
  store ptr %0, ptr %3, align 8
  call void @llvm.dbg.declare(metadata ptr %3, metadata !11505, metadata !DIExpression()), !dbg !11506
