; ModuleID = 'setjmp_test.cpp'
source_filename = "setjmp_test.cpp"
target datalayout = "e-m:e-p270:32:32-p271:32:32-p272:64:64-i64:64-f80:128-n8:16:32:64-S128"
target triple = "x86_64-unknown-linux-gnu"

module asm ".globl _ZSt21ios_base_library_initv"

%struct.sigaction = type { %union.anon.54, %struct.__sigset_t, i32, ptr }
%union.anon.54 = type { ptr }
%struct.__sigset_t = type { [16 x i64] }
%"class.std::basic_ostream" = type { ptr, %"class.std::basic_ios" }
%"class.std::basic_ios" = type { %"class.std::ios_base", ptr, i8, i8, ptr, ptr, ptr, ptr }
%"class.std::ios_base" = type { ptr, i64, i64, i32, i32, i32, ptr, %"struct.std::ios_base::_Words", [8 x %"struct.std::ios_base::_Words"], i32, ptr, %"class.std::locale" }
%"struct.std::ios_base::_Words" = type { ptr, i64 }
%"class.std::locale" = type { ptr }
%"struct.testing::internal::CodeLocation" = type <{ %"class.std::__cxx11::basic_string", i32, [4 x i8] }>
%"class.std::__cxx11::basic_string" = type { %"struct.std::__cxx11::basic_string<char>::_Alloc_hider", i64, %union.anon }
%"struct.std::__cxx11::basic_string<char>::_Alloc_hider" = type { ptr }
%union.anon = type { i64, [8 x i8] }
%"class.std::allocator" = type { i8 }
%"struct.std::forward_iterator_tag" = type { i8 }
%"class.testing::internal::GTestLog" = type { i32 }
%struct.__jmp_buf_tag = type { [8 x i64], i32, %struct.__sigset_t }
%"class.testing::AssertionResult" = type { i8, %"class.std::unique_ptr.18" }
%"class.std::unique_ptr.18" = type { %"struct.std::__uniq_ptr_data.19" }
%"struct.std::__uniq_ptr_data.19" = type { %"class.std::__uniq_ptr_impl.20" }
%"class.std::__uniq_ptr_impl.20" = type { %"class.std::tuple.21" }
%"class.std::tuple.21" = type { %"struct.std::_Tuple_impl.22" }
%"struct.std::_Tuple_impl.22" = type { %"struct.std::_Head_base.25" }
%"struct.std::_Head_base.25" = type { ptr }
%"class.testing::Message" = type { %"class.std::unique_ptr.26" }
%"class.std::unique_ptr.26" = type { %"struct.std::__uniq_ptr_data.27" }
%"struct.std::__uniq_ptr_data.27" = type { %"class.std::__uniq_ptr_impl.28" }
%"class.std::__uniq_ptr_impl.28" = type { %"class.std::tuple.29" }
%"class.std::tuple.29" = type { %"struct.std::_Tuple_impl.30" }
%"struct.std::_Tuple_impl.30" = type { %"struct.std::_Head_base.33" }
%"struct.std::_Head_base.33" = type { ptr }
%"class.testing::internal::AssertHelper" = type { ptr }
%class.SignalMaskRestorer = type { %struct.__sigset_t }
%struct.SigSets = type { %struct.__sigset_t, %struct.__sigset_t }
%"class.testing::Matcher" = type { %"class.testing::internal::MatcherBase" }
%"class.testing::internal::MatcherBase" = type { ptr, %"class.std::shared_ptr" }
%"class.std::shared_ptr" = type { %"class.std::__shared_ptr" }
%"class.std::__shared_ptr" = type { ptr, %"class.std::__shared_count" }
%"class.std::__shared_count" = type { ptr }
%"class.std::unique_ptr.43" = type { %"struct.std::__uniq_ptr_data.44" }
%"struct.std::__uniq_ptr_data.44" = type { %"class.std::__uniq_ptr_impl.45" }
%"class.std::__uniq_ptr_impl.45" = type { %"class.std::tuple.46" }
%"class.std::tuple.46" = type { %"struct.std::_Tuple_impl.47" }
%"struct.std::_Tuple_impl.47" = type { %"struct.std::_Head_base.50" }
%"struct.std::_Head_base.50" = type { ptr }
%"class.testing::internal::DeathTest::ReturnSentinel" = type { ptr }
%"class.testing::PolymorphicMatcher" = type { %"class.testing::internal::MatchesRegexMatcher" }
%"class.testing::internal::MatchesRegexMatcher" = type <{ %"class.std::shared_ptr.68", i8, [7 x i8] }>
%"class.std::shared_ptr.68" = type { %"class.std::__shared_ptr.69" }
%"class.std::__shared_ptr.69" = type { ptr, %"class.std::__shared_count" }
%class.anon = type { i8 }
%class.anon.64 = type { i8 }
%class.anon.72 = type { i8 }
%"class.testing::internal::RE" = type { ptr, i8, %struct.re_pattern_buffer, %struct.re_pattern_buffer }
%struct.re_pattern_buffer = type { ptr, i64, i64, i64, ptr, ptr, i64, i8 }
%"class.std::_Sp_counted_base" = type { ptr, i32, i32 }
%"struct.std::integral_constant" = type { i8 }
%"class.std::_Sp_counted_ptr" = type { %"class.std::_Sp_counted_base", ptr }
%"class.testing::PolymorphicMatcher<testing::internal::MatchesRegexMatcher>::MonomorphicImpl" = type { %"class.testing::MatcherInterface", %"class.testing::internal::MatchesRegexMatcher" }
%"class.testing::MatcherInterface" = type { %"class.testing::MatcherDescriberInterface" }
%"class.testing::MatcherDescriberInterface" = type { ptr }
%"class.std::_Sp_counted_ptr.71" = type { %"class.std::_Sp_counted_base", ptr }
%struct._Guard = type { ptr }
%"class.std::__cxx11::basic_stringstream" = type { %"class.std::basic_iostream.base", %"class.std::__cxx11::basic_stringbuf", %"class.std::basic_ios" }
%"class.std::basic_iostream.base" = type { %"class.std::basic_istream.base", %"class.std::basic_ostream.base" }
%"class.std::basic_istream.base" = type { ptr, i64 }
%"class.std::basic_ostream.base" = type { ptr }
%"class.std::__cxx11::basic_stringbuf" = type { %"class.std::basic_streambuf", i32, %"class.std::__cxx11::basic_string" }
%"class.std::basic_streambuf" = type { ptr, ptr, ptr, ptr, ptr, ptr, ptr, %"class.std::locale" }
%"struct.testing::internal::WrapPrinterType" = type { i8 }

$_ZNSt7__cxx1112basic_stringIcSt11char_traitsIcESaIcEEC2IS3_EEPKcRKS3_ = comdat any

$_ZN7testing8internal12CodeLocationC2ERKNSt7__cxx1112basic_stringIcSt11char_traitsIcESaIcEEEi = comdat any

$_ZN7testing8internal16SuiteApiResolverINS_4TestEE19GetSetUpCaseOrSuiteEPKci = comdat any

$_ZN7testing8internal16SuiteApiResolverINS_4TestEE22GetTearDownCaseOrSuiteEPKci = comdat any

$_ZN7testing8internal15TestFactoryImplI24setjmp_setjmp_smoke_TestEC2Ev = comdat any

$_ZN7testing8internal12CodeLocationD2Ev = comdat any

$_ZN7testing8internal8EqHelper7CompareIiiLPv0EEENS_15AssertionResultEPKcS6_RKT_RKT0_ = comdat any

$_ZNK7testing15AssertionResultcvbEv = comdat any

$_ZNK7testing15AssertionResult15failure_messageEv = comdat any

$_ZN7testing7MessageD2Ev = comdat any

$_ZN7testing15AssertionResultD2Ev = comdat any

$_ZN7testing8internal15TestFactoryImplI25setjmp__setjmp_smoke_TestEC2Ev = comdat any

$_ZN7testing8internal15TestFactoryImplI29setjmp_sigsetjmp_0_smoke_TestEC2Ev = comdat any

$_ZN7testing8internal15TestFactoryImplI29setjmp_sigsetjmp_1_smoke_TestEC2Ev = comdat any

$_ZN7testing7MessagelsImEERS0_RKT_ = comdat any

$_ZN7testing8internal15TestFactoryImplI31setjmp__setjmp_signal_mask_TestEC2Ev = comdat any

$_ZN18SignalMaskRestorerC2Ev = comdat any

$_ZN7SigSetsC2Ev = comdat any

$_ZN18SignalMaskRestorerD2Ev = comdat any

$_ZN7testing8internal15TestFactoryImplI30setjmp_setjmp_signal_mask_TestEC2Ev = comdat any

$_ZN7testing8internal15TestFactoryImplI35setjmp_sigsetjmp_0_signal_mask_TestEC2Ev = comdat any

$_ZN7testing8internal15TestFactoryImplI35setjmp_sigsetjmp_1_signal_mask_TestEC2Ev = comdat any

$_ZN7testing8internal15TestFactoryImplI31setjmp_setjmp_fp_registers_TestEC2Ev = comdat any

$_ZN7testing8internal9GetTypeIdI15SilentDeathTestEEPKvv = comdat any

$_ZN7testing8internal16SuiteApiResolverI15SilentDeathTestE19GetSetUpCaseOrSuiteEPKci = comdat any

$_ZN7testing8internal16SuiteApiResolverI15SilentDeathTestE22GetTearDownCaseOrSuiteEPKci = comdat any

$_ZN7testing8internal15TestFactoryImplI35setjmp_DeathTest_setjmp_cookie_TestEC2Ev = comdat any

$_ZN7testing8internal11CmpHelperNEIilEENS_15AssertionResultEPKcS4_RKT_RKT0_ = comdat any

$_ZN7testing8internal20MakeDeathTestMatcherB5cxx11EPKc = comdat any

$_ZN7testing7MatcherIRKNSt7__cxx1112basic_stringIcSt11char_traitsIcESaIcEEEED2Ev = comdat any

$_ZNSt10unique_ptrIN7testing8internal9DeathTestESt14default_deleteIS2_EEC2IS4_vEEPS2_ = comdat any

$_ZN7testing8internal9DeathTest14ReturnSentinelC2EPS1_ = comdat any

$__clang_call_terminate = comdat any

$_ZN7testing8internal9DeathTest14ReturnSentinelD2Ev = comdat any

$_ZNSt10unique_ptrIN7testing8internal9DeathTestESt14default_deleteIS2_EED2Ev = comdat any

$_ZN7testing8internal15TestFactoryImplI44setjmp_DeathTest_setjmp_cookie_checksum_TestEC2Ev = comdat any

$_ZN7testing8internal15TestFactoryImplI24setjmp_setjmp_stack_TestEC2Ev = comdat any

$_ZN7testing8internal15TestFactoryImplI25setjmp_bug_152210274_TestEC2Ev = comdat any

$_ZN24setjmp_setjmp_smoke_TestD2Ev = comdat any

$_ZN24setjmp_setjmp_smoke_TestD0Ev = comdat any

$_ZN7testing4Test5SetupEv = comdat any

$_ZN25setjmp__setjmp_smoke_TestD2Ev = comdat any

$_ZN25setjmp__setjmp_smoke_TestD0Ev = comdat any

$_ZN29setjmp_sigsetjmp_0_smoke_TestD2Ev = comdat any

$_ZN29setjmp_sigsetjmp_0_smoke_TestD0Ev = comdat any

$_ZN29setjmp_sigsetjmp_1_smoke_TestD2Ev = comdat any

$_ZN29setjmp_sigsetjmp_1_smoke_TestD0Ev = comdat any

$_ZN31setjmp__setjmp_signal_mask_TestD2Ev = comdat any

$_ZN31setjmp__setjmp_signal_mask_TestD0Ev = comdat any

$_ZN30setjmp_setjmp_signal_mask_TestD2Ev = comdat any

$_ZN30setjmp_setjmp_signal_mask_TestD0Ev = comdat any

$_ZN35setjmp_sigsetjmp_0_signal_mask_TestD2Ev = comdat any

$_ZN35setjmp_sigsetjmp_0_signal_mask_TestD0Ev = comdat any

$_ZN35setjmp_sigsetjmp_1_signal_mask_TestD2Ev = comdat any

$_ZN35setjmp_sigsetjmp_1_signal_mask_TestD0Ev = comdat any

$_ZN31setjmp_setjmp_fp_registers_TestD2Ev = comdat any

$_ZN31setjmp_setjmp_fp_registers_TestD0Ev = comdat any

$_ZN35setjmp_DeathTest_setjmp_cookie_TestD2Ev = comdat any

$_ZN35setjmp_DeathTest_setjmp_cookie_TestD0Ev = comdat any

$_ZN44setjmp_DeathTest_setjmp_cookie_checksum_TestD2Ev = comdat any

$_ZN44setjmp_DeathTest_setjmp_cookie_checksum_TestD0Ev = comdat any

$_ZN24setjmp_setjmp_stack_TestD2Ev = comdat any

$_ZN24setjmp_setjmp_stack_TestD0Ev = comdat any

$_ZN25setjmp_bug_152210274_TestD2Ev = comdat any

$_ZN25setjmp_bug_152210274_TestD0Ev = comdat any

$_ZN7testing8internal15TestFactoryBaseC2Ev = comdat any

$_ZN7testing8internal15TestFactoryImplI24setjmp_setjmp_smoke_TestED2Ev = comdat any

$_ZN7testing8internal15TestFactoryImplI24setjmp_setjmp_smoke_TestED0Ev = comdat any

$_ZN7testing8internal15TestFactoryImplI24setjmp_setjmp_smoke_TestE10CreateTestEv = comdat any

$_ZN7testing8internal15TestFactoryBaseD2Ev = comdat any

$_ZN7testing8internal15TestFactoryBaseD0Ev = comdat any

$_ZN24setjmp_setjmp_smoke_TestC2Ev = comdat any

$_ZNK7testing15AssertionResult7messageEv = comdat any

$_ZNKSt10unique_ptrINSt7__cxx1112basic_stringIcSt11char_traitsIcESaIcEEESt14default_deleteIS5_EE3getEv = comdat any

$_ZNKSt10unique_ptrINSt7__cxx1112basic_stringIcSt11char_traitsIcESaIcEEESt14default_deleteIS5_EEptEv = comdat any

$_ZNKSt15__uniq_ptr_implINSt7__cxx1112basic_stringIcSt11char_traitsIcESaIcEEESt14default_deleteIS5_EE6_M_ptrEv = comdat any

$_ZSt3getILm0EJPNSt7__cxx1112basic_stringIcSt11char_traitsIcESaIcEEESt14default_deleteIS5_EEERKNSt13tuple_elementIXT_ESt5tupleIJDpT0_EEE4typeERKSD_ = comdat any

$_ZSt12__get_helperILm0EPNSt7__cxx1112basic_stringIcSt11char_traitsIcESaIcEEEJSt14default_deleteIS5_EEERKT0_RKSt11_Tuple_implIXT_EJS9_DpT1_EE = comdat any

$_ZNSt11_Tuple_implILm0EJPNSt7__cxx1112basic_stringIcSt11char_traitsIcESaIcEEESt14default_deleteIS5_EEE7_M_headERKS9_ = comdat any

$_ZNSt10_Head_baseILm0EPNSt7__cxx1112basic_stringIcSt11char_traitsIcESaIcEEELb0EE7_M_headERKS7_ = comdat any

$_ZNSt10unique_ptrINSt7__cxx1118basic_stringstreamIcSt11char_traitsIcESaIcEEESt14default_deleteIS5_EED2Ev = comdat any

$_ZNSt15__uniq_ptr_implINSt7__cxx1118basic_stringstreamIcSt11char_traitsIcESaIcEEESt14default_deleteIS5_EE6_M_ptrEv = comdat any

$_ZNSt10unique_ptrINSt7__cxx1118basic_stringstreamIcSt11char_traitsIcESaIcEEESt14default_deleteIS5_EE11get_deleterEv = comdat any

$_ZNKSt14default_deleteINSt7__cxx1118basic_stringstreamIcSt11char_traitsIcESaIcEEEEclEPS5_ = comdat any

$_ZSt3getILm0EJPNSt7__cxx1118basic_stringstreamIcSt11char_traitsIcESaIcEEESt14default_deleteIS5_EEERNSt13tuple_elementIXT_ESt5tupleIJDpT0_EEE4typeERSD_ = comdat any

$_ZSt12__get_helperILm0EPNSt7__cxx1118basic_stringstreamIcSt11char_traitsIcESaIcEEEJSt14default_deleteIS5_EEERT0_RSt11_Tuple_implIXT_EJS9_DpT1_EE = comdat any

$_ZNSt11_Tuple_implILm0EJPNSt7__cxx1118basic_stringstreamIcSt11char_traitsIcESaIcEEESt14default_deleteIS5_EEE7_M_headERS9_ = comdat any

$_ZNSt10_Head_baseILm0EPNSt7__cxx1118basic_stringstreamIcSt11char_traitsIcESaIcEEELb0EE7_M_headERS7_ = comdat any

$_ZNSt15__uniq_ptr_implINSt7__cxx1118basic_stringstreamIcSt11char_traitsIcESaIcEEESt14default_deleteIS5_EE10_M_deleterEv = comdat any

$_ZSt3getILm1EJPNSt7__cxx1118basic_stringstreamIcSt11char_traitsIcESaIcEEESt14default_deleteIS5_EEERNSt13tuple_elementIXT_ESt5tupleIJDpT0_EEE4typeERSD_ = comdat any

$_ZSt12__get_helperILm1ESt14default_deleteINSt7__cxx1118basic_stringstreamIcSt11char_traitsIcESaIcEEEEJEERT0_RSt11_Tuple_implIXT_EJS8_DpT1_EE = comdat any

$_ZNSt11_Tuple_implILm1EJSt14default_deleteINSt7__cxx1118basic_stringstreamIcSt11char_traitsIcESaIcEEEEEE7_M_headERS8_ = comdat any

$_ZNSt10_Head_baseILm1ESt14default_deleteINSt7__cxx1118basic_stringstreamIcSt11char_traitsIcESaIcEEEELb1EE7_M_headERS8_ = comdat any

$_ZNSt10unique_ptrINSt7__cxx1112basic_stringIcSt11char_traitsIcESaIcEEESt14default_deleteIS5_EED2Ev = comdat any

$_ZNSt15__uniq_ptr_implINSt7__cxx1112basic_stringIcSt11char_traitsIcESaIcEEESt14default_deleteIS5_EE6_M_ptrEv = comdat any

$_ZNSt10unique_ptrINSt7__cxx1112basic_stringIcSt11char_traitsIcESaIcEEESt14default_deleteIS5_EE11get_deleterEv = comdat any

$_ZNKSt14default_deleteINSt7__cxx1112basic_stringIcSt11char_traitsIcESaIcEEEEclEPS5_ = comdat any

$_ZSt3getILm0EJPNSt7__cxx1112basic_stringIcSt11char_traitsIcESaIcEEESt14default_deleteIS5_EEERNSt13tuple_elementIXT_ESt5tupleIJDpT0_EEE4typeERSD_ = comdat any

$_ZSt12__get_helperILm0EPNSt7__cxx1112basic_stringIcSt11char_traitsIcESaIcEEEJSt14default_deleteIS5_EEERT0_RSt11_Tuple_implIXT_EJS9_DpT1_EE = comdat any

$_ZNSt11_Tuple_implILm0EJPNSt7__cxx1112basic_stringIcSt11char_traitsIcESaIcEEESt14default_deleteIS5_EEE7_M_headERS9_ = comdat any

$_ZNSt10_Head_baseILm0EPNSt7__cxx1112basic_stringIcSt11char_traitsIcESaIcEEELb0EE7_M_headERS7_ = comdat any

$_ZNSt15__uniq_ptr_implINSt7__cxx1112basic_stringIcSt11char_traitsIcESaIcEEESt14default_deleteIS5_EE10_M_deleterEv = comdat any

$_ZSt3getILm1EJPNSt7__cxx1112basic_stringIcSt11char_traitsIcESaIcEEESt14default_deleteIS5_EEERNSt13tuple_elementIXT_ESt5tupleIJDpT0_EEE4typeERSD_ = comdat any

$_ZSt12__get_helperILm1ESt14default_deleteINSt7__cxx1112basic_stringIcSt11char_traitsIcESaIcEEEEJEERT0_RSt11_Tuple_implIXT_EJS8_DpT1_EE = comdat any

$_ZNSt11_Tuple_implILm1EJSt14default_deleteINSt7__cxx1112basic_stringIcSt11char_traitsIcESaIcEEEEEE7_M_headERS8_ = comdat any

$_ZNSt10_Head_baseILm1ESt14default_deleteINSt7__cxx1112basic_stringIcSt11char_traitsIcESaIcEEEELb1EE7_M_headERS8_ = comdat any

$_ZN7testing8internal15TestFactoryImplI25setjmp__setjmp_smoke_TestED2Ev = comdat any

$_ZN7testing8internal15TestFactoryImplI25setjmp__setjmp_smoke_TestED0Ev = comdat any

$_ZN7testing8internal15TestFactoryImplI25setjmp__setjmp_smoke_TestE10CreateTestEv = comdat any

$_ZN25setjmp__setjmp_smoke_TestC2Ev = comdat any

$_ZN7testing8internal15TestFactoryImplI29setjmp_sigsetjmp_0_smoke_TestED2Ev = comdat any

$_ZN7testing8internal15TestFactoryImplI29setjmp_sigsetjmp_0_smoke_TestED0Ev = comdat any

$_ZN7testing8internal15TestFactoryImplI29setjmp_sigsetjmp_0_smoke_TestE10CreateTestEv = comdat any

$_ZN29setjmp_sigsetjmp_0_smoke_TestC2Ev = comdat any

$_ZN7testing8internal15TestFactoryImplI29setjmp_sigsetjmp_1_smoke_TestED2Ev = comdat any

$_ZN7testing8internal15TestFactoryImplI29setjmp_sigsetjmp_1_smoke_TestED0Ev = comdat any

$_ZN7testing8internal15TestFactoryImplI29setjmp_sigsetjmp_1_smoke_TestE10CreateTestEv = comdat any

$_ZN29setjmp_sigsetjmp_1_smoke_TestC2Ev = comdat any

$_ZN7testing8internal15TestFactoryImplI31setjmp__setjmp_signal_mask_TestED2Ev = comdat any

$_ZN7testing8internal15TestFactoryImplI31setjmp__setjmp_signal_mask_TestED0Ev = comdat any

$_ZN7testing8internal15TestFactoryImplI31setjmp__setjmp_signal_mask_TestE10CreateTestEv = comdat any

$_ZN31setjmp__setjmp_signal_mask_TestC2Ev = comdat any

$_ZN7SigSets10MakeSigSetEi = comdat any

$_ZN7testing8internal15TestFactoryImplI30setjmp_setjmp_signal_mask_TestED2Ev = comdat any

$_ZN7testing8internal15TestFactoryImplI30setjmp_setjmp_signal_mask_TestED0Ev = comdat any

$_ZN7testing8internal15TestFactoryImplI30setjmp_setjmp_signal_mask_TestE10CreateTestEv = comdat any

$_ZN30setjmp_setjmp_signal_mask_TestC2Ev = comdat any

$_ZN7testing8internal15TestFactoryImplI35setjmp_sigsetjmp_0_signal_mask_TestED2Ev = comdat any

$_ZN7testing8internal15TestFactoryImplI35setjmp_sigsetjmp_0_signal_mask_TestED0Ev = comdat any

$_ZN7testing8internal15TestFactoryImplI35setjmp_sigsetjmp_0_signal_mask_TestE10CreateTestEv = comdat any

$_ZN35setjmp_sigsetjmp_0_signal_mask_TestC2Ev = comdat any

$_ZN7testing8internal15TestFactoryImplI35setjmp_sigsetjmp_1_signal_mask_TestED2Ev = comdat any

$_ZN7testing8internal15TestFactoryImplI35setjmp_sigsetjmp_1_signal_mask_TestED0Ev = comdat any

$_ZN7testing8internal15TestFactoryImplI35setjmp_sigsetjmp_1_signal_mask_TestE10CreateTestEv = comdat any

$_ZN35setjmp_sigsetjmp_1_signal_mask_TestC2Ev = comdat any

$_ZN7testing8internal15TestFactoryImplI31setjmp_setjmp_fp_registers_TestED2Ev = comdat any

$_ZN7testing8internal15TestFactoryImplI31setjmp_setjmp_fp_registers_TestED0Ev = comdat any

$_ZN7testing8internal15TestFactoryImplI31setjmp_setjmp_fp_registers_TestE10CreateTestEv = comdat any

$_ZN31setjmp_setjmp_fp_registers_TestC2Ev = comdat any

$_ZN7testing8internal15TestFactoryImplI35setjmp_DeathTest_setjmp_cookie_TestED2Ev = comdat any

$_ZN7testing8internal15TestFactoryImplI35setjmp_DeathTest_setjmp_cookie_TestED0Ev = comdat any

$_ZN7testing8internal15TestFactoryImplI35setjmp_DeathTest_setjmp_cookie_TestE10CreateTestEv = comdat any

$_ZN35setjmp_DeathTest_setjmp_cookie_TestC2Ev = comdat any

$_ZN15SilentDeathTestC2Ev = comdat any

$_ZN15SilentDeathTestD2Ev = comdat any

$_ZN15SilentDeathTestD0Ev = comdat any

$_ZN7testing13ContainsRegexERKNSt7__cxx1112basic_stringIcSt11char_traitsIcESaIcEEE = comdat any

$_ZNK7testing18PolymorphicMatcherINS_8internal19MatchesRegexMatcherEEcvNS_7MatcherIT_EEIRKNSt7__cxx1112basic_stringIcSt11char_traitsIcESaIcEEEEEv = comdat any

$_ZN7testing18PolymorphicMatcherINS_8internal19MatchesRegexMatcherEED2Ev = comdat any

$_ZN7testing13ContainsRegexEPKNS_8internal2REE = comdat any

$_ZN7testing8internal2REC2ERKNSt7__cxx1112basic_stringIcSt11char_traitsIcESaIcEEE = comdat any

$_ZN7testing22MakePolymorphicMatcherINS_8internal19MatchesRegexMatcherEEENS_18PolymorphicMatcherIT_EERKS4_ = comdat any

$_ZN7testing8internal19MatchesRegexMatcherC2EPKNS0_2REEb = comdat any

$_ZN7testing8internal19MatchesRegexMatcherD2Ev = comdat any

$_ZN7testing18PolymorphicMatcherINS_8internal19MatchesRegexMatcherEEC2ERKS2_ = comdat any

$_ZN7testing8internal19MatchesRegexMatcherC2ERKS1_ = comdat any

$_ZNSt10shared_ptrIKN7testing8internal2REEEC2ERKS4_ = comdat any

$_ZNSt12__shared_ptrIKN7testing8internal2REELN9__gnu_cxx12_Lock_policyE2EEC2ERKS6_ = comdat any

$_ZNSt14__shared_countILN9__gnu_cxx12_Lock_policyE2EEC2ERKS2_ = comdat any

$_ZNSt16_Sp_counted_baseILN9__gnu_cxx12_Lock_policyE2EE15_M_add_ref_copyEv = comdat any

$_ZNSt10shared_ptrIKN7testing8internal2REEEC2IS3_vEEPT_ = comdat any

$_ZNSt12__shared_ptrIKN7testing8internal2REELN9__gnu_cxx12_Lock_policyE2EEC2IS3_vEEPT_ = comdat any

$_ZNSt14__shared_countILN9__gnu_cxx12_Lock_policyE2EEC2IPKN7testing8internal2REEEET_St17integral_constantIbLb0EE = comdat any

$_ZNSt12__shared_ptrIKN7testing8internal2REELN9__gnu_cxx12_Lock_policyE2EE31_M_enable_shared_from_this_withIS3_S2_EENSt9enable_ifIXntsr15__has_esft_baseIT0_EE5valueEvE4typeEPT_ = comdat any

$_ZNSt14__shared_countILN9__gnu_cxx12_Lock_policyE2EEC2IPKN7testing8internal2REEEET_ = comdat any

$_ZNSt15_Sp_counted_ptrIPKN7testing8internal2REELN9__gnu_cxx12_Lock_policyE2EEC2ES4_ = comdat any

$_ZNSt16_Sp_counted_baseILN9__gnu_cxx12_Lock_policyE2EEC2Ev = comdat any

$_ZNSt15_Sp_counted_ptrIPKN7testing8internal2REELN9__gnu_cxx12_Lock_policyE2EED2Ev = comdat any

$_ZNSt15_Sp_counted_ptrIPKN7testing8internal2REELN9__gnu_cxx12_Lock_policyE2EED0Ev = comdat any

$_ZNSt15_Sp_counted_ptrIPKN7testing8internal2REELN9__gnu_cxx12_Lock_policyE2EE10_M_disposeEv = comdat any

$_ZNSt15_Sp_counted_ptrIPKN7testing8internal2REELN9__gnu_cxx12_Lock_policyE2EE10_M_destroyEv = comdat any

$_ZNSt15_Sp_counted_ptrIPKN7testing8internal2REELN9__gnu_cxx12_Lock_policyE2EE14_M_get_deleterERKSt9type_info = comdat any

$_ZNSt16_Sp_counted_baseILN9__gnu_cxx12_Lock_policyE2EED2Ev = comdat any

$_ZNSt16_Sp_counted_baseILN9__gnu_cxx12_Lock_policyE2EED0Ev = comdat any

$_ZNSt16_Sp_counted_baseILN9__gnu_cxx12_Lock_policyE2EE10_M_destroyEv = comdat any

$_ZNSt10shared_ptrIKN7testing8internal2REEED2Ev = comdat any

$_ZNSt12__shared_ptrIKN7testing8internal2REELN9__gnu_cxx12_Lock_policyE2EED2Ev = comdat any

$_ZNSt14__shared_countILN9__gnu_cxx12_Lock_policyE2EED2Ev = comdat any

$_ZNSt16_Sp_counted_baseILN9__gnu_cxx12_Lock_policyE2EE10_M_releaseEv = comdat any

$_ZNSt16_Sp_counted_baseILN9__gnu_cxx12_Lock_policyE2EE24_M_release_last_use_coldEv = comdat any

$_ZNSt16_Sp_counted_baseILN9__gnu_cxx12_Lock_policyE2EE19_M_release_last_useEv = comdat any

$_ZN7testing18PolymorphicMatcherINS_8internal19MatchesRegexMatcherEE15MonomorphicImplIRKNSt7__cxx1112basic_stringIcSt11char_traitsIcESaIcEEEEC2ERKS2_ = comdat any

$_ZN7testing7MatcherIRKNSt7__cxx1112basic_stringIcSt11char_traitsIcESaIcEEEEC2EPKNS_16MatcherInterfaceIS8_EE = comdat any

$_ZN7testing16MatcherInterfaceIRKNSt7__cxx1112basic_stringIcSt11char_traitsIcESaIcEEEEC2Ev = comdat any

$_ZN7testing18PolymorphicMatcherINS_8internal19MatchesRegexMatcherEE15MonomorphicImplIRKNSt7__cxx1112basic_stringIcSt11char_traitsIcESaIcEEEED2Ev = comdat any

$_ZN7testing18PolymorphicMatcherINS_8internal19MatchesRegexMatcherEE15MonomorphicImplIRKNSt7__cxx1112basic_stringIcSt11char_traitsIcESaIcEEEED0Ev = comdat any

$_ZNK7testing18PolymorphicMatcherINS_8internal19MatchesRegexMatcherEE15MonomorphicImplIRKNSt7__cxx1112basic_stringIcSt11char_traitsIcESaIcEEEE10DescribeToEPSo = comdat any

$_ZNK7testing18PolymorphicMatcherINS_8internal19MatchesRegexMatcherEE15MonomorphicImplIRKNSt7__cxx1112basic_stringIcSt11char_traitsIcESaIcEEEE18DescribeNegationToEPSo = comdat any

$_ZNK7testing18PolymorphicMatcherINS_8internal19MatchesRegexMatcherEE15MonomorphicImplIRKNSt7__cxx1112basic_stringIcSt11char_traitsIcESaIcEEEE15MatchAndExplainESC_PNS_19MatchResultListenerE = comdat any

$_ZN7testing25MatcherDescriberInterfaceC2Ev = comdat any

$_ZN7testing16MatcherInterfaceIRKNSt7__cxx1112basic_stringIcSt11char_traitsIcESaIcEEEED2Ev = comdat any

$_ZN7testing16MatcherInterfaceIRKNSt7__cxx1112basic_stringIcSt11char_traitsIcESaIcEEEED0Ev = comdat any

$_ZNK7testing25MatcherDescriberInterface18DescribeNegationToEPSo = comdat any

$_ZN7testing25MatcherDescriberInterfaceD2Ev = comdat any

$_ZN7testing25MatcherDescriberInterfaceD0Ev = comdat any

$_ZNK7testing8internal19MatchesRegexMatcher10DescribeToEPSo = comdat any

$_ZN7testing8internal16UniversalPrinterINSt7__cxx1112basic_stringIcSt11char_traitsIcESaIcEEEE5PrintERKS7_PSo = comdat any

$_ZNKSt19__shared_ptr_accessIKN7testing8internal2REELN9__gnu_cxx12_Lock_policyE2ELb0ELb0EEptEv = comdat any

$_ZNK7testing8internal2RE7patternEv = comdat any

$_ZN7testing8internal7PrintToERKNSt7__cxx1112basic_stringIcSt11char_traitsIcESaIcEEEPSo = comdat any

$_ZNKSt19__shared_ptr_accessIKN7testing8internal2REELN9__gnu_cxx12_Lock_policyE2ELb0ELb0EE6_M_getEv = comdat any

$_ZNKSt12__shared_ptrIKN7testing8internal2REELN9__gnu_cxx12_Lock_policyE2EE3getEv = comdat any

$_ZNK7testing8internal19MatchesRegexMatcher18DescribeNegationToEPSo = comdat any

$_ZNK7testing8internal19MatchesRegexMatcher15MatchAndExplainINSt7__cxx1112basic_stringIcSt11char_traitsIcESaIcEEEEEbRKT_PNS_19MatchResultListenerE = comdat any

$_ZN7testing8internal2RE9FullMatchERKNSt7__cxx1112basic_stringIcSt11char_traitsIcESaIcEEERKS1_ = comdat any

$_ZNKSt19__shared_ptr_accessIKN7testing8internal2REELN9__gnu_cxx12_Lock_policyE2ELb0ELb0EEdeEv = comdat any

$_ZN7testing8internal2RE12PartialMatchERKNSt7__cxx1112basic_stringIcSt11char_traitsIcESaIcEEERKS1_ = comdat any

$_ZN7testing8internal11MatcherBaseIRKNSt7__cxx1112basic_stringIcSt11char_traitsIcESaIcEEEEC2EPKNS_16MatcherInterfaceIS9_EE = comdat any

$_ZN7testing7MatcherIRKNSt7__cxx1112basic_stringIcSt11char_traitsIcESaIcEEEED0Ev = comdat any

$_ZNSt10shared_ptrIKN7testing16MatcherInterfaceIRKNSt7__cxx1112basic_stringIcSt11char_traitsIcESaIcEEEEEEC2ISB_vEEPT_ = comdat any

$_ZN7testing8internal11MatcherBaseIRKNSt7__cxx1112basic_stringIcSt11char_traitsIcESaIcEEEED2Ev = comdat any

$_ZN7testing8internal11MatcherBaseIRKNSt7__cxx1112basic_stringIcSt11char_traitsIcESaIcEEEED0Ev = comdat any

$_ZNSt12__shared_ptrIKN7testing16MatcherInterfaceIRKNSt7__cxx1112basic_stringIcSt11char_traitsIcESaIcEEEEELN9__gnu_cxx12_Lock_policyE2EEC2ISB_vEEPT_ = comdat any

$_ZNSt14__shared_countILN9__gnu_cxx12_Lock_policyE2EEC2IPKN7testing16MatcherInterfaceIRKNSt7__cxx1112basic_stringIcSt11char_traitsIcESaIcEEEEEEET_St17integral_constantIbLb0EE = comdat any

$_ZNSt12__shared_ptrIKN7testing16MatcherInterfaceIRKNSt7__cxx1112basic_stringIcSt11char_traitsIcESaIcEEEEELN9__gnu_cxx12_Lock_policyE2EE31_M_enable_shared_from_this_withISB_SA_EENSt9enable_ifIXntsr15__has_esft_baseIT0_EE5valueEvE4typeEPT_ = comdat any

$_ZNSt14__shared_countILN9__gnu_cxx12_Lock_policyE2EEC2IPKN7testing16MatcherInterfaceIRKNSt7__cxx1112basic_stringIcSt11char_traitsIcESaIcEEEEEEET_ = comdat any

$_ZNSt15_Sp_counted_ptrIPKN7testing16MatcherInterfaceIRKNSt7__cxx1112basic_stringIcSt11char_traitsIcESaIcEEEEELN9__gnu_cxx12_Lock_policyE2EEC2ESC_ = comdat any

$_ZNSt15_Sp_counted_ptrIPKN7testing16MatcherInterfaceIRKNSt7__cxx1112basic_stringIcSt11char_traitsIcESaIcEEEEELN9__gnu_cxx12_Lock_policyE2EED2Ev = comdat any

$_ZNSt15_Sp_counted_ptrIPKN7testing16MatcherInterfaceIRKNSt7__cxx1112basic_stringIcSt11char_traitsIcESaIcEEEEELN9__gnu_cxx12_Lock_policyE2EED0Ev = comdat any

$_ZNSt15_Sp_counted_ptrIPKN7testing16MatcherInterfaceIRKNSt7__cxx1112basic_stringIcSt11char_traitsIcESaIcEEEEELN9__gnu_cxx12_Lock_policyE2EE10_M_disposeEv = comdat any

$_ZNSt15_Sp_counted_ptrIPKN7testing16MatcherInterfaceIRKNSt7__cxx1112basic_stringIcSt11char_traitsIcESaIcEEEEELN9__gnu_cxx12_Lock_policyE2EE10_M_destroyEv = comdat any

$_ZNSt15_Sp_counted_ptrIPKN7testing16MatcherInterfaceIRKNSt7__cxx1112basic_stringIcSt11char_traitsIcESaIcEEEEELN9__gnu_cxx12_Lock_policyE2EE14_M_get_deleterERKSt9type_info = comdat any

$_ZNSt10shared_ptrIKN7testing16MatcherInterfaceIRKNSt7__cxx1112basic_stringIcSt11char_traitsIcESaIcEEEEEED2Ev = comdat any

$_ZNSt12__shared_ptrIKN7testing16MatcherInterfaceIRKNSt7__cxx1112basic_stringIcSt11char_traitsIcESaIcEEEEELN9__gnu_cxx12_Lock_policyE2EED2Ev = comdat any

$_ZN7testing8internal15TestFactoryImplI44setjmp_DeathTest_setjmp_cookie_checksum_TestED2Ev = comdat any

$_ZN7testing8internal15TestFactoryImplI44setjmp_DeathTest_setjmp_cookie_checksum_TestED0Ev = comdat any

$_ZN7testing8internal15TestFactoryImplI44setjmp_DeathTest_setjmp_cookie_checksum_TestE10CreateTestEv = comdat any

$_ZN44setjmp_DeathTest_setjmp_cookie_checksum_TestC2Ev = comdat any

$_ZN7testing8internal15TestFactoryImplI24setjmp_setjmp_stack_TestED2Ev = comdat any

$_ZN7testing8internal15TestFactoryImplI24setjmp_setjmp_stack_TestED0Ev = comdat any

$_ZN7testing8internal15TestFactoryImplI24setjmp_setjmp_stack_TestE10CreateTestEv = comdat any

$_ZN24setjmp_setjmp_stack_TestC2Ev = comdat any

$_ZN7testing8internal15TestFactoryImplI25setjmp_bug_152210274_TestED2Ev = comdat any

$_ZN7testing8internal15TestFactoryImplI25setjmp_bug_152210274_TestED0Ev = comdat any

$_ZN7testing8internal15TestFactoryImplI25setjmp_bug_152210274_TestE10CreateTestEv = comdat any

$_ZN25setjmp_bug_152210274_TestC2Ev = comdat any

$_ZNSt15__new_allocatorIcED2Ev = comdat any

$_ZNSt11char_traitsIcE6lengthEPKc = comdat any

$_ZNSt7__cxx1112basic_stringIcSt11char_traitsIcESaIcEE12_M_constructIPKcEEvT_S8_St20forward_iterator_tag = comdat any

$_ZNSt7__cxx1112basic_stringIcSt11char_traitsIcESaIcEE12_Alloc_hiderD2Ev = comdat any

$_ZZNSt7__cxx1112basic_stringIcSt11char_traitsIcESaIcEE12_M_constructIPKcEEvT_S8_St20forward_iterator_tagEN6_GuardC2EPS4_ = comdat any

$_ZZNSt7__cxx1112basic_stringIcSt11char_traitsIcESaIcEE12_M_constructIPKcEEvT_S8_St20forward_iterator_tagEN6_GuardD2Ev = comdat any

$_ZN7testing8internal19GetNotDefaultOrNullEPFvvES2_ = comdat any

$_ZN7testing4Test13SetUpTestCaseEv = comdat any

$_ZN7testing4Test14SetUpTestSuiteEv = comdat any

$_ZN7testing8internal8GTestLog9GetStreamEv = comdat any

$_ZN7testing4Test16TearDownTestCaseEv = comdat any

$_ZN7testing4Test17TearDownTestSuiteEv = comdat any

$_ZN7testing8internal11CmpHelperEQIiiEENS_15AssertionResultEPKcS4_RKT_RKT0_ = comdat any

$_ZN7testing8internal18CmpHelperEQFailureIiiEENS_15AssertionResultEPKcS4_RKT_RKT0_ = comdat any

$_ZN7testing8internal33FormatForComparisonFailureMessageIiiEENSt7__cxx1112basic_stringIcSt11char_traitsIcESaIcEEERKT_RKT0_ = comdat any

$_ZN7testing8internal19FormatForComparisonIiiE6FormatB5cxx11ERKi = comdat any

$_ZN7testing13PrintToStringIiEENSt7__cxx1112basic_stringIcSt11char_traitsIcESaIcEEERKT_ = comdat any

$_ZN7testing8internal21UniversalTersePrinterIiE5PrintERKiPSo = comdat any

$_ZN7testing8internal14UniversalPrintIiEEvRKT_PSo = comdat any

$_ZN7testing8internal16UniversalPrinterIiE5PrintERKiPSo = comdat any

$_ZN7testing8internal7PrintToIiEEvRKT_PSo = comdat any

$_ZN7testing8internal14DefaultPrintToIiEEvNS0_15WrapPrinterTypeILNS0_18DefaultPrinterTypeE3EEERKT_PSo = comdat any

$_ZN16testing_internal26DefaultPrintNonContainerToIiEEvRKT_PSo = comdat any

$_ZNKSt10unique_ptrINSt7__cxx1118basic_stringstreamIcSt11char_traitsIcESaIcEEESt14default_deleteIS5_EEdeEv = comdat any

$_ZNKSt10unique_ptrINSt7__cxx1118basic_stringstreamIcSt11char_traitsIcESaIcEEESt14default_deleteIS5_EE3getEv = comdat any

$_ZNKSt15__uniq_ptr_implINSt7__cxx1118basic_stringstreamIcSt11char_traitsIcESaIcEEESt14default_deleteIS5_EE6_M_ptrEv = comdat any

$_ZSt3getILm0EJPNSt7__cxx1118basic_stringstreamIcSt11char_traitsIcESaIcEEESt14default_deleteIS5_EEERKNSt13tuple_elementIXT_ESt5tupleIJDpT0_EEE4typeERKSD_ = comdat any

$_ZSt12__get_helperILm0EPNSt7__cxx1118basic_stringstreamIcSt11char_traitsIcESaIcEEEJSt14default_deleteIS5_EEERKT0_RKSt11_Tuple_implIXT_EJS9_DpT1_EE = comdat any

$_ZNSt11_Tuple_implILm0EJPNSt7__cxx1118basic_stringstreamIcSt11char_traitsIcESaIcEEESt14default_deleteIS5_EEE7_M_headERKS9_ = comdat any

$_ZNSt10_Head_baseILm0EPNSt7__cxx1118basic_stringstreamIcSt11char_traitsIcESaIcEEELb0EE7_M_headERKS7_ = comdat any

$_ZN7testing8internal18CmpHelperOpFailureIilEENS_15AssertionResultEPKcS4_RKT_RKT0_S4_ = comdat any

$_ZN7testing15AssertionResultlsIA12_cEERS0_RKT_ = comdat any

$_ZN7testing15AssertionResultlsIPKcEERS0_RKT_ = comdat any

$_ZN7testing15AssertionResultlsIA3_cEERS0_RKT_ = comdat any

$_ZN7testing15AssertionResultlsINSt7__cxx1112basic_stringIcSt11char_traitsIcESaIcEEEEERS0_RKT_ = comdat any

$_ZN7testing8internal33FormatForComparisonFailureMessageIilEENSt7__cxx1112basic_stringIcSt11char_traitsIcESaIcEEERKT_RKT0_ = comdat any

$_ZN7testing15AssertionResultlsIA5_cEERS0_RKT_ = comdat any

$_ZN7testing8internal33FormatForComparisonFailureMessageIliEENSt7__cxx1112basic_stringIcSt11char_traitsIcESaIcEEERKT_RKT0_ = comdat any

$_ZN7testing15AssertionResult13AppendMessageERKNS_7MessageE = comdat any

$_ZN7testing7MessagelsIA12_cEERS0_RKT_ = comdat any

$_ZNSt10unique_ptrINSt7__cxx1112basic_stringIcSt11char_traitsIcESaIcEEESt14default_deleteIS5_EE5resetEPS5_ = comdat any

$_ZNSt15__uniq_ptr_implINSt7__cxx1112basic_stringIcSt11char_traitsIcESaIcEEESt14default_deleteIS5_EE5resetEPS5_ = comdat any

$_ZN7testing7MessagelsIKcEERS0_RKPT_ = comdat any

$_ZN7testing7MessagelsIA3_cEERS0_RKT_ = comdat any

$_ZN7testing7MessagelsINSt7__cxx1112basic_stringIcSt11char_traitsIcESaIcEEEEERS0_RKT_ = comdat any

$_ZN7testing8internal19FormatForComparisonIilE6FormatB5cxx11ERKi = comdat any

$_ZN7testing7MessagelsIA5_cEERS0_RKT_ = comdat any

$_ZN7testing8internal19FormatForComparisonIliE6FormatB5cxx11ERKl = comdat any

$_ZN7testing13PrintToStringIlEENSt7__cxx1112basic_stringIcSt11char_traitsIcESaIcEEERKT_ = comdat any

$_ZN7testing8internal21UniversalTersePrinterIlE5PrintERKlPSo = comdat any

$_ZN7testing8internal14UniversalPrintIlEEvRKT_PSo = comdat any

$_ZN7testing8internal16UniversalPrinterIlE5PrintERKlPSo = comdat any

$_ZN7testing8internal7PrintToIlEEvRKT_PSo = comdat any

$_ZN7testing8internal14DefaultPrintToIlEEvNS0_15WrapPrinterTypeILNS0_18DefaultPrinterTypeE3EEERKT_PSo = comdat any

$_ZN16testing_internal26DefaultPrintNonContainerToIlEEvRKT_PSo = comdat any

$_ZNSt15__uniq_ptr_dataIN7testing8internal9DeathTestESt14default_deleteIS2_ELb1ELb1EECI2St15__uniq_ptr_implIS2_S4_EEPS2_ = comdat any

$_ZNSt15__uniq_ptr_implIN7testing8internal9DeathTestESt14default_deleteIS2_EEC2EPS2_ = comdat any

$_ZNSt5tupleIJPN7testing8internal9DeathTestESt14default_deleteIS2_EEEC2ILb1ELb1EEEv = comdat any

$_ZNSt15__uniq_ptr_implIN7testing8internal9DeathTestESt14default_deleteIS2_EE6_M_ptrEv = comdat any

$_ZNSt11_Tuple_implILm0EJPN7testing8internal9DeathTestESt14default_deleteIS2_EEEC2Ev = comdat any

$_ZNSt11_Tuple_implILm1EJSt14default_deleteIN7testing8internal9DeathTestEEEEC2Ev = comdat any

$_ZNSt10_Head_baseILm0EPN7testing8internal9DeathTestELb0EEC2Ev = comdat any

$_ZNSt10_Head_baseILm1ESt14default_deleteIN7testing8internal9DeathTestEELb1EEC2Ev = comdat any

$_ZSt3getILm0EJPN7testing8internal9DeathTestESt14default_deleteIS2_EEERNSt13tuple_elementIXT_ESt5tupleIJDpT0_EEE4typeERSA_ = comdat any

$_ZSt12__get_helperILm0EPN7testing8internal9DeathTestEJSt14default_deleteIS2_EEERT0_RSt11_Tuple_implIXT_EJS6_DpT1_EE = comdat any

$_ZNSt11_Tuple_implILm0EJPN7testing8internal9DeathTestESt14default_deleteIS2_EEE7_M_headERS6_ = comdat any

$_ZNSt10_Head_baseILm0EPN7testing8internal9DeathTestELb0EE7_M_headERS4_ = comdat any

$_ZNSt10unique_ptrIN7testing8internal9DeathTestESt14default_deleteIS2_EE11get_deleterEv = comdat any

$_ZNKSt14default_deleteIN7testing8internal9DeathTestEEclEPS2_ = comdat any

$_ZNSt15__uniq_ptr_implIN7testing8internal9DeathTestESt14default_deleteIS2_EE10_M_deleterEv = comdat any

$_ZSt3getILm1EJPN7testing8internal9DeathTestESt14default_deleteIS2_EEERNSt13tuple_elementIXT_ESt5tupleIJDpT0_EEE4typeERSA_ = comdat any

$_ZSt12__get_helperILm1ESt14default_deleteIN7testing8internal9DeathTestEEJEERT0_RSt11_Tuple_implIXT_EJS5_DpT1_EE = comdat any

$_ZNSt11_Tuple_implILm1EJSt14default_deleteIN7testing8internal9DeathTestEEEE7_M_headERS5_ = comdat any

$_ZNSt10_Head_baseILm1ESt14default_deleteIN7testing8internal9DeathTestEELb1EE7_M_headERS5_ = comdat any

$_ZTS15SilentDeathTest = comdat any

$_ZTI15SilentDeathTest = comdat any

$_ZTVN7testing8internal15TestFactoryImplI24setjmp_setjmp_smoke_TestEE = comdat any

$_ZTSN7testing8internal15TestFactoryImplI24setjmp_setjmp_smoke_TestEE = comdat any

$_ZTSN7testing8internal15TestFactoryBaseE = comdat any

$_ZTIN7testing8internal15TestFactoryBaseE = comdat any

$_ZTIN7testing8internal15TestFactoryImplI24setjmp_setjmp_smoke_TestEE = comdat any

$_ZTVN7testing8internal15TestFactoryBaseE = comdat any

$_ZTVN7testing8internal15TestFactoryImplI25setjmp__setjmp_smoke_TestEE = comdat any

$_ZTSN7testing8internal15TestFactoryImplI25setjmp__setjmp_smoke_TestEE = comdat any

$_ZTIN7testing8internal15TestFactoryImplI25setjmp__setjmp_smoke_TestEE = comdat any

$_ZTVN7testing8internal15TestFactoryImplI29setjmp_sigsetjmp_0_smoke_TestEE = comdat any

$_ZTSN7testing8internal15TestFactoryImplI29setjmp_sigsetjmp_0_smoke_TestEE = comdat any

$_ZTIN7testing8internal15TestFactoryImplI29setjmp_sigsetjmp_0_smoke_TestEE = comdat any

$_ZTVN7testing8internal15TestFactoryImplI29setjmp_sigsetjmp_1_smoke_TestEE = comdat any

$_ZTSN7testing8internal15TestFactoryImplI29setjmp_sigsetjmp_1_smoke_TestEE = comdat any

$_ZTIN7testing8internal15TestFactoryImplI29setjmp_sigsetjmp_1_smoke_TestEE = comdat any

$_ZTVN7testing8internal15TestFactoryImplI31setjmp__setjmp_signal_mask_TestEE = comdat any

$_ZTSN7testing8internal15TestFactoryImplI31setjmp__setjmp_signal_mask_TestEE = comdat any

$_ZTIN7testing8internal15TestFactoryImplI31setjmp__setjmp_signal_mask_TestEE = comdat any

$_ZTVN7testing8internal15TestFactoryImplI30setjmp_setjmp_signal_mask_TestEE = comdat any

$_ZTSN7testing8internal15TestFactoryImplI30setjmp_setjmp_signal_mask_TestEE = comdat any

$_ZTIN7testing8internal15TestFactoryImplI30setjmp_setjmp_signal_mask_TestEE = comdat any

$_ZTVN7testing8internal15TestFactoryImplI35setjmp_sigsetjmp_0_signal_mask_TestEE = comdat any

$_ZTSN7testing8internal15TestFactoryImplI35setjmp_sigsetjmp_0_signal_mask_TestEE = comdat any

$_ZTIN7testing8internal15TestFactoryImplI35setjmp_sigsetjmp_0_signal_mask_TestEE = comdat any

$_ZTVN7testing8internal15TestFactoryImplI35setjmp_sigsetjmp_1_signal_mask_TestEE = comdat any

$_ZTSN7testing8internal15TestFactoryImplI35setjmp_sigsetjmp_1_signal_mask_TestEE = comdat any

$_ZTIN7testing8internal15TestFactoryImplI35setjmp_sigsetjmp_1_signal_mask_TestEE = comdat any

$_ZTVN7testing8internal15TestFactoryImplI31setjmp_setjmp_fp_registers_TestEE = comdat any

$_ZTSN7testing8internal15TestFactoryImplI31setjmp_setjmp_fp_registers_TestEE = comdat any

$_ZTIN7testing8internal15TestFactoryImplI31setjmp_setjmp_fp_registers_TestEE = comdat any

$_ZTVN7testing8internal15TestFactoryImplI35setjmp_DeathTest_setjmp_cookie_TestEE = comdat any

$_ZTSN7testing8internal15TestFactoryImplI35setjmp_DeathTest_setjmp_cookie_TestEE = comdat any

$_ZTIN7testing8internal15TestFactoryImplI35setjmp_DeathTest_setjmp_cookie_TestEE = comdat any

$_ZTV15SilentDeathTest = comdat any

$_ZTVSt15_Sp_counted_ptrIPKN7testing8internal2REELN9__gnu_cxx12_Lock_policyE2EE = comdat any

$_ZTSSt15_Sp_counted_ptrIPKN7testing8internal2REELN9__gnu_cxx12_Lock_policyE2EE = comdat any

$_ZTSSt16_Sp_counted_baseILN9__gnu_cxx12_Lock_policyE2EE = comdat any

$_ZTSSt11_Mutex_baseILN9__gnu_cxx12_Lock_policyE2EE = comdat any

$_ZTISt11_Mutex_baseILN9__gnu_cxx12_Lock_policyE2EE = comdat any

$_ZTISt16_Sp_counted_baseILN9__gnu_cxx12_Lock_policyE2EE = comdat any

$_ZTISt15_Sp_counted_ptrIPKN7testing8internal2REELN9__gnu_cxx12_Lock_policyE2EE = comdat any

$_ZTVSt16_Sp_counted_baseILN9__gnu_cxx12_Lock_policyE2EE = comdat any

$_ZTVN7testing18PolymorphicMatcherINS_8internal19MatchesRegexMatcherEE15MonomorphicImplIRKNSt7__cxx1112basic_stringIcSt11char_traitsIcESaIcEEEEE = comdat any

$_ZTSN7testing18PolymorphicMatcherINS_8internal19MatchesRegexMatcherEE15MonomorphicImplIRKNSt7__cxx1112basic_stringIcSt11char_traitsIcESaIcEEEEE = comdat any

$_ZTSN7testing16MatcherInterfaceIRKNSt7__cxx1112basic_stringIcSt11char_traitsIcESaIcEEEEE = comdat any

$_ZTSN7testing25MatcherDescriberInterfaceE = comdat any

$_ZTIN7testing25MatcherDescriberInterfaceE = comdat any

$_ZTIN7testing16MatcherInterfaceIRKNSt7__cxx1112basic_stringIcSt11char_traitsIcESaIcEEEEE = comdat any

$_ZTIN7testing18PolymorphicMatcherINS_8internal19MatchesRegexMatcherEE15MonomorphicImplIRKNSt7__cxx1112basic_stringIcSt11char_traitsIcESaIcEEEEE = comdat any

$_ZTVN7testing16MatcherInterfaceIRKNSt7__cxx1112basic_stringIcSt11char_traitsIcESaIcEEEEE = comdat any

$_ZTVN7testing25MatcherDescriberInterfaceE = comdat any

$_ZTVN7testing7MatcherIRKNSt7__cxx1112basic_stringIcSt11char_traitsIcESaIcEEEEE = comdat any

$_ZTSN7testing7MatcherIRKNSt7__cxx1112basic_stringIcSt11char_traitsIcESaIcEEEEE = comdat any

$_ZTSN7testing8internal11MatcherBaseIRKNSt7__cxx1112basic_stringIcSt11char_traitsIcESaIcEEEEE = comdat any

$_ZTIN7testing8internal11MatcherBaseIRKNSt7__cxx1112basic_stringIcSt11char_traitsIcESaIcEEEEE = comdat any

$_ZTIN7testing7MatcherIRKNSt7__cxx1112basic_stringIcSt11char_traitsIcESaIcEEEEE = comdat any

$_ZTVN7testing8internal11MatcherBaseIRKNSt7__cxx1112basic_stringIcSt11char_traitsIcESaIcEEEEE = comdat any

$_ZTVSt15_Sp_counted_ptrIPKN7testing16MatcherInterfaceIRKNSt7__cxx1112basic_stringIcSt11char_traitsIcESaIcEEEEELN9__gnu_cxx12_Lock_policyE2EE = comdat any

$_ZTSSt15_Sp_counted_ptrIPKN7testing16MatcherInterfaceIRKNSt7__cxx1112basic_stringIcSt11char_traitsIcESaIcEEEEELN9__gnu_cxx12_Lock_policyE2EE = comdat any

$_ZTISt15_Sp_counted_ptrIPKN7testing16MatcherInterfaceIRKNSt7__cxx1112basic_stringIcSt11char_traitsIcESaIcEEEEELN9__gnu_cxx12_Lock_policyE2EE = comdat any

$_ZTVN7testing8internal15TestFactoryImplI44setjmp_DeathTest_setjmp_cookie_checksum_TestEE = comdat any

$_ZTSN7testing8internal15TestFactoryImplI44setjmp_DeathTest_setjmp_cookie_checksum_TestEE = comdat any

$_ZTIN7testing8internal15TestFactoryImplI44setjmp_DeathTest_setjmp_cookie_checksum_TestEE = comdat any

$_ZTVN7testing8internal15TestFactoryImplI24setjmp_setjmp_stack_TestEE = comdat any

$_ZTSN7testing8internal15TestFactoryImplI24setjmp_setjmp_stack_TestEE = comdat any

$_ZTIN7testing8internal15TestFactoryImplI24setjmp_setjmp_stack_TestEE = comdat any

$_ZTVN7testing8internal15TestFactoryImplI25setjmp_bug_152210274_TestEE = comdat any

$_ZTSN7testing8internal15TestFactoryImplI25setjmp_bug_152210274_TestEE = comdat any

$_ZTIN7testing8internal15TestFactoryImplI25setjmp_bug_152210274_TestEE = comdat any

$_ZN7testing8internal12TypeIdHelperI15SilentDeathTestE6dummy_E = comdat any

@_ZN24setjmp_setjmp_smoke_Test10test_info_E = dso_local global ptr null, align 8, !dbg !0
@.str = private unnamed_addr constant [7 x i8] c"setjmp\00", align 1, !dbg !2487
@.str.1 = private unnamed_addr constant [13 x i8] c"setjmp_smoke\00", align 1, !dbg !2492
@.str.2 = private unnamed_addr constant [16 x i8] c"setjmp_test.cpp\00", align 1, !dbg !2497
@.str.3 = private unnamed_addr constant [4 x i8] c"123\00", align 1, !dbg !2500
@.str.4 = private unnamed_addr constant [6 x i8] c"value\00", align 1, !dbg !2505
@_ZN25setjmp__setjmp_smoke_Test10test_info_E = dso_local global ptr null, align 8, !dbg !2515
@.str.6 = private unnamed_addr constant [14 x i8] c"_setjmp_smoke\00", align 1, !dbg !2510
@.str.7 = private unnamed_addr constant [4 x i8] c"456\00", align 1, !dbg !2537
@_ZN29setjmp_sigsetjmp_0_smoke_Test10test_info_E = dso_local global ptr null, align 8, !dbg !2544
@.str.9 = private unnamed_addr constant [18 x i8] c"sigsetjmp_0_smoke\00", align 1, !dbg !2539
@.str.10 = private unnamed_addr constant [4 x i8] c"789\00", align 1, !dbg !2561
@_ZN29setjmp_sigsetjmp_1_smoke_Test10test_info_E = dso_local global ptr null, align 8, !dbg !2565
@.str.12 = private unnamed_addr constant [18 x i8] c"sigsetjmp_1_smoke\00", align 1, !dbg !2563
@.str.13 = private unnamed_addr constant [6 x i8] c"0xabc\00", align 1, !dbg !2582
@.str.14 = private unnamed_addr constant [26 x i8] c"sigismember(&expected, i)\00", align 1, !dbg !2584
@.str.15 = private unnamed_addr constant [24 x i8] c"sigismember(&actual, i)\00", align 1, !dbg !2589
@_ZN31setjmp__setjmp_signal_mask_Test10test_info_E = dso_local global ptr null, align 8, !dbg !2599
@.str.17 = private unnamed_addr constant [20 x i8] c"_setjmp_signal_mask\00", align 1, !dbg !2594
@_ZN30setjmp_setjmp_signal_mask_Test10test_info_E = dso_local global ptr null, align 8, !dbg !2621
@.str.19 = private unnamed_addr constant [19 x i8] c"setjmp_signal_mask\00", align 1, !dbg !2616
@_ZN35setjmp_sigsetjmp_0_signal_mask_Test10test_info_E = dso_local global ptr null, align 8, !dbg !2640
@.str.21 = private unnamed_addr constant [24 x i8] c"sigsetjmp_0_signal_mask\00", align 1, !dbg !2638
@_ZN35setjmp_sigsetjmp_1_signal_mask_Test10test_info_E = dso_local global ptr null, align 8, !dbg !2659
@.str.23 = private unnamed_addr constant [24 x i8] c"sigsetjmp_1_signal_mask\00", align 1, !dbg !2657
@_ZN31setjmp_setjmp_fp_registers_Test10test_info_E = dso_local global ptr null, align 8, !dbg !2678
@.str.25 = private unnamed_addr constant [20 x i8] c"setjmp_fp_registers\00", align 1, !dbg !2676
@_ZN35setjmp_DeathTest_setjmp_cookie_Test10test_info_E = dso_local global ptr null, align 8, !dbg !2702
@.str.27 = private unnamed_addr constant [17 x i8] c"setjmp_DeathTest\00", align 1, !dbg !2695
@.str.28 = private unnamed_addr constant [14 x i8] c"setjmp_cookie\00", align 1, !dbg !2700
@.str.29 = private unnamed_addr constant [2 x i8] c"0\00", align 1, !dbg !2724
@.str.30 = private unnamed_addr constant [14 x i8] c"*sigflag & ~1\00", align 1, !dbg !2729
@.str.31 = private unnamed_addr constant [15 x i8] c"longjmp(jb, 0)\00", align 1, !dbg !2731
@.str.32 = private unnamed_addr constant [1 x i8] zeroinitializer, align 1, !dbg !2736
@_ZTISt9exception = external constant ptr
@stderr = external global ptr, align 8
@.str.33 = private unnamed_addr constant [103 x i8] c"\0A%s: Caught std::exception-derived exception escaping the death test statement. Exception message: %s\0A\00", align 1, !dbg !2741
@_ZN44setjmp_DeathTest_setjmp_cookie_checksum_Test10test_info_E = dso_local global ptr null, align 8, !dbg !2751
@.str.35 = private unnamed_addr constant [23 x i8] c"setjmp_cookie_checksum\00", align 1, !dbg !2746
@.str.36 = private unnamed_addr constant [15 x i8] c"longjmp(jb, 1)\00", align 1, !dbg !2768
@.str.37 = private unnamed_addr constant [18 x i8] c"checksum mismatch\00", align 1, !dbg !2770
@.str.38 = private unnamed_addr constant [43 x i8] c"setjmp_cookie_checksum: longjmp succeeded?\00", align 1, !dbg !2772
@_ZN24setjmp_setjmp_stack_Test10test_info_E = dso_local global ptr null, align 8, !dbg !2779
@.str.40 = private unnamed_addr constant [13 x i8] c"setjmp_stack\00", align 1, !dbg !2777
@_ZN25setjmp_bug_152210274_Test10test_info_E = dso_local global ptr null, align 8, !dbg !2798
@.str.42 = private unnamed_addr constant [14 x i8] c"bug_152210274\00", align 1, !dbg !2796
@__const._ZN25setjmp_bug_152210274_Test8TestBodyEv.sa = private unnamed_addr constant %struct.sigaction { %union.anon.54 { ptr @"_ZZN25setjmp_bug_152210274_Test8TestBodyEvEN3$_08__invokeEiP9siginfo_tPv" }, %struct.__sigset_t zeroinitializer, i32 4, ptr null }, align 8
@.str.43 = private unnamed_addr constant [22 x i8] c"sigaction(27, &sa, 0)\00", align 1, !dbg !2815
@.str.44 = private unnamed_addr constant [46 x i8] c"pthread_create(&t, nullptr, jumper, &tids[i])\00", align 1, !dbg !2820
@.str.45 = private unnamed_addr constant [47 x i8] c"pthread_create(&t, nullptr, interrupter, tids)\00", align 1, !dbg !2825
@_ZTV24setjmp_setjmp_smoke_Test = dso_local unnamed_addr constant { [8 x ptr] } { [8 x ptr] [ptr null, ptr @_ZTI24setjmp_setjmp_smoke_Test, ptr @_ZN24setjmp_setjmp_smoke_TestD2Ev, ptr @_ZN24setjmp_setjmp_smoke_TestD0Ev, ptr @_ZN7testing4Test5SetUpEv, ptr @_ZN7testing4Test8TearDownEv, ptr @_ZN24setjmp_setjmp_smoke_Test8TestBodyEv, ptr @_ZN7testing4Test5SetupEv] }, align 8
@_ZTVN10__cxxabiv120__si_class_type_infoE = external global ptr
@_ZTS24setjmp_setjmp_smoke_Test = dso_local constant [27 x i8] c"24setjmp_setjmp_smoke_Test\00", align 1
@_ZTIN7testing4TestE = external constant ptr
@_ZTI24setjmp_setjmp_smoke_Test = dso_local constant { ptr, ptr, ptr } { ptr getelementptr inbounds (ptr, ptr @_ZTVN10__cxxabiv120__si_class_type_infoE, i64 2), ptr @_ZTS24setjmp_setjmp_smoke_Test, ptr @_ZTIN7testing4TestE }, align 8
@_ZTV25setjmp__setjmp_smoke_Test = dso_local unnamed_addr constant { [8 x ptr] } { [8 x ptr] [ptr null, ptr @_ZTI25setjmp__setjmp_smoke_Test, ptr @_ZN25setjmp__setjmp_smoke_TestD2Ev, ptr @_ZN25setjmp__setjmp_smoke_TestD0Ev, ptr @_ZN7testing4Test5SetUpEv, ptr @_ZN7testing4Test8TearDownEv, ptr @_ZN25setjmp__setjmp_smoke_Test8TestBodyEv, ptr @_ZN7testing4Test5SetupEv] }, align 8
@_ZTS25setjmp__setjmp_smoke_Test = dso_local constant [28 x i8] c"25setjmp__setjmp_smoke_Test\00", align 1
@_ZTI25setjmp__setjmp_smoke_Test = dso_local constant { ptr, ptr, ptr } { ptr getelementptr inbounds (ptr, ptr @_ZTVN10__cxxabiv120__si_class_type_infoE, i64 2), ptr @_ZTS25setjmp__setjmp_smoke_Test, ptr @_ZTIN7testing4TestE }, align 8
@_ZTV29setjmp_sigsetjmp_0_smoke_Test = dso_local unnamed_addr constant { [8 x ptr] } { [8 x ptr] [ptr null, ptr @_ZTI29setjmp_sigsetjmp_0_smoke_Test, ptr @_ZN29setjmp_sigsetjmp_0_smoke_TestD2Ev, ptr @_ZN29setjmp_sigsetjmp_0_smoke_TestD0Ev, ptr @_ZN7testing4Test5SetUpEv, ptr @_ZN7testing4Test8TearDownEv, ptr @_ZN29setjmp_sigsetjmp_0_smoke_Test8TestBodyEv, ptr @_ZN7testing4Test5SetupEv] }, align 8
@_ZTS29setjmp_sigsetjmp_0_smoke_Test = dso_local constant [32 x i8] c"29setjmp_sigsetjmp_0_smoke_Test\00", align 1
@_ZTI29setjmp_sigsetjmp_0_smoke_Test = dso_local constant { ptr, ptr, ptr } { ptr getelementptr inbounds (ptr, ptr @_ZTVN10__cxxabiv120__si_class_type_infoE, i64 2), ptr @_ZTS29setjmp_sigsetjmp_0_smoke_Test, ptr @_ZTIN7testing4TestE }, align 8
@_ZTV29setjmp_sigsetjmp_1_smoke_Test = dso_local unnamed_addr constant { [8 x ptr] } { [8 x ptr] [ptr null, ptr @_ZTI29setjmp_sigsetjmp_1_smoke_Test, ptr @_ZN29setjmp_sigsetjmp_1_smoke_TestD2Ev, ptr @_ZN29setjmp_sigsetjmp_1_smoke_TestD0Ev, ptr @_ZN7testing4Test5SetUpEv, ptr @_ZN7testing4Test8TearDownEv, ptr @_ZN29setjmp_sigsetjmp_1_smoke_Test8TestBodyEv, ptr @_ZN7testing4Test5SetupEv] }, align 8
@_ZTS29setjmp_sigsetjmp_1_smoke_Test = dso_local constant [32 x i8] c"29setjmp_sigsetjmp_1_smoke_Test\00", align 1
@_ZTI29setjmp_sigsetjmp_1_smoke_Test = dso_local constant { ptr, ptr, ptr } { ptr getelementptr inbounds (ptr, ptr @_ZTVN10__cxxabiv120__si_class_type_infoE, i64 2), ptr @_ZTS29setjmp_sigsetjmp_1_smoke_Test, ptr @_ZTIN7testing4TestE }, align 8
@_ZTV31setjmp__setjmp_signal_mask_Test = dso_local unnamed_addr constant { [8 x ptr] } { [8 x ptr] [ptr null, ptr @_ZTI31setjmp__setjmp_signal_mask_Test, ptr @_ZN31setjmp__setjmp_signal_mask_TestD2Ev, ptr @_ZN31setjmp__setjmp_signal_mask_TestD0Ev, ptr @_ZN7testing4Test5SetUpEv, ptr @_ZN7testing4Test8TearDownEv, ptr @_ZN31setjmp__setjmp_signal_mask_Test8TestBodyEv, ptr @_ZN7testing4Test5SetupEv] }, align 8
@_ZTS31setjmp__setjmp_signal_mask_Test = dso_local constant [34 x i8] c"31setjmp__setjmp_signal_mask_Test\00", align 1
@_ZTI31setjmp__setjmp_signal_mask_Test = dso_local constant { ptr, ptr, ptr } { ptr getelementptr inbounds (ptr, ptr @_ZTVN10__cxxabiv120__si_class_type_infoE, i64 2), ptr @_ZTS31setjmp__setjmp_signal_mask_Test, ptr @_ZTIN7testing4TestE }, align 8
@_ZTV30setjmp_setjmp_signal_mask_Test = dso_local unnamed_addr constant { [8 x ptr] } { [8 x ptr] [ptr null, ptr @_ZTI30setjmp_setjmp_signal_mask_Test, ptr @_ZN30setjmp_setjmp_signal_mask_TestD2Ev, ptr @_ZN30setjmp_setjmp_signal_mask_TestD0Ev, ptr @_ZN7testing4Test5SetUpEv, ptr @_ZN7testing4Test8TearDownEv, ptr @_ZN30setjmp_setjmp_signal_mask_Test8TestBodyEv, ptr @_ZN7testing4Test5SetupEv] }, align 8
@_ZTS30setjmp_setjmp_signal_mask_Test = dso_local constant [33 x i8] c"30setjmp_setjmp_signal_mask_Test\00", align 1
@_ZTI30setjmp_setjmp_signal_mask_Test = dso_local constant { ptr, ptr, ptr } { ptr getelementptr inbounds (ptr, ptr @_ZTVN10__cxxabiv120__si_class_type_infoE, i64 2), ptr @_ZTS30setjmp_setjmp_signal_mask_Test, ptr @_ZTIN7testing4TestE }, align 8
@_ZTV35setjmp_sigsetjmp_0_signal_mask_Test = dso_local unnamed_addr constant { [8 x ptr] } { [8 x ptr] [ptr null, ptr @_ZTI35setjmp_sigsetjmp_0_signal_mask_Test, ptr @_ZN35setjmp_sigsetjmp_0_signal_mask_TestD2Ev, ptr @_ZN35setjmp_sigsetjmp_0_signal_mask_TestD0Ev, ptr @_ZN7testing4Test5SetUpEv, ptr @_ZN7testing4Test8TearDownEv, ptr @_ZN35setjmp_sigsetjmp_0_signal_mask_Test8TestBodyEv, ptr @_ZN7testing4Test5SetupEv] }, align 8
@_ZTS35setjmp_sigsetjmp_0_signal_mask_Test = dso_local constant [38 x i8] c"35setjmp_sigsetjmp_0_signal_mask_Test\00", align 1
@_ZTI35setjmp_sigsetjmp_0_signal_mask_Test = dso_local constant { ptr, ptr, ptr } { ptr getelementptr inbounds (ptr, ptr @_ZTVN10__cxxabiv120__si_class_type_infoE, i64 2), ptr @_ZTS35setjmp_sigsetjmp_0_signal_mask_Test, ptr @_ZTIN7testing4TestE }, align 8
@_ZTV35setjmp_sigsetjmp_1_signal_mask_Test = dso_local unnamed_addr constant { [8 x ptr] } { [8 x ptr] [ptr null, ptr @_ZTI35setjmp_sigsetjmp_1_signal_mask_Test, ptr @_ZN35setjmp_sigsetjmp_1_signal_mask_TestD2Ev, ptr @_ZN35setjmp_sigsetjmp_1_signal_mask_TestD0Ev, ptr @_ZN7testing4Test5SetUpEv, ptr @_ZN7testing4Test8TearDownEv, ptr @_ZN35setjmp_sigsetjmp_1_signal_mask_Test8TestBodyEv, ptr @_ZN7testing4Test5SetupEv] }, align 8
@_ZTS35setjmp_sigsetjmp_1_signal_mask_Test = dso_local constant [38 x i8] c"35setjmp_sigsetjmp_1_signal_mask_Test\00", align 1
@_ZTI35setjmp_sigsetjmp_1_signal_mask_Test = dso_local constant { ptr, ptr, ptr } { ptr getelementptr inbounds (ptr, ptr @_ZTVN10__cxxabiv120__si_class_type_infoE, i64 2), ptr @_ZTS35setjmp_sigsetjmp_1_signal_mask_Test, ptr @_ZTIN7testing4TestE }, align 8
@_ZTV31setjmp_setjmp_fp_registers_Test = dso_local unnamed_addr constant { [8 x ptr] } { [8 x ptr] [ptr null, ptr @_ZTI31setjmp_setjmp_fp_registers_Test, ptr @_ZN31setjmp_setjmp_fp_registers_TestD2Ev, ptr @_ZN31setjmp_setjmp_fp_registers_TestD0Ev, ptr @_ZN7testing4Test5SetUpEv, ptr @_ZN7testing4Test8TearDownEv, ptr @_ZN31setjmp_setjmp_fp_registers_Test8TestBodyEv, ptr @_ZN7testing4Test5SetupEv] }, align 8
@_ZTS31setjmp_setjmp_fp_registers_Test = dso_local constant [34 x i8] c"31setjmp_setjmp_fp_registers_Test\00", align 1
@_ZTI31setjmp_setjmp_fp_registers_Test = dso_local constant { ptr, ptr, ptr } { ptr getelementptr inbounds (ptr, ptr @_ZTVN10__cxxabiv120__si_class_type_infoE, i64 2), ptr @_ZTS31setjmp_setjmp_fp_registers_Test, ptr @_ZTIN7testing4TestE }, align 8
@_ZTV35setjmp_DeathTest_setjmp_cookie_Test = dso_local unnamed_addr constant { [8 x ptr] } { [8 x ptr] [ptr null, ptr @_ZTI35setjmp_DeathTest_setjmp_cookie_Test, ptr @_ZN35setjmp_DeathTest_setjmp_cookie_TestD2Ev, ptr @_ZN35setjmp_DeathTest_setjmp_cookie_TestD0Ev, ptr @_ZN7testing4Test5SetUpEv, ptr @_ZN7testing4Test8TearDownEv, ptr @_ZN35setjmp_DeathTest_setjmp_cookie_Test8TestBodyEv, ptr @_ZN7testing4Test5SetupEv] }, align 8
@_ZTS35setjmp_DeathTest_setjmp_cookie_Test = dso_local constant [38 x i8] c"35setjmp_DeathTest_setjmp_cookie_Test\00", align 1
@_ZTS15SilentDeathTest = linkonce_odr dso_local constant [18 x i8] c"15SilentDeathTest\00", comdat, align 1
@_ZTI15SilentDeathTest = linkonce_odr dso_local constant { ptr, ptr, ptr } { ptr getelementptr inbounds (ptr, ptr @_ZTVN10__cxxabiv120__si_class_type_infoE, i64 2), ptr @_ZTS15SilentDeathTest, ptr @_ZTIN7testing4TestE }, comdat, align 8
@_ZTI35setjmp_DeathTest_setjmp_cookie_Test = dso_local constant { ptr, ptr, ptr } { ptr getelementptr inbounds (ptr, ptr @_ZTVN10__cxxabiv120__si_class_type_infoE, i64 2), ptr @_ZTS35setjmp_DeathTest_setjmp_cookie_Test, ptr @_ZTI15SilentDeathTest }, align 8
@_ZTV44setjmp_DeathTest_setjmp_cookie_checksum_Test = dso_local unnamed_addr constant { [8 x ptr] } { [8 x ptr] [ptr null, ptr @_ZTI44setjmp_DeathTest_setjmp_cookie_checksum_Test, ptr @_ZN44setjmp_DeathTest_setjmp_cookie_checksum_TestD2Ev, ptr @_ZN44setjmp_DeathTest_setjmp_cookie_checksum_TestD0Ev, ptr @_ZN7testing4Test5SetUpEv, ptr @_ZN7testing4Test8TearDownEv, ptr @_ZN44setjmp_DeathTest_setjmp_cookie_checksum_Test8TestBodyEv, ptr @_ZN7testing4Test5SetupEv] }, align 8
@_ZTS44setjmp_DeathTest_setjmp_cookie_checksum_Test = dso_local constant [47 x i8] c"44setjmp_DeathTest_setjmp_cookie_checksum_Test\00", align 1
@_ZTI44setjmp_DeathTest_setjmp_cookie_checksum_Test = dso_local constant { ptr, ptr, ptr } { ptr getelementptr inbounds (ptr, ptr @_ZTVN10__cxxabiv120__si_class_type_infoE, i64 2), ptr @_ZTS44setjmp_DeathTest_setjmp_cookie_checksum_Test, ptr @_ZTI15SilentDeathTest }, align 8
@_ZTV24setjmp_setjmp_stack_Test = dso_local unnamed_addr constant { [8 x ptr] } { [8 x ptr] [ptr null, ptr @_ZTI24setjmp_setjmp_stack_Test, ptr @_ZN24setjmp_setjmp_stack_TestD2Ev, ptr @_ZN24setjmp_setjmp_stack_TestD0Ev, ptr @_ZN7testing4Test5SetUpEv, ptr @_ZN7testing4Test8TearDownEv, ptr @_ZN24setjmp_setjmp_stack_Test8TestBodyEv, ptr @_ZN7testing4Test5SetupEv] }, align 8
@_ZTS24setjmp_setjmp_stack_Test = dso_local constant [27 x i8] c"24setjmp_setjmp_stack_Test\00", align 1
@_ZTI24setjmp_setjmp_stack_Test = dso_local constant { ptr, ptr, ptr } { ptr getelementptr inbounds (ptr, ptr @_ZTVN10__cxxabiv120__si_class_type_infoE, i64 2), ptr @_ZTS24setjmp_setjmp_stack_Test, ptr @_ZTIN7testing4TestE }, align 8
@_ZTV25setjmp_bug_152210274_Test = dso_local unnamed_addr constant { [8 x ptr] } { [8 x ptr] [ptr null, ptr @_ZTI25setjmp_bug_152210274_Test, ptr @_ZN25setjmp_bug_152210274_TestD2Ev, ptr @_ZN25setjmp_bug_152210274_TestD0Ev, ptr @_ZN7testing4Test5SetUpEv, ptr @_ZN7testing4Test8TearDownEv, ptr @_ZN25setjmp_bug_152210274_Test8TestBodyEv, ptr @_ZN7testing4Test5SetupEv] }, align 8
@_ZTS25setjmp_bug_152210274_Test = dso_local constant [28 x i8] c"25setjmp_bug_152210274_Test\00", align 1
@_ZTI25setjmp_bug_152210274_Test = dso_local constant { ptr, ptr, ptr } { ptr getelementptr inbounds (ptr, ptr @_ZTVN10__cxxabiv120__si_class_type_infoE, i64 2), ptr @_ZTS25setjmp_bug_152210274_Test, ptr @_ZTIN7testing4TestE }, align 8
@_ZTVN7testing8internal15TestFactoryImplI24setjmp_setjmp_smoke_TestEE = linkonce_odr dso_local unnamed_addr constant { [5 x ptr] } { [5 x ptr] [ptr null, ptr @_ZTIN7testing8internal15TestFactoryImplI24setjmp_setjmp_smoke_TestEE, ptr @_ZN7testing8internal15TestFactoryImplI24setjmp_setjmp_smoke_TestED2Ev, ptr @_ZN7testing8internal15TestFactoryImplI24setjmp_setjmp_smoke_TestED0Ev, ptr @_ZN7testing8internal15TestFactoryImplI24setjmp_setjmp_smoke_TestE10CreateTestEv] }, comdat, align 8
@_ZTSN7testing8internal15TestFactoryImplI24setjmp_setjmp_smoke_TestEE = linkonce_odr dso_local constant [65 x i8] c"N7testing8internal15TestFactoryImplI24setjmp_setjmp_smoke_TestEE\00", comdat, align 1
@_ZTVN10__cxxabiv117__class_type_infoE = external global ptr
@_ZTSN7testing8internal15TestFactoryBaseE = linkonce_odr dso_local constant [37 x i8] c"N7testing8internal15TestFactoryBaseE\00", comdat, align 1
@_ZTIN7testing8internal15TestFactoryBaseE = linkonce_odr dso_local constant { ptr, ptr } { ptr getelementptr inbounds (ptr, ptr @_ZTVN10__cxxabiv117__class_type_infoE, i64 2), ptr @_ZTSN7testing8internal15TestFactoryBaseE }, comdat, align 8
@_ZTIN7testing8internal15TestFactoryImplI24setjmp_setjmp_smoke_TestEE = linkonce_odr dso_local constant { ptr, ptr, ptr } { ptr getelementptr inbounds (ptr, ptr @_ZTVN10__cxxabiv120__si_class_type_infoE, i64 2), ptr @_ZTSN7testing8internal15TestFactoryImplI24setjmp_setjmp_smoke_TestEE, ptr @_ZTIN7testing8internal15TestFactoryBaseE }, comdat, align 8
@_ZTVN7testing8internal15TestFactoryBaseE = linkonce_odr dso_local unnamed_addr constant { [5 x ptr] } { [5 x ptr] [ptr null, ptr @_ZTIN7testing8internal15TestFactoryBaseE, ptr @_ZN7testing8internal15TestFactoryBaseD2Ev, ptr @_ZN7testing8internal15TestFactoryBaseD0Ev, ptr @__cxa_pure_virtual] }, comdat, align 8
@_ZTVN7testing8internal15TestFactoryImplI25setjmp__setjmp_smoke_TestEE = linkonce_odr dso_local unnamed_addr constant { [5 x ptr] } { [5 x ptr] [ptr null, ptr @_ZTIN7testing8internal15TestFactoryImplI25setjmp__setjmp_smoke_TestEE, ptr @_ZN7testing8internal15TestFactoryImplI25setjmp__setjmp_smoke_TestED2Ev, ptr @_ZN7testing8internal15TestFactoryImplI25setjmp__setjmp_smoke_TestED0Ev, ptr @_ZN7testing8internal15TestFactoryImplI25setjmp__setjmp_smoke_TestE10CreateTestEv] }, comdat, align 8
@_ZTSN7testing8internal15TestFactoryImplI25setjmp__setjmp_smoke_TestEE = linkonce_odr dso_local constant [66 x i8] c"N7testing8internal15TestFactoryImplI25setjmp__setjmp_smoke_TestEE\00", comdat, align 1
@_ZTIN7testing8internal15TestFactoryImplI25setjmp__setjmp_smoke_TestEE = linkonce_odr dso_local constant { ptr, ptr, ptr } { ptr getelementptr inbounds (ptr, ptr @_ZTVN10__cxxabiv120__si_class_type_infoE, i64 2), ptr @_ZTSN7testing8internal15TestFactoryImplI25setjmp__setjmp_smoke_TestEE, ptr @_ZTIN7testing8internal15TestFactoryBaseE }, comdat, align 8
@_ZTVN7testing8internal15TestFactoryImplI29setjmp_sigsetjmp_0_smoke_TestEE = linkonce_odr dso_local unnamed_addr constant { [5 x ptr] } { [5 x ptr] [ptr null, ptr @_ZTIN7testing8internal15TestFactoryImplI29setjmp_sigsetjmp_0_smoke_TestEE, ptr @_ZN7testing8internal15TestFactoryImplI29setjmp_sigsetjmp_0_smoke_TestED2Ev, ptr @_ZN7testing8internal15TestFactoryImplI29setjmp_sigsetjmp_0_smoke_TestED0Ev, ptr @_ZN7testing8internal15TestFactoryImplI29setjmp_sigsetjmp_0_smoke_TestE10CreateTestEv] }, comdat, align 8
@_ZTSN7testing8internal15TestFactoryImplI29setjmp_sigsetjmp_0_smoke_TestEE = linkonce_odr dso_local constant [70 x i8] c"N7testing8internal15TestFactoryImplI29setjmp_sigsetjmp_0_smoke_TestEE\00", comdat, align 1
@_ZTIN7testing8internal15TestFactoryImplI29setjmp_sigsetjmp_0_smoke_TestEE = linkonce_odr dso_local constant { ptr, ptr, ptr } { ptr getelementptr inbounds (ptr, ptr @_ZTVN10__cxxabiv120__si_class_type_infoE, i64 2), ptr @_ZTSN7testing8internal15TestFactoryImplI29setjmp_sigsetjmp_0_smoke_TestEE, ptr @_ZTIN7testing8internal15TestFactoryBaseE }, comdat, align 8
@_ZTVN7testing8internal15TestFactoryImplI29setjmp_sigsetjmp_1_smoke_TestEE = linkonce_odr dso_local unnamed_addr constant { [5 x ptr] } { [5 x ptr] [ptr null, ptr @_ZTIN7testing8internal15TestFactoryImplI29setjmp_sigsetjmp_1_smoke_TestEE, ptr @_ZN7testing8internal15TestFactoryImplI29setjmp_sigsetjmp_1_smoke_TestED2Ev, ptr @_ZN7testing8internal15TestFactoryImplI29setjmp_sigsetjmp_1_smoke_TestED0Ev, ptr @_ZN7testing8internal15TestFactoryImplI29setjmp_sigsetjmp_1_smoke_TestE10CreateTestEv] }, comdat, align 8
@_ZTSN7testing8internal15TestFactoryImplI29setjmp_sigsetjmp_1_smoke_TestEE = linkonce_odr dso_local constant [70 x i8] c"N7testing8internal15TestFactoryImplI29setjmp_sigsetjmp_1_smoke_TestEE\00", comdat, align 1
@_ZTIN7testing8internal15TestFactoryImplI29setjmp_sigsetjmp_1_smoke_TestEE = linkonce_odr dso_local constant { ptr, ptr, ptr } { ptr getelementptr inbounds (ptr, ptr @_ZTVN10__cxxabiv120__si_class_type_infoE, i64 2), ptr @_ZTSN7testing8internal15TestFactoryImplI29setjmp_sigsetjmp_1_smoke_TestEE, ptr @_ZTIN7testing8internal15TestFactoryBaseE }, comdat, align 8
@_ZTVN7testing8internal15TestFactoryImplI31setjmp__setjmp_signal_mask_TestEE = linkonce_odr dso_local unnamed_addr constant { [5 x ptr] } { [5 x ptr] [ptr null, ptr @_ZTIN7testing8internal15TestFactoryImplI31setjmp__setjmp_signal_mask_TestEE, ptr @_ZN7testing8internal15TestFactoryImplI31setjmp__setjmp_signal_mask_TestED2Ev, ptr @_ZN7testing8internal15TestFactoryImplI31setjmp__setjmp_signal_mask_TestED0Ev, ptr @_ZN7testing8internal15TestFactoryImplI31setjmp__setjmp_signal_mask_TestE10CreateTestEv] }, comdat, align 8
@_ZTSN7testing8internal15TestFactoryImplI31setjmp__setjmp_signal_mask_TestEE = linkonce_odr dso_local constant [72 x i8] c"N7testing8internal15TestFactoryImplI31setjmp__setjmp_signal_mask_TestEE\00", comdat, align 1
@_ZTIN7testing8internal15TestFactoryImplI31setjmp__setjmp_signal_mask_TestEE = linkonce_odr dso_local constant { ptr, ptr, ptr } { ptr getelementptr inbounds (ptr, ptr @_ZTVN10__cxxabiv120__si_class_type_infoE, i64 2), ptr @_ZTSN7testing8internal15TestFactoryImplI31setjmp__setjmp_signal_mask_TestEE, ptr @_ZTIN7testing8internal15TestFactoryBaseE }, comdat, align 8
@_ZTVN7testing8internal15TestFactoryImplI30setjmp_setjmp_signal_mask_TestEE = linkonce_odr dso_local unnamed_addr constant { [5 x ptr] } { [5 x ptr] [ptr null, ptr @_ZTIN7testing8internal15TestFactoryImplI30setjmp_setjmp_signal_mask_TestEE, ptr @_ZN7testing8internal15TestFactoryImplI30setjmp_setjmp_signal_mask_TestED2Ev, ptr @_ZN7testing8internal15TestFactoryImplI30setjmp_setjmp_signal_mask_TestED0Ev, ptr @_ZN7testing8internal15TestFactoryImplI30setjmp_setjmp_signal_mask_TestE10CreateTestEv] }, comdat, align 8
@_ZTSN7testing8internal15TestFactoryImplI30setjmp_setjmp_signal_mask_TestEE = linkonce_odr dso_local constant [71 x i8] c"N7testing8internal15TestFactoryImplI30setjmp_setjmp_signal_mask_TestEE\00", comdat, align 1
@_ZTIN7testing8internal15TestFactoryImplI30setjmp_setjmp_signal_mask_TestEE = linkonce_odr dso_local constant { ptr, ptr, ptr } { ptr getelementptr inbounds (ptr, ptr @_ZTVN10__cxxabiv120__si_class_type_infoE, i64 2), ptr @_ZTSN7testing8internal15TestFactoryImplI30setjmp_setjmp_signal_mask_TestEE, ptr @_ZTIN7testing8internal15TestFactoryBaseE }, comdat, align 8
@_ZTVN7testing8internal15TestFactoryImplI35setjmp_sigsetjmp_0_signal_mask_TestEE = linkonce_odr dso_local unnamed_addr constant { [5 x ptr] } { [5 x ptr] [ptr null, ptr @_ZTIN7testing8internal15TestFactoryImplI35setjmp_sigsetjmp_0_signal_mask_TestEE, ptr @_ZN7testing8internal15TestFactoryImplI35setjmp_sigsetjmp_0_signal_mask_TestED2Ev, ptr @_ZN7testing8internal15TestFactoryImplI35setjmp_sigsetjmp_0_signal_mask_TestED0Ev, ptr @_ZN7testing8internal15TestFactoryImplI35setjmp_sigsetjmp_0_signal_mask_TestE10CreateTestEv] }, comdat, align 8
@_ZTSN7testing8internal15TestFactoryImplI35setjmp_sigsetjmp_0_signal_mask_TestEE = linkonce_odr dso_local constant [76 x i8] c"N7testing8internal15TestFactoryImplI35setjmp_sigsetjmp_0_signal_mask_TestEE\00", comdat, align 1
@_ZTIN7testing8internal15TestFactoryImplI35setjmp_sigsetjmp_0_signal_mask_TestEE = linkonce_odr dso_local constant { ptr, ptr, ptr } { ptr getelementptr inbounds (ptr, ptr @_ZTVN10__cxxabiv120__si_class_type_infoE, i64 2), ptr @_ZTSN7testing8internal15TestFactoryImplI35setjmp_sigsetjmp_0_signal_mask_TestEE, ptr @_ZTIN7testing8internal15TestFactoryBaseE }, comdat, align 8
@_ZTVN7testing8internal15TestFactoryImplI35setjmp_sigsetjmp_1_signal_mask_TestEE = linkonce_odr dso_local unnamed_addr constant { [5 x ptr] } { [5 x ptr] [ptr null, ptr @_ZTIN7testing8internal15TestFactoryImplI35setjmp_sigsetjmp_1_signal_mask_TestEE, ptr @_ZN7testing8internal15TestFactoryImplI35setjmp_sigsetjmp_1_signal_mask_TestED2Ev, ptr @_ZN7testing8internal15TestFactoryImplI35setjmp_sigsetjmp_1_signal_mask_TestED0Ev, ptr @_ZN7testing8internal15TestFactoryImplI35setjmp_sigsetjmp_1_signal_mask_TestE10CreateTestEv] }, comdat, align 8
@_ZTSN7testing8internal15TestFactoryImplI35setjmp_sigsetjmp_1_signal_mask_TestEE = linkonce_odr dso_local constant [76 x i8] c"N7testing8internal15TestFactoryImplI35setjmp_sigsetjmp_1_signal_mask_TestEE\00", comdat, align 1
@_ZTIN7testing8internal15TestFactoryImplI35setjmp_sigsetjmp_1_signal_mask_TestEE = linkonce_odr dso_local constant { ptr, ptr, ptr } { ptr getelementptr inbounds (ptr, ptr @_ZTVN10__cxxabiv120__si_class_type_infoE, i64 2), ptr @_ZTSN7testing8internal15TestFactoryImplI35setjmp_sigsetjmp_1_signal_mask_TestEE, ptr @_ZTIN7testing8internal15TestFactoryBaseE }, comdat, align 8
@_ZTVN7testing8internal15TestFactoryImplI31setjmp_setjmp_fp_registers_TestEE = linkonce_odr dso_local unnamed_addr constant { [5 x ptr] } { [5 x ptr] [ptr null, ptr @_ZTIN7testing8internal15TestFactoryImplI31setjmp_setjmp_fp_registers_TestEE, ptr @_ZN7testing8internal15TestFactoryImplI31setjmp_setjmp_fp_registers_TestED2Ev, ptr @_ZN7testing8internal15TestFactoryImplI31setjmp_setjmp_fp_registers_TestED0Ev, ptr @_ZN7testing8internal15TestFactoryImplI31setjmp_setjmp_fp_registers_TestE10CreateTestEv] }, comdat, align 8
@_ZTSN7testing8internal15TestFactoryImplI31setjmp_setjmp_fp_registers_TestEE = linkonce_odr dso_local constant [72 x i8] c"N7testing8internal15TestFactoryImplI31setjmp_setjmp_fp_registers_TestEE\00", comdat, align 1
@_ZTIN7testing8internal15TestFactoryImplI31setjmp_setjmp_fp_registers_TestEE = linkonce_odr dso_local constant { ptr, ptr, ptr } { ptr getelementptr inbounds (ptr, ptr @_ZTVN10__cxxabiv120__si_class_type_infoE, i64 2), ptr @_ZTSN7testing8internal15TestFactoryImplI31setjmp_setjmp_fp_registers_TestEE, ptr @_ZTIN7testing8internal15TestFactoryBaseE }, comdat, align 8
@_ZTVN7testing8internal15TestFactoryImplI35setjmp_DeathTest_setjmp_cookie_TestEE = linkonce_odr dso_local unnamed_addr constant { [5 x ptr] } { [5 x ptr] [ptr null, ptr @_ZTIN7testing8internal15TestFactoryImplI35setjmp_DeathTest_setjmp_cookie_TestEE, ptr @_ZN7testing8internal15TestFactoryImplI35setjmp_DeathTest_setjmp_cookie_TestED2Ev, ptr @_ZN7testing8internal15TestFactoryImplI35setjmp_DeathTest_setjmp_cookie_TestED0Ev, ptr @_ZN7testing8internal15TestFactoryImplI35setjmp_DeathTest_setjmp_cookie_TestE10CreateTestEv] }, comdat, align 8
@_ZTSN7testing8internal15TestFactoryImplI35setjmp_DeathTest_setjmp_cookie_TestEE = linkonce_odr dso_local constant [76 x i8] c"N7testing8internal15TestFactoryImplI35setjmp_DeathTest_setjmp_cookie_TestEE\00", comdat, align 1
@_ZTIN7testing8internal15TestFactoryImplI35setjmp_DeathTest_setjmp_cookie_TestEE = linkonce_odr dso_local constant { ptr, ptr, ptr } { ptr getelementptr inbounds (ptr, ptr @_ZTVN10__cxxabiv120__si_class_type_infoE, i64 2), ptr @_ZTSN7testing8internal15TestFactoryImplI35setjmp_DeathTest_setjmp_cookie_TestEE, ptr @_ZTIN7testing8internal15TestFactoryBaseE }, comdat, align 8
@_ZTV15SilentDeathTest = linkonce_odr dso_local unnamed_addr constant { [8 x ptr] } { [8 x ptr] [ptr null, ptr @_ZTI15SilentDeathTest, ptr @_ZN15SilentDeathTestD2Ev, ptr @_ZN15SilentDeathTestD0Ev, ptr @_ZN7testing4Test5SetUpEv, ptr @_ZN7testing4Test8TearDownEv, ptr @__cxa_pure_virtual, ptr @_ZN7testing4Test5SetupEv] }, comdat, align 8
@_ZZL18__gthread_active_pvE20__gthread_active_ptr = internal constant ptr @__pthread_key_create, align 8, !dbg !2830
@_ZTVSt15_Sp_counted_ptrIPKN7testing8internal2REELN9__gnu_cxx12_Lock_policyE2EE = linkonce_odr dso_local unnamed_addr constant { [7 x ptr] } { [7 x ptr] [ptr null, ptr @_ZTISt15_Sp_counted_ptrIPKN7testing8internal2REELN9__gnu_cxx12_Lock_policyE2EE, ptr @_ZNSt15_Sp_counted_ptrIPKN7testing8internal2REELN9__gnu_cxx12_Lock_policyE2EED2Ev, ptr @_ZNSt15_Sp_counted_ptrIPKN7testing8internal2REELN9__gnu_cxx12_Lock_policyE2EED0Ev, ptr @_ZNSt15_Sp_counted_ptrIPKN7testing8internal2REELN9__gnu_cxx12_Lock_policyE2EE10_M_disposeEv, ptr @_ZNSt15_Sp_counted_ptrIPKN7testing8internal2REELN9__gnu_cxx12_Lock_policyE2EE10_M_destroyEv, ptr @_ZNSt15_Sp_counted_ptrIPKN7testing8internal2REELN9__gnu_cxx12_Lock_policyE2EE14_M_get_deleterERKSt9type_info] }, comdat, align 8
@_ZTSSt15_Sp_counted_ptrIPKN7testing8internal2REELN9__gnu_cxx12_Lock_policyE2EE = linkonce_odr dso_local constant [75 x i8] c"St15_Sp_counted_ptrIPKN7testing8internal2REELN9__gnu_cxx12_Lock_policyE2EE\00", comdat, align 1
@_ZTSSt16_Sp_counted_baseILN9__gnu_cxx12_Lock_policyE2EE = linkonce_odr dso_local constant [52 x i8] c"St16_Sp_counted_baseILN9__gnu_cxx12_Lock_policyE2EE\00", comdat, align 1
@_ZTSSt11_Mutex_baseILN9__gnu_cxx12_Lock_policyE2EE = linkonce_odr dso_local constant [47 x i8] c"St11_Mutex_baseILN9__gnu_cxx12_Lock_policyE2EE\00", comdat, align 1
@_ZTISt11_Mutex_baseILN9__gnu_cxx12_Lock_policyE2EE = linkonce_odr dso_local constant { ptr, ptr } { ptr getelementptr inbounds (ptr, ptr @_ZTVN10__cxxabiv117__class_type_infoE, i64 2), ptr @_ZTSSt11_Mutex_baseILN9__gnu_cxx12_Lock_policyE2EE }, comdat, align 8
@_ZTISt16_Sp_counted_baseILN9__gnu_cxx12_Lock_policyE2EE = linkonce_odr dso_local constant { ptr, ptr, ptr } { ptr getelementptr inbounds (ptr, ptr @_ZTVN10__cxxabiv120__si_class_type_infoE, i64 2), ptr @_ZTSSt16_Sp_counted_baseILN9__gnu_cxx12_Lock_policyE2EE, ptr @_ZTISt11_Mutex_baseILN9__gnu_cxx12_Lock_policyE2EE }, comdat, align 8
@_ZTISt15_Sp_counted_ptrIPKN7testing8internal2REELN9__gnu_cxx12_Lock_policyE2EE = linkonce_odr dso_local constant { ptr, ptr, ptr } { ptr getelementptr inbounds (ptr, ptr @_ZTVN10__cxxabiv120__si_class_type_infoE, i64 2), ptr @_ZTSSt15_Sp_counted_ptrIPKN7testing8internal2REELN9__gnu_cxx12_Lock_policyE2EE, ptr @_ZTISt16_Sp_counted_baseILN9__gnu_cxx12_Lock_policyE2EE }, comdat, align 8
@_ZTVSt16_Sp_counted_baseILN9__gnu_cxx12_Lock_policyE2EE = linkonce_odr dso_local unnamed_addr constant { [7 x ptr] } { [7 x ptr] [ptr null, ptr @_ZTISt16_Sp_counted_baseILN9__gnu_cxx12_Lock_policyE2EE, ptr @_ZNSt16_Sp_counted_baseILN9__gnu_cxx12_Lock_policyE2EED2Ev, ptr @_ZNSt16_Sp_counted_baseILN9__gnu_cxx12_Lock_policyE2EED0Ev, ptr @__cxa_pure_virtual, ptr @_ZNSt16_Sp_counted_baseILN9__gnu_cxx12_Lock_policyE2EE10_M_destroyEv, ptr @__cxa_pure_virtual] }, comdat, align 8
@_ZTVN7testing18PolymorphicMatcherINS_8internal19MatchesRegexMatcherEE15MonomorphicImplIRKNSt7__cxx1112basic_stringIcSt11char_traitsIcESaIcEEEEE = linkonce_odr dso_local unnamed_addr constant { [7 x ptr] } { [7 x ptr] [ptr null, ptr @_ZTIN7testing18PolymorphicMatcherINS_8internal19MatchesRegexMatcherEE15MonomorphicImplIRKNSt7__cxx1112basic_stringIcSt11char_traitsIcESaIcEEEEE, ptr @_ZN7testing18PolymorphicMatcherINS_8internal19MatchesRegexMatcherEE15MonomorphicImplIRKNSt7__cxx1112basic_stringIcSt11char_traitsIcESaIcEEEED2Ev, ptr @_ZN7testing18PolymorphicMatcherINS_8internal19MatchesRegexMatcherEE15MonomorphicImplIRKNSt7__cxx1112basic_stringIcSt11char_traitsIcESaIcEEEED0Ev, ptr @_ZNK7testing18PolymorphicMatcherINS_8internal19MatchesRegexMatcherEE15MonomorphicImplIRKNSt7__cxx1112basic_stringIcSt11char_traitsIcESaIcEEEE10DescribeToEPSo, ptr @_ZNK7testing18PolymorphicMatcherINS_8internal19MatchesRegexMatcherEE15MonomorphicImplIRKNSt7__cxx1112basic_stringIcSt11char_traitsIcESaIcEEEE18DescribeNegationToEPSo, ptr @_ZNK7testing18PolymorphicMatcherINS_8internal19MatchesRegexMatcherEE15MonomorphicImplIRKNSt7__cxx1112basic_stringIcSt11char_traitsIcESaIcEEEE15MatchAndExplainESC_PNS_19MatchResultListenerE] }, comdat, align 8
@_ZTSN7testing18PolymorphicMatcherINS_8internal19MatchesRegexMatcherEE15MonomorphicImplIRKNSt7__cxx1112basic_stringIcSt11char_traitsIcESaIcEEEEE = linkonce_odr dso_local constant [140 x i8] c"N7testing18PolymorphicMatcherINS_8internal19MatchesRegexMatcherEE15MonomorphicImplIRKNSt7__cxx1112basic_stringIcSt11char_traitsIcESaIcEEEEE\00", comdat, align 1
@_ZTSN7testing16MatcherInterfaceIRKNSt7__cxx1112basic_stringIcSt11char_traitsIcESaIcEEEEE = linkonce_odr dso_local constant [85 x i8] c"N7testing16MatcherInterfaceIRKNSt7__cxx1112basic_stringIcSt11char_traitsIcESaIcEEEEE\00", comdat, align 1
@_ZTSN7testing25MatcherDescriberInterfaceE = linkonce_odr dso_local constant [38 x i8] c"N7testing25MatcherDescriberInterfaceE\00", comdat, align 1
@_ZTIN7testing25MatcherDescriberInterfaceE = linkonce_odr dso_local constant { ptr, ptr } { ptr getelementptr inbounds (ptr, ptr @_ZTVN10__cxxabiv117__class_type_infoE, i64 2), ptr @_ZTSN7testing25MatcherDescriberInterfaceE }, comdat, align 8
@_ZTIN7testing16MatcherInterfaceIRKNSt7__cxx1112basic_stringIcSt11char_traitsIcESaIcEEEEE = linkonce_odr dso_local constant { ptr, ptr, ptr } { ptr getelementptr inbounds (ptr, ptr @_ZTVN10__cxxabiv120__si_class_type_infoE, i64 2), ptr @_ZTSN7testing16MatcherInterfaceIRKNSt7__cxx1112basic_stringIcSt11char_traitsIcESaIcEEEEE, ptr @_ZTIN7testing25MatcherDescriberInterfaceE }, comdat, align 8
@_ZTIN7testing18PolymorphicMatcherINS_8internal19MatchesRegexMatcherEE15MonomorphicImplIRKNSt7__cxx1112basic_stringIcSt11char_traitsIcESaIcEEEEE = linkonce_odr dso_local constant { ptr, ptr, ptr } { ptr getelementptr inbounds (ptr, ptr @_ZTVN10__cxxabiv120__si_class_type_infoE, i64 2), ptr @_ZTSN7testing18PolymorphicMatcherINS_8internal19MatchesRegexMatcherEE15MonomorphicImplIRKNSt7__cxx1112basic_stringIcSt11char_traitsIcESaIcEEEEE, ptr @_ZTIN7testing16MatcherInterfaceIRKNSt7__cxx1112basic_stringIcSt11char_traitsIcESaIcEEEEE }, comdat, align 8
@_ZTVN7testing16MatcherInterfaceIRKNSt7__cxx1112basic_stringIcSt11char_traitsIcESaIcEEEEE = linkonce_odr dso_local unnamed_addr constant { [7 x ptr] } { [7 x ptr] [ptr null, ptr @_ZTIN7testing16MatcherInterfaceIRKNSt7__cxx1112basic_stringIcSt11char_traitsIcESaIcEEEEE, ptr @_ZN7testing16MatcherInterfaceIRKNSt7__cxx1112basic_stringIcSt11char_traitsIcESaIcEEEED2Ev, ptr @_ZN7testing16MatcherInterfaceIRKNSt7__cxx1112basic_stringIcSt11char_traitsIcESaIcEEEED0Ev, ptr @__cxa_pure_virtual, ptr @_ZNK7testing25MatcherDescriberInterface18DescribeNegationToEPSo, ptr @__cxa_pure_virtual] }, comdat, align 8
@_ZTVN7testing25MatcherDescriberInterfaceE = linkonce_odr dso_local unnamed_addr constant { [6 x ptr] } { [6 x ptr] [ptr null, ptr @_ZTIN7testing25MatcherDescriberInterfaceE, ptr @_ZN7testing25MatcherDescriberInterfaceD2Ev, ptr @_ZN7testing25MatcherDescriberInterfaceD0Ev, ptr @__cxa_pure_virtual, ptr @_ZNK7testing25MatcherDescriberInterface18DescribeNegationToEPSo] }, comdat, align 8
@.str.46 = private unnamed_addr constant [6 x i8] c"not (\00", align 1, !dbg !2835
@.str.47 = private unnamed_addr constant [2 x i8] c")\00", align 1, !dbg !2837
@.str.48 = private unnamed_addr constant [8 x i8] c"matches\00", align 1, !dbg !2839
@.str.49 = private unnamed_addr constant [9 x i8] c"contains\00", align 1, !dbg !2844
@.str.50 = private unnamed_addr constant [21 x i8] c" regular expression \00", align 1, !dbg !2849
@.str.51 = private unnamed_addr constant [9 x i8] c"doesn't \00", align 1, !dbg !2854
@.str.52 = private unnamed_addr constant [6 x i8] c"match\00", align 1, !dbg !2856
@.str.53 = private unnamed_addr constant [8 x i8] c"contain\00", align 1, !dbg !2858
@_ZTVN7testing7MatcherIRKNSt7__cxx1112basic_stringIcSt11char_traitsIcESaIcEEEEE = linkonce_odr dso_local unnamed_addr constant { [4 x ptr] } { [4 x ptr] [ptr null, ptr @_ZTIN7testing7MatcherIRKNSt7__cxx1112basic_stringIcSt11char_traitsIcESaIcEEEEE, ptr @_ZN7testing7MatcherIRKNSt7__cxx1112basic_stringIcSt11char_traitsIcESaIcEEEED2Ev, ptr @_ZN7testing7MatcherIRKNSt7__cxx1112basic_stringIcSt11char_traitsIcESaIcEEEED0Ev] }, comdat, align 8
@_ZTSN7testing7MatcherIRKNSt7__cxx1112basic_stringIcSt11char_traitsIcESaIcEEEEE = linkonce_odr dso_local constant [75 x i8] c"N7testing7MatcherIRKNSt7__cxx1112basic_stringIcSt11char_traitsIcESaIcEEEEE\00", comdat, align 1
@_ZTSN7testing8internal11MatcherBaseIRKNSt7__cxx1112basic_stringIcSt11char_traitsIcESaIcEEEEE = linkonce_odr dso_local constant [89 x i8] c"N7testing8internal11MatcherBaseIRKNSt7__cxx1112basic_stringIcSt11char_traitsIcESaIcEEEEE\00", comdat, align 1
@_ZTIN7testing8internal11MatcherBaseIRKNSt7__cxx1112basic_stringIcSt11char_traitsIcESaIcEEEEE = linkonce_odr dso_local constant { ptr, ptr } { ptr getelementptr inbounds (ptr, ptr @_ZTVN10__cxxabiv117__class_type_infoE, i64 2), ptr @_ZTSN7testing8internal11MatcherBaseIRKNSt7__cxx1112basic_stringIcSt11char_traitsIcESaIcEEEEE }, comdat, align 8
@_ZTIN7testing7MatcherIRKNSt7__cxx1112basic_stringIcSt11char_traitsIcESaIcEEEEE = linkonce_odr dso_local constant { ptr, ptr, ptr } { ptr getelementptr inbounds (ptr, ptr @_ZTVN10__cxxabiv120__si_class_type_infoE, i64 2), ptr @_ZTSN7testing7MatcherIRKNSt7__cxx1112basic_stringIcSt11char_traitsIcESaIcEEEEE, ptr @_ZTIN7testing8internal11MatcherBaseIRKNSt7__cxx1112basic_stringIcSt11char_traitsIcESaIcEEEEE }, comdat, align 8
@_ZTVN7testing8internal11MatcherBaseIRKNSt7__cxx1112basic_stringIcSt11char_traitsIcESaIcEEEEE = linkonce_odr dso_local unnamed_addr constant { [4 x ptr] } { [4 x ptr] [ptr null, ptr @_ZTIN7testing8internal11MatcherBaseIRKNSt7__cxx1112basic_stringIcSt11char_traitsIcESaIcEEEEE, ptr @_ZN7testing8internal11MatcherBaseIRKNSt7__cxx1112basic_stringIcSt11char_traitsIcESaIcEEEED2Ev, ptr @_ZN7testing8internal11MatcherBaseIRKNSt7__cxx1112basic_stringIcSt11char_traitsIcESaIcEEEED0Ev] }, comdat, align 8
@_ZTVSt15_Sp_counted_ptrIPKN7testing16MatcherInterfaceIRKNSt7__cxx1112basic_stringIcSt11char_traitsIcESaIcEEEEELN9__gnu_cxx12_Lock_policyE2EE = linkonce_odr dso_local unnamed_addr constant { [7 x ptr] } { [7 x ptr] [ptr null, ptr @_ZTISt15_Sp_counted_ptrIPKN7testing16MatcherInterfaceIRKNSt7__cxx1112basic_stringIcSt11char_traitsIcESaIcEEEEELN9__gnu_cxx12_Lock_policyE2EE, ptr @_ZNSt15_Sp_counted_ptrIPKN7testing16MatcherInterfaceIRKNSt7__cxx1112basic_stringIcSt11char_traitsIcESaIcEEEEELN9__gnu_cxx12_Lock_policyE2EED2Ev, ptr @_ZNSt15_Sp_counted_ptrIPKN7testing16MatcherInterfaceIRKNSt7__cxx1112basic_stringIcSt11char_traitsIcESaIcEEEEELN9__gnu_cxx12_Lock_policyE2EED0Ev, ptr @_ZNSt15_Sp_counted_ptrIPKN7testing16MatcherInterfaceIRKNSt7__cxx1112basic_stringIcSt11char_traitsIcESaIcEEEEELN9__gnu_cxx12_Lock_policyE2EE10_M_disposeEv, ptr @_ZNSt15_Sp_counted_ptrIPKN7testing16MatcherInterfaceIRKNSt7__cxx1112basic_stringIcSt11char_traitsIcESaIcEEEEELN9__gnu_cxx12_Lock_policyE2EE10_M_destroyEv, ptr @_ZNSt15_Sp_counted_ptrIPKN7testing16MatcherInterfaceIRKNSt7__cxx1112basic_stringIcSt11char_traitsIcESaIcEEEEELN9__gnu_cxx12_Lock_policyE2EE14_M_get_deleterERKSt9type_info] }, comdat, align 8
@_ZTSSt15_Sp_counted_ptrIPKN7testing16MatcherInterfaceIRKNSt7__cxx1112basic_stringIcSt11char_traitsIcESaIcEEEEELN9__gnu_cxx12_Lock_policyE2EE = linkonce_odr dso_local constant [137 x i8] c"St15_Sp_counted_ptrIPKN7testing16MatcherInterfaceIRKNSt7__cxx1112basic_stringIcSt11char_traitsIcESaIcEEEEELN9__gnu_cxx12_Lock_policyE2EE\00", comdat, align 1
@_ZTISt15_Sp_counted_ptrIPKN7testing16MatcherInterfaceIRKNSt7__cxx1112basic_stringIcSt11char_traitsIcESaIcEEEEELN9__gnu_cxx12_Lock_policyE2EE = linkonce_odr dso_local constant { ptr, ptr, ptr } { ptr getelementptr inbounds (ptr, ptr @_ZTVN10__cxxabiv120__si_class_type_infoE, i64 2), ptr @_ZTSSt15_Sp_counted_ptrIPKN7testing16MatcherInterfaceIRKNSt7__cxx1112basic_stringIcSt11char_traitsIcESaIcEEEEELN9__gnu_cxx12_Lock_policyE2EE, ptr @_ZTISt16_Sp_counted_baseILN9__gnu_cxx12_Lock_policyE2EE }, comdat, align 8
@_ZTVN7testing8internal15TestFactoryImplI44setjmp_DeathTest_setjmp_cookie_checksum_TestEE = linkonce_odr dso_local unnamed_addr constant { [5 x ptr] } { [5 x ptr] [ptr null, ptr @_ZTIN7testing8internal15TestFactoryImplI44setjmp_DeathTest_setjmp_cookie_checksum_TestEE, ptr @_ZN7testing8internal15TestFactoryImplI44setjmp_DeathTest_setjmp_cookie_checksum_TestED2Ev, ptr @_ZN7testing8internal15TestFactoryImplI44setjmp_DeathTest_setjmp_cookie_checksum_TestED0Ev, ptr @_ZN7testing8internal15TestFactoryImplI44setjmp_DeathTest_setjmp_cookie_checksum_TestE10CreateTestEv] }, comdat, align 8
@_ZTSN7testing8internal15TestFactoryImplI44setjmp_DeathTest_setjmp_cookie_checksum_TestEE = linkonce_odr dso_local constant [85 x i8] c"N7testing8internal15TestFactoryImplI44setjmp_DeathTest_setjmp_cookie_checksum_TestEE\00", comdat, align 1
@_ZTIN7testing8internal15TestFactoryImplI44setjmp_DeathTest_setjmp_cookie_checksum_TestEE = linkonce_odr dso_local constant { ptr, ptr, ptr } { ptr getelementptr inbounds (ptr, ptr @_ZTVN10__cxxabiv120__si_class_type_infoE, i64 2), ptr @_ZTSN7testing8internal15TestFactoryImplI44setjmp_DeathTest_setjmp_cookie_checksum_TestEE, ptr @_ZTIN7testing8internal15TestFactoryBaseE }, comdat, align 8
@_ZTVN7testing8internal15TestFactoryImplI24setjmp_setjmp_stack_TestEE = linkonce_odr dso_local unnamed_addr constant { [5 x ptr] } { [5 x ptr] [ptr null, ptr @_ZTIN7testing8internal15TestFactoryImplI24setjmp_setjmp_stack_TestEE, ptr @_ZN7testing8internal15TestFactoryImplI24setjmp_setjmp_stack_TestED2Ev, ptr @_ZN7testing8internal15TestFactoryImplI24setjmp_setjmp_stack_TestED0Ev, ptr @_ZN7testing8internal15TestFactoryImplI24setjmp_setjmp_stack_TestE10CreateTestEv] }, comdat, align 8
@_ZTSN7testing8internal15TestFactoryImplI24setjmp_setjmp_stack_TestEE = linkonce_odr dso_local constant [65 x i8] c"N7testing8internal15TestFactoryImplI24setjmp_setjmp_stack_TestEE\00", comdat, align 1
@_ZTIN7testing8internal15TestFactoryImplI24setjmp_setjmp_stack_TestEE = linkonce_odr dso_local constant { ptr, ptr, ptr } { ptr getelementptr inbounds (ptr, ptr @_ZTVN10__cxxabiv120__si_class_type_infoE, i64 2), ptr @_ZTSN7testing8internal15TestFactoryImplI24setjmp_setjmp_stack_TestEE, ptr @_ZTIN7testing8internal15TestFactoryBaseE }, comdat, align 8
@_ZTVN7testing8internal15TestFactoryImplI25setjmp_bug_152210274_TestEE = linkonce_odr dso_local unnamed_addr constant { [5 x ptr] } { [5 x ptr] [ptr null, ptr @_ZTIN7testing8internal15TestFactoryImplI25setjmp_bug_152210274_TestEE, ptr @_ZN7testing8internal15TestFactoryImplI25setjmp_bug_152210274_TestED2Ev, ptr @_ZN7testing8internal15TestFactoryImplI25setjmp_bug_152210274_TestED0Ev, ptr @_ZN7testing8internal15TestFactoryImplI25setjmp_bug_152210274_TestE10CreateTestEv] }, comdat, align 8
@_ZTSN7testing8internal15TestFactoryImplI25setjmp_bug_152210274_TestEE = linkonce_odr dso_local constant [66 x i8] c"N7testing8internal15TestFactoryImplI25setjmp_bug_152210274_TestEE\00", comdat, align 1
@_ZTIN7testing8internal15TestFactoryImplI25setjmp_bug_152210274_TestEE = linkonce_odr dso_local constant { ptr, ptr, ptr } { ptr getelementptr inbounds (ptr, ptr @_ZTVN10__cxxabiv120__si_class_type_infoE, i64 2), ptr @_ZTSN7testing8internal15TestFactoryImplI25setjmp_bug_152210274_TestEE, ptr @_ZTIN7testing8internal15TestFactoryBaseE }, comdat, align 8
@.str.54 = private unnamed_addr constant [14 x i8] c"tgkill failed\00", align 1, !dbg !2860
@.str.55 = private unnamed_addr constant [50 x i8] c"basic_string: construction from null is not valid\00", align 1, !dbg !2862
@.str.56 = private unnamed_addr constant [45 x i8] c"/usr/include/gtest/internal/gtest-internal.h\00", align 1, !dbg !2867
@.str.57 = private unnamed_addr constant [51 x i8] c"Condition !test_case_fp || !test_suite_fp failed. \00", align 1, !dbg !2872
@.str.58 = private unnamed_addr constant [107 x i8] c"Test can not provide both SetUpTestSuite and SetUpTestCase, please make sure there is only one present at \00", align 1, !dbg !2877
@.str.59 = private unnamed_addr constant [2 x i8] c":\00", align 1, !dbg !2882
@_ZSt4cerr = external global %"class.std::basic_ostream", align 8
@.str.60 = private unnamed_addr constant [112 x i8] c"Test can not provide both TearDownTestSuite and TearDownTestCase, please make sure there is only one present at\00", align 1, !dbg !2884
@_ZN7testing8internal12TypeIdHelperI15SilentDeathTestE6dummy_E = linkonce_odr dso_local global i8 0, comdat, align 1, !dbg !2889
@.str.61 = private unnamed_addr constant [3 x i8] c"!=\00", align 1, !dbg !2896
@.str.62 = private unnamed_addr constant [12 x i8] c"Expected: (\00", align 1, !dbg !2901
@.str.63 = private unnamed_addr constant [3 x i8] c") \00", align 1, !dbg !2906
@.str.64 = private unnamed_addr constant [3 x i8] c" (\00", align 1, !dbg !2908
@.str.65 = private unnamed_addr constant [12 x i8] c"), actual: \00", align 1, !dbg !2910
@.str.66 = private unnamed_addr constant [5 x i8] c" vs \00", align 1, !dbg !2912
@.str.67 = private unnamed_addr constant [7 x i8] c"(null)\00", align 1, !dbg !2917
@llvm.global_ctors = appending global [1 x { i32, ptr, ptr }] [{ i32, ptr, ptr } { i32 65535, ptr @_GLOBAL__sub_I_setjmp_test.cpp, ptr null }]

; Function Attrs: noinline uwtable
define internal void @__cxx_global_var_init() #0 section ".text.startup" personality ptr @__gxx_personality_v0 !dbg !3888 {
  %1 = alloca ptr, align 8
  %2 = alloca ptr, align 8
  %3 = alloca ptr, align 8
  %4 = alloca ptr, align 8
  %5 = alloca %"struct.testing::internal::CodeLocation", align 8
  %6 = alloca %"class.std::__cxx11::basic_string", align 8
  %7 = alloca %"class.std::allocator", align 1
  %8 = alloca ptr, align 8
  %9 = alloca i32, align 4
  store ptr %7, ptr %4, align 8
  call void @llvm.dbg.declare(metadata ptr %4, metadata !3889, metadata !DIExpression()), !dbg !3892
  %10 = load ptr, ptr %4, align 8
  store ptr %10, ptr %1, align 8
  call void @llvm.dbg.declare(metadata ptr %1, metadata !3895, metadata !DIExpression()), !dbg !3898
  %11 = load ptr, ptr %1, align 8
  invoke void @_ZNSt7__cxx1112basic_stringIcSt11char_traitsIcESaIcEEC2IS3_EEPKcRKS3_(ptr noundef nonnull align 8 dereferenceable(32) %6, ptr noundef @.str.2, ptr noundef nonnull align 1 dereferenceable(1) %7)
          to label %12 unwind label %26, !dbg !3900

12:                                               ; preds = %0
  invoke void @_ZN7testing8internal12CodeLocationC2ERKNSt7__cxx1112basic_stringIcSt11char_traitsIcESaIcEEEi(ptr noundef nonnull align 8 dereferenceable(36) %5, ptr noundef nonnull align 8 dereferenceable(32) %6, i32 noundef 36)
          to label %13 unwind label %30, !dbg !3900

13:                                               ; preds = %12
  %14 = invoke noundef ptr @_ZN7testing8internal13GetTestTypeIdEv()
          to label %15 unwind label %34, !dbg !3900

15:                                               ; preds = %13
  %16 = invoke noundef ptr @_ZN7testing8internal16SuiteApiResolverINS_4TestEE19GetSetUpCaseOrSuiteEPKci(ptr noundef @.str.2, i32 noundef 36)
          to label %17 unwind label %34, !dbg !3900

17:                                               ; preds = %15
  %18 = invoke noundef ptr @_ZN7testing8internal16SuiteApiResolverINS_4TestEE22GetTearDownCaseOrSuiteEPKci(ptr noundef @.str.2, i32 noundef 36)
          to label %19 unwind label %34, !dbg !3900

19:                                               ; preds = %17
  %20 = invoke noalias noundef nonnull ptr @_Znwm(i64 noundef 8) #18
          to label %21 unwind label %34, !dbg !3900, !heapallocsite !3901

21:                                               ; preds = %19
  invoke void @_ZN7testing8internal15TestFactoryImplI24setjmp_setjmp_smoke_TestEC2Ev(ptr noundef nonnull align 8 dereferenceable(8) %20)
          to label %22 unwind label %38, !dbg !3900

22:                                               ; preds = %21
  %23 = invoke noundef ptr @_ZN7testing8internal23MakeAndRegisterTestInfoEPKcS2_S2_S2_NS0_12CodeLocationEPKvPFvvES7_PNS0_15TestFactoryBaseE(ptr noundef @.str, ptr noundef @.str.1, ptr noundef null, ptr noundef null, ptr noundef %5, ptr noundef %14, ptr noundef %16, ptr noundef %18, ptr noundef %20)
          to label %24 unwind label %34, !dbg !3900

24:                                               ; preds = %22
  call void @_ZN7testing8internal12CodeLocationD2Ev(ptr noundef nonnull align 8 dereferenceable(36) %5) #19, !dbg !3900
  call void @_ZNSt7__cxx1112basic_stringIcSt11char_traitsIcESaIcEED1Ev(ptr noundef nonnull align 8 dereferenceable(32) %6) #19, !dbg !3900
  store ptr %7, ptr %3, align 8
  call void @llvm.dbg.declare(metadata ptr %3, metadata !3928, metadata !DIExpression()), !dbg !3930
  %25 = load ptr, ptr %3, align 8
  call void @_ZNSt15__new_allocatorIcED2Ev(ptr noundef nonnull align 1 dereferenceable(1) %25) #19, !dbg !3932
  store ptr %23, ptr @_ZN24setjmp_setjmp_smoke_Test10test_info_E, align 8, !dbg !3934
  ret void, !dbg !3900

26:                                               ; preds = %0
  %27 = landingpad { ptr, i32 }
          cleanup, !dbg !3900
  %28 = extractvalue { ptr, i32 } %27, 0, !dbg !3900
  store ptr %28, ptr %8, align 8, !dbg !3900
  %29 = extractvalue { ptr, i32 } %27, 1, !dbg !3900
  store i32 %29, ptr %9, align 4, !dbg !3900
  br label %44, !dbg !3900

30:                                               ; preds = %12
  %31 = landingpad { ptr, i32 }
          cleanup, !dbg !3900
  %32 = extractvalue { ptr, i32 } %31, 0, !dbg !3900
  store ptr %32, ptr %8, align 8, !dbg !3900
  %33 = extractvalue { ptr, i32 } %31, 1, !dbg !3900
  store i32 %33, ptr %9, align 4, !dbg !3900
  br label %43, !dbg !3900

34:                                               ; preds = %22, %19, %17, %15, %13
  %35 = landingpad { ptr, i32 }
          cleanup, !dbg !3900
  %36 = extractvalue { ptr, i32 } %35, 0, !dbg !3900
  store ptr %36, ptr %8, align 8, !dbg !3900
  %37 = extractvalue { ptr, i32 } %35, 1, !dbg !3900
  store i32 %37, ptr %9, align 4, !dbg !3900
  br label %42, !dbg !3900

38:                                               ; preds = %21
  %39 = landingpad { ptr, i32 }
          cleanup, !dbg !3900
  %40 = extractvalue { ptr, i32 } %39, 0, !dbg !3900
  store ptr %40, ptr %8, align 8, !dbg !3900
  %41 = extractvalue { ptr, i32 } %39, 1, !dbg !3900
  store i32 %41, ptr %9, align 4, !dbg !3900
  call void @_ZdlPv(ptr noundef %20) #20, !dbg !3900
  br label %42, !dbg !3900

42:                                               ; preds = %38, %34
  call void @_ZN7testing8internal12CodeLocationD2Ev(ptr noundef nonnull align 8 dereferenceable(36) %5) #19, !dbg !3900
  br label %43, !dbg !3900

43:                                               ; preds = %42, %30
  call void @_ZNSt7__cxx1112basic_stringIcSt11char_traitsIcESaIcEED1Ev(ptr noundef nonnull align 8 dereferenceable(32) %6) #19, !dbg !3900
  br label %44, !dbg !3900

44:                                               ; preds = %43, %26
  store ptr %7, ptr %2, align 8
  call void @llvm.dbg.declare(metadata ptr %2, metadata !3928, metadata !DIExpression()), !dbg !3935
  %45 = load ptr, ptr %2, align 8
  call void @_ZNSt15__new_allocatorIcED2Ev(ptr noundef nonnull align 1 dereferenceable(1) %45) #19, !dbg !3937
  br label %46, !dbg !3900

46:                                               ; preds = %44
  %47 = load ptr, ptr %8, align 8, !dbg !3900
  %48 = load i32, ptr %9, align 4, !dbg !3900
  %49 = insertvalue { ptr, i32 } poison, ptr %47, 0, !dbg !3900
  %50 = insertvalue { ptr, i32 } %49, i32 %48, 1, !dbg !3900
  resume { ptr, i32 } %50, !dbg !3900
}

declare noundef ptr @_ZN7testing8internal23MakeAndRegisterTestInfoEPKcS2_S2_S2_NS0_12CodeLocationEPKvPFvvES7_PNS0_15TestFactoryBaseE(ptr noundef, ptr noundef, ptr noundef, ptr noundef, ptr noundef, ptr noundef, ptr noundef, ptr noundef, ptr noundef) #1

; Function Attrs: noinline uwtable
define linkonce_odr dso_local void @_ZNSt7__cxx1112basic_stringIcSt11char_traitsIcESaIcEEC2IS3_EEPKcRKS3_(ptr noundef nonnull align 8 dereferenceable(32) %0, ptr noundef %1, ptr noundef nonnull align 1 dereferenceable(1) %2) unnamed_addr #0 comdat align 2 personality ptr @__gxx_personality_v0 !dbg !3938 {
  %4 = alloca ptr, align 8
  %5 = alloca ptr, align 8
  %6 = alloca ptr, align 8
  %7 = alloca ptr, align 8
  %8 = alloca i32, align 4
  %9 = alloca ptr, align 8
  %10 = alloca %"struct.std::forward_iterator_tag", align 1
  store ptr %0, ptr %4, align 8
  call void @llvm.dbg.declare(metadata ptr %4, metadata !3944, metadata !DIExpression()), !dbg !3945
  store ptr %1, ptr %5, align 8
  call void @llvm.dbg.declare(metadata ptr %5, metadata !3946, metadata !DIExpression()), !dbg !3947
  store ptr %2, ptr %6, align 8
  call void @llvm.dbg.declare(metadata ptr %6, metadata !3948, metadata !DIExpression()), !dbg !3949
  %11 = load ptr, ptr %4, align 8
  %12 = getelementptr inbounds %"class.std::__cxx11::basic_string", ptr %11, i32 0, i32 0, !dbg !3950
  %13 = call noundef ptr @_ZNSt7__cxx1112basic_stringIcSt11char_traitsIcESaIcEE13_M_local_dataEv(ptr noundef nonnull align 8 dereferenceable(32) %11), !dbg !3951
  %14 = load ptr, ptr %6, align 8, !dbg !3952
  call void @_ZNSt7__cxx1112basic_stringIcSt11char_traitsIcESaIcEE12_Alloc_hiderC1EPcRKS3_(ptr noundef nonnull align 8 dereferenceable(8) %12, ptr noundef %13, ptr noundef nonnull align 1 dereferenceable(1) %14), !dbg !3950
  %15 = load ptr, ptr %5, align 8, !dbg !3953
  %16 = icmp eq ptr %15, null, !dbg !3956
  br i1 %16, label %17, label %23, !dbg !3957

17:                                               ; preds = %3
  invoke void @_ZSt19__throw_logic_errorPKc(ptr noundef @.str.55) #21
          to label %18 unwind label %19, !dbg !3958

18:                                               ; preds = %17
  unreachable, !dbg !3958

19:                                               ; preds = %27, %23, %17
  %20 = landingpad { ptr, i32 }
          cleanup, !dbg !3959
  %21 = extractvalue { ptr, i32 } %20, 0, !dbg !3959
  store ptr %21, ptr %7, align 8, !dbg !3959
  %22 = extractvalue { ptr, i32 } %20, 1, !dbg !3959
  store i32 %22, ptr %8, align 4, !dbg !3959
  call void @_ZNSt7__cxx1112basic_stringIcSt11char_traitsIcESaIcEE12_Alloc_hiderD2Ev(ptr noundef nonnull align 8 dereferenceable(8) %12) #19, !dbg !3960
  br label %32, !dbg !3960

23:                                               ; preds = %3
  call void @llvm.dbg.declare(metadata ptr %9, metadata !3961, metadata !DIExpression()), !dbg !3962
  %24 = load ptr, ptr %5, align 8, !dbg !3963
  %25 = load ptr, ptr %5, align 8, !dbg !3964
  %26 = invoke noundef i64 @_ZNSt11char_traitsIcE6lengthEPKc(ptr noundef %25)
          to label %27 unwind label %19, !dbg !3965

27:                                               ; preds = %23
  %28 = getelementptr inbounds i8, ptr %24, i64 %26, !dbg !3966
  store ptr %28, ptr %9, align 8, !dbg !3962
  %29 = load ptr, ptr %5, align 8, !dbg !3967
  %30 = load ptr, ptr %9, align 8, !dbg !3968
  invoke void @_ZNSt7__cxx1112basic_stringIcSt11char_traitsIcESaIcEE12_M_constructIPKcEEvT_S8_St20forward_iterator_tag(ptr noundef nonnull align 8 dereferenceable(32) %11, ptr noundef %29, ptr noundef %30)
          to label %31 unwind label %19, !dbg !3969

31:                                               ; preds = %27
  ret void, !dbg !3970

32:                                               ; preds = %19
  %33 = load ptr, ptr %7, align 8, !dbg !3960
  %34 = load i32, ptr %8, align 4, !dbg !3960
  %35 = insertvalue { ptr, i32 } poison, ptr %33, 0, !dbg !3960
  %36 = insertvalue { ptr, i32 } %35, i32 %34, 1, !dbg !3960
  resume { ptr, i32 } %36, !dbg !3960
}

declare i32 @__gxx_personality_v0(...)

; Function Attrs: noinline uwtable
define linkonce_odr dso_local void @_ZN7testing8internal12CodeLocationC2ERKNSt7__cxx1112basic_stringIcSt11char_traitsIcESaIcEEEi(ptr noundef nonnull align 8 dereferenceable(36) %0, ptr noundef nonnull align 8 dereferenceable(32) %1, i32 noundef %2) unnamed_addr #0 comdat align 2 !dbg !3971 {
  %4 = alloca ptr, align 8
  %5 = alloca ptr, align 8
  %6 = alloca i32, align 4
  store ptr %0, ptr %4, align 8
  call void @llvm.dbg.declare(metadata ptr %4, metadata !3972, metadata !DIExpression()), !dbg !3974
  store ptr %1, ptr %5, align 8
  call void @llvm.dbg.declare(metadata ptr %5, metadata !3975, metadata !DIExpression()), !dbg !3976
  store i32 %2, ptr %6, align 4
  call void @llvm.dbg.declare(metadata ptr %6, metadata !3977, metadata !DIExpression()), !dbg !3978
  %7 = load ptr, ptr %4, align 8
  %8 = getelementptr inbounds %"struct.testing::internal::CodeLocation", ptr %7, i32 0, i32 0, !dbg !3979
  %9 = load ptr, ptr %5, align 8, !dbg !3980
  call void @_ZNSt7__cxx1112basic_stringIcSt11char_traitsIcESaIcEEC1ERKS4_(ptr noundef nonnull align 8 dereferenceable(32) %8, ptr noundef nonnull align 8 dereferenceable(32) %9), !dbg !3979
  %10 = getelementptr inbounds %"struct.testing::internal::CodeLocation", ptr %7, i32 0, i32 1, !dbg !3981
  %11 = load i32, ptr %6, align 4, !dbg !3982
  store i32 %11, ptr %10, align 8, !dbg !3981
  ret void, !dbg !3983
}

declare noundef ptr @_ZN7testing8internal13GetTestTypeIdEv() #1

; Function Attrs: mustprogress noinline uwtable
define linkonce_odr dso_local noundef ptr @_ZN7testing8internal16SuiteApiResolverINS_4TestEE19GetSetUpCaseOrSuiteEPKci(ptr noundef %0, i32 noundef %1) #2 comdat align 2 personality ptr @__gxx_personality_v0 !dbg !3984 {
  %3 = alloca ptr, align 8
  %4 = alloca i32, align 4
  %5 = alloca ptr, align 8
  %6 = alloca ptr, align 8
  %7 = alloca %"class.testing::internal::GTestLog", align 4
  %8 = alloca ptr, align 8
  %9 = alloca i32, align 4
  store ptr %0, ptr %3, align 8
  call void @llvm.dbg.declare(metadata ptr %3, metadata !3990, metadata !DIExpression()), !dbg !3991
  store i32 %1, ptr %4, align 4
  call void @llvm.dbg.declare(metadata ptr %4, metadata !3992, metadata !DIExpression()), !dbg !3993
  call void @llvm.dbg.declare(metadata ptr %5, metadata !3994, metadata !DIExpression()), !dbg !3995
  %10 = call noundef ptr @_ZN7testing8internal19GetNotDefaultOrNullEPFvvES2_(ptr noundef @_ZN7testing4Test13SetUpTestCaseEv, ptr noundef @_ZN7testing4Test13SetUpTestCaseEv), !dbg !3996
  store ptr %10, ptr %5, align 8, !dbg !3995
  call void @llvm.dbg.declare(metadata ptr %6, metadata !3997, metadata !DIExpression()), !dbg !3998
  %11 = call noundef ptr @_ZN7testing8internal19GetNotDefaultOrNullEPFvvES2_(ptr noundef @_ZN7testing4Test14SetUpTestSuiteEv, ptr noundef @_ZN7testing4Test14SetUpTestSuiteEv), !dbg !3999
  store ptr %11, ptr %6, align 8, !dbg !3998
  %12 = load ptr, ptr %5, align 8, !dbg !4000
  %13 = icmp ne ptr %12, null, !dbg !4000
  br i1 %13, label %14, label %18, !dbg !4000

14:                                               ; preds = %2
  %15 = load ptr, ptr %6, align 8, !dbg !4000
  %16 = icmp ne ptr %15, null, !dbg !4000
  %17 = xor i1 %16, true, !dbg !4000
  br label %18, !dbg !4000

18:                                               ; preds = %14, %2
  %19 = phi i1 [ true, %2 ], [ %17, %14 ]
  %20 = call noundef zeroext i1 @_ZN7testing8internal6IsTrueEb(i1 noundef zeroext %19), !dbg !4000
  br i1 %20, label %21, label %22, !dbg !4002

21:                                               ; preds = %18
  br label %41, !dbg !4002

22:                                               ; preds = %18
  call void @_ZN7testing8internal8GTestLogC1ENS0_16GTestLogSeverityEPKci(ptr noundef nonnull align 4 dereferenceable(4) %7, i32 noundef 3, ptr noundef @.str.56, i32 noundef 516), !dbg !4000
  %23 = invoke noundef nonnull align 8 dereferenceable(8) ptr @_ZN7testing8internal8GTestLog9GetStreamEv(ptr noundef nonnull align 4 dereferenceable(4) %7)
          to label %24 unwind label %37, !dbg !4000

24:                                               ; preds = %22
  %25 = invoke noundef nonnull align 8 dereferenceable(8) ptr @_ZStlsISt11char_traitsIcEERSt13basic_ostreamIcT_ES5_PKc(ptr noundef nonnull align 8 dereferenceable(8) %23, ptr noundef @.str.57)
          to label %26 unwind label %37, !dbg !4000

26:                                               ; preds = %24
  %27 = invoke noundef nonnull align 8 dereferenceable(8) ptr @_ZStlsISt11char_traitsIcEERSt13basic_ostreamIcT_ES5_PKc(ptr noundef nonnull align 8 dereferenceable(8) %25, ptr noundef @.str.58)
          to label %28 unwind label %37, !dbg !4003

28:                                               ; preds = %26
  %29 = load ptr, ptr %3, align 8, !dbg !4004
  %30 = invoke noundef nonnull align 8 dereferenceable(8) ptr @_ZStlsISt11char_traitsIcEERSt13basic_ostreamIcT_ES5_PKc(ptr noundef nonnull align 8 dereferenceable(8) %27, ptr noundef %29)
          to label %31 unwind label %37, !dbg !4005

31:                                               ; preds = %28
  %32 = invoke noundef nonnull align 8 dereferenceable(8) ptr @_ZStlsISt11char_traitsIcEERSt13basic_ostreamIcT_ES5_PKc(ptr noundef nonnull align 8 dereferenceable(8) %30, ptr noundef @.str.59)
          to label %33 unwind label %37, !dbg !4006

33:                                               ; preds = %31
  %34 = load i32, ptr %4, align 4, !dbg !4007
  %35 = invoke noundef nonnull align 8 dereferenceable(8) ptr @_ZNSolsEi(ptr noundef nonnull align 8 dereferenceable(8) %32, i32 noundef %34)
          to label %36 unwind label %37, !dbg !4008

36:                                               ; preds = %33
  call void @_ZN7testing8internal8GTestLogD1Ev(ptr noundef nonnull align 4 dereferenceable(4) %7) #19, !dbg !4000
  br label %41

37:                                               ; preds = %33, %31, %28, %26, %24, %22
  %38 = landingpad { ptr, i32 }
          cleanup, !dbg !4009
  %39 = extractvalue { ptr, i32 } %38, 0, !dbg !4009
  store ptr %39, ptr %8, align 8, !dbg !4009
  %40 = extractvalue { ptr, i32 } %38, 1, !dbg !4009
  store i32 %40, ptr %9, align 4, !dbg !4009
  call void @_ZN7testing8internal8GTestLogD1Ev(ptr noundef nonnull align 4 dereferenceable(4) %7) #19, !dbg !4000
  br label %50, !dbg !4000

41:                                               ; preds = %36, %21
  %42 = load ptr, ptr %5, align 8, !dbg !4010
  %43 = icmp ne ptr %42, null, !dbg !4011
  br i1 %43, label %44, label %46, !dbg !4010

44:                                               ; preds = %41
  %45 = load ptr, ptr %5, align 8, !dbg !4012
  br label %48, !dbg !4010

46:                                               ; preds = %41
  %47 = load ptr, ptr %6, align 8, !dbg !4013
  br label %48, !dbg !4010

48:                                               ; preds = %46, %44
  %49 = phi ptr [ %45, %44 ], [ %47, %46 ], !dbg !4010
  ret ptr %49, !dbg !4014

50:                                               ; preds = %37
  %51 = load ptr, ptr %8, align 8, !dbg !4000
  %52 = load i32, ptr %9, align 4, !dbg !4000
  %53 = insertvalue { ptr, i32 } poison, ptr %51, 0, !dbg !4000
  %54 = insertvalue { ptr, i32 } %53, i32 %52, 1, !dbg !4000
  resume { ptr, i32 } %54, !dbg !4000
}

; Function Attrs: mustprogress noinline uwtable
define linkonce_odr dso_local noundef ptr @_ZN7testing8internal16SuiteApiResolverINS_4TestEE22GetTearDownCaseOrSuiteEPKci(ptr noundef %0, i32 noundef %1) #2 comdat align 2 personality ptr @__gxx_personality_v0 !dbg !4015 {
  %3 = alloca ptr, align 8
  %4 = alloca i32, align 4
  %5 = alloca ptr, align 8
  %6 = alloca ptr, align 8
  %7 = alloca %"class.testing::internal::GTestLog", align 4
  %8 = alloca ptr, align 8
  %9 = alloca i32, align 4
  store ptr %0, ptr %3, align 8
  call void @llvm.dbg.declare(metadata ptr %3, metadata !4017, metadata !DIExpression()), !dbg !4018
  store i32 %1, ptr %4, align 4
  call void @llvm.dbg.declare(metadata ptr %4, metadata !4019, metadata !DIExpression()), !dbg !4020
  call void @llvm.dbg.declare(metadata ptr %5, metadata !4021, metadata !DIExpression()), !dbg !4022
  %10 = call noundef ptr @_ZN7testing8internal19GetNotDefaultOrNullEPFvvES2_(ptr noundef @_ZN7testing4Test16TearDownTestCaseEv, ptr noundef @_ZN7testing4Test16TearDownTestCaseEv), !dbg !4023
  store ptr %10, ptr %5, align 8, !dbg !4022
  call void @llvm.dbg.declare(metadata ptr %6, metadata !4024, metadata !DIExpression()), !dbg !4025
  %11 = call noundef ptr @_ZN7testing8internal19GetNotDefaultOrNullEPFvvES2_(ptr noundef @_ZN7testing4Test17TearDownTestSuiteEv, ptr noundef @_ZN7testing4Test17TearDownTestSuiteEv), !dbg !4026
  store ptr %11, ptr %6, align 8, !dbg !4025
  %12 = load ptr, ptr %5, align 8, !dbg !4027
  %13 = icmp ne ptr %12, null, !dbg !4027
  br i1 %13, label %14, label %18, !dbg !4027

14:                                               ; preds = %2
  %15 = load ptr, ptr %6, align 8, !dbg !4027
  %16 = icmp ne ptr %15, null, !dbg !4027
  %17 = xor i1 %16, true, !dbg !4027
  br label %18, !dbg !4027

18:                                               ; preds = %14, %2
  %19 = phi i1 [ true, %2 ], [ %17, %14 ]
  %20 = call noundef zeroext i1 @_ZN7testing8internal6IsTrueEb(i1 noundef zeroext %19), !dbg !4027
  br i1 %20, label %21, label %22, !dbg !4029

21:                                               ; preds = %18
  br label %40, !dbg !4029

22:                                               ; preds = %18
  call void @_ZN7testing8internal8GTestLogC1ENS0_16GTestLogSeverityEPKci(ptr noundef nonnull align 4 dereferenceable(4) %7, i32 noundef 3, ptr noundef @.str.56, i32 noundef 531), !dbg !4027
  %23 = call noundef nonnull align 8 dereferenceable(8) ptr @_ZN7testing8internal8GTestLog9GetStreamEv(ptr noundef nonnull align 4 dereferenceable(4) %7), !dbg !4027
  %24 = invoke noundef nonnull align 8 dereferenceable(8) ptr @_ZStlsISt11char_traitsIcEERSt13basic_ostreamIcT_ES5_PKc(ptr noundef nonnull align 8 dereferenceable(8) %23, ptr noundef @.str.57)
          to label %25 unwind label %36, !dbg !4027

25:                                               ; preds = %22
  %26 = invoke noundef nonnull align 8 dereferenceable(8) ptr @_ZStlsISt11char_traitsIcEERSt13basic_ostreamIcT_ES5_PKc(ptr noundef nonnull align 8 dereferenceable(8) %24, ptr noundef @.str.60)
          to label %27 unwind label %36, !dbg !4030

27:                                               ; preds = %25
  %28 = load ptr, ptr %3, align 8, !dbg !4031
  %29 = invoke noundef nonnull align 8 dereferenceable(8) ptr @_ZStlsISt11char_traitsIcEERSt13basic_ostreamIcT_ES5_PKc(ptr noundef nonnull align 8 dereferenceable(8) %26, ptr noundef %28)
          to label %30 unwind label %36, !dbg !4032

30:                                               ; preds = %27
  %31 = invoke noundef nonnull align 8 dereferenceable(8) ptr @_ZStlsISt11char_traitsIcEERSt13basic_ostreamIcT_ES5_PKc(ptr noundef nonnull align 8 dereferenceable(8) %29, ptr noundef @.str.59)
          to label %32 unwind label %36, !dbg !4033

32:                                               ; preds = %30
  %33 = load i32, ptr %4, align 4, !dbg !4034
  %34 = invoke noundef nonnull align 8 dereferenceable(8) ptr @_ZNSolsEi(ptr noundef nonnull align 8 dereferenceable(8) %31, i32 noundef %33)
          to label %35 unwind label %36, !dbg !4035

35:                                               ; preds = %32
  call void @_ZN7testing8internal8GTestLogD1Ev(ptr noundef nonnull align 4 dereferenceable(4) %7) #19, !dbg !4027
  br label %40

36:                                               ; preds = %32, %30, %27, %25, %22
  %37 = landingpad { ptr, i32 }
          cleanup, !dbg !4036
  %38 = extractvalue { ptr, i32 } %37, 0, !dbg !4036
  store ptr %38, ptr %8, align 8, !dbg !4036
  %39 = extractvalue { ptr, i32 } %37, 1, !dbg !4036
  store i32 %39, ptr %9, align 4, !dbg !4036
  call void @_ZN7testing8internal8GTestLogD1Ev(ptr noundef nonnull align 4 dereferenceable(4) %7) #19, !dbg !4027
  br label %49, !dbg !4027

40:                                               ; preds = %35, %21
  %41 = load ptr, ptr %5, align 8, !dbg !4037
  %42 = icmp ne ptr %41, null, !dbg !4038
  br i1 %42, label %43, label %45, !dbg !4037

43:                                               ; preds = %40
  %44 = load ptr, ptr %5, align 8, !dbg !4039
  br label %47, !dbg !4037

45:                                               ; preds = %40
  %46 = load ptr, ptr %6, align 8, !dbg !4040
  br label %47, !dbg !4037

47:                                               ; preds = %45, %43
  %48 = phi ptr [ %44, %43 ], [ %46, %45 ], !dbg !4037
  ret ptr %48, !dbg !4041

49:                                               ; preds = %36
  %50 = load ptr, ptr %8, align 8, !dbg !4027
  %51 = load i32, ptr %9, align 4, !dbg !4027
  %52 = insertvalue { ptr, i32 } poison, ptr %50, 0, !dbg !4027
  %53 = insertvalue { ptr, i32 } %52, i32 %51, 1, !dbg !4027
  resume { ptr, i32 } %53, !dbg !4027
}

; Function Attrs: nobuiltin allocsize(0)
declare noundef nonnull ptr @_Znwm(i64 noundef) #3

; Function Attrs: noinline uwtable
define linkonce_odr dso_local void @_ZN7testing8internal15TestFactoryImplI24setjmp_setjmp_smoke_TestEC2Ev(ptr noundef nonnull align 8 dereferenceable(8) %0) unnamed_addr #0 comdat align 2 !dbg !4042 {
  %2 = alloca ptr, align 8
  store ptr %0, ptr %2, align 8
  call void @llvm.dbg.declare(metadata ptr %2, metadata !4046, metadata !DIExpression()), !dbg !4048
  %3 = load ptr, ptr %2, align 8
  call void @_ZN7testing8internal15TestFactoryBaseC2Ev(ptr noundef nonnull align 8 dereferenceable(8) %3), !dbg !4049
  store ptr getelementptr inbounds ({ [5 x ptr] }, ptr @_ZTVN7testing8internal15TestFactoryImplI24setjmp_setjmp_smoke_TestEE, i32 0, inrange i32 0, i32 2), ptr %3, align 8, !dbg !4049
  ret void, !dbg !4049
}

; Function Attrs: nobuiltin nounwind
declare void @_ZdlPv(ptr noundef) #4

; Function Attrs: noinline nounwind uwtable
define linkonce_odr dso_local void @_ZN7testing8internal12CodeLocationD2Ev(ptr noundef nonnull align 8 dereferenceable(36) %0) unnamed_addr #5 comdat align 2 !dbg !4050 {
  %2 = alloca ptr, align 8
  store ptr %0, ptr %2, align 8
  call void @llvm.dbg.declare(metadata ptr %2, metadata !4054, metadata !DIExpression()), !dbg !4055
  %3 = load ptr, ptr %2, align 8
  %4 = getelementptr inbounds %"struct.testing::internal::CodeLocation", ptr %3, i32 0, i32 0, !dbg !4056
  call void @_ZNSt7__cxx1112basic_stringIcSt11char_traitsIcESaIcEED1Ev(ptr noundef nonnull align 8 dereferenceable(32) %4) #19, !dbg !4056
  ret void, !dbg !4058
}

; Function Attrs: nounwind
declare void @_ZNSt7__cxx1112basic_stringIcSt11char_traitsIcESaIcEED1Ev(ptr noundef nonnull align 8 dereferenceable(32)) unnamed_addr #6

; Function Attrs: mustprogress noinline uwtable
define dso_local void @_ZN24setjmp_setjmp_smoke_Test8TestBodyEv(ptr noundef nonnull align 8 dereferenceable(16) %0) unnamed_addr #2 align 2 personality ptr @__gxx_personality_v0 !dbg !4059 {
  %2 = alloca ptr, align 8
  %3 = alloca i32, align 4
  %4 = alloca [1 x %struct.__jmp_buf_tag], align 16
  %5 = alloca %"class.testing::AssertionResult", align 8
  %6 = alloca i32, align 4
  %7 = alloca ptr, align 8
  %8 = alloca i32, align 4
  %9 = alloca %"class.testing::Message", align 8
  %10 = alloca %"class.testing::internal::AssertHelper", align 8
  %11 = alloca i32, align 4
  store ptr %0, ptr %2, align 8
  call void @llvm.dbg.declare(metadata ptr %2, metadata !4060, metadata !DIExpression()), !dbg !4062
  %12 = load ptr, ptr %2, align 8
  call void @llvm.dbg.declare(metadata ptr %3, metadata !4063, metadata !DIExpression()), !dbg !4064
  call void @llvm.dbg.declare(metadata ptr %4, metadata !4065, metadata !DIExpression()), !dbg !4077
  %13 = getelementptr inbounds [1 x %struct.__jmp_buf_tag], ptr %4, i64 0, i64 0, !dbg !4078
  %14 = call i32 @_setjmp(ptr noundef %13) #22, !dbg !4078
  store i32 %14, ptr %3, align 4, !dbg !4080
  %15 = icmp eq i32 %14, 0, !dbg !4081
  br i1 %15, label %16, label %18, !dbg !4082

16:                                               ; preds = %1
  %17 = getelementptr inbounds [1 x %struct.__jmp_buf_tag], ptr %4, i64 0, i64 0, !dbg !4083
  call void @longjmp(ptr noundef %17, i32 noundef 123) #23, !dbg !4085
  unreachable, !dbg !4085

18:                                               ; preds = %1
  call void @llvm.dbg.declare(metadata ptr %5, metadata !4086, metadata !DIExpression()), !dbg !4091
  store i32 123, ptr %6, align 4, !dbg !4091
  call void @_ZN7testing8internal8EqHelper7CompareIiiLPv0EEENS_15AssertionResultEPKcS6_RKT_RKT0_(ptr sret(%"class.testing::AssertionResult") align 8 %5, ptr noundef @.str.3, ptr noundef @.str.4, ptr noundef nonnull align 4 dereferenceable(4) %6, ptr noundef nonnull align 4 dereferenceable(4) %3), !dbg !4091
  %19 = invoke noundef zeroext i1 @_ZNK7testing15AssertionResultcvbEv(ptr noundef nonnull align 8 dereferenceable(16) %5)
          to label %20 unwind label %22, !dbg !4091

20:                                               ; preds = %18
  br i1 %19, label %21, label %26, !dbg !4092

21:                                               ; preds = %20
  br label %41, !dbg !4092

22:                                               ; preds = %26, %18
  %23 = landingpad { ptr, i32 }
          cleanup, !dbg !4093
  %24 = extractvalue { ptr, i32 } %23, 0, !dbg !4093
  store ptr %24, ptr %7, align 8, !dbg !4093
  %25 = extractvalue { ptr, i32 } %23, 1, !dbg !4093
  store i32 %25, ptr %8, align 4, !dbg !4093
  br label %45, !dbg !4093

26:                                               ; preds = %20
  invoke void @_ZN7testing7MessageC1Ev(ptr noundef nonnull align 8 dereferenceable(8) %9)
          to label %27 unwind label %22, !dbg !4091

27:                                               ; preds = %26
  %28 = invoke noundef ptr @_ZNK7testing15AssertionResult15failure_messageEv(ptr noundef nonnull align 8 dereferenceable(16) %5)
          to label %29 unwind label %32, !dbg !4091

29:                                               ; preds = %27
  invoke void @_ZN7testing8internal12AssertHelperC1ENS_14TestPartResult4TypeEPKciS5_(ptr noundef nonnull align 8 dereferenceable(8) %10, i32 noundef 2, ptr noundef @.str.2, i32 noundef 43, ptr noundef %28)
          to label %30 unwind label %32, !dbg !4091

30:                                               ; preds = %29
  invoke void @_ZNK7testing8internal12AssertHelperaSERKNS_7MessageE(ptr noundef nonnull align 8 dereferenceable(8) %10, ptr noundef nonnull align 8 dereferenceable(8) %9)
          to label %31 unwind label %36, !dbg !4091

31:                                               ; preds = %30
  call void @_ZN7testing8internal12AssertHelperD1Ev(ptr noundef nonnull align 8 dereferenceable(8) %10) #19, !dbg !4091
  call void @_ZN7testing7MessageD2Ev(ptr noundef nonnull align 8 dereferenceable(8) %9) #19, !dbg !4091
  store i32 1, ptr %11, align 4
  br label %42, !dbg !4091

32:                                               ; preds = %29, %27
  %33 = landingpad { ptr, i32 }
          cleanup, !dbg !4093
  %34 = extractvalue { ptr, i32 } %33, 0, !dbg !4093
  store ptr %34, ptr %7, align 8, !dbg !4093
  %35 = extractvalue { ptr, i32 } %33, 1, !dbg !4093
  store i32 %35, ptr %8, align 4, !dbg !4093
  br label %40, !dbg !4093

36:                                               ; preds = %30
  %37 = landingpad { ptr, i32 }
          cleanup, !dbg !4093
  %38 = extractvalue { ptr, i32 } %37, 0, !dbg !4093
  store ptr %38, ptr %7, align 8, !dbg !4093
  %39 = extractvalue { ptr, i32 } %37, 1, !dbg !4093
  store i32 %39, ptr %8, align 4, !dbg !4093
  call void @_ZN7testing8internal12AssertHelperD1Ev(ptr noundef nonnull align 8 dereferenceable(8) %10) #19, !dbg !4091
  br label %40, !dbg !4091

40:                                               ; preds = %36, %32
  call void @_ZN7testing7MessageD2Ev(ptr noundef nonnull align 8 dereferenceable(8) %9) #19, !dbg !4091
  br label %45, !dbg !4091

41:                                               ; preds = %21
  store i32 0, ptr %11, align 4, !dbg !4092
  br label %42, !dbg !4092

42:                                               ; preds = %41, %31
  call void @_ZN7testing15AssertionResultD2Ev(ptr noundef nonnull align 8 dereferenceable(16) %5) #19, !dbg !4092
  %43 = load i32, ptr %11, align 4
  switch i32 %43, label %52 [
    i32 0, label %44
    i32 1, label %46
  ]

44:                                               ; preds = %42
  br label %46

45:                                               ; preds = %40, %22
  call void @_ZN7testing15AssertionResultD2Ev(ptr noundef nonnull align 8 dereferenceable(16) %5) #19, !dbg !4092
  br label %47, !dbg !4092

46:                                               ; preds = %42, %44
  ret void, !dbg !4094

47:                                               ; preds = %45
  %48 = load ptr, ptr %7, align 8, !dbg !4092
  %49 = load i32, ptr %8, align 4, !dbg !4092
  %50 = insertvalue { ptr, i32 } poison, ptr %48, 0, !dbg !4092
  %51 = insertvalue { ptr, i32 } %50, i32 %49, 1, !dbg !4092
  resume { ptr, i32 } %51, !dbg !4092

52:                                               ; preds = %42
  unreachable
}

; Function Attrs: nocallback nofree nosync nounwind speculatable willreturn memory(none)
declare void @llvm.dbg.declare(metadata, metadata, metadata) #7

; Function Attrs: nounwind returns_twice
declare i32 @_setjmp(ptr noundef) #8

; Function Attrs: noreturn nounwind
declare void @longjmp(ptr noundef, i32 noundef) #9

; Function Attrs: mustprogress noinline uwtable
define linkonce_odr dso_local void @_ZN7testing8internal8EqHelper7CompareIiiLPv0EEENS_15AssertionResultEPKcS6_RKT_RKT0_(ptr noalias sret(%"class.testing::AssertionResult") align 8 %0, ptr noundef %1, ptr noundef %2, ptr noundef nonnull align 4 dereferenceable(4) %3, ptr noundef nonnull align 4 dereferenceable(4) %4) #2 comdat align 2 !dbg !4095 {
  %6 = alloca ptr, align 8
  %7 = alloca ptr, align 8
  %8 = alloca ptr, align 8
  %9 = alloca ptr, align 8
  %10 = alloca ptr, align 8
  store ptr %0, ptr %6, align 8
  store ptr %1, ptr %7, align 8
  call void @llvm.dbg.declare(metadata ptr %7, metadata !4109, metadata !DIExpression()), !dbg !4110
  store ptr %2, ptr %8, align 8
  call void @llvm.dbg.declare(metadata ptr %8, metadata !4111, metadata !DIExpression()), !dbg !4112
  store ptr %3, ptr %9, align 8
  call void @llvm.dbg.declare(metadata ptr %9, metadata !4113, metadata !DIExpression()), !dbg !4114
  store ptr %4, ptr %10, align 8
  call void @llvm.dbg.declare(metadata ptr %10, metadata !4115, metadata !DIExpression()), !dbg !4116
  %11 = load ptr, ptr %7, align 8, !dbg !4117
  %12 = load ptr, ptr %8, align 8, !dbg !4118
  %13 = load ptr, ptr %9, align 8, !dbg !4119
  %14 = load ptr, ptr %10, align 8, !dbg !4120
  call void @_ZN7testing8internal11CmpHelperEQIiiEENS_15AssertionResultEPKcS4_RKT_RKT0_(ptr sret(%"class.testing::AssertionResult") align 8 %0, ptr noundef %11, ptr noundef %12, ptr noundef nonnull align 4 dereferenceable(4) %13, ptr noundef nonnull align 4 dereferenceable(4) %14), !dbg !4121
  ret void, !dbg !4122
}

; Function Attrs: mustprogress noinline nounwind uwtable
define linkonce_odr dso_local noundef zeroext i1 @_ZNK7testing15AssertionResultcvbEv(ptr noundef nonnull align 8 dereferenceable(16) %0) #10 comdat align 2 !dbg !4123 {
  %2 = alloca ptr, align 8
  store ptr %0, ptr %2, align 8
  call void @llvm.dbg.declare(metadata ptr %2, metadata !4128, metadata !DIExpression()), !dbg !4130
  %3 = load ptr, ptr %2, align 8
  %4 = getelementptr inbounds %"class.testing::AssertionResult", ptr %3, i32 0, i32 0, !dbg !4131
  %5 = load i8, ptr %4, align 8, !dbg !4131
  %6 = trunc i8 %5 to i1, !dbg !4131
  ret i1 %6, !dbg !4132
}

declare void @_ZN7testing7MessageC1Ev(ptr noundef nonnull align 8 dereferenceable(8)) unnamed_addr #1

; Function Attrs: mustprogress noinline uwtable
define linkonce_odr dso_local noundef ptr @_ZNK7testing15AssertionResult15failure_messageEv(ptr noundef nonnull align 8 dereferenceable(16) %0) #2 comdat align 2 !dbg !4133 {
  %2 = alloca ptr, align 8
  store ptr %0, ptr %2, align 8
  call void @llvm.dbg.declare(metadata ptr %2, metadata !4137, metadata !DIExpression()), !dbg !4138
  %3 = load ptr, ptr %2, align 8
  %4 = call noundef ptr @_ZNK7testing15AssertionResult7messageEv(ptr noundef nonnull align 8 dereferenceable(16) %3), !dbg !4139
  ret ptr %4, !dbg !4140
}

declare void @_ZN7testing8internal12AssertHelperC1ENS_14TestPartResult4TypeEPKciS5_(ptr noundef nonnull align 8 dereferenceable(8), i32 noundef, ptr noundef, i32 noundef, ptr noundef) unnamed_addr #1

declare void @_ZNK7testing8internal12AssertHelperaSERKNS_7MessageE(ptr noundef nonnull align 8 dereferenceable(8), ptr noundef nonnull align 8 dereferenceable(8)) #1

; Function Attrs: nounwind
declare void @_ZN7testing8internal12AssertHelperD1Ev(ptr noundef nonnull align 8 dereferenceable(8)) unnamed_addr #6

; Function Attrs: noinline nounwind uwtable
define linkonce_odr dso_local void @_ZN7testing7MessageD2Ev(ptr noundef nonnull align 8 dereferenceable(8) %0) unnamed_addr #5 comdat align 2 !dbg !4141 {
  %2 = alloca ptr, align 8
  store ptr %0, ptr %2, align 8
  call void @llvm.dbg.declare(metadata ptr %2, metadata !4145, metadata !DIExpression()), !dbg !4147
  %3 = load ptr, ptr %2, align 8
  %4 = getelementptr inbounds %"class.testing::Message", ptr %3, i32 0, i32 0, !dbg !4148
  call void @_ZNSt10unique_ptrINSt7__cxx1118basic_stringstreamIcSt11char_traitsIcESaIcEEESt14default_deleteIS5_EED2Ev(ptr noundef nonnull align 8 dereferenceable(8) %4) #19, !dbg !4148
  ret void, !dbg !4150
}

; Function Attrs: noinline nounwind uwtable
define linkonce_odr dso_local void @_ZN7testing15AssertionResultD2Ev(ptr noundef nonnull align 8 dereferenceable(16) %0) unnamed_addr #5 comdat align 2 !dbg !4151 {
  %2 = alloca ptr, align 8
  store ptr %0, ptr %2, align 8
  call void @llvm.dbg.declare(metadata ptr %2, metadata !4156, metadata !DIExpression()), !dbg !4158
  %3 = load ptr, ptr %2, align 8
  %4 = getelementptr inbounds %"class.testing::AssertionResult", ptr %3, i32 0, i32 1, !dbg !4159
  call void @_ZNSt10unique_ptrINSt7__cxx1112basic_stringIcSt11char_traitsIcESaIcEEESt14default_deleteIS5_EED2Ev(ptr noundef nonnull align 8 dereferenceable(8) %4) #19, !dbg !4159
  ret void, !dbg !4161
}

; Function Attrs: noinline uwtable
define internal void @__cxx_global_var_init.5() #0 section ".text.startup" personality ptr @__gxx_personality_v0 !dbg !4162 {
  %1 = alloca ptr, align 8
  %2 = alloca ptr, align 8
  %3 = alloca ptr, align 8
  %4 = alloca ptr, align 8
  %5 = alloca %"struct.testing::internal::CodeLocation", align 8
  %6 = alloca %"class.std::__cxx11::basic_string", align 8
  %7 = alloca %"class.std::allocator", align 1
  %8 = alloca ptr, align 8
  %9 = alloca i32, align 4
  store ptr %7, ptr %4, align 8
  call void @llvm.dbg.declare(metadata ptr %4, metadata !3889, metadata !DIExpression()), !dbg !4163
  %10 = load ptr, ptr %4, align 8
  store ptr %10, ptr %1, align 8
  call void @llvm.dbg.declare(metadata ptr %1, metadata !3895, metadata !DIExpression()), !dbg !4166
  %11 = load ptr, ptr %1, align 8
  invoke void @_ZNSt7__cxx1112basic_stringIcSt11char_traitsIcESaIcEEC2IS3_EEPKcRKS3_(ptr noundef nonnull align 8 dereferenceable(32) %6, ptr noundef @.str.2, ptr noundef nonnull align 1 dereferenceable(1) %7)
          to label %12 unwind label %26, !dbg !4168

12:                                               ; preds = %0
  invoke void @_ZN7testing8internal12CodeLocationC2ERKNSt7__cxx1112basic_stringIcSt11char_traitsIcESaIcEEEi(ptr noundef nonnull align 8 dereferenceable(36) %5, ptr noundef nonnull align 8 dereferenceable(32) %6, i32 noundef 47)
          to label %13 unwind label %30, !dbg !4168

13:                                               ; preds = %12
  %14 = invoke noundef ptr @_ZN7testing8internal13GetTestTypeIdEv()
          to label %15 unwind label %34, !dbg !4168

15:                                               ; preds = %13
  %16 = invoke noundef ptr @_ZN7testing8internal16SuiteApiResolverINS_4TestEE19GetSetUpCaseOrSuiteEPKci(ptr noundef @.str.2, i32 noundef 47)
          to label %17 unwind label %34, !dbg !4168

17:                                               ; preds = %15
  %18 = invoke noundef ptr @_ZN7testing8internal16SuiteApiResolverINS_4TestEE22GetTearDownCaseOrSuiteEPKci(ptr noundef @.str.2, i32 noundef 47)
          to label %19 unwind label %34, !dbg !4168

19:                                               ; preds = %17
  %20 = invoke noalias noundef nonnull ptr @_Znwm(i64 noundef 8) #18
          to label %21 unwind label %34, !dbg !4168, !heapallocsite !4169

21:                                               ; preds = %19
  invoke void @_ZN7testing8internal15TestFactoryImplI25setjmp__setjmp_smoke_TestEC2Ev(ptr noundef nonnull align 8 dereferenceable(8) %20)
          to label %22 unwind label %38, !dbg !4168

22:                                               ; preds = %21
  %23 = invoke noundef ptr @_ZN7testing8internal23MakeAndRegisterTestInfoEPKcS2_S2_S2_NS0_12CodeLocationEPKvPFvvES7_PNS0_15TestFactoryBaseE(ptr noundef @.str, ptr noundef @.str.6, ptr noundef null, ptr noundef null, ptr noundef %5, ptr noundef %14, ptr noundef %16, ptr noundef %18, ptr noundef %20)
          to label %24 unwind label %34, !dbg !4168

24:                                               ; preds = %22
  call void @_ZN7testing8internal12CodeLocationD2Ev(ptr noundef nonnull align 8 dereferenceable(36) %5) #19, !dbg !4168
  call void @_ZNSt7__cxx1112basic_stringIcSt11char_traitsIcESaIcEED1Ev(ptr noundef nonnull align 8 dereferenceable(32) %6) #19, !dbg !4168
  store ptr %7, ptr %3, align 8
  call void @llvm.dbg.declare(metadata ptr %3, metadata !3928, metadata !DIExpression()), !dbg !4178
  %25 = load ptr, ptr %3, align 8
  call void @_ZNSt15__new_allocatorIcED2Ev(ptr noundef nonnull align 1 dereferenceable(1) %25) #19, !dbg !4180
  store ptr %23, ptr @_ZN25setjmp__setjmp_smoke_Test10test_info_E, align 8, !dbg !4181
  ret void, !dbg !4168

26:                                               ; preds = %0
  %27 = landingpad { ptr, i32 }
          cleanup, !dbg !4168
  %28 = extractvalue { ptr, i32 } %27, 0, !dbg !4168
  store ptr %28, ptr %8, align 8, !dbg !4168
  %29 = extractvalue { ptr, i32 } %27, 1, !dbg !4168
  store i32 %29, ptr %9, align 4, !dbg !4168
  br label %44, !dbg !4168

30:                                               ; preds = %12
  %31 = landingpad { ptr, i32 }
          cleanup, !dbg !4168
  %32 = extractvalue { ptr, i32 } %31, 0, !dbg !4168
  store ptr %32, ptr %8, align 8, !dbg !4168
  %33 = extractvalue { ptr, i32 } %31, 1, !dbg !4168
  store i32 %33, ptr %9, align 4, !dbg !4168
  br label %43, !dbg !4168

34:                                               ; preds = %22, %19, %17, %15, %13
  %35 = landingpad { ptr, i32 }
          cleanup, !dbg !4168
  %36 = extractvalue { ptr, i32 } %35, 0, !dbg !4168
  store ptr %36, ptr %8, align 8, !dbg !4168
  %37 = extractvalue { ptr, i32 } %35, 1, !dbg !4168
  store i32 %37, ptr %9, align 4, !dbg !4168
  br label %42, !dbg !4168

38:                                               ; preds = %21
  %39 = landingpad { ptr, i32 }
          cleanup, !dbg !4168
  %40 = extractvalue { ptr, i32 } %39, 0, !dbg !4168
  store ptr %40, ptr %8, align 8, !dbg !4168
  %41 = extractvalue { ptr, i32 } %39, 1, !dbg !4168
  store i32 %41, ptr %9, align 4, !dbg !4168
  call void @_ZdlPv(ptr noundef %20) #20, !dbg !4168
  br label %42, !dbg !4168

42:                                               ; preds = %38, %34
  call void @_ZN7testing8internal12CodeLocationD2Ev(ptr noundef nonnull align 8 dereferenceable(36) %5) #19, !dbg !4168
  br label %43, !dbg !4168

43:                                               ; preds = %42, %30
  call void @_ZNSt7__cxx1112basic_stringIcSt11char_traitsIcESaIcEED1Ev(ptr noundef nonnull align 8 dereferenceable(32) %6) #19, !dbg !4168
  br label %44, !dbg !4168

44:                                               ; preds = %43, %26
  store ptr %7, ptr %2, align 8
  call void @llvm.dbg.declare(metadata ptr %2, metadata !3928, metadata !DIExpression()), !dbg !4182
  %45 = load ptr, ptr %2, align 8
  call void @_ZNSt15__new_allocatorIcED2Ev(ptr noundef nonnull align 1 dereferenceable(1) %45) #19, !dbg !4184
  br label %46, !dbg !4168

46:                                               ; preds = %44
  %47 = load ptr, ptr %8, align 8, !dbg !4168
  %48 = load i32, ptr %9, align 4, !dbg !4168
  %49 = insertvalue { ptr, i32 } poison, ptr %47, 0, !dbg !4168
  %50 = insertvalue { ptr, i32 } %49, i32 %48, 1, !dbg !4168
  resume { ptr, i32 } %50, !dbg !4168
}

; Function Attrs: noinline nounwind uwtable
define linkonce_odr dso_local void @_ZN7testing8internal15TestFactoryImplI25setjmp__setjmp_smoke_TestEC2Ev(ptr noundef nonnull align 8 dereferenceable(8) %0) unnamed_addr #5 comdat align 2 !dbg !4185 {
  %2 = alloca ptr, align 8
  store ptr %0, ptr %2, align 8
  call void @llvm.dbg.declare(metadata ptr %2, metadata !4189, metadata !DIExpression()), !dbg !4191
  %3 = load ptr, ptr %2, align 8
  call void @_ZN7testing8internal15TestFactoryBaseC2Ev(ptr noundef nonnull align 8 dereferenceable(8) %3), !dbg !4192
  store ptr getelementptr inbounds ({ [5 x ptr] }, ptr @_ZTVN7testing8internal15TestFactoryImplI25setjmp__setjmp_smoke_TestEE, i32 0, inrange i32 0, i32 2), ptr %3, align 8, !dbg !4192
  ret void, !dbg !4192
}

; Function Attrs: mustprogress noinline uwtable
define dso_local void @_ZN25setjmp__setjmp_smoke_Test8TestBodyEv(ptr noundef nonnull align 8 dereferenceable(16) %0) unnamed_addr #2 align 2 personality ptr @__gxx_personality_v0 !dbg !4193 {
  %2 = alloca ptr, align 8
  %3 = alloca i32, align 4
  %4 = alloca [1 x %struct.__jmp_buf_tag], align 16
  %5 = alloca %"class.testing::AssertionResult", align 8
  %6 = alloca i32, align 4
  %7 = alloca ptr, align 8
  %8 = alloca i32, align 4
  %9 = alloca %"class.testing::Message", align 8
  %10 = alloca %"class.testing::internal::AssertHelper", align 8
  %11 = alloca i32, align 4
  store ptr %0, ptr %2, align 8
  call void @llvm.dbg.declare(metadata ptr %2, metadata !4194, metadata !DIExpression()), !dbg !4196
  %12 = load ptr, ptr %2, align 8
  call void @llvm.dbg.declare(metadata ptr %3, metadata !4197, metadata !DIExpression()), !dbg !4198
  call void @llvm.dbg.declare(metadata ptr %4, metadata !4199, metadata !DIExpression()), !dbg !4200
  %13 = getelementptr inbounds [1 x %struct.__jmp_buf_tag], ptr %4, i64 0, i64 0, !dbg !4201
  %14 = call i32 @_setjmp(ptr noundef %13) #22, !dbg !4203
  store i32 %14, ptr %3, align 4, !dbg !4204
  %15 = icmp eq i32 %14, 0, !dbg !4205
  br i1 %15, label %16, label %18, !dbg !4206

16:                                               ; preds = %1
  %17 = getelementptr inbounds [1 x %struct.__jmp_buf_tag], ptr %4, i64 0, i64 0, !dbg !4207
  call void @_longjmp(ptr noundef %17, i32 noundef 456) #23, !dbg !4209
  unreachable, !dbg !4209

18:                                               ; preds = %1
  call void @llvm.dbg.declare(metadata ptr %5, metadata !4210, metadata !DIExpression()), !dbg !4213
  store i32 456, ptr %6, align 4, !dbg !4213
  call void @_ZN7testing8internal8EqHelper7CompareIiiLPv0EEENS_15AssertionResultEPKcS6_RKT_RKT0_(ptr sret(%"class.testing::AssertionResult") align 8 %5, ptr noundef @.str.7, ptr noundef @.str.4, ptr noundef nonnull align 4 dereferenceable(4) %6, ptr noundef nonnull align 4 dereferenceable(4) %3), !dbg !4213
  %19 = invoke noundef zeroext i1 @_ZNK7testing15AssertionResultcvbEv(ptr noundef nonnull align 8 dereferenceable(16) %5)
          to label %20 unwind label %22, !dbg !4213

20:                                               ; preds = %18
  br i1 %19, label %21, label %26, !dbg !4214

21:                                               ; preds = %20
  br label %41, !dbg !4214

22:                                               ; preds = %26, %18
  %23 = landingpad { ptr, i32 }
          cleanup, !dbg !4215
  %24 = extractvalue { ptr, i32 } %23, 0, !dbg !4215
  store ptr %24, ptr %7, align 8, !dbg !4215
  %25 = extractvalue { ptr, i32 } %23, 1, !dbg !4215
  store i32 %25, ptr %8, align 4, !dbg !4215
  br label %45, !dbg !4215

26:                                               ; preds = %20
  invoke void @_ZN7testing7MessageC1Ev(ptr noundef nonnull align 8 dereferenceable(8) %9)
          to label %27 unwind label %22, !dbg !4213

27:                                               ; preds = %26
  %28 = invoke noundef ptr @_ZNK7testing15AssertionResult15failure_messageEv(ptr noundef nonnull align 8 dereferenceable(16) %5)
          to label %29 unwind label %32, !dbg !4213

29:                                               ; preds = %27
  invoke void @_ZN7testing8internal12AssertHelperC1ENS_14TestPartResult4TypeEPKciS5_(ptr noundef nonnull align 8 dereferenceable(8) %10, i32 noundef 2, ptr noundef @.str.2, i32 noundef 54, ptr noundef %28)
          to label %30 unwind label %32, !dbg !4213

30:                                               ; preds = %29
  invoke void @_ZNK7testing8internal12AssertHelperaSERKNS_7MessageE(ptr noundef nonnull align 8 dereferenceable(8) %10, ptr noundef nonnull align 8 dereferenceable(8) %9)
          to label %31 unwind label %36, !dbg !4213

31:                                               ; preds = %30
  call void @_ZN7testing8internal12AssertHelperD1Ev(ptr noundef nonnull align 8 dereferenceable(8) %10) #19, !dbg !4213
  call void @_ZN7testing7MessageD2Ev(ptr noundef nonnull align 8 dereferenceable(8) %9) #19, !dbg !4213
  store i32 1, ptr %11, align 4
  br label %42, !dbg !4213

32:                                               ; preds = %29, %27
  %33 = landingpad { ptr, i32 }
          cleanup, !dbg !4215
  %34 = extractvalue { ptr, i32 } %33, 0, !dbg !4215
  store ptr %34, ptr %7, align 8, !dbg !4215
  %35 = extractvalue { ptr, i32 } %33, 1, !dbg !4215
  store i32 %35, ptr %8, align 4, !dbg !4215
  br label %40, !dbg !4215

36:                                               ; preds = %30
  %37 = landingpad { ptr, i32 }
          cleanup, !dbg !4215
  %38 = extractvalue { ptr, i32 } %37, 0, !dbg !4215
  store ptr %38, ptr %7, align 8, !dbg !4215
  %39 = extractvalue { ptr, i32 } %37, 1, !dbg !4215
  store i32 %39, ptr %8, align 4, !dbg !4215
  call void @_ZN7testing8internal12AssertHelperD1Ev(ptr noundef nonnull align 8 dereferenceable(8) %10) #19, !dbg !4213
  br label %40, !dbg !4213

40:                                               ; preds = %36, %32
  call void @_ZN7testing7MessageD2Ev(ptr noundef nonnull align 8 dereferenceable(8) %9) #19, !dbg !4213
  br label %45, !dbg !4213

41:                                               ; preds = %21
  store i32 0, ptr %11, align 4, !dbg !4214
  br label %42, !dbg !4214

42:                                               ; preds = %41, %31
  call void @_ZN7testing15AssertionResultD2Ev(ptr noundef nonnull align 8 dereferenceable(16) %5) #19, !dbg !4214
  %43 = load i32, ptr %11, align 4
  switch i32 %43, label %52 [
    i32 0, label %44
    i32 1, label %46
  ]

44:                                               ; preds = %42
  br label %46

45:                                               ; preds = %40, %22
  call void @_ZN7testing15AssertionResultD2Ev(ptr noundef nonnull align 8 dereferenceable(16) %5) #19, !dbg !4214
  br label %47, !dbg !4214

46:                                               ; preds = %42, %44
  ret void, !dbg !4216

47:                                               ; preds = %45
  %48 = load ptr, ptr %7, align 8, !dbg !4214
  %49 = load i32, ptr %8, align 4, !dbg !4214
  %50 = insertvalue { ptr, i32 } poison, ptr %48, 0, !dbg !4214
  %51 = insertvalue { ptr, i32 } %50, i32 %49, 1, !dbg !4214
  resume { ptr, i32 } %51, !dbg !4214

52:                                               ; preds = %42
  unreachable
}

; Function Attrs: noreturn nounwind
declare void @_longjmp(ptr noundef, i32 noundef) #9

; Function Attrs: noinline uwtable
define internal void @__cxx_global_var_init.8() #0 section ".text.startup" personality ptr @__gxx_personality_v0 !dbg !4217 {
  %1 = alloca ptr, align 8
  %2 = alloca ptr, align 8
  %3 = alloca ptr, align 8
  %4 = alloca ptr, align 8
  %5 = alloca %"struct.testing::internal::CodeLocation", align 8
  %6 = alloca %"class.std::__cxx11::basic_string", align 8
  %7 = alloca %"class.std::allocator", align 1
  %8 = alloca ptr, align 8
  %9 = alloca i32, align 4
  store ptr %7, ptr %4, align 8
  call void @llvm.dbg.declare(metadata ptr %4, metadata !3889, metadata !DIExpression()), !dbg !4218
  %10 = load ptr, ptr %4, align 8
  store ptr %10, ptr %1, align 8
  call void @llvm.dbg.declare(metadata ptr %1, metadata !3895, metadata !DIExpression()), !dbg !4221
  %11 = load ptr, ptr %1, align 8
  invoke void @_ZNSt7__cxx1112basic_stringIcSt11char_traitsIcESaIcEEC2IS3_EEPKcRKS3_(ptr noundef nonnull align 8 dereferenceable(32) %6, ptr noundef @.str.2, ptr noundef nonnull align 1 dereferenceable(1) %7)
          to label %12 unwind label %26, !dbg !4223

12:                                               ; preds = %0
  invoke void @_ZN7testing8internal12CodeLocationC2ERKNSt7__cxx1112basic_stringIcSt11char_traitsIcESaIcEEEi(ptr noundef nonnull align 8 dereferenceable(36) %5, ptr noundef nonnull align 8 dereferenceable(32) %6, i32 noundef 58)
          to label %13 unwind label %30, !dbg !4223

13:                                               ; preds = %12
  %14 = invoke noundef ptr @_ZN7testing8internal13GetTestTypeIdEv()
          to label %15 unwind label %34, !dbg !4223

15:                                               ; preds = %13
  %16 = invoke noundef ptr @_ZN7testing8internal16SuiteApiResolverINS_4TestEE19GetSetUpCaseOrSuiteEPKci(ptr noundef @.str.2, i32 noundef 58)
          to label %17 unwind label %34, !dbg !4223

17:                                               ; preds = %15
  %18 = invoke noundef ptr @_ZN7testing8internal16SuiteApiResolverINS_4TestEE22GetTearDownCaseOrSuiteEPKci(ptr noundef @.str.2, i32 noundef 58)
          to label %19 unwind label %34, !dbg !4223

19:                                               ; preds = %17
  %20 = invoke noalias noundef nonnull ptr @_Znwm(i64 noundef 8) #18
          to label %21 unwind label %34, !dbg !4223, !heapallocsite !4224

21:                                               ; preds = %19
  invoke void @_ZN7testing8internal15TestFactoryImplI29setjmp_sigsetjmp_0_smoke_TestEC2Ev(ptr noundef nonnull align 8 dereferenceable(8) %20)
          to label %22 unwind label %38, !dbg !4223

22:                                               ; preds = %21
  %23 = invoke noundef ptr @_ZN7testing8internal23MakeAndRegisterTestInfoEPKcS2_S2_S2_NS0_12CodeLocationEPKvPFvvES7_PNS0_15TestFactoryBaseE(ptr noundef @.str, ptr noundef @.str.9, ptr noundef null, ptr noundef null, ptr noundef %5, ptr noundef %14, ptr noundef %16, ptr noundef %18, ptr noundef %20)
          to label %24 unwind label %34, !dbg !4223

24:                                               ; preds = %22
  call void @_ZN7testing8internal12CodeLocationD2Ev(ptr noundef nonnull align 8 dereferenceable(36) %5) #19, !dbg !4223
  call void @_ZNSt7__cxx1112basic_stringIcSt11char_traitsIcESaIcEED1Ev(ptr noundef nonnull align 8 dereferenceable(32) %6) #19, !dbg !4223
  store ptr %7, ptr %3, align 8
  call void @llvm.dbg.declare(metadata ptr %3, metadata !3928, metadata !DIExpression()), !dbg !4233
  %25 = load ptr, ptr %3, align 8
  call void @_ZNSt15__new_allocatorIcED2Ev(ptr noundef nonnull align 1 dereferenceable(1) %25) #19, !dbg !4235
  store ptr %23, ptr @_ZN29setjmp_sigsetjmp_0_smoke_Test10test_info_E, align 8, !dbg !4236
  ret void, !dbg !4223

26:                                               ; preds = %0
  %27 = landingpad { ptr, i32 }
          cleanup, !dbg !4223
  %28 = extractvalue { ptr, i32 } %27, 0, !dbg !4223
  store ptr %28, ptr %8, align 8, !dbg !4223
  %29 = extractvalue { ptr, i32 } %27, 1, !dbg !4223
  store i32 %29, ptr %9, align 4, !dbg !4223
  br label %44, !dbg !4223

30:                                               ; preds = %12
  %31 = landingpad { ptr, i32 }
          cleanup, !dbg !4223
  %32 = extractvalue { ptr, i32 } %31, 0, !dbg !4223
  store ptr %32, ptr %8, align 8, !dbg !4223
  %33 = extractvalue { ptr, i32 } %31, 1, !dbg !4223
  store i32 %33, ptr %9, align 4, !dbg !4223
  br label %43, !dbg !4223

34:                                               ; preds = %22, %19, %17, %15, %13
  %35 = landingpad { ptr, i32 }
          cleanup, !dbg !4223
  %36 = extractvalue { ptr, i32 } %35, 0, !dbg !4223
  store ptr %36, ptr %8, align 8, !dbg !4223
  %37 = extractvalue { ptr, i32 } %35, 1, !dbg !4223
  store i32 %37, ptr %9, align 4, !dbg !4223
  br label %42, !dbg !4223

38:                                               ; preds = %21
  %39 = landingpad { ptr, i32 }
          cleanup, !dbg !4223
  %40 = extractvalue { ptr, i32 } %39, 0, !dbg !4223
  store ptr %40, ptr %8, align 8, !dbg !4223
  %41 = extractvalue { ptr, i32 } %39, 1, !dbg !4223
  store i32 %41, ptr %9, align 4, !dbg !4223
  call void @_ZdlPv(ptr noundef %20) #20, !dbg !4223
  br label %42, !dbg !4223

42:                                               ; preds = %38, %34
  call void @_ZN7testing8internal12CodeLocationD2Ev(ptr noundef nonnull align 8 dereferenceable(36) %5) #19, !dbg !4223
  br label %43, !dbg !4223

43:                                               ; preds = %42, %30
  call void @_ZNSt7__cxx1112basic_stringIcSt11char_traitsIcESaIcEED1Ev(ptr noundef nonnull align 8 dereferenceable(32) %6) #19, !dbg !4223
  br label %44, !dbg !4223

44:                                               ; preds = %43, %26
  store ptr %7, ptr %2, align 8
  call void @llvm.dbg.declare(metadata ptr %2, metadata !3928, metadata !DIExpression()), !dbg !4237
  %45 = load ptr, ptr %2, align 8
  call void @_ZNSt15__new_allocatorIcED2Ev(ptr noundef nonnull align 1 dereferenceable(1) %45) #19, !dbg !4239
  br label %46, !dbg !4223

46:                                               ; preds = %44
  %47 = load ptr, ptr %8, align 8, !dbg !4223
  %48 = load i32, ptr %9, align 4, !dbg !4223
  %49 = insertvalue { ptr, i32 } poison, ptr %47, 0, !dbg !4223
  %50 = insertvalue { ptr, i32 } %49, i32 %48, 1, !dbg !4223
  resume { ptr, i32 } %50, !dbg !4223
}

; Function Attrs: noinline nounwind uwtable
define linkonce_odr dso_local void @_ZN7testing8internal15TestFactoryImplI29setjmp_sigsetjmp_0_smoke_TestEC2Ev(ptr noundef nonnull align 8 dereferenceable(8) %0) unnamed_addr #5 comdat align 2 !dbg !4240 {
  %2 = alloca ptr, align 8
  store ptr %0, ptr %2, align 8
  call void @llvm.dbg.declare(metadata ptr %2, metadata !4244, metadata !DIExpression()), !dbg !4246
  %3 = load ptr, ptr %2, align 8
  call void @_ZN7testing8internal15TestFactoryBaseC2Ev(ptr noundef nonnull align 8 dereferenceable(8) %3), !dbg !4247
  store ptr getelementptr inbounds ({ [5 x ptr] }, ptr @_ZTVN7testing8internal15TestFactoryImplI29setjmp_sigsetjmp_0_smoke_TestEE, i32 0, inrange i32 0, i32 2), ptr %3, align 8, !dbg !4247
  ret void, !dbg !4247
}

; Function Attrs: mustprogress noinline uwtable
define dso_local void @_ZN29setjmp_sigsetjmp_0_smoke_Test8TestBodyEv(ptr noundef nonnull align 8 dereferenceable(16) %0) unnamed_addr #2 align 2 personality ptr @__gxx_personality_v0 !dbg !4248 {
  %2 = alloca ptr, align 8
  %3 = alloca i32, align 4
  %4 = alloca [1 x %struct.__jmp_buf_tag], align 16
  %5 = alloca %"class.testing::AssertionResult", align 8
  %6 = alloca i32, align 4
  %7 = alloca ptr, align 8
  %8 = alloca i32, align 4
  %9 = alloca %"class.testing::Message", align 8
  %10 = alloca %"class.testing::internal::AssertHelper", align 8
  %11 = alloca i32, align 4
  store ptr %0, ptr %2, align 8
  call void @llvm.dbg.declare(metadata ptr %2, metadata !4249, metadata !DIExpression()), !dbg !4251
  %12 = load ptr, ptr %2, align 8
  call void @llvm.dbg.declare(metadata ptr %3, metadata !4252, metadata !DIExpression()), !dbg !4253
  call void @llvm.dbg.declare(metadata ptr %4, metadata !4254, metadata !DIExpression()), !dbg !4256
  %13 = getelementptr inbounds [1 x %struct.__jmp_buf_tag], ptr %4, i64 0, i64 0, !dbg !4257
  %14 = call i32 @__sigsetjmp(ptr noundef %13, i32 noundef 0) #22, !dbg !4257
  store i32 %14, ptr %3, align 4, !dbg !4259
  %15 = icmp eq i32 %14, 0, !dbg !4260
  br i1 %15, label %16, label %18, !dbg !4261

16:                                               ; preds = %1
  %17 = getelementptr inbounds [1 x %struct.__jmp_buf_tag], ptr %4, i64 0, i64 0, !dbg !4262
  call void @siglongjmp(ptr noundef %17, i32 noundef 789) #23, !dbg !4264
  unreachable, !dbg !4264

18:                                               ; preds = %1
  call void @llvm.dbg.declare(metadata ptr %5, metadata !4265, metadata !DIExpression()), !dbg !4268
  store i32 789, ptr %6, align 4, !dbg !4268
  call void @_ZN7testing8internal8EqHelper7CompareIiiLPv0EEENS_15AssertionResultEPKcS6_RKT_RKT0_(ptr sret(%"class.testing::AssertionResult") align 8 %5, ptr noundef @.str.10, ptr noundef @.str.4, ptr noundef nonnull align 4 dereferenceable(4) %6, ptr noundef nonnull align 4 dereferenceable(4) %3), !dbg !4268
  %19 = invoke noundef zeroext i1 @_ZNK7testing15AssertionResultcvbEv(ptr noundef nonnull align 8 dereferenceable(16) %5)
          to label %20 unwind label %22, !dbg !4268

20:                                               ; preds = %18
  br i1 %19, label %21, label %26, !dbg !4269

21:                                               ; preds = %20
  br label %41, !dbg !4269

22:                                               ; preds = %26, %18
  %23 = landingpad { ptr, i32 }
          cleanup, !dbg !4270
  %24 = extractvalue { ptr, i32 } %23, 0, !dbg !4270
  store ptr %24, ptr %7, align 8, !dbg !4270
  %25 = extractvalue { ptr, i32 } %23, 1, !dbg !4270
  store i32 %25, ptr %8, align 4, !dbg !4270
  br label %45, !dbg !4270

26:                                               ; preds = %20
  invoke void @_ZN7testing7MessageC1Ev(ptr noundef nonnull align 8 dereferenceable(8) %9)
          to label %27 unwind label %22, !dbg !4268

27:                                               ; preds = %26
  %28 = invoke noundef ptr @_ZNK7testing15AssertionResult15failure_messageEv(ptr noundef nonnull align 8 dereferenceable(16) %5)
          to label %29 unwind label %32, !dbg !4268

29:                                               ; preds = %27
  invoke void @_ZN7testing8internal12AssertHelperC1ENS_14TestPartResult4TypeEPKciS5_(ptr noundef nonnull align 8 dereferenceable(8) %10, i32 noundef 2, ptr noundef @.str.2, i32 noundef 65, ptr noundef %28)
          to label %30 unwind label %32, !dbg !4268

30:                                               ; preds = %29
  invoke void @_ZNK7testing8internal12AssertHelperaSERKNS_7MessageE(ptr noundef nonnull align 8 dereferenceable(8) %10, ptr noundef nonnull align 8 dereferenceable(8) %9)
          to label %31 unwind label %36, !dbg !4268

31:                                               ; preds = %30
  call void @_ZN7testing8internal12AssertHelperD1Ev(ptr noundef nonnull align 8 dereferenceable(8) %10) #19, !dbg !4268
  call void @_ZN7testing7MessageD2Ev(ptr noundef nonnull align 8 dereferenceable(8) %9) #19, !dbg !4268
  store i32 1, ptr %11, align 4
  br label %42, !dbg !4268

32:                                               ; preds = %29, %27
  %33 = landingpad { ptr, i32 }
          cleanup, !dbg !4270
  %34 = extractvalue { ptr, i32 } %33, 0, !dbg !4270
  store ptr %34, ptr %7, align 8, !dbg !4270
  %35 = extractvalue { ptr, i32 } %33, 1, !dbg !4270
  store i32 %35, ptr %8, align 4, !dbg !4270
  br label %40, !dbg !4270

36:                                               ; preds = %30
  %37 = landingpad { ptr, i32 }
          cleanup, !dbg !4270
  %38 = extractvalue { ptr, i32 } %37, 0, !dbg !4270
  store ptr %38, ptr %7, align 8, !dbg !4270
  %39 = extractvalue { ptr, i32 } %37, 1, !dbg !4270
  store i32 %39, ptr %8, align 4, !dbg !4270
  call void @_ZN7testing8internal12AssertHelperD1Ev(ptr noundef nonnull align 8 dereferenceable(8) %10) #19, !dbg !4268
  br label %40, !dbg !4268

40:                                               ; preds = %36, %32
  call void @_ZN7testing7MessageD2Ev(ptr noundef nonnull align 8 dereferenceable(8) %9) #19, !dbg !4268
  br label %45, !dbg !4268

41:                                               ; preds = %21
  store i32 0, ptr %11, align 4, !dbg !4269
  br label %42, !dbg !4269

42:                                               ; preds = %41, %31
  call void @_ZN7testing15AssertionResultD2Ev(ptr noundef nonnull align 8 dereferenceable(16) %5) #19, !dbg !4269
  %43 = load i32, ptr %11, align 4
  switch i32 %43, label %52 [
    i32 0, label %44
    i32 1, label %46
  ]

44:                                               ; preds = %42
  br label %46

45:                                               ; preds = %40, %22
  call void @_ZN7testing15AssertionResultD2Ev(ptr noundef nonnull align 8 dereferenceable(16) %5) #19, !dbg !4269
  br label %47, !dbg !4269

46:                                               ; preds = %42, %44
  ret void, !dbg !4271

47:                                               ; preds = %45
  %48 = load ptr, ptr %7, align 8, !dbg !4269
  %49 = load i32, ptr %8, align 4, !dbg !4269
  %50 = insertvalue { ptr, i32 } poison, ptr %48, 0, !dbg !4269
  %51 = insertvalue { ptr, i32 } %50, i32 %49, 1, !dbg !4269
  resume { ptr, i32 } %51, !dbg !4269

52:                                               ; preds = %42
  unreachable
}

; Function Attrs: nounwind returns_twice
declare i32 @__sigsetjmp(ptr noundef, i32 noundef) #8

; Function Attrs: noreturn nounwind
declare void @siglongjmp(ptr noundef, i32 noundef) #9

; Function Attrs: noinline uwtable
define internal void @__cxx_global_var_init.11() #0 section ".text.startup" personality ptr @__gxx_personality_v0 !dbg !4272 {
  %1 = alloca ptr, align 8
  %2 = alloca ptr, align 8
  %3 = alloca ptr, align 8
  %4 = alloca ptr, align 8
  %5 = alloca %"struct.testing::internal::CodeLocation", align 8
  %6 = alloca %"class.std::__cxx11::basic_string", align 8
  %7 = alloca %"class.std::allocator", align 1
  %8 = alloca ptr, align 8
  %9 = alloca i32, align 4
  store ptr %7, ptr %4, align 8
  call void @llvm.dbg.declare(metadata ptr %4, metadata !3889, metadata !DIExpression()), !dbg !4273
  %10 = load ptr, ptr %4, align 8
  store ptr %10, ptr %1, align 8
  call void @llvm.dbg.declare(metadata ptr %1, metadata !3895, metadata !DIExpression()), !dbg !4276
  %11 = load ptr, ptr %1, align 8
  invoke void @_ZNSt7__cxx1112basic_stringIcSt11char_traitsIcESaIcEEC2IS3_EEPKcRKS3_(ptr noundef nonnull align 8 dereferenceable(32) %6, ptr noundef @.str.2, ptr noundef nonnull align 1 dereferenceable(1) %7)
          to label %12 unwind label %26, !dbg !4278

12:                                               ; preds = %0
  invoke void @_ZN7testing8internal12CodeLocationC2ERKNSt7__cxx1112basic_stringIcSt11char_traitsIcESaIcEEEi(ptr noundef nonnull align 8 dereferenceable(36) %5, ptr noundef nonnull align 8 dereferenceable(32) %6, i32 noundef 69)
          to label %13 unwind label %30, !dbg !4278

13:                                               ; preds = %12
  %14 = invoke noundef ptr @_ZN7testing8internal13GetTestTypeIdEv()
          to label %15 unwind label %34, !dbg !4278

15:                                               ; preds = %13
  %16 = invoke noundef ptr @_ZN7testing8internal16SuiteApiResolverINS_4TestEE19GetSetUpCaseOrSuiteEPKci(ptr noundef @.str.2, i32 noundef 69)
          to label %17 unwind label %34, !dbg !4278

17:                                               ; preds = %15
  %18 = invoke noundef ptr @_ZN7testing8internal16SuiteApiResolverINS_4TestEE22GetTearDownCaseOrSuiteEPKci(ptr noundef @.str.2, i32 noundef 69)
          to label %19 unwind label %34, !dbg !4278

19:                                               ; preds = %17
  %20 = invoke noalias noundef nonnull ptr @_Znwm(i64 noundef 8) #18
          to label %21 unwind label %34, !dbg !4278, !heapallocsite !4279

21:                                               ; preds = %19
  invoke void @_ZN7testing8internal15TestFactoryImplI29setjmp_sigsetjmp_1_smoke_TestEC2Ev(ptr noundef nonnull align 8 dereferenceable(8) %20)
          to label %22 unwind label %38, !dbg !4278

22:                                               ; preds = %21
  %23 = invoke noundef ptr @_ZN7testing8internal23MakeAndRegisterTestInfoEPKcS2_S2_S2_NS0_12CodeLocationEPKvPFvvES7_PNS0_15TestFactoryBaseE(ptr noundef @.str, ptr noundef @.str.12, ptr noundef null, ptr noundef null, ptr noundef %5, ptr noundef %14, ptr noundef %16, ptr noundef %18, ptr noundef %20)
          to label %24 unwind label %34, !dbg !4278

24:                                               ; preds = %22
  call void @_ZN7testing8internal12CodeLocationD2Ev(ptr noundef nonnull align 8 dereferenceable(36) %5) #19, !dbg !4278
  call void @_ZNSt7__cxx1112basic_stringIcSt11char_traitsIcESaIcEED1Ev(ptr noundef nonnull align 8 dereferenceable(32) %6) #19, !dbg !4278
  store ptr %7, ptr %3, align 8
  call void @llvm.dbg.declare(metadata ptr %3, metadata !3928, metadata !DIExpression()), !dbg !4288
  %25 = load ptr, ptr %3, align 8
  call void @_ZNSt15__new_allocatorIcED2Ev(ptr noundef nonnull align 1 dereferenceable(1) %25) #19, !dbg !4290
  store ptr %23, ptr @_ZN29setjmp_sigsetjmp_1_smoke_Test10test_info_E, align 8, !dbg !4291
  ret void, !dbg !4278

26:                                               ; preds = %0
  %27 = landingpad { ptr, i32 }
          cleanup, !dbg !4278
  %28 = extractvalue { ptr, i32 } %27, 0, !dbg !4278
  store ptr %28, ptr %8, align 8, !dbg !4278
  %29 = extractvalue { ptr, i32 } %27, 1, !dbg !4278
  store i32 %29, ptr %9, align 4, !dbg !4278
  br label %44, !dbg !4278

30:                                               ; preds = %12
  %31 = landingpad { ptr, i32 }
          cleanup, !dbg !4278
  %32 = extractvalue { ptr, i32 } %31, 0, !dbg !4278
  store ptr %32, ptr %8, align 8, !dbg !4278
  %33 = extractvalue { ptr, i32 } %31, 1, !dbg !4278
  store i32 %33, ptr %9, align 4, !dbg !4278
  br label %43, !dbg !4278

34:                                               ; preds = %22, %19, %17, %15, %13
  %35 = landingpad { ptr, i32 }
          cleanup, !dbg !4278
  %36 = extractvalue { ptr, i32 } %35, 0, !dbg !4278
  store ptr %36, ptr %8, align 8, !dbg !4278
  %37 = extractvalue { ptr, i32 } %35, 1, !dbg !4278
  store i32 %37, ptr %9, align 4, !dbg !4278
  br label %42, !dbg !4278

38:                                               ; preds = %21
  %39 = landingpad { ptr, i32 }
          cleanup, !dbg !4278
  %40 = extractvalue { ptr, i32 } %39, 0, !dbg !4278
  store ptr %40, ptr %8, align 8, !dbg !4278
  %41 = extractvalue { ptr, i32 } %39, 1, !dbg !4278
  store i32 %41, ptr %9, align 4, !dbg !4278
  call void @_ZdlPv(ptr noundef %20) #20, !dbg !4278
  br label %42, !dbg !4278

42:                                               ; preds = %38, %34
  call void @_ZN7testing8internal12CodeLocationD2Ev(ptr noundef nonnull align 8 dereferenceable(36) %5) #19, !dbg !4278
  br label %43, !dbg !4278

43:                                               ; preds = %42, %30
  call void @_ZNSt7__cxx1112basic_stringIcSt11char_traitsIcESaIcEED1Ev(ptr noundef nonnull align 8 dereferenceable(32) %6) #19, !dbg !4278
  br label %44, !dbg !4278

44:                                               ; preds = %43, %26
  store ptr %7, ptr %2, align 8
  call void @llvm.dbg.declare(metadata ptr %2, metadata !3928, metadata !DIExpression()), !dbg !4292
  %45 = load ptr, ptr %2, align 8
  call void @_ZNSt15__new_allocatorIcED2Ev(ptr noundef nonnull align 1 dereferenceable(1) %45) #19, !dbg !4294
  br label %46, !dbg !4278

46:                                               ; preds = %44
  %47 = load ptr, ptr %8, align 8, !dbg !4278
  %48 = load i32, ptr %9, align 4, !dbg !4278
  %49 = insertvalue { ptr, i32 } poison, ptr %47, 0, !dbg !4278
  %50 = insertvalue { ptr, i32 } %49, i32 %48, 1, !dbg !4278
  resume { ptr, i32 } %50, !dbg !4278
}

; Function Attrs: noinline nounwind uwtable
define linkonce_odr dso_local void @_ZN7testing8internal15TestFactoryImplI29setjmp_sigsetjmp_1_smoke_TestEC2Ev(ptr noundef nonnull align 8 dereferenceable(8) %0) unnamed_addr #5 comdat align 2 !dbg !4295 {
  %2 = alloca ptr, align 8
  store ptr %0, ptr %2, align 8
  call void @llvm.dbg.declare(metadata ptr %2, metadata !4299, metadata !DIExpression()), !dbg !4301
  %3 = load ptr, ptr %2, align 8
  call void @_ZN7testing8internal15TestFactoryBaseC2Ev(ptr noundef nonnull align 8 dereferenceable(8) %3), !dbg !4302
  store ptr getelementptr inbounds ({ [5 x ptr] }, ptr @_ZTVN7testing8internal15TestFactoryImplI29setjmp_sigsetjmp_1_smoke_TestEE, i32 0, inrange i32 0, i32 2), ptr %3, align 8, !dbg !4302
  ret void, !dbg !4302
}

; Function Attrs: mustprogress noinline uwtable
define dso_local void @_ZN29setjmp_sigsetjmp_1_smoke_Test8TestBodyEv(ptr noundef nonnull align 8 dereferenceable(16) %0) unnamed_addr #2 align 2 personality ptr @__gxx_personality_v0 !dbg !4303 {
  %2 = alloca ptr, align 8
  %3 = alloca i32, align 4
  %4 = alloca [1 x %struct.__jmp_buf_tag], align 16
  %5 = alloca %"class.testing::AssertionResult", align 8
  %6 = alloca i32, align 4
  %7 = alloca ptr, align 8
  %8 = alloca i32, align 4
  %9 = alloca %"class.testing::Message", align 8
  %10 = alloca %"class.testing::internal::AssertHelper", align 8
  %11 = alloca i32, align 4
  store ptr %0, ptr %2, align 8
  call void @llvm.dbg.declare(metadata ptr %2, metadata !4304, metadata !DIExpression()), !dbg !4306
  %12 = load ptr, ptr %2, align 8
  call void @llvm.dbg.declare(metadata ptr %3, metadata !4307, metadata !DIExpression()), !dbg !4308
  call void @llvm.dbg.declare(metadata ptr %4, metadata !4309, metadata !DIExpression()), !dbg !4310
  %13 = getelementptr inbounds [1 x %struct.__jmp_buf_tag], ptr %4, i64 0, i64 0, !dbg !4311
  %14 = call i32 @__sigsetjmp(ptr noundef %13, i32 noundef 0) #22, !dbg !4311
  store i32 %14, ptr %3, align 4, !dbg !4313
  %15 = icmp eq i32 %14, 0, !dbg !4314
  br i1 %15, label %16, label %18, !dbg !4315

16:                                               ; preds = %1
  %17 = getelementptr inbounds [1 x %struct.__jmp_buf_tag], ptr %4, i64 0, i64 0, !dbg !4316
  call void @siglongjmp(ptr noundef %17, i32 noundef 2748) #23, !dbg !4318
  unreachable, !dbg !4318

18:                                               ; preds = %1
  call void @llvm.dbg.declare(metadata ptr %5, metadata !4319, metadata !DIExpression()), !dbg !4322
  store i32 2748, ptr %6, align 4, !dbg !4322
  call void @_ZN7testing8internal8EqHelper7CompareIiiLPv0EEENS_15AssertionResultEPKcS6_RKT_RKT0_(ptr sret(%"class.testing::AssertionResult") align 8 %5, ptr noundef @.str.13, ptr noundef @.str.4, ptr noundef nonnull align 4 dereferenceable(4) %6, ptr noundef nonnull align 4 dereferenceable(4) %3), !dbg !4322
  %19 = invoke noundef zeroext i1 @_ZNK7testing15AssertionResultcvbEv(ptr noundef nonnull align 8 dereferenceable(16) %5)
          to label %20 unwind label %22, !dbg !4322

20:                                               ; preds = %18
  br i1 %19, label %21, label %26, !dbg !4323

21:                                               ; preds = %20
  br label %41, !dbg !4323

22:                                               ; preds = %26, %18
  %23 = landingpad { ptr, i32 }
          cleanup, !dbg !4324
  %24 = extractvalue { ptr, i32 } %23, 0, !dbg !4324
  store ptr %24, ptr %7, align 8, !dbg !4324
  %25 = extractvalue { ptr, i32 } %23, 1, !dbg !4324
  store i32 %25, ptr %8, align 4, !dbg !4324
  br label %45, !dbg !4324

26:                                               ; preds = %20
  invoke void @_ZN7testing7MessageC1Ev(ptr noundef nonnull align 8 dereferenceable(8) %9)
          to label %27 unwind label %22, !dbg !4322

27:                                               ; preds = %26
  %28 = invoke noundef ptr @_ZNK7testing15AssertionResult15failure_messageEv(ptr noundef nonnull align 8 dereferenceable(16) %5)
          to label %29 unwind label %32, !dbg !4322

29:                                               ; preds = %27
  invoke void @_ZN7testing8internal12AssertHelperC1ENS_14TestPartResult4TypeEPKciS5_(ptr noundef nonnull align 8 dereferenceable(8) %10, i32 noundef 2, ptr noundef @.str.2, i32 noundef 76, ptr noundef %28)
          to label %30 unwind label %32, !dbg !4322

30:                                               ; preds = %29
  invoke void @_ZNK7testing8internal12AssertHelperaSERKNS_7MessageE(ptr noundef nonnull align 8 dereferenceable(8) %10, ptr noundef nonnull align 8 dereferenceable(8) %9)
          to label %31 unwind label %36, !dbg !4322

31:                                               ; preds = %30
  call void @_ZN7testing8internal12AssertHelperD1Ev(ptr noundef nonnull align 8 dereferenceable(8) %10) #19, !dbg !4322
  call void @_ZN7testing7MessageD2Ev(ptr noundef nonnull align 8 dereferenceable(8) %9) #19, !dbg !4322
  store i32 1, ptr %11, align 4
  br label %42, !dbg !4322

32:                                               ; preds = %29, %27
  %33 = landingpad { ptr, i32 }
          cleanup, !dbg !4324
  %34 = extractvalue { ptr, i32 } %33, 0, !dbg !4324
  store ptr %34, ptr %7, align 8, !dbg !4324
  %35 = extractvalue { ptr, i32 } %33, 1, !dbg !4324
  store i32 %35, ptr %8, align 4, !dbg !4324
  br label %40, !dbg !4324

36:                                               ; preds = %30
  %37 = landingpad { ptr, i32 }
          cleanup, !dbg !4324
  %38 = extractvalue { ptr, i32 } %37, 0, !dbg !4324
  store ptr %38, ptr %7, align 8, !dbg !4324
  %39 = extractvalue { ptr, i32 } %37, 1, !dbg !4324
  store i32 %39, ptr %8, align 4, !dbg !4324
  call void @_ZN7testing8internal12AssertHelperD1Ev(ptr noundef nonnull align 8 dereferenceable(8) %10) #19, !dbg !4322
  br label %40, !dbg !4322

40:                                               ; preds = %36, %32
  call void @_ZN7testing7MessageD2Ev(ptr noundef nonnull align 8 dereferenceable(8) %9) #19, !dbg !4322
  br label %45, !dbg !4322

41:                                               ; preds = %21
  store i32 0, ptr %11, align 4, !dbg !4323
  br label %42, !dbg !4323

42:                                               ; preds = %41, %31
  call void @_ZN7testing15AssertionResultD2Ev(ptr noundef nonnull align 8 dereferenceable(16) %5) #19, !dbg !4323
  %43 = load i32, ptr %11, align 4
  switch i32 %43, label %52 [
    i32 0, label %44
    i32 1, label %46
  ]

44:                                               ; preds = %42
  br label %46

45:                                               ; preds = %40, %22
  call void @_ZN7testing15AssertionResultD2Ev(ptr noundef nonnull align 8 dereferenceable(16) %5) #19, !dbg !4323
  br label %47, !dbg !4323

46:                                               ; preds = %42, %44
  ret void, !dbg !4325

47:                                               ; preds = %45
  %48 = load ptr, ptr %7, align 8, !dbg !4323
  %49 = load i32, ptr %8, align 4, !dbg !4323
  %50 = insertvalue { ptr, i32 } poison, ptr %48, 0, !dbg !4323
  %51 = insertvalue { ptr, i32 } %50, i32 %49, 1, !dbg !4323
  resume { ptr, i32 } %51, !dbg !4323

52:                                               ; preds = %42
  unreachable
}

; Function Attrs: mustprogress noinline uwtable
define dso_local void @_Z19AssertSigmaskEqualsRK10__sigset_t(ptr noundef nonnull align 8 dereferenceable(128) %0) #2 personality ptr @__gxx_personality_v0 !dbg !4326 {
  %2 = alloca ptr, align 8
  %3 = alloca %struct.__sigset_t, align 8
  %4 = alloca i64, align 8
  %5 = alloca i64, align 8
  %6 = alloca %"class.testing::AssertionResult", align 8
  %7 = alloca i32, align 4
  %8 = alloca i32, align 4
  %9 = alloca ptr, align 8
  %10 = alloca i32, align 4
  %11 = alloca %"class.testing::Message", align 8
  %12 = alloca %"class.testing::internal::AssertHelper", align 8
  store ptr %0, ptr %2, align 8
  call void @llvm.dbg.declare(metadata ptr %2, metadata !4331, metadata !DIExpression()), !dbg !4332
  call void @llvm.dbg.declare(metadata ptr %3, metadata !4333, metadata !DIExpression()), !dbg !4334
  %13 = call i32 @sigprocmask(i32 noundef 2, ptr noundef null, ptr noundef %3) #19, !dbg !4335
  call void @llvm.dbg.declare(metadata ptr %4, metadata !4336, metadata !DIExpression()), !dbg !4337
  store i64 1024, ptr %4, align 8, !dbg !4337
  call void @llvm.dbg.declare(metadata ptr %5, metadata !4338, metadata !DIExpression()), !dbg !4340
  store i64 1, ptr %5, align 8, !dbg !4340
  br label %14, !dbg !4341

14:                                               ; preds = %51, %1
  %15 = load i64, ptr %5, align 8, !dbg !4342
  %16 = load i64, ptr %4, align 8, !dbg !4344
  %17 = icmp ule i64 %15, %16, !dbg !4345
  br i1 %17, label %18, label %55, !dbg !4346

18:                                               ; preds = %14
  call void @llvm.dbg.declare(metadata ptr %6, metadata !4347, metadata !DIExpression()), !dbg !4350
  %19 = load ptr, ptr %2, align 8, !dbg !4350
  %20 = load i64, ptr %5, align 8, !dbg !4350
  %21 = trunc i64 %20 to i32, !dbg !4350
  %22 = call i32 @sigismember(ptr noundef %19, i32 noundef %21) #19, !dbg !4350
  store i32 %22, ptr %7, align 4, !dbg !4350
  %23 = load i64, ptr %5, align 8, !dbg !4350
  %24 = trunc i64 %23 to i32, !dbg !4350
  %25 = call i32 @sigismember(ptr noundef %3, i32 noundef %24) #19, !dbg !4350
  store i32 %25, ptr %8, align 4, !dbg !4350
  call void @_ZN7testing8internal8EqHelper7CompareIiiLPv0EEENS_15AssertionResultEPKcS6_RKT_RKT0_(ptr sret(%"class.testing::AssertionResult") align 8 %6, ptr noundef @.str.14, ptr noundef @.str.15, ptr noundef nonnull align 4 dereferenceable(4) %7, ptr noundef nonnull align 4 dereferenceable(4) %8), !dbg !4350
  %26 = invoke noundef zeroext i1 @_ZNK7testing15AssertionResultcvbEv(ptr noundef nonnull align 8 dereferenceable(16) %6)
          to label %27 unwind label %29, !dbg !4350

27:                                               ; preds = %18
  br i1 %26, label %28, label %33, !dbg !4351

28:                                               ; preds = %27
  br label %50, !dbg !4351

29:                                               ; preds = %33, %18
  %30 = landingpad { ptr, i32 }
          cleanup, !dbg !4352
  %31 = extractvalue { ptr, i32 } %30, 0, !dbg !4352
  store ptr %31, ptr %9, align 8, !dbg !4352
  %32 = extractvalue { ptr, i32 } %30, 1, !dbg !4352
  store i32 %32, ptr %10, align 4, !dbg !4352
  br label %54, !dbg !4352

33:                                               ; preds = %27
  invoke void @_ZN7testing7MessageC1Ev(ptr noundef nonnull align 8 dereferenceable(8) %11)
          to label %34 unwind label %29, !dbg !4350

34:                                               ; preds = %33
  %35 = invoke noundef nonnull align 8 dereferenceable(8) ptr @_ZN7testing7MessagelsImEERS0_RKT_(ptr noundef nonnull align 8 dereferenceable(8) %11, ptr noundef nonnull align 8 dereferenceable(8) %5)
          to label %36 unwind label %41, !dbg !4353

36:                                               ; preds = %34
  %37 = invoke noundef ptr @_ZNK7testing15AssertionResult15failure_messageEv(ptr noundef nonnull align 8 dereferenceable(16) %6)
          to label %38 unwind label %41, !dbg !4350

38:                                               ; preds = %36
  invoke void @_ZN7testing8internal12AssertHelperC1ENS_14TestPartResult4TypeEPKciS5_(ptr noundef nonnull align 8 dereferenceable(8) %12, i32 noundef 1, ptr noundef @.str.2, i32 noundef 106, ptr noundef %37)
          to label %39 unwind label %41, !dbg !4350

39:                                               ; preds = %38
  invoke void @_ZNK7testing8internal12AssertHelperaSERKNS_7MessageE(ptr noundef nonnull align 8 dereferenceable(8) %12, ptr noundef nonnull align 8 dereferenceable(8) %35)
          to label %40 unwind label %45, !dbg !4350

40:                                               ; preds = %39
  call void @_ZN7testing8internal12AssertHelperD1Ev(ptr noundef nonnull align 8 dereferenceable(8) %12) #19, !dbg !4350
  call void @_ZN7testing7MessageD2Ev(ptr noundef nonnull align 8 dereferenceable(8) %11) #19, !dbg !4350
  br label %50

41:                                               ; preds = %38, %36, %34
  %42 = landingpad { ptr, i32 }
          cleanup, !dbg !4352
  %43 = extractvalue { ptr, i32 } %42, 0, !dbg !4352
  store ptr %43, ptr %9, align 8, !dbg !4352
  %44 = extractvalue { ptr, i32 } %42, 1, !dbg !4352
  store i32 %44, ptr %10, align 4, !dbg !4352
  br label %49, !dbg !4352

45:                                               ; preds = %39
  %46 = landingpad { ptr, i32 }
          cleanup, !dbg !4352
  %47 = extractvalue { ptr, i32 } %46, 0, !dbg !4352
  store ptr %47, ptr %9, align 8, !dbg !4352
  %48 = extractvalue { ptr, i32 } %46, 1, !dbg !4352
  store i32 %48, ptr %10, align 4, !dbg !4352
  call void @_ZN7testing8internal12AssertHelperD1Ev(ptr noundef nonnull align 8 dereferenceable(8) %12) #19, !dbg !4350
  br label %49, !dbg !4350

49:                                               ; preds = %45, %41
  call void @_ZN7testing7MessageD2Ev(ptr noundef nonnull align 8 dereferenceable(8) %11) #19, !dbg !4350
  br label %54, !dbg !4350

50:                                               ; preds = %40, %28
  call void @_ZN7testing15AssertionResultD2Ev(ptr noundef nonnull align 8 dereferenceable(16) %6) #19, !dbg !4351
  br label %51, !dbg !4354

51:                                               ; preds = %50
  %52 = load i64, ptr %5, align 8, !dbg !4355
  %53 = add i64 %52, 1, !dbg !4355
  store i64 %53, ptr %5, align 8, !dbg !4355
  br label %14, !dbg !4356, !llvm.loop !4357

54:                                               ; preds = %49, %29
  call void @_ZN7testing15AssertionResultD2Ev(ptr noundef nonnull align 8 dereferenceable(16) %6) #19, !dbg !4351
  br label %56, !dbg !4351

55:                                               ; preds = %14
  ret void, !dbg !4360

56:                                               ; preds = %54
  %57 = load ptr, ptr %9, align 8, !dbg !4351
  %58 = load i32, ptr %10, align 4, !dbg !4351
  %59 = insertvalue { ptr, i32 } poison, ptr %57, 0, !dbg !4351
  %60 = insertvalue { ptr, i32 } %59, i32 %58, 1, !dbg !4351
  resume { ptr, i32 } %60, !dbg !4351
}

; Function Attrs: nounwind
declare i32 @sigprocmask(i32 noundef, ptr noundef, ptr noundef) #6

; Function Attrs: nounwind
declare i32 @sigismember(ptr noundef, i32 noundef) #6

; Function Attrs: mustprogress noinline uwtable
define linkonce_odr dso_local noundef nonnull align 8 dereferenceable(8) ptr @_ZN7testing7MessagelsImEERS0_RKT_(ptr noundef nonnull align 8 dereferenceable(8) %0, ptr noundef nonnull align 8 dereferenceable(8) %1) #2 comdat align 2 !dbg !3803 {
  %3 = alloca ptr, align 8
  %4 = alloca ptr, align 8
  store ptr %0, ptr %3, align 8
  call void @llvm.dbg.declare(metadata ptr %3, metadata !4361, metadata !DIExpression()), !dbg !4362
  store ptr %1, ptr %4, align 8
  call void @llvm.dbg.declare(metadata ptr %4, metadata !4363, metadata !DIExpression()), !dbg !4364
  %5 = load ptr, ptr %3, align 8
  %6 = getelementptr inbounds %"class.testing::Message", ptr %5, i32 0, i32 0, !dbg !4365
  %7 = call noundef nonnull align 8 dereferenceable(128) ptr @_ZNKSt10unique_ptrINSt7__cxx1118basic_stringstreamIcSt11char_traitsIcESaIcEEESt14default_deleteIS5_EEdeEv(ptr noundef nonnull align 8 dereferenceable(8) %6) #19, !dbg !4366
  %8 = getelementptr inbounds i8, ptr %7, i64 16, !dbg !4366
  %9 = load ptr, ptr %4, align 8, !dbg !4367
  %10 = load i64, ptr %9, align 8, !dbg !4367
  %11 = call noundef nonnull align 8 dereferenceable(8) ptr @_ZNSolsEm(ptr noundef nonnull align 8 dereferenceable(8) %8, i64 noundef %10), !dbg !4368
  ret ptr %5, !dbg !4369
}

; Function Attrs: noinline uwtable
define internal void @__cxx_global_var_init.16() #0 section ".text.startup" personality ptr @__gxx_personality_v0 !dbg !4370 {
  %1 = alloca ptr, align 8
  %2 = alloca ptr, align 8
  %3 = alloca ptr, align 8
  %4 = alloca ptr, align 8
  %5 = alloca %"struct.testing::internal::CodeLocation", align 8
  %6 = alloca %"class.std::__cxx11::basic_string", align 8
  %7 = alloca %"class.std::allocator", align 1
  %8 = alloca ptr, align 8
  %9 = alloca i32, align 4
  store ptr %7, ptr %4, align 8
  call void @llvm.dbg.declare(metadata ptr %4, metadata !3889, metadata !DIExpression()), !dbg !4371
  %10 = load ptr, ptr %4, align 8
  store ptr %10, ptr %1, align 8
  call void @llvm.dbg.declare(metadata ptr %1, metadata !3895, metadata !DIExpression()), !dbg !4374
  %11 = load ptr, ptr %1, align 8
  invoke void @_ZNSt7__cxx1112basic_stringIcSt11char_traitsIcESaIcEEC2IS3_EEPKcRKS3_(ptr noundef nonnull align 8 dereferenceable(32) %6, ptr noundef @.str.2, ptr noundef nonnull align 1 dereferenceable(1) %7)
          to label %12 unwind label %26, !dbg !4376

12:                                               ; preds = %0
  invoke void @_ZN7testing8internal12CodeLocationC2ERKNSt7__cxx1112basic_stringIcSt11char_traitsIcESaIcEEEi(ptr noundef nonnull align 8 dereferenceable(36) %5, ptr noundef nonnull align 8 dereferenceable(32) %6, i32 noundef 110)
          to label %13 unwind label %30, !dbg !4376

13:                                               ; preds = %12
  %14 = invoke noundef ptr @_ZN7testing8internal13GetTestTypeIdEv()
          to label %15 unwind label %34, !dbg !4376

15:                                               ; preds = %13
  %16 = invoke noundef ptr @_ZN7testing8internal16SuiteApiResolverINS_4TestEE19GetSetUpCaseOrSuiteEPKci(ptr noundef @.str.2, i32 noundef 110)
          to label %17 unwind label %34, !dbg !4376

17:                                               ; preds = %15
  %18 = invoke noundef ptr @_ZN7testing8internal16SuiteApiResolverINS_4TestEE22GetTearDownCaseOrSuiteEPKci(ptr noundef @.str.2, i32 noundef 110)
          to label %19 unwind label %34, !dbg !4376

19:                                               ; preds = %17
  %20 = invoke noalias noundef nonnull ptr @_Znwm(i64 noundef 8) #18
          to label %21 unwind label %34, !dbg !4376, !heapallocsite !4377

21:                                               ; preds = %19
  invoke void @_ZN7testing8internal15TestFactoryImplI31setjmp__setjmp_signal_mask_TestEC2Ev(ptr noundef nonnull align 8 dereferenceable(8) %20)
          to label %22 unwind label %38, !dbg !4376

22:                                               ; preds = %21
  %23 = invoke noundef ptr @_ZN7testing8internal23MakeAndRegisterTestInfoEPKcS2_S2_S2_NS0_12CodeLocationEPKvPFvvES7_PNS0_15TestFactoryBaseE(ptr noundef @.str, ptr noundef @.str.17, ptr noundef null, ptr noundef null, ptr noundef %5, ptr noundef %14, ptr noundef %16, ptr noundef %18, ptr noundef %20)
          to label %24 unwind label %34, !dbg !4376

24:                                               ; preds = %22
  call void @_ZN7testing8internal12CodeLocationD2Ev(ptr noundef nonnull align 8 dereferenceable(36) %5) #19, !dbg !4376
  call void @_ZNSt7__cxx1112basic_stringIcSt11char_traitsIcESaIcEED1Ev(ptr noundef nonnull align 8 dereferenceable(32) %6) #19, !dbg !4376
  store ptr %7, ptr %3, align 8
  call void @llvm.dbg.declare(metadata ptr %3, metadata !3928, metadata !DIExpression()), !dbg !4386
  %25 = load ptr, ptr %3, align 8
  call void @_ZNSt15__new_allocatorIcED2Ev(ptr noundef nonnull align 1 dereferenceable(1) %25) #19, !dbg !4388
  store ptr %23, ptr @_ZN31setjmp__setjmp_signal_mask_Test10test_info_E, align 8, !dbg !4389
  ret void, !dbg !4376

26:                                               ; preds = %0
  %27 = landingpad { ptr, i32 }
          cleanup, !dbg !4376
  %28 = extractvalue { ptr, i32 } %27, 0, !dbg !4376
  store ptr %28, ptr %8, align 8, !dbg !4376
  %29 = extractvalue { ptr, i32 } %27, 1, !dbg !4376
  store i32 %29, ptr %9, align 4, !dbg !4376
  br label %44, !dbg !4376

30:                                               ; preds = %12
  %31 = landingpad { ptr, i32 }
          cleanup, !dbg !4376
  %32 = extractvalue { ptr, i32 } %31, 0, !dbg !4376
  store ptr %32, ptr %8, align 8, !dbg !4376
  %33 = extractvalue { ptr, i32 } %31, 1, !dbg !4376
  store i32 %33, ptr %9, align 4, !dbg !4376
  br label %43, !dbg !4376

34:                                               ; preds = %22, %19, %17, %15, %13
  %35 = landingpad { ptr, i32 }
          cleanup, !dbg !4376
  %36 = extractvalue { ptr, i32 } %35, 0, !dbg !4376
  store ptr %36, ptr %8, align 8, !dbg !4376
  %37 = extractvalue { ptr, i32 } %35, 1, !dbg !4376
  store i32 %37, ptr %9, align 4, !dbg !4376
  br label %42, !dbg !4376

38:                                               ; preds = %21
  %39 = landingpad { ptr, i32 }
          cleanup, !dbg !4376
  %40 = extractvalue { ptr, i32 } %39, 0, !dbg !4376
  store ptr %40, ptr %8, align 8, !dbg !4376
  %41 = extractvalue { ptr, i32 } %39, 1, !dbg !4376
  store i32 %41, ptr %9, align 4, !dbg !4376
  call void @_ZdlPv(ptr noundef %20) #20, !dbg !4376
  br label %42, !dbg !4376

42:                                               ; preds = %38, %34
  call void @_ZN7testing8internal12CodeLocationD2Ev(ptr noundef nonnull align 8 dereferenceable(36) %5) #19, !dbg !4376
  br label %43, !dbg !4376

43:                                               ; preds = %42, %30
  call void @_ZNSt7__cxx1112basic_stringIcSt11char_traitsIcESaIcEED1Ev(ptr noundef nonnull align 8 dereferenceable(32) %6) #19, !dbg !4376
  br label %44, !dbg !4376

44:                                               ; preds = %43, %26
  store ptr %7, ptr %2, align 8
  call void @llvm.dbg.declare(metadata ptr %2, metadata !3928, metadata !DIExpression()), !dbg !4390
  %45 = load ptr, ptr %2, align 8
  call void @_ZNSt15__new_allocatorIcED2Ev(ptr noundef nonnull align 1 dereferenceable(1) %45) #19, !dbg !4392
  br label %46, !dbg !4376

46:                                               ; preds = %44
  %47 = load ptr, ptr %8, align 8, !dbg !4376
  %48 = load i32, ptr %9, align 4, !dbg !4376
  %49 = insertvalue { ptr, i32 } poison, ptr %47, 0, !dbg !4376
  %50 = insertvalue { ptr, i32 } %49, i32 %48, 1, !dbg !4376
  resume { ptr, i32 } %50, !dbg !4376
}

; Function Attrs: noinline nounwind uwtable
define linkonce_odr dso_local void @_ZN7testing8internal15TestFactoryImplI31setjmp__setjmp_signal_mask_TestEC2Ev(ptr noundef nonnull align 8 dereferenceable(8) %0) unnamed_addr #5 comdat align 2 !dbg !4393 {
  %2 = alloca ptr, align 8
  store ptr %0, ptr %2, align 8
  call void @llvm.dbg.declare(metadata ptr %2, metadata !4397, metadata !DIExpression()), !dbg !4399
  %3 = load ptr, ptr %2, align 8
  call void @_ZN7testing8internal15TestFactoryBaseC2Ev(ptr noundef nonnull align 8 dereferenceable(8) %3), !dbg !4400
  store ptr getelementptr inbounds ({ [5 x ptr] }, ptr @_ZTVN7testing8internal15TestFactoryImplI31setjmp__setjmp_signal_mask_TestEE, i32 0, inrange i32 0, i32 2), ptr %3, align 8, !dbg !4400
  ret void, !dbg !4400
}

; Function Attrs: mustprogress noinline uwtable
define dso_local void @_ZN31setjmp__setjmp_signal_mask_Test8TestBodyEv(ptr noundef nonnull align 8 dereferenceable(16) %0) unnamed_addr #2 align 2 personality ptr @__gxx_personality_v0 !dbg !4401 {
  %2 = alloca ptr, align 8
  %3 = alloca %class.SignalMaskRestorer, align 8
  %4 = alloca %struct.SigSets, align 8
  %5 = alloca ptr, align 8
  %6 = alloca i32, align 4
  %7 = alloca [1 x %struct.__jmp_buf_tag], align 16
  store ptr %0, ptr %2, align 8
  call void @llvm.dbg.declare(metadata ptr %2, metadata !4402, metadata !DIExpression()), !dbg !4404
  %8 = load ptr, ptr %2, align 8
  call void @llvm.dbg.declare(metadata ptr %3, metadata !4405, metadata !DIExpression()), !dbg !4406
  call void @_ZN18SignalMaskRestorerC2Ev(ptr noundef nonnull align 8 dereferenceable(128) %3), !dbg !4406
  call void @llvm.dbg.declare(metadata ptr %4, metadata !4407, metadata !DIExpression()), !dbg !4408
  invoke void @_ZN7SigSetsC2Ev(ptr noundef nonnull align 8 dereferenceable(256) %4)
          to label %9 unwind label %19, !dbg !4408

9:                                                ; preds = %1
  %10 = getelementptr inbounds %struct.SigSets, ptr %4, i32 0, i32 0, !dbg !4409
  %11 = call i32 @sigprocmask(i32 noundef 2, ptr noundef %10, ptr noundef null) #19, !dbg !4410
  call void @llvm.dbg.declare(metadata ptr %7, metadata !4411, metadata !DIExpression()), !dbg !4412
  %12 = getelementptr inbounds [1 x %struct.__jmp_buf_tag], ptr %7, i64 0, i64 0, !dbg !4413
  %13 = call i32 @_setjmp(ptr noundef %12) #22, !dbg !4415
  %14 = icmp eq i32 %13, 0, !dbg !4416
  br i1 %14, label %15, label %23, !dbg !4417

15:                                               ; preds = %9
  %16 = getelementptr inbounds %struct.SigSets, ptr %4, i32 0, i32 1, !dbg !4418
  %17 = call i32 @sigprocmask(i32 noundef 2, ptr noundef %16, ptr noundef null) #19, !dbg !4420
  %18 = getelementptr inbounds [1 x %struct.__jmp_buf_tag], ptr %7, i64 0, i64 0, !dbg !4421
  call void @_longjmp(ptr noundef %18, i32 noundef 1) #23, !dbg !4422
  unreachable, !dbg !4422

19:                                               ; preds = %23, %1
  %20 = landingpad { ptr, i32 }
          cleanup, !dbg !4423
  %21 = extractvalue { ptr, i32 } %20, 0, !dbg !4423
  store ptr %21, ptr %5, align 8, !dbg !4423
  %22 = extractvalue { ptr, i32 } %20, 1, !dbg !4423
  store i32 %22, ptr %6, align 4, !dbg !4423
  call void @_ZN18SignalMaskRestorerD2Ev(ptr noundef nonnull align 8 dereferenceable(128) %3) #19, !dbg !4423
  br label %27, !dbg !4423

23:                                               ; preds = %9
  %24 = getelementptr inbounds %struct.SigSets, ptr %4, i32 0, i32 1, !dbg !4424
  invoke void @_Z19AssertSigmaskEqualsRK10__sigset_t(ptr noundef nonnull align 8 dereferenceable(128) %24)
          to label %25 unwind label %19, !dbg !4426

25:                                               ; preds = %23
  br label %26

26:                                               ; preds = %25
  call void @_ZN18SignalMaskRestorerD2Ev(ptr noundef nonnull align 8 dereferenceable(128) %3) #19, !dbg !4423
  ret void, !dbg !4423

27:                                               ; preds = %19
  %28 = load ptr, ptr %5, align 8, !dbg !4423
  %29 = load i32, ptr %6, align 4, !dbg !4423
  %30 = insertvalue { ptr, i32 } poison, ptr %28, 0, !dbg !4423
  %31 = insertvalue { ptr, i32 } %30, i32 %29, 1, !dbg !4423
  resume { ptr, i32 } %31, !dbg !4423
}

; Function Attrs: noinline nounwind uwtable
define linkonce_odr dso_local void @_ZN18SignalMaskRestorerC2Ev(ptr noundef nonnull align 8 dereferenceable(128) %0) unnamed_addr #5 comdat align 2 !dbg !4427 {
  %2 = alloca ptr, align 8
  store ptr %0, ptr %2, align 8
  call void @llvm.dbg.declare(metadata ptr %2, metadata !4428, metadata !DIExpression()), !dbg !4430
  %3 = load ptr, ptr %2, align 8
  %4 = getelementptr inbounds %class.SignalMaskRestorer, ptr %3, i32 0, i32 0, !dbg !4431
  %5 = getelementptr inbounds %class.SignalMaskRestorer, ptr %3, i32 0, i32 0, !dbg !4432
  %6 = call i32 @sigprocmask(i32 noundef 2, ptr noundef null, ptr noundef %5) #19, !dbg !4434
  ret void, !dbg !4435
}

; Function Attrs: noinline uwtable
define linkonce_odr dso_local void @_ZN7SigSetsC2Ev(ptr noundef nonnull align 8 dereferenceable(256) %0) unnamed_addr #0 comdat align 2 !dbg !4436 {
  %2 = alloca ptr, align 8
  store ptr %0, ptr %2, align 8
  call void @llvm.dbg.declare(metadata ptr %2, metadata !4437, metadata !DIExpression()), !dbg !4439
  %3 = load ptr, ptr %2, align 8
  %4 = getelementptr inbounds %struct.SigSets, ptr %3, i32 0, i32 0, !dbg !4440
  call void @_ZN7SigSets10MakeSigSetEi(ptr sret(%struct.__sigset_t) align 8 %4, i32 noundef 0), !dbg !4441
  %5 = getelementptr inbounds %struct.SigSets, ptr %3, i32 0, i32 1, !dbg !4442
  call void @_ZN7SigSets10MakeSigSetEi(ptr sret(%struct.__sigset_t) align 8 %5, i32 noundef 1), !dbg !4443
  ret void, !dbg !4444
}

; Function Attrs: noinline nounwind uwtable
define linkonce_odr dso_local void @_ZN18SignalMaskRestorerD2Ev(ptr noundef nonnull align 8 dereferenceable(128) %0) unnamed_addr #5 comdat align 2 !dbg !4445 {
  %2 = alloca ptr, align 8
  store ptr %0, ptr %2, align 8
  call void @llvm.dbg.declare(metadata ptr %2, metadata !4446, metadata !DIExpression()), !dbg !4447
  %3 = load ptr, ptr %2, align 8
  %4 = getelementptr inbounds %class.SignalMaskRestorer, ptr %3, i32 0, i32 0, !dbg !4448
  %5 = call i32 @sigprocmask(i32 noundef 2, ptr noundef %4, ptr noundef null) #19, !dbg !4450
  ret void, !dbg !4451
}

; Function Attrs: noinline uwtable
define internal void @__cxx_global_var_init.18() #0 section ".text.startup" personality ptr @__gxx_personality_v0 !dbg !4452 {
  %1 = alloca ptr, align 8
  %2 = alloca ptr, align 8
  %3 = alloca ptr, align 8
  %4 = alloca ptr, align 8
  %5 = alloca %"struct.testing::internal::CodeLocation", align 8
  %6 = alloca %"class.std::__cxx11::basic_string", align 8
  %7 = alloca %"class.std::allocator", align 1
  %8 = alloca ptr, align 8
  %9 = alloca i32, align 4
  store ptr %7, ptr %4, align 8
  call void @llvm.dbg.declare(metadata ptr %4, metadata !3889, metadata !DIExpression()), !dbg !4453
  %10 = load ptr, ptr %4, align 8
  store ptr %10, ptr %1, align 8
  call void @llvm.dbg.declare(metadata ptr %1, metadata !3895, metadata !DIExpression()), !dbg !4456
  %11 = load ptr, ptr %1, align 8
  invoke void @_ZNSt7__cxx1112basic_stringIcSt11char_traitsIcESaIcEEC2IS3_EEPKcRKS3_(ptr noundef nonnull align 8 dereferenceable(32) %6, ptr noundef @.str.2, ptr noundef nonnull align 1 dereferenceable(1) %7)
          to label %12 unwind label %26, !dbg !4458

12:                                               ; preds = %0
  invoke void @_ZN7testing8internal12CodeLocationC2ERKNSt7__cxx1112basic_stringIcSt11char_traitsIcESaIcEEEi(ptr noundef nonnull align 8 dereferenceable(36) %5, ptr noundef nonnull align 8 dereferenceable(32) %6, i32 noundef 126)
          to label %13 unwind label %30, !dbg !4458

13:                                               ; preds = %12
  %14 = invoke noundef ptr @_ZN7testing8internal13GetTestTypeIdEv()
          to label %15 unwind label %34, !dbg !4458

15:                                               ; preds = %13
  %16 = invoke noundef ptr @_ZN7testing8internal16SuiteApiResolverINS_4TestEE19GetSetUpCaseOrSuiteEPKci(ptr noundef @.str.2, i32 noundef 126)
          to label %17 unwind label %34, !dbg !4458

17:                                               ; preds = %15
  %18 = invoke noundef ptr @_ZN7testing8internal16SuiteApiResolverINS_4TestEE22GetTearDownCaseOrSuiteEPKci(ptr noundef @.str.2, i32 noundef 126)
          to label %19 unwind label %34, !dbg !4458

19:                                               ; preds = %17
  %20 = invoke noalias noundef nonnull ptr @_Znwm(i64 noundef 8) #18
          to label %21 unwind label %34, !dbg !4458, !heapallocsite !4459

21:                                               ; preds = %19
  invoke void @_ZN7testing8internal15TestFactoryImplI30setjmp_setjmp_signal_mask_TestEC2Ev(ptr noundef nonnull align 8 dereferenceable(8) %20)
          to label %22 unwind label %38, !dbg !4458

22:                                               ; preds = %21
  %23 = invoke noundef ptr @_ZN7testing8internal23MakeAndRegisterTestInfoEPKcS2_S2_S2_NS0_12CodeLocationEPKvPFvvES7_PNS0_15TestFactoryBaseE(ptr noundef @.str, ptr noundef @.str.19, ptr noundef null, ptr noundef null, ptr noundef %5, ptr noundef %14, ptr noundef %16, ptr noundef %18, ptr noundef %20)
          to label %24 unwind label %34, !dbg !4458

24:                                               ; preds = %22
  call void @_ZN7testing8internal12CodeLocationD2Ev(ptr noundef nonnull align 8 dereferenceable(36) %5) #19, !dbg !4458
  call void @_ZNSt7__cxx1112basic_stringIcSt11char_traitsIcESaIcEED1Ev(ptr noundef nonnull align 8 dereferenceable(32) %6) #19, !dbg !4458
  store ptr %7, ptr %3, align 8
  call void @llvm.dbg.declare(metadata ptr %3, metadata !3928, metadata !DIExpression()), !dbg !4468
  %25 = load ptr, ptr %3, align 8
  call void @_ZNSt15__new_allocatorIcED2Ev(ptr noundef nonnull align 1 dereferenceable(1) %25) #19, !dbg !4470
  store ptr %23, ptr @_ZN30setjmp_setjmp_signal_mask_Test10test_info_E, align 8, !dbg !4471
  ret void, !dbg !4458

26:                                               ; preds = %0
  %27 = landingpad { ptr, i32 }
          cleanup, !dbg !4458
  %28 = extractvalue { ptr, i32 } %27, 0, !dbg !4458
  store ptr %28, ptr %8, align 8, !dbg !4458
  %29 = extractvalue { ptr, i32 } %27, 1, !dbg !4458
  store i32 %29, ptr %9, align 4, !dbg !4458
  br label %44, !dbg !4458

30:                                               ; preds = %12
  %31 = landingpad { ptr, i32 }
          cleanup, !dbg !4458
  %32 = extractvalue { ptr, i32 } %31, 0, !dbg !4458
  store ptr %32, ptr %8, align 8, !dbg !4458
  %33 = extractvalue { ptr, i32 } %31, 1, !dbg !4458
  store i32 %33, ptr %9, align 4, !dbg !4458
  br label %43, !dbg !4458

34:                                               ; preds = %22, %19, %17, %15, %13
  %35 = landingpad { ptr, i32 }
          cleanup, !dbg !4458
  %36 = extractvalue { ptr, i32 } %35, 0, !dbg !4458
  store ptr %36, ptr %8, align 8, !dbg !4458
  %37 = extractvalue { ptr, i32 } %35, 1, !dbg !4458
  store i32 %37, ptr %9, align 4, !dbg !4458
  br label %42, !dbg !4458

38:                                               ; preds = %21
  %39 = landingpad { ptr, i32 }
          cleanup, !dbg !4458
  %40 = extractvalue { ptr, i32 } %39, 0, !dbg !4458
  store ptr %40, ptr %8, align 8, !dbg !4458
  %41 = extractvalue { ptr, i32 } %39, 1, !dbg !4458
  store i32 %41, ptr %9, align 4, !dbg !4458
  call void @_ZdlPv(ptr noundef %20) #20, !dbg !4458
  br label %42, !dbg !4458

42:                                               ; preds = %38, %34
  call void @_ZN7testing8internal12CodeLocationD2Ev(ptr noundef nonnull align 8 dereferenceable(36) %5) #19, !dbg !4458
  br label %43, !dbg !4458

43:                                               ; preds = %42, %30
  call void @_ZNSt7__cxx1112basic_stringIcSt11char_traitsIcESaIcEED1Ev(ptr noundef nonnull align 8 dereferenceable(32) %6) #19, !dbg !4458
  br label %44, !dbg !4458

44:                                               ; preds = %43, %26
  store ptr %7, ptr %2, align 8
  call void @llvm.dbg.declare(metadata ptr %2, metadata !3928, metadata !DIExpression()), !dbg !4472
  %45 = load ptr, ptr %2, align 8
  call void @_ZNSt15__new_allocatorIcED2Ev(ptr noundef nonnull align 1 dereferenceable(1) %45) #19, !dbg !4474
  br label %46, !dbg !4458

46:                                               ; preds = %44
  %47 = load ptr, ptr %8, align 8, !dbg !4458
  %48 = load i32, ptr %9, align 4, !dbg !4458
  %49 = insertvalue { ptr, i32 } poison, ptr %47, 0, !dbg !4458
  %50 = insertvalue { ptr, i32 } %49, i32 %48, 1, !dbg !4458
  resume { ptr, i32 } %50, !dbg !4458
}

; Function Attrs: noinline nounwind uwtable
define linkonce_odr dso_local void @_ZN7testing8internal15TestFactoryImplI30setjmp_setjmp_signal_mask_TestEC2Ev(ptr noundef nonnull align 8 dereferenceable(8) %0) unnamed_addr #5 comdat align 2 !dbg !4475 {
  %2 = alloca ptr, align 8
  store ptr %0, ptr %2, align 8
  call void @llvm.dbg.declare(metadata ptr %2, metadata !4479, metadata !DIExpression()), !dbg !4481
  %3 = load ptr, ptr %2, align 8
  call void @_ZN7testing8internal15TestFactoryBaseC2Ev(ptr noundef nonnull align 8 dereferenceable(8) %3), !dbg !4482
  store ptr getelementptr inbounds ({ [5 x ptr] }, ptr @_ZTVN7testing8internal15TestFactoryImplI30setjmp_setjmp_signal_mask_TestEE, i32 0, inrange i32 0, i32 2), ptr %3, align 8, !dbg !4482
  ret void, !dbg !4482
}

; Function Attrs: mustprogress noinline uwtable
define dso_local void @_ZN30setjmp_setjmp_signal_mask_Test8TestBodyEv(ptr noundef nonnull align 8 dereferenceable(16) %0) unnamed_addr #2 align 2 personality ptr @__gxx_personality_v0 !dbg !4483 {
  %2 = alloca ptr, align 8
  %3 = alloca %class.SignalMaskRestorer, align 8
  %4 = alloca %struct.SigSets, align 8
  %5 = alloca ptr, align 8
  %6 = alloca i32, align 4
  %7 = alloca [1 x %struct.__jmp_buf_tag], align 16
  store ptr %0, ptr %2, align 8
  call void @llvm.dbg.declare(metadata ptr %2, metadata !4484, metadata !DIExpression()), !dbg !4486
  %8 = load ptr, ptr %2, align 8
  call void @llvm.dbg.declare(metadata ptr %3, metadata !4487, metadata !DIExpression()), !dbg !4488
  call void @_ZN18SignalMaskRestorerC2Ev(ptr noundef nonnull align 8 dereferenceable(128) %3), !dbg !4488
  call void @llvm.dbg.declare(metadata ptr %4, metadata !4489, metadata !DIExpression()), !dbg !4490
  invoke void @_ZN7SigSetsC2Ev(ptr noundef nonnull align 8 dereferenceable(256) %4)
          to label %9 unwind label %19, !dbg !4490

9:                                                ; preds = %1
  %10 = getelementptr inbounds %struct.SigSets, ptr %4, i32 0, i32 0, !dbg !4491
  %11 = call i32 @sigprocmask(i32 noundef 2, ptr noundef %10, ptr noundef null) #19, !dbg !4492
  call void @llvm.dbg.declare(metadata ptr %7, metadata !4493, metadata !DIExpression()), !dbg !4494
  %12 = getelementptr inbounds [1 x %struct.__jmp_buf_tag], ptr %7, i64 0, i64 0, !dbg !4495
  %13 = call i32 @_setjmp(ptr noundef %12) #22, !dbg !4495
  %14 = icmp eq i32 %13, 0, !dbg !4497
  br i1 %14, label %15, label %23, !dbg !4498

15:                                               ; preds = %9
  %16 = getelementptr inbounds %struct.SigSets, ptr %4, i32 0, i32 1, !dbg !4499
  %17 = call i32 @sigprocmask(i32 noundef 2, ptr noundef %16, ptr noundef null) #19, !dbg !4501
  %18 = getelementptr inbounds [1 x %struct.__jmp_buf_tag], ptr %7, i64 0, i64 0, !dbg !4502
  call void @longjmp(ptr noundef %18, i32 noundef 1) #23, !dbg !4503
  unreachable, !dbg !4503

19:                                               ; preds = %23, %1
  %20 = landingpad { ptr, i32 }
          cleanup, !dbg !4504
  %21 = extractvalue { ptr, i32 } %20, 0, !dbg !4504
  store ptr %21, ptr %5, align 8, !dbg !4504
  %22 = extractvalue { ptr, i32 } %20, 1, !dbg !4504
  store i32 %22, ptr %6, align 4, !dbg !4504
  call void @_ZN18SignalMaskRestorerD2Ev(ptr noundef nonnull align 8 dereferenceable(128) %3) #19, !dbg !4504
  br label %27, !dbg !4504

23:                                               ; preds = %9
  %24 = getelementptr inbounds %struct.SigSets, ptr %4, i32 0, i32 0, !dbg !4505
  invoke void @_Z19AssertSigmaskEqualsRK10__sigset_t(ptr noundef nonnull align 8 dereferenceable(128) %24)
          to label %25 unwind label %19, !dbg !4507

25:                                               ; preds = %23
  br label %26

26:                                               ; preds = %25
  call void @_ZN18SignalMaskRestorerD2Ev(ptr noundef nonnull align 8 dereferenceable(128) %3) #19, !dbg !4504
  ret void, !dbg !4504

27:                                               ; preds = %19
  %28 = load ptr, ptr %5, align 8, !dbg !4504
  %29 = load i32, ptr %6, align 4, !dbg !4504
  %30 = insertvalue { ptr, i32 } poison, ptr %28, 0, !dbg !4504
  %31 = insertvalue { ptr, i32 } %30, i32 %29, 1, !dbg !4504
  resume { ptr, i32 } %31, !dbg !4504
}

; Function Attrs: noinline uwtable
define internal void @__cxx_global_var_init.20() #0 section ".text.startup" personality ptr @__gxx_personality_v0 !dbg !4508 {
  %1 = alloca ptr, align 8
  %2 = alloca ptr, align 8
  %3 = alloca ptr, align 8
  %4 = alloca ptr, align 8
  %5 = alloca %"struct.testing::internal::CodeLocation", align 8
  %6 = alloca %"class.std::__cxx11::basic_string", align 8
  %7 = alloca %"class.std::allocator", align 1
  %8 = alloca ptr, align 8
  %9 = alloca i32, align 4
  store ptr %7, ptr %4, align 8
  call void @llvm.dbg.declare(metadata ptr %4, metadata !3889, metadata !DIExpression()), !dbg !4509
  %10 = load ptr, ptr %4, align 8
  store ptr %10, ptr %1, align 8
  call void @llvm.dbg.declare(metadata ptr %1, metadata !3895, metadata !DIExpression()), !dbg !4512
  %11 = load ptr, ptr %1, align 8
  invoke void @_ZNSt7__cxx1112basic_stringIcSt11char_traitsIcESaIcEEC2IS3_EEPKcRKS3_(ptr noundef nonnull align 8 dereferenceable(32) %6, ptr noundef @.str.2, ptr noundef nonnull align 1 dereferenceable(1) %7)
          to label %12 unwind label %26, !dbg !4514

12:                                               ; preds = %0
  invoke void @_ZN7testing8internal12CodeLocationC2ERKNSt7__cxx1112basic_stringIcSt11char_traitsIcESaIcEEEi(ptr noundef nonnull align 8 dereferenceable(36) %5, ptr noundef nonnull align 8 dereferenceable(32) %6, i32 noundef 150)
          to label %13 unwind label %30, !dbg !4514

13:                                               ; preds = %12
  %14 = invoke noundef ptr @_ZN7testing8internal13GetTestTypeIdEv()
          to label %15 unwind label %34, !dbg !4514

15:                                               ; preds = %13
  %16 = invoke noundef ptr @_ZN7testing8internal16SuiteApiResolverINS_4TestEE19GetSetUpCaseOrSuiteEPKci(ptr noundef @.str.2, i32 noundef 150)
          to label %17 unwind label %34, !dbg !4514

17:                                               ; preds = %15
  %18 = invoke noundef ptr @_ZN7testing8internal16SuiteApiResolverINS_4TestEE22GetTearDownCaseOrSuiteEPKci(ptr noundef @.str.2, i32 noundef 150)
          to label %19 unwind label %34, !dbg !4514

19:                                               ; preds = %17
  %20 = invoke noalias noundef nonnull ptr @_Znwm(i64 noundef 8) #18
          to label %21 unwind label %34, !dbg !4514, !heapallocsite !4515

21:                                               ; preds = %19
  invoke void @_ZN7testing8internal15TestFactoryImplI35setjmp_sigsetjmp_0_signal_mask_TestEC2Ev(ptr noundef nonnull align 8 dereferenceable(8) %20)
          to label %22 unwind label %38, !dbg !4514

22:                                               ; preds = %21
  %23 = invoke noundef ptr @_ZN7testing8internal23MakeAndRegisterTestInfoEPKcS2_S2_S2_NS0_12CodeLocationEPKvPFvvES7_PNS0_15TestFactoryBaseE(ptr noundef @.str, ptr noundef @.str.21, ptr noundef null, ptr noundef null, ptr noundef %5, ptr noundef %14, ptr noundef %16, ptr noundef %18, ptr noundef %20)
          to label %24 unwind label %34, !dbg !4514

24:                                               ; preds = %22
  call void @_ZN7testing8internal12CodeLocationD2Ev(ptr noundef nonnull align 8 dereferenceable(36) %5) #19, !dbg !4514
  call void @_ZNSt7__cxx1112basic_stringIcSt11char_traitsIcESaIcEED1Ev(ptr noundef nonnull align 8 dereferenceable(32) %6) #19, !dbg !4514
  store ptr %7, ptr %3, align 8
  call void @llvm.dbg.declare(metadata ptr %3, metadata !3928, metadata !DIExpression()), !dbg !4524
  %25 = load ptr, ptr %3, align 8
  call void @_ZNSt15__new_allocatorIcED2Ev(ptr noundef nonnull align 1 dereferenceable(1) %25) #19, !dbg !4526
  store ptr %23, ptr @_ZN35setjmp_sigsetjmp_0_signal_mask_Test10test_info_E, align 8, !dbg !4527
  ret void, !dbg !4514

26:                                               ; preds = %0
  %27 = landingpad { ptr, i32 }
          cleanup, !dbg !4514
  %28 = extractvalue { ptr, i32 } %27, 0, !dbg !4514
  store ptr %28, ptr %8, align 8, !dbg !4514
  %29 = extractvalue { ptr, i32 } %27, 1, !dbg !4514
  store i32 %29, ptr %9, align 4, !dbg !4514
  br label %44, !dbg !4514

30:                                               ; preds = %12
  %31 = landingpad { ptr, i32 }
          cleanup, !dbg !4514
  %32 = extractvalue { ptr, i32 } %31, 0, !dbg !4514
  store ptr %32, ptr %8, align 8, !dbg !4514
  %33 = extractvalue { ptr, i32 } %31, 1, !dbg !4514
  store i32 %33, ptr %9, align 4, !dbg !4514
  br label %43, !dbg !4514

34:                                               ; preds = %22, %19, %17, %15, %13
  %35 = landingpad { ptr, i32 }
          cleanup, !dbg !4514
  %36 = extractvalue { ptr, i32 } %35, 0, !dbg !4514
  store ptr %36, ptr %8, align 8, !dbg !4514
  %37 = extractvalue { ptr, i32 } %35, 1, !dbg !4514
  store i32 %37, ptr %9, align 4, !dbg !4514
  br label %42, !dbg !4514

38:                                               ; preds = %21
  %39 = landingpad { ptr, i32 }
          cleanup, !dbg !4514
  %40 = extractvalue { ptr, i32 } %39, 0, !dbg !4514
  store ptr %40, ptr %8, align 8, !dbg !4514
  %41 = extractvalue { ptr, i32 } %39, 1, !dbg !4514
  store i32 %41, ptr %9, align 4, !dbg !4514
  call void @_ZdlPv(ptr noundef %20) #20, !dbg !4514
  br label %42, !dbg !4514

42:                                               ; preds = %38, %34
  call void @_ZN7testing8internal12CodeLocationD2Ev(ptr noundef nonnull align 8 dereferenceable(36) %5) #19, !dbg !4514
  br label %43, !dbg !4514

43:                                               ; preds = %42, %30
  call void @_ZNSt7__cxx1112basic_stringIcSt11char_traitsIcESaIcEED1Ev(ptr noundef nonnull align 8 dereferenceable(32) %6) #19, !dbg !4514
  br label %44, !dbg !4514

44:                                               ; preds = %43, %26
  store ptr %7, ptr %2, align 8
  call void @llvm.dbg.declare(metadata ptr %2, metadata !3928, metadata !DIExpression()), !dbg !4528
  %45 = load ptr, ptr %2, align 8
  call void @_ZNSt15__new_allocatorIcED2Ev(ptr noundef nonnull align 1 dereferenceable(1) %45) #19, !dbg !4530
  br label %46, !dbg !4514

46:                                               ; preds = %44
  %47 = load ptr, ptr %8, align 8, !dbg !4514
  %48 = load i32, ptr %9, align 4, !dbg !4514
  %49 = insertvalue { ptr, i32 } poison, ptr %47, 0, !dbg !4514
  %50 = insertvalue { ptr, i32 } %49, i32 %48, 1, !dbg !4514
  resume { ptr, i32 } %50, !dbg !4514
}

; Function Attrs: noinline nounwind uwtable
define linkonce_odr dso_local void @_ZN7testing8internal15TestFactoryImplI35setjmp_sigsetjmp_0_signal_mask_TestEC2Ev(ptr noundef nonnull align 8 dereferenceable(8) %0) unnamed_addr #5 comdat align 2 !dbg !4531 {
  %2 = alloca ptr, align 8
  store ptr %0, ptr %2, align 8
  call void @llvm.dbg.declare(metadata ptr %2, metadata !4535, metadata !DIExpression()), !dbg !4537
  %3 = load ptr, ptr %2, align 8
  call void @_ZN7testing8internal15TestFactoryBaseC2Ev(ptr noundef nonnull align 8 dereferenceable(8) %3), !dbg !4538
  store ptr getelementptr inbounds ({ [5 x ptr] }, ptr @_ZTVN7testing8internal15TestFactoryImplI35setjmp_sigsetjmp_0_signal_mask_TestEE, i32 0, inrange i32 0, i32 2), ptr %3, align 8, !dbg !4538
  ret void, !dbg !4538
}

; Function Attrs: mustprogress noinline uwtable
define dso_local void @_ZN35setjmp_sigsetjmp_0_signal_mask_Test8TestBodyEv(ptr noundef nonnull align 8 dereferenceable(16) %0) unnamed_addr #2 align 2 personality ptr @__gxx_personality_v0 !dbg !4539 {
  %2 = alloca ptr, align 8
  %3 = alloca %class.SignalMaskRestorer, align 8
  %4 = alloca %struct.SigSets, align 8
  %5 = alloca ptr, align 8
  %6 = alloca i32, align 4
  %7 = alloca [1 x %struct.__jmp_buf_tag], align 16
  store ptr %0, ptr %2, align 8
  call void @llvm.dbg.declare(metadata ptr %2, metadata !4540, metadata !DIExpression()), !dbg !4542
  %8 = load ptr, ptr %2, align 8
  call void @llvm.dbg.declare(metadata ptr %3, metadata !4543, metadata !DIExpression()), !dbg !4544
  call void @_ZN18SignalMaskRestorerC2Ev(ptr noundef nonnull align 8 dereferenceable(128) %3), !dbg !4544
  call void @llvm.dbg.declare(metadata ptr %4, metadata !4545, metadata !DIExpression()), !dbg !4546
  invoke void @_ZN7SigSetsC2Ev(ptr noundef nonnull align 8 dereferenceable(256) %4)
          to label %9 unwind label %19, !dbg !4546

9:                                                ; preds = %1
  %10 = getelementptr inbounds %struct.SigSets, ptr %4, i32 0, i32 0, !dbg !4547
  %11 = call i32 @sigprocmask(i32 noundef 2, ptr noundef %10, ptr noundef null) #19, !dbg !4548
  call void @llvm.dbg.declare(metadata ptr %7, metadata !4549, metadata !DIExpression()), !dbg !4550
  %12 = getelementptr inbounds [1 x %struct.__jmp_buf_tag], ptr %7, i64 0, i64 0, !dbg !4551
  %13 = call i32 @__sigsetjmp(ptr noundef %12, i32 noundef 0) #22, !dbg !4551
  %14 = icmp eq i32 %13, 0, !dbg !4553
  br i1 %14, label %15, label %23, !dbg !4554

15:                                               ; preds = %9
  %16 = getelementptr inbounds %struct.SigSets, ptr %4, i32 0, i32 1, !dbg !4555
  %17 = call i32 @sigprocmask(i32 noundef 2, ptr noundef %16, ptr noundef null) #19, !dbg !4557
  %18 = getelementptr inbounds [1 x %struct.__jmp_buf_tag], ptr %7, i64 0, i64 0, !dbg !4558
  call void @siglongjmp(ptr noundef %18, i32 noundef 1) #23, !dbg !4559
  unreachable, !dbg !4559

19:                                               ; preds = %23, %1
  %20 = landingpad { ptr, i32 }
          cleanup, !dbg !4560
  %21 = extractvalue { ptr, i32 } %20, 0, !dbg !4560
  store ptr %21, ptr %5, align 8, !dbg !4560
  %22 = extractvalue { ptr, i32 } %20, 1, !dbg !4560
  store i32 %22, ptr %6, align 4, !dbg !4560
  call void @_ZN18SignalMaskRestorerD2Ev(ptr noundef nonnull align 8 dereferenceable(128) %3) #19, !dbg !4560
  br label %27, !dbg !4560

23:                                               ; preds = %9
  %24 = getelementptr inbounds %struct.SigSets, ptr %4, i32 0, i32 1, !dbg !4561
  invoke void @_Z19AssertSigmaskEqualsRK10__sigset_t(ptr noundef nonnull align 8 dereferenceable(128) %24)
          to label %25 unwind label %19, !dbg !4563

25:                                               ; preds = %23
  br label %26

26:                                               ; preds = %25
  call void @_ZN18SignalMaskRestorerD2Ev(ptr noundef nonnull align 8 dereferenceable(128) %3) #19, !dbg !4560
  ret void, !dbg !4560

27:                                               ; preds = %19
  %28 = load ptr, ptr %5, align 8, !dbg !4560
  %29 = load i32, ptr %6, align 4, !dbg !4560
  %30 = insertvalue { ptr, i32 } poison, ptr %28, 0, !dbg !4560
  %31 = insertvalue { ptr, i32 } %30, i32 %29, 1, !dbg !4560
  resume { ptr, i32 } %31, !dbg !4560
}

; Function Attrs: noinline uwtable
define internal void @__cxx_global_var_init.22() #0 section ".text.startup" personality ptr @__gxx_personality_v0 !dbg !4564 {
  %1 = alloca ptr, align 8
  %2 = alloca ptr, align 8
  %3 = alloca ptr, align 8
  %4 = alloca ptr, align 8
  %5 = alloca %"struct.testing::internal::CodeLocation", align 8
  %6 = alloca %"class.std::__cxx11::basic_string", align 8
  %7 = alloca %"class.std::allocator", align 1
  %8 = alloca ptr, align 8
  %9 = alloca i32, align 4
  store ptr %7, ptr %4, align 8
  call void @llvm.dbg.declare(metadata ptr %4, metadata !3889, metadata !DIExpression()), !dbg !4565
  %10 = load ptr, ptr %4, align 8
  store ptr %10, ptr %1, align 8
  call void @llvm.dbg.declare(metadata ptr %1, metadata !3895, metadata !DIExpression()), !dbg !4568
  %11 = load ptr, ptr %1, align 8
  invoke void @_ZNSt7__cxx1112basic_stringIcSt11char_traitsIcESaIcEEC2IS3_EEPKcRKS3_(ptr noundef nonnull align 8 dereferenceable(32) %6, ptr noundef @.str.2, ptr noundef nonnull align 1 dereferenceable(1) %7)
          to label %12 unwind label %26, !dbg !4570

12:                                               ; preds = %0
  invoke void @_ZN7testing8internal12CodeLocationC2ERKNSt7__cxx1112basic_stringIcSt11char_traitsIcESaIcEEEi(ptr noundef nonnull align 8 dereferenceable(36) %5, ptr noundef nonnull align 8 dereferenceable(32) %6, i32 noundef 166)
          to label %13 unwind label %30, !dbg !4570

13:                                               ; preds = %12
  %14 = invoke noundef ptr @_ZN7testing8internal13GetTestTypeIdEv()
          to label %15 unwind label %34, !dbg !4570

15:                                               ; preds = %13
  %16 = invoke noundef ptr @_ZN7testing8internal16SuiteApiResolverINS_4TestEE19GetSetUpCaseOrSuiteEPKci(ptr noundef @.str.2, i32 noundef 166)
          to label %17 unwind label %34, !dbg !4570

17:                                               ; preds = %15
  %18 = invoke noundef ptr @_ZN7testing8internal16SuiteApiResolverINS_4TestEE22GetTearDownCaseOrSuiteEPKci(ptr noundef @.str.2, i32 noundef 166)
          to label %19 unwind label %34, !dbg !4570

19:                                               ; preds = %17
  %20 = invoke noalias noundef nonnull ptr @_Znwm(i64 noundef 8) #18
          to label %21 unwind label %34, !dbg !4570, !heapallocsite !4571

21:                                               ; preds = %19
  invoke void @_ZN7testing8internal15TestFactoryImplI35setjmp_sigsetjmp_1_signal_mask_TestEC2Ev(ptr noundef nonnull align 8 dereferenceable(8) %20)
          to label %22 unwind label %38, !dbg !4570

22:                                               ; preds = %21
  %23 = invoke noundef ptr @_ZN7testing8internal23MakeAndRegisterTestInfoEPKcS2_S2_S2_NS0_12CodeLocationEPKvPFvvES7_PNS0_15TestFactoryBaseE(ptr noundef @.str, ptr noundef @.str.23, ptr noundef null, ptr noundef null, ptr noundef %5, ptr noundef %14, ptr noundef %16, ptr noundef %18, ptr noundef %20)
          to label %24 unwind label %34, !dbg !4570

24:                                               ; preds = %22
  call void @_ZN7testing8internal12CodeLocationD2Ev(ptr noundef nonnull align 8 dereferenceable(36) %5) #19, !dbg !4570
  call void @_ZNSt7__cxx1112basic_stringIcSt11char_traitsIcESaIcEED1Ev(ptr noundef nonnull align 8 dereferenceable(32) %6) #19, !dbg !4570
  store ptr %7, ptr %3, align 8
  call void @llvm.dbg.declare(metadata ptr %3, metadata !3928, metadata !DIExpression()), !dbg !4580
  %25 = load ptr, ptr %3, align 8
  call void @_ZNSt15__new_allocatorIcED2Ev(ptr noundef nonnull align 1 dereferenceable(1) %25) #19, !dbg !4582
  store ptr %23, ptr @_ZN35setjmp_sigsetjmp_1_signal_mask_Test10test_info_E, align 8, !dbg !4583
  ret void, !dbg !4570

26:                                               ; preds = %0
  %27 = landingpad { ptr, i32 }
          cleanup, !dbg !4570
  %28 = extractvalue { ptr, i32 } %27, 0, !dbg !4570
  store ptr %28, ptr %8, align 8, !dbg !4570
  %29 = extractvalue { ptr, i32 } %27, 1, !dbg !4570
  store i32 %29, ptr %9, align 4, !dbg !4570
  br label %44, !dbg !4570

30:                                               ; preds = %12
  %31 = landingpad { ptr, i32 }
          cleanup, !dbg !4570
  %32 = extractvalue { ptr, i32 } %31, 0, !dbg !4570
  store ptr %32, ptr %8, align 8, !dbg !4570
  %33 = extractvalue { ptr, i32 } %31, 1, !dbg !4570
  store i32 %33, ptr %9, align 4, !dbg !4570
  br label %43, !dbg !4570

34:                                               ; preds = %22, %19, %17, %15, %13
  %35 = landingpad { ptr, i32 }
          cleanup, !dbg !4570
  %36 = extractvalue { ptr, i32 } %35, 0, !dbg !4570
  store ptr %36, ptr %8, align 8, !dbg !4570
  %37 = extractvalue { ptr, i32 } %35, 1, !dbg !4570
  store i32 %37, ptr %9, align 4, !dbg !4570
  br label %42, !dbg !4570

38:                                               ; preds = %21
  %39 = landingpad { ptr, i32 }
          cleanup, !dbg !4570
  %40 = extractvalue { ptr, i32 } %39, 0, !dbg !4570
  store ptr %40, ptr %8, align 8, !dbg !4570
  %41 = extractvalue { ptr, i32 } %39, 1, !dbg !4570
  store i32 %41, ptr %9, align 4, !dbg !4570
  call void @_ZdlPv(ptr noundef %20) #20, !dbg !4570
  br label %42, !dbg !4570

42:                                               ; preds = %38, %34
  call void @_ZN7testing8internal12CodeLocationD2Ev(ptr noundef nonnull align 8 dereferenceable(36) %5) #19, !dbg !4570
  br label %43, !dbg !4570

43:                                               ; preds = %42, %30
  call void @_ZNSt7__cxx1112basic_stringIcSt11char_traitsIcESaIcEED1Ev(ptr noundef nonnull align 8 dereferenceable(32) %6) #19, !dbg !4570
  br label %44, !dbg !4570

44:                                               ; preds = %43, %26
  store ptr %7, ptr %2, align 8
  call void @llvm.dbg.declare(metadata ptr %2, metadata !3928, metadata !DIExpression()), !dbg !4584
  %45 = load ptr, ptr %2, align 8
  call void @_ZNSt15__new_allocatorIcED2Ev(ptr noundef nonnull align 1 dereferenceable(1) %45) #19, !dbg !4586
  br label %46, !dbg !4570

46:                                               ; preds = %44
  %47 = load ptr, ptr %8, align 8, !dbg !4570
  %48 = load i32, ptr %9, align 4, !dbg !4570
  %49 = insertvalue { ptr, i32 } poison, ptr %47, 0, !dbg !4570
  %50 = insertvalue { ptr, i32 } %49, i32 %48, 1, !dbg !4570
  resume { ptr, i32 } %50, !dbg !4570
}

; Function Attrs: noinline nounwind uwtable
define linkonce_odr dso_local void @_ZN7testing8internal15TestFactoryImplI35setjmp_sigsetjmp_1_signal_mask_TestEC2Ev(ptr noundef nonnull align 8 dereferenceable(8) %0) unnamed_addr #5 comdat align 2 !dbg !4587 {
  %2 = alloca ptr, align 8
  store ptr %0, ptr %2, align 8
  call void @llvm.dbg.declare(metadata ptr %2, metadata !4591, metadata !DIExpression()), !dbg !4593
  %3 = load ptr, ptr %2, align 8
  call void @_ZN7testing8internal15TestFactoryBaseC2Ev(ptr noundef nonnull align 8 dereferenceable(8) %3), !dbg !4594
  store ptr getelementptr inbounds ({ [5 x ptr] }, ptr @_ZTVN7testing8internal15TestFactoryImplI35setjmp_sigsetjmp_1_signal_mask_TestEE, i32 0, inrange i32 0, i32 2), ptr %3, align 8, !dbg !4594
  ret void, !dbg !4594
}

; Function Attrs: mustprogress noinline uwtable
define dso_local void @_ZN35setjmp_sigsetjmp_1_signal_mask_Test8TestBodyEv(ptr noundef nonnull align 8 dereferenceable(16) %0) unnamed_addr #2 align 2 personality ptr @__gxx_personality_v0 !dbg !4595 {
  %2 = alloca ptr, align 8
  %3 = alloca %class.SignalMaskRestorer, align 8
  %4 = alloca %struct.SigSets, align 8
  %5 = alloca ptr, align 8
  %6 = alloca i32, align 4
  %7 = alloca [1 x %struct.__jmp_buf_tag], align 16
  store ptr %0, ptr %2, align 8
  call void @llvm.dbg.declare(metadata ptr %2, metadata !4596, metadata !DIExpression()), !dbg !4598
  %8 = load ptr, ptr %2, align 8
  call void @llvm.dbg.declare(metadata ptr %3, metadata !4599, metadata !DIExpression()), !dbg !4600
  call void @_ZN18SignalMaskRestorerC2Ev(ptr noundef nonnull align 8 dereferenceable(128) %3), !dbg !4600
  call void @llvm.dbg.declare(metadata ptr %4, metadata !4601, metadata !DIExpression()), !dbg !4602
  invoke void @_ZN7SigSetsC2Ev(ptr noundef nonnull align 8 dereferenceable(256) %4)
          to label %9 unwind label %19, !dbg !4602

9:                                                ; preds = %1
  %10 = getelementptr inbounds %struct.SigSets, ptr %4, i32 0, i32 0, !dbg !4603
  %11 = call i32 @sigprocmask(i32 noundef 2, ptr noundef %10, ptr noundef null) #19, !dbg !4604
  call void @llvm.dbg.declare(metadata ptr %7, metadata !4605, metadata !DIExpression()), !dbg !4606
  %12 = getelementptr inbounds [1 x %struct.__jmp_buf_tag], ptr %7, i64 0, i64 0, !dbg !4607
  %13 = call i32 @__sigsetjmp(ptr noundef %12, i32 noundef 1) #22, !dbg !4607
  %14 = icmp eq i32 %13, 0, !dbg !4609
  br i1 %14, label %15, label %23, !dbg !4610

15:                                               ; preds = %9
  %16 = getelementptr inbounds %struct.SigSets, ptr %4, i32 0, i32 1, !dbg !4611
  %17 = call i32 @sigprocmask(i32 noundef 2, ptr noundef %16, ptr noundef null) #19, !dbg !4613
  %18 = getelementptr inbounds [1 x %struct.__jmp_buf_tag], ptr %7, i64 0, i64 0, !dbg !4614
  call void @siglongjmp(ptr noundef %18, i32 noundef 1) #23, !dbg !4615
  unreachable, !dbg !4615

19:                                               ; preds = %23, %1
  %20 = landingpad { ptr, i32 }
          cleanup, !dbg !4616
  %21 = extractvalue { ptr, i32 } %20, 0, !dbg !4616
  store ptr %21, ptr %5, align 8, !dbg !4616
  %22 = extractvalue { ptr, i32 } %20, 1, !dbg !4616
  store i32 %22, ptr %6, align 4, !dbg !4616
  call void @_ZN18SignalMaskRestorerD2Ev(ptr noundef nonnull align 8 dereferenceable(128) %3) #19, !dbg !4616
  br label %27, !dbg !4616

23:                                               ; preds = %9
  %24 = getelementptr inbounds %struct.SigSets, ptr %4, i32 0, i32 0, !dbg !4617
  invoke void @_Z19AssertSigmaskEqualsRK10__sigset_t(ptr noundef nonnull align 8 dereferenceable(128) %24)
          to label %25 unwind label %19, !dbg !4619

25:                                               ; preds = %23
  br label %26

26:                                               ; preds = %25
  call void @_ZN18SignalMaskRestorerD2Ev(ptr noundef nonnull align 8 dereferenceable(128) %3) #19, !dbg !4616
  ret void, !dbg !4616

27:                                               ; preds = %19
  %28 = load ptr, ptr %5, align 8, !dbg !4616
  %29 = load i32, ptr %6, align 4, !dbg !4616
  %30 = insertvalue { ptr, i32 } poison, ptr %28, 0, !dbg !4616
  %31 = insertvalue { ptr, i32 } %30, i32 %29, 1, !dbg !4616
  resume { ptr, i32 } %31, !dbg !4616
}

; Function Attrs: noinline uwtable
define internal void @__cxx_global_var_init.24() #0 section ".text.startup" personality ptr @__gxx_personality_v0 !dbg !4620 {
  %1 = alloca ptr, align 8
  %2 = alloca ptr, align 8
  %3 = alloca ptr, align 8
  %4 = alloca ptr, align 8
  %5 = alloca %"struct.testing::internal::CodeLocation", align 8
  %6 = alloca %"class.std::__cxx11::basic_string", align 8
  %7 = alloca %"class.std::allocator", align 1
  %8 = alloca ptr, align 8
  %9 = alloca i32, align 4
  store ptr %7, ptr %4, align 8
  call void @llvm.dbg.declare(metadata ptr %4, metadata !3889, metadata !DIExpression()), !dbg !4621
  %10 = load ptr, ptr %4, align 8
  store ptr %10, ptr %1, align 8
  call void @llvm.dbg.declare(metadata ptr %1, metadata !3895, metadata !DIExpression()), !dbg !4624
  %11 = load ptr, ptr %1, align 8
  invoke void @_ZNSt7__cxx1112basic_stringIcSt11char_traitsIcESaIcEEC2IS3_EEPKcRKS3_(ptr noundef nonnull align 8 dereferenceable(32) %6, ptr noundef @.str.2, ptr noundef nonnull align 1 dereferenceable(1) %7)
          to label %12 unwind label %26, !dbg !4626

12:                                               ; preds = %0
  invoke void @_ZN7testing8internal12CodeLocationC2ERKNSt7__cxx1112basic_stringIcSt11char_traitsIcESaIcEEEi(ptr noundef nonnull align 8 dereferenceable(36) %5, ptr noundef nonnull align 8 dereferenceable(32) %6, i32 noundef 219)
          to label %13 unwind label %30, !dbg !4626

13:                                               ; preds = %12
  %14 = invoke noundef ptr @_ZN7testing8internal13GetTestTypeIdEv()
          to label %15 unwind label %34, !dbg !4626

15:                                               ; preds = %13
  %16 = invoke noundef ptr @_ZN7testing8internal16SuiteApiResolverINS_4TestEE19GetSetUpCaseOrSuiteEPKci(ptr noundef @.str.2, i32 noundef 219)
          to label %17 unwind label %34, !dbg !4626

17:                                               ; preds = %15
  %18 = invoke noundef ptr @_ZN7testing8internal16SuiteApiResolverINS_4TestEE22GetTearDownCaseOrSuiteEPKci(ptr noundef @.str.2, i32 noundef 219)
          to label %19 unwind label %34, !dbg !4626

19:                                               ; preds = %17
  %20 = invoke noalias noundef nonnull ptr @_Znwm(i64 noundef 8) #18
          to label %21 unwind label %34, !dbg !4626, !heapallocsite !4627

21:                                               ; preds = %19
  invoke void @_ZN7testing8internal15TestFactoryImplI31setjmp_setjmp_fp_registers_TestEC2Ev(ptr noundef nonnull align 8 dereferenceable(8) %20)
          to label %22 unwind label %38, !dbg !4626

22:                                               ; preds = %21
  %23 = invoke noundef ptr @_ZN7testing8internal23MakeAndRegisterTestInfoEPKcS2_S2_S2_NS0_12CodeLocationEPKvPFvvES7_PNS0_15TestFactoryBaseE(ptr noundef @.str, ptr noundef @.str.25, ptr noundef null, ptr noundef null, ptr noundef %5, ptr noundef %14, ptr noundef %16, ptr noundef %18, ptr noundef %20)
          to label %24 unwind label %34, !dbg !4626

24:                                               ; preds = %22
  call void @_ZN7testing8internal12CodeLocationD2Ev(ptr noundef nonnull align 8 dereferenceable(36) %5) #19, !dbg !4626
  call void @_ZNSt7__cxx1112basic_stringIcSt11char_traitsIcESaIcEED1Ev(ptr noundef nonnull align 8 dereferenceable(32) %6) #19, !dbg !4626
  store ptr %7, ptr %3, align 8
  call void @llvm.dbg.declare(metadata ptr %3, metadata !3928, metadata !DIExpression()), !dbg !4636
  %25 = load ptr, ptr %3, align 8
  call void @_ZNSt15__new_allocatorIcED2Ev(ptr noundef nonnull align 1 dereferenceable(1) %25) #19, !dbg !4638
  store ptr %23, ptr @_ZN31setjmp_setjmp_fp_registers_Test10test_info_E, align 8, !dbg !4639
  ret void, !dbg !4626

26:                                               ; preds = %0
  %27 = landingpad { ptr, i32 }
          cleanup, !dbg !4626
  %28 = extractvalue { ptr, i32 } %27, 0, !dbg !4626
  store ptr %28, ptr %8, align 8, !dbg !4626
  %29 = extractvalue { ptr, i32 } %27, 1, !dbg !4626
  store i32 %29, ptr %9, align 4, !dbg !4626
  br label %44, !dbg !4626

30:                                               ; preds = %12
  %31 = landingpad { ptr, i32 }
          cleanup, !dbg !4626
  %32 = extractvalue { ptr, i32 } %31, 0, !dbg !4626
  store ptr %32, ptr %8, align 8, !dbg !4626
  %33 = extractvalue { ptr, i32 } %31, 1, !dbg !4626
  store i32 %33, ptr %9, align 4, !dbg !4626
  br label %43, !dbg !4626

34:                                               ; preds = %22, %19, %17, %15, %13
  %35 = landingpad { ptr, i32 }
          cleanup, !dbg !4626
  %36 = extractvalue { ptr, i32 } %35, 0, !dbg !4626
  store ptr %36, ptr %8, align 8, !dbg !4626
  %37 = extractvalue { ptr, i32 } %35, 1, !dbg !4626
  store i32 %37, ptr %9, align 4, !dbg !4626
  br label %42, !dbg !4626

38:                                               ; preds = %21
  %39 = landingpad { ptr, i32 }
          cleanup, !dbg !4626
  %40 = extractvalue { ptr, i32 } %39, 0, !dbg !4626
  store ptr %40, ptr %8, align 8, !dbg !4626
  %41 = extractvalue { ptr, i32 } %39, 1, !dbg !4626
  store i32 %41, ptr %9, align 4, !dbg !4626
  call void @_ZdlPv(ptr noundef %20) #20, !dbg !4626
  br label %42, !dbg !4626

42:                                               ; preds = %38, %34
  call void @_ZN7testing8internal12CodeLocationD2Ev(ptr noundef nonnull align 8 dereferenceable(36) %5) #19, !dbg !4626
  br label %43, !dbg !4626

43:                                               ; preds = %42, %30
  call void @_ZNSt7__cxx1112basic_stringIcSt11char_traitsIcESaIcEED1Ev(ptr noundef nonnull align 8 dereferenceable(32) %6) #19, !dbg !4626
  br label %44, !dbg !4626

44:                                               ; preds = %43, %26
  store ptr %7, ptr %2, align 8
  call void @llvm.dbg.declare(metadata ptr %2, metadata !3928, metadata !DIExpression()), !dbg !4640
  %45 = load ptr, ptr %2, align 8
  call void @_ZNSt15__new_allocatorIcED2Ev(ptr noundef nonnull align 1 dereferenceable(1) %45) #19, !dbg !4642
  br label %46, !dbg !4626

46:                                               ; preds = %44
  %47 = load ptr, ptr %8, align 8, !dbg !4626
  %48 = load i32, ptr %9, align 4, !dbg !4626
  %49 = insertvalue { ptr, i32 } poison, ptr %47, 0, !dbg !4626
  %50 = insertvalue { ptr, i32 } %49, i32 %48, 1, !dbg !4626
  resume { ptr, i32 } %50, !dbg !4626
}

; Function Attrs: noinline nounwind uwtable
define linkonce_odr dso_local void @_ZN7testing8internal15TestFactoryImplI31setjmp_setjmp_fp_registers_TestEC2Ev(ptr noundef nonnull align 8 dereferenceable(8) %0) unnamed_addr #5 comdat align 2 !dbg !4643 {
  %2 = alloca ptr, align 8
  store ptr %0, ptr %2, align 8
  call void @llvm.dbg.declare(metadata ptr %2, metadata !4647, metadata !DIExpression()), !dbg !4649
  %3 = load ptr, ptr %2, align 8
  call void @_ZN7testing8internal15TestFactoryBaseC2Ev(ptr noundef nonnull align 8 dereferenceable(8) %3), !dbg !4650
  store ptr getelementptr inbounds ({ [5 x ptr] }, ptr @_ZTVN7testing8internal15TestFactoryImplI31setjmp_setjmp_fp_registers_TestEE, i32 0, inrange i32 0, i32 2), ptr %3, align 8, !dbg !4650
  ret void, !dbg !4650
}

; Function Attrs: mustprogress noinline uwtable
define dso_local void @_ZN31setjmp_setjmp_fp_registers_Test8TestBodyEv(ptr noundef nonnull align 8 dereferenceable(16) %0) unnamed_addr #2 align 2 personality ptr @__gxx_personality_v0 !dbg !4651 {
  %2 = alloca ptr, align 8
  %3 = alloca i32, align 4
  %4 = alloca [1 x %struct.__jmp_buf_tag], align 16
  %5 = alloca %"class.testing::AssertionResult", align 8
  %6 = alloca i32, align 4
  %7 = alloca ptr, align 8
  %8 = alloca i32, align 4
  %9 = alloca %"class.testing::Message", align 8
  %10 = alloca %"class.testing::internal::AssertHelper", align 8
  %11 = alloca i32, align 4
  store ptr %0, ptr %2, align 8
  call void @llvm.dbg.declare(metadata ptr %2, metadata !4652, metadata !DIExpression()), !dbg !4654
  %12 = load ptr, ptr %2, align 8
  call void @llvm.dbg.declare(metadata ptr %3, metadata !4655, metadata !DIExpression()), !dbg !4656
  call void @llvm.dbg.declare(metadata ptr %4, metadata !4657, metadata !DIExpression()), !dbg !4658
  %13 = getelementptr inbounds [1 x %struct.__jmp_buf_tag], ptr %4, i64 0, i64 0, !dbg !4659
  %14 = call i32 @_setjmp(ptr noundef %13) #22, !dbg !4659
  store i32 %14, ptr %3, align 4, !dbg !4661
  %15 = icmp eq i32 %14, 0, !dbg !4662
  br i1 %15, label %16, label %18, !dbg !4663

16:                                               ; preds = %1
  %17 = getelementptr inbounds [1 x %struct.__jmp_buf_tag], ptr %4, i64 0, i64 0, !dbg !4664
  call void @longjmp(ptr noundef %17, i32 noundef 123) #23, !dbg !4666
  unreachable, !dbg !4666

18:                                               ; preds = %1
  call void @llvm.dbg.declare(metadata ptr %5, metadata !4667, metadata !DIExpression()), !dbg !4670
  store i32 123, ptr %6, align 4, !dbg !4670
  call void @_ZN7testing8internal8EqHelper7CompareIiiLPv0EEENS_15AssertionResultEPKcS6_RKT_RKT0_(ptr sret(%"class.testing::AssertionResult") align 8 %5, ptr noundef @.str.3, ptr noundef @.str.4, ptr noundef nonnull align 4 dereferenceable(4) %6, ptr noundef nonnull align 4 dereferenceable(4) %3), !dbg !4670
  %19 = invoke noundef zeroext i1 @_ZNK7testing15AssertionResultcvbEv(ptr noundef nonnull align 8 dereferenceable(16) %5)
          to label %20 unwind label %22, !dbg !4670

20:                                               ; preds = %18
  br i1 %19, label %21, label %26, !dbg !4671

21:                                               ; preds = %20
  br label %41, !dbg !4671

22:                                               ; preds = %26, %18
  %23 = landingpad { ptr, i32 }
          cleanup, !dbg !4672
  %24 = extractvalue { ptr, i32 } %23, 0, !dbg !4672
  store ptr %24, ptr %7, align 8, !dbg !4672
  %25 = extractvalue { ptr, i32 } %23, 1, !dbg !4672
  store i32 %25, ptr %8, align 4, !dbg !4672
  br label %45, !dbg !4672

26:                                               ; preds = %20
  invoke void @_ZN7testing7MessageC1Ev(ptr noundef nonnull align 8 dereferenceable(8) %9)
          to label %27 unwind label %22, !dbg !4670

27:                                               ; preds = %26
  %28 = invoke noundef ptr @_ZNK7testing15AssertionResult15failure_messageEv(ptr noundef nonnull align 8 dereferenceable(16) %5)
          to label %29 unwind label %32, !dbg !4670

29:                                               ; preds = %27
  invoke void @_ZN7testing8internal12AssertHelperC1ENS_14TestPartResult4TypeEPKciS5_(ptr noundef nonnull align 8 dereferenceable(8) %10, i32 noundef 2, ptr noundef @.str.2, i32 noundef 228, ptr noundef %28)
          to label %30 unwind label %32, !dbg !4670

30:                                               ; preds = %29
  invoke void @_ZNK7testing8internal12AssertHelperaSERKNS_7MessageE(ptr noundef nonnull align 8 dereferenceable(8) %10, ptr noundef nonnull align 8 dereferenceable(8) %9)
          to label %31 unwind label %36, !dbg !4670

31:                                               ; preds = %30
  call void @_ZN7testing8internal12AssertHelperD1Ev(ptr noundef nonnull align 8 dereferenceable(8) %10) #19, !dbg !4670
  call void @_ZN7testing7MessageD2Ev(ptr noundef nonnull align 8 dereferenceable(8) %9) #19, !dbg !4670
  store i32 1, ptr %11, align 4
  br label %42, !dbg !4670

32:                                               ; preds = %29, %27
  %33 = landingpad { ptr, i32 }
          cleanup, !dbg !4672
  %34 = extractvalue { ptr, i32 } %33, 0, !dbg !4672
  store ptr %34, ptr %7, align 8, !dbg !4672
  %35 = extractvalue { ptr, i32 } %33, 1, !dbg !4672
  store i32 %35, ptr %8, align 4, !dbg !4672
  br label %40, !dbg !4672

36:                                               ; preds = %30
  %37 = landingpad { ptr, i32 }
          cleanup, !dbg !4672
  %38 = extractvalue { ptr, i32 } %37, 0, !dbg !4672
  store ptr %38, ptr %7, align 8, !dbg !4672
  %39 = extractvalue { ptr, i32 } %37, 1, !dbg !4672
  store i32 %39, ptr %8, align 4, !dbg !4672
  call void @_ZN7testing8internal12AssertHelperD1Ev(ptr noundef nonnull align 8 dereferenceable(8) %10) #19, !dbg !4670
  br label %40, !dbg !4670

40:                                               ; preds = %36, %32
  call void @_ZN7testing7MessageD2Ev(ptr noundef nonnull align 8 dereferenceable(8) %9) #19, !dbg !4670
  br label %45, !dbg !4670

41:                                               ; preds = %21
  store i32 0, ptr %11, align 4, !dbg !4671
  br label %42, !dbg !4671

42:                                               ; preds = %41, %31
  call void @_ZN7testing15AssertionResultD2Ev(ptr noundef nonnull align 8 dereferenceable(16) %5) #19, !dbg !4671
  %43 = load i32, ptr %11, align 4
  switch i32 %43, label %52 [
    i32 0, label %44
    i32 1, label %46
  ]

44:                                               ; preds = %42
  br label %46

45:                                               ; preds = %40, %22
  call void @_ZN7testing15AssertionResultD2Ev(ptr noundef nonnull align 8 dereferenceable(16) %5) #19, !dbg !4671
  br label %47, !dbg !4671

46:                                               ; preds = %42, %44
  ret void, !dbg !4673

47:                                               ; preds = %45
  %48 = load ptr, ptr %7, align 8, !dbg !4671
  %49 = load i32, ptr %8, align 4, !dbg !4671
  %50 = insertvalue { ptr, i32 } poison, ptr %48, 0, !dbg !4671
  %51 = insertvalue { ptr, i32 } %50, i32 %49, 1, !dbg !4671
  resume { ptr, i32 } %51, !dbg !4671

52:                                               ; preds = %42
  unreachable
}

; Function Attrs: noinline uwtable
define internal void @__cxx_global_var_init.26() #0 section ".text.startup" personality ptr @__gxx_personality_v0 !dbg !4674 {
  %1 = alloca ptr, align 8
  %2 = alloca ptr, align 8
  %3 = alloca ptr, align 8
  %4 = alloca ptr, align 8
  %5 = alloca %"struct.testing::internal::CodeLocation", align 8
  %6 = alloca %"class.std::__cxx11::basic_string", align 8
  %7 = alloca %"class.std::allocator", align 1
  %8 = alloca ptr, align 8
  %9 = alloca i32, align 4
  store ptr %7, ptr %4, align 8
  call void @llvm.dbg.declare(metadata ptr %4, metadata !3889, metadata !DIExpression()), !dbg !4675
  %10 = load ptr, ptr %4, align 8
  store ptr %10, ptr %1, align 8
  call void @llvm.dbg.declare(metadata ptr %1, metadata !3895, metadata !DIExpression()), !dbg !4678
  %11 = load ptr, ptr %1, align 8
  invoke void @_ZNSt7__cxx1112basic_stringIcSt11char_traitsIcESaIcEEC2IS3_EEPKcRKS3_(ptr noundef nonnull align 8 dereferenceable(32) %6, ptr noundef @.str.2, ptr noundef nonnull align 1 dereferenceable(1) %7)
          to label %12 unwind label %26, !dbg !4680

12:                                               ; preds = %0
  invoke void @_ZN7testing8internal12CodeLocationC2ERKNSt7__cxx1112basic_stringIcSt11char_traitsIcESaIcEEEi(ptr noundef nonnull align 8 dereferenceable(36) %5, ptr noundef nonnull align 8 dereferenceable(32) %6, i32 noundef 245)
          to label %13 unwind label %30, !dbg !4680

13:                                               ; preds = %12
  %14 = invoke noundef ptr @_ZN7testing8internal9GetTypeIdI15SilentDeathTestEEPKvv()
          to label %15 unwind label %34, !dbg !4680

15:                                               ; preds = %13
  %16 = invoke noundef ptr @_ZN7testing8internal16SuiteApiResolverI15SilentDeathTestE19GetSetUpCaseOrSuiteEPKci(ptr noundef @.str.2, i32 noundef 245)
          to label %17 unwind label %34, !dbg !4680

17:                                               ; preds = %15
  %18 = invoke noundef ptr @_ZN7testing8internal16SuiteApiResolverI15SilentDeathTestE22GetTearDownCaseOrSuiteEPKci(ptr noundef @.str.2, i32 noundef 245)
          to label %19 unwind label %34, !dbg !4680

19:                                               ; preds = %17
  %20 = invoke noalias noundef nonnull ptr @_Znwm(i64 noundef 8) #18
          to label %21 unwind label %34, !dbg !4680, !heapallocsite !4681

21:                                               ; preds = %19
  invoke void @_ZN7testing8internal15TestFactoryImplI35setjmp_DeathTest_setjmp_cookie_TestEC2Ev(ptr noundef nonnull align 8 dereferenceable(8) %20)
          to label %22 unwind label %38, !dbg !4680

22:                                               ; preds = %21
  %23 = invoke noundef ptr @_ZN7testing8internal23MakeAndRegisterTestInfoEPKcS2_S2_S2_NS0_12CodeLocationEPKvPFvvES7_PNS0_15TestFactoryBaseE(ptr noundef @.str.27, ptr noundef @.str.28, ptr noundef null, ptr noundef null, ptr noundef %5, ptr noundef %14, ptr noundef %16, ptr noundef %18, ptr noundef %20)
          to label %24 unwind label %34, !dbg !4680

24:                                               ; preds = %22
  call void @_ZN7testing8internal12CodeLocationD2Ev(ptr noundef nonnull align 8 dereferenceable(36) %5) #19, !dbg !4680
  call void @_ZNSt7__cxx1112basic_stringIcSt11char_traitsIcESaIcEED1Ev(ptr noundef nonnull align 8 dereferenceable(32) %6) #19, !dbg !4680
  store ptr %7, ptr %3, align 8
  call void @llvm.dbg.declare(metadata ptr %3, metadata !3928, metadata !DIExpression()), !dbg !4690
  %25 = load ptr, ptr %3, align 8
  call void @_ZNSt15__new_allocatorIcED2Ev(ptr noundef nonnull align 1 dereferenceable(1) %25) #19, !dbg !4692
  store ptr %23, ptr @_ZN35setjmp_DeathTest_setjmp_cookie_Test10test_info_E, align 8, !dbg !4693
  ret void, !dbg !4680

26:                                               ; preds = %0
  %27 = landingpad { ptr, i32 }
          cleanup, !dbg !4680
  %28 = extractvalue { ptr, i32 } %27, 0, !dbg !4680
  store ptr %28, ptr %8, align 8, !dbg !4680
  %29 = extractvalue { ptr, i32 } %27, 1, !dbg !4680
  store i32 %29, ptr %9, align 4, !dbg !4680
  br label %44, !dbg !4680

30:                                               ; preds = %12
  %31 = landingpad { ptr, i32 }
          cleanup, !dbg !4680
  %32 = extractvalue { ptr, i32 } %31, 0, !dbg !4680
  store ptr %32, ptr %8, align 8, !dbg !4680
  %33 = extractvalue { ptr, i32 } %31, 1, !dbg !4680
  store i32 %33, ptr %9, align 4, !dbg !4680
  br label %43, !dbg !4680

34:                                               ; preds = %22, %19, %17, %15, %13
  %35 = landingpad { ptr, i32 }
          cleanup, !dbg !4680
  %36 = extractvalue { ptr, i32 } %35, 0, !dbg !4680
  store ptr %36, ptr %8, align 8, !dbg !4680
  %37 = extractvalue { ptr, i32 } %35, 1, !dbg !4680
  store i32 %37, ptr %9, align 4, !dbg !4680
  br label %42, !dbg !4680

38:                                               ; preds = %21
  %39 = landingpad { ptr, i32 }
          cleanup, !dbg !4680
  %40 = extractvalue { ptr, i32 } %39, 0, !dbg !4680
  store ptr %40, ptr %8, align 8, !dbg !4680
  %41 = extractvalue { ptr, i32 } %39, 1, !dbg !4680
  store i32 %41, ptr %9, align 4, !dbg !4680
  call void @_ZdlPv(ptr noundef %20) #20, !dbg !4680
  br label %42, !dbg !4680

42:                                               ; preds = %38, %34
  call void @_ZN7testing8internal12CodeLocationD2Ev(ptr noundef nonnull align 8 dereferenceable(36) %5) #19, !dbg !4680
  br label %43, !dbg !4680

43:                                               ; preds = %42, %30
  call void @_ZNSt7__cxx1112basic_stringIcSt11char_traitsIcESaIcEED1Ev(ptr noundef nonnull align 8 dereferenceable(32) %6) #19, !dbg !4680
  br label %44, !dbg !4680

44:                                               ; preds = %43, %26
  store ptr %7, ptr %2, align 8
  call void @llvm.dbg.declare(metadata ptr %2, metadata !3928, metadata !DIExpression()), !dbg !4694
  %45 = load ptr, ptr %2, align 8
  call void @_ZNSt15__new_allocatorIcED2Ev(ptr noundef nonnull align 1 dereferenceable(1) %45) #19, !dbg !4696
  br label %46, !dbg !4680

46:                                               ; preds = %44
  %47 = load ptr, ptr %8, align 8, !dbg !4680
  %48 = load i32, ptr %9, align 4, !dbg !4680
  %49 = insertvalue { ptr, i32 } poison, ptr %47, 0, !dbg !4680
  %50 = insertvalue { ptr, i32 } %49, i32 %48, 1, !dbg !4680
  resume { ptr, i32 } %50, !dbg !4680
}

; Function Attrs: mustprogress noinline nounwind uwtable
define linkonce_odr dso_local noundef ptr @_ZN7testing8internal9GetTypeIdI15SilentDeathTestEEPKvv() #10 comdat !dbg !4697 {
  ret ptr @_ZN7testing8internal12TypeIdHelperI15SilentDeathTestE6dummy_E, !dbg !4701
}

; Function Attrs: mustprogress noinline uwtable
define linkonce_odr dso_local noundef ptr @_ZN7testing8internal16SuiteApiResolverI15SilentDeathTestE19GetSetUpCaseOrSuiteEPKci(ptr noundef %0, i32 noundef %1) #2 comdat align 2 personality ptr @__gxx_personality_v0 !dbg !4702 {
  %3 = alloca ptr, align 8
  %4 = alloca i32, align 4
  %5 = alloca ptr, align 8
  %6 = alloca ptr, align 8
  %7 = alloca %"class.testing::internal::GTestLog", align 4
  %8 = alloca ptr, align 8
  %9 = alloca i32, align 4
  store ptr %0, ptr %3, align 8
  call void @llvm.dbg.declare(metadata ptr %3, metadata !4705, metadata !DIExpression()), !dbg !4706
  store i32 %1, ptr %4, align 4
  call void @llvm.dbg.declare(metadata ptr %4, metadata !4707, metadata !DIExpression()), !dbg !4708
  call void @llvm.dbg.declare(metadata ptr %5, metadata !4709, metadata !DIExpression()), !dbg !4710
  %10 = call noundef ptr @_ZN7testing8internal19GetNotDefaultOrNullEPFvvES2_(ptr noundef @_ZN7testing4Test13SetUpTestCaseEv, ptr noundef @_ZN7testing4Test13SetUpTestCaseEv), !dbg !4711
  store ptr %10, ptr %5, align 8, !dbg !4710
  call void @llvm.dbg.declare(metadata ptr %6, metadata !4712, metadata !DIExpression()), !dbg !4713
  %11 = call noundef ptr @_ZN7testing8internal19GetNotDefaultOrNullEPFvvES2_(ptr noundef @_ZN7testing4Test14SetUpTestSuiteEv, ptr noundef @_ZN7testing4Test14SetUpTestSuiteEv), !dbg !4714
  store ptr %11, ptr %6, align 8, !dbg !4713
  %12 = load ptr, ptr %5, align 8, !dbg !4715
  %13 = icmp ne ptr %12, null, !dbg !4715
  br i1 %13, label %14, label %18, !dbg !4715

14:                                               ; preds = %2
  %15 = load ptr, ptr %6, align 8, !dbg !4715
  %16 = icmp ne ptr %15, null, !dbg !4715
  %17 = xor i1 %16, true, !dbg !4715
  br label %18, !dbg !4715

18:                                               ; preds = %14, %2
  %19 = phi i1 [ true, %2 ], [ %17, %14 ]
  %20 = call noundef zeroext i1 @_ZN7testing8internal6IsTrueEb(i1 noundef zeroext %19), !dbg !4715
  br i1 %20, label %21, label %22, !dbg !4717

21:                                               ; preds = %18
  br label %40, !dbg !4717

22:                                               ; preds = %18
  call void @_ZN7testing8internal8GTestLogC1ENS0_16GTestLogSeverityEPKci(ptr noundef nonnull align 4 dereferenceable(4) %7, i32 noundef 3, ptr noundef @.str.56, i32 noundef 516), !dbg !4715
  %23 = call noundef nonnull align 8 dereferenceable(8) ptr @_ZN7testing8internal8GTestLog9GetStreamEv(ptr noundef nonnull align 4 dereferenceable(4) %7), !dbg !4715
  %24 = invoke noundef nonnull align 8 dereferenceable(8) ptr @_ZStlsISt11char_traitsIcEERSt13basic_ostreamIcT_ES5_PKc(ptr noundef nonnull align 8 dereferenceable(8) %23, ptr noundef @.str.57)
          to label %25 unwind label %36, !dbg !4715

25:                                               ; preds = %22
  %26 = invoke noundef nonnull align 8 dereferenceable(8) ptr @_ZStlsISt11char_traitsIcEERSt13basic_ostreamIcT_ES5_PKc(ptr noundef nonnull align 8 dereferenceable(8) %24, ptr noundef @.str.58)
          to label %27 unwind label %36, !dbg !4718

27:                                               ; preds = %25
  %28 = load ptr, ptr %3, align 8, !dbg !4719
  %29 = invoke noundef nonnull align 8 dereferenceable(8) ptr @_ZStlsISt11char_traitsIcEERSt13basic_ostreamIcT_ES5_PKc(ptr noundef nonnull align 8 dereferenceable(8) %26, ptr noundef %28)
          to label %30 unwind label %36, !dbg !4720

30:                                               ; preds = %27
  %31 = invoke noundef nonnull align 8 dereferenceable(8) ptr @_ZStlsISt11char_traitsIcEERSt13basic_ostreamIcT_ES5_PKc(ptr noundef nonnull align 8 dereferenceable(8) %29, ptr noundef @.str.59)
          to label %32 unwind label %36, !dbg !4721

32:                                               ; preds = %30
  %33 = load i32, ptr %4, align 4, !dbg !4722
  %34 = invoke noundef nonnull align 8 dereferenceable(8) ptr @_ZNSolsEi(ptr noundef nonnull align 8 dereferenceable(8) %31, i32 noundef %33)
          to label %35 unwind label %36, !dbg !4723

35:                                               ; preds = %32
  call void @_ZN7testing8internal8GTestLogD1Ev(ptr noundef nonnull align 4 dereferenceable(4) %7) #19, !dbg !4715
  br label %40

36:                                               ; preds = %32, %30, %27, %25, %22
  %37 = landingpad { ptr, i32 }
          cleanup, !dbg !4724
  %38 = extractvalue { ptr, i32 } %37, 0, !dbg !4724
  store ptr %38, ptr %8, align 8, !dbg !4724
  %39 = extractvalue { ptr, i32 } %37, 1, !dbg !4724
  store i32 %39, ptr %9, align 4, !dbg !4724
  call void @_ZN7testing8internal8GTestLogD1Ev(ptr noundef nonnull align 4 dereferenceable(4) %7) #19, !dbg !4715
  br label %49, !dbg !4715

40:                                               ; preds = %35, %21
  %41 = load ptr, ptr %5, align 8, !dbg !4725
  %42 = icmp ne ptr %41, null, !dbg !4726
  br i1 %42, label %43, label %45, !dbg !4725

43:                                               ; preds = %40
  %44 = load ptr, ptr %5, align 8, !dbg !4727
  br label %47, !dbg !4725

45:                                               ; preds = %40
  %46 = load ptr, ptr %6, align 8, !dbg !4728
  br label %47, !dbg !4725

47:                                               ; preds = %45, %43
  %48 = phi ptr [ %44, %43 ], [ %46, %45 ], !dbg !4725
  ret ptr %48, !dbg !4729

49:                                               ; preds = %36
  %50 = load ptr, ptr %8, align 8, !dbg !4715
  %51 = load i32, ptr %9, align 4, !dbg !4715
  %52 = insertvalue { ptr, i32 } poison, ptr %50, 0, !dbg !4715
  %53 = insertvalue { ptr, i32 } %52, i32 %51, 1, !dbg !4715
  resume { ptr, i32 } %53, !dbg !4715
}

; Function Attrs: mustprogress noinline uwtable
define linkonce_odr dso_local noundef ptr @_ZN7testing8internal16SuiteApiResolverI15SilentDeathTestE22GetTearDownCaseOrSuiteEPKci(ptr noundef %0, i32 noundef %1) #2 comdat align 2 personality ptr @__gxx_personality_v0 !dbg !4730 {
  %3 = alloca ptr, align 8
  %4 = alloca i32, align 4
  %5 = alloca ptr, align 8
  %6 = alloca ptr, align 8
  %7 = alloca %"class.testing::internal::GTestLog", align 4
  %8 = alloca ptr, align 8
  %9 = alloca i32, align 4
  store ptr %0, ptr %3, align 8
  call void @llvm.dbg.declare(metadata ptr %3, metadata !4732, metadata !DIExpression()), !dbg !4733
  store i32 %1, ptr %4, align 4
  call void @llvm.dbg.declare(metadata ptr %4, metadata !4734, metadata !DIExpression()), !dbg !4735
  call void @llvm.dbg.declare(metadata ptr %5, metadata !4736, metadata !DIExpression()), !dbg !4737
  %10 = call noundef ptr @_ZN7testing8internal19GetNotDefaultOrNullEPFvvES2_(ptr noundef @_ZN7testing4Test16TearDownTestCaseEv, ptr noundef @_ZN7testing4Test16TearDownTestCaseEv), !dbg !4738
  store ptr %10, ptr %5, align 8, !dbg !4737
  call void @llvm.dbg.declare(metadata ptr %6, metadata !4739, metadata !DIExpression()), !dbg !4740
  %11 = call noundef ptr @_ZN7testing8internal19GetNotDefaultOrNullEPFvvES2_(ptr noundef @_ZN7testing4Test17TearDownTestSuiteEv, ptr noundef @_ZN7testing4Test17TearDownTestSuiteEv), !dbg !4741
  store ptr %11, ptr %6, align 8, !dbg !4740
  %12 = load ptr, ptr %5, align 8, !dbg !4742
  %13 = icmp ne ptr %12, null, !dbg !4742
  br i1 %13, label %14, label %18, !dbg !4742

14:                                               ; preds = %2
  %15 = load ptr, ptr %6, align 8, !dbg !4742
  %16 = icmp ne ptr %15, null, !dbg !4742
  %17 = xor i1 %16, true, !dbg !4742
  br label %18, !dbg !4742

18:                                               ; preds = %14, %2
  %19 = phi i1 [ true, %2 ], [ %17, %14 ]
  %20 = call noundef zeroext i1 @_ZN7testing8internal6IsTrueEb(i1 noundef zeroext %19), !dbg !4742
  br i1 %20, label %21, label %22, !dbg !4744

21:                                               ; preds = %18
  br label %40, !dbg !4744

22:                                               ; preds = %18
  call void @_ZN7testing8internal8GTestLogC1ENS0_16GTestLogSeverityEPKci(ptr noundef nonnull align 4 dereferenceable(4) %7, i32 noundef 3, ptr noundef @.str.56, i32 noundef 531), !dbg !4742
  %23 = call noundef nonnull align 8 dereferenceable(8) ptr @_ZN7testing8internal8GTestLog9GetStreamEv(ptr noundef nonnull align 4 dereferenceable(4) %7), !dbg !4742
  %24 = invoke noundef nonnull align 8 dereferenceable(8) ptr @_ZStlsISt11char_traitsIcEERSt13basic_ostreamIcT_ES5_PKc(ptr noundef nonnull align 8 dereferenceable(8) %23, ptr noundef @.str.57)
          to label %25 unwind label %36, !dbg !4742

25:                                               ; preds = %22
  %26 = invoke noundef nonnull align 8 dereferenceable(8) ptr @_ZStlsISt11char_traitsIcEERSt13basic_ostreamIcT_ES5_PKc(ptr noundef nonnull align 8 dereferenceable(8) %24, ptr noundef @.str.60)
          to label %27 unwind label %36, !dbg !4745

27:                                               ; preds = %25
  %28 = load ptr, ptr %3, align 8, !dbg !4746
  %29 = invoke noundef nonnull align 8 dereferenceable(8) ptr @_ZStlsISt11char_traitsIcEERSt13basic_ostreamIcT_ES5_PKc(ptr noundef nonnull align 8 dereferenceable(8) %26, ptr noundef %28)
          to label %30 unwind label %36, !dbg !4747

30:                                               ; preds = %27
  %31 = invoke noundef nonnull align 8 dereferenceable(8) ptr @_ZStlsISt11char_traitsIcEERSt13basic_ostreamIcT_ES5_PKc(ptr noundef nonnull align 8 dereferenceable(8) %29, ptr noundef @.str.59)
          to label %32 unwind label %36, !dbg !4748

32:                                               ; preds = %30
  %33 = load i32, ptr %4, align 4, !dbg !4749
  %34 = invoke noundef nonnull align 8 dereferenceable(8) ptr @_ZNSolsEi(ptr noundef nonnull align 8 dereferenceable(8) %31, i32 noundef %33)
          to label %35 unwind label %36, !dbg !4750

35:                                               ; preds = %32
  call void @_ZN7testing8internal8GTestLogD1Ev(ptr noundef nonnull align 4 dereferenceable(4) %7) #19, !dbg !4742
  br label %40

36:                                               ; preds = %32, %30, %27, %25, %22
  %37 = landingpad { ptr, i32 }
          cleanup, !dbg !4751
  %38 = extractvalue { ptr, i32 } %37, 0, !dbg !4751
  store ptr %38, ptr %8, align 8, !dbg !4751
  %39 = extractvalue { ptr, i32 } %37, 1, !dbg !4751
  store i32 %39, ptr %9, align 4, !dbg !4751
  call void @_ZN7testing8internal8GTestLogD1Ev(ptr noundef nonnull align 4 dereferenceable(4) %7) #19, !dbg !4742
  br label %49, !dbg !4742

40:                                               ; preds = %35, %21
  %41 = load ptr, ptr %5, align 8, !dbg !4752
  %42 = icmp ne ptr %41, null, !dbg !4753
  br i1 %42, label %43, label %45, !dbg !4752

43:                                               ; preds = %40
  %44 = load ptr, ptr %5, align 8, !dbg !4754
  br label %47, !dbg !4752

45:                                               ; preds = %40
  %46 = load ptr, ptr %6, align 8, !dbg !4755
  br label %47, !dbg !4752

47:                                               ; preds = %45, %43
  %48 = phi ptr [ %44, %43 ], [ %46, %45 ], !dbg !4752
  ret ptr %48, !dbg !4756

49:                                               ; preds = %36
  %50 = load ptr, ptr %8, align 8, !dbg !4742
  %51 = load i32, ptr %9, align 4, !dbg !4742
  %52 = insertvalue { ptr, i32 } poison, ptr %50, 0, !dbg !4742
  %53 = insertvalue { ptr, i32 } %52, i32 %51, 1, !dbg !4742
  resume { ptr, i32 } %53, !dbg !4742
}

; Function Attrs: noinline nounwind uwtable
define linkonce_odr dso_local void @_ZN7testing8internal15TestFactoryImplI35setjmp_DeathTest_setjmp_cookie_TestEC2Ev(ptr noundef nonnull align 8 dereferenceable(8) %0) unnamed_addr #5 comdat align 2 !dbg !4757 {
  %2 = alloca ptr, align 8
  store ptr %0, ptr %2, align 8
  call void @llvm.dbg.declare(metadata ptr %2, metadata !4761, metadata !DIExpression()), !dbg !4763
  %3 = load ptr, ptr %2, align 8
  call void @_ZN7testing8internal15TestFactoryBaseC2Ev(ptr noundef nonnull align 8 dereferenceable(8) %3), !dbg !4764
  store ptr getelementptr inbounds ({ [5 x ptr] }, ptr @_ZTVN7testing8internal15TestFactoryImplI35setjmp_DeathTest_setjmp_cookie_TestEE, i32 0, inrange i32 0, i32 2), ptr %3, align 8, !dbg !4764
  ret void, !dbg !4764
}

; Function Attrs: mustprogress noinline uwtable
define dso_local void @_ZN35setjmp_DeathTest_setjmp_cookie_Test8TestBodyEv(ptr noundef nonnull align 8 dereferenceable(16) %0) unnamed_addr #2 align 2 personality ptr @__gxx_personality_v0 !dbg !4765 {
  %2 = alloca ptr, align 8
  %3 = alloca [1 x %struct.__jmp_buf_tag], align 16
  %4 = alloca i32, align 4
  %5 = alloca %"class.testing::AssertionResult", align 8
  %6 = alloca i32, align 4
  %7 = alloca ptr, align 8
  %8 = alloca i32, align 4
  %9 = alloca %"class.testing::Message", align 8
  %10 = alloca %"class.testing::internal::AssertHelper", align 8
  %11 = alloca i32, align 4
  %12 = alloca ptr, align 8
  %13 = alloca %"class.testing::AssertionResult", align 8
  %14 = alloca i32, align 4
  %15 = alloca i64, align 8
  %16 = alloca %"class.testing::Message", align 8
