; ModuleID = '/home/raj/SVF_PAPER_BENCHMARKS/parsec-3.0/pkgs/apps/raytrace/src/RTTL/BVH/Builder/BinnedAllDimsSaveSpace.cxx'
source_filename = "/home/raj/SVF_PAPER_BENCHMARKS/parsec-3.0/pkgs/apps/raytrace/src/RTTL/BVH/Builder/BinnedAllDimsSaveSpace.cxx"
target datalayout = "e-m:e-p270:32:32-p271:32:32-p272:64:64-i64:64-f80:128-n8:16:32:64-S128"
target triple = "x86_64-unknown-linux-gnu"

%"class.std::ios_base::Init" = type { i8 }
%struct.sse_f = type { [4 x float] }
%"struct.RTTL::BinnedAllDimsSaveSpace::BinTable" = type { [3 x [32 x i32]], [3 x [32 x %"class.RTTL::AABB"]], [33 x %"class.RTTL::AABB"] }
%"class.RTTL::AABB" = type { %"class.RTTL::RTBox3a" }
%"class.RTTL::RTBox3a" = type { %"class.RTTL::RTBox_t" }
%"class.RTTL::RTBox_t" = type { %"class.RTTL::RTVec_t", %"class.RTTL::RTVec_t" }
%"class.RTTL::RTVec_t" = type { %"struct.RTTL::RTData_t" }
%"struct.RTTL::RTData_t" = type { [1 x %struct.sse_f] }
%struct.sse_i = type { %union.anon }
%union.anon = type { [4 x i32] }
%"class.RTTL::CentroidDiffAABB" = type { %"class.RTTL::RTBox3a" }
%"class.RTTL::BVHBuilder" = type { ptr, ptr }
%"struct.RTTL::BVH" = type { ptr, ptr, ptr, i32, ptr }
%"class.RTTL::RTBox_t.3" = type { %"class.RTTL::RTVec_t.4", %"class.RTTL::RTVec_t.4" }
%"class.RTTL::RTVec_t.4" = type { float, float, float }
%"struct.RTTL::BVHExtData" = type { %union.anon.1 }
%union.anon.1 = type { %union.anon.2 }
%union.anon.2 = type { i32 }
%struct.anon = type { i8, i8, i16 }

$_ZN4RTTL22BinnedAllDimsSaveSpace8BinTableC2Ev = comdat any

$_ZN4RTTL16CentroidDiffAABBC2ERKNS_7RTBox3aE = comdat any

$_ZN4RTTL16CentroidDiffAABBaSERKS0_ = comdat any

$_ZN4RTTL4AABBC2ERKNS_7RTBox3aE = comdat any

$_ZN4RTTL4AABBaSERKS0_ = comdat any

$_ZSt3minIiERKT_S2_S2_ = comdat any

$_ZN4RTTL4AABBC2Ev = comdat any

$_ZNK4RTTL16CentroidDiffAABB8centroidEi = comdat any

$_ZNK4RTTL16CentroidDiffAABB8centroidEv = comdat any

$_ZN5sse_fC2Ev = comdat any

$_ZNK4RTTL7RTVec_tILi1E5sse_fLi0EEixEi = comdat any

$_ZN4RTTL7RTVec_tILi1E5sse_fLi0EEcvPS1_Ev = comdat any

$_ZN4RTTL7RTVec_tILi1E5sse_fLi0EEC2Ev = comdat any

$_ZN4RTTL7RTVec_tILi1E5sse_fLi0EE5arrayEv = comdat any

$_ZNK4RTTL7RTVec_tILi1E5sse_fLi0EE5arrayEv = comdat any

$_ZN4RTTL8RTData_tILi1E5sse_fLi0EEC2Ev = comdat any

$_ZN4RTTL7RTBox3aC2Ev = comdat any

$_ZN4RTTL7RTBox_tILi1E5sse_fLi0EEC2Ev = comdat any

$_ZN4RTTL7RTVec_tILi1E5sse_fLi0EEixEi = comdat any

$_ZNK4RTTL16CentroidDiffAABB7convertEv = comdat any

$_ZN4RTTL7RTVec_tILi1E5sse_fLi0EEcvRNS_8RTData_tILi1ES1_Li0EEEEv = comdat any

$_ZNK4RTTL7RTVec_tILi1E5sse_fLi0EEcvRKNS_8RTData_tILi1ES1_Li0EEEEv = comdat any

$_ZN4RTTL8RTData_tILi1E5sse_fLi0EE9nElementsEv = comdat any

$_ZN4RTTL7RTBox3aaSERKS0_ = comdat any

$_ZN4RTTL7RTBox_tILi3EfLi0EEC2ERKNS_7RTVec_tILi3EfLi0EEES5_ = comdat any

$_ZNK4RTTL7RTVec_tILi3EfLi0EEixEi = comdat any

$_ZNK4RTTL7RTVec_tILi3EfLi0EE4dataEv = comdat any

$_ZN5sse_iC2Ev = comdat any

$_ZTSN4RTTL10BVHBuilderE = comdat any

$_ZTIN4RTTL10BVHBuilderE = comdat any

@_ZStL8__ioinit = internal global %"class.std::ios_base::Init" zeroinitializer, align 1, !dbg !0
@__dso_handle = external hidden global i8
@_ZL8maxFloat = internal global %struct.sse_f zeroinitializer, align 4, !dbg !7
@_ZN4RTTL22BinnedAllDimsSaveSpace8binTableE = dso_local global %"struct.RTTL::BinnedAllDimsSaveSpace::BinTable" zeroinitializer, align 64, !dbg !628
@_ZN4RTTLL7maxBinsE = internal constant i32 32, align 4, !dbg !631
@.str = private unnamed_addr constant [18 x i8] c"voxelArea >= 0.0f\00", align 1, !dbg !633
@.str.3 = private unnamed_addr constant [109 x i8] c"/home/raj/SVF_PAPER_BENCHMARKS/parsec-3.0/pkgs/apps/raytrace/src/RTTL/BVH/Builder/BinnedAllDimsSaveSpace.cxx\00", align 1, !dbg !639
@__PRETTY_FUNCTION__._ZN4RTTL22BinnedAllDimsSaveSpace18recursiveBuildFastEPKNS_16CentroidDiffAABBEiRiiiRKNS_4AABBES7_b = private unnamed_addr constant [147 x i8] c"void RTTL::BinnedAllDimsSaveSpace::recursiveBuildFast(const CentroidDiffAABB *const, int, int &, int, int, const AABB &, const AABB &, const bool)\00", align 1, !dbg !644
@_ZTVN4RTTL22BinnedAllDimsSaveSpaceE = dso_local unnamed_addr constant { [3 x ptr] } { [3 x ptr] [ptr null, ptr @_ZTIN4RTTL22BinnedAllDimsSaveSpaceE, ptr @_ZN4RTTL22BinnedAllDimsSaveSpace5buildERKNS_7RTBox3aES3_] }, align 8
@_ZTVN10__cxxabiv120__si_class_type_infoE = external global ptr
@_ZTSN4RTTL22BinnedAllDimsSaveSpaceE = dso_local constant [32 x i8] c"N4RTTL22BinnedAllDimsSaveSpaceE\00", align 1
@_ZTVN10__cxxabiv117__class_type_infoE = external global ptr
@_ZTSN4RTTL10BVHBuilderE = linkonce_odr dso_local constant [20 x i8] c"N4RTTL10BVHBuilderE\00", comdat, align 1
@_ZTIN4RTTL10BVHBuilderE = linkonce_odr dso_local constant { ptr, ptr } { ptr getelementptr inbounds (ptr, ptr @_ZTVN10__cxxabiv117__class_type_infoE, i64 2), ptr @_ZTSN4RTTL10BVHBuilderE }, comdat, align 8
@_ZTIN4RTTL22BinnedAllDimsSaveSpaceE = dso_local constant { ptr, ptr, ptr } { ptr getelementptr inbounds (ptr, ptr @_ZTVN10__cxxabiv120__si_class_type_infoE, i64 2), ptr @_ZTSN4RTTL22BinnedAllDimsSaveSpaceE, ptr @_ZTIN4RTTL10BVHBuilderE }, align 8
@.str.4 = private unnamed_addr constant [29 x i8] c"nElements() <= v.nElements()\00", align 1, !dbg !649
@.str.5 = private unnamed_addr constant [88 x i8] c"/home/raj/SVF_PAPER_BENCHMARKS/parsec-3.0/pkgs/apps/raytrace/src/RTTL/common/RTData.hxx\00", align 1, !dbg !654
@__PRETTY_FUNCTION__._ZN4RTTL8RTData_tILi1E5sse_fLi0EE6assignILi1ES1_Li0EEEvRKNS0_IXT_ET0_XT1_EEE = private unnamed_addr constant [191 x i8] c"void RTTL::RTData_t<1, sse_f>::assign(const RTData_t<AnotherN, AnotherDataType, AnotherAlign> &) [N = 1, DataType = sse_f, align = 0, AnotherN = 1, AnotherDataType = sse_f, AnotherAlign = 0]\00", align 1, !dbg !659
@llvm.global_ctors = appending global [1 x { i32, ptr, ptr }] [{ i32, ptr, ptr } { i32 65535, ptr @_GLOBAL__sub_I_BinnedAllDimsSaveSpace.cxx, ptr null }]

; Function Attrs: noinline uwtable
define internal void @__cxx_global_var_init() #0 section ".text.startup" !dbg !1879 {
  call void @_ZNSt8ios_base4InitC1Ev(ptr noundef nonnull align 1 dereferenceable(1) @_ZStL8__ioinit), !dbg !1881
  %1 = call i32 @__cxa_atexit(ptr @_ZNSt8ios_base4InitD1Ev, ptr @_ZStL8__ioinit, ptr @__dso_handle) #3, !dbg !1883
  ret void, !dbg !1881
}

declare void @_ZNSt8ios_base4InitC1Ev(ptr noundef nonnull align 1 dereferenceable(1)) unnamed_addr #1

; Function Attrs: nounwind
declare void @_ZNSt8ios_base4InitD1Ev(ptr noundef nonnull align 1 dereferenceable(1)) unnamed_addr #2

; Function Attrs: nounwind
declare i32 @__cxa_atexit(ptr, ptr, ptr) #3

; Function Attrs: noinline uwtable
define internal void @__cxx_global_var_init.1() #4 section ".text.startup" !dbg !1884 {
  %1 = alloca %struct.sse_f, align 4
  %2 = alloca float, align 4
  %3 = alloca i32, align 4
  store float 0x47EFFFFFE0000000, ptr %2, align 4
  call void @llvm.dbg.declare(metadata ptr %2, metadata !1885, metadata !DIExpression()), !dbg !1889
  call void @llvm.dbg.declare(metadata ptr %1, metadata !1892, metadata !DIExpression()), !dbg !1893
  call void @_ZN5sse_fC2Ev(ptr noundef nonnull align 4 dereferenceable(16) %1), !dbg !1893
  call void @llvm.dbg.declare(metadata ptr %3, metadata !1894, metadata !DIExpression()), !dbg !1896
  store i32 0, ptr %3, align 4, !dbg !1896
  br label %4, !dbg !1897

4:                                                ; preds = %7, %0
  %5 = load i32, ptr %3, align 4, !dbg !1898
  %6 = icmp slt i32 %5, 4, !dbg !1900
  br i1 %6, label %7, label %14, !dbg !1901

7:                                                ; preds = %4
  %8 = load float, ptr %2, align 4, !dbg !1902
  %9 = load i32, ptr %3, align 4, !dbg !1903
  %10 = sext i32 %9 to i64, !dbg !1904
  %11 = getelementptr inbounds [4 x float], ptr %1, i64 0, i64 %10, !dbg !1904
  store float %8, ptr %11, align 4, !dbg !1905
  %12 = load i32, ptr %3, align 4, !dbg !1906
  %13 = add nsw i32 %12, 1, !dbg !1906
  store i32 %13, ptr %3, align 4, !dbg !1906
  br label %4, !dbg !1907, !llvm.loop !1908

14:                                               ; preds = %4
  %15 = load { <2 x float>, <2 x float> }, ptr %1, align 4, !dbg !1911
  %16 = extractvalue { <2 x float>, <2 x float> } %15, 0, !dbg !1912
  store <2 x float> %16, ptr @_ZL8maxFloat, align 4, !dbg !1912
  %17 = extractvalue { <2 x float>, <2 x float> } %15, 1, !dbg !1912
  store <2 x float> %17, ptr getelementptr inbounds ({ <2 x float>, <2 x float> }, ptr @_ZL8maxFloat, i32 0, i32 1), align 4, !dbg !1912
  ret void, !dbg !1913
}

; Function Attrs: noinline uwtable
define internal void @__cxx_global_var_init.2() #0 section ".text.startup" !dbg !1914 {
  call void @_ZN4RTTL22BinnedAllDimsSaveSpace8BinTableC2Ev(ptr noundef nonnull align 4 dereferenceable(4512) @_ZN4RTTL22BinnedAllDimsSaveSpace8binTableE), !dbg !1915
  ret void, !dbg !1915
}

; Function Attrs: noinline optnone uwtable
define linkonce_odr dso_local void @_ZN4RTTL22BinnedAllDimsSaveSpace8BinTableC2Ev(ptr noundef nonnull align 4 dereferenceable(4512) %0) unnamed_addr #5 comdat align 2 !dbg !1917 {
  %2 = alloca ptr, align 8
  store ptr %0, ptr %2, align 8
  call void @llvm.dbg.declare(metadata ptr %2, metadata !1922, metadata !DIExpression()), !dbg !1924
  %3 = load ptr, ptr %2, align 8
  %4 = getelementptr inbounds %"struct.RTTL::BinnedAllDimsSaveSpace::BinTable", ptr %3, i32 0, i32 1, !dbg !1925
  %5 = getelementptr inbounds [3 x [32 x %"class.RTTL::AABB"]], ptr %4, i32 0, i32 0, i32 0, !dbg !1925
  %6 = getelementptr inbounds %"class.RTTL::AABB", ptr %5, i64 96, !dbg !1925
  br label %7, !dbg !1925

7:                                                ; preds = %7, %1
  %8 = phi ptr [ %5, %1 ], [ %9, %7 ], !dbg !1925
  call void @_ZN4RTTL4AABBC2Ev(ptr noundef nonnull align 4 dereferenceable(32) %8), !dbg !1925
  %9 = getelementptr inbounds %"class.RTTL::AABB", ptr %8, i64 1, !dbg !1925
  %10 = icmp eq ptr %9, %6, !dbg !1925
  br i1 %10, label %11, label %7, !dbg !1925

11:                                               ; preds = %7
  %12 = getelementptr inbounds %"struct.RTTL::BinnedAllDimsSaveSpace::BinTable", ptr %3, i32 0, i32 2, !dbg !1925
  %13 = getelementptr inbounds [33 x %"class.RTTL::AABB"], ptr %12, i32 0, i32 0, !dbg !1925
  %14 = getelementptr inbounds %"class.RTTL::AABB", ptr %13, i64 33, !dbg !1925
  br label %15, !dbg !1925

15:                                               ; preds = %15, %11
  %16 = phi ptr [ %13, %11 ], [ %17, %15 ], !dbg !1925
  call void @_ZN4RTTL4AABBC2Ev(ptr noundef nonnull align 4 dereferenceable(32) %16), !dbg !1925
  %17 = getelementptr inbounds %"class.RTTL::AABB", ptr %16, i64 1, !dbg !1925
  %18 = icmp eq ptr %17, %14, !dbg !1925
  br i1 %18, label %19, label %15, !dbg !1925

19:                                               ; preds = %15
  ret void, !dbg !1925
}

; Function Attrs: mustprogress noinline optnone uwtable
define dso_local void @_ZN4RTTL22BinnedAllDimsSaveSpace5buildERKNS_7RTBox3aES3_(ptr noundef nonnull align 8 dereferenceable(16) %0, ptr noundef nonnull align 4 dereferenceable(32) %1, ptr noundef nonnull align 4 dereferenceable(32) %2) unnamed_addr #6 align 2 !dbg !1926 {
  %4 = alloca %struct.sse_f, align 4
  %5 = alloca %struct.sse_f, align 4
  %6 = alloca %struct.sse_f, align 4
  %7 = alloca i32, align 4
  %8 = alloca %struct.sse_f, align 4
  %9 = alloca %struct.sse_f, align 4
  %10 = alloca %struct.sse_f, align 4
  %11 = alloca i32, align 4
  %12 = alloca %struct.sse_f, align 4
  %13 = alloca %struct.sse_f, align 4
  %14 = alloca %struct.sse_f, align 4
  %15 = alloca i32, align 4
  %16 = alloca %struct.sse_f, align 4
  %17 = alloca %struct.sse_f, align 4
  %18 = alloca %struct.sse_f, align 4
  %19 = alloca %struct.sse_f, align 4
  %20 = alloca %struct.sse_f, align 4
  %21 = alloca %struct.sse_f, align 4
  %22 = alloca %struct.sse_f, align 4
  %23 = alloca %struct.sse_f, align 4
  %24 = alloca %struct.sse_f, align 4
  %25 = alloca %struct.sse_f, align 4
  %26 = alloca %struct.sse_f, align 4
  %27 = alloca %struct.sse_f, align 4
  %28 = alloca %struct.sse_f, align 4
  %29 = alloca %struct.sse_f, align 4
  %30 = alloca %struct.sse_f, align 4
  %31 = alloca %struct.sse_f, align 4
  %32 = alloca %struct.sse_f, align 4
  %33 = alloca %struct.sse_f, align 4
  %34 = alloca i32, align 4
  %35 = alloca %struct.sse_f, align 4
  %36 = alloca %struct.sse_f, align 4
  %37 = alloca %struct.sse_f, align 4
  %38 = alloca i32, align 4
  %39 = alloca %struct.sse_f, align 4
  %40 = alloca %struct.sse_f, align 4
  %41 = alloca %struct.sse_f, align 4
  %42 = alloca i32, align 4
  %43 = alloca %struct.sse_f, align 4
  %44 = alloca %struct.sse_f, align 4
  %45 = alloca %struct.sse_f, align 4
  %46 = alloca %struct.sse_f, align 4
  %47 = alloca %struct.sse_f, align 4
  %48 = alloca %struct.sse_f, align 4
  %49 = alloca %struct.sse_f, align 4
  %50 = alloca %struct.sse_f, align 4
  %51 = alloca %struct.sse_f, align 4
  %52 = alloca %struct.sse_f, align 4
  %53 = alloca %struct.sse_f, align 4
  %54 = alloca %struct.sse_f, align 4
  %55 = alloca %struct.sse_f, align 4
  %56 = alloca %struct.sse_f, align 4
  %57 = alloca %struct.sse_f, align 4
  %58 = alloca ptr, align 8
  %59 = alloca i32, align 4
  %60 = alloca ptr, align 8
  %61 = alloca i32, align 4
  %62 = alloca ptr, align 8
  %63 = alloca ptr, align 8
  %64 = alloca ptr, align 8
  %65 = alloca i32, align 4
  %66 = alloca %struct.sse_f, align 4
  %67 = alloca %struct.sse_f, align 4
  %68 = alloca %struct.sse_f, align 4
  %69 = alloca ptr, align 8
  %70 = alloca i32, align 4
  %71 = alloca ptr, align 8
  %72 = alloca i32, align 4
  %73 = alloca ptr, align 8
  %74 = alloca ptr, align 8
  %75 = alloca ptr, align 8
  %76 = alloca i32, align 4
  %77 = alloca %struct.sse_f, align 4
  %78 = alloca %struct.sse_f, align 4
  %79 = alloca %struct.sse_f, align 4
  %80 = alloca ptr, align 8
  %81 = alloca i32, align 4
  %82 = alloca ptr, align 8
  %83 = alloca i32, align 4
  %84 = alloca ptr, align 8
  %85 = alloca ptr, align 8
  %86 = alloca ptr, align 8
  %87 = alloca i32, align 4
  %88 = alloca %struct.sse_f, align 4
  %89 = alloca %struct.sse_f, align 4
  %90 = alloca %struct.sse_f, align 4
  %91 = alloca ptr, align 8
  %92 = alloca i32, align 4
  %93 = alloca ptr, align 8
  %94 = alloca i32, align 4
  %95 = alloca ptr, align 8
  %96 = alloca ptr, align 8
  %97 = alloca ptr, align 8
  %98 = alloca i32, align 4
  %99 = alloca %struct.sse_f, align 4
  %100 = alloca %struct.sse_f, align 4
  %101 = alloca %struct.sse_f, align 4
  %102 = alloca ptr, align 8
  %103 = alloca i32, align 4
  %104 = alloca ptr, align 8
  %105 = alloca i32, align 4
  %106 = alloca ptr, align 8
  %107 = alloca ptr, align 8
  %108 = alloca ptr, align 8
  %109 = alloca i32, align 4
  %110 = alloca %struct.sse_f, align 4
  %111 = alloca %struct.sse_f, align 4
  %112 = alloca %struct.sse_f, align 4
  %113 = alloca ptr, align 8
  %114 = alloca i32, align 4
  %115 = alloca ptr, align 8
  %116 = alloca i32, align 4
  %117 = alloca ptr, align 8
  %118 = alloca ptr, align 8
  %119 = alloca ptr, align 8
  %120 = alloca i32, align 4
  %121 = alloca %struct.sse_f, align 4
  %122 = alloca %struct.sse_f, align 4
  %123 = alloca %struct.sse_f, align 4
  %124 = alloca ptr, align 8
  %125 = alloca ptr, align 8
  %126 = alloca i32, align 4
  %127 = alloca ptr, align 8
  %128 = alloca ptr, align 8
  %129 = alloca i32, align 4
  %130 = alloca ptr, align 8
  %131 = alloca ptr, align 8
  %132 = alloca ptr, align 8
  %133 = alloca ptr, align 8
  %134 = alloca ptr, align 8
  %135 = alloca ptr, align 8
  %136 = alloca %struct.sse_f, align 4
  %137 = alloca float, align 4
  %138 = alloca i32, align 4
  %139 = alloca %struct.sse_f, align 4
  %140 = alloca float, align 4
  %141 = alloca i32, align 4
  %142 = alloca ptr, align 8
  %143 = alloca %struct.sse_f, align 4
  %144 = alloca %struct.sse_f, align 4
  %145 = alloca %struct.sse_f, align 4
  %146 = alloca %struct.sse_f, align 4
  %147 = alloca %struct.sse_f, align 4
  %148 = alloca i32, align 4
  %149 = alloca %struct.sse_f, align 4
  %150 = alloca %struct.sse_f, align 4
  %151 = alloca %struct.sse_f, align 4
  %152 = alloca i32, align 4
  %153 = alloca double, align 8
  %154 = alloca %struct.sse_f, align 4
  %155 = alloca %struct.sse_f, align 4
  %156 = alloca %struct.sse_f, align 4
  %157 = alloca i32, align 4
  %158 = alloca %struct.sse_f, align 4
  %159 = alloca %struct.sse_f, align 4
  %160 = alloca %struct.sse_f, align 4
  %161 = alloca %struct.sse_f, align 4
  %162 = alloca %struct.sse_f, align 4
  %163 = alloca ptr, align 8
  %164 = alloca ptr, align 8
  %165 = alloca ptr, align 8
  %166 = alloca i32, align 4
  %167 = alloca %struct.sse_f, align 4
  %168 = alloca %struct.sse_f, align 4
  %169 = alloca %struct.sse_f, align 4
  %170 = alloca %"class.RTTL::RTVec_t", align 4
  %171 = alloca ptr, align 8
  %172 = alloca ptr, align 8
  %173 = alloca %"class.RTTL::RTVec_t", align 4
  %174 = alloca ptr, align 8
  %175 = alloca %struct.sse_f, align 4
  %176 = alloca %struct.sse_f, align 4
  %177 = alloca %struct.sse_f, align 4
  %178 = alloca %struct.sse_f, align 4
  %179 = alloca %struct.sse_f, align 4
  %180 = alloca %struct.sse_f, align 4
  %181 = alloca %struct.sse_f, align 4
  %182 = alloca %struct.sse_f, align 4
  %183 = alloca %struct.sse_f, align 4
  %184 = alloca %struct.sse_f, align 4
  %185 = alloca %struct.sse_i, align 4
  %186 = alloca %struct.sse_f, align 4
  %187 = alloca %struct.sse_f, align 4
  %188 = alloca i32, align 4
  %189 = alloca %struct.sse_f, align 4
  %190 = alloca %struct.sse_f, align 4
  %191 = alloca %struct.sse_f, align 4
  %192 = alloca i32, align 4
  %193 = alloca %struct.sse_f, align 4
  %194 = alloca %struct.sse_f, align 4
  %195 = alloca %struct.sse_f, align 4
  %196 = alloca i32, align 4
  %197 = alloca %struct.sse_f, align 4
  %198 = alloca i32, align 4
  %199 = alloca %struct.sse_f, align 4
  %200 = alloca i32, align 4
  %201 = alloca %struct.sse_f, align 4
  %202 = alloca i32, align 4
  %203 = alloca %struct.sse_f, align 4
  %204 = alloca %struct.sse_f, align 4
  %205 = alloca %struct.sse_f, align 4
  %206 = alloca i32, align 4
  %207 = alloca %struct.sse_f, align 4
  %208 = alloca %struct.sse_f, align 4
  %209 = alloca %struct.sse_f, align 4
  %210 = alloca i32, align 4
  %211 = alloca %struct.sse_f, align 4
  %212 = alloca %struct.sse_f, align 4
  %213 = alloca %struct.sse_f, align 4
  %214 = alloca i32, align 4
  %215 = alloca %struct.sse_f, align 4
  %216 = alloca %struct.sse_f, align 4
  %217 = alloca %struct.sse_f, align 4
  %218 = alloca i32, align 4
  %219 = alloca ptr, align 8
  %220 = alloca ptr, align 8
  %221 = alloca ptr, align 8
  %222 = alloca ptr, align 8
  %223 = alloca ptr, align 8
  %224 = alloca ptr, align 8
  %225 = alloca ptr, align 8
  %226 = alloca ptr, align 8
  %227 = alloca ptr, align 8
  %228 = alloca ptr, align 8
  %229 = alloca ptr, align 8
  %230 = alloca ptr, align 8
  %231 = alloca %struct.sse_i, align 4
  %232 = alloca %struct.sse_f, align 4
  %233 = alloca %struct.sse_f, align 4
  %234 = alloca %struct.sse_f, align 4
  %235 = alloca %struct.sse_f, align 4
  %236 = alloca %struct.sse_f, align 4
  %237 = alloca i32, align 4
  %238 = alloca i32, align 4
  %239 = alloca i32, align 4
  %240 = alloca %"class.RTTL::AABB", align 4
  %241 = alloca %struct.sse_f, align 4
  %242 = alloca float, align 4
  %243 = alloca i32, align 4
  %244 = alloca %struct.sse_f, align 4
  %245 = alloca %struct.sse_f, align 4
  %246 = alloca ptr, align 8
  %247 = alloca i32, align 4
  %248 = alloca %struct.sse_f, align 4
  %249 = alloca %struct.sse_f, align 4
  %250 = alloca %struct.sse_f, align 4
  %251 = alloca %struct.sse_f, align 4
  %252 = alloca %struct.sse_f, align 4
  %253 = alloca %struct.sse_f, align 4
  %254 = alloca %struct.sse_f, align 4
  %255 = alloca %struct.sse_f, align 4
  %256 = alloca %struct.sse_f, align 4
  %257 = alloca %struct.sse_f, align 4
  %258 = alloca %struct.sse_f, align 4
  %259 = alloca %struct.sse_f, align 4
  %260 = alloca %struct.sse_f, align 4
  %261 = alloca ptr, align 8
  %262 = alloca %"class.RTTL::RTVec_t", align 4
  %263 = alloca %struct.sse_f, align 4
  %264 = alloca ptr, align 8
  %265 = alloca ptr, align 8
  %266 = alloca i32, align 4
  %267 = alloca ptr, align 8
  %268 = alloca i32, align 4
  %269 = alloca i32, align 4
  %270 = alloca i32, align 4
  %271 = alloca ptr, align 8
  %272 = alloca ptr, align 8
  %273 = alloca ptr, align 8
  %274 = alloca ptr, align 8
  %275 = alloca i32, align 4
  %276 = alloca ptr, align 8
  %277 = alloca %struct.sse_f, align 4
  %278 = alloca %struct.sse_f, align 4
  %279 = alloca %struct.sse_f, align 4
  %280 = alloca %struct.sse_f, align 4
  %281 = alloca i32, align 4
  %282 = alloca %"class.RTTL::CentroidDiffAABB", align 4
  %283 = alloca i32, align 4
  %284 = alloca %"class.RTTL::AABB", align 4
  %285 = alloca %"class.RTTL::AABB", align 4
  store ptr %0, ptr %271, align 8
  call void @llvm.dbg.declare(metadata ptr %271, metadata !1927, metadata !DIExpression()), !dbg !1929
  store ptr %1, ptr %272, align 8
  call void @llvm.dbg.declare(metadata ptr %272, metadata !1930, metadata !DIExpression()), !dbg !1931
  store ptr %2, ptr %273, align 8
  call void @llvm.dbg.declare(metadata ptr %273, metadata !1932, metadata !DIExpression()), !dbg !1933
  %286 = load ptr, ptr %271, align 8
  call void @llvm.dbg.declare(metadata ptr %274, metadata !1934, metadata !DIExpression()), !dbg !1935
  %287 = getelementptr inbounds %"class.RTTL::BVHBuilder", ptr %286, i32 0, i32 1, !dbg !1936
  %288 = load ptr, ptr %287, align 8, !dbg !1936
  %289 = load ptr, ptr %288, align 8, !dbg !1937
  %290 = getelementptr inbounds ptr, ptr %289, i64 1, !dbg !1937
  %291 = load ptr, ptr %290, align 8, !dbg !1937
  %292 = call noundef ptr %291(ptr noundef nonnull align 8 dereferenceable(40) %288), !dbg !1937
  store ptr %292, ptr %274, align 8, !dbg !1935
  call void @llvm.dbg.declare(metadata ptr %275, metadata !1938, metadata !DIExpression()), !dbg !1939
  %293 = getelementptr inbounds %"class.RTTL::BVHBuilder", ptr %286, i32 0, i32 1, !dbg !1940
  %294 = load ptr, ptr %293, align 8, !dbg !1940
  %295 = load ptr, ptr %294, align 8, !dbg !1941
  %296 = getelementptr inbounds ptr, ptr %295, i64 3, !dbg !1941
  %297 = load ptr, ptr %296, align 8, !dbg !1941
  %298 = call noundef i32 %297(ptr noundef nonnull align 8 dereferenceable(40) %294), !dbg !1941
  store i32 %298, ptr %275, align 4, !dbg !1939
  %299 = getelementptr inbounds %"class.RTTL::BVHBuilder", ptr %286, i32 0, i32 1, !dbg !1942
  %300 = load ptr, ptr %299, align 8, !dbg !1942
  %301 = load i32, ptr %275, align 4, !dbg !1943
  call void @_ZN4RTTL3BVH7reserveEi(ptr noundef nonnull align 8 dereferenceable(40) %300, i32 noundef %301), !dbg !1944
  call void @llvm.dbg.declare(metadata ptr %276, metadata !1945, metadata !DIExpression()), !dbg !1946
  %302 = load ptr, ptr %274, align 8, !dbg !1947
  store ptr %302, ptr %276, align 8, !dbg !1946
  store ptr %286, ptr %265, align 8
  call void @llvm.dbg.declare(metadata ptr %265, metadata !1948, metadata !DIExpression()), !dbg !1950
  store i32 32, ptr %266, align 4
  call void @llvm.dbg.declare(metadata ptr %266, metadata !1952, metadata !DIExpression()), !dbg !1953
  store ptr @_ZN4RTTL22BinnedAllDimsSaveSpace8binTableE, ptr %267, align 8
  call void @llvm.dbg.declare(metadata ptr %267, metadata !1954, metadata !DIExpression()), !dbg !1955
  %303 = load ptr, ptr %265, align 8
  call void @llvm.dbg.declare(metadata ptr %268, metadata !1956, metadata !DIExpression()), !dbg !1958
  store i32 0, ptr %268, align 4, !dbg !1958
  br label %304, !dbg !1959

304:                                              ; preds = %403, %3
  %305 = load i32, ptr %268, align 4, !dbg !1960
  %306 = icmp slt i32 %305, 3, !dbg !1962
  br i1 %306, label %307, label %406, !dbg !1963

307:                                              ; preds = %304
  call void @llvm.dbg.declare(metadata ptr %269, metadata !1964, metadata !DIExpression()), !dbg !1967
  store i32 0, ptr %269, align 4, !dbg !1967
  br label %308, !dbg !1968

308:                                              ; preds = %385, %307
  %309 = load i32, ptr %269, align 4, !dbg !1969
  %310 = load i32, ptr %266, align 4, !dbg !1971
  %311 = icmp slt i32 %309, %310, !dbg !1972
  br i1 %311, label %312, label %388, !dbg !1973

312:                                              ; preds = %308
  %313 = load ptr, ptr %267, align 8, !dbg !1974
  %314 = getelementptr inbounds %"struct.RTTL::BinnedAllDimsSaveSpace::BinTable", ptr %313, i32 0, i32 1, !dbg !1975
  %315 = load i32, ptr %268, align 4, !dbg !1976
  %316 = sext i32 %315 to i64, !dbg !1974
  %317 = getelementptr inbounds [3 x [32 x %"class.RTTL::AABB"]], ptr %314, i64 0, i64 %316, !dbg !1974
  %318 = load i32, ptr %269, align 4, !dbg !1977
  %319 = sext i32 %318 to i64, !dbg !1974
  %320 = getelementptr inbounds [32 x %"class.RTTL::AABB"], ptr %317, i64 0, i64 %319, !dbg !1974
  store ptr %320, ptr %225, align 8
  call void @llvm.dbg.declare(metadata ptr %225, metadata !1978, metadata !DIExpression()), !dbg !1981
  %321 = load ptr, ptr %225, align 8
  store ptr %321, ptr %142, align 8
  call void @llvm.dbg.declare(metadata ptr %142, metadata !1983, metadata !DIExpression()), !dbg !1985
  %322 = load ptr, ptr %142, align 8
  store float 0x47EFFFFFE0000000, ptr %137, align 4
  call void @llvm.dbg.declare(metadata ptr %137, metadata !1885, metadata !DIExpression()), !dbg !1987
  call void @llvm.dbg.declare(metadata ptr %136, metadata !1892, metadata !DIExpression()), !dbg !1989
  call void @_ZN5sse_fC2Ev(ptr noundef nonnull align 4 dereferenceable(16) %136), !dbg !1989
  call void @llvm.dbg.declare(metadata ptr %138, metadata !1894, metadata !DIExpression()), !dbg !1990
  store i32 0, ptr %138, align 4, !dbg !1990
  br label %323, !dbg !1991

323:                                              ; preds = %326, %312
  %324 = load i32, ptr %138, align 4, !dbg !1992
  %325 = icmp slt i32 %324, 4, !dbg !1993
  br i1 %325, label %326, label %333, !dbg !1994

326:                                              ; preds = %323
  %327 = load float, ptr %137, align 4, !dbg !1995
  %328 = load i32, ptr %138, align 4, !dbg !1996
  %329 = sext i32 %328 to i64, !dbg !1997
  %330 = getelementptr inbounds [4 x float], ptr %136, i64 0, i64 %329, !dbg !1997
  store float %327, ptr %330, align 4, !dbg !1998
  %331 = load i32, ptr %138, align 4, !dbg !1999
  %332 = add nsw i32 %331, 1, !dbg !1999
  store i32 %332, ptr %138, align 4, !dbg !1999
  br label %323, !dbg !2000, !llvm.loop !2001

333:                                              ; preds = %323
  %334 = load { <2 x float>, <2 x float> }, ptr %136, align 4, !dbg !2003
  %335 = extractvalue { <2 x float>, <2 x float> } %334, 0, !dbg !2004
  store <2 x float> %335, ptr %143, align 4, !dbg !2004
  %336 = getelementptr inbounds { <2 x float>, <2 x float> }, ptr %143, i32 0, i32 1, !dbg !2004
  %337 = extractvalue { <2 x float>, <2 x float> } %334, 1, !dbg !2004
  store <2 x float> %337, ptr %336, align 4, !dbg !2004
  store ptr %322, ptr %130, align 8
  call void @llvm.dbg.declare(metadata ptr %130, metadata !2005, metadata !DIExpression()), !dbg !2008
  store ptr %143, ptr %131, align 8
  call void @llvm.dbg.declare(metadata ptr %131, metadata !2010, metadata !DIExpression()), !dbg !2011
  %338 = load ptr, ptr %130, align 8
  call void @llvm.dbg.declare(metadata ptr %132, metadata !2012, metadata !DIExpression()), !dbg !2013
  %339 = call noundef nonnull align 4 dereferenceable(16) ptr @_ZN4RTTL7RTVec_tILi1E5sse_fLi0EEcvRNS_8RTData_tILi1ES1_Li0EEEEv(ptr noundef nonnull align 4 dereferenceable(16) %338), !dbg !2014
  store ptr %339, ptr %132, align 8, !dbg !2013
  %340 = load ptr, ptr %132, align 8, !dbg !2015
  %341 = load ptr, ptr %131, align 8, !dbg !2016
  store ptr %340, ptr %127, align 8
  call void @llvm.dbg.declare(metadata ptr %127, metadata !2017, metadata !DIExpression()), !dbg !2020
  store ptr %341, ptr %128, align 8
  call void @llvm.dbg.declare(metadata ptr %128, metadata !2022, metadata !DIExpression()), !dbg !2023
  %342 = load ptr, ptr %127, align 8
  call void @llvm.dbg.declare(metadata ptr %129, metadata !2024, metadata !DIExpression()), !dbg !2026
  store i32 0, ptr %129, align 4, !dbg !2026
  br label %343, !dbg !2027

343:                                              ; preds = %346, %333
  %344 = load i32, ptr %129, align 4, !dbg !2028
  %345 = icmp slt i32 %344, 1, !dbg !2030
  br i1 %345, label %346, label %353, !dbg !2031

346:                                              ; preds = %343
  %347 = load ptr, ptr %128, align 8, !dbg !2032
  %348 = load i32, ptr %129, align 4, !dbg !2033
  %349 = sext i32 %348 to i64, !dbg !2034
  %350 = getelementptr inbounds [1 x %struct.sse_f], ptr %342, i64 0, i64 %349, !dbg !2034
  call void @llvm.memcpy.p0.p0.i64(ptr align 4 %350, ptr align 4 %347, i64 16, i1 false), !dbg !2035
  %351 = load i32, ptr %129, align 4, !dbg !2036
  %352 = add nsw i32 %351, 1, !dbg !2036
  store i32 %352, ptr %129, align 4, !dbg !2036
  br label %343, !dbg !2037, !llvm.loop !2038

353:                                              ; preds = %343
  store float 0xC7EFFFFFE0000000, ptr %140, align 4
  call void @llvm.dbg.declare(metadata ptr %140, metadata !1885, metadata !DIExpression()), !dbg !2040
  call void @llvm.dbg.declare(metadata ptr %139, metadata !1892, metadata !DIExpression()), !dbg !2042
  call void @_ZN5sse_fC2Ev(ptr noundef nonnull align 4 dereferenceable(16) %139), !dbg !2042
  call void @llvm.dbg.declare(metadata ptr %141, metadata !1894, metadata !DIExpression()), !dbg !2043
  store i32 0, ptr %141, align 4, !dbg !2043
  br label %354, !dbg !2044

354:                                              ; preds = %357, %353
  %355 = load i32, ptr %141, align 4, !dbg !2045
  %356 = icmp slt i32 %355, 4, !dbg !2046
  br i1 %356, label %357, label %364, !dbg !2047

357:                                              ; preds = %354
  %358 = load float, ptr %140, align 4, !dbg !2048
  %359 = load i32, ptr %141, align 4, !dbg !2049
  %360 = sext i32 %359 to i64, !dbg !2050
  %361 = getelementptr inbounds [4 x float], ptr %139, i64 0, i64 %360, !dbg !2050
  store float %358, ptr %361, align 4, !dbg !2051
  %362 = load i32, ptr %141, align 4, !dbg !2052
  %363 = add nsw i32 %362, 1, !dbg !2052
  store i32 %363, ptr %141, align 4, !dbg !2052
  br label %354, !dbg !2053, !llvm.loop !2054

364:                                              ; preds = %354
  %365 = load { <2 x float>, <2 x float> }, ptr %139, align 4, !dbg !2056
  %366 = extractvalue { <2 x float>, <2 x float> } %365, 0, !dbg !2057
  store <2 x float> %366, ptr %144, align 4, !dbg !2057
  %367 = getelementptr inbounds { <2 x float>, <2 x float> }, ptr %144, i32 0, i32 1, !dbg !2057
  %368 = extractvalue { <2 x float>, <2 x float> } %365, 1, !dbg !2057
  store <2 x float> %368, ptr %367, align 4, !dbg !2057
  %369 = getelementptr inbounds %"class.RTTL::RTBox_t", ptr %322, i32 0, i32 1, !dbg !2058
  store ptr %369, ptr %133, align 8
  call void @llvm.dbg.declare(metadata ptr %133, metadata !2005, metadata !DIExpression()), !dbg !2059
  store ptr %144, ptr %134, align 8
  call void @llvm.dbg.declare(metadata ptr %134, metadata !2010, metadata !DIExpression()), !dbg !2061
  %370 = load ptr, ptr %133, align 8
  call void @llvm.dbg.declare(metadata ptr %135, metadata !2012, metadata !DIExpression()), !dbg !2062
  %371 = call noundef nonnull align 4 dereferenceable(16) ptr @_ZN4RTTL7RTVec_tILi1E5sse_fLi0EEcvRNS_8RTData_tILi1ES1_Li0EEEEv(ptr noundef nonnull align 4 dereferenceable(16) %370), !dbg !2063
  store ptr %371, ptr %135, align 8, !dbg !2062
  %372 = load ptr, ptr %135, align 8, !dbg !2064
  %373 = load ptr, ptr %134, align 8, !dbg !2065
  store ptr %372, ptr %124, align 8
  call void @llvm.dbg.declare(metadata ptr %124, metadata !2017, metadata !DIExpression()), !dbg !2066
  store ptr %373, ptr %125, align 8
  call void @llvm.dbg.declare(metadata ptr %125, metadata !2022, metadata !DIExpression()), !dbg !2068
  %374 = load ptr, ptr %124, align 8
  call void @llvm.dbg.declare(metadata ptr %126, metadata !2024, metadata !DIExpression()), !dbg !2069
  store i32 0, ptr %126, align 4, !dbg !2069
  br label %375, !dbg !2070

375:                                              ; preds = %378, %364
  %376 = load i32, ptr %126, align 4, !dbg !2071
  %377 = icmp slt i32 %376, 1, !dbg !2072
  br i1 %377, label %378, label %385, !dbg !2073

378:                                              ; preds = %375
  %379 = load ptr, ptr %125, align 8, !dbg !2074
  %380 = load i32, ptr %126, align 4, !dbg !2075
  %381 = sext i32 %380 to i64, !dbg !2076
  %382 = getelementptr inbounds [1 x %struct.sse_f], ptr %374, i64 0, i64 %381, !dbg !2076
  call void @llvm.memcpy.p0.p0.i64(ptr align 4 %382, ptr align 4 %379, i64 16, i1 false), !dbg !2077
  %383 = load i32, ptr %126, align 4, !dbg !2078
  %384 = add nsw i32 %383, 1, !dbg !2078
  store i32 %384, ptr %126, align 4, !dbg !2078
  br label %375, !dbg !2079, !llvm.loop !2080

385:                                              ; preds = %375
  %386 = load i32, ptr %269, align 4, !dbg !2082
  %387 = add nsw i32 %386, 1, !dbg !2082
  store i32 %387, ptr %269, align 4, !dbg !2082
  br label %308, !dbg !2083, !llvm.loop !2084

388:                                              ; preds = %308
  call void @llvm.dbg.declare(metadata ptr %270, metadata !2086, metadata !DIExpression()), !dbg !2088
  store i32 0, ptr %270, align 4, !dbg !2088
  br label %389, !dbg !2089

389:                                              ; preds = %393, %388
  %390 = load i32, ptr %270, align 4, !dbg !2090
  %391 = load i32, ptr %266, align 4, !dbg !2092
  %392 = icmp slt i32 %390, %391, !dbg !2093
  br i1 %392, label %393, label %403, !dbg !2094

393:                                              ; preds = %389
  %394 = load ptr, ptr %267, align 8, !dbg !2095
  %395 = load i32, ptr %268, align 4, !dbg !2096
  %396 = sext i32 %395 to i64, !dbg !2095
  %397 = getelementptr inbounds [3 x [32 x i32]], ptr %394, i64 0, i64 %396, !dbg !2095
  %398 = load i32, ptr %270, align 4, !dbg !2097
  %399 = sext i32 %398 to i64, !dbg !2095
  %400 = getelementptr inbounds [32 x i32], ptr %397, i64 0, i64 %399, !dbg !2095
  store i32 0, ptr %400, align 4, !dbg !2098
  %401 = load i32, ptr %270, align 4, !dbg !2099
  %402 = add nsw i32 %401, 1, !dbg !2099
  store i32 %402, ptr %270, align 4, !dbg !2099
  br label %389, !dbg !2100, !llvm.loop !2101

403:                                              ; preds = %389
  %404 = load i32, ptr %268, align 4, !dbg !2103
  %405 = add nsw i32 %404, 1, !dbg !2103
  store i32 %405, ptr %268, align 4, !dbg !2103
  br label %304, !dbg !2104, !llvm.loop !2105

406:                                              ; preds = %304
  call void @llvm.dbg.declare(metadata ptr %277, metadata !2107, metadata !DIExpression()), !dbg !2108
  %407 = load ptr, ptr %273, align 8, !dbg !2109
  store ptr %407, ptr %264, align 8
  call void @llvm.dbg.declare(metadata ptr %264, metadata !2110, metadata !DIExpression()), !dbg !2113
  %408 = load ptr, ptr %264, align 8
  %409 = call { <2 x float>, <2 x float> } @_ZNK4RTTL7RTVec_tILi1E5sse_fLi0EEixEi(ptr noundef nonnull align 4 dereferenceable(16) %408, i32 noundef 0), !dbg !2115
  %410 = extractvalue { <2 x float>, <2 x float> } %409, 0, !dbg !2115
  store <2 x float> %410, ptr %263, align 4, !dbg !2115
  %411 = getelementptr inbounds { <2 x float>, <2 x float> }, ptr %263, i32 0, i32 1, !dbg !2115
  %412 = extractvalue { <2 x float>, <2 x float> } %409, 1, !dbg !2115
  store <2 x float> %412, ptr %411, align 4, !dbg !2115
  %413 = load { <2 x float>, <2 x float> }, ptr %263, align 4, !dbg !2116
  %414 = getelementptr inbounds %struct.sse_f, ptr %277, i32 0, i32 0, !dbg !2117
  %415 = getelementptr inbounds { <2 x float>, <2 x float> }, ptr %414, i32 0, i32 0, !dbg !2117
  %416 = extractvalue { <2 x float>, <2 x float> } %413, 0, !dbg !2117
  store <2 x float> %416, ptr %415, align 4, !dbg !2117
  %417 = getelementptr inbounds { <2 x float>, <2 x float> }, ptr %414, i32 0, i32 1, !dbg !2117
  %418 = extractvalue { <2 x float>, <2 x float> } %413, 1, !dbg !2117
  store <2 x float> %418, ptr %417, align 4, !dbg !2117
  call void @llvm.dbg.declare(metadata ptr %278, metadata !2118, metadata !DIExpression()), !dbg !2119
  %419 = load ptr, ptr %273, align 8, !dbg !2120
  store ptr %419, ptr %261, align 8
  call void @llvm.dbg.declare(metadata ptr %261, metadata !2121, metadata !DIExpression()), !dbg !2123
  %420 = load ptr, ptr %261, align 8
  store ptr %420, ptr %174, align 8
  call void @llvm.dbg.declare(metadata ptr %174, metadata !2125, metadata !DIExpression()), !dbg !2128
  %421 = load ptr, ptr %174, align 8
  %422 = getelementptr inbounds %"class.RTTL::RTBox_t", ptr %421, i32 0, i32 1, !dbg !2130
  store ptr %422, ptr %171, align 8
  call void @llvm.dbg.declare(metadata ptr %171, metadata !2131, metadata !DIExpression()), !dbg !2137
  store ptr %421, ptr %172, align 8
  call void @llvm.dbg.declare(metadata ptr %172, metadata !2139, metadata !DIExpression()), !dbg !2140
  call void @llvm.dbg.declare(metadata ptr %170, metadata !2141, metadata !DIExpression()), !dbg !2142
  call void @_ZN4RTTL7RTVec_tILi1E5sse_fLi0EEC2Ev(ptr noundef nonnull align 4 dereferenceable(16) %170), !dbg !2142
  %423 = call noundef nonnull align 4 dereferenceable(16) ptr @_ZN4RTTL7RTVec_tILi1E5sse_fLi0EE5arrayEv(ptr noundef nonnull align 4 dereferenceable(16) %170), !dbg !2143
  %424 = load ptr, ptr %171, align 8, !dbg !2144
  %425 = call noundef nonnull align 4 dereferenceable(16) ptr @_ZNK4RTTL7RTVec_tILi1E5sse_fLi0EE5arrayEv(ptr noundef nonnull align 4 dereferenceable(16) %424), !dbg !2145
  %426 = load ptr, ptr %172, align 8, !dbg !2146
  %427 = call noundef nonnull align 4 dereferenceable(16) ptr @_ZNK4RTTL7RTVec_tILi1E5sse_fLi0EE5arrayEv(ptr noundef nonnull align 4 dereferenceable(16) %426), !dbg !2147
  store ptr %423, ptr %163, align 8
  call void @llvm.dbg.declare(metadata ptr %163, metadata !2148, metadata !DIExpression()), !dbg !2150
  store ptr %425, ptr %164, align 8
  call void @llvm.dbg.declare(metadata ptr %164, metadata !2152, metadata !DIExpression()), !dbg !2153
  store ptr %427, ptr %165, align 8
  call void @llvm.dbg.declare(metadata ptr %165, metadata !2154, metadata !DIExpression()), !dbg !2155
  %428 = load ptr, ptr %163, align 8
  call void @llvm.dbg.declare(metadata ptr %166, metadata !2156, metadata !DIExpression()), !dbg !2158
  store i32 0, ptr %166, align 4, !dbg !2158
  br label %429, !dbg !2159

429:                                              ; preds = %475, %406
  %430 = load i32, ptr %166, align 4, !dbg !2160
  %431 = icmp slt i32 %430, 1, !dbg !2162
  br i1 %431, label %432, label %489, !dbg !2163

432:                                              ; preds = %429
  %433 = load ptr, ptr %164, align 8, !dbg !2164
  %434 = load i32, ptr %166, align 4, !dbg !2165
  %435 = sext i32 %434 to i64, !dbg !2164
  %436 = getelementptr inbounds [1 x %struct.sse_f], ptr %433, i64 0, i64 %435, !dbg !2164
  call void @llvm.memcpy.p0.p0.i64(ptr align 4 %168, ptr align 4 %436, i64 16, i1 false), !dbg !2164
  %437 = load ptr, ptr %165, align 8, !dbg !2166
  %438 = load i32, ptr %166, align 4, !dbg !2167
  %439 = sext i32 %438 to i64, !dbg !2166
  %440 = getelementptr inbounds [1 x %struct.sse_f], ptr %437, i64 0, i64 %439, !dbg !2166
  call void @llvm.memcpy.p0.p0.i64(ptr align 4 %169, ptr align 4 %440, i64 16, i1 false), !dbg !2166
  %441 = load <2 x float>, ptr %168, align 4, !dbg !2168
  %442 = getelementptr inbounds { <2 x float>, <2 x float> }, ptr %168, i32 0, i32 1, !dbg !2168
  %443 = load <2 x float>, ptr %442, align 4, !dbg !2168
  %444 = load <2 x float>, ptr %169, align 4, !dbg !2168
  %445 = getelementptr inbounds { <2 x float>, <2 x float> }, ptr %169, i32 0, i32 1, !dbg !2168
  %446 = load <2 x float>, ptr %445, align 4, !dbg !2168
  store <2 x float> %441, ptr %159, align 4
  %447 = getelementptr inbounds { <2 x float>, <2 x float> }, ptr %159, i32 0, i32 1
  store <2 x float> %443, ptr %447, align 4
  store <2 x float> %444, ptr %160, align 4
  %448 = getelementptr inbounds { <2 x float>, <2 x float> }, ptr %160, i32 0, i32 1
  store <2 x float> %446, ptr %448, align 4
  call void @llvm.dbg.declare(metadata ptr %159, metadata !2169, metadata !DIExpression()), !dbg !2173
  call void @llvm.dbg.declare(metadata ptr %160, metadata !2175, metadata !DIExpression()), !dbg !2176
  call void @llvm.memcpy.p0.p0.i64(ptr align 4 %161, ptr align 4 %159, i64 16, i1 false), !dbg !2177
  call void @llvm.memcpy.p0.p0.i64(ptr align 4 %162, ptr align 4 %160, i64 16, i1 false), !dbg !2178
  %449 = load <2 x float>, ptr %161, align 4, !dbg !2179
  %450 = getelementptr inbounds { <2 x float>, <2 x float> }, ptr %161, i32 0, i32 1, !dbg !2179
  %451 = load <2 x float>, ptr %450, align 4, !dbg !2179
  %452 = load <2 x float>, ptr %162, align 4, !dbg !2179
  %453 = getelementptr inbounds { <2 x float>, <2 x float> }, ptr %162, i32 0, i32 1, !dbg !2179
  %454 = load <2 x float>, ptr %453, align 4, !dbg !2179
  store <2 x float> %449, ptr %150, align 4
  %455 = getelementptr inbounds { <2 x float>, <2 x float> }, ptr %150, i32 0, i32 1
  store <2 x float> %451, ptr %455, align 4
  store <2 x float> %452, ptr %151, align 4
  %456 = getelementptr inbounds { <2 x float>, <2 x float> }, ptr %151, i32 0, i32 1
  store <2 x float> %454, ptr %456, align 4
  call void @llvm.dbg.declare(metadata ptr %150, metadata !2180, metadata !DIExpression()), !dbg !2182
  call void @llvm.dbg.declare(metadata ptr %151, metadata !2184, metadata !DIExpression()), !dbg !2185
  call void @llvm.dbg.declare(metadata ptr %149, metadata !2186, metadata !DIExpression()), !dbg !2187
  call void @_ZN5sse_fC2Ev(ptr noundef nonnull align 4 dereferenceable(16) %149), !dbg !2187
  call void @llvm.dbg.declare(metadata ptr %152, metadata !2188, metadata !DIExpression()), !dbg !2190
  store i32 0, ptr %152, align 4, !dbg !2190
  br label %457, !dbg !2191

457:                                              ; preds = %460, %432
  %458 = load i32, ptr %152, align 4, !dbg !2192
  %459 = icmp slt i32 %458, 4, !dbg !2194
  br i1 %459, label %460, label %475, !dbg !2195

460:                                              ; preds = %457
  %461 = load i32, ptr %152, align 4, !dbg !2196
  %462 = sext i32 %461 to i64, !dbg !2197
  %463 = getelementptr inbounds [4 x float], ptr %150, i64 0, i64 %462, !dbg !2197
  %464 = load float, ptr %463, align 4, !dbg !2197
  %465 = load i32, ptr %152, align 4, !dbg !2198
  %466 = sext i32 %465 to i64, !dbg !2199
  %467 = getelementptr inbounds [4 x float], ptr %151, i64 0, i64 %466, !dbg !2199
  %468 = load float, ptr %467, align 4, !dbg !2199
  %469 = fsub float %464, %468, !dbg !2200
  %470 = load i32, ptr %152, align 4, !dbg !2201
  %471 = sext i32 %470 to i64, !dbg !2202
  %472 = getelementptr inbounds [4 x float], ptr %149, i64 0, i64 %471, !dbg !2202
  store float %469, ptr %472, align 4, !dbg !2203
  %473 = load i32, ptr %152, align 4, !dbg !2204
  %474 = add nsw i32 %473, 1, !dbg !2204
  store i32 %474, ptr %152, align 4, !dbg !2204
  br label %457, !dbg !2205, !llvm.loop !2206

475:                                              ; preds = %457
  %476 = load { <2 x float>, <2 x float> }, ptr %149, align 4, !dbg !2208
  %477 = extractvalue { <2 x float>, <2 x float> } %476, 0, !dbg !2179
  store <2 x float> %477, ptr %158, align 4, !dbg !2179
  %478 = getelementptr inbounds { <2 x float>, <2 x float> }, ptr %158, i32 0, i32 1, !dbg !2179
  %479 = extractvalue { <2 x float>, <2 x float> } %476, 1, !dbg !2179
  store <2 x float> %479, ptr %478, align 4, !dbg !2179
  %480 = load { <2 x float>, <2 x float> }, ptr %158, align 4, !dbg !2209
  %481 = extractvalue { <2 x float>, <2 x float> } %480, 0, !dbg !2168
  store <2 x float> %481, ptr %167, align 4, !dbg !2168
  %482 = getelementptr inbounds { <2 x float>, <2 x float> }, ptr %167, i32 0, i32 1, !dbg !2168
  %483 = extractvalue { <2 x float>, <2 x float> } %480, 1, !dbg !2168
  store <2 x float> %483, ptr %482, align 4, !dbg !2168
  %484 = load i32, ptr %166, align 4, !dbg !2210
  %485 = sext i32 %484 to i64, !dbg !2211
  %486 = getelementptr inbounds [1 x %struct.sse_f], ptr %428, i64 0, i64 %485, !dbg !2211
  call void @llvm.memcpy.p0.p0.i64(ptr align 4 %486, ptr align 4 %167, i64 16, i1 false), !dbg !2212
  %487 = load i32, ptr %166, align 4, !dbg !2213
  %488 = add nsw i32 %487, 1, !dbg !2213
  store i32 %488, ptr %166, align 4, !dbg !2213
  br label %429, !dbg !2214, !llvm.loop !2215

489:                                              ; preds = %429
  %490 = load { <2 x float>, <2 x float> }, ptr %170, align 4, !dbg !2217
  %491 = extractvalue { <2 x float>, <2 x float> } %490, 0, !dbg !2218
  store <2 x float> %491, ptr %173, align 4, !dbg !2218
  %492 = getelementptr inbounds { <2 x float>, <2 x float> }, ptr %173, i32 0, i32 1, !dbg !2218
  %493 = extractvalue { <2 x float>, <2 x float> } %490, 1, !dbg !2218
  store <2 x float> %493, ptr %492, align 4, !dbg !2218
  %494 = load { <2 x float>, <2 x float> }, ptr %173, align 4, !dbg !2219
  %495 = extractvalue { <2 x float>, <2 x float> } %494, 0, !dbg !2220
  store <2 x float> %495, ptr %262, align 4, !dbg !2220
  %496 = getelementptr inbounds { <2 x float>, <2 x float> }, ptr %262, i32 0, i32 1, !dbg !2220
  %497 = extractvalue { <2 x float>, <2 x float> } %494, 1, !dbg !2220
  store <2 x float> %497, ptr %496, align 4, !dbg !2220
  %498 = call noundef ptr @_ZN4RTTL7RTVec_tILi1E5sse_fLi0EEcvPS1_Ev(ptr noundef nonnull align 4 dereferenceable(16) %262), !dbg !2221
  call void @llvm.memcpy.p0.p0.i64(ptr align 4 %260, ptr align 4 %498, i64 16, i1 false), !dbg !2222
  %499 = load { <2 x float>, <2 x float> }, ptr %260, align 4, !dbg !2223
  %500 = getelementptr inbounds %struct.sse_f, ptr %278, i32 0, i32 0, !dbg !2224
  %501 = getelementptr inbounds { <2 x float>, <2 x float> }, ptr %500, i32 0, i32 0, !dbg !2224
  %502 = extractvalue { <2 x float>, <2 x float> } %499, 0, !dbg !2224
  store <2 x float> %502, ptr %501, align 4, !dbg !2224
  %503 = getelementptr inbounds { <2 x float>, <2 x float> }, ptr %500, i32 0, i32 1, !dbg !2224
  %504 = extractvalue { <2 x float>, <2 x float> } %499, 1, !dbg !2224
  store <2 x float> %504, ptr %503, align 4, !dbg !2224
  call void @llvm.dbg.declare(metadata ptr %279, metadata !2225, metadata !DIExpression()), !dbg !2226
  call void @llvm.memcpy.p0.p0.i64(ptr align 4 %280, ptr align 4 %278, i64 16, i1 false), !dbg !2227
  %505 = getelementptr inbounds { <2 x float>, <2 x float> }, ptr %280, i32 0, i32 0, !dbg !2228
  %506 = load <2 x float>, ptr %505, align 4, !dbg !2228
  %507 = getelementptr inbounds { <2 x float>, <2 x float> }, ptr %280, i32 0, i32 1, !dbg !2228
  %508 = load <2 x float>, ptr %507, align 4, !dbg !2228
  store <2 x float> %506, ptr %245, align 4
  %509 = getelementptr inbounds { <2 x float>, <2 x float> }, ptr %245, i32 0, i32 1
  store <2 x float> %508, ptr %509, align 4
  store ptr %286, ptr %246, align 8
  call void @llvm.dbg.declare(metadata ptr %246, metadata !2229, metadata !DIExpression()), !dbg !2231
  call void @llvm.dbg.declare(metadata ptr %245, metadata !2233, metadata !DIExpression()), !dbg !2234
  store i32 32, ptr %247, align 4
  call void @llvm.dbg.declare(metadata ptr %247, metadata !2235, metadata !DIExpression()), !dbg !2236
  %510 = load ptr, ptr %246, align 8
  call void @llvm.memcpy.p0.p0.i64(ptr align 4 %250, ptr align 4 %245, i64 16, i1 false), !dbg !2237
  call void @llvm.dbg.declare(metadata ptr %197, metadata !2238, metadata !DIExpression()), !dbg !2242
  call void @_ZN5sse_fC2Ev(ptr noundef nonnull align 4 dereferenceable(16) %197), !dbg !2242
  call void @llvm.dbg.declare(metadata ptr %198, metadata !2244, metadata !DIExpression()), !dbg !2246
  store i32 0, ptr %198, align 4, !dbg !2246
  br label %511, !dbg !2247

511:                                              ; preds = %514, %489
  %512 = load i32, ptr %198, align 4, !dbg !2248
  %513 = icmp slt i32 %512, 4, !dbg !2250
  br i1 %513, label %514, label %520, !dbg !2251

514:                                              ; preds = %511
  %515 = load i32, ptr %198, align 4, !dbg !2252
  %516 = sext i32 %515 to i64, !dbg !2253
  %517 = getelementptr inbounds [4 x float], ptr %197, i64 0, i64 %516, !dbg !2253
  store float 0.000000e+00, ptr %517, align 4, !dbg !2254
  %518 = load i32, ptr %198, align 4, !dbg !2255
  %519 = add nsw i32 %518, 1, !dbg !2255
  store i32 %519, ptr %198, align 4, !dbg !2255
  br label %511, !dbg !2256, !llvm.loop !2257

520:                                              ; preds = %511
  %521 = load { <2 x float>, <2 x float> }, ptr %197, align 4, !dbg !2259
  %522 = extractvalue { <2 x float>, <2 x float> } %521, 0, !dbg !2237
  store <2 x float> %522, ptr %251, align 4, !dbg !2237
  %523 = getelementptr inbounds { <2 x float>, <2 x float> }, ptr %251, i32 0, i32 1, !dbg !2237
  %524 = extractvalue { <2 x float>, <2 x float> } %521, 1, !dbg !2237
  store <2 x float> %524, ptr %523, align 4, !dbg !2237
  %525 = load <2 x float>, ptr %250, align 4, !dbg !2237
  %526 = getelementptr inbounds { <2 x float>, <2 x float> }, ptr %250, i32 0, i32 1, !dbg !2237
  %527 = load <2 x float>, ptr %526, align 4, !dbg !2237
  %528 = load <2 x float>, ptr %251, align 4, !dbg !2237
  %529 = getelementptr inbounds { <2 x float>, <2 x float> }, ptr %251, i32 0, i32 1, !dbg !2237
  %530 = load <2 x float>, ptr %529, align 4, !dbg !2237
  store <2 x float> %525, ptr %204, align 4
  %531 = getelementptr inbounds { <2 x float>, <2 x float> }, ptr %204, i32 0, i32 1
  store <2 x float> %527, ptr %531, align 4
  store <2 x float> %528, ptr %205, align 4
  %532 = getelementptr inbounds { <2 x float>, <2 x float> }, ptr %205, i32 0, i32 1
  store <2 x float> %530, ptr %532, align 4
  call void @llvm.dbg.declare(metadata ptr %204, metadata !2260, metadata !DIExpression()), !dbg !2262
  call void @llvm.dbg.declare(metadata ptr %205, metadata !2264, metadata !DIExpression()), !dbg !2265
  call void @llvm.dbg.declare(metadata ptr %203, metadata !2266, metadata !DIExpression()), !dbg !2267
  call void @_ZN5sse_fC2Ev(ptr noundef nonnull align 4 dereferenceable(16) %203), !dbg !2267
  call void @llvm.dbg.declare(metadata ptr %206, metadata !2268, metadata !DIExpression()), !dbg !2270
  store i32 0, ptr %206, align 4, !dbg !2270
  br label %533, !dbg !2271

533:                                              ; preds = %536, %520
  %534 = load i32, ptr %206, align 4, !dbg !2272
  %535 = icmp slt i32 %534, 4, !dbg !2274
  br i1 %535, label %536, label %554, !dbg !2275

536:                                              ; preds = %533
  %537 = load i32, ptr %206, align 4, !dbg !2276
  %538 = sext i32 %537 to i64, !dbg !2276
  %539 = getelementptr inbounds [4 x float], ptr %204, i64 0, i64 %538, !dbg !2276
  %540 = load float, ptr %539, align 4, !dbg !2276
  %541 = load i32, ptr %206, align 4, !dbg !2277
  %542 = sext i32 %541 to i64, !dbg !2277
  %543 = getelementptr inbounds [4 x float], ptr %205, i64 0, i64 %542, !dbg !2277
  %544 = load float, ptr %543, align 4, !dbg !2277
  %545 = fcmp oeq float %540, %544, !dbg !2278
  %546 = xor i1 %545, true, !dbg !2279
  %547 = zext i1 %546 to i64, !dbg !2280
  %548 = select i1 %546, i32 -1, i32 0, !dbg !2280
  %549 = load i32, ptr %206, align 4, !dbg !2281
  %550 = sext i32 %549 to i64, !dbg !2281
  %551 = getelementptr inbounds [4 x float], ptr %203, i64 0, i64 %550, !dbg !2281
  store i32 %548, ptr %551, align 4, !dbg !2282
  %552 = load i32, ptr %206, align 4, !dbg !2283
  %553 = add nsw i32 %552, 1, !dbg !2283
  store i32 %553, ptr %206, align 4, !dbg !2283
  br label %533, !dbg !2284, !llvm.loop !2285

554:                                              ; preds = %533
  %555 = load { <2 x float>, <2 x float> }, ptr %203, align 4, !dbg !2287
  %556 = extractvalue { <2 x float>, <2 x float> } %555, 0, !dbg !2237
  store <2 x float> %556, ptr %249, align 4, !dbg !2237
  %557 = getelementptr inbounds { <2 x float>, <2 x float> }, ptr %249, i32 0, i32 1, !dbg !2237
  %558 = extractvalue { <2 x float>, <2 x float> } %555, 1, !dbg !2237
  store <2 x float> %558, ptr %557, align 4, !dbg !2237
  %559 = load i32, ptr %247, align 4, !dbg !2237
  %560 = sitofp i32 %559 to float, !dbg !2237
  %561 = fmul float %560, 0x3FEFF7CEE0000000, !dbg !2237
  store float %561, ptr %242, align 4
  call void @llvm.dbg.declare(metadata ptr %242, metadata !1885, metadata !DIExpression()), !dbg !2288
  call void @llvm.dbg.declare(metadata ptr %241, metadata !1892, metadata !DIExpression()), !dbg !2290
  call void @_ZN5sse_fC2Ev(ptr noundef nonnull align 4 dereferenceable(16) %241), !dbg !2290
  call void @llvm.dbg.declare(metadata ptr %243, metadata !1894, metadata !DIExpression()), !dbg !2291
  store i32 0, ptr %243, align 4, !dbg !2291
  br label %562, !dbg !2292

562:                                              ; preds = %565, %554
  %563 = load i32, ptr %243, align 4, !dbg !2293
  %564 = icmp slt i32 %563, 4, !dbg !2294
  br i1 %564, label %565, label %572, !dbg !2295

565:                                              ; preds = %562
  %566 = load float, ptr %242, align 4, !dbg !2296
  %567 = load i32, ptr %243, align 4, !dbg !2297
  %568 = sext i32 %567 to i64, !dbg !2298
  %569 = getelementptr inbounds [4 x float], ptr %241, i64 0, i64 %568, !dbg !2298
  store float %566, ptr %569, align 4, !dbg !2299
  %570 = load i32, ptr %243, align 4, !dbg !2300
  %571 = add nsw i32 %570, 1, !dbg !2300
  store i32 %571, ptr %243, align 4, !dbg !2300
  br label %562, !dbg !2301, !llvm.loop !2302

572:                                              ; preds = %562
  %573 = load { <2 x float>, <2 x float> }, ptr %241, align 4, !dbg !2304
  %574 = extractvalue { <2 x float>, <2 x float> } %573, 0, !dbg !2237
  store <2 x float> %574, ptr %253, align 4, !dbg !2237
  %575 = getelementptr inbounds { <2 x float>, <2 x float> }, ptr %253, i32 0, i32 1, !dbg !2237
  %576 = extractvalue { <2 x float>, <2 x float> } %573, 1, !dbg !2237
  store <2 x float> %576, ptr %575, align 4, !dbg !2237
  call void @llvm.memcpy.p0.p0.i64(ptr align 4 %254, ptr align 4 %245, i64 16, i1 false), !dbg !2237
  %577 = load <2 x float>, ptr %253, align 4, !dbg !2237
  %578 = getelementptr inbounds { <2 x float>, <2 x float> }, ptr %253, i32 0, i32 1, !dbg !2237
  %579 = load <2 x float>, ptr %578, align 4, !dbg !2237
  %580 = load <2 x float>, ptr %254, align 4, !dbg !2237
  %581 = getelementptr inbounds { <2 x float>, <2 x float> }, ptr %254, i32 0, i32 1, !dbg !2237
  %582 = load <2 x float>, ptr %581, align 4, !dbg !2237
  store <2 x float> %577, ptr %194, align 4
  %583 = getelementptr inbounds { <2 x float>, <2 x float> }, ptr %194, i32 0, i32 1
  store <2 x float> %579, ptr %583, align 4
  store <2 x float> %580, ptr %195, align 4
  %584 = getelementptr inbounds { <2 x float>, <2 x float> }, ptr %195, i32 0, i32 1
  store <2 x float> %582, ptr %584, align 4
  call void @llvm.dbg.declare(metadata ptr %194, metadata !2305, metadata !DIExpression()), !dbg !2307
  call void @llvm.dbg.declare(metadata ptr %195, metadata !2309, metadata !DIExpression()), !dbg !2310
  call void @llvm.dbg.declare(metadata ptr %193, metadata !2311, metadata !DIExpression()), !dbg !2312
  call void @_ZN5sse_fC2Ev(ptr noundef nonnull align 4 dereferenceable(16) %193), !dbg !2312
  call void @llvm.dbg.declare(metadata ptr %196, metadata !2313, metadata !DIExpression()), !dbg !2315
  store i32 0, ptr %196, align 4, !dbg !2315
  br label %585, !dbg !2316

585:                                              ; preds = %588, %572
  %586 = load i32, ptr %196, align 4, !dbg !2317
  %587 = icmp slt i32 %586, 4, !dbg !2319
  br i1 %587, label %588, label %603, !dbg !2320

588:                                              ; preds = %585
  %589 = load i32, ptr %196, align 4, !dbg !2321
  %590 = sext i32 %589 to i64, !dbg !2321
  %591 = getelementptr inbounds [4 x float], ptr %194, i64 0, i64 %590, !dbg !2321
  %592 = load float, ptr %591, align 4, !dbg !2321
  %593 = load i32, ptr %196, align 4, !dbg !2322
  %594 = sext i32 %593 to i64, !dbg !2322
  %595 = getelementptr inbounds [4 x float], ptr %195, i64 0, i64 %594, !dbg !2322
  %596 = load float, ptr %595, align 4, !dbg !2322
  %597 = fdiv float %592, %596, !dbg !2323
  %598 = load i32, ptr %196, align 4, !dbg !2324
  %599 = sext i32 %598 to i64, !dbg !2324
  %600 = getelementptr inbounds [4 x float], ptr %193, i64 0, i64 %599, !dbg !2324
  store float %597, ptr %600, align 4, !dbg !2325
  %601 = load i32, ptr %196, align 4, !dbg !2326
  %602 = add nsw i32 %601, 1, !dbg !2326
  store i32 %602, ptr %196, align 4, !dbg !2326
  br label %585, !dbg !2327, !llvm.loop !2328

603:                                              ; preds = %585
  %604 = load { <2 x float>, <2 x float> }, ptr %193, align 4, !dbg !2330
  %605 = extractvalue { <2 x float>, <2 x float> } %604, 0, !dbg !2237
  store <2 x float> %605, ptr %252, align 4, !dbg !2237
  %606 = getelementptr inbounds { <2 x float>, <2 x float> }, ptr %252, i32 0, i32 1, !dbg !2237
  %607 = extractvalue { <2 x float>, <2 x float> } %604, 1, !dbg !2237
  store <2 x float> %607, ptr %606, align 4, !dbg !2237
  %608 = load <2 x float>, ptr %249, align 4, !dbg !2237
  %609 = getelementptr inbounds { <2 x float>, <2 x float> }, ptr %249, i32 0, i32 1, !dbg !2237
  %610 = load <2 x float>, ptr %609, align 4, !dbg !2237
  %611 = load <2 x float>, ptr %252, align 4, !dbg !2237
  %612 = getelementptr inbounds { <2 x float>, <2 x float> }, ptr %252, i32 0, i32 1, !dbg !2237
  %613 = load <2 x float>, ptr %612, align 4, !dbg !2237
  store <2 x float> %608, ptr %212, align 4
  %614 = getelementptr inbounds { <2 x float>, <2 x float> }, ptr %212, i32 0, i32 1
  store <2 x float> %610, ptr %614, align 4
  store <2 x float> %611, ptr %213, align 4
  %615 = getelementptr inbounds { <2 x float>, <2 x float> }, ptr %213, i32 0, i32 1
  store <2 x float> %613, ptr %615, align 4
  call void @llvm.dbg.declare(metadata ptr %212, metadata !2331, metadata !DIExpression()), !dbg !2333
  call void @llvm.dbg.declare(metadata ptr %213, metadata !2335, metadata !DIExpression()), !dbg !2336
  call void @llvm.dbg.declare(metadata ptr %211, metadata !2337, metadata !DIExpression()), !dbg !2338
  call void @_ZN5sse_fC2Ev(ptr noundef nonnull align 4 dereferenceable(16) %211), !dbg !2338
  call void @llvm.dbg.declare(metadata ptr %214, metadata !2339, metadata !DIExpression()), !dbg !2341
  store i32 0, ptr %214, align 4, !dbg !2341
  br label %616, !dbg !2342

616:                                              ; preds = %619, %603
  %617 = load i32, ptr %214, align 4, !dbg !2343
  %618 = icmp slt i32 %617, 4, !dbg !2345
  br i1 %618, label %619, label %634, !dbg !2346

619:                                              ; preds = %616
  %620 = load i32, ptr %214, align 4, !dbg !2347
  %621 = sext i32 %620 to i64, !dbg !2347
  %622 = getelementptr inbounds [4 x float], ptr %212, i64 0, i64 %621, !dbg !2347
  %623 = load i32, ptr %622, align 4, !dbg !2347
  %624 = load i32, ptr %214, align 4, !dbg !2348
  %625 = sext i32 %624 to i64, !dbg !2348
  %626 = getelementptr inbounds [4 x float], ptr %213, i64 0, i64 %625, !dbg !2348
  %627 = load i32, ptr %626, align 4, !dbg !2348
  %628 = and i32 %623, %627, !dbg !2349
  %629 = load i32, ptr %214, align 4, !dbg !2350
  %630 = sext i32 %629 to i64, !dbg !2350
  %631 = getelementptr inbounds [4 x float], ptr %211, i64 0, i64 %630, !dbg !2350
  store i32 %628, ptr %631, align 4, !dbg !2351
  %632 = load i32, ptr %214, align 4, !dbg !2352
  %633 = add nsw i32 %632, 1, !dbg !2352
  store i32 %633, ptr %214, align 4, !dbg !2352
  br label %616, !dbg !2353, !llvm.loop !2354

634:                                              ; preds = %616
  %635 = load { <2 x float>, <2 x float> }, ptr %211, align 4, !dbg !2356
  %636 = extractvalue { <2 x float>, <2 x float> } %635, 0, !dbg !2237
  store <2 x float> %636, ptr %248, align 4, !dbg !2237
  %637 = getelementptr inbounds { <2 x float>, <2 x float> }, ptr %248, i32 0, i32 1, !dbg !2237
  %638 = extractvalue { <2 x float>, <2 x float> } %635, 1, !dbg !2237
  store <2 x float> %638, ptr %637, align 4, !dbg !2237
  call void @llvm.memcpy.p0.p0.i64(ptr align 4 %257, ptr align 4 %245, i64 16, i1 false), !dbg !2237
  call void @llvm.dbg.declare(metadata ptr %199, metadata !2238, metadata !DIExpression()), !dbg !2357
  call void @_ZN5sse_fC2Ev(ptr noundef nonnull align 4 dereferenceable(16) %199), !dbg !2357
  call void @llvm.dbg.declare(metadata ptr %200, metadata !2244, metadata !DIExpression()), !dbg !2359
  store i32 0, ptr %200, align 4, !dbg !2359
  br label %639, !dbg !2360

639:                                              ; preds = %642, %634
  %640 = load i32, ptr %200, align 4, !dbg !2361
  %641 = icmp slt i32 %640, 4, !dbg !2362
  br i1 %641, label %642, label %648, !dbg !2363

642:                                              ; preds = %639
  %643 = load i32, ptr %200, align 4, !dbg !2364
  %644 = sext i32 %643 to i64, !dbg !2365
  %645 = getelementptr inbounds [4 x float], ptr %199, i64 0, i64 %644, !dbg !2365
  store float 0.000000e+00, ptr %645, align 4, !dbg !2366
  %646 = load i32, ptr %200, align 4, !dbg !2367
  %647 = add nsw i32 %646, 1, !dbg !2367
  store i32 %647, ptr %200, align 4, !dbg !2367
  br label %639, !dbg !2368, !llvm.loop !2369

648:                                              ; preds = %639
  %649 = load { <2 x float>, <2 x float> }, ptr %199, align 4, !dbg !2371
  %650 = extractvalue { <2 x float>, <2 x float> } %649, 0, !dbg !2237
  store <2 x float> %650, ptr %258, align 4, !dbg !2237
  %651 = getelementptr inbounds { <2 x float>, <2 x float> }, ptr %258, i32 0, i32 1, !dbg !2237
  %652 = extractvalue { <2 x float>, <2 x float> } %649, 1, !dbg !2237
  store <2 x float> %652, ptr %651, align 4, !dbg !2237
  %653 = load <2 x float>, ptr %257, align 4, !dbg !2237
  %654 = getelementptr inbounds { <2 x float>, <2 x float> }, ptr %257, i32 0, i32 1, !dbg !2237
  %655 = load <2 x float>, ptr %654, align 4, !dbg !2237
  %656 = load <2 x float>, ptr %258, align 4, !dbg !2237
  %657 = getelementptr inbounds { <2 x float>, <2 x float> }, ptr %258, i32 0, i32 1, !dbg !2237
  %658 = load <2 x float>, ptr %657, align 4, !dbg !2237
  store <2 x float> %653, ptr %208, align 4
  %659 = getelementptr inbounds { <2 x float>, <2 x float> }, ptr %208, i32 0, i32 1
  store <2 x float> %655, ptr %659, align 4
  store <2 x float> %656, ptr %209, align 4
  %660 = getelementptr inbounds { <2 x float>, <2 x float> }, ptr %209, i32 0, i32 1
  store <2 x float> %658, ptr %660, align 4
  call void @llvm.dbg.declare(metadata ptr %208, metadata !2260, metadata !DIExpression()), !dbg !2372
  call void @llvm.dbg.declare(metadata ptr %209, metadata !2264, metadata !DIExpression()), !dbg !2374
  call void @llvm.dbg.declare(metadata ptr %207, metadata !2266, metadata !DIExpression()), !dbg !2375
  call void @_ZN5sse_fC2Ev(ptr noundef nonnull align 4 dereferenceable(16) %207), !dbg !2375
  call void @llvm.dbg.declare(metadata ptr %210, metadata !2268, metadata !DIExpression()), !dbg !2376
  store i32 0, ptr %210, align 4, !dbg !2376
  br label %661, !dbg !2377

661:                                              ; preds = %664, %648
  %662 = load i32, ptr %210, align 4, !dbg !2378
  %663 = icmp slt i32 %662, 4, !dbg !2379
  br i1 %663, label %664, label %682, !dbg !2380

664:                                              ; preds = %661
  %665 = load i32, ptr %210, align 4, !dbg !2381
  %666 = sext i32 %665 to i64, !dbg !2381
  %667 = getelementptr inbounds [4 x float], ptr %208, i64 0, i64 %666, !dbg !2381
  %668 = load float, ptr %667, align 4, !dbg !2381
  %669 = load i32, ptr %210, align 4, !dbg !2382
  %670 = sext i32 %669 to i64, !dbg !2382
  %671 = getelementptr inbounds [4 x float], ptr %209, i64 0, i64 %670, !dbg !2382
  %672 = load float, ptr %671, align 4, !dbg !2382
  %673 = fcmp oeq float %668, %672, !dbg !2383
  %674 = xor i1 %673, true, !dbg !2384
  %675 = zext i1 %674 to i64, !dbg !2385
  %676 = select i1 %674, i32 -1, i32 0, !dbg !2385
  %677 = load i32, ptr %210, align 4, !dbg !2386
  %678 = sext i32 %677 to i64, !dbg !2386
  %679 = getelementptr inbounds [4 x float], ptr %207, i64 0, i64 %678, !dbg !2386
  store i32 %676, ptr %679, align 4, !dbg !2387
  %680 = load i32, ptr %210, align 4, !dbg !2388
  %681 = add nsw i32 %680, 1, !dbg !2388
  store i32 %681, ptr %210, align 4, !dbg !2388
  br label %661, !dbg !2389, !llvm.loop !2390

682:                                              ; preds = %661
  %683 = load { <2 x float>, <2 x float> }, ptr %207, align 4, !dbg !2392
  %684 = extractvalue { <2 x float>, <2 x float> } %683, 0, !dbg !2237
  store <2 x float> %684, ptr %256, align 4, !dbg !2237
  %685 = getelementptr inbounds { <2 x float>, <2 x float> }, ptr %256, i32 0, i32 1, !dbg !2237
  %686 = extractvalue { <2 x float>, <2 x float> } %683, 1, !dbg !2237
  store <2 x float> %686, ptr %685, align 4, !dbg !2237
  call void @llvm.dbg.declare(metadata ptr %201, metadata !2238, metadata !DIExpression()), !dbg !2393
  call void @_ZN5sse_fC2Ev(ptr noundef nonnull align 4 dereferenceable(16) %201), !dbg !2393
  call void @llvm.dbg.declare(metadata ptr %202, metadata !2244, metadata !DIExpression()), !dbg !2395
  store i32 0, ptr %202, align 4, !dbg !2395
  br label %687, !dbg !2396

687:                                              ; preds = %690, %682
  %688 = load i32, ptr %202, align 4, !dbg !2397
  %689 = icmp slt i32 %688, 4, !dbg !2398
  br i1 %689, label %690, label %696, !dbg !2399

690:                                              ; preds = %687
  %691 = load i32, ptr %202, align 4, !dbg !2400
  %692 = sext i32 %691 to i64, !dbg !2401
  %693 = getelementptr inbounds [4 x float], ptr %201, i64 0, i64 %692, !dbg !2401
  store float 0.000000e+00, ptr %693, align 4, !dbg !2402
  %694 = load i32, ptr %202, align 4, !dbg !2403
  %695 = add nsw i32 %694, 1, !dbg !2403
  store i32 %695, ptr %202, align 4, !dbg !2403
  br label %687, !dbg !2404, !llvm.loop !2405

696:                                              ; preds = %687
  %697 = load { <2 x float>, <2 x float> }, ptr %201, align 4, !dbg !2407
  %698 = extractvalue { <2 x float>, <2 x float> } %697, 0, !dbg !2237
  store <2 x float> %698, ptr %259, align 4, !dbg !2237
  %699 = getelementptr inbounds { <2 x float>, <2 x float> }, ptr %259, i32 0, i32 1, !dbg !2237
  %700 = extractvalue { <2 x float>, <2 x float> } %697, 1, !dbg !2237
  store <2 x float> %700, ptr %699, align 4, !dbg !2237
  %701 = load <2 x float>, ptr %256, align 4, !dbg !2237
  %702 = getelementptr inbounds { <2 x float>, <2 x float> }, ptr %256, i32 0, i32 1, !dbg !2237
  %703 = load <2 x float>, ptr %702, align 4, !dbg !2237
  %704 = load <2 x float>, ptr %259, align 4, !dbg !2237
  %705 = getelementptr inbounds { <2 x float>, <2 x float> }, ptr %259, i32 0, i32 1, !dbg !2237
  %706 = load <2 x float>, ptr %705, align 4, !dbg !2237
  store <2 x float> %701, ptr %190, align 4
  %707 = getelementptr inbounds { <2 x float>, <2 x float> }, ptr %190, i32 0, i32 1
  store <2 x float> %703, ptr %707, align 4
  store <2 x float> %704, ptr %191, align 4
  %708 = getelementptr inbounds { <2 x float>, <2 x float> }, ptr %191, i32 0, i32 1
  store <2 x float> %706, ptr %708, align 4
  call void @llvm.dbg.declare(metadata ptr %190, metadata !2408, metadata !DIExpression()), !dbg !2410
  call void @llvm.dbg.declare(metadata ptr %191, metadata !2412, metadata !DIExpression()), !dbg !2413
  call void @llvm.dbg.declare(metadata ptr %189, metadata !2414, metadata !DIExpression()), !dbg !2415
  call void @_ZN5sse_fC2Ev(ptr noundef nonnull align 4 dereferenceable(16) %189), !dbg !2415
  call void @llvm.dbg.declare(metadata ptr %192, metadata !2416, metadata !DIExpression()), !dbg !2418
  store i32 0, ptr %192, align 4, !dbg !2418
  br label %709, !dbg !2419

709:                                              ; preds = %712, %696
  %710 = load i32, ptr %192, align 4, !dbg !2420
  %711 = icmp slt i32 %710, 4, !dbg !2422
  br i1 %711, label %712, label %728, !dbg !2423

712:                                              ; preds = %709
  %713 = load i32, ptr %192, align 4, !dbg !2424
  %714 = sext i32 %713 to i64, !dbg !2424
  %715 = getelementptr inbounds [4 x float], ptr %190, i64 0, i64 %714, !dbg !2424
  %716 = load i32, ptr %715, align 4, !dbg !2424
  %717 = xor i32 %716, -1, !dbg !2425
  %718 = load i32, ptr %192, align 4, !dbg !2426
  %719 = sext i32 %718 to i64, !dbg !2426
  %720 = getelementptr inbounds [4 x float], ptr %191, i64 0, i64 %719, !dbg !2426
  %721 = load i32, ptr %720, align 4, !dbg !2426
  %722 = and i32 %717, %721, !dbg !2427
  %723 = load i32, ptr %192, align 4, !dbg !2428
  %724 = sext i32 %723 to i64, !dbg !2428
  %725 = getelementptr inbounds [4 x float], ptr %189, i64 0, i64 %724, !dbg !2428
  store i32 %722, ptr %725, align 4, !dbg !2429
  %726 = load i32, ptr %192, align 4, !dbg !2430
  %727 = add nsw i32 %726, 1, !dbg !2430
  store i32 %727, ptr %192, align 4, !dbg !2430
  br label %709, !dbg !2431, !llvm.loop !2432

728:                                              ; preds = %709
  %729 = load { <2 x float>, <2 x float> }, ptr %189, align 4, !dbg !2434
  %730 = extractvalue { <2 x float>, <2 x float> } %729, 0, !dbg !2237
  store <2 x float> %730, ptr %255, align 4, !dbg !2237
  %731 = getelementptr inbounds { <2 x float>, <2 x float> }, ptr %255, i32 0, i32 1, !dbg !2237
  %732 = extractvalue { <2 x float>, <2 x float> } %729, 1, !dbg !2237
  store <2 x float> %732, ptr %731, align 4, !dbg !2237
  %733 = load <2 x float>, ptr %248, align 4, !dbg !2237
  %734 = getelementptr inbounds { <2 x float>, <2 x float> }, ptr %248, i32 0, i32 1, !dbg !2237
  %735 = load <2 x float>, ptr %734, align 4, !dbg !2237
  %736 = load <2 x float>, ptr %255, align 4, !dbg !2237
  %737 = getelementptr inbounds { <2 x float>, <2 x float> }, ptr %255, i32 0, i32 1, !dbg !2237
  %738 = load <2 x float>, ptr %737, align 4, !dbg !2237
  store <2 x float> %733, ptr %216, align 4
  %739 = getelementptr inbounds { <2 x float>, <2 x float> }, ptr %216, i32 0, i32 1
  store <2 x float> %735, ptr %739, align 4
  store <2 x float> %736, ptr %217, align 4
  %740 = getelementptr inbounds { <2 x float>, <2 x float> }, ptr %217, i32 0, i32 1
  store <2 x float> %738, ptr %740, align 4
  call void @llvm.dbg.declare(metadata ptr %216, metadata !2435, metadata !DIExpression()), !dbg !2437
  call void @llvm.dbg.declare(metadata ptr %217, metadata !2439, metadata !DIExpression()), !dbg !2440
  call void @llvm.dbg.declare(metadata ptr %215, metadata !2441, metadata !DIExpression()), !dbg !2442
  call void @_ZN5sse_fC2Ev(ptr noundef nonnull align 4 dereferenceable(16) %215), !dbg !2442
  call void @llvm.dbg.declare(metadata ptr %218, metadata !2443, metadata !DIExpression()), !dbg !2445
  store i32 0, ptr %218, align 4, !dbg !2445
  br label %741, !dbg !2446

741:                                              ; preds = %744, %728
  %742 = load i32, ptr %218, align 4, !dbg !2447
  %743 = icmp slt i32 %742, 4, !dbg !2449
  br i1 %743, label %744, label %759, !dbg !2450

744:                                              ; preds = %741
  %745 = load i32, ptr %218, align 4, !dbg !2451
  %746 = sext i32 %745 to i64, !dbg !2451
  %747 = getelementptr inbounds [4 x float], ptr %216, i64 0, i64 %746, !dbg !2451
  %748 = load i32, ptr %747, align 4, !dbg !2451
  %749 = load i32, ptr %218, align 4, !dbg !2452
  %750 = sext i32 %749 to i64, !dbg !2452
  %751 = getelementptr inbounds [4 x float], ptr %217, i64 0, i64 %750, !dbg !2452
  %752 = load i32, ptr %751, align 4, !dbg !2452
  %753 = or i32 %748, %752, !dbg !2453
  %754 = load i32, ptr %218, align 4, !dbg !2454
  %755 = sext i32 %754 to i64, !dbg !2454
  %756 = getelementptr inbounds [4 x float], ptr %215, i64 0, i64 %755, !dbg !2454
  store i32 %753, ptr %756, align 4, !dbg !2455
  %757 = load i32, ptr %218, align 4, !dbg !2456
  %758 = add nsw i32 %757, 1, !dbg !2456
  store i32 %758, ptr %218, align 4, !dbg !2456
  br label %741, !dbg !2457, !llvm.loop !2458

759:                                              ; preds = %741
  %760 = load { <2 x float>, <2 x float> }, ptr %215, align 4, !dbg !2460
  %761 = extractvalue { <2 x float>, <2 x float> } %760, 0, !dbg !2237
  store <2 x float> %761, ptr %244, align 4, !dbg !2237
  %762 = getelementptr inbounds { <2 x float>, <2 x float> }, ptr %244, i32 0, i32 1, !dbg !2237
  %763 = extractvalue { <2 x float>, <2 x float> } %760, 1, !dbg !2237
  store <2 x float> %763, ptr %762, align 4, !dbg !2237
  %764 = load { <2 x float>, <2 x float> }, ptr %244, align 4, !dbg !2461
  %765 = getelementptr inbounds %struct.sse_f, ptr %279, i32 0, i32 0, !dbg !2228
  %766 = getelementptr inbounds { <2 x float>, <2 x float> }, ptr %765, i32 0, i32 0, !dbg !2228
  %767 = extractvalue { <2 x float>, <2 x float> } %764, 0, !dbg !2228
  store <2 x float> %767, ptr %766, align 4, !dbg !2228
  %768 = getelementptr inbounds { <2 x float>, <2 x float> }, ptr %765, i32 0, i32 1, !dbg !2228
  %769 = extractvalue { <2 x float>, <2 x float> } %764, 1, !dbg !2228
  store <2 x float> %769, ptr %768, align 4, !dbg !2228
  call void @llvm.dbg.declare(metadata ptr %281, metadata !2462, metadata !DIExpression()), !dbg !2464
  store i32 0, ptr %281, align 4, !dbg !2464
  br label %770, !dbg !2465

770:                                              ; preds = %1461, %759
  %771 = load i32, ptr %281, align 4, !dbg !2466
  %772 = load i32, ptr %275, align 4, !dbg !2468
  %773 = icmp slt i32 %771, %772, !dbg !2469
  br i1 %773, label %774, label %1464, !dbg !2470

774:                                              ; preds = %770
  %775 = load i32, ptr %281, align 4, !dbg !2471
  %776 = getelementptr inbounds %"class.RTTL::BVHBuilder", ptr %286, i32 0, i32 1, !dbg !2473
  %777 = load ptr, ptr %776, align 8, !dbg !2473
  %778 = getelementptr inbounds %"struct.RTTL::BVH", ptr %777, i32 0, i32 2, !dbg !2474
  %779 = load ptr, ptr %778, align 8, !dbg !2474
  %780 = load i32, ptr %281, align 4, !dbg !2475
  %781 = sext i32 %780 to i64, !dbg !2473
  %782 = getelementptr inbounds i32, ptr %779, i64 %781, !dbg !2473
  store i32 %775, ptr %782, align 4, !dbg !2476
  call void @llvm.dbg.declare(metadata ptr %282, metadata !2477, metadata !DIExpression()), !dbg !2478
  %783 = load ptr, ptr %274, align 8, !dbg !2479
  %784 = load i32, ptr %281, align 4, !dbg !2480
  %785 = sext i32 %784 to i64, !dbg !2479
  %786 = getelementptr inbounds %"class.RTTL::AABB", ptr %783, i64 %785, !dbg !2479
  call void @_ZN4RTTL16CentroidDiffAABBC2ERKNS_7RTBox3aE(ptr noundef nonnull align 4 dereferenceable(32) %282, ptr noundef nonnull align 4 dereferenceable(32) %786), !dbg !2479
  store ptr %286, ptr %226, align 8
  call void @llvm.dbg.declare(metadata ptr %226, metadata !2481, metadata !DIExpression()), !dbg !2483
  store ptr %282, ptr %227, align 8
  call void @llvm.dbg.declare(metadata ptr %227, metadata !2485, metadata !DIExpression()), !dbg !2486
  store ptr %277, ptr %228, align 8
  call void @llvm.dbg.declare(metadata ptr %228, metadata !2487, metadata !DIExpression()), !dbg !2488
  store ptr %279, ptr %229, align 8
  call void @llvm.dbg.declare(metadata ptr %229, metadata !2489, metadata !DIExpression()), !dbg !2490
  store ptr @_ZN4RTTL22BinnedAllDimsSaveSpace8binTableE, ptr %230, align 8
  call void @llvm.dbg.declare(metadata ptr %230, metadata !2491, metadata !DIExpression()), !dbg !2492
  %787 = load ptr, ptr %226, align 8
  call void @llvm.dbg.declare(metadata ptr %231, metadata !2493, metadata !DIExpression()), !dbg !2496
  %788 = load ptr, ptr %227, align 8, !dbg !2497
  %789 = call { <2 x float>, <2 x float> } @_ZNK4RTTL16CentroidDiffAABB8centroidEv(ptr noundef nonnull align 4 dereferenceable(32) %788), !dbg !2498
  %790 = extractvalue { <2 x float>, <2 x float> } %789, 0, !dbg !2498
  store <2 x float> %790, ptr %234, align 4, !dbg !2498
  %791 = getelementptr inbounds { <2 x float>, <2 x float> }, ptr %234, i32 0, i32 1, !dbg !2498
  %792 = extractvalue { <2 x float>, <2 x float> } %789, 1, !dbg !2498
  store <2 x float> %792, ptr %791, align 4, !dbg !2498
  %793 = load ptr, ptr %228, align 8, !dbg !2499
  call void @llvm.memcpy.p0.p0.i64(ptr align 4 %235, ptr align 4 %793, i64 16, i1 false), !dbg !2499
  %794 = load <2 x float>, ptr %234, align 4, !dbg !2500
  %795 = getelementptr inbounds { <2 x float>, <2 x float> }, ptr %234, i32 0, i32 1, !dbg !2500
  %796 = load <2 x float>, ptr %795, align 4, !dbg !2500
  %797 = load <2 x float>, ptr %235, align 4, !dbg !2500
  %798 = getelementptr inbounds { <2 x float>, <2 x float> }, ptr %235, i32 0, i32 1, !dbg !2500
  %799 = load <2 x float>, ptr %798, align 4, !dbg !2500
  store <2 x float> %794, ptr %176, align 4
  %800 = getelementptr inbounds { <2 x float>, <2 x float> }, ptr %176, i32 0, i32 1
  store <2 x float> %796, ptr %800, align 4
  store <2 x float> %797, ptr %177, align 4
  %801 = getelementptr inbounds { <2 x float>, <2 x float> }, ptr %177, i32 0, i32 1
  store <2 x float> %799, ptr %801, align 4
  call void @llvm.dbg.declare(metadata ptr %176, metadata !2169, metadata !DIExpression()), !dbg !2501
  call void @llvm.dbg.declare(metadata ptr %177, metadata !2175, metadata !DIExpression()), !dbg !2503
  call void @llvm.memcpy.p0.p0.i64(ptr align 4 %178, ptr align 4 %176, i64 16, i1 false), !dbg !2504
  call void @llvm.memcpy.p0.p0.i64(ptr align 4 %179, ptr align 4 %177, i64 16, i1 false), !dbg !2505
  %802 = load <2 x float>, ptr %178, align 4, !dbg !2506
  %803 = getelementptr inbounds { <2 x float>, <2 x float> }, ptr %178, i32 0, i32 1, !dbg !2506
  %804 = load <2 x float>, ptr %803, align 4, !dbg !2506
  %805 = load <2 x float>, ptr %179, align 4, !dbg !2506
  %806 = getelementptr inbounds { <2 x float>, <2 x float> }, ptr %179, i32 0, i32 1, !dbg !2506
  %807 = load <2 x float>, ptr %806, align 4, !dbg !2506
  store <2 x float> %802, ptr %146, align 4
  %808 = getelementptr inbounds { <2 x float>, <2 x float> }, ptr %146, i32 0, i32 1
  store <2 x float> %804, ptr %808, align 4
  store <2 x float> %805, ptr %147, align 4
  %809 = getelementptr inbounds { <2 x float>, <2 x float> }, ptr %147, i32 0, i32 1
  store <2 x float> %807, ptr %809, align 4
  call void @llvm.dbg.declare(metadata ptr %146, metadata !2180, metadata !DIExpression()), !dbg !2507
  call void @llvm.dbg.declare(metadata ptr %147, metadata !2184, metadata !DIExpression()), !dbg !2509
  call void @llvm.dbg.declare(metadata ptr %145, metadata !2186, metadata !DIExpression()), !dbg !2510
  call void @_ZN5sse_fC2Ev(ptr noundef nonnull align 4 dereferenceable(16) %145), !dbg !2510
  call void @llvm.dbg.declare(metadata ptr %148, metadata !2188, metadata !DIExpression()), !dbg !2511
  store i32 0, ptr %148, align 4, !dbg !2511
  br label %810, !dbg !2512

810:                                              ; preds = %813, %774
  %811 = load i32, ptr %148, align 4, !dbg !2513
  %812 = icmp slt i32 %811, 4, !dbg !2514
  br i1 %812, label %813, label %828, !dbg !2515

813:                                              ; preds = %810
  %814 = load i32, ptr %148, align 4, !dbg !2516
  %815 = sext i32 %814 to i64, !dbg !2517
  %816 = getelementptr inbounds [4 x float], ptr %146, i64 0, i64 %815, !dbg !2517
  %817 = load float, ptr %816, align 4, !dbg !2517
  %818 = load i32, ptr %148, align 4, !dbg !2518
  %819 = sext i32 %818 to i64, !dbg !2519
  %820 = getelementptr inbounds [4 x float], ptr %147, i64 0, i64 %819, !dbg !2519
  %821 = load float, ptr %820, align 4, !dbg !2519
  %822 = fsub float %817, %821, !dbg !2520
  %823 = load i32, ptr %148, align 4, !dbg !2521
  %824 = sext i32 %823 to i64, !dbg !2522
  %825 = getelementptr inbounds [4 x float], ptr %145, i64 0, i64 %824, !dbg !2522
  store float %822, ptr %825, align 4, !dbg !2523
  %826 = load i32, ptr %148, align 4, !dbg !2524
  %827 = add nsw i32 %826, 1, !dbg !2524
  store i32 %827, ptr %148, align 4, !dbg !2524
  br label %810, !dbg !2525, !llvm.loop !2526

828:                                              ; preds = %810
  %829 = load { <2 x float>, <2 x float> }, ptr %145, align 4, !dbg !2528
  %830 = extractvalue { <2 x float>, <2 x float> } %829, 0, !dbg !2506
  store <2 x float> %830, ptr %175, align 4, !dbg !2506
  %831 = getelementptr inbounds { <2 x float>, <2 x float> }, ptr %175, i32 0, i32 1, !dbg !2506
  %832 = extractvalue { <2 x float>, <2 x float> } %829, 1, !dbg !2506
  store <2 x float> %832, ptr %831, align 4, !dbg !2506
  %833 = load { <2 x float>, <2 x float> }, ptr %175, align 4, !dbg !2529
  %834 = extractvalue { <2 x float>, <2 x float> } %833, 0, !dbg !2500
  store <2 x float> %834, ptr %233, align 4, !dbg !2500
  %835 = getelementptr inbounds { <2 x float>, <2 x float> }, ptr %233, i32 0, i32 1, !dbg !2500
  %836 = extractvalue { <2 x float>, <2 x float> } %833, 1, !dbg !2500
  store <2 x float> %836, ptr %835, align 4, !dbg !2500
  %837 = load ptr, ptr %229, align 8, !dbg !2530
  call void @llvm.memcpy.p0.p0.i64(ptr align 4 %236, ptr align 4 %837, i64 16, i1 false), !dbg !2530
  %838 = load <2 x float>, ptr %233, align 4, !dbg !2531
  %839 = getelementptr inbounds { <2 x float>, <2 x float> }, ptr %233, i32 0, i32 1, !dbg !2531
  %840 = load <2 x float>, ptr %839, align 4, !dbg !2531
  %841 = load <2 x float>, ptr %236, align 4, !dbg !2531
  %842 = getelementptr inbounds { <2 x float>, <2 x float> }, ptr %236, i32 0, i32 1, !dbg !2531
  %843 = load <2 x float>, ptr %842, align 4, !dbg !2531
  store <2 x float> %838, ptr %181, align 4
  %844 = getelementptr inbounds { <2 x float>, <2 x float> }, ptr %181, i32 0, i32 1
  store <2 x float> %840, ptr %844, align 4
  store <2 x float> %841, ptr %182, align 4
  %845 = getelementptr inbounds { <2 x float>, <2 x float> }, ptr %182, i32 0, i32 1
  store <2 x float> %843, ptr %845, align 4
  call void @llvm.dbg.declare(metadata ptr %181, metadata !2532, metadata !DIExpression()), !dbg !2534
  call void @llvm.dbg.declare(metadata ptr %182, metadata !2536, metadata !DIExpression()), !dbg !2537
  call void @llvm.memcpy.p0.p0.i64(ptr align 4 %183, ptr align 4 %181, i64 16, i1 false), !dbg !2538
  call void @llvm.memcpy.p0.p0.i64(ptr align 4 %184, ptr align 4 %182, i64 16, i1 false), !dbg !2539
  %846 = load <2 x float>, ptr %183, align 4, !dbg !2540
  %847 = getelementptr inbounds { <2 x float>, <2 x float> }, ptr %183, i32 0, i32 1, !dbg !2540
  %848 = load <2 x float>, ptr %847, align 4, !dbg !2540
  %849 = load <2 x float>, ptr %184, align 4, !dbg !2540
  %850 = getelementptr inbounds { <2 x float>, <2 x float> }, ptr %184, i32 0, i32 1, !dbg !2540
  %851 = load <2 x float>, ptr %850, align 4, !dbg !2540
  store <2 x float> %846, ptr %155, align 4
  %852 = getelementptr inbounds { <2 x float>, <2 x float> }, ptr %155, i32 0, i32 1
  store <2 x float> %848, ptr %852, align 4
  store <2 x float> %849, ptr %156, align 4
  %853 = getelementptr inbounds { <2 x float>, <2 x float> }, ptr %156, i32 0, i32 1
  store <2 x float> %851, ptr %853, align 4
  call void @llvm.dbg.declare(metadata ptr %155, metadata !2541, metadata !DIExpression()), !dbg !2543
  call void @llvm.dbg.declare(metadata ptr %156, metadata !2545, metadata !DIExpression()), !dbg !2546
  call void @llvm.dbg.declare(metadata ptr %154, metadata !2547, metadata !DIExpression()), !dbg !2548
  call void @_ZN5sse_fC2Ev(ptr noundef nonnull align 4 dereferenceable(16) %154), !dbg !2548
  call void @llvm.dbg.declare(metadata ptr %157, metadata !2549, metadata !DIExpression()), !dbg !2551
  store i32 0, ptr %157, align 4, !dbg !2551
  br label %854, !dbg !2552

854:                                              ; preds = %857, %828
  %855 = load i32, ptr %157, align 4, !dbg !2553
  %856 = icmp slt i32 %855, 4, !dbg !2555
  br i1 %856, label %857, label %872, !dbg !2556

857:                                              ; preds = %854
  %858 = load i32, ptr %157, align 4, !dbg !2557
  %859 = sext i32 %858 to i64, !dbg !2557
  %860 = getelementptr inbounds [4 x float], ptr %155, i64 0, i64 %859, !dbg !2557
  %861 = load float, ptr %860, align 4, !dbg !2557
  %862 = load i32, ptr %157, align 4, !dbg !2558
  %863 = sext i32 %862 to i64, !dbg !2558
  %864 = getelementptr inbounds [4 x float], ptr %156, i64 0, i64 %863, !dbg !2558
  %865 = load float, ptr %864, align 4, !dbg !2558
  %866 = fmul float %861, %865, !dbg !2559
  %867 = load i32, ptr %157, align 4, !dbg !2560
  %868 = sext i32 %867 to i64, !dbg !2560
  %869 = getelementptr inbounds [4 x float], ptr %154, i64 0, i64 %868, !dbg !2560
  store float %866, ptr %869, align 4, !dbg !2561
  %870 = load i32, ptr %157, align 4, !dbg !2562
  %871 = add nsw i32 %870, 1, !dbg !2562
  store i32 %871, ptr %157, align 4, !dbg !2562
  br label %854, !dbg !2563, !llvm.loop !2564

872:                                              ; preds = %854
  %873 = load { <2 x float>, <2 x float> }, ptr %154, align 4, !dbg !2566
  %874 = extractvalue { <2 x float>, <2 x float> } %873, 0, !dbg !2540
  store <2 x float> %874, ptr %180, align 4, !dbg !2540
  %875 = getelementptr inbounds { <2 x float>, <2 x float> }, ptr %180, i32 0, i32 1, !dbg !2540
  %876 = extractvalue { <2 x float>, <2 x float> } %873, 1, !dbg !2540
  store <2 x float> %876, ptr %875, align 4, !dbg !2540
  %877 = load { <2 x float>, <2 x float> }, ptr %180, align 4, !dbg !2567
  %878 = extractvalue { <2 x float>, <2 x float> } %877, 0, !dbg !2531
  store <2 x float> %878, ptr %232, align 4, !dbg !2531
  %879 = getelementptr inbounds { <2 x float>, <2 x float> }, ptr %232, i32 0, i32 1, !dbg !2531
  %880 = extractvalue { <2 x float>, <2 x float> } %877, 1, !dbg !2531
  store <2 x float> %880, ptr %879, align 4, !dbg !2531
  %881 = load <2 x float>, ptr %232, align 4, !dbg !2568
  %882 = getelementptr inbounds { <2 x float>, <2 x float> }, ptr %232, i32 0, i32 1, !dbg !2568
  %883 = load <2 x float>, ptr %882, align 4, !dbg !2568
  store <2 x float> %881, ptr %186, align 4
  %884 = getelementptr inbounds { <2 x float>, <2 x float> }, ptr %186, i32 0, i32 1
  store <2 x float> %883, ptr %884, align 4
  call void @llvm.dbg.declare(metadata ptr %186, metadata !2569, metadata !DIExpression()), !dbg !2573
  call void @llvm.dbg.declare(metadata ptr %185, metadata !2575, metadata !DIExpression()), !dbg !2576
  call void @_ZN5sse_iC2Ev(ptr noundef nonnull align 4 dereferenceable(16) %185), !dbg !2576
  call void @llvm.dbg.declare(metadata ptr %187, metadata !2577, metadata !DIExpression()), !dbg !2578
  call void @_ZN5sse_fC2Ev(ptr noundef nonnull align 4 dereferenceable(16) %187), !dbg !2578
  call void @llvm.memcpy.p0.p0.i64(ptr align 4 %187, ptr align 4 %186, i64 16, i1 false), !dbg !2579
  call void @llvm.dbg.declare(metadata ptr %188, metadata !2580, metadata !DIExpression()), !dbg !2582
  store i32 0, ptr %188, align 4, !dbg !2582
  br label %885, !dbg !2583

885:                                              ; preds = %888, %872
  %886 = load i32, ptr %188, align 4, !dbg !2584
  %887 = icmp slt i32 %886, 4, !dbg !2586
  br i1 %887, label %888, label %901, !dbg !2587

888:                                              ; preds = %885
  %889 = load i32, ptr %188, align 4, !dbg !2588
  %890 = sext i32 %889 to i64, !dbg !2588
  %891 = getelementptr inbounds [4 x float], ptr %187, i64 0, i64 %890, !dbg !2588
  %892 = load float, ptr %891, align 4, !dbg !2588
  %893 = fpext float %892 to double, !dbg !2588
  store double %893, ptr %153, align 8
  call void @llvm.dbg.declare(metadata ptr %153, metadata !2589, metadata !DIExpression()), !dbg !2591
  %894 = load double, ptr %153, align 8, !dbg !2593
  %895 = fptosi double %894 to i32, !dbg !2593
  %896 = load i32, ptr %188, align 4, !dbg !2594
  %897 = sext i32 %896 to i64, !dbg !2595
  %898 = getelementptr inbounds [4 x i32], ptr %185, i64 0, i64 %897, !dbg !2595
  store i32 %895, ptr %898, align 4, !dbg !2596
  %899 = load i32, ptr %188, align 4, !dbg !2597
  %900 = add nsw i32 %899, 1, !dbg !2597
  store i32 %900, ptr %188, align 4, !dbg !2597
  br label %885, !dbg !2598, !llvm.loop !2599

901:                                              ; preds = %885
  %902 = load { i64, i64 }, ptr %185, align 4, !dbg !2601
  %903 = extractvalue { i64, i64 } %902, 0, !dbg !2568
  store i64 %903, ptr %231, align 4, !dbg !2568
  %904 = getelementptr inbounds { i64, i64 }, ptr %231, i32 0, i32 1, !dbg !2568
  %905 = extractvalue { i64, i64 } %902, 1, !dbg !2568
  store i64 %905, ptr %904, align 4, !dbg !2568
  call void @llvm.dbg.declare(metadata ptr %237, metadata !2602, metadata !DIExpression()), !dbg !2603
  %906 = load i32, ptr %231, align 4, !dbg !2604
  store i32 %906, ptr %237, align 4, !dbg !2603
  call void @llvm.dbg.declare(metadata ptr %238, metadata !2605, metadata !DIExpression()), !dbg !2606
  %907 = getelementptr inbounds i32, ptr %231, i64 1, !dbg !2607
  %908 = load i32, ptr %907, align 4, !dbg !2607
  store i32 %908, ptr %238, align 4, !dbg !2606
  call void @llvm.dbg.declare(metadata ptr %239, metadata !2608, metadata !DIExpression()), !dbg !2609
  %909 = getelementptr inbounds i32, ptr %231, i64 2, !dbg !2610
  %910 = load i32, ptr %909, align 4, !dbg !2610
  store i32 %910, ptr %239, align 4, !dbg !2609
  call void @llvm.dbg.declare(metadata ptr %240, metadata !2611, metadata !DIExpression()), !dbg !2612
  %911 = load ptr, ptr %227, align 8, !dbg !2613
  call void @_ZNK4RTTL16CentroidDiffAABB7convertEv(ptr sret(%"class.RTTL::AABB") align 4 %240, ptr noundef nonnull align 4 dereferenceable(32) %911), !dbg !2614
  %912 = load ptr, ptr %230, align 8, !dbg !2615
  %913 = getelementptr inbounds %"struct.RTTL::BinnedAllDimsSaveSpace::BinTable", ptr %912, i32 0, i32 1, !dbg !2616
  %914 = load i32, ptr %237, align 4, !dbg !2617
  %915 = sext i32 %914 to i64, !dbg !2615
  %916 = getelementptr inbounds [32 x %"class.RTTL::AABB"], ptr %913, i64 0, i64 %915, !dbg !2615
  store ptr %916, ptr %219, align 8
  call void @llvm.dbg.declare(metadata ptr %219, metadata !2618, metadata !DIExpression()), !dbg !2620
  store ptr %240, ptr %220, align 8
  call void @llvm.dbg.declare(metadata ptr %220, metadata !2622, metadata !DIExpression()), !dbg !2623
  %917 = load ptr, ptr %219, align 8
  %918 = load ptr, ptr %220, align 8, !dbg !2624
  store ptr %917, ptr %117, align 8
  call void @llvm.dbg.declare(metadata ptr %117, metadata !2625, metadata !DIExpression()), !dbg !2627
  store ptr %918, ptr %118, align 8
  call void @llvm.dbg.declare(metadata ptr %118, metadata !2629, metadata !DIExpression()), !dbg !2630
  %919 = load ptr, ptr %117, align 8
  call void @llvm.dbg.declare(metadata ptr %119, metadata !2631, metadata !DIExpression()), !dbg !2632
  %920 = call noundef nonnull align 4 dereferenceable(16) ptr @_ZN4RTTL7RTVec_tILi1E5sse_fLi0EEcvRNS_8RTData_tILi1ES1_Li0EEEEv(ptr noundef nonnull align 4 dereferenceable(16) %919), !dbg !2633
  store ptr %920, ptr %119, align 8, !dbg !2632
  call void @llvm.dbg.declare(metadata ptr %120, metadata !2634, metadata !DIExpression()), !dbg !2636
  store i32 0, ptr %120, align 4, !dbg !2636
  br label %921, !dbg !2637

921:                                              ; preds = %983, %901
  %922 = load i32, ptr %120, align 4, !dbg !2638
  %923 = icmp slt i32 %922, 1, !dbg !2640
  br i1 %923, label %924, label %1000, !dbg !2641

924:                                              ; preds = %921
  %925 = load ptr, ptr %119, align 8, !dbg !2642
  %926 = load i32, ptr %120, align 4, !dbg !2643
  store ptr %925, ptr %113, align 8
  call void @llvm.dbg.declare(metadata ptr %113, metadata !2644, metadata !DIExpression()), !dbg !2646
  store i32 %926, ptr %114, align 4
  call void @llvm.dbg.declare(metadata ptr %114, metadata !2648, metadata !DIExpression()), !dbg !2649
  %927 = load ptr, ptr %113, align 8
  %928 = load i32, ptr %114, align 4, !dbg !2650
  %929 = sext i32 %928 to i64, !dbg !2651
  %930 = getelementptr inbounds [1 x %struct.sse_f], ptr %927, i64 0, i64 %929, !dbg !2651
  call void @llvm.memcpy.p0.p0.i64(ptr align 4 %122, ptr align 4 %930, i64 16, i1 false), !dbg !2642
  %931 = load ptr, ptr %118, align 8, !dbg !2652
  %932 = load i32, ptr %120, align 4, !dbg !2653
  %933 = call { <2 x float>, <2 x float> } @_ZNK4RTTL7RTVec_tILi1E5sse_fLi0EEixEi(ptr noundef nonnull align 4 dereferenceable(16) %931, i32 noundef %932), !dbg !2652
  %934 = extractvalue { <2 x float>, <2 x float> } %933, 0, !dbg !2652
  store <2 x float> %934, ptr %123, align 4, !dbg !2652
  %935 = getelementptr inbounds { <2 x float>, <2 x float> }, ptr %123, i32 0, i32 1, !dbg !2652
  %936 = extractvalue { <2 x float>, <2 x float> } %933, 1, !dbg !2652
  store <2 x float> %936, ptr %935, align 4, !dbg !2652
  %937 = load <2 x float>, ptr %122, align 4, !dbg !2654
  %938 = getelementptr inbounds { <2 x float>, <2 x float> }, ptr %122, i32 0, i32 1, !dbg !2654
  %939 = load <2 x float>, ptr %938, align 4, !dbg !2654
  %940 = load <2 x float>, ptr %123, align 4, !dbg !2654
  %941 = getelementptr inbounds { <2 x float>, <2 x float> }, ptr %123, i32 0, i32 1, !dbg !2654
  %942 = load <2 x float>, ptr %941, align 4, !dbg !2654
  store <2 x float> %937, ptr %44, align 4
  %943 = getelementptr inbounds { <2 x float>, <2 x float> }, ptr %44, i32 0, i32 1
  store <2 x float> %939, ptr %943, align 4
  store <2 x float> %940, ptr %45, align 4
  %944 = getelementptr inbounds { <2 x float>, <2 x float> }, ptr %45, i32 0, i32 1
  store <2 x float> %942, ptr %944, align 4
  call void @llvm.dbg.declare(metadata ptr %44, metadata !2655, metadata !DIExpression()), !dbg !2657
  call void @llvm.dbg.declare(metadata ptr %45, metadata !2659, metadata !DIExpression()), !dbg !2660
  call void @llvm.memcpy.p0.p0.i64(ptr align 4 %46, ptr align 4 %44, i64 16, i1 false), !dbg !2661
  call void @llvm.memcpy.p0.p0.i64(ptr align 4 %47, ptr align 4 %45, i64 16, i1 false), !dbg !2662
  %945 = load <2 x float>, ptr %46, align 4, !dbg !2663
  %946 = getelementptr inbounds { <2 x float>, <2 x float> }, ptr %46, i32 0, i32 1, !dbg !2663
  %947 = load <2 x float>, ptr %946, align 4, !dbg !2663
  %948 = load <2 x float>, ptr %47, align 4, !dbg !2663
  %949 = getelementptr inbounds { <2 x float>, <2 x float> }, ptr %47, i32 0, i32 1, !dbg !2663
  %950 = load <2 x float>, ptr %949, align 4, !dbg !2663
  store <2 x float> %945, ptr %40, align 4
  %951 = getelementptr inbounds { <2 x float>, <2 x float> }, ptr %40, i32 0, i32 1
  store <2 x float> %947, ptr %951, align 4
  store <2 x float> %948, ptr %41, align 4
  %952 = getelementptr inbounds { <2 x float>, <2 x float> }, ptr %41, i32 0, i32 1
  store <2 x float> %950, ptr %952, align 4
  call void @llvm.dbg.declare(metadata ptr %40, metadata !2664, metadata !DIExpression()), !dbg !2666
  call void @llvm.dbg.declare(metadata ptr %41, metadata !2668, metadata !DIExpression()), !dbg !2669
  call void @llvm.dbg.declare(metadata ptr %39, metadata !2670, metadata !DIExpression()), !dbg !2671
  call void @_ZN5sse_fC2Ev(ptr noundef nonnull align 4 dereferenceable(16) %39), !dbg !2671
  call void @llvm.dbg.declare(metadata ptr %42, metadata !2672, metadata !DIExpression()), !dbg !2674
  store i32 0, ptr %42, align 4, !dbg !2674
  br label %953, !dbg !2675

953:                                              ; preds = %976, %924
  %954 = load i32, ptr %42, align 4, !dbg !2676
  %955 = icmp slt i32 %954, 4, !dbg !2678
  br i1 %955, label %956, label %983, !dbg !2679

956:                                              ; preds = %953
  %957 = load i32, ptr %42, align 4, !dbg !2680
  %958 = sext i32 %957 to i64, !dbg !2680
  %959 = getelementptr inbounds [4 x float], ptr %40, i64 0, i64 %958, !dbg !2680
  %960 = load float, ptr %959, align 4, !dbg !2680
  %961 = load i32, ptr %42, align 4, !dbg !2680
  %962 = sext i32 %961 to i64, !dbg !2680
  %963 = getelementptr inbounds [4 x float], ptr %41, i64 0, i64 %962, !dbg !2680
  %964 = load float, ptr %963, align 4, !dbg !2680
  %965 = fcmp olt float %960, %964, !dbg !2680
  br i1 %965, label %966, label %971, !dbg !2680

966:                                              ; preds = %956
  %967 = load i32, ptr %42, align 4, !dbg !2680
  %968 = sext i32 %967 to i64, !dbg !2680
  %969 = getelementptr inbounds [4 x float], ptr %40, i64 0, i64 %968, !dbg !2680
  %970 = load float, ptr %969, align 4, !dbg !2680
  br label %976, !dbg !2680

971:                                              ; preds = %956
  %972 = load i32, ptr %42, align 4, !dbg !2680
  %973 = sext i32 %972 to i64, !dbg !2680
  %974 = getelementptr inbounds [4 x float], ptr %41, i64 0, i64 %973, !dbg !2680
  %975 = load float, ptr %974, align 4, !dbg !2680
  br label %976, !dbg !2680

976:                                              ; preds = %971, %966
  %977 = phi float [ %970, %966 ], [ %975, %971 ], !dbg !2680
  %978 = load i32, ptr %42, align 4, !dbg !2681
  %979 = sext i32 %978 to i64, !dbg !2681
  %980 = getelementptr inbounds [4 x float], ptr %39, i64 0, i64 %979, !dbg !2681
  store float %977, ptr %980, align 4, !dbg !2682
  %981 = load i32, ptr %42, align 4, !dbg !2683
  %982 = add nsw i32 %981, 1, !dbg !2683
  store i32 %982, ptr %42, align 4, !dbg !2683
  br label %953, !dbg !2684, !llvm.loop !2685

983:                                              ; preds = %953
  %984 = load { <2 x float>, <2 x float> }, ptr %39, align 4, !dbg !2687
  %985 = extractvalue { <2 x float>, <2 x float> } %984, 0, !dbg !2663
  store <2 x float> %985, ptr %43, align 4, !dbg !2663
  %986 = getelementptr inbounds { <2 x float>, <2 x float> }, ptr %43, i32 0, i32 1, !dbg !2663
  %987 = extractvalue { <2 x float>, <2 x float> } %984, 1, !dbg !2663
  store <2 x float> %987, ptr %986, align 4, !dbg !2663
  %988 = load { <2 x float>, <2 x float> }, ptr %43, align 4, !dbg !2688
  %989 = extractvalue { <2 x float>, <2 x float> } %988, 0, !dbg !2654
  store <2 x float> %989, ptr %121, align 4, !dbg !2654
  %990 = getelementptr inbounds { <2 x float>, <2 x float> }, ptr %121, i32 0, i32 1, !dbg !2654
  %991 = extractvalue { <2 x float>, <2 x float> } %988, 1, !dbg !2654
  store <2 x float> %991, ptr %990, align 4, !dbg !2654
  %992 = load ptr, ptr %119, align 8, !dbg !2689
  %993 = load i32, ptr %120, align 4, !dbg !2690
  store ptr %992, ptr %115, align 8
  call void @llvm.dbg.declare(metadata ptr %115, metadata !2644, metadata !DIExpression()), !dbg !2691
  store i32 %993, ptr %116, align 4
  call void @llvm.dbg.declare(metadata ptr %116, metadata !2648, metadata !DIExpression()), !dbg !2693
  %994 = load ptr, ptr %115, align 8
  %995 = load i32, ptr %116, align 4, !dbg !2694
  %996 = sext i32 %995 to i64, !dbg !2695
  %997 = getelementptr inbounds [1 x %struct.sse_f], ptr %994, i64 0, i64 %996, !dbg !2695
  call void @llvm.memcpy.p0.p0.i64(ptr align 4 %997, ptr align 4 %121, i64 16, i1 false), !dbg !2696
  %998 = load i32, ptr %120, align 4, !dbg !2697
  %999 = add nsw i32 %998, 1, !dbg !2697
  store i32 %999, ptr %120, align 4, !dbg !2697
  br label %921, !dbg !2698, !llvm.loop !2699

1000:                                             ; preds = %921
  %1001 = getelementptr inbounds %"class.RTTL::RTBox_t", ptr %917, i32 0, i32 1, !dbg !2701
  %1002 = load ptr, ptr %220, align 8, !dbg !2702
  %1003 = getelementptr inbounds %"class.RTTL::RTBox_t", ptr %1002, i32 0, i32 1, !dbg !2703
  store ptr %1001, ptr %84, align 8
  call void @llvm.dbg.declare(metadata ptr %84, metadata !2704, metadata !DIExpression()), !dbg !2706
  store ptr %1003, ptr %85, align 8
  call void @llvm.dbg.declare(metadata ptr %85, metadata !2708, metadata !DIExpression()), !dbg !2709
  %1004 = load ptr, ptr %84, align 8
  call void @llvm.dbg.declare(metadata ptr %86, metadata !2710, metadata !DIExpression()), !dbg !2711
  %1005 = call noundef nonnull align 4 dereferenceable(16) ptr @_ZN4RTTL7RTVec_tILi1E5sse_fLi0EEcvRNS_8RTData_tILi1ES1_Li0EEEEv(ptr noundef nonnull align 4 dereferenceable(16) %1004), !dbg !2712
  store ptr %1005, ptr %86, align 8, !dbg !2711
  call void @llvm.dbg.declare(metadata ptr %87, metadata !2713, metadata !DIExpression()), !dbg !2715
  store i32 0, ptr %87, align 4, !dbg !2715
  br label %1006, !dbg !2716

1006:                                             ; preds = %1068, %1000
  %1007 = load i32, ptr %87, align 4, !dbg !2717
  %1008 = icmp slt i32 %1007, 1, !dbg !2719
  br i1 %1008, label %1009, label %1085, !dbg !2720

1009:                                             ; preds = %1006
  %1010 = load ptr, ptr %86, align 8, !dbg !2721
  %1011 = load i32, ptr %87, align 4, !dbg !2722
  store ptr %1010, ptr %80, align 8
  call void @llvm.dbg.declare(metadata ptr %80, metadata !2644, metadata !DIExpression()), !dbg !2723
  store i32 %1011, ptr %81, align 4
  call void @llvm.dbg.declare(metadata ptr %81, metadata !2648, metadata !DIExpression()), !dbg !2725
  %1012 = load ptr, ptr %80, align 8
  %1013 = load i32, ptr %81, align 4, !dbg !2726
  %1014 = sext i32 %1013 to i64, !dbg !2727
  %1015 = getelementptr inbounds [1 x %struct.sse_f], ptr %1012, i64 0, i64 %1014, !dbg !2727
  call void @llvm.memcpy.p0.p0.i64(ptr align 4 %89, ptr align 4 %1015, i64 16, i1 false), !dbg !2721
  %1016 = load ptr, ptr %85, align 8, !dbg !2728
  %1017 = load i32, ptr %87, align 4, !dbg !2729
  %1018 = call { <2 x float>, <2 x float> } @_ZNK4RTTL7RTVec_tILi1E5sse_fLi0EEixEi(ptr noundef nonnull align 4 dereferenceable(16) %1016, i32 noundef %1017), !dbg !2728
  %1019 = extractvalue { <2 x float>, <2 x float> } %1018, 0, !dbg !2728
  store <2 x float> %1019, ptr %90, align 4, !dbg !2728
  %1020 = getelementptr inbounds { <2 x float>, <2 x float> }, ptr %90, i32 0, i32 1, !dbg !2728
  %1021 = extractvalue { <2 x float>, <2 x float> } %1018, 1, !dbg !2728
  store <2 x float> %1021, ptr %1020, align 4, !dbg !2728
  %1022 = load <2 x float>, ptr %89, align 4, !dbg !2730
  %1023 = getelementptr inbounds { <2 x float>, <2 x float> }, ptr %89, i32 0, i32 1, !dbg !2730
  %1024 = load <2 x float>, ptr %1023, align 4, !dbg !2730
  %1025 = load <2 x float>, ptr %90, align 4, !dbg !2730
  %1026 = getelementptr inbounds { <2 x float>, <2 x float> }, ptr %90, i32 0, i32 1, !dbg !2730
  %1027 = load <2 x float>, ptr %1026, align 4, !dbg !2730
  store <2 x float> %1022, ptr %17, align 4
  %1028 = getelementptr inbounds { <2 x float>, <2 x float> }, ptr %17, i32 0, i32 1
  store <2 x float> %1024, ptr %1028, align 4
  store <2 x float> %1025, ptr %18, align 4
  %1029 = getelementptr inbounds { <2 x float>, <2 x float> }, ptr %18, i32 0, i32 1
  store <2 x float> %1027, ptr %1029, align 4
  call void @llvm.dbg.declare(metadata ptr %17, metadata !2731, metadata !DIExpression()), !dbg !2733
  call void @llvm.dbg.declare(metadata ptr %18, metadata !2735, metadata !DIExpression()), !dbg !2736
  call void @llvm.memcpy.p0.p0.i64(ptr align 4 %19, ptr align 4 %17, i64 16, i1 false), !dbg !2737
  call void @llvm.memcpy.p0.p0.i64(ptr align 4 %20, ptr align 4 %18, i64 16, i1 false), !dbg !2738
  %1030 = load <2 x float>, ptr %19, align 4, !dbg !2739
  %1031 = getelementptr inbounds { <2 x float>, <2 x float> }, ptr %19, i32 0, i32 1, !dbg !2739
  %1032 = load <2 x float>, ptr %1031, align 4, !dbg !2739
  %1033 = load <2 x float>, ptr %20, align 4, !dbg !2739
  %1034 = getelementptr inbounds { <2 x float>, <2 x float> }, ptr %20, i32 0, i32 1, !dbg !2739
  %1035 = load <2 x float>, ptr %1034, align 4, !dbg !2739
  store <2 x float> %1030, ptr %13, align 4
  %1036 = getelementptr inbounds { <2 x float>, <2 x float> }, ptr %13, i32 0, i32 1
  store <2 x float> %1032, ptr %1036, align 4
  store <2 x float> %1033, ptr %14, align 4
  %1037 = getelementptr inbounds { <2 x float>, <2 x float> }, ptr %14, i32 0, i32 1
  store <2 x float> %1035, ptr %1037, align 4
  call void @llvm.dbg.declare(metadata ptr %13, metadata !2740, metadata !DIExpression()), !dbg !2742
  call void @llvm.dbg.declare(metadata ptr %14, metadata !2744, metadata !DIExpression()), !dbg !2745
  call void @llvm.dbg.declare(metadata ptr %12, metadata !2746, metadata !DIExpression()), !dbg !2747
  call void @_ZN5sse_fC2Ev(ptr noundef nonnull align 4 dereferenceable(16) %12), !dbg !2747
  call void @llvm.dbg.declare(metadata ptr %15, metadata !2748, metadata !DIExpression()), !dbg !2750
  store i32 0, ptr %15, align 4, !dbg !2750
  br label %1038, !dbg !2751

1038:                                             ; preds = %1061, %1009
  %1039 = load i32, ptr %15, align 4, !dbg !2752
  %1040 = icmp slt i32 %1039, 4, !dbg !2754
  br i1 %1040, label %1041, label %1068, !dbg !2755

1041:                                             ; preds = %1038
  %1042 = load i32, ptr %15, align 4, !dbg !2756
  %1043 = sext i32 %1042 to i64, !dbg !2756
  %1044 = getelementptr inbounds [4 x float], ptr %13, i64 0, i64 %1043, !dbg !2756
  %1045 = load float, ptr %1044, align 4, !dbg !2756
  %1046 = load i32, ptr %15, align 4, !dbg !2756
  %1047 = sext i32 %1046 to i64, !dbg !2756
  %1048 = getelementptr inbounds [4 x float], ptr %14, i64 0, i64 %1047, !dbg !2756
  %1049 = load float, ptr %1048, align 4, !dbg !2756
  %1050 = fcmp ogt float %1045, %1049, !dbg !2756
  br i1 %1050, label %1051, label %1056, !dbg !2756

1051:                                             ; preds = %1041
  %1052 = load i32, ptr %15, align 4, !dbg !2756
  %1053 = sext i32 %1052 to i64, !dbg !2756
  %1054 = getelementptr inbounds [4 x float], ptr %13, i64 0, i64 %1053, !dbg !2756
  %1055 = load float, ptr %1054, align 4, !dbg !2756
  br label %1061, !dbg !2756

1056:                                             ; preds = %1041
  %1057 = load i32, ptr %15, align 4, !dbg !2756
  %1058 = sext i32 %1057 to i64, !dbg !2756
  %1059 = getelementptr inbounds [4 x float], ptr %14, i64 0, i64 %1058, !dbg !2756
  %1060 = load float, ptr %1059, align 4, !dbg !2756
  br label %1061, !dbg !2756

1061:                                             ; preds = %1056, %1051
  %1062 = phi float [ %1055, %1051 ], [ %1060, %1056 ], !dbg !2756
  %1063 = load i32, ptr %15, align 4, !dbg !2757
  %1064 = sext i32 %1063 to i64, !dbg !2757
  %1065 = getelementptr inbounds [4 x float], ptr %12, i64 0, i64 %1064, !dbg !2757
  store float %1062, ptr %1065, align 4, !dbg !2758
  %1066 = load i32, ptr %15, align 4, !dbg !2759
  %1067 = add nsw i32 %1066, 1, !dbg !2759
  store i32 %1067, ptr %15, align 4, !dbg !2759
  br label %1038, !dbg !2760, !llvm.loop !2761

1068:                                             ; preds = %1038
  %1069 = load { <2 x float>, <2 x float> }, ptr %12, align 4, !dbg !2763
  %1070 = extractvalue { <2 x float>, <2 x float> } %1069, 0, !dbg !2739
  store <2 x float> %1070, ptr %16, align 4, !dbg !2739
  %1071 = getelementptr inbounds { <2 x float>, <2 x float> }, ptr %16, i32 0, i32 1, !dbg !2739
  %1072 = extractvalue { <2 x float>, <2 x float> } %1069, 1, !dbg !2739
  store <2 x float> %1072, ptr %1071, align 4, !dbg !2739
  %1073 = load { <2 x float>, <2 x float> }, ptr %16, align 4, !dbg !2764
  %1074 = extractvalue { <2 x float>, <2 x float> } %1073, 0, !dbg !2730
  store <2 x float> %1074, ptr %88, align 4, !dbg !2730
  %1075 = getelementptr inbounds { <2 x float>, <2 x float> }, ptr %88, i32 0, i32 1, !dbg !2730
  %1076 = extractvalue { <2 x float>, <2 x float> } %1073, 1, !dbg !2730
  store <2 x float> %1076, ptr %1075, align 4, !dbg !2730
  %1077 = load ptr, ptr %86, align 8, !dbg !2765
  %1078 = load i32, ptr %87, align 4, !dbg !2766
  store ptr %1077, ptr %82, align 8
  call void @llvm.dbg.declare(metadata ptr %82, metadata !2644, metadata !DIExpression()), !dbg !2767
  store i32 %1078, ptr %83, align 4
  call void @llvm.dbg.declare(metadata ptr %83, metadata !2648, metadata !DIExpression()), !dbg !2769
  %1079 = load ptr, ptr %82, align 8
  %1080 = load i32, ptr %83, align 4, !dbg !2770
  %1081 = sext i32 %1080 to i64, !dbg !2771
  %1082 = getelementptr inbounds [1 x %struct.sse_f], ptr %1079, i64 0, i64 %1081, !dbg !2771
  call void @llvm.memcpy.p0.p0.i64(ptr align 4 %1082, ptr align 4 %88, i64 16, i1 false), !dbg !2772
  %1083 = load i32, ptr %87, align 4, !dbg !2773
  %1084 = add nsw i32 %1083, 1, !dbg !2773
  store i32 %1084, ptr %87, align 4, !dbg !2773
  br label %1006, !dbg !2774, !llvm.loop !2775

1085:                                             ; preds = %1006
  %1086 = load ptr, ptr %230, align 8, !dbg !2777
  %1087 = getelementptr inbounds %"struct.RTTL::BinnedAllDimsSaveSpace::BinTable", ptr %1086, i32 0, i32 1, !dbg !2778
  %1088 = getelementptr inbounds [3 x [32 x %"class.RTTL::AABB"]], ptr %1087, i64 0, i64 1, !dbg !2777
  %1089 = load i32, ptr %238, align 4, !dbg !2779
  %1090 = sext i32 %1089 to i64, !dbg !2777
  %1091 = getelementptr inbounds [32 x %"class.RTTL::AABB"], ptr %1088, i64 0, i64 %1090, !dbg !2777
  store ptr %1091, ptr %221, align 8
  call void @llvm.dbg.declare(metadata ptr %221, metadata !2618, metadata !DIExpression()), !dbg !2780
  store ptr %240, ptr %222, align 8
  call void @llvm.dbg.declare(metadata ptr %222, metadata !2622, metadata !DIExpression()), !dbg !2782
  %1092 = load ptr, ptr %221, align 8
  %1093 = load ptr, ptr %222, align 8, !dbg !2783
  store ptr %1092, ptr %106, align 8
  call void @llvm.dbg.declare(metadata ptr %106, metadata !2625, metadata !DIExpression()), !dbg !2784
  store ptr %1093, ptr %107, align 8
  call void @llvm.dbg.declare(metadata ptr %107, metadata !2629, metadata !DIExpression()), !dbg !2786
  %1094 = load ptr, ptr %106, align 8
  call void @llvm.dbg.declare(metadata ptr %108, metadata !2631, metadata !DIExpression()), !dbg !2787
  %1095 = call noundef nonnull align 4 dereferenceable(16) ptr @_ZN4RTTL7RTVec_tILi1E5sse_fLi0EEcvRNS_8RTData_tILi1ES1_Li0EEEEv(ptr noundef nonnull align 4 dereferenceable(16) %1094), !dbg !2788
  store ptr %1095, ptr %108, align 8, !dbg !2787
  call void @llvm.dbg.declare(metadata ptr %109, metadata !2634, metadata !DIExpression()), !dbg !2789
  store i32 0, ptr %109, align 4, !dbg !2789
  br label %1096, !dbg !2790

1096:                                             ; preds = %1158, %1085
  %1097 = load i32, ptr %109, align 4, !dbg !2791
  %1098 = icmp slt i32 %1097, 1, !dbg !2792
  br i1 %1098, label %1099, label %1175, !dbg !2793

1099:                                             ; preds = %1096
  %1100 = load ptr, ptr %108, align 8, !dbg !2794
  %1101 = load i32, ptr %109, align 4, !dbg !2795
  store ptr %1100, ptr %102, align 8
  call void @llvm.dbg.declare(metadata ptr %102, metadata !2644, metadata !DIExpression()), !dbg !2796
  store i32 %1101, ptr %103, align 4
  call void @llvm.dbg.declare(metadata ptr %103, metadata !2648, metadata !DIExpression()), !dbg !2798
  %1102 = load ptr, ptr %102, align 8
  %1103 = load i32, ptr %103, align 4, !dbg !2799
  %1104 = sext i32 %1103 to i64, !dbg !2800
  %1105 = getelementptr inbounds [1 x %struct.sse_f], ptr %1102, i64 0, i64 %1104, !dbg !2800
  call void @llvm.memcpy.p0.p0.i64(ptr align 4 %111, ptr align 4 %1105, i64 16, i1 false), !dbg !2794
  %1106 = load ptr, ptr %107, align 8, !dbg !2801
  %1107 = load i32, ptr %109, align 4, !dbg !2802
  %1108 = call { <2 x float>, <2 x float> } @_ZNK4RTTL7RTVec_tILi1E5sse_fLi0EEixEi(ptr noundef nonnull align 4 dereferenceable(16) %1106, i32 noundef %1107), !dbg !2801
  %1109 = extractvalue { <2 x float>, <2 x float> } %1108, 0, !dbg !2801
  store <2 x float> %1109, ptr %112, align 4, !dbg !2801
  %1110 = getelementptr inbounds { <2 x float>, <2 x float> }, ptr %112, i32 0, i32 1, !dbg !2801
  %1111 = extractvalue { <2 x float>, <2 x float> } %1108, 1, !dbg !2801
  store <2 x float> %1111, ptr %1110, align 4, !dbg !2801
  %1112 = load <2 x float>, ptr %111, align 4, !dbg !2803
  %1113 = getelementptr inbounds { <2 x float>, <2 x float> }, ptr %111, i32 0, i32 1, !dbg !2803
  %1114 = load <2 x float>, ptr %1113, align 4, !dbg !2803
  %1115 = load <2 x float>, ptr %112, align 4, !dbg !2803
  %1116 = getelementptr inbounds { <2 x float>, <2 x float> }, ptr %112, i32 0, i32 1, !dbg !2803
  %1117 = load <2 x float>, ptr %1116, align 4, !dbg !2803
  store <2 x float> %1112, ptr %49, align 4
  %1118 = getelementptr inbounds { <2 x float>, <2 x float> }, ptr %49, i32 0, i32 1
  store <2 x float> %1114, ptr %1118, align 4
  store <2 x float> %1115, ptr %50, align 4
  %1119 = getelementptr inbounds { <2 x float>, <2 x float> }, ptr %50, i32 0, i32 1
  store <2 x float> %1117, ptr %1119, align 4
  call void @llvm.dbg.declare(metadata ptr %49, metadata !2655, metadata !DIExpression()), !dbg !2804
  call void @llvm.dbg.declare(metadata ptr %50, metadata !2659, metadata !DIExpression()), !dbg !2806
  call void @llvm.memcpy.p0.p0.i64(ptr align 4 %51, ptr align 4 %49, i64 16, i1 false), !dbg !2807
  call void @llvm.memcpy.p0.p0.i64(ptr align 4 %52, ptr align 4 %50, i64 16, i1 false), !dbg !2808
  %1120 = load <2 x float>, ptr %51, align 4, !dbg !2809
  %1121 = getelementptr inbounds { <2 x float>, <2 x float> }, ptr %51, i32 0, i32 1, !dbg !2809
  %1122 = load <2 x float>, ptr %1121, align 4, !dbg !2809
  %1123 = load <2 x float>, ptr %52, align 4, !dbg !2809
  %1124 = getelementptr inbounds { <2 x float>, <2 x float> }, ptr %52, i32 0, i32 1, !dbg !2809
  %1125 = load <2 x float>, ptr %1124, align 4, !dbg !2809
  store <2 x float> %1120, ptr %36, align 4
  %1126 = getelementptr inbounds { <2 x float>, <2 x float> }, ptr %36, i32 0, i32 1
  store <2 x float> %1122, ptr %1126, align 4
  store <2 x float> %1123, ptr %37, align 4
  %1127 = getelementptr inbounds { <2 x float>, <2 x float> }, ptr %37, i32 0, i32 1
  store <2 x float> %1125, ptr %1127, align 4
  call void @llvm.dbg.declare(metadata ptr %36, metadata !2664, metadata !DIExpression()), !dbg !2810
  call void @llvm.dbg.declare(metadata ptr %37, metadata !2668, metadata !DIExpression()), !dbg !2812
  call void @llvm.dbg.declare(metadata ptr %35, metadata !2670, metadata !DIExpression()), !dbg !2813
  call void @_ZN5sse_fC2Ev(ptr noundef nonnull align 4 dereferenceable(16) %35), !dbg !2813
  call void @llvm.dbg.declare(metadata ptr %38, metadata !2672, metadata !DIExpression()), !dbg !2814
  store i32 0, ptr %38, align 4, !dbg !2814
  br label %1128, !dbg !2815

1128:                                             ; preds = %1151, %1099
  %1129 = load i32, ptr %38, align 4, !dbg !2816
  %1130 = icmp slt i32 %1129, 4, !dbg !2817
  br i1 %1130, label %1131, label %1158, !dbg !2818

1131:                                             ; preds = %1128
  %1132 = load i32, ptr %38, align 4, !dbg !2819
  %1133 = sext i32 %1132 to i64, !dbg !2819
  %1134 = getelementptr inbounds [4 x float], ptr %36, i64 0, i64 %1133, !dbg !2819
  %1135 = load float, ptr %1134, align 4, !dbg !2819
  %1136 = load i32, ptr %38, align 4, !dbg !2819
  %1137 = sext i32 %1136 to i64, !dbg !2819
  %1138 = getelementptr inbounds [4 x float], ptr %37, i64 0, i64 %1137, !dbg !2819
  %1139 = load float, ptr %1138, align 4, !dbg !2819
  %1140 = fcmp olt float %1135, %1139, !dbg !2819
  br i1 %1140, label %1141, label %1146, !dbg !2819

1141:                                             ; preds = %1131
  %1142 = load i32, ptr %38, align 4, !dbg !2819
  %1143 = sext i32 %1142 to i64, !dbg !2819
  %1144 = getelementptr inbounds [4 x float], ptr %36, i64 0, i64 %1143, !dbg !2819
  %1145 = load float, ptr %1144, align 4, !dbg !2819
  br label %1151, !dbg !2819

1146:                                             ; preds = %1131
  %1147 = load i32, ptr %38, align 4, !dbg !2819
  %1148 = sext i32 %1147 to i64, !dbg !2819
  %1149 = getelementptr inbounds [4 x float], ptr %37, i64 0, i64 %1148, !dbg !2819
  %1150 = load float, ptr %1149, align 4, !dbg !2819
  br label %1151, !dbg !2819

1151:                                             ; preds = %1146, %1141
  %1152 = phi float [ %1145, %1141 ], [ %1150, %1146 ], !dbg !2819
  %1153 = load i32, ptr %38, align 4, !dbg !2820
  %1154 = sext i32 %1153 to i64, !dbg !2820
  %1155 = getelementptr inbounds [4 x float], ptr %35, i64 0, i64 %1154, !dbg !2820
  store float %1152, ptr %1155, align 4, !dbg !2821
  %1156 = load i32, ptr %38, align 4, !dbg !2822
  %1157 = add nsw i32 %1156, 1, !dbg !2822
  store i32 %1157, ptr %38, align 4, !dbg !2822
  br label %1128, !dbg !2823, !llvm.loop !2824

1158:                                             ; preds = %1128
  %1159 = load { <2 x float>, <2 x float> }, ptr %35, align 4, !dbg !2826
  %1160 = extractvalue { <2 x float>, <2 x float> } %1159, 0, !dbg !2809
  store <2 x float> %1160, ptr %48, align 4, !dbg !2809
  %1161 = getelementptr inbounds { <2 x float>, <2 x float> }, ptr %48, i32 0, i32 1, !dbg !2809
  %1162 = extractvalue { <2 x float>, <2 x float> } %1159, 1, !dbg !2809
  store <2 x float> %1162, ptr %1161, align 4, !dbg !2809
  %1163 = load { <2 x float>, <2 x float> }, ptr %48, align 4, !dbg !2827
  %1164 = extractvalue { <2 x float>, <2 x float> } %1163, 0, !dbg !2803
  store <2 x float> %1164, ptr %110, align 4, !dbg !2803
  %1165 = getelementptr inbounds { <2 x float>, <2 x float> }, ptr %110, i32 0, i32 1, !dbg !2803
  %1166 = extractvalue { <2 x float>, <2 x float> } %1163, 1, !dbg !2803
  store <2 x float> %1166, ptr %1165, align 4, !dbg !2803
  %1167 = load ptr, ptr %108, align 8, !dbg !2828
  %1168 = load i32, ptr %109, align 4, !dbg !2829
  store ptr %1167, ptr %104, align 8
  call void @llvm.dbg.declare(metadata ptr %104, metadata !2644, metadata !DIExpression()), !dbg !2830
  store i32 %1168, ptr %105, align 4
  call void @llvm.dbg.declare(metadata ptr %105, metadata !2648, metadata !DIExpression()), !dbg !2832
  %1169 = load ptr, ptr %104, align 8
  %1170 = load i32, ptr %105, align 4, !dbg !2833
  %1171 = sext i32 %1170 to i64, !dbg !2834
  %1172 = getelementptr inbounds [1 x %struct.sse_f], ptr %1169, i64 0, i64 %1171, !dbg !2834
  call void @llvm.memcpy.p0.p0.i64(ptr align 4 %1172, ptr align 4 %110, i64 16, i1 false), !dbg !2835
  %1173 = load i32, ptr %109, align 4, !dbg !2836
  %1174 = add nsw i32 %1173, 1, !dbg !2836
  store i32 %1174, ptr %109, align 4, !dbg !2836
  br label %1096, !dbg !2837, !llvm.loop !2838

1175:                                             ; preds = %1096
  %1176 = getelementptr inbounds %"class.RTTL::RTBox_t", ptr %1092, i32 0, i32 1, !dbg !2840
  %1177 = load ptr, ptr %222, align 8, !dbg !2841
  %1178 = getelementptr inbounds %"class.RTTL::RTBox_t", ptr %1177, i32 0, i32 1, !dbg !2842
  store ptr %1176, ptr %73, align 8
  call void @llvm.dbg.declare(metadata ptr %73, metadata !2704, metadata !DIExpression()), !dbg !2843
  store ptr %1178, ptr %74, align 8
  call void @llvm.dbg.declare(metadata ptr %74, metadata !2708, metadata !DIExpression()), !dbg !2845
  %1179 = load ptr, ptr %73, align 8
  call void @llvm.dbg.declare(metadata ptr %75, metadata !2710, metadata !DIExpression()), !dbg !2846
  %1180 = call noundef nonnull align 4 dereferenceable(16) ptr @_ZN4RTTL7RTVec_tILi1E5sse_fLi0EEcvRNS_8RTData_tILi1ES1_Li0EEEEv(ptr noundef nonnull align 4 dereferenceable(16) %1179), !dbg !2847
  store ptr %1180, ptr %75, align 8, !dbg !2846
  call void @llvm.dbg.declare(metadata ptr %76, metadata !2713, metadata !DIExpression()), !dbg !2848
  store i32 0, ptr %76, align 4, !dbg !2848
  br label %1181, !dbg !2849

1181:                                             ; preds = %1243, %1175
  %1182 = load i32, ptr %76, align 4, !dbg !2850
  %1183 = icmp slt i32 %1182, 1, !dbg !2851
  br i1 %1183, label %1184, label %1260, !dbg !2852

1184:                                             ; preds = %1181
  %1185 = load ptr, ptr %75, align 8, !dbg !2853
  %1186 = load i32, ptr %76, align 4, !dbg !2854
  store ptr %1185, ptr %69, align 8
  call void @llvm.dbg.declare(metadata ptr %69, metadata !2644, metadata !DIExpression()), !dbg !2855
  store i32 %1186, ptr %70, align 4
  call void @llvm.dbg.declare(metadata ptr %70, metadata !2648, metadata !DIExpression()), !dbg !2857
  %1187 = load ptr, ptr %69, align 8
  %1188 = load i32, ptr %70, align 4, !dbg !2858
  %1189 = sext i32 %1188 to i64, !dbg !2859
  %1190 = getelementptr inbounds [1 x %struct.sse_f], ptr %1187, i64 0, i64 %1189, !dbg !2859
  call void @llvm.memcpy.p0.p0.i64(ptr align 4 %78, ptr align 4 %1190, i64 16, i1 false), !dbg !2853
  %1191 = load ptr, ptr %74, align 8, !dbg !2860
  %1192 = load i32, ptr %76, align 4, !dbg !2861
  %1193 = call { <2 x float>, <2 x float> } @_ZNK4RTTL7RTVec_tILi1E5sse_fLi0EEixEi(ptr noundef nonnull align 4 dereferenceable(16) %1191, i32 noundef %1192), !dbg !2860
  %1194 = extractvalue { <2 x float>, <2 x float> } %1193, 0, !dbg !2860
  store <2 x float> %1194, ptr %79, align 4, !dbg !2860
  %1195 = getelementptr inbounds { <2 x float>, <2 x float> }, ptr %79, i32 0, i32 1, !dbg !2860
  %1196 = extractvalue { <2 x float>, <2 x float> } %1193, 1, !dbg !2860
  store <2 x float> %1196, ptr %1195, align 4, !dbg !2860
  %1197 = load <2 x float>, ptr %78, align 4, !dbg !2862
  %1198 = getelementptr inbounds { <2 x float>, <2 x float> }, ptr %78, i32 0, i32 1, !dbg !2862
  %1199 = load <2 x float>, ptr %1198, align 4, !dbg !2862
  %1200 = load <2 x float>, ptr %79, align 4, !dbg !2862
  %1201 = getelementptr inbounds { <2 x float>, <2 x float> }, ptr %79, i32 0, i32 1, !dbg !2862
  %1202 = load <2 x float>, ptr %1201, align 4, !dbg !2862
  store <2 x float> %1197, ptr %22, align 4
  %1203 = getelementptr inbounds { <2 x float>, <2 x float> }, ptr %22, i32 0, i32 1
  store <2 x float> %1199, ptr %1203, align 4
  store <2 x float> %1200, ptr %23, align 4
  %1204 = getelementptr inbounds { <2 x float>, <2 x float> }, ptr %23, i32 0, i32 1
  store <2 x float> %1202, ptr %1204, align 4
  call void @llvm.dbg.declare(metadata ptr %22, metadata !2731, metadata !DIExpression()), !dbg !2863
  call void @llvm.dbg.declare(metadata ptr %23, metadata !2735, metadata !DIExpression()), !dbg !2865
  call void @llvm.memcpy.p0.p0.i64(ptr align 4 %24, ptr align 4 %22, i64 16, i1 false), !dbg !2866
  call void @llvm.memcpy.p0.p0.i64(ptr align 4 %25, ptr align 4 %23, i64 16, i1 false), !dbg !2867
  %1205 = load <2 x float>, ptr %24, align 4, !dbg !2868
  %1206 = getelementptr inbounds { <2 x float>, <2 x float> }, ptr %24, i32 0, i32 1, !dbg !2868
  %1207 = load <2 x float>, ptr %1206, align 4, !dbg !2868
  %1208 = load <2 x float>, ptr %25, align 4, !dbg !2868
  %1209 = getelementptr inbounds { <2 x float>, <2 x float> }, ptr %25, i32 0, i32 1, !dbg !2868
  %1210 = load <2 x float>, ptr %1209, align 4, !dbg !2868
  store <2 x float> %1205, ptr %9, align 4
  %1211 = getelementptr inbounds { <2 x float>, <2 x float> }, ptr %9, i32 0, i32 1
  store <2 x float> %1207, ptr %1211, align 4
  store <2 x float> %1208, ptr %10, align 4
  %1212 = getelementptr inbounds { <2 x float>, <2 x float> }, ptr %10, i32 0, i32 1
  store <2 x float> %1210, ptr %1212, align 4
  call void @llvm.dbg.declare(metadata ptr %9, metadata !2740, metadata !DIExpression()), !dbg !2869
  call void @llvm.dbg.declare(metadata ptr %10, metadata !2744, metadata !DIExpression()), !dbg !2871
  call void @llvm.dbg.declare(metadata ptr %8, metadata !2746, metadata !DIExpression()), !dbg !2872
  call void @_ZN5sse_fC2Ev(ptr noundef nonnull align 4 dereferenceable(16) %8), !dbg !2872
  call void @llvm.dbg.declare(metadata ptr %11, metadata !2748, metadata !DIExpression()), !dbg !2873
  store i32 0, ptr %11, align 4, !dbg !2873
  br label %1213, !dbg !2874

1213:                                             ; preds = %1236, %1184
  %1214 = load i32, ptr %11, align 4, !dbg !2875
  %1215 = icmp slt i32 %1214, 4, !dbg !2876
  br i1 %1215, label %1216, label %1243, !dbg !2877

1216:                                             ; preds = %1213
  %1217 = load i32, ptr %11, align 4, !dbg !2878
  %1218 = sext i32 %1217 to i64, !dbg !2878
  %1219 = getelementptr inbounds [4 x float], ptr %9, i64 0, i64 %1218, !dbg !2878
  %1220 = load float, ptr %1219, align 4, !dbg !2878
  %1221 = load i32, ptr %11, align 4, !dbg !2878
  %1222 = sext i32 %1221 to i64, !dbg !2878
  %1223 = getelementptr inbounds [4 x float], ptr %10, i64 0, i64 %1222, !dbg !2878
  %1224 = load float, ptr %1223, align 4, !dbg !2878
  %1225 = fcmp ogt float %1220, %1224, !dbg !2878
  br i1 %1225, label %1226, label %1231, !dbg !2878

1226:                                             ; preds = %1216
  %1227 = load i32, ptr %11, align 4, !dbg !2878
  %1228 = sext i32 %1227 to i64, !dbg !2878
  %1229 = getelementptr inbounds [4 x float], ptr %9, i64 0, i64 %1228, !dbg !2878
  %1230 = load float, ptr %1229, align 4, !dbg !2878
  br label %1236, !dbg !2878

1231:                                             ; preds = %1216
  %1232 = load i32, ptr %11, align 4, !dbg !2878
  %1233 = sext i32 %1232 to i64, !dbg !2878
  %1234 = getelementptr inbounds [4 x float], ptr %10, i64 0, i64 %1233, !dbg !2878
  %1235 = load float, ptr %1234, align 4, !dbg !2878
  br label %1236, !dbg !2878

1236:                                             ; preds = %1231, %1226
  %1237 = phi float [ %1230, %1226 ], [ %1235, %1231 ], !dbg !2878
  %1238 = load i32, ptr %11, align 4, !dbg !2879
  %1239 = sext i32 %1238 to i64, !dbg !2879
  %1240 = getelementptr inbounds [4 x float], ptr %8, i64 0, i64 %1239, !dbg !2879
  store float %1237, ptr %1240, align 4, !dbg !2880
  %1241 = load i32, ptr %11, align 4, !dbg !2881
  %1242 = add nsw i32 %1241, 1, !dbg !2881
  store i32 %1242, ptr %11, align 4, !dbg !2881
  br label %1213, !dbg !2882, !llvm.loop !2883

1243:                                             ; preds = %1213
  %1244 = load { <2 x float>, <2 x float> }, ptr %8, align 4, !dbg !2885
  %1245 = extractvalue { <2 x float>, <2 x float> } %1244, 0, !dbg !2868
  store <2 x float> %1245, ptr %21, align 4, !dbg !2868
  %1246 = getelementptr inbounds { <2 x float>, <2 x float> }, ptr %21, i32 0, i32 1, !dbg !2868
  %1247 = extractvalue { <2 x float>, <2 x float> } %1244, 1, !dbg !2868
  store <2 x float> %1247, ptr %1246, align 4, !dbg !2868
  %1248 = load { <2 x float>, <2 x float> }, ptr %21, align 4, !dbg !2886
  %1249 = extractvalue { <2 x float>, <2 x float> } %1248, 0, !dbg !2862
  store <2 x float> %1249, ptr %77, align 4, !dbg !2862
  %1250 = getelementptr inbounds { <2 x float>, <2 x float> }, ptr %77, i32 0, i32 1, !dbg !2862
  %1251 = extractvalue { <2 x float>, <2 x float> } %1248, 1, !dbg !2862
  store <2 x float> %1251, ptr %1250, align 4, !dbg !2862
  %1252 = load ptr, ptr %75, align 8, !dbg !2887
  %1253 = load i32, ptr %76, align 4, !dbg !2888
  store ptr %1252, ptr %71, align 8
  call void @llvm.dbg.declare(metadata ptr %71, metadata !2644, metadata !DIExpression()), !dbg !2889
  store i32 %1253, ptr %72, align 4
  call void @llvm.dbg.declare(metadata ptr %72, metadata !2648, metadata !DIExpression()), !dbg !2891
  %1254 = load ptr, ptr %71, align 8
  %1255 = load i32, ptr %72, align 4, !dbg !2892
  %1256 = sext i32 %1255 to i64, !dbg !2893
  %1257 = getelementptr inbounds [1 x %struct.sse_f], ptr %1254, i64 0, i64 %1256, !dbg !2893
  call void @llvm.memcpy.p0.p0.i64(ptr align 4 %1257, ptr align 4 %77, i64 16, i1 false), !dbg !2894
  %1258 = load i32, ptr %76, align 4, !dbg !2895
  %1259 = add nsw i32 %1258, 1, !dbg !2895
  store i32 %1259, ptr %76, align 4, !dbg !2895
  br label %1181, !dbg !2896, !llvm.loop !2897

1260:                                             ; preds = %1181
  %1261 = load ptr, ptr %230, align 8, !dbg !2899
  %1262 = getelementptr inbounds %"struct.RTTL::BinnedAllDimsSaveSpace::BinTable", ptr %1261, i32 0, i32 1, !dbg !2900
  %1263 = getelementptr inbounds [3 x [32 x %"class.RTTL::AABB"]], ptr %1262, i64 0, i64 2, !dbg !2899
  %1264 = load i32, ptr %239, align 4, !dbg !2901
  %1265 = sext i32 %1264 to i64, !dbg !2899
  %1266 = getelementptr inbounds [32 x %"class.RTTL::AABB"], ptr %1263, i64 0, i64 %1265, !dbg !2899
  store ptr %1266, ptr %223, align 8
  call void @llvm.dbg.declare(metadata ptr %223, metadata !2618, metadata !DIExpression()), !dbg !2902
  store ptr %240, ptr %224, align 8
  call void @llvm.dbg.declare(metadata ptr %224, metadata !2622, metadata !DIExpression()), !dbg !2904
  %1267 = load ptr, ptr %223, align 8
  %1268 = load ptr, ptr %224, align 8, !dbg !2905
  store ptr %1267, ptr %95, align 8
  call void @llvm.dbg.declare(metadata ptr %95, metadata !2625, metadata !DIExpression()), !dbg !2906
  store ptr %1268, ptr %96, align 8
  call void @llvm.dbg.declare(metadata ptr %96, metadata !2629, metadata !DIExpression()), !dbg !2908
  %1269 = load ptr, ptr %95, align 8
  call void @llvm.dbg.declare(metadata ptr %97, metadata !2631, metadata !DIExpression()), !dbg !2909
  %1270 = call noundef nonnull align 4 dereferenceable(16) ptr @_ZN4RTTL7RTVec_tILi1E5sse_fLi0EEcvRNS_8RTData_tILi1ES1_Li0EEEEv(ptr noundef nonnull align 4 dereferenceable(16) %1269), !dbg !2910
  store ptr %1270, ptr %97, align 8, !dbg !2909
  call void @llvm.dbg.declare(metadata ptr %98, metadata !2634, metadata !DIExpression()), !dbg !2911
  store i32 0, ptr %98, align 4, !dbg !2911
  br label %1271, !dbg !2912

1271:                                             ; preds = %1333, %1260
  %1272 = load i32, ptr %98, align 4, !dbg !2913
  %1273 = icmp slt i32 %1272, 1, !dbg !2914
  br i1 %1273, label %1274, label %1350, !dbg !2915

1274:                                             ; preds = %1271
  %1275 = load ptr, ptr %97, align 8, !dbg !2916
  %1276 = load i32, ptr %98, align 4, !dbg !2917
  store ptr %1275, ptr %91, align 8
  call void @llvm.dbg.declare(metadata ptr %91, metadata !2644, metadata !DIExpression()), !dbg !2918
  store i32 %1276, ptr %92, align 4
  call void @llvm.dbg.declare(metadata ptr %92, metadata !2648, metadata !DIExpression()), !dbg !2920
  %1277 = load ptr, ptr %91, align 8
  %1278 = load i32, ptr %92, align 4, !dbg !2921
  %1279 = sext i32 %1278 to i64, !dbg !2922
  %1280 = getelementptr inbounds [1 x %struct.sse_f], ptr %1277, i64 0, i64 %1279, !dbg !2922
  call void @llvm.memcpy.p0.p0.i64(ptr align 4 %100, ptr align 4 %1280, i64 16, i1 false), !dbg !2916
  %1281 = load ptr, ptr %96, align 8, !dbg !2923
  %1282 = load i32, ptr %98, align 4, !dbg !2924
  %1283 = call { <2 x float>, <2 x float> } @_ZNK4RTTL7RTVec_tILi1E5sse_fLi0EEixEi(ptr noundef nonnull align 4 dereferenceable(16) %1281, i32 noundef %1282), !dbg !2923
  %1284 = extractvalue { <2 x float>, <2 x float> } %1283, 0, !dbg !2923
  store <2 x float> %1284, ptr %101, align 4, !dbg !2923
  %1285 = getelementptr inbounds { <2 x float>, <2 x float> }, ptr %101, i32 0, i32 1, !dbg !2923
  %1286 = extractvalue { <2 x float>, <2 x float> } %1283, 1, !dbg !2923
  store <2 x float> %1286, ptr %1285, align 4, !dbg !2923
  %1287 = load <2 x float>, ptr %100, align 4, !dbg !2925
  %1288 = getelementptr inbounds { <2 x float>, <2 x float> }, ptr %100, i32 0, i32 1, !dbg !2925
  %1289 = load <2 x float>, ptr %1288, align 4, !dbg !2925
  %1290 = load <2 x float>, ptr %101, align 4, !dbg !2925
  %1291 = getelementptr inbounds { <2 x float>, <2 x float> }, ptr %101, i32 0, i32 1, !dbg !2925
  %1292 = load <2 x float>, ptr %1291, align 4, !dbg !2925
  store <2 x float> %1287, ptr %54, align 4
  %1293 = getelementptr inbounds { <2 x float>, <2 x float> }, ptr %54, i32 0, i32 1
  store <2 x float> %1289, ptr %1293, align 4
  store <2 x float> %1290, ptr %55, align 4
  %1294 = getelementptr inbounds { <2 x float>, <2 x float> }, ptr %55, i32 0, i32 1
  store <2 x float> %1292, ptr %1294, align 4
  call void @llvm.dbg.declare(metadata ptr %54, metadata !2655, metadata !DIExpression()), !dbg !2926
  call void @llvm.dbg.declare(metadata ptr %55, metadata !2659, metadata !DIExpression()), !dbg !2928
  call void @llvm.memcpy.p0.p0.i64(ptr align 4 %56, ptr align 4 %54, i64 16, i1 false), !dbg !2929
  call void @llvm.memcpy.p0.p0.i64(ptr align 4 %57, ptr align 4 %55, i64 16, i1 false), !dbg !2930
  %1295 = load <2 x float>, ptr %56, align 4, !dbg !2931
  %1296 = getelementptr inbounds { <2 x float>, <2 x float> }, ptr %56, i32 0, i32 1, !dbg !2931
  %1297 = load <2 x float>, ptr %1296, align 4, !dbg !2931
  %1298 = load <2 x float>, ptr %57, align 4, !dbg !2931
  %1299 = getelementptr inbounds { <2 x float>, <2 x float> }, ptr %57, i32 0, i32 1, !dbg !2931
  %1300 = load <2 x float>, ptr %1299, align 4, !dbg !2931
  store <2 x float> %1295, ptr %32, align 4
  %1301 = getelementptr inbounds { <2 x float>, <2 x float> }, ptr %32, i32 0, i32 1
  store <2 x float> %1297, ptr %1301, align 4
  store <2 x float> %1298, ptr %33, align 4
  %1302 = getelementptr inbounds { <2 x float>, <2 x float> }, ptr %33, i32 0, i32 1
  store <2 x float> %1300, ptr %1302, align 4
  call void @llvm.dbg.declare(metadata ptr %32, metadata !2664, metadata !DIExpression()), !dbg !2932
  call void @llvm.dbg.declare(metadata ptr %33, metadata !2668, metadata !DIExpression()), !dbg !2934
  call void @llvm.dbg.declare(metadata ptr %31, metadata !2670, metadata !DIExpression()), !dbg !2935
  call void @_ZN5sse_fC2Ev(ptr noundef nonnull align 4 dereferenceable(16) %31), !dbg !2935
  call void @llvm.dbg.declare(metadata ptr %34, metadata !2672, metadata !DIExpression()), !dbg !2936
  store i32 0, ptr %34, align 4, !dbg !2936
  br label %1303, !dbg !2937

1303:                                             ; preds = %1326, %1274
  %1304 = load i32, ptr %34, align 4, !dbg !2938
  %1305 = icmp slt i32 %1304, 4, !dbg !2939
  br i1 %1305, label %1306, label %1333, !dbg !2940

1306:                                             ; preds = %1303
  %1307 = load i32, ptr %34, align 4, !dbg !2941
  %1308 = sext i32 %1307 to i64, !dbg !2941
  %1309 = getelementptr inbounds [4 x float], ptr %32, i64 0, i64 %1308, !dbg !2941
  %1310 = load float, ptr %1309, align 4, !dbg !2941
  %1311 = load i32, ptr %34, align 4, !dbg !2941
  %1312 = sext i32 %1311 to i64, !dbg !2941
  %1313 = getelementptr inbounds [4 x float], ptr %33, i64 0, i64 %1312, !dbg !2941
  %1314 = load float, ptr %1313, align 4, !dbg !2941
  %1315 = fcmp olt float %1310, %1314, !dbg !2941
  br i1 %1315, label %1316, label %1321, !dbg !2941

1316:                                             ; preds = %1306
  %1317 = load i32, ptr %34, align 4, !dbg !2941
  %1318 = sext i32 %1317 to i64, !dbg !2941
  %1319 = getelementptr inbounds [4 x float], ptr %32, i64 0, i64 %1318, !dbg !2941
  %1320 = load float, ptr %1319, align 4, !dbg !2941
  br label %1326, !dbg !2941

1321:                                             ; preds = %1306
  %1322 = load i32, ptr %34, align 4, !dbg !2941
  %1323 = sext i32 %1322 to i64, !dbg !2941
  %1324 = getelementptr inbounds [4 x float], ptr %33, i64 0, i64 %1323, !dbg !2941
  %1325 = load float, ptr %1324, align 4, !dbg !2941
  br label %1326, !dbg !2941

1326:                                             ; preds = %1321, %1316
  %1327 = phi float [ %1320, %1316 ], [ %1325, %1321 ], !dbg !2941
  %1328 = load i32, ptr %34, align 4, !dbg !2942
  %1329 = sext i32 %1328 to i64, !dbg !2942
  %1330 = getelementptr inbounds [4 x float], ptr %31, i64 0, i64 %1329, !dbg !2942
  store float %1327, ptr %1330, align 4, !dbg !2943
  %1331 = load i32, ptr %34, align 4, !dbg !2944
  %1332 = add nsw i32 %1331, 1, !dbg !2944
  store i32 %1332, ptr %34, align 4, !dbg !2944
  br label %1303, !dbg !2945, !llvm.loop !2946

1333:                                             ; preds = %1303
  %1334 = load { <2 x float>, <2 x float> }, ptr %31, align 4, !dbg !2948
  %1335 = extractvalue { <2 x float>, <2 x float> } %1334, 0, !dbg !2931
  store <2 x float> %1335, ptr %53, align 4, !dbg !2931
  %1336 = getelementptr inbounds { <2 x float>, <2 x float> }, ptr %53, i32 0, i32 1, !dbg !2931
  %1337 = extractvalue { <2 x float>, <2 x float> } %1334, 1, !dbg !2931
  store <2 x float> %1337, ptr %1336, align 4, !dbg !2931
  %1338 = load { <2 x float>, <2 x float> }, ptr %53, align 4, !dbg !2949
  %1339 = extractvalue { <2 x float>, <2 x float> } %1338, 0, !dbg !2925
  store <2 x float> %1339, ptr %99, align 4, !dbg !2925
  %1340 = getelementptr inbounds { <2 x float>, <2 x float> }, ptr %99, i32 0, i32 1, !dbg !2925
  %1341 = extractvalue { <2 x float>, <2 x float> } %1338, 1, !dbg !2925
  store <2 x float> %1341, ptr %1340, align 4, !dbg !2925
  %1342 = load ptr, ptr %97, align 8, !dbg !2950
  %1343 = load i32, ptr %98, align 4, !dbg !2951
  store ptr %1342, ptr %93, align 8
  call void @llvm.dbg.declare(metadata ptr %93, metadata !2644, metadata !DIExpression()), !dbg !2952
  store i32 %1343, ptr %94, align 4
  call void @llvm.dbg.declare(metadata ptr %94, metadata !2648, metadata !DIExpression()), !dbg !2954
  %1344 = load ptr, ptr %93, align 8
  %1345 = load i32, ptr %94, align 4, !dbg !2955
  %1346 = sext i32 %1345 to i64, !dbg !2956
  %1347 = getelementptr inbounds [1 x %struct.sse_f], ptr %1344, i64 0, i64 %1346, !dbg !2956
  call void @llvm.memcpy.p0.p0.i64(ptr align 4 %1347, ptr align 4 %99, i64 16, i1 false), !dbg !2957
  %1348 = load i32, ptr %98, align 4, !dbg !2958
  %1349 = add nsw i32 %1348, 1, !dbg !2958
  store i32 %1349, ptr %98, align 4, !dbg !2958
  br label %1271, !dbg !2959, !llvm.loop !2960

1350:                                             ; preds = %1271
  %1351 = getelementptr inbounds %"class.RTTL::RTBox_t", ptr %1267, i32 0, i32 1, !dbg !2962
  %1352 = load ptr, ptr %224, align 8, !dbg !2963
  %1353 = getelementptr inbounds %"class.RTTL::RTBox_t", ptr %1352, i32 0, i32 1, !dbg !2964
  store ptr %1351, ptr %62, align 8
  call void @llvm.dbg.declare(metadata ptr %62, metadata !2704, metadata !DIExpression()), !dbg !2965
  store ptr %1353, ptr %63, align 8
  call void @llvm.dbg.declare(metadata ptr %63, metadata !2708, metadata !DIExpression()), !dbg !2967
  %1354 = load ptr, ptr %62, align 8
  call void @llvm.dbg.declare(metadata ptr %64, metadata !2710, metadata !DIExpression()), !dbg !2968
  %1355 = call noundef nonnull align 4 dereferenceable(16) ptr @_ZN4RTTL7RTVec_tILi1E5sse_fLi0EEcvRNS_8RTData_tILi1ES1_Li0EEEEv(ptr noundef nonnull align 4 dereferenceable(16) %1354), !dbg !2969
  store ptr %1355, ptr %64, align 8, !dbg !2968
  call void @llvm.dbg.declare(metadata ptr %65, metadata !2713, metadata !DIExpression()), !dbg !2970
  store i32 0, ptr %65, align 4, !dbg !2970
  br label %1356, !dbg !2971

1356:                                             ; preds = %1418, %1350
  %1357 = load i32, ptr %65, align 4, !dbg !2972
  %1358 = icmp slt i32 %1357, 1, !dbg !2973
  br i1 %1358, label %1359, label %1435, !dbg !2974

1359:                                             ; preds = %1356
  %1360 = load ptr, ptr %64, align 8, !dbg !2975
  %1361 = load i32, ptr %65, align 4, !dbg !2976
  store ptr %1360, ptr %58, align 8
  call void @llvm.dbg.declare(metadata ptr %58, metadata !2644, metadata !DIExpression()), !dbg !2977
  store i32 %1361, ptr %59, align 4
  call void @llvm.dbg.declare(metadata ptr %59, metadata !2648, metadata !DIExpression()), !dbg !2979
  %1362 = load ptr, ptr %58, align 8
  %1363 = load i32, ptr %59, align 4, !dbg !2980
  %1364 = sext i32 %1363 to i64, !dbg !2981
  %1365 = getelementptr inbounds [1 x %struct.sse_f], ptr %1362, i64 0, i64 %1364, !dbg !2981
  call void @llvm.memcpy.p0.p0.i64(ptr align 4 %67, ptr align 4 %1365, i64 16, i1 false), !dbg !2975
  %1366 = load ptr, ptr %63, align 8, !dbg !2982
  %1367 = load i32, ptr %65, align 4, !dbg !2983
  %1368 = call { <2 x float>, <2 x float> } @_ZNK4RTTL7RTVec_tILi1E5sse_fLi0EEixEi(ptr noundef nonnull align 4 dereferenceable(16) %1366, i32 noundef %1367), !dbg !2982
  %1369 = extractvalue { <2 x float>, <2 x float> } %1368, 0, !dbg !2982
  store <2 x float> %1369, ptr %68, align 4, !dbg !2982
  %1370 = getelementptr inbounds { <2 x float>, <2 x float> }, ptr %68, i32 0, i32 1, !dbg !2982
  %1371 = extractvalue { <2 x float>, <2 x float> } %1368, 1, !dbg !2982
  store <2 x float> %1371, ptr %1370, align 4, !dbg !2982
  %1372 = load <2 x float>, ptr %67, align 4, !dbg !2984
  %1373 = getelementptr inbounds { <2 x float>, <2 x float> }, ptr %67, i32 0, i32 1, !dbg !2984
  %1374 = load <2 x float>, ptr %1373, align 4, !dbg !2984
  %1375 = load <2 x float>, ptr %68, align 4, !dbg !2984
  %1376 = getelementptr inbounds { <2 x float>, <2 x float> }, ptr %68, i32 0, i32 1, !dbg !2984
  %1377 = load <2 x float>, ptr %1376, align 4, !dbg !2984
  store <2 x float> %1372, ptr %27, align 4
  %1378 = getelementptr inbounds { <2 x float>, <2 x float> }, ptr %27, i32 0, i32 1
  store <2 x float> %1374, ptr %1378, align 4
  store <2 x float> %1375, ptr %28, align 4
  %1379 = getelementptr inbounds { <2 x float>, <2 x float> }, ptr %28, i32 0, i32 1
  store <2 x float> %1377, ptr %1379, align 4
  call void @llvm.dbg.declare(metadata ptr %27, metadata !2731, metadata !DIExpression()), !dbg !2985
  call void @llvm.dbg.declare(metadata ptr %28, metadata !2735, metadata !DIExpression()), !dbg !2987
  call void @llvm.memcpy.p0.p0.i64(ptr align 4 %29, ptr align 4 %27, i64 16, i1 false), !dbg !2988
  call void @llvm.memcpy.p0.p0.i64(ptr align 4 %30, ptr align 4 %28, i64 16, i1 false), !dbg !2989
  %1380 = load <2 x float>, ptr %29, align 4, !dbg !2990
  %1381 = getelementptr inbounds { <2 x float>, <2 x float> }, ptr %29, i32 0, i32 1, !dbg !2990
  %1382 = load <2 x float>, ptr %1381, align 4, !dbg !2990
  %1383 = load <2 x float>, ptr %30, align 4, !dbg !2990
  %1384 = getelementptr inbounds { <2 x float>, <2 x float> }, ptr %30, i32 0, i32 1, !dbg !2990
  %1385 = load <2 x float>, ptr %1384, align 4, !dbg !2990
  store <2 x float> %1380, ptr %5, align 4
  %1386 = getelementptr inbounds { <2 x float>, <2 x float> }, ptr %5, i32 0, i32 1
  store <2 x float> %1382, ptr %1386, align 4
  store <2 x float> %1383, ptr %6, align 4
  %1387 = getelementptr inbounds { <2 x float>, <2 x float> }, ptr %6, i32 0, i32 1
  store <2 x float> %1385, ptr %1387, align 4
  call void @llvm.dbg.declare(metadata ptr %5, metadata !2740, metadata !DIExpression()), !dbg !2991
  call void @llvm.dbg.declare(metadata ptr %6, metadata !2744, metadata !DIExpression()), !dbg !2993
  call void @llvm.dbg.declare(metadata ptr %4, metadata !2746, metadata !DIExpression()), !dbg !2994
  call void @_ZN5sse_fC2Ev(ptr noundef nonnull align 4 dereferenceable(16) %4), !dbg !2994
  call void @llvm.dbg.declare(metadata ptr %7, metadata !2748, metadata !DIExpression()), !dbg !2995
  store i32 0, ptr %7, align 4, !dbg !2995
  br label %1388, !dbg !2996

1388:                                             ; preds = %1411, %1359
  %1389 = load i32, ptr %7, align 4, !dbg !2997
  %1390 = icmp slt i32 %1389, 4, !dbg !2998
  br i1 %1390, label %1391, label %1418, !dbg !2999

1391:                                             ; preds = %1388
  %1392 = load i32, ptr %7, align 4, !dbg !3000
  %1393 = sext i32 %1392 to i64, !dbg !3000
  %1394 = getelementptr inbounds [4 x float], ptr %5, i64 0, i64 %1393, !dbg !3000
  %1395 = load float, ptr %1394, align 4, !dbg !3000
  %1396 = load i32, ptr %7, align 4, !dbg !3000
  %1397 = sext i32 %1396 to i64, !dbg !3000
  %1398 = getelementptr inbounds [4 x float], ptr %6, i64 0, i64 %1397, !dbg !3000
  %1399 = load float, ptr %1398, align 4, !dbg !3000
  %1400 = fcmp ogt float %1395, %1399, !dbg !3000
  br i1 %1400, label %1401, label %1406, !dbg !3000

1401:                                             ; preds = %1391
  %1402 = load i32, ptr %7, align 4, !dbg !3000
  %1403 = sext i32 %1402 to i64, !dbg !3000
  %1404 = getelementptr inbounds [4 x float], ptr %5, i64 0, i64 %1403, !dbg !3000
  %1405 = load float, ptr %1404, align 4, !dbg !3000
  br label %1411, !dbg !3000

1406:                                             ; preds = %1391
  %1407 = load i32, ptr %7, align 4, !dbg !3000
  %1408 = sext i32 %1407 to i64, !dbg !3000
  %1409 = getelementptr inbounds [4 x float], ptr %6, i64 0, i64 %1408, !dbg !3000
  %1410 = load float, ptr %1409, align 4, !dbg !3000
  br label %1411, !dbg !3000

1411:                                             ; preds = %1406, %1401
  %1412 = phi float [ %1405, %1401 ], [ %1410, %1406 ], !dbg !3000
  %1413 = load i32, ptr %7, align 4, !dbg !3001
  %1414 = sext i32 %1413 to i64, !dbg !3001
  %1415 = getelementptr inbounds [4 x float], ptr %4, i64 0, i64 %1414, !dbg !3001
  store float %1412, ptr %1415, align 4, !dbg !3002
  %1416 = load i32, ptr %7, align 4, !dbg !3003
  %1417 = add nsw i32 %1416, 1, !dbg !3003
  store i32 %1417, ptr %7, align 4, !dbg !3003
  br label %1388, !dbg !3004, !llvm.loop !3005

1418:                                             ; preds = %1388
  %1419 = load { <2 x float>, <2 x float> }, ptr %4, align 4, !dbg !3007
  %1420 = extractvalue { <2 x float>, <2 x float> } %1419, 0, !dbg !2990
  store <2 x float> %1420, ptr %26, align 4, !dbg !2990
  %1421 = getelementptr inbounds { <2 x float>, <2 x float> }, ptr %26, i32 0, i32 1, !dbg !2990
  %1422 = extractvalue { <2 x float>, <2 x float> } %1419, 1, !dbg !2990
  store <2 x float> %1422, ptr %1421, align 4, !dbg !2990
  %1423 = load { <2 x float>, <2 x float> }, ptr %26, align 4, !dbg !3008
  %1424 = extractvalue { <2 x float>, <2 x float> } %1423, 0, !dbg !2984
  store <2 x float> %1424, ptr %66, align 4, !dbg !2984
  %1425 = getelementptr inbounds { <2 x float>, <2 x float> }, ptr %66, i32 0, i32 1, !dbg !2984
  %1426 = extractvalue { <2 x float>, <2 x float> } %1423, 1, !dbg !2984
  store <2 x float> %1426, ptr %1425, align 4, !dbg !2984
  %1427 = load ptr, ptr %64, align 8, !dbg !3009
  %1428 = load i32, ptr %65, align 4, !dbg !3010
  store ptr %1427, ptr %60, align 8
  call void @llvm.dbg.declare(metadata ptr %60, metadata !2644, metadata !DIExpression()), !dbg !3011
  store i32 %1428, ptr %61, align 4
  call void @llvm.dbg.declare(metadata ptr %61, metadata !2648, metadata !DIExpression()), !dbg !3013
  %1429 = load ptr, ptr %60, align 8
  %1430 = load i32, ptr %61, align 4, !dbg !3014
  %1431 = sext i32 %1430 to i64, !dbg !3015
  %1432 = getelementptr inbounds [1 x %struct.sse_f], ptr %1429, i64 0, i64 %1431, !dbg !3015
  call void @llvm.memcpy.p0.p0.i64(ptr align 4 %1432, ptr align 4 %66, i64 16, i1 false), !dbg !3016
  %1433 = load i32, ptr %65, align 4, !dbg !3017
  %1434 = add nsw i32 %1433, 1, !dbg !3017
  store i32 %1434, ptr %65, align 4, !dbg !3017
  br label %1356, !dbg !3018, !llvm.loop !3019

1435:                                             ; preds = %1356
  %1436 = load ptr, ptr %230, align 8, !dbg !3021
  %1437 = load i32, ptr %237, align 4, !dbg !3022
  %1438 = sext i32 %1437 to i64, !dbg !3021
  %1439 = getelementptr inbounds [32 x i32], ptr %1436, i64 0, i64 %1438, !dbg !3021
  %1440 = load i32, ptr %1439, align 4, !dbg !3023
  %1441 = add nsw i32 %1440, 1, !dbg !3023
  store i32 %1441, ptr %1439, align 4, !dbg !3023
  %1442 = load ptr, ptr %230, align 8, !dbg !3024
  %1443 = getelementptr inbounds [3 x [32 x i32]], ptr %1442, i64 0, i64 1, !dbg !3024
  %1444 = load i32, ptr %238, align 4, !dbg !3025
  %1445 = sext i32 %1444 to i64, !dbg !3024
  %1446 = getelementptr inbounds [32 x i32], ptr %1443, i64 0, i64 %1445, !dbg !3024
  %1447 = load i32, ptr %1446, align 4, !dbg !3026
  %1448 = add nsw i32 %1447, 1, !dbg !3026
  store i32 %1448, ptr %1446, align 4, !dbg !3026
  %1449 = load ptr, ptr %230, align 8, !dbg !3027
  %1450 = getelementptr inbounds [3 x [32 x i32]], ptr %1449, i64 0, i64 2, !dbg !3027
  %1451 = load i32, ptr %239, align 4, !dbg !3028
  %1452 = sext i32 %1451 to i64, !dbg !3027
  %1453 = getelementptr inbounds [32 x i32], ptr %1450, i64 0, i64 %1452, !dbg !3027
  %1454 = load i32, ptr %1453, align 4, !dbg !3029
  %1455 = add nsw i32 %1454, 1, !dbg !3029
  store i32 %1455, ptr %1453, align 4, !dbg !3029
  %1456 = load ptr, ptr %276, align 8, !dbg !3030
  %1457 = load i32, ptr %281, align 4, !dbg !3031
  %1458 = sext i32 %1457 to i64, !dbg !3030
  %1459 = getelementptr inbounds %"class.RTTL::CentroidDiffAABB", ptr %1456, i64 %1458, !dbg !3030
  %1460 = call noundef nonnull align 4 dereferenceable(32) ptr @_ZN4RTTL16CentroidDiffAABBaSERKS0_(ptr noundef nonnull align 4 dereferenceable(32) %1459, ptr noundef nonnull align 4 dereferenceable(32) %282), !dbg !3032
  br label %1461, !dbg !3033

1461:                                             ; preds = %1435
  %1462 = load i32, ptr %281, align 4, !dbg !3034
  %1463 = add nsw i32 %1462, 1, !dbg !3034
  store i32 %1463, ptr %281, align 4, !dbg !3034
  br label %770, !dbg !3035, !llvm.loop !3036

1464:                                             ; preds = %770
  call void @llvm.dbg.declare(metadata ptr %283, metadata !3038, metadata !DIExpression()), !dbg !3039
  store i32 1, ptr %283, align 4, !dbg !3039
  %1465 = load ptr, ptr %276, align 8, !dbg !3040
  %1466 = load i32, ptr %275, align 4, !dbg !3041
  %1467 = load ptr, ptr %272, align 8, !dbg !3042
  call void @_ZN4RTTL4AABBC2ERKNS_7RTBox3aE(ptr noundef nonnull align 4 dereferenceable(32) %284, ptr noundef nonnull align 4 dereferenceable(32) %1467), !dbg !3042
  %1468 = load ptr, ptr %273, align 8, !dbg !3043
  call void @_ZN4RTTL4AABBC2ERKNS_7RTBox3aE(ptr noundef nonnull align 4 dereferenceable(32) %285, ptr noundef nonnull align 4 dereferenceable(32) %1468), !dbg !3043
  call void @_ZN4RTTL22BinnedAllDimsSaveSpace18recursiveBuildFastEPKNS_16CentroidDiffAABBEiRiiiRKNS_4AABBES7_b(ptr noundef nonnull align 8 dereferenceable(16) %286, ptr noundef %1465, i32 noundef 0, ptr noundef nonnull align 4 dereferenceable(4) %283, i32 noundef 0, i32 noundef %1466, ptr noundef nonnull align 4 dereferenceable(32) %284, ptr noundef nonnull align 4 dereferenceable(32) %285, i1 noundef zeroext true), !dbg !3044
  %1469 = getelementptr inbounds %"class.RTTL::BVHBuilder", ptr %286, i32 0, i32 1, !dbg !3045
  %1470 = load ptr, ptr %1469, align 8, !dbg !3045
  %1471 = load ptr, ptr %274, align 8, !dbg !3046
  %1472 = load ptr, ptr %1470, align 8, !dbg !3047
  %1473 = getelementptr inbounds ptr, ptr %1472, i64 2, !dbg !3047
  %1474 = load ptr, ptr %1473, align 8, !dbg !3047
  call void %1474(ptr noundef nonnull align 8 dereferenceable(40) %1470, ptr noundef %1471), !dbg !3047
  ret void, !dbg !3048
}

; Function Attrs: nocallback nofree nosync nounwind speculatable willreturn memory(none)
declare void @llvm.dbg.declare(metadata, metadata, metadata) #7

declare void @_ZN4RTTL3BVH7reserveEi(ptr noundef nonnull align 8 dereferenceable(40), i32 noundef) #1

; Function Attrs: nocallback nofree nounwind willreturn memory(argmem: readwrite)
declare void @llvm.memcpy.p0.p0.i64(ptr noalias nocapture writeonly, ptr noalias nocapture readonly, i64, i1 immarg) #8

; Function Attrs: noinline optnone uwtable
define linkonce_odr dso_local void @_ZN4RTTL16CentroidDiffAABBC2ERKNS_7RTBox3aE(ptr noundef nonnull align 4 dereferenceable(32) %0, ptr noundef nonnull align 4 dereferenceable(32) %1) unnamed_addr #9 comdat align 2 !dbg !3049 {
  %3 = alloca %struct.sse_f, align 4
  %4 = alloca %struct.sse_f, align 4
  %5 = alloca %struct.sse_f, align 4
  %6 = alloca i32, align 4
  %7 = alloca %struct.sse_f, align 4
  %8 = alloca %struct.sse_f, align 4
  %9 = alloca %struct.sse_f, align 4
  %10 = alloca i32, align 4
  %11 = alloca %struct.sse_f, align 4
  %12 = alloca float, align 4
  %13 = alloca i32, align 4
  %14 = alloca %struct.sse_f, align 4
  %15 = alloca float, align 4
  %16 = alloca %struct.sse_f, align 4
  %17 = alloca %struct.sse_f, align 4
  %18 = alloca %struct.sse_f, align 4
  %19 = alloca i32, align 4
  %20 = alloca ptr, align 8
  %21 = alloca %struct.sse_f, align 4
  %22 = alloca %struct.sse_f, align 4
  %23 = alloca %struct.sse_f, align 4
  %24 = alloca %struct.sse_f, align 4
  %25 = alloca %struct.sse_f, align 4
  %26 = alloca ptr, align 8
  %27 = alloca ptr, align 8
  %28 = alloca %struct.sse_f, align 4
  %29 = alloca %struct.sse_f, align 4
  %30 = alloca float, align 4
  %31 = alloca %struct.sse_f, align 4
  %32 = alloca %struct.sse_f, align 4
  %33 = alloca %struct.sse_f, align 4
  %34 = alloca %struct.sse_f, align 4
  %35 = alloca %struct.sse_f, align 4
  %36 = alloca %struct.sse_f, align 4
  %37 = alloca %struct.sse_f, align 4
  %38 = alloca ptr, align 8
  %39 = alloca ptr, align 8
  %40 = alloca ptr, align 8
  %41 = alloca i32, align 4
  %42 = alloca %struct.sse_f, align 4
  %43 = alloca %struct.sse_f, align 4
  %44 = alloca %struct.sse_f, align 4
  %45 = alloca %"class.RTTL::RTVec_t", align 4
  %46 = alloca ptr, align 8
  %47 = alloca ptr, align 8
  %48 = alloca %"class.RTTL::RTVec_t", align 4
  %49 = alloca ptr, align 8
  %50 = alloca %struct.sse_f, align 4
  %51 = alloca ptr, align 8
  %52 = alloca %"class.RTTL::RTVec_t", align 4
  %53 = alloca %struct.sse_f, align 4
  %54 = alloca ptr, align 8
  %55 = alloca ptr, align 8
  %56 = alloca ptr, align 8
  %57 = alloca %struct.sse_f, align 4
  %58 = alloca %struct.sse_f, align 4
  %59 = alloca %struct.sse_f, align 4
  %60 = alloca %struct.sse_f, align 4
  %61 = alloca %struct.sse_f, align 4
  store ptr %0, ptr %55, align 8
  call void @llvm.dbg.declare(metadata ptr %55, metadata !3050, metadata !DIExpression()), !dbg !3051
  store ptr %1, ptr %56, align 8
  call void @llvm.dbg.declare(metadata ptr %56, metadata !3052, metadata !DIExpression()), !dbg !3053
  %62 = load ptr, ptr %55, align 8
  call void @_ZN4RTTL7RTBox3aC2Ev(ptr noundef nonnull align 4 dereferenceable(32) %62), !dbg !3054
  %63 = load ptr, ptr %56, align 8, !dbg !3055
  store ptr %63, ptr %51, align 8
  call void @llvm.dbg.declare(metadata ptr %51, metadata !2121, metadata !DIExpression()), !dbg !3057
  %64 = load ptr, ptr %51, align 8
  store ptr %64, ptr %49, align 8
  call void @llvm.dbg.declare(metadata ptr %49, metadata !2125, metadata !DIExpression()), !dbg !3059
  %65 = load ptr, ptr %49, align 8
  %66 = getelementptr inbounds %"class.RTTL::RTBox_t", ptr %65, i32 0, i32 1, !dbg !3061
  store ptr %66, ptr %46, align 8
  call void @llvm.dbg.declare(metadata ptr %46, metadata !2131, metadata !DIExpression()), !dbg !3062
  store ptr %65, ptr %47, align 8
  call void @llvm.dbg.declare(metadata ptr %47, metadata !2139, metadata !DIExpression()), !dbg !3064
  call void @llvm.dbg.declare(metadata ptr %45, metadata !2141, metadata !DIExpression()), !dbg !3065
  call void @_ZN4RTTL7RTVec_tILi1E5sse_fLi0EEC2Ev(ptr noundef nonnull align 4 dereferenceable(16) %45), !dbg !3065
  %67 = call noundef nonnull align 4 dereferenceable(16) ptr @_ZN4RTTL7RTVec_tILi1E5sse_fLi0EE5arrayEv(ptr noundef nonnull align 4 dereferenceable(16) %45), !dbg !3066
  %68 = load ptr, ptr %46, align 8, !dbg !3067
  %69 = call noundef nonnull align 4 dereferenceable(16) ptr @_ZNK4RTTL7RTVec_tILi1E5sse_fLi0EE5arrayEv(ptr noundef nonnull align 4 dereferenceable(16) %68), !dbg !3068
  %70 = load ptr, ptr %47, align 8, !dbg !3069
  %71 = call noundef nonnull align 4 dereferenceable(16) ptr @_ZNK4RTTL7RTVec_tILi1E5sse_fLi0EE5arrayEv(ptr noundef nonnull align 4 dereferenceable(16) %70), !dbg !3070
  store ptr %67, ptr %38, align 8
  call void @llvm.dbg.declare(metadata ptr %38, metadata !2148, metadata !DIExpression()), !dbg !3071
  store ptr %69, ptr %39, align 8
  call void @llvm.dbg.declare(metadata ptr %39, metadata !2152, metadata !DIExpression()), !dbg !3073
  store ptr %71, ptr %40, align 8
  call void @llvm.dbg.declare(metadata ptr %40, metadata !2154, metadata !DIExpression()), !dbg !3074
  %72 = load ptr, ptr %38, align 8
  call void @llvm.dbg.declare(metadata ptr %41, metadata !2156, metadata !DIExpression()), !dbg !3075
  store i32 0, ptr %41, align 4, !dbg !3075
  br label %73, !dbg !3076

73:                                               ; preds = %119, %2
  %74 = load i32, ptr %41, align 4, !dbg !3077
  %75 = icmp slt i32 %74, 1, !dbg !3078
  br i1 %75, label %76, label %133, !dbg !3079

76:                                               ; preds = %73
  %77 = load ptr, ptr %39, align 8, !dbg !3080
  %78 = load i32, ptr %41, align 4, !dbg !3081
  %79 = sext i32 %78 to i64, !dbg !3080
  %80 = getelementptr inbounds [1 x %struct.sse_f], ptr %77, i64 0, i64 %79, !dbg !3080
  call void @llvm.memcpy.p0.p0.i64(ptr align 4 %43, ptr align 4 %80, i64 16, i1 false), !dbg !3080
  %81 = load ptr, ptr %40, align 8, !dbg !3082
  %82 = load i32, ptr %41, align 4, !dbg !3083
  %83 = sext i32 %82 to i64, !dbg !3082
  %84 = getelementptr inbounds [1 x %struct.sse_f], ptr %81, i64 0, i64 %83, !dbg !3082
  call void @llvm.memcpy.p0.p0.i64(ptr align 4 %44, ptr align 4 %84, i64 16, i1 false), !dbg !3082
  %85 = load <2 x float>, ptr %43, align 4, !dbg !3084
  %86 = getelementptr inbounds { <2 x float>, <2 x float> }, ptr %43, i32 0, i32 1, !dbg !3084
  %87 = load <2 x float>, ptr %86, align 4, !dbg !3084
  %88 = load <2 x float>, ptr %44, align 4, !dbg !3084
  %89 = getelementptr inbounds { <2 x float>, <2 x float> }, ptr %44, i32 0, i32 1, !dbg !3084
  %90 = load <2 x float>, ptr %89, align 4, !dbg !3084
  store <2 x float> %85, ptr %34, align 4
  %91 = getelementptr inbounds { <2 x float>, <2 x float> }, ptr %34, i32 0, i32 1
  store <2 x float> %87, ptr %91, align 4
  store <2 x float> %88, ptr %35, align 4
  %92 = getelementptr inbounds { <2 x float>, <2 x float> }, ptr %35, i32 0, i32 1
  store <2 x float> %90, ptr %92, align 4
  call void @llvm.dbg.declare(metadata ptr %34, metadata !2169, metadata !DIExpression()), !dbg !3085
  call void @llvm.dbg.declare(metadata ptr %35, metadata !2175, metadata !DIExpression()), !dbg !3087
  call void @llvm.memcpy.p0.p0.i64(ptr align 4 %36, ptr align 4 %34, i64 16, i1 false), !dbg !3088
  call void @llvm.memcpy.p0.p0.i64(ptr align 4 %37, ptr align 4 %35, i64 16, i1 false), !dbg !3089
  %93 = load <2 x float>, ptr %36, align 4, !dbg !3090
  %94 = getelementptr inbounds { <2 x float>, <2 x float> }, ptr %36, i32 0, i32 1, !dbg !3090
  %95 = load <2 x float>, ptr %94, align 4, !dbg !3090
  %96 = load <2 x float>, ptr %37, align 4, !dbg !3090
  %97 = getelementptr inbounds { <2 x float>, <2 x float> }, ptr %37, i32 0, i32 1, !dbg !3090
  %98 = load <2 x float>, ptr %97, align 4, !dbg !3090
  store <2 x float> %93, ptr %4, align 4
  %99 = getelementptr inbounds { <2 x float>, <2 x float> }, ptr %4, i32 0, i32 1
  store <2 x float> %95, ptr %99, align 4
  store <2 x float> %96, ptr %5, align 4
  %100 = getelementptr inbounds { <2 x float>, <2 x float> }, ptr %5, i32 0, i32 1
  store <2 x float> %98, ptr %100, align 4
  call void @llvm.dbg.declare(metadata ptr %4, metadata !2180, metadata !DIExpression()), !dbg !3091
  call void @llvm.dbg.declare(metadata ptr %5, metadata !2184, metadata !DIExpression()), !dbg !3093
  call void @llvm.dbg.declare(metadata ptr %3, metadata !2186, metadata !DIExpression()), !dbg !3094
  call void @_ZN5sse_fC2Ev(ptr noundef nonnull align 4 dereferenceable(16) %3), !dbg !3094
  call void @llvm.dbg.declare(metadata ptr %6, metadata !2188, metadata !DIExpression()), !dbg !3095
  store i32 0, ptr %6, align 4, !dbg !3095
  br label %101, !dbg !3096

101:                                              ; preds = %104, %76
  %102 = load i32, ptr %6, align 4, !dbg !3097
  %103 = icmp slt i32 %102, 4, !dbg !3098
  br i1 %103, label %104, label %119, !dbg !3099

104:                                              ; preds = %101
  %105 = load i32, ptr %6, align 4, !dbg !3100
  %106 = sext i32 %105 to i64, !dbg !3101
  %107 = getelementptr inbounds [4 x float], ptr %4, i64 0, i64 %106, !dbg !3101
  %108 = load float, ptr %107, align 4, !dbg !3101
  %109 = load i32, ptr %6, align 4, !dbg !3102
  %110 = sext i32 %109 to i64, !dbg !3103
  %111 = getelementptr inbounds [4 x float], ptr %5, i64 0, i64 %110, !dbg !3103
  %112 = load float, ptr %111, align 4, !dbg !3103
  %113 = fsub float %108, %112, !dbg !3104
  %114 = load i32, ptr %6, align 4, !dbg !3105
  %115 = sext i32 %114 to i64, !dbg !3106
  %116 = getelementptr inbounds [4 x float], ptr %3, i64 0, i64 %115, !dbg !3106
  store float %113, ptr %116, align 4, !dbg !3107
  %117 = load i32, ptr %6, align 4, !dbg !3108
  %118 = add nsw i32 %117, 1, !dbg !3108
  store i32 %118, ptr %6, align 4, !dbg !3108
  br label %101, !dbg !3109, !llvm.loop !3110

119:                                              ; preds = %101
  %120 = load { <2 x float>, <2 x float> }, ptr %3, align 4, !dbg !3112
  %121 = extractvalue { <2 x float>, <2 x float> } %120, 0, !dbg !3090
  store <2 x float> %121, ptr %33, align 4, !dbg !3090
  %122 = getelementptr inbounds { <2 x float>, <2 x float> }, ptr %33, i32 0, i32 1, !dbg !3090
  %123 = extractvalue { <2 x float>, <2 x float> } %120, 1, !dbg !3090
  store <2 x float> %123, ptr %122, align 4, !dbg !3090
  %124 = load { <2 x float>, <2 x float> }, ptr %33, align 4, !dbg !3113
  %125 = extractvalue { <2 x float>, <2 x float> } %124, 0, !dbg !3084
  store <2 x float> %125, ptr %42, align 4, !dbg !3084
  %126 = getelementptr inbounds { <2 x float>, <2 x float> }, ptr %42, i32 0, i32 1, !dbg !3084
  %127 = extractvalue { <2 x float>, <2 x float> } %124, 1, !dbg !3084
  store <2 x float> %127, ptr %126, align 4, !dbg !3084
  %128 = load i32, ptr %41, align 4, !dbg !3114
  %129 = sext i32 %128 to i64, !dbg !3115
  %130 = getelementptr inbounds [1 x %struct.sse_f], ptr %72, i64 0, i64 %129, !dbg !3115
  call void @llvm.memcpy.p0.p0.i64(ptr align 4 %130, ptr align 4 %42, i64 16, i1 false), !dbg !3116
  %131 = load i32, ptr %41, align 4, !dbg !3117
  %132 = add nsw i32 %131, 1, !dbg !3117
  store i32 %132, ptr %41, align 4, !dbg !3117
  br label %73, !dbg !3118, !llvm.loop !3119

133:                                              ; preds = %73
  %134 = load { <2 x float>, <2 x float> }, ptr %45, align 4, !dbg !3121
  %135 = extractvalue { <2 x float>, <2 x float> } %134, 0, !dbg !3122
  store <2 x float> %135, ptr %48, align 4, !dbg !3122
  %136 = getelementptr inbounds { <2 x float>, <2 x float> }, ptr %48, i32 0, i32 1, !dbg !3122
  %137 = extractvalue { <2 x float>, <2 x float> } %134, 1, !dbg !3122
  store <2 x float> %137, ptr %136, align 4, !dbg !3122
  %138 = load { <2 x float>, <2 x float> }, ptr %48, align 4, !dbg !3123
  %139 = extractvalue { <2 x float>, <2 x float> } %138, 0, !dbg !3124
  store <2 x float> %139, ptr %52, align 4, !dbg !3124
  %140 = getelementptr inbounds { <2 x float>, <2 x float> }, ptr %52, i32 0, i32 1, !dbg !3124
  %141 = extractvalue { <2 x float>, <2 x float> } %138, 1, !dbg !3124
  store <2 x float> %141, ptr %140, align 4, !dbg !3124
  %142 = call noundef ptr @_ZN4RTTL7RTVec_tILi1E5sse_fLi0EEcvPS1_Ev(ptr noundef nonnull align 4 dereferenceable(16) %52), !dbg !3125
  call void @llvm.memcpy.p0.p0.i64(ptr align 4 %50, ptr align 4 %142, i64 16, i1 false), !dbg !3126
  %143 = load { <2 x float>, <2 x float> }, ptr %50, align 4, !dbg !3127
  %144 = getelementptr inbounds %struct.sse_f, ptr %58, i32 0, i32 0, !dbg !3128
  %145 = getelementptr inbounds { <2 x float>, <2 x float> }, ptr %144, i32 0, i32 0, !dbg !3128
  %146 = extractvalue { <2 x float>, <2 x float> } %143, 0, !dbg !3128
  store <2 x float> %146, ptr %145, align 4, !dbg !3128
  %147 = getelementptr inbounds { <2 x float>, <2 x float> }, ptr %144, i32 0, i32 1, !dbg !3128
  %148 = extractvalue { <2 x float>, <2 x float> } %143, 1, !dbg !3128
  store <2 x float> %148, ptr %147, align 4, !dbg !3128
  %149 = getelementptr inbounds { <2 x float>, <2 x float> }, ptr %58, i32 0, i32 0, !dbg !3129
  %150 = load <2 x float>, ptr %149, align 4, !dbg !3129
  %151 = getelementptr inbounds { <2 x float>, <2 x float> }, ptr %58, i32 0, i32 1, !dbg !3129
  %152 = load <2 x float>, ptr %151, align 4, !dbg !3129
  store <2 x float> %150, ptr %29, align 4
  %153 = getelementptr inbounds { <2 x float>, <2 x float> }, ptr %29, i32 0, i32 1
  store <2 x float> %152, ptr %153, align 4
  call void @llvm.dbg.declare(metadata ptr %29, metadata !3130, metadata !DIExpression()), !dbg !3134
  store float 5.000000e-01, ptr %30, align 4
  call void @llvm.dbg.declare(metadata ptr %30, metadata !3136, metadata !DIExpression()), !dbg !3137
  call void @llvm.memcpy.p0.p0.i64(ptr align 4 %31, ptr align 4 %29, i64 16, i1 false), !dbg !3138
  %154 = load float, ptr %30, align 4, !dbg !3139
  store float %154, ptr %15, align 4
  call void @llvm.dbg.declare(metadata ptr %15, metadata !3140, metadata !DIExpression()), !dbg !3143
  %155 = load float, ptr %15, align 4, !dbg !3145
  store float %155, ptr %12, align 4
  call void @llvm.dbg.declare(metadata ptr %12, metadata !1885, metadata !DIExpression()), !dbg !3146
  call void @llvm.dbg.declare(metadata ptr %11, metadata !1892, metadata !DIExpression()), !dbg !3148
  call void @_ZN5sse_fC2Ev(ptr noundef nonnull align 4 dereferenceable(16) %11), !dbg !3148
  call void @llvm.dbg.declare(metadata ptr %13, metadata !1894, metadata !DIExpression()), !dbg !3149
  store i32 0, ptr %13, align 4, !dbg !3149
  br label %156, !dbg !3150

156:                                              ; preds = %159, %133
  %157 = load i32, ptr %13, align 4, !dbg !3151
  %158 = icmp slt i32 %157, 4, !dbg !3152
  br i1 %158, label %159, label %166, !dbg !3153

159:                                              ; preds = %156
  %160 = load float, ptr %12, align 4, !dbg !3154
  %161 = load i32, ptr %13, align 4, !dbg !3155
  %162 = sext i32 %161 to i64, !dbg !3156
  %163 = getelementptr inbounds [4 x float], ptr %11, i64 0, i64 %162, !dbg !3156
  store float %160, ptr %163, align 4, !dbg !3157
  %164 = load i32, ptr %13, align 4, !dbg !3158
  %165 = add nsw i32 %164, 1, !dbg !3158
  store i32 %165, ptr %13, align 4, !dbg !3158
  br label %156, !dbg !3159, !llvm.loop !3160

166:                                              ; preds = %156
  %167 = load { <2 x float>, <2 x float> }, ptr %11, align 4, !dbg !3162
  %168 = extractvalue { <2 x float>, <2 x float> } %167, 0, !dbg !3163
  store <2 x float> %168, ptr %14, align 4, !dbg !3163
  %169 = getelementptr inbounds { <2 x float>, <2 x float> }, ptr %14, i32 0, i32 1, !dbg !3163
  %170 = extractvalue { <2 x float>, <2 x float> } %167, 1, !dbg !3163
  store <2 x float> %170, ptr %169, align 4, !dbg !3163
  %171 = load { <2 x float>, <2 x float> }, ptr %14, align 4, !dbg !3164
  %172 = extractvalue { <2 x float>, <2 x float> } %171, 0, !dbg !3165
  store <2 x float> %172, ptr %32, align 4, !dbg !3165
  %173 = getelementptr inbounds { <2 x float>, <2 x float> }, ptr %32, i32 0, i32 1, !dbg !3165
  %174 = extractvalue { <2 x float>, <2 x float> } %171, 1, !dbg !3165
  store <2 x float> %174, ptr %173, align 4, !dbg !3165
  %175 = load <2 x float>, ptr %31, align 4, !dbg !3166
  %176 = getelementptr inbounds { <2 x float>, <2 x float> }, ptr %31, i32 0, i32 1, !dbg !3166
  %177 = load <2 x float>, ptr %176, align 4, !dbg !3166
  %178 = load <2 x float>, ptr %32, align 4, !dbg !3166
  %179 = getelementptr inbounds { <2 x float>, <2 x float> }, ptr %32, i32 0, i32 1, !dbg !3166
  %180 = load <2 x float>, ptr %179, align 4, !dbg !3166
  store <2 x float> %175, ptr %17, align 4
  %181 = getelementptr inbounds { <2 x float>, <2 x float> }, ptr %17, i32 0, i32 1
  store <2 x float> %177, ptr %181, align 4
  store <2 x float> %178, ptr %18, align 4
  %182 = getelementptr inbounds { <2 x float>, <2 x float> }, ptr %18, i32 0, i32 1
  store <2 x float> %180, ptr %182, align 4
  call void @llvm.dbg.declare(metadata ptr %17, metadata !2541, metadata !DIExpression()), !dbg !3167
  call void @llvm.dbg.declare(metadata ptr %18, metadata !2545, metadata !DIExpression()), !dbg !3169
  call void @llvm.dbg.declare(metadata ptr %16, metadata !2547, metadata !DIExpression()), !dbg !3170
  call void @_ZN5sse_fC2Ev(ptr noundef nonnull align 4 dereferenceable(16) %16), !dbg !3170
  call void @llvm.dbg.declare(metadata ptr %19, metadata !2549, metadata !DIExpression()), !dbg !3171
  store i32 0, ptr %19, align 4, !dbg !3171
  br label %183, !dbg !3172

183:                                              ; preds = %186, %166
  %184 = load i32, ptr %19, align 4, !dbg !3173
  %185 = icmp slt i32 %184, 4, !dbg !3174
  br i1 %185, label %186, label %201, !dbg !3175

186:                                              ; preds = %183
  %187 = load i32, ptr %19, align 4, !dbg !3176
  %188 = sext i32 %187 to i64, !dbg !3176
  %189 = getelementptr inbounds [4 x float], ptr %17, i64 0, i64 %188, !dbg !3176
  %190 = load float, ptr %189, align 4, !dbg !3176
  %191 = load i32, ptr %19, align 4, !dbg !3177
  %192 = sext i32 %191 to i64, !dbg !3177
  %193 = getelementptr inbounds [4 x float], ptr %18, i64 0, i64 %192, !dbg !3177
  %194 = load float, ptr %193, align 4, !dbg !3177
  %195 = fmul float %190, %194, !dbg !3178
  %196 = load i32, ptr %19, align 4, !dbg !3179
  %197 = sext i32 %196 to i64, !dbg !3179
  %198 = getelementptr inbounds [4 x float], ptr %16, i64 0, i64 %197, !dbg !3179
  store float %195, ptr %198, align 4, !dbg !3180
  %199 = load i32, ptr %19, align 4, !dbg !3181
  %200 = add nsw i32 %199, 1, !dbg !3181
  store i32 %200, ptr %19, align 4, !dbg !3181
  br label %183, !dbg !3182, !llvm.loop !3183

201:                                              ; preds = %183
  %202 = load { <2 x float>, <2 x float> }, ptr %16, align 4, !dbg !3185
  %203 = extractvalue { <2 x float>, <2 x float> } %202, 0, !dbg !3166
  store <2 x float> %203, ptr %28, align 4, !dbg !3166
  %204 = getelementptr inbounds { <2 x float>, <2 x float> }, ptr %28, i32 0, i32 1, !dbg !3166
  %205 = extractvalue { <2 x float>, <2 x float> } %202, 1, !dbg !3166
  store <2 x float> %205, ptr %204, align 4, !dbg !3166
  %206 = load { <2 x float>, <2 x float> }, ptr %28, align 4, !dbg !3186
  %207 = getelementptr inbounds %struct.sse_f, ptr %57, i32 0, i32 0, !dbg !3129
  %208 = getelementptr inbounds { <2 x float>, <2 x float> }, ptr %207, i32 0, i32 0, !dbg !3129
  %209 = extractvalue { <2 x float>, <2 x float> } %206, 0, !dbg !3129
  store <2 x float> %209, ptr %208, align 4, !dbg !3129
  %210 = getelementptr inbounds { <2 x float>, <2 x float> }, ptr %207, i32 0, i32 1, !dbg !3129
  %211 = extractvalue { <2 x float>, <2 x float> } %206, 1, !dbg !3129
  store <2 x float> %211, ptr %210, align 4, !dbg !3129
  store ptr %62, ptr %26, align 8
  call void @llvm.dbg.declare(metadata ptr %26, metadata !3187, metadata !DIExpression()), !dbg !3190
  %212 = load ptr, ptr %26, align 8
  %213 = getelementptr inbounds %"class.RTTL::RTBox_t", ptr %212, i32 0, i32 1, !dbg !3192
  %214 = call noundef nonnull align 4 dereferenceable(16) ptr @_ZN4RTTL7RTVec_tILi1E5sse_fLi0EEixEi(ptr noundef nonnull align 4 dereferenceable(16) %213, i32 noundef 0), !dbg !3192
  call void @llvm.memcpy.p0.p0.i64(ptr align 4 %214, ptr align 4 %57, i64 16, i1 false), !dbg !3193
  %215 = load ptr, ptr %56, align 8, !dbg !3194
  store ptr %215, ptr %54, align 8
  call void @llvm.dbg.declare(metadata ptr %54, metadata !2110, metadata !DIExpression()), !dbg !3195
  %216 = load ptr, ptr %54, align 8
  %217 = call { <2 x float>, <2 x float> } @_ZNK4RTTL7RTVec_tILi1E5sse_fLi0EEixEi(ptr noundef nonnull align 4 dereferenceable(16) %216, i32 noundef 0), !dbg !3197
  %218 = extractvalue { <2 x float>, <2 x float> } %217, 0, !dbg !3197
  store <2 x float> %218, ptr %53, align 4, !dbg !3197
  %219 = getelementptr inbounds { <2 x float>, <2 x float> }, ptr %53, i32 0, i32 1, !dbg !3197
  %220 = extractvalue { <2 x float>, <2 x float> } %217, 1, !dbg !3197
  store <2 x float> %220, ptr %219, align 4, !dbg !3197
  %221 = load { <2 x float>, <2 x float> }, ptr %53, align 4, !dbg !3198
  %222 = getelementptr inbounds %struct.sse_f, ptr %60, i32 0, i32 0, !dbg !3199
  %223 = getelementptr inbounds { <2 x float>, <2 x float> }, ptr %222, i32 0, i32 0, !dbg !3199
  %224 = extractvalue { <2 x float>, <2 x float> } %221, 0, !dbg !3199
  store <2 x float> %224, ptr %223, align 4, !dbg !3199
  %225 = getelementptr inbounds { <2 x float>, <2 x float> }, ptr %222, i32 0, i32 1, !dbg !3199
  %226 = extractvalue { <2 x float>, <2 x float> } %221, 1, !dbg !3199
  store <2 x float> %226, ptr %225, align 4, !dbg !3199
  store ptr %62, ptr %27, align 8
  call void @llvm.dbg.declare(metadata ptr %27, metadata !3187, metadata !DIExpression()), !dbg !3200
  %227 = load ptr, ptr %27, align 8
  %228 = getelementptr inbounds %"class.RTTL::RTBox_t", ptr %227, i32 0, i32 1, !dbg !3202
  %229 = call noundef nonnull align 4 dereferenceable(16) ptr @_ZN4RTTL7RTVec_tILi1E5sse_fLi0EEixEi(ptr noundef nonnull align 4 dereferenceable(16) %228, i32 noundef 0), !dbg !3202
  call void @llvm.memcpy.p0.p0.i64(ptr align 4 %61, ptr align 4 %229, i64 16, i1 false), !dbg !3203
  %230 = getelementptr inbounds { <2 x float>, <2 x float> }, ptr %60, i32 0, i32 0, !dbg !3204
  %231 = load <2 x float>, ptr %230, align 4, !dbg !3204
  %232 = getelementptr inbounds { <2 x float>, <2 x float> }, ptr %60, i32 0, i32 1, !dbg !3204
  %233 = load <2 x float>, ptr %232, align 4, !dbg !3204
  %234 = getelementptr inbounds { <2 x float>, <2 x float> }, ptr %61, i32 0, i32 0, !dbg !3204
  %235 = load <2 x float>, ptr %234, align 4, !dbg !3204
  %236 = getelementptr inbounds { <2 x float>, <2 x float> }, ptr %61, i32 0, i32 1, !dbg !3204
  %237 = load <2 x float>, ptr %236, align 4, !dbg !3204
  store <2 x float> %231, ptr %22, align 4
  %238 = getelementptr inbounds { <2 x float>, <2 x float> }, ptr %22, i32 0, i32 1
  store <2 x float> %233, ptr %238, align 4
  store <2 x float> %235, ptr %23, align 4
  %239 = getelementptr inbounds { <2 x float>, <2 x float> }, ptr %23, i32 0, i32 1
  store <2 x float> %237, ptr %239, align 4
  call void @llvm.dbg.declare(metadata ptr %22, metadata !3205, metadata !DIExpression()), !dbg !3207
  call void @llvm.dbg.declare(metadata ptr %23, metadata !3209, metadata !DIExpression()), !dbg !3210
  call void @llvm.memcpy.p0.p0.i64(ptr align 4 %24, ptr align 4 %22, i64 16, i1 false), !dbg !3211
  call void @llvm.memcpy.p0.p0.i64(ptr align 4 %25, ptr align 4 %23, i64 16, i1 false), !dbg !3212
  %240 = load <2 x float>, ptr %24, align 4, !dbg !3213
  %241 = getelementptr inbounds { <2 x float>, <2 x float> }, ptr %24, i32 0, i32 1, !dbg !3213
  %242 = load <2 x float>, ptr %241, align 4, !dbg !3213
  %243 = load <2 x float>, ptr %25, align 4, !dbg !3213
  %244 = getelementptr inbounds { <2 x float>, <2 x float> }, ptr %25, i32 0, i32 1, !dbg !3213
  %245 = load <2 x float>, ptr %244, align 4, !dbg !3213
  store <2 x float> %240, ptr %8, align 4
  %246 = getelementptr inbounds { <2 x float>, <2 x float> }, ptr %8, i32 0, i32 1
  store <2 x float> %242, ptr %246, align 4
  store <2 x float> %243, ptr %9, align 4
  %247 = getelementptr inbounds { <2 x float>, <2 x float> }, ptr %9, i32 0, i32 1
  store <2 x float> %245, ptr %247, align 4
  call void @llvm.dbg.declare(metadata ptr %8, metadata !3214, metadata !DIExpression()), !dbg !3216
  call void @llvm.dbg.declare(metadata ptr %9, metadata !3218, metadata !DIExpression()), !dbg !3219
  call void @llvm.dbg.declare(metadata ptr %7, metadata !3220, metadata !DIExpression()), !dbg !3221
  call void @_ZN5sse_fC2Ev(ptr noundef nonnull align 4 dereferenceable(16) %7), !dbg !3221
  call void @llvm.dbg.declare(metadata ptr %10, metadata !3222, metadata !DIExpression()), !dbg !3224
  store i32 0, ptr %10, align 4, !dbg !3224
  br label %248, !dbg !3225

248:                                              ; preds = %251, %201
  %249 = load i32, ptr %10, align 4, !dbg !3226
  %250 = icmp slt i32 %249, 4, !dbg !3228
  br i1 %250, label %251, label %266, !dbg !3229

251:                                              ; preds = %248
  %252 = load i32, ptr %10, align 4, !dbg !3230
  %253 = sext i32 %252 to i64, !dbg !3231
  %254 = getelementptr inbounds [4 x float], ptr %8, i64 0, i64 %253, !dbg !3231
  %255 = load float, ptr %254, align 4, !dbg !3231
  %256 = load i32, ptr %10, align 4, !dbg !3232
  %257 = sext i32 %256 to i64, !dbg !3233
  %258 = getelementptr inbounds [4 x float], ptr %9, i64 0, i64 %257, !dbg !3233
  %259 = load float, ptr %258, align 4, !dbg !3233
  %260 = fadd float %255, %259, !dbg !3234
  %261 = load i32, ptr %10, align 4, !dbg !3235
  %262 = sext i32 %261 to i64, !dbg !3236
  %263 = getelementptr inbounds [4 x float], ptr %7, i64 0, i64 %262, !dbg !3236
  store float %260, ptr %263, align 4, !dbg !3237
  %264 = load i32, ptr %10, align 4, !dbg !3238
  %265 = add nsw i32 %264, 1, !dbg !3238
  store i32 %265, ptr %10, align 4, !dbg !3238
  br label %248, !dbg !3239, !llvm.loop !3240

266:                                              ; preds = %248
  %267 = load { <2 x float>, <2 x float> }, ptr %7, align 4, !dbg !3242
  %268 = extractvalue { <2 x float>, <2 x float> } %267, 0, !dbg !3213
  store <2 x float> %268, ptr %21, align 4, !dbg !3213
  %269 = getelementptr inbounds { <2 x float>, <2 x float> }, ptr %21, i32 0, i32 1, !dbg !3213
  %270 = extractvalue { <2 x float>, <2 x float> } %267, 1, !dbg !3213
  store <2 x float> %270, ptr %269, align 4, !dbg !3213
  %271 = load { <2 x float>, <2 x float> }, ptr %21, align 4, !dbg !3243
  %272 = getelementptr inbounds %struct.sse_f, ptr %59, i32 0, i32 0, !dbg !3204
  %273 = getelementptr inbounds { <2 x float>, <2 x float> }, ptr %272, i32 0, i32 0, !dbg !3204
  %274 = extractvalue { <2 x float>, <2 x float> } %271, 0, !dbg !3204
  store <2 x float> %274, ptr %273, align 4, !dbg !3204
  %275 = getelementptr inbounds { <2 x float>, <2 x float> }, ptr %272, i32 0, i32 1, !dbg !3204
  %276 = extractvalue { <2 x float>, <2 x float> } %271, 1, !dbg !3204
  store <2 x float> %276, ptr %275, align 4, !dbg !3204
  store ptr %62, ptr %20, align 8
  call void @llvm.dbg.declare(metadata ptr %20, metadata !3244, metadata !DIExpression()), !dbg !3246
  %277 = load ptr, ptr %20, align 8
  %278 = call noundef nonnull align 4 dereferenceable(16) ptr @_ZN4RTTL7RTVec_tILi1E5sse_fLi0EEixEi(ptr noundef nonnull align 4 dereferenceable(16) %277, i32 noundef 0), !dbg !3248
  call void @llvm.memcpy.p0.p0.i64(ptr align 4 %278, ptr align 4 %59, i64 16, i1 false), !dbg !3249
  ret void, !dbg !3250
}

; Function Attrs: noinline optnone uwtable
define linkonce_odr dso_local noundef nonnull align 4 dereferenceable(32) ptr @_ZN4RTTL16CentroidDiffAABBaSERKS0_(ptr noundef nonnull align 4 dereferenceable(32) %0, ptr noundef nonnull align 4 dereferenceable(32) %1) #5 comdat align 2 !dbg !3251 {
  %3 = alloca ptr, align 8
  %4 = alloca ptr, align 8
  store ptr %0, ptr %3, align 8
  call void @llvm.dbg.declare(metadata ptr %3, metadata !3256, metadata !DIExpression()), !dbg !3257
  store ptr %1, ptr %4, align 8
  call void @llvm.dbg.declare(metadata ptr %4, metadata !3258, metadata !DIExpression()), !dbg !3257
  %5 = load ptr, ptr %3, align 8
  %6 = load ptr, ptr %4, align 8, !dbg !3259
  %7 = call noundef nonnull align 4 dereferenceable(32) ptr @_ZN4RTTL7RTBox3aaSERKS0_(ptr noundef nonnull align 4 dereferenceable(32) %5, ptr noundef nonnull align 4 dereferenceable(32) %6), !dbg !3259
  ret ptr %5, !dbg !3259
}

; Function Attrs: mustprogress noinline optnone uwtable
define dso_local void @_ZN4RTTL22BinnedAllDimsSaveSpace18recursiveBuildFastEPKNS_16CentroidDiffAABBEiRiiiRKNS_4AABBES7_b(ptr noundef nonnull align 8 dereferenceable(16) %0, ptr noundef %1, i32 noundef %2, ptr noundef nonnull align 4 dereferenceable(4) %3, i32 noundef %4, i32 noundef %5, ptr noundef nonnull align 4 dereferenceable(32) %6, ptr noundef nonnull align 4 dereferenceable(32) %7, i1 noundef zeroext %8) #6 align 2 !dbg !3261 {
  %10 = alloca %struct.sse_f, align 4
  %11 = alloca %struct.sse_f, align 4
  %12 = alloca %struct.sse_f, align 4
  %13 = alloca i32, align 4
  %14 = alloca %struct.sse_f, align 4
  %15 = alloca %struct.sse_f, align 4
  %16 = alloca %struct.sse_f, align 4
  %17 = alloca %struct.sse_f, align 4
  %18 = alloca %struct.sse_f, align 4
  %19 = alloca ptr, align 8
  %20 = alloca i32, align 4
  %21 = alloca ptr, align 8
  %22 = alloca i32, align 4
  %23 = alloca ptr, align 8
  %24 = alloca ptr, align 8
  %25 = alloca ptr, align 8
  %26 = alloca i32, align 4
  %27 = alloca %struct.sse_f, align 4
  %28 = alloca %struct.sse_f, align 4
  %29 = alloca %struct.sse_f, align 4
  %30 = alloca %struct.sse_f, align 4
  %31 = alloca %struct.sse_f, align 4
  %32 = alloca %struct.sse_f, align 4
  %33 = alloca i32, align 4
  %34 = alloca %struct.sse_f, align 4
  %35 = alloca %struct.sse_f, align 4
  %36 = alloca %struct.sse_f, align 4
  %37 = alloca %struct.sse_f, align 4
  %38 = alloca %struct.sse_f, align 4
  %39 = alloca ptr, align 8
  %40 = alloca i32, align 4
  %41 = alloca ptr, align 8
  %42 = alloca i32, align 4
  %43 = alloca ptr, align 8
  %44 = alloca ptr, align 8
  %45 = alloca ptr, align 8
  %46 = alloca i32, align 4
  %47 = alloca %struct.sse_f, align 4
  %48 = alloca %struct.sse_f, align 4
  %49 = alloca %struct.sse_f, align 4
  %50 = alloca %struct.sse_f, align 4
  %51 = alloca %struct.sse_f, align 4
  %52 = alloca %struct.sse_f, align 4
  %53 = alloca i32, align 4
  %54 = alloca %struct.sse_f, align 4
  %55 = alloca %struct.sse_f, align 4
  %56 = alloca %struct.sse_f, align 4
  %57 = alloca %struct.sse_f, align 4
  %58 = alloca %struct.sse_f, align 4
  %59 = alloca ptr, align 8
  %60 = alloca i32, align 4
  %61 = alloca ptr, align 8
  %62 = alloca i32, align 4
  %63 = alloca ptr, align 8
  %64 = alloca ptr, align 8
  %65 = alloca ptr, align 8
  %66 = alloca i32, align 4
  %67 = alloca %struct.sse_f, align 4
  %68 = alloca %struct.sse_f, align 4
  %69 = alloca %struct.sse_f, align 4
  %70 = alloca %struct.sse_f, align 4
  %71 = alloca %struct.sse_f, align 4
  %72 = alloca %struct.sse_f, align 4
  %73 = alloca i32, align 4
  %74 = alloca %struct.sse_f, align 4
  %75 = alloca %struct.sse_f, align 4
  %76 = alloca %struct.sse_f, align 4
  %77 = alloca %struct.sse_f, align 4
  %78 = alloca %struct.sse_f, align 4
  %79 = alloca ptr, align 8
  %80 = alloca i32, align 4
  %81 = alloca ptr, align 8
  %82 = alloca i32, align 4
  %83 = alloca ptr, align 8
  %84 = alloca ptr, align 8
  %85 = alloca ptr, align 8
  %86 = alloca i32, align 4
  %87 = alloca %struct.sse_f, align 4
  %88 = alloca %struct.sse_f, align 4
  %89 = alloca %struct.sse_f, align 4
  %90 = alloca %struct.sse_f, align 4
  %91 = alloca %struct.sse_f, align 4
  %92 = alloca %struct.sse_f, align 4
  %93 = alloca i32, align 4
  %94 = alloca %struct.sse_f, align 4
  %95 = alloca %struct.sse_f, align 4
  %96 = alloca %struct.sse_f, align 4
  %97 = alloca %struct.sse_f, align 4
  %98 = alloca %struct.sse_f, align 4
  %99 = alloca ptr, align 8
  %100 = alloca i32, align 4
  %101 = alloca ptr, align 8
  %102 = alloca i32, align 4
  %103 = alloca ptr, align 8
  %104 = alloca ptr, align 8
  %105 = alloca ptr, align 8
  %106 = alloca i32, align 4
  %107 = alloca %struct.sse_f, align 4
  %108 = alloca %struct.sse_f, align 4
  %109 = alloca %struct.sse_f, align 4
  %110 = alloca %struct.sse_f, align 4
  %111 = alloca %struct.sse_f, align 4
  %112 = alloca %struct.sse_f, align 4
  %113 = alloca i32, align 4
  %114 = alloca %struct.sse_f, align 4
  %115 = alloca %struct.sse_f, align 4
  %116 = alloca %struct.sse_f, align 4
  %117 = alloca %struct.sse_f, align 4
  %118 = alloca %struct.sse_f, align 4
  %119 = alloca ptr, align 8
  %120 = alloca i32, align 4
  %121 = alloca ptr, align 8
  %122 = alloca i32, align 4
  %123 = alloca ptr, align 8
  %124 = alloca ptr, align 8
  %125 = alloca ptr, align 8
  %126 = alloca i32, align 4
  %127 = alloca %struct.sse_f, align 4
  %128 = alloca %struct.sse_f, align 4
  %129 = alloca %struct.sse_f, align 4
  %130 = alloca %struct.sse_f, align 4
  %131 = alloca %struct.sse_f, align 4
  %132 = alloca %struct.sse_f, align 4
  %133 = alloca i32, align 4
  %134 = alloca %struct.sse_f, align 4
  %135 = alloca %struct.sse_f, align 4
  %136 = alloca %struct.sse_f, align 4
  %137 = alloca i32, align 4
  %138 = alloca %struct.sse_f, align 4
  %139 = alloca %struct.sse_f, align 4
  %140 = alloca %struct.sse_f, align 4
  %141 = alloca i32, align 4
  %142 = alloca %struct.sse_f, align 4
  %143 = alloca %struct.sse_f, align 4
  %144 = alloca %struct.sse_f, align 4
  %145 = alloca i32, align 4
  %146 = alloca %struct.sse_f, align 4
  %147 = alloca %struct.sse_f, align 4
  %148 = alloca %struct.sse_f, align 4
  %149 = alloca i32, align 4
  %150 = alloca %struct.sse_f, align 4
  %151 = alloca %struct.sse_f, align 4
  %152 = alloca %struct.sse_f, align 4
  %153 = alloca %struct.sse_f, align 4
  %154 = alloca %struct.sse_f, align 4
  %155 = alloca %struct.sse_f, align 4
  %156 = alloca %struct.sse_f, align 4
  %157 = alloca %struct.sse_f, align 4
  %158 = alloca %struct.sse_f, align 4
  %159 = alloca %struct.sse_f, align 4
  %160 = alloca %struct.sse_f, align 4
  %161 = alloca %struct.sse_f, align 4
  %162 = alloca %struct.sse_f, align 4
  %163 = alloca %struct.sse_f, align 4
  %164 = alloca %struct.sse_f, align 4
  %165 = alloca %struct.sse_f, align 4
  %166 = alloca %struct.sse_f, align 4
  %167 = alloca %struct.sse_f, align 4
  %168 = alloca %struct.sse_f, align 4
  %169 = alloca %struct.sse_f, align 4
  %170 = alloca %struct.sse_f, align 4
  %171 = alloca %struct.sse_f, align 4
  %172 = alloca %struct.sse_f, align 4
  %173 = alloca %struct.sse_f, align 4
  %174 = alloca %struct.sse_f, align 4
  %175 = alloca %struct.sse_f, align 4
  %176 = alloca %struct.sse_f, align 4
  %177 = alloca %struct.sse_f, align 4
  %178 = alloca i32, align 4
  %179 = alloca %struct.sse_f, align 4
  %180 = alloca %struct.sse_f, align 4
  %181 = alloca %struct.sse_f, align 4
  %182 = alloca i32, align 4
  %183 = alloca %struct.sse_f, align 4
  %184 = alloca %struct.sse_f, align 4
  %185 = alloca %struct.sse_f, align 4
  %186 = alloca i32, align 4
  %187 = alloca %struct.sse_f, align 4
  %188 = alloca %struct.sse_f, align 4
  %189 = alloca %struct.sse_f, align 4
  %190 = alloca i32, align 4
  %191 = alloca %struct.sse_f, align 4
  %192 = alloca %struct.sse_f, align 4
  %193 = alloca %struct.sse_f, align 4
  %194 = alloca i32, align 4
  %195 = alloca %struct.sse_f, align 4
  %196 = alloca %struct.sse_f, align 4
  %197 = alloca %struct.sse_f, align 4
  %198 = alloca %struct.sse_f, align 4
  %199 = alloca %struct.sse_f, align 4
  %200 = alloca %struct.sse_f, align 4
  %201 = alloca %struct.sse_f, align 4
  %202 = alloca %struct.sse_f, align 4
  %203 = alloca %struct.sse_f, align 4
  %204 = alloca %struct.sse_f, align 4
  %205 = alloca %struct.sse_f, align 4
  %206 = alloca %struct.sse_f, align 4
  %207 = alloca %struct.sse_f, align 4
  %208 = alloca %struct.sse_f, align 4
  %209 = alloca %struct.sse_f, align 4
  %210 = alloca %struct.sse_f, align 4
  %211 = alloca %struct.sse_f, align 4
  %212 = alloca %struct.sse_f, align 4
  %213 = alloca %struct.sse_f, align 4
  %214 = alloca %struct.sse_f, align 4
  %215 = alloca %struct.sse_f, align 4
  %216 = alloca %struct.sse_f, align 4
  %217 = alloca %struct.sse_f, align 4
  %218 = alloca %struct.sse_f, align 4
  %219 = alloca %struct.sse_f, align 4
  %220 = alloca ptr, align 8
  %221 = alloca i32, align 4
  %222 = alloca ptr, align 8
  %223 = alloca i32, align 4
  %224 = alloca ptr, align 8
  %225 = alloca ptr, align 8
  %226 = alloca ptr, align 8
  %227 = alloca i32, align 4
  %228 = alloca %struct.sse_f, align 4
  %229 = alloca %struct.sse_f, align 4
  %230 = alloca %struct.sse_f, align 4
  %231 = alloca ptr, align 8
  %232 = alloca i32, align 4
  %233 = alloca ptr, align 8
  %234 = alloca i32, align 4
  %235 = alloca ptr, align 8
  %236 = alloca ptr, align 8
  %237 = alloca ptr, align 8
  %238 = alloca i32, align 4
  %239 = alloca %struct.sse_f, align 4
  %240 = alloca %struct.sse_f, align 4
  %241 = alloca %struct.sse_f, align 4
  %242 = alloca ptr, align 8
  %243 = alloca i32, align 4
  %244 = alloca ptr, align 8
  %245 = alloca i32, align 4
  %246 = alloca ptr, align 8
  %247 = alloca ptr, align 8
  %248 = alloca ptr, align 8
  %249 = alloca i32, align 4
  %250 = alloca %struct.sse_f, align 4
  %251 = alloca %struct.sse_f, align 4
  %252 = alloca %struct.sse_f, align 4
  %253 = alloca ptr, align 8
  %254 = alloca i32, align 4
  %255 = alloca ptr, align 8
  %256 = alloca i32, align 4
  %257 = alloca ptr, align 8
  %258 = alloca ptr, align 8
  %259 = alloca ptr, align 8
  %260 = alloca i32, align 4
  %261 = alloca %struct.sse_f, align 4
  %262 = alloca %struct.sse_f, align 4
  %263 = alloca %struct.sse_f, align 4
  %264 = alloca ptr, align 8
  %265 = alloca i32, align 4
  %266 = alloca ptr, align 8
  %267 = alloca i32, align 4
  %268 = alloca ptr, align 8
  %269 = alloca ptr, align 8
  %270 = alloca ptr, align 8
  %271 = alloca i32, align 4
  %272 = alloca %struct.sse_f, align 4
  %273 = alloca %struct.sse_f, align 4
  %274 = alloca %struct.sse_f, align 4
  %275 = alloca ptr, align 8
  %276 = alloca i32, align 4
  %277 = alloca ptr, align 8
  %278 = alloca i32, align 4
  %279 = alloca ptr, align 8
  %280 = alloca ptr, align 8
  %281 = alloca ptr, align 8
  %282 = alloca i32, align 4
  %283 = alloca %struct.sse_f, align 4
  %284 = alloca %struct.sse_f, align 4
  %285 = alloca %struct.sse_f, align 4
  %286 = alloca ptr, align 8
  %287 = alloca i32, align 4
  %288 = alloca ptr, align 8
  %289 = alloca i32, align 4
  %290 = alloca ptr, align 8
  %291 = alloca ptr, align 8
  %292 = alloca ptr, align 8
  %293 = alloca i32, align 4
  %294 = alloca %struct.sse_f, align 4
  %295 = alloca %struct.sse_f, align 4
  %296 = alloca %struct.sse_f, align 4
  %297 = alloca ptr, align 8
  %298 = alloca i32, align 4
  %299 = alloca ptr, align 8
  %300 = alloca i32, align 4
  %301 = alloca ptr, align 8
  %302 = alloca ptr, align 8
  %303 = alloca ptr, align 8
  %304 = alloca i32, align 4
  %305 = alloca %struct.sse_f, align 4
  %306 = alloca %struct.sse_f, align 4
  %307 = alloca %struct.sse_f, align 4
  %308 = alloca ptr, align 8
  %309 = alloca i32, align 4
  %310 = alloca ptr, align 8
  %311 = alloca i32, align 4
  %312 = alloca ptr, align 8
  %313 = alloca ptr, align 8
  %314 = alloca ptr, align 8
  %315 = alloca i32, align 4
  %316 = alloca %struct.sse_f, align 4
  %317 = alloca %struct.sse_f, align 4
  %318 = alloca %struct.sse_f, align 4
  %319 = alloca ptr, align 8
  %320 = alloca i32, align 4
  %321 = alloca ptr, align 8
  %322 = alloca i32, align 4
  %323 = alloca ptr, align 8
  %324 = alloca ptr, align 8
  %325 = alloca ptr, align 8
  %326 = alloca i32, align 4
  %327 = alloca %struct.sse_f, align 4
  %328 = alloca %struct.sse_f, align 4
  %329 = alloca %struct.sse_f, align 4
  %330 = alloca ptr, align 8
  %331 = alloca ptr, align 8
  %332 = alloca i32, align 4
  %333 = alloca ptr, align 8
  %334 = alloca ptr, align 8
  %335 = alloca i32, align 4
  %336 = alloca ptr, align 8
  %337 = alloca ptr, align 8
  %338 = alloca i32, align 4
  %339 = alloca ptr, align 8
  %340 = alloca ptr, align 8
  %341 = alloca i32, align 4
  %342 = alloca ptr, align 8
  %343 = alloca ptr, align 8
  %344 = alloca i32, align 4
  %345 = alloca ptr, align 8
  %346 = alloca ptr, align 8
  %347 = alloca i32, align 4
  %348 = alloca ptr, align 8
  %349 = alloca ptr, align 8
  %350 = alloca i32, align 4
  %351 = alloca ptr, align 8
  %352 = alloca ptr, align 8
  %353 = alloca i32, align 4
  %354 = alloca ptr, align 8
  %355 = alloca ptr, align 8
  %356 = alloca i32, align 4
  %357 = alloca ptr, align 8
  %358 = alloca ptr, align 8
  %359 = alloca i32, align 4
  %360 = alloca ptr, align 8
  %361 = alloca ptr, align 8
  %362 = alloca i32, align 4
  %363 = alloca ptr, align 8
  %364 = alloca ptr, align 8
  %365 = alloca i32, align 4
  %366 = alloca ptr, align 8
  %367 = alloca ptr, align 8
  %368 = alloca ptr, align 8
  %369 = alloca ptr, align 8
  %370 = alloca ptr, align 8
  %371 = alloca ptr, align 8
  %372 = alloca ptr, align 8
  %373 = alloca ptr, align 8
  %374 = alloca ptr, align 8
  %375 = alloca ptr, align 8
  %376 = alloca ptr, align 8
  %377 = alloca ptr, align 8
  %378 = alloca ptr, align 8
  %379 = alloca ptr, align 8
  %380 = alloca ptr, align 8
  %381 = alloca ptr, align 8
  %382 = alloca ptr, align 8
  %383 = alloca ptr, align 8
  %384 = alloca ptr, align 8
  %385 = alloca ptr, align 8
  %386 = alloca ptr, align 8
  %387 = alloca ptr, align 8
  %388 = alloca ptr, align 8
  %389 = alloca ptr, align 8
  %390 = alloca ptr, align 8
  %391 = alloca ptr, align 8
  %392 = alloca ptr, align 8
  %393 = alloca ptr, align 8
  %394 = alloca ptr, align 8
  %395 = alloca ptr, align 8
  %396 = alloca ptr, align 8
  %397 = alloca ptr, align 8
  %398 = alloca ptr, align 8
  %399 = alloca ptr, align 8
  %400 = alloca ptr, align 8
  %401 = alloca ptr, align 8
  %402 = alloca %struct.sse_f, align 4
  %403 = alloca float, align 4
  %404 = alloca i32, align 4
  %405 = alloca %struct.sse_f, align 4
  %406 = alloca float, align 4
  %407 = alloca i32, align 4
  %408 = alloca ptr, align 8
  %409 = alloca %struct.sse_f, align 4
  %410 = alloca %struct.sse_f, align 4
  %411 = alloca %struct.sse_f, align 4
  %412 = alloca float, align 4
  %413 = alloca i32, align 4
  %414 = alloca %struct.sse_f, align 4
  %415 = alloca float, align 4
  %416 = alloca i32, align 4
  %417 = alloca ptr, align 8
  %418 = alloca %struct.sse_f, align 4
  %419 = alloca %struct.sse_f, align 4
  %420 = alloca %struct.sse_f, align 4
  %421 = alloca float, align 4
  %422 = alloca i32, align 4
  %423 = alloca %struct.sse_f, align 4
  %424 = alloca float, align 4
  %425 = alloca i32, align 4
  %426 = alloca ptr, align 8
  %427 = alloca %struct.sse_f, align 4
  %428 = alloca %struct.sse_f, align 4
  %429 = alloca %struct.sse_f, align 4
  %430 = alloca float, align 4
  %431 = alloca i32, align 4
  %432 = alloca %struct.sse_f, align 4
  %433 = alloca float, align 4
  %434 = alloca i32, align 4
  %435 = alloca ptr, align 8
  %436 = alloca %struct.sse_f, align 4
  %437 = alloca %struct.sse_f, align 4
  %438 = alloca %struct.sse_f, align 4
  %439 = alloca float, align 4
  %440 = alloca i32, align 4
  %441 = alloca %struct.sse_f, align 4
  %442 = alloca float, align 4
  %443 = alloca i32, align 4
  %444 = alloca ptr, align 8
  %445 = alloca %struct.sse_f, align 4
  %446 = alloca %struct.sse_f, align 4
  %447 = alloca %struct.sse_f, align 4
  %448 = alloca float, align 4
  %449 = alloca i32, align 4
  %450 = alloca %struct.sse_f, align 4
  %451 = alloca float, align 4
  %452 = alloca i32, align 4
  %453 = alloca ptr, align 8
  %454 = alloca %struct.sse_f, align 4
  %455 = alloca %struct.sse_f, align 4
  %456 = alloca %struct.sse_f, align 4
  %457 = alloca %struct.sse_f, align 4
  %458 = alloca %struct.sse_f, align 4
  %459 = alloca i32, align 4
  %460 = alloca %struct.sse_f, align 4
  %461 = alloca %struct.sse_f, align 4
  %462 = alloca %struct.sse_f, align 4
  %463 = alloca i32, align 4
  %464 = alloca double, align 8
  %465 = alloca ptr, align 8
  %466 = alloca float, align 4
  %467 = alloca ptr, align 8
  %468 = alloca float, align 4
  %469 = alloca ptr, align 8
  %470 = alloca float, align 4
  %471 = alloca ptr, align 8
  %472 = alloca ptr, align 8
  %473 = alloca ptr, align 8
  %474 = alloca ptr, align 8
  %475 = alloca ptr, align 8
  %476 = alloca ptr, align 8
  %477 = alloca ptr, align 8
  %478 = alloca ptr, align 8
  %479 = alloca ptr, align 8
  %480 = alloca ptr, align 8
  %481 = alloca ptr, align 8
  %482 = alloca ptr, align 8
  %483 = alloca %struct.sse_f, align 4
  %484 = alloca %struct.sse_f, align 4
  %485 = alloca %struct.sse_f, align 4
  %486 = alloca i32, align 4
  %487 = alloca %struct.sse_f, align 4
  %488 = alloca %struct.sse_f, align 4
  %489 = alloca %struct.sse_f, align 4
  %490 = alloca %struct.sse_f, align 4
  %491 = alloca %struct.sse_f, align 4
  %492 = alloca ptr, align 8
  %493 = alloca ptr, align 8
  %494 = alloca ptr, align 8
  %495 = alloca i32, align 4
  %496 = alloca %struct.sse_f, align 4
  %497 = alloca %struct.sse_f, align 4
  %498 = alloca %struct.sse_f, align 4
  %499 = alloca %"class.RTTL::RTVec_t", align 4
  %500 = alloca ptr, align 8
  %501 = alloca ptr, align 8
  %502 = alloca %"class.RTTL::RTVec_t", align 4
  %503 = alloca ptr, align 8
  %504 = alloca %struct.sse_f, align 4
  %505 = alloca %struct.sse_f, align 4
  %506 = alloca %struct.sse_f, align 4
  %507 = alloca %struct.sse_f, align 4
  %508 = alloca %struct.sse_f, align 4
  %509 = alloca %struct.sse_f, align 4
  %510 = alloca %struct.sse_f, align 4
  %511 = alloca %struct.sse_f, align 4
  %512 = alloca %struct.sse_f, align 4
  %513 = alloca %struct.sse_f, align 4
  %514 = alloca %struct.sse_i, align 4
  %515 = alloca %struct.sse_f, align 4
  %516 = alloca %struct.sse_f, align 4
  %517 = alloca i32, align 4
  %518 = alloca %struct.sse_f, align 4
  %519 = alloca %struct.sse_f, align 4
  %520 = alloca %struct.sse_f, align 4
  %521 = alloca i32, align 4
  %522 = alloca %struct.sse_f, align 4
  %523 = alloca %struct.sse_f, align 4
  %524 = alloca %struct.sse_f, align 4
  %525 = alloca i32, align 4
  %526 = alloca %struct.sse_f, align 4
  %527 = alloca i32, align 4
  %528 = alloca %struct.sse_f, align 4
  %529 = alloca i32, align 4
  %530 = alloca %struct.sse_f, align 4
  %531 = alloca i32, align 4
  %532 = alloca %struct.sse_f, align 4
  %533 = alloca %struct.sse_f, align 4
  %534 = alloca %struct.sse_f, align 4
  %535 = alloca i32, align 4
  %536 = alloca %struct.sse_f, align 4
  %537 = alloca %struct.sse_f, align 4
  %538 = alloca %struct.sse_f, align 4
  %539 = alloca i32, align 4
  %540 = alloca %struct.sse_f, align 4
  %541 = alloca %struct.sse_f, align 4
  %542 = alloca %struct.sse_f, align 4
  %543 = alloca i32, align 4
  %544 = alloca %struct.sse_f, align 4
  %545 = alloca %struct.sse_f, align 4
  %546 = alloca %struct.sse_f, align 4
  %547 = alloca i32, align 4
  %548 = alloca ptr, align 8
  %549 = alloca ptr, align 8
  %550 = alloca ptr, align 8
  %551 = alloca ptr, align 8
  %552 = alloca ptr, align 8
  %553 = alloca i32, align 4
  %554 = alloca i8, align 1
  %555 = alloca ptr, align 8
  %556 = alloca ptr, align 8
  %557 = alloca ptr, align 8
  %558 = alloca ptr, align 8
  %559 = alloca ptr, align 8
  %560 = alloca ptr, align 8
  %561 = alloca ptr, align 8
  %562 = alloca ptr, align 8
  %563 = alloca ptr, align 8
  %564 = alloca ptr, align 8
  %565 = alloca ptr, align 8
  %566 = alloca ptr, align 8
  %567 = alloca ptr, align 8
  %568 = alloca ptr, align 8
  %569 = alloca ptr, align 8
  %570 = alloca ptr, align 8
  %571 = alloca ptr, align 8
  %572 = alloca ptr, align 8
  %573 = alloca ptr, align 8
  %574 = alloca ptr, align 8
  %575 = alloca ptr, align 8
  %576 = alloca ptr, align 8
  %577 = alloca ptr, align 8
  %578 = alloca %"class.RTTL::RTBox_t.3", align 4
  %579 = alloca ptr, align 8
  %580 = alloca %"class.RTTL::RTBox_t.3", align 4
  %581 = alloca ptr, align 8
  %582 = alloca %"class.RTTL::RTBox_t.3", align 4
  %583 = alloca ptr, align 8
  %584 = alloca i32, align 4
  %585 = alloca i32, align 4
  %586 = alloca ptr, align 8
  %587 = alloca ptr, align 8
  %588 = alloca ptr, align 8
  %589 = alloca ptr, align 8
  %590 = alloca ptr, align 8
  %591 = alloca %struct.sse_i, align 4
  %592 = alloca %struct.sse_f, align 4
  %593 = alloca %struct.sse_f, align 4
  %594 = alloca %struct.sse_f, align 4
  %595 = alloca %struct.sse_f, align 4
  %596 = alloca %struct.sse_f, align 4
  %597 = alloca i32, align 4
  %598 = alloca i32, align 4
  %599 = alloca i32, align 4
  %600 = alloca %"class.RTTL::AABB", align 4
  %601 = alloca %struct.sse_f, align 4
  %602 = alloca float, align 4
  %603 = alloca i32, align 4
  %604 = alloca %struct.sse_f, align 4
  %605 = alloca %struct.sse_f, align 4
  %606 = alloca ptr, align 8
  %607 = alloca i32, align 4
  %608 = alloca %struct.sse_f, align 4
  %609 = alloca %struct.sse_f, align 4
  %610 = alloca %struct.sse_f, align 4
  %611 = alloca %struct.sse_f, align 4
  %612 = alloca %struct.sse_f, align 4
  %613 = alloca %struct.sse_f, align 4
  %614 = alloca %struct.sse_f, align 4
  %615 = alloca %struct.sse_f, align 4
  %616 = alloca %struct.sse_f, align 4
  %617 = alloca %struct.sse_f, align 4
  %618 = alloca %struct.sse_f, align 4
  %619 = alloca %struct.sse_f, align 4
  %620 = alloca %struct.sse_f, align 4
  %621 = alloca ptr, align 8
  %622 = alloca %"class.RTTL::RTVec_t", align 4
  %623 = alloca %struct.sse_f, align 4
  %624 = alloca ptr, align 8
  %625 = alloca %struct.sse_f, align 4
  %626 = alloca ptr, align 8
  %627 = alloca ptr, align 8
  %628 = alloca i32, align 4
  %629 = alloca ptr, align 8
  %630 = alloca i32, align 4
  %631 = alloca i32, align 4
  %632 = alloca i32, align 4
  %633 = alloca ptr, align 8
  %634 = alloca ptr, align 8
  %635 = alloca i32, align 4
  %636 = alloca ptr, align 8
  %637 = alloca i32, align 4
  %638 = alloca i32, align 4
  %639 = alloca ptr, align 8
  %640 = alloca ptr, align 8
  %641 = alloca i8, align 1
  %642 = alloca i32, align 4
  %643 = alloca ptr, align 8
  %644 = alloca i32, align 4
  %645 = alloca i32, align 4
  %646 = alloca %struct.sse_f, align 4
  %647 = alloca %struct.sse_f, align 4
  %648 = alloca %struct.sse_f, align 4
  %649 = alloca %struct.sse_f, align 4
  %650 = alloca %struct.sse_f, align 4
  %651 = alloca i32, align 4
  %652 = alloca %"class.RTTL::AABB", align 4
  %653 = alloca %"class.RTTL::AABB", align 4
  %654 = alloca float, align 4
  %655 = alloca i32, align 4
  %656 = alloca i32, align 4
  %657 = alloca float, align 4
  %658 = alloca i32, align 4
  %659 = alloca i32, align 4
  %660 = alloca %"class.RTTL::AABB", align 4
  %661 = alloca %"class.RTTL::AABB", align 4
  %662 = alloca i32, align 4
  %663 = alloca %"class.RTTL::AABB", align 4
  %664 = alloca i32, align 4
  %665 = alloca i32, align 4
  %666 = alloca i32, align 4
  %667 = alloca i32, align 4
  %668 = alloca float, align 4
  %669 = alloca float, align 4
  %670 = alloca float, align 4
  %671 = alloca ptr, align 8
  %672 = alloca ptr, align 8
  %673 = alloca i32, align 4
  %674 = alloca %"class.RTTL::AABB", align 4
  %675 = alloca %"class.RTTL::AABB", align 4
  %676 = alloca float, align 4
  %677 = alloca float, align 4
  %678 = alloca %struct.sse_f, align 4
  %679 = alloca %struct.sse_f, align 4
  %680 = alloca %struct.sse_f, align 4
  %681 = alloca i32, align 4
  store ptr %0, ptr %633, align 8
  call void @llvm.dbg.declare(metadata ptr %633, metadata !3262, metadata !DIExpression()), !dbg !3263
  store ptr %1, ptr %634, align 8
  call void @llvm.dbg.declare(metadata ptr %634, metadata !3264, metadata !DIExpression()), !dbg !3265
  store i32 %2, ptr %635, align 4
  call void @llvm.dbg.declare(metadata ptr %635, metadata !3266, metadata !DIExpression()), !dbg !3267
  store ptr %3, ptr %636, align 8
  call void @llvm.dbg.declare(metadata ptr %636, metadata !3268, metadata !DIExpression()), !dbg !3269
  store i32 %4, ptr %637, align 4
  call void @llvm.dbg.declare(metadata ptr %637, metadata !3270, metadata !DIExpression()), !dbg !3271
  store i32 %5, ptr %638, align 4
  call void @llvm.dbg.declare(metadata ptr %638, metadata !3272, metadata !DIExpression()), !dbg !3273
  store ptr %6, ptr %639, align 8
  call void @llvm.dbg.declare(metadata ptr %639, metadata !3274, metadata !DIExpression()), !dbg !3275
  store ptr %7, ptr %640, align 8
  call void @llvm.dbg.declare(metadata ptr %640, metadata !3276, metadata !DIExpression()), !dbg !3277
  %682 = zext i1 %8 to i8
  store i8 %682, ptr %641, align 1
  call void @llvm.dbg.declare(metadata ptr %641, metadata !3278, metadata !DIExpression()), !dbg !3279
  %683 = load ptr, ptr %633, align 8
  call void @llvm.dbg.declare(metadata ptr %642, metadata !3280, metadata !DIExpression()), !dbg !3281
  %684 = load i32, ptr %638, align 4, !dbg !3282
  %685 = load i32, ptr %637, align 4, !dbg !3283
  %686 = sub nsw i32 %684, %685, !dbg !3284
  store i32 %686, ptr %642, align 4, !dbg !3281
  call void @llvm.dbg.declare(metadata ptr %643, metadata !3285, metadata !DIExpression()), !dbg !3286
  %687 = getelementptr inbounds %"class.RTTL::BVHBuilder", ptr %683, i32 0, i32 1, !dbg !3287
  %688 = load ptr, ptr %687, align 8, !dbg !3287
  %689 = getelementptr inbounds %"struct.RTTL::BVH", ptr %688, i32 0, i32 2, !dbg !3288
  %690 = load ptr, ptr %689, align 8, !dbg !3288
  store ptr %690, ptr %643, align 8, !dbg !3286
  %691 = load i32, ptr %642, align 4, !dbg !3289
  %692 = icmp sle i32 %691, 1, !dbg !3291
  br i1 %692, label %693, label %733, !dbg !3292

693:                                              ; preds = %9
  br label %694, !dbg !3293

694:                                              ; preds = %2668, %693
  call void @llvm.dbg.label(metadata !3294), !dbg !3296
  %695 = load ptr, ptr %639, align 8, !dbg !3297
  %696 = getelementptr inbounds %"class.RTTL::BVHBuilder", ptr %683, i32 0, i32 1, !dbg !3298
  %697 = load ptr, ptr %696, align 8, !dbg !3298
  %698 = getelementptr inbounds %"struct.RTTL::BVH", ptr %697, i32 0, i32 1, !dbg !3299
  %699 = load ptr, ptr %698, align 8, !dbg !3299
  %700 = load i32, ptr %635, align 4, !dbg !3300
  %701 = sext i32 %700 to i64, !dbg !3298
  %702 = getelementptr inbounds %"class.RTTL::AABB", ptr %699, i64 %701, !dbg !3298
  %703 = call noundef nonnull align 4 dereferenceable(32) ptr @_ZN4RTTL4AABBaSERKS0_(ptr noundef nonnull align 4 dereferenceable(32) %702, ptr noundef nonnull align 4 dereferenceable(32) %695), !dbg !3301
  %704 = getelementptr inbounds %"class.RTTL::BVHBuilder", ptr %683, i32 0, i32 1, !dbg !3302
  %705 = load ptr, ptr %704, align 8, !dbg !3302
  %706 = getelementptr inbounds %"struct.RTTL::BVH", ptr %705, i32 0, i32 1, !dbg !3303
  %707 = load ptr, ptr %706, align 8, !dbg !3303
  %708 = load i32, ptr %635, align 4, !dbg !3304
  %709 = sext i32 %708 to i64, !dbg !3302
  %710 = getelementptr inbounds %"class.RTTL::AABB", ptr %707, i64 %709, !dbg !3302
  %711 = load i32, ptr %637, align 4, !dbg !3305
  %712 = load i32, ptr %638, align 4, !dbg !3306
  %713 = load i32, ptr %637, align 4, !dbg !3307
  %714 = sub nsw i32 %712, %713, !dbg !3308
  store ptr %710, ptr %583, align 8
  call void @llvm.dbg.declare(metadata ptr %583, metadata !3309, metadata !DIExpression()), !dbg !3311
  store i32 %711, ptr %584, align 4
  call void @llvm.dbg.declare(metadata ptr %584, metadata !3313, metadata !DIExpression()), !dbg !3314
  store i32 %714, ptr %585, align 4
  call void @llvm.dbg.declare(metadata ptr %585, metadata !3315, metadata !DIExpression()), !dbg !3316
  %715 = load ptr, ptr %583, align 8
  %716 = load i32, ptr %584, align 4, !dbg !3317
  %717 = or i32 %716, -2147483648, !dbg !3318
  store ptr %715, ptr %550, align 8
  call void @llvm.dbg.declare(metadata ptr %550, metadata !3319, metadata !DIExpression()), !dbg !3321
  %718 = load ptr, ptr %550, align 8
  %719 = getelementptr inbounds %"struct.RTTL::BVHExtData", ptr %718, i64 3, !dbg !3323
  store i32 %717, ptr %719, align 4, !dbg !3324
  %720 = load i32, ptr %585, align 4, !dbg !3325
  %721 = trunc i32 %720 to i16, !dbg !3325
  store ptr %715, ptr %481, align 8
  call void @llvm.dbg.declare(metadata ptr %481, metadata !3326, metadata !DIExpression()), !dbg !3328
  %722 = load ptr, ptr %481, align 8
  %723 = getelementptr inbounds %"class.RTTL::RTBox_t", ptr %722, i32 0, i32 1, !dbg !3330
  %724 = getelementptr inbounds %"struct.RTTL::BVHExtData", ptr %723, i64 3, !dbg !3331
  %725 = getelementptr inbounds %struct.anon, ptr %724, i32 0, i32 2, !dbg !3332
  store i16 %721, ptr %725, align 2, !dbg !3333
  store ptr %715, ptr %479, align 8
  call void @llvm.dbg.declare(metadata ptr %479, metadata !3334, metadata !DIExpression()), !dbg !3336
  %726 = load ptr, ptr %479, align 8
  %727 = getelementptr inbounds %"class.RTTL::RTBox_t", ptr %726, i32 0, i32 1, !dbg !3338
  %728 = getelementptr inbounds %"struct.RTTL::BVHExtData", ptr %727, i64 3, !dbg !3339
  store i8 0, ptr %728, align 1, !dbg !3340
  store ptr %715, ptr %477, align 8
  call void @llvm.dbg.declare(metadata ptr %477, metadata !3341, metadata !DIExpression()), !dbg !3343
  %729 = load ptr, ptr %477, align 8
  %730 = getelementptr inbounds %"class.RTTL::RTBox_t", ptr %729, i32 0, i32 1, !dbg !3345
  %731 = getelementptr inbounds %"struct.RTTL::BVHExtData", ptr %730, i64 3, !dbg !3346
  %732 = getelementptr inbounds %struct.anon, ptr %731, i32 0, i32 1, !dbg !3347
  store i8 0, ptr %732, align 1, !dbg !3348
  br label %3464, !dbg !3349

733:                                              ; preds = %9
  call void @llvm.dbg.declare(metadata ptr %644, metadata !3350, metadata !DIExpression()), !dbg !3351
  %734 = load i32, ptr %642, align 4, !dbg !3352
  %735 = sitofp i32 %734 to float, !dbg !3352
  %736 = call float @sqrtf(float noundef %735) #3, !dbg !3353
  %737 = fptosi float %736 to i32, !dbg !3353
  %738 = mul nsw i32 2, %737, !dbg !3354
  %739 = add nsw i32 2, %738, !dbg !3355
  store i32 %739, ptr %645, align 4, !dbg !3356
  %740 = call noundef nonnull align 4 dereferenceable(4) ptr @_ZSt3minIiERKT_S2_S2_(ptr noundef nonnull align 4 dereferenceable(4) @_ZN4RTTLL7maxBinsE, ptr noundef nonnull align 4 dereferenceable(4) %645), !dbg !3357
  %741 = load i32, ptr %740, align 4, !dbg !3357
  store i32 %741, ptr %644, align 4, !dbg !3351
  call void @llvm.dbg.declare(metadata ptr %646, metadata !3358, metadata !DIExpression()), !dbg !3359
  %742 = load ptr, ptr %640, align 8, !dbg !3360
  store ptr %742, ptr %624, align 8
  call void @llvm.dbg.declare(metadata ptr %624, metadata !2110, metadata !DIExpression()), !dbg !3361
  %743 = load ptr, ptr %624, align 8
  %744 = call { <2 x float>, <2 x float> } @_ZNK4RTTL7RTVec_tILi1E5sse_fLi0EEixEi(ptr noundef nonnull align 4 dereferenceable(16) %743, i32 noundef 0), !dbg !3363
  %745 = extractvalue { <2 x float>, <2 x float> } %744, 0, !dbg !3363
  store <2 x float> %745, ptr %623, align 4, !dbg !3363
  %746 = getelementptr inbounds { <2 x float>, <2 x float> }, ptr %623, i32 0, i32 1, !dbg !3363
  %747 = extractvalue { <2 x float>, <2 x float> } %744, 1, !dbg !3363
  store <2 x float> %747, ptr %746, align 4, !dbg !3363
  %748 = load { <2 x float>, <2 x float> }, ptr %623, align 4, !dbg !3364
  %749 = getelementptr inbounds %struct.sse_f, ptr %646, i32 0, i32 0, !dbg !3365
  %750 = getelementptr inbounds { <2 x float>, <2 x float> }, ptr %749, i32 0, i32 0, !dbg !3365
  %751 = extractvalue { <2 x float>, <2 x float> } %748, 0, !dbg !3365
  store <2 x float> %751, ptr %750, align 4, !dbg !3365
  %752 = getelementptr inbounds { <2 x float>, <2 x float> }, ptr %749, i32 0, i32 1, !dbg !3365
  %753 = extractvalue { <2 x float>, <2 x float> } %748, 1, !dbg !3365
  store <2 x float> %753, ptr %752, align 4, !dbg !3365
  call void @llvm.dbg.declare(metadata ptr %647, metadata !3366, metadata !DIExpression()), !dbg !3367
  %754 = load ptr, ptr %640, align 8, !dbg !3368
  store ptr %754, ptr %621, align 8
  call void @llvm.dbg.declare(metadata ptr %621, metadata !2121, metadata !DIExpression()), !dbg !3369
  %755 = load ptr, ptr %621, align 8
  store ptr %755, ptr %503, align 8
  call void @llvm.dbg.declare(metadata ptr %503, metadata !2125, metadata !DIExpression()), !dbg !3371
  %756 = load ptr, ptr %503, align 8
  %757 = getelementptr inbounds %"class.RTTL::RTBox_t", ptr %756, i32 0, i32 1, !dbg !3373
  store ptr %757, ptr %500, align 8
  call void @llvm.dbg.declare(metadata ptr %500, metadata !2131, metadata !DIExpression()), !dbg !3374
  store ptr %756, ptr %501, align 8
  call void @llvm.dbg.declare(metadata ptr %501, metadata !2139, metadata !DIExpression()), !dbg !3376
  call void @llvm.dbg.declare(metadata ptr %499, metadata !2141, metadata !DIExpression()), !dbg !3377
  call void @_ZN4RTTL7RTVec_tILi1E5sse_fLi0EEC2Ev(ptr noundef nonnull align 4 dereferenceable(16) %499), !dbg !3377
  %758 = call noundef nonnull align 4 dereferenceable(16) ptr @_ZN4RTTL7RTVec_tILi1E5sse_fLi0EE5arrayEv(ptr noundef nonnull align 4 dereferenceable(16) %499), !dbg !3378
  %759 = load ptr, ptr %500, align 8, !dbg !3379
  %760 = call noundef nonnull align 4 dereferenceable(16) ptr @_ZNK4RTTL7RTVec_tILi1E5sse_fLi0EE5arrayEv(ptr noundef nonnull align 4 dereferenceable(16) %759), !dbg !3380
  %761 = load ptr, ptr %501, align 8, !dbg !3381
  %762 = call noundef nonnull align 4 dereferenceable(16) ptr @_ZNK4RTTL7RTVec_tILi1E5sse_fLi0EE5arrayEv(ptr noundef nonnull align 4 dereferenceable(16) %761), !dbg !3382
  store ptr %758, ptr %492, align 8
  call void @llvm.dbg.declare(metadata ptr %492, metadata !2148, metadata !DIExpression()), !dbg !3383
  store ptr %760, ptr %493, align 8
  call void @llvm.dbg.declare(metadata ptr %493, metadata !2152, metadata !DIExpression()), !dbg !3385
  store ptr %762, ptr %494, align 8
  call void @llvm.dbg.declare(metadata ptr %494, metadata !2154, metadata !DIExpression()), !dbg !3386
  %763 = load ptr, ptr %492, align 8
  call void @llvm.dbg.declare(metadata ptr %495, metadata !2156, metadata !DIExpression()), !dbg !3387
  store i32 0, ptr %495, align 4, !dbg !3387
  br label %764, !dbg !3388

764:                                              ; preds = %810, %733
  %765 = load i32, ptr %495, align 4, !dbg !3389
  %766 = icmp slt i32 %765, 1, !dbg !3390
  br i1 %766, label %767, label %824, !dbg !3391

767:                                              ; preds = %764
  %768 = load ptr, ptr %493, align 8, !dbg !3392
  %769 = load i32, ptr %495, align 4, !dbg !3393
  %770 = sext i32 %769 to i64, !dbg !3392
  %771 = getelementptr inbounds [1 x %struct.sse_f], ptr %768, i64 0, i64 %770, !dbg !3392
  call void @llvm.memcpy.p0.p0.i64(ptr align 4 %497, ptr align 4 %771, i64 16, i1 false), !dbg !3392
  %772 = load ptr, ptr %494, align 8, !dbg !3394
  %773 = load i32, ptr %495, align 4, !dbg !3395
  %774 = sext i32 %773 to i64, !dbg !3394
  %775 = getelementptr inbounds [1 x %struct.sse_f], ptr %772, i64 0, i64 %774, !dbg !3394
  call void @llvm.memcpy.p0.p0.i64(ptr align 4 %498, ptr align 4 %775, i64 16, i1 false), !dbg !3394
  %776 = load <2 x float>, ptr %497, align 4, !dbg !3396
  %777 = getelementptr inbounds { <2 x float>, <2 x float> }, ptr %497, i32 0, i32 1, !dbg !3396
  %778 = load <2 x float>, ptr %777, align 4, !dbg !3396
  %779 = load <2 x float>, ptr %498, align 4, !dbg !3396
  %780 = getelementptr inbounds { <2 x float>, <2 x float> }, ptr %498, i32 0, i32 1, !dbg !3396
  %781 = load <2 x float>, ptr %780, align 4, !dbg !3396
  store <2 x float> %776, ptr %488, align 4
  %782 = getelementptr inbounds { <2 x float>, <2 x float> }, ptr %488, i32 0, i32 1
  store <2 x float> %778, ptr %782, align 4
  store <2 x float> %779, ptr %489, align 4
  %783 = getelementptr inbounds { <2 x float>, <2 x float> }, ptr %489, i32 0, i32 1
  store <2 x float> %781, ptr %783, align 4
  call void @llvm.dbg.declare(metadata ptr %488, metadata !2169, metadata !DIExpression()), !dbg !3397
  call void @llvm.dbg.declare(metadata ptr %489, metadata !2175, metadata !DIExpression()), !dbg !3399
  call void @llvm.memcpy.p0.p0.i64(ptr align 4 %490, ptr align 4 %488, i64 16, i1 false), !dbg !3400
  call void @llvm.memcpy.p0.p0.i64(ptr align 4 %491, ptr align 4 %489, i64 16, i1 false), !dbg !3401
  %784 = load <2 x float>, ptr %490, align 4, !dbg !3402
  %785 = getelementptr inbounds { <2 x float>, <2 x float> }, ptr %490, i32 0, i32 1, !dbg !3402
  %786 = load <2 x float>, ptr %785, align 4, !dbg !3402
  %787 = load <2 x float>, ptr %491, align 4, !dbg !3402
  %788 = getelementptr inbounds { <2 x float>, <2 x float> }, ptr %491, i32 0, i32 1, !dbg !3402
  %789 = load <2 x float>, ptr %788, align 4, !dbg !3402
  store <2 x float> %784, ptr %461, align 4
  %790 = getelementptr inbounds { <2 x float>, <2 x float> }, ptr %461, i32 0, i32 1
  store <2 x float> %786, ptr %790, align 4
  store <2 x float> %787, ptr %462, align 4
  %791 = getelementptr inbounds { <2 x float>, <2 x float> }, ptr %462, i32 0, i32 1
  store <2 x float> %789, ptr %791, align 4
  call void @llvm.dbg.declare(metadata ptr %461, metadata !2180, metadata !DIExpression()), !dbg !3403
  call void @llvm.dbg.declare(metadata ptr %462, metadata !2184, metadata !DIExpression()), !dbg !3405
  call void @llvm.dbg.declare(metadata ptr %460, metadata !2186, metadata !DIExpression()), !dbg !3406
  call void @_ZN5sse_fC2Ev(ptr noundef nonnull align 4 dereferenceable(16) %460), !dbg !3406
  call void @llvm.dbg.declare(metadata ptr %463, metadata !2188, metadata !DIExpression()), !dbg !3407
  store i32 0, ptr %463, align 4, !dbg !3407
  br label %792, !dbg !3408

792:                                              ; preds = %795, %767
  %793 = load i32, ptr %463, align 4, !dbg !3409
  %794 = icmp slt i32 %793, 4, !dbg !3410
  br i1 %794, label %795, label %810, !dbg !3411

795:                                              ; preds = %792
  %796 = load i32, ptr %463, align 4, !dbg !3412
  %797 = sext i32 %796 to i64, !dbg !3413
  %798 = getelementptr inbounds [4 x float], ptr %461, i64 0, i64 %797, !dbg !3413
  %799 = load float, ptr %798, align 4, !dbg !3413
  %800 = load i32, ptr %463, align 4, !dbg !3414
  %801 = sext i32 %800 to i64, !dbg !3415
  %802 = getelementptr inbounds [4 x float], ptr %462, i64 0, i64 %801, !dbg !3415
  %803 = load float, ptr %802, align 4, !dbg !3415
  %804 = fsub float %799, %803, !dbg !3416
  %805 = load i32, ptr %463, align 4, !dbg !3417
  %806 = sext i32 %805 to i64, !dbg !3418
  %807 = getelementptr inbounds [4 x float], ptr %460, i64 0, i64 %806, !dbg !3418
  store float %804, ptr %807, align 4, !dbg !3419
  %808 = load i32, ptr %463, align 4, !dbg !3420
  %809 = add nsw i32 %808, 1, !dbg !3420
  store i32 %809, ptr %463, align 4, !dbg !3420
  br label %792, !dbg !3421, !llvm.loop !3422

810:                                              ; preds = %792
  %811 = load { <2 x float>, <2 x float> }, ptr %460, align 4, !dbg !3424
  %812 = extractvalue { <2 x float>, <2 x float> } %811, 0, !dbg !3402
  store <2 x float> %812, ptr %487, align 4, !dbg !3402
  %813 = getelementptr inbounds { <2 x float>, <2 x float> }, ptr %487, i32 0, i32 1, !dbg !3402
  %814 = extractvalue { <2 x float>, <2 x float> } %811, 1, !dbg !3402
  store <2 x float> %814, ptr %813, align 4, !dbg !3402
  %815 = load { <2 x float>, <2 x float> }, ptr %487, align 4, !dbg !3425
  %816 = extractvalue { <2 x float>, <2 x float> } %815, 0, !dbg !3396
  store <2 x float> %816, ptr %496, align 4, !dbg !3396
  %817 = getelementptr inbounds { <2 x float>, <2 x float> }, ptr %496, i32 0, i32 1, !dbg !3396
  %818 = extractvalue { <2 x float>, <2 x float> } %815, 1, !dbg !3396
  store <2 x float> %818, ptr %817, align 4, !dbg !3396
  %819 = load i32, ptr %495, align 4, !dbg !3426
  %820 = sext i32 %819 to i64, !dbg !3427
  %821 = getelementptr inbounds [1 x %struct.sse_f], ptr %763, i64 0, i64 %820, !dbg !3427
  call void @llvm.memcpy.p0.p0.i64(ptr align 4 %821, ptr align 4 %496, i64 16, i1 false), !dbg !3428
  %822 = load i32, ptr %495, align 4, !dbg !3429
  %823 = add nsw i32 %822, 1, !dbg !3429
  store i32 %823, ptr %495, align 4, !dbg !3429
  br label %764, !dbg !3430, !llvm.loop !3431

824:                                              ; preds = %764
  %825 = load { <2 x float>, <2 x float> }, ptr %499, align 4, !dbg !3433
  %826 = extractvalue { <2 x float>, <2 x float> } %825, 0, !dbg !3434
  store <2 x float> %826, ptr %502, align 4, !dbg !3434
  %827 = getelementptr inbounds { <2 x float>, <2 x float> }, ptr %502, i32 0, i32 1, !dbg !3434
  %828 = extractvalue { <2 x float>, <2 x float> } %825, 1, !dbg !3434
  store <2 x float> %828, ptr %827, align 4, !dbg !3434
  %829 = load { <2 x float>, <2 x float> }, ptr %502, align 4, !dbg !3435
  %830 = extractvalue { <2 x float>, <2 x float> } %829, 0, !dbg !3436
  store <2 x float> %830, ptr %622, align 4, !dbg !3436
  %831 = getelementptr inbounds { <2 x float>, <2 x float> }, ptr %622, i32 0, i32 1, !dbg !3436
  %832 = extractvalue { <2 x float>, <2 x float> } %829, 1, !dbg !3436
  store <2 x float> %832, ptr %831, align 4, !dbg !3436
  %833 = call noundef ptr @_ZN4RTTL7RTVec_tILi1E5sse_fLi0EEcvPS1_Ev(ptr noundef nonnull align 4 dereferenceable(16) %622), !dbg !3437
  call void @llvm.memcpy.p0.p0.i64(ptr align 4 %620, ptr align 4 %833, i64 16, i1 false), !dbg !3438
  %834 = load { <2 x float>, <2 x float> }, ptr %620, align 4, !dbg !3439
  %835 = getelementptr inbounds %struct.sse_f, ptr %647, i32 0, i32 0, !dbg !3440
  %836 = getelementptr inbounds { <2 x float>, <2 x float> }, ptr %835, i32 0, i32 0, !dbg !3440
  %837 = extractvalue { <2 x float>, <2 x float> } %834, 0, !dbg !3440
  store <2 x float> %837, ptr %836, align 4, !dbg !3440
  %838 = getelementptr inbounds { <2 x float>, <2 x float> }, ptr %835, i32 0, i32 1, !dbg !3440
  %839 = extractvalue { <2 x float>, <2 x float> } %834, 1, !dbg !3440
  store <2 x float> %839, ptr %838, align 4, !dbg !3440
  call void @llvm.dbg.declare(metadata ptr %648, metadata !3441, metadata !DIExpression()), !dbg !3442
  call void @llvm.memcpy.p0.p0.i64(ptr align 4 %649, ptr align 4 %647, i64 16, i1 false), !dbg !3443
  %840 = load i32, ptr %644, align 4, !dbg !3444
  %841 = getelementptr inbounds { <2 x float>, <2 x float> }, ptr %649, i32 0, i32 0, !dbg !3445
  %842 = load <2 x float>, ptr %841, align 4, !dbg !3445
  %843 = getelementptr inbounds { <2 x float>, <2 x float> }, ptr %649, i32 0, i32 1, !dbg !3445
  %844 = load <2 x float>, ptr %843, align 4, !dbg !3445
  store <2 x float> %842, ptr %605, align 4
  %845 = getelementptr inbounds { <2 x float>, <2 x float> }, ptr %605, i32 0, i32 1
  store <2 x float> %844, ptr %845, align 4
  store ptr %683, ptr %606, align 8
  call void @llvm.dbg.declare(metadata ptr %606, metadata !2229, metadata !DIExpression()), !dbg !3446
  call void @llvm.dbg.declare(metadata ptr %605, metadata !2233, metadata !DIExpression()), !dbg !3448
  store i32 %840, ptr %607, align 4
  call void @llvm.dbg.declare(metadata ptr %607, metadata !2235, metadata !DIExpression()), !dbg !3449
  %846 = load ptr, ptr %606, align 8
  call void @llvm.memcpy.p0.p0.i64(ptr align 4 %610, ptr align 4 %605, i64 16, i1 false), !dbg !3450
  call void @llvm.dbg.declare(metadata ptr %526, metadata !2238, metadata !DIExpression()), !dbg !3451
  call void @_ZN5sse_fC2Ev(ptr noundef nonnull align 4 dereferenceable(16) %526), !dbg !3451
  call void @llvm.dbg.declare(metadata ptr %527, metadata !2244, metadata !DIExpression()), !dbg !3453
  store i32 0, ptr %527, align 4, !dbg !3453
  br label %847, !dbg !3454

847:                                              ; preds = %850, %824
  %848 = load i32, ptr %527, align 4, !dbg !3455
  %849 = icmp slt i32 %848, 4, !dbg !3456
  br i1 %849, label %850, label %856, !dbg !3457

850:                                              ; preds = %847
  %851 = load i32, ptr %527, align 4, !dbg !3458
  %852 = sext i32 %851 to i64, !dbg !3459
  %853 = getelementptr inbounds [4 x float], ptr %526, i64 0, i64 %852, !dbg !3459
  store float 0.000000e+00, ptr %853, align 4, !dbg !3460
  %854 = load i32, ptr %527, align 4, !dbg !3461
  %855 = add nsw i32 %854, 1, !dbg !3461
  store i32 %855, ptr %527, align 4, !dbg !3461
  br label %847, !dbg !3462, !llvm.loop !3463

856:                                              ; preds = %847
  %857 = load { <2 x float>, <2 x float> }, ptr %526, align 4, !dbg !3465
  %858 = extractvalue { <2 x float>, <2 x float> } %857, 0, !dbg !3450
  store <2 x float> %858, ptr %611, align 4, !dbg !3450
  %859 = getelementptr inbounds { <2 x float>, <2 x float> }, ptr %611, i32 0, i32 1, !dbg !3450
  %860 = extractvalue { <2 x float>, <2 x float> } %857, 1, !dbg !3450
  store <2 x float> %860, ptr %859, align 4, !dbg !3450
  %861 = load <2 x float>, ptr %610, align 4, !dbg !3450
  %862 = getelementptr inbounds { <2 x float>, <2 x float> }, ptr %610, i32 0, i32 1, !dbg !3450
  %863 = load <2 x float>, ptr %862, align 4, !dbg !3450
  %864 = load <2 x float>, ptr %611, align 4, !dbg !3450
  %865 = getelementptr inbounds { <2 x float>, <2 x float> }, ptr %611, i32 0, i32 1, !dbg !3450
  %866 = load <2 x float>, ptr %865, align 4, !dbg !3450
  store <2 x float> %861, ptr %533, align 4
  %867 = getelementptr inbounds { <2 x float>, <2 x float> }, ptr %533, i32 0, i32 1
  store <2 x float> %863, ptr %867, align 4
  store <2 x float> %864, ptr %534, align 4
  %868 = getelementptr inbounds { <2 x float>, <2 x float> }, ptr %534, i32 0, i32 1
  store <2 x float> %866, ptr %868, align 4
  call void @llvm.dbg.declare(metadata ptr %533, metadata !2260, metadata !DIExpression()), !dbg !3466
  call void @llvm.dbg.declare(metadata ptr %534, metadata !2264, metadata !DIExpression()), !dbg !3468
  call void @llvm.dbg.declare(metadata ptr %532, metadata !2266, metadata !DIExpression()), !dbg !3469
  call void @_ZN5sse_fC2Ev(ptr noundef nonnull align 4 dereferenceable(16) %532), !dbg !3469
  call void @llvm.dbg.declare(metadata ptr %535, metadata !2268, metadata !DIExpression()), !dbg !3470
  store i32 0, ptr %535, align 4, !dbg !3470
  br label %869, !dbg !3471

869:                                              ; preds = %872, %856
  %870 = load i32, ptr %535, align 4, !dbg !3472
  %871 = icmp slt i32 %870, 4, !dbg !3473
  br i1 %871, label %872, label %890, !dbg !3474

872:                                              ; preds = %869
  %873 = load i32, ptr %535, align 4, !dbg !3475
  %874 = sext i32 %873 to i64, !dbg !3475
  %875 = getelementptr inbounds [4 x float], ptr %533, i64 0, i64 %874, !dbg !3475
  %876 = load float, ptr %875, align 4, !dbg !3475
  %877 = load i32, ptr %535, align 4, !dbg !3476
  %878 = sext i32 %877 to i64, !dbg !3476
  %879 = getelementptr inbounds [4 x float], ptr %534, i64 0, i64 %878, !dbg !3476
  %880 = load float, ptr %879, align 4, !dbg !3476
  %881 = fcmp oeq float %876, %880, !dbg !3477
  %882 = xor i1 %881, true, !dbg !3478
  %883 = zext i1 %882 to i64, !dbg !3479
  %884 = select i1 %882, i32 -1, i32 0, !dbg !3479
  %885 = load i32, ptr %535, align 4, !dbg !3480
  %886 = sext i32 %885 to i64, !dbg !3480
  %887 = getelementptr inbounds [4 x float], ptr %532, i64 0, i64 %886, !dbg !3480
  store i32 %884, ptr %887, align 4, !dbg !3481
  %888 = load i32, ptr %535, align 4, !dbg !3482
  %889 = add nsw i32 %888, 1, !dbg !3482
  store i32 %889, ptr %535, align 4, !dbg !3482
  br label %869, !dbg !3483, !llvm.loop !3484

890:                                              ; preds = %869
  %891 = load { <2 x float>, <2 x float> }, ptr %532, align 4, !dbg !3486
  %892 = extractvalue { <2 x float>, <2 x float> } %891, 0, !dbg !3450
  store <2 x float> %892, ptr %609, align 4, !dbg !3450
  %893 = getelementptr inbounds { <2 x float>, <2 x float> }, ptr %609, i32 0, i32 1, !dbg !3450
  %894 = extractvalue { <2 x float>, <2 x float> } %891, 1, !dbg !3450
  store <2 x float> %894, ptr %893, align 4, !dbg !3450
  %895 = load i32, ptr %607, align 4, !dbg !3450
  %896 = sitofp i32 %895 to float, !dbg !3450
  %897 = fmul float %896, 0x3FEFF7CEE0000000, !dbg !3450
  store float %897, ptr %602, align 4
  call void @llvm.dbg.declare(metadata ptr %602, metadata !1885, metadata !DIExpression()), !dbg !3487
  call void @llvm.dbg.declare(metadata ptr %601, metadata !1892, metadata !DIExpression()), !dbg !3489
  call void @_ZN5sse_fC2Ev(ptr noundef nonnull align 4 dereferenceable(16) %601), !dbg !3489
  call void @llvm.dbg.declare(metadata ptr %603, metadata !1894, metadata !DIExpression()), !dbg !3490
  store i32 0, ptr %603, align 4, !dbg !3490
  br label %898, !dbg !3491

898:                                              ; preds = %901, %890
  %899 = load i32, ptr %603, align 4, !dbg !3492
  %900 = icmp slt i32 %899, 4, !dbg !3493
  br i1 %900, label %901, label %908, !dbg !3494

901:                                              ; preds = %898
  %902 = load float, ptr %602, align 4, !dbg !3495
  %903 = load i32, ptr %603, align 4, !dbg !3496
  %904 = sext i32 %903 to i64, !dbg !3497
  %905 = getelementptr inbounds [4 x float], ptr %601, i64 0, i64 %904, !dbg !3497
  store float %902, ptr %905, align 4, !dbg !3498
  %906 = load i32, ptr %603, align 4, !dbg !3499
  %907 = add nsw i32 %906, 1, !dbg !3499
  store i32 %907, ptr %603, align 4, !dbg !3499
  br label %898, !dbg !3500, !llvm.loop !3501

908:                                              ; preds = %898
  %909 = load { <2 x float>, <2 x float> }, ptr %601, align 4, !dbg !3503
  %910 = extractvalue { <2 x float>, <2 x float> } %909, 0, !dbg !3450
  store <2 x float> %910, ptr %613, align 4, !dbg !3450
  %911 = getelementptr inbounds { <2 x float>, <2 x float> }, ptr %613, i32 0, i32 1, !dbg !3450
  %912 = extractvalue { <2 x float>, <2 x float> } %909, 1, !dbg !3450
  store <2 x float> %912, ptr %911, align 4, !dbg !3450
  call void @llvm.memcpy.p0.p0.i64(ptr align 4 %614, ptr align 4 %605, i64 16, i1 false), !dbg !3450
  %913 = load <2 x float>, ptr %613, align 4, !dbg !3450
  %914 = getelementptr inbounds { <2 x float>, <2 x float> }, ptr %613, i32 0, i32 1, !dbg !3450
  %915 = load <2 x float>, ptr %914, align 4, !dbg !3450
  %916 = load <2 x float>, ptr %614, align 4, !dbg !3450
  %917 = getelementptr inbounds { <2 x float>, <2 x float> }, ptr %614, i32 0, i32 1, !dbg !3450
  %918 = load <2 x float>, ptr %917, align 4, !dbg !3450
  store <2 x float> %913, ptr %523, align 4
  %919 = getelementptr inbounds { <2 x float>, <2 x float> }, ptr %523, i32 0, i32 1
  store <2 x float> %915, ptr %919, align 4
  store <2 x float> %916, ptr %524, align 4
  %920 = getelementptr inbounds { <2 x float>, <2 x float> }, ptr %524, i32 0, i32 1
  store <2 x float> %918, ptr %920, align 4
  call void @llvm.dbg.declare(metadata ptr %523, metadata !2305, metadata !DIExpression()), !dbg !3504
  call void @llvm.dbg.declare(metadata ptr %524, metadata !2309, metadata !DIExpression()), !dbg !3506
  call void @llvm.dbg.declare(metadata ptr %522, metadata !2311, metadata !DIExpression()), !dbg !3507
  call void @_ZN5sse_fC2Ev(ptr noundef nonnull align 4 dereferenceable(16) %522), !dbg !3507
  call void @llvm.dbg.declare(metadata ptr %525, metadata !2313, metadata !DIExpression()), !dbg !3508
  store i32 0, ptr %525, align 4, !dbg !3508
  br label %921, !dbg !3509

921:                                              ; preds = %924, %908
  %922 = load i32, ptr %525, align 4, !dbg !3510
  %923 = icmp slt i32 %922, 4, !dbg !3511
  br i1 %923, label %924, label %939, !dbg !3512

924:                                              ; preds = %921
  %925 = load i32, ptr %525, align 4, !dbg !3513
  %926 = sext i32 %925 to i64, !dbg !3513
  %927 = getelementptr inbounds [4 x float], ptr %523, i64 0, i64 %926, !dbg !3513
  %928 = load float, ptr %927, align 4, !dbg !3513
  %929 = load i32, ptr %525, align 4, !dbg !3514
  %930 = sext i32 %929 to i64, !dbg !3514
  %931 = getelementptr inbounds [4 x float], ptr %524, i64 0, i64 %930, !dbg !3514
  %932 = load float, ptr %931, align 4, !dbg !3514
  %933 = fdiv float %928, %932, !dbg !3515
  %934 = load i32, ptr %525, align 4, !dbg !3516
  %935 = sext i32 %934 to i64, !dbg !3516
  %936 = getelementptr inbounds [4 x float], ptr %522, i64 0, i64 %935, !dbg !3516
  store float %933, ptr %936, align 4, !dbg !3517
  %937 = load i32, ptr %525, align 4, !dbg !3518
  %938 = add nsw i32 %937, 1, !dbg !3518
  store i32 %938, ptr %525, align 4, !dbg !3518
  br label %921, !dbg !3519, !llvm.loop !3520

939:                                              ; preds = %921
  %940 = load { <2 x float>, <2 x float> }, ptr %522, align 4, !dbg !3522
  %941 = extractvalue { <2 x float>, <2 x float> } %940, 0, !dbg !3450
  store <2 x float> %941, ptr %612, align 4, !dbg !3450
  %942 = getelementptr inbounds { <2 x float>, <2 x float> }, ptr %612, i32 0, i32 1, !dbg !3450
  %943 = extractvalue { <2 x float>, <2 x float> } %940, 1, !dbg !3450
  store <2 x float> %943, ptr %942, align 4, !dbg !3450
  %944 = load <2 x float>, ptr %609, align 4, !dbg !3450
  %945 = getelementptr inbounds { <2 x float>, <2 x float> }, ptr %609, i32 0, i32 1, !dbg !3450
  %946 = load <2 x float>, ptr %945, align 4, !dbg !3450
  %947 = load <2 x float>, ptr %612, align 4, !dbg !3450
  %948 = getelementptr inbounds { <2 x float>, <2 x float> }, ptr %612, i32 0, i32 1, !dbg !3450
  %949 = load <2 x float>, ptr %948, align 4, !dbg !3450
  store <2 x float> %944, ptr %541, align 4
  %950 = getelementptr inbounds { <2 x float>, <2 x float> }, ptr %541, i32 0, i32 1
  store <2 x float> %946, ptr %950, align 4
  store <2 x float> %947, ptr %542, align 4
  %951 = getelementptr inbounds { <2 x float>, <2 x float> }, ptr %542, i32 0, i32 1
  store <2 x float> %949, ptr %951, align 4
  call void @llvm.dbg.declare(metadata ptr %541, metadata !2331, metadata !DIExpression()), !dbg !3523
  call void @llvm.dbg.declare(metadata ptr %542, metadata !2335, metadata !DIExpression()), !dbg !3525
  call void @llvm.dbg.declare(metadata ptr %540, metadata !2337, metadata !DIExpression()), !dbg !3526
  call void @_ZN5sse_fC2Ev(ptr noundef nonnull align 4 dereferenceable(16) %540), !dbg !3526
  call void @llvm.dbg.declare(metadata ptr %543, metadata !2339, metadata !DIExpression()), !dbg !3527
  store i32 0, ptr %543, align 4, !dbg !3527
  br label %952, !dbg !3528

952:                                              ; preds = %955, %939
  %953 = load i32, ptr %543, align 4, !dbg !3529
  %954 = icmp slt i32 %953, 4, !dbg !3530
  br i1 %954, label %955, label %970, !dbg !3531

955:                                              ; preds = %952
  %956 = load i32, ptr %543, align 4, !dbg !3532
  %957 = sext i32 %956 to i64, !dbg !3532
  %958 = getelementptr inbounds [4 x float], ptr %541, i64 0, i64 %957, !dbg !3532
  %959 = load i32, ptr %958, align 4, !dbg !3532
  %960 = load i32, ptr %543, align 4, !dbg !3533
  %961 = sext i32 %960 to i64, !dbg !3533
  %962 = getelementptr inbounds [4 x float], ptr %542, i64 0, i64 %961, !dbg !3533
  %963 = load i32, ptr %962, align 4, !dbg !3533
  %964 = and i32 %959, %963, !dbg !3534
  %965 = load i32, ptr %543, align 4, !dbg !3535
  %966 = sext i32 %965 to i64, !dbg !3535
  %967 = getelementptr inbounds [4 x float], ptr %540, i64 0, i64 %966, !dbg !3535
  store i32 %964, ptr %967, align 4, !dbg !3536
  %968 = load i32, ptr %543, align 4, !dbg !3537
  %969 = add nsw i32 %968, 1, !dbg !3537
  store i32 %969, ptr %543, align 4, !dbg !3537
  br label %952, !dbg !3538, !llvm.loop !3539

970:                                              ; preds = %952
  %971 = load { <2 x float>, <2 x float> }, ptr %540, align 4, !dbg !3541
  %972 = extractvalue { <2 x float>, <2 x float> } %971, 0, !dbg !3450
  store <2 x float> %972, ptr %608, align 4, !dbg !3450
  %973 = getelementptr inbounds { <2 x float>, <2 x float> }, ptr %608, i32 0, i32 1, !dbg !3450
  %974 = extractvalue { <2 x float>, <2 x float> } %971, 1, !dbg !3450
  store <2 x float> %974, ptr %973, align 4, !dbg !3450
  call void @llvm.memcpy.p0.p0.i64(ptr align 4 %617, ptr align 4 %605, i64 16, i1 false), !dbg !3450
  call void @llvm.dbg.declare(metadata ptr %528, metadata !2238, metadata !DIExpression()), !dbg !3542
  call void @_ZN5sse_fC2Ev(ptr noundef nonnull align 4 dereferenceable(16) %528), !dbg !3542
  call void @llvm.dbg.declare(metadata ptr %529, metadata !2244, metadata !DIExpression()), !dbg !3544
  store i32 0, ptr %529, align 4, !dbg !3544
  br label %975, !dbg !3545

975:                                              ; preds = %978, %970
  %976 = load i32, ptr %529, align 4, !dbg !3546
  %977 = icmp slt i32 %976, 4, !dbg !3547
  br i1 %977, label %978, label %984, !dbg !3548

978:                                              ; preds = %975
  %979 = load i32, ptr %529, align 4, !dbg !3549
  %980 = sext i32 %979 to i64, !dbg !3550
  %981 = getelementptr inbounds [4 x float], ptr %528, i64 0, i64 %980, !dbg !3550
  store float 0.000000e+00, ptr %981, align 4, !dbg !3551
  %982 = load i32, ptr %529, align 4, !dbg !3552
  %983 = add nsw i32 %982, 1, !dbg !3552
  store i32 %983, ptr %529, align 4, !dbg !3552
  br label %975, !dbg !3553, !llvm.loop !3554

984:                                              ; preds = %975
  %985 = load { <2 x float>, <2 x float> }, ptr %528, align 4, !dbg !3556
  %986 = extractvalue { <2 x float>, <2 x float> } %985, 0, !dbg !3450
  store <2 x float> %986, ptr %618, align 4, !dbg !3450
  %987 = getelementptr inbounds { <2 x float>, <2 x float> }, ptr %618, i32 0, i32 1, !dbg !3450
  %988 = extractvalue { <2 x float>, <2 x float> } %985, 1, !dbg !3450
  store <2 x float> %988, ptr %987, align 4, !dbg !3450
  %989 = load <2 x float>, ptr %617, align 4, !dbg !3450
  %990 = getelementptr inbounds { <2 x float>, <2 x float> }, ptr %617, i32 0, i32 1, !dbg !3450
  %991 = load <2 x float>, ptr %990, align 4, !dbg !3450
  %992 = load <2 x float>, ptr %618, align 4, !dbg !3450
  %993 = getelementptr inbounds { <2 x float>, <2 x float> }, ptr %618, i32 0, i32 1, !dbg !3450
  %994 = load <2 x float>, ptr %993, align 4, !dbg !3450
  store <2 x float> %989, ptr %537, align 4
  %995 = getelementptr inbounds { <2 x float>, <2 x float> }, ptr %537, i32 0, i32 1
  store <2 x float> %991, ptr %995, align 4
  store <2 x float> %992, ptr %538, align 4
  %996 = getelementptr inbounds { <2 x float>, <2 x float> }, ptr %538, i32 0, i32 1
  store <2 x float> %994, ptr %996, align 4
  call void @llvm.dbg.declare(metadata ptr %537, metadata !2260, metadata !DIExpression()), !dbg !3557
  call void @llvm.dbg.declare(metadata ptr %538, metadata !2264, metadata !DIExpression()), !dbg !3559
  call void @llvm.dbg.declare(metadata ptr %536, metadata !2266, metadata !DIExpression()), !dbg !3560
  call void @_ZN5sse_fC2Ev(ptr noundef nonnull align 4 dereferenceable(16) %536), !dbg !3560
  call void @llvm.dbg.declare(metadata ptr %539, metadata !2268, metadata !DIExpression()), !dbg !3561
  store i32 0, ptr %539, align 4, !dbg !3561
  br label %997, !dbg !3562

997:                                              ; preds = %1000, %984
  %998 = load i32, ptr %539, align 4, !dbg !3563
  %999 = icmp slt i32 %998, 4, !dbg !3564
  br i1 %999, label %1000, label %1018, !dbg !3565

1000:                                             ; preds = %997
  %1001 = load i32, ptr %539, align 4, !dbg !3566
  %1002 = sext i32 %1001 to i64, !dbg !3566
  %1003 = getelementptr inbounds [4 x float], ptr %537, i64 0, i64 %1002, !dbg !3566
  %1004 = load float, ptr %1003, align 4, !dbg !3566
  %1005 = load i32, ptr %539, align 4, !dbg !3567
  %1006 = sext i32 %1005 to i64, !dbg !3567
  %1007 = getelementptr inbounds [4 x float], ptr %538, i64 0, i64 %1006, !dbg !3567
  %1008 = load float, ptr %1007, align 4, !dbg !3567
  %1009 = fcmp oeq float %1004, %1008, !dbg !3568
  %1010 = xor i1 %1009, true, !dbg !3569
  %1011 = zext i1 %1010 to i64, !dbg !3570
  %1012 = select i1 %1010, i32 -1, i32 0, !dbg !3570
  %1013 = load i32, ptr %539, align 4, !dbg !3571
  %1014 = sext i32 %1013 to i64, !dbg !3571
  %1015 = getelementptr inbounds [4 x float], ptr %536, i64 0, i64 %1014, !dbg !3571
  store i32 %1012, ptr %1015, align 4, !dbg !3572
  %1016 = load i32, ptr %539, align 4, !dbg !3573
  %1017 = add nsw i32 %1016, 1, !dbg !3573
  store i32 %1017, ptr %539, align 4, !dbg !3573
  br label %997, !dbg !3574, !llvm.loop !3575

1018:                                             ; preds = %997
  %1019 = load { <2 x float>, <2 x float> }, ptr %536, align 4, !dbg !3577
  %1020 = extractvalue { <2 x float>, <2 x float> } %1019, 0, !dbg !3450
  store <2 x float> %1020, ptr %616, align 4, !dbg !3450
  %1021 = getelementptr inbounds { <2 x float>, <2 x float> }, ptr %616, i32 0, i32 1, !dbg !3450
  %1022 = extractvalue { <2 x float>, <2 x float> } %1019, 1, !dbg !3450
  store <2 x float> %1022, ptr %1021, align 4, !dbg !3450
  call void @llvm.dbg.declare(metadata ptr %530, metadata !2238, metadata !DIExpression()), !dbg !3578
  call void @_ZN5sse_fC2Ev(ptr noundef nonnull align 4 dereferenceable(16) %530), !dbg !3578
  call void @llvm.dbg.declare(metadata ptr %531, metadata !2244, metadata !DIExpression()), !dbg !3580
  store i32 0, ptr %531, align 4, !dbg !3580
  br label %1023, !dbg !3581

1023:                                             ; preds = %1026, %1018
  %1024 = load i32, ptr %531, align 4, !dbg !3582
  %1025 = icmp slt i32 %1024, 4, !dbg !3583
  br i1 %1025, label %1026, label %1032, !dbg !3584

1026:                                             ; preds = %1023
  %1027 = load i32, ptr %531, align 4, !dbg !3585
  %1028 = sext i32 %1027 to i64, !dbg !3586
  %1029 = getelementptr inbounds [4 x float], ptr %530, i64 0, i64 %1028, !dbg !3586
  store float 0.000000e+00, ptr %1029, align 4, !dbg !3587
  %1030 = load i32, ptr %531, align 4, !dbg !3588
  %1031 = add nsw i32 %1030, 1, !dbg !3588
  store i32 %1031, ptr %531, align 4, !dbg !3588
  br label %1023, !dbg !3589, !llvm.loop !3590

1032:                                             ; preds = %1023
  %1033 = load { <2 x float>, <2 x float> }, ptr %530, align 4, !dbg !3592
  %1034 = extractvalue { <2 x float>, <2 x float> } %1033, 0, !dbg !3450
  store <2 x float> %1034, ptr %619, align 4, !dbg !3450
  %1035 = getelementptr inbounds { <2 x float>, <2 x float> }, ptr %619, i32 0, i32 1, !dbg !3450
  %1036 = extractvalue { <2 x float>, <2 x float> } %1033, 1, !dbg !3450
  store <2 x float> %1036, ptr %1035, align 4, !dbg !3450
  %1037 = load <2 x float>, ptr %616, align 4, !dbg !3450
  %1038 = getelementptr inbounds { <2 x float>, <2 x float> }, ptr %616, i32 0, i32 1, !dbg !3450
  %1039 = load <2 x float>, ptr %1038, align 4, !dbg !3450
  %1040 = load <2 x float>, ptr %619, align 4, !dbg !3450
  %1041 = getelementptr inbounds { <2 x float>, <2 x float> }, ptr %619, i32 0, i32 1, !dbg !3450
  %1042 = load <2 x float>, ptr %1041, align 4, !dbg !3450
  store <2 x float> %1037, ptr %519, align 4
  %1043 = getelementptr inbounds { <2 x float>, <2 x float> }, ptr %519, i32 0, i32 1
  store <2 x float> %1039, ptr %1043, align 4
  store <2 x float> %1040, ptr %520, align 4
  %1044 = getelementptr inbounds { <2 x float>, <2 x float> }, ptr %520, i32 0, i32 1
  store <2 x float> %1042, ptr %1044, align 4
  call void @llvm.dbg.declare(metadata ptr %519, metadata !2408, metadata !DIExpression()), !dbg !3593
  call void @llvm.dbg.declare(metadata ptr %520, metadata !2412, metadata !DIExpression()), !dbg !3595
  call void @llvm.dbg.declare(metadata ptr %518, metadata !2414, metadata !DIExpression()), !dbg !3596
  call void @_ZN5sse_fC2Ev(ptr noundef nonnull align 4 dereferenceable(16) %518), !dbg !3596
  call void @llvm.dbg.declare(metadata ptr %521, metadata !2416, metadata !DIExpression()), !dbg !3597
  store i32 0, ptr %521, align 4, !dbg !3597
  br label %1045, !dbg !3598

1045:                                             ; preds = %1048, %1032
  %1046 = load i32, ptr %521, align 4, !dbg !3599
  %1047 = icmp slt i32 %1046, 4, !dbg !3600
  br i1 %1047, label %1048, label %1064, !dbg !3601

1048:                                             ; preds = %1045
  %1049 = load i32, ptr %521, align 4, !dbg !3602
  %1050 = sext i32 %1049 to i64, !dbg !3602
  %1051 = getelementptr inbounds [4 x float], ptr %519, i64 0, i64 %1050, !dbg !3602
  %1052 = load i32, ptr %1051, align 4, !dbg !3602
  %1053 = xor i32 %1052, -1, !dbg !3603
  %1054 = load i32, ptr %521, align 4, !dbg !3604
  %1055 = sext i32 %1054 to i64, !dbg !3604
  %1056 = getelementptr inbounds [4 x float], ptr %520, i64 0, i64 %1055, !dbg !3604
  %1057 = load i32, ptr %1056, align 4, !dbg !3604
  %1058 = and i32 %1053, %1057, !dbg !3605
  %1059 = load i32, ptr %521, align 4, !dbg !3606
  %1060 = sext i32 %1059 to i64, !dbg !3606
  %1061 = getelementptr inbounds [4 x float], ptr %518, i64 0, i64 %1060, !dbg !3606
  store i32 %1058, ptr %1061, align 4, !dbg !3607
  %1062 = load i32, ptr %521, align 4, !dbg !3608
  %1063 = add nsw i32 %1062, 1, !dbg !3608
  store i32 %1063, ptr %521, align 4, !dbg !3608
  br label %1045, !dbg !3609, !llvm.loop !3610

1064:                                             ; preds = %1045
  %1065 = load { <2 x float>, <2 x float> }, ptr %518, align 4, !dbg !3612
  %1066 = extractvalue { <2 x float>, <2 x float> } %1065, 0, !dbg !3450
  store <2 x float> %1066, ptr %615, align 4, !dbg !3450
  %1067 = getelementptr inbounds { <2 x float>, <2 x float> }, ptr %615, i32 0, i32 1, !dbg !3450
  %1068 = extractvalue { <2 x float>, <2 x float> } %1065, 1, !dbg !3450
  store <2 x float> %1068, ptr %1067, align 4, !dbg !3450
  %1069 = load <2 x float>, ptr %608, align 4, !dbg !3450
  %1070 = getelementptr inbounds { <2 x float>, <2 x float> }, ptr %608, i32 0, i32 1, !dbg !3450
  %1071 = load <2 x float>, ptr %1070, align 4, !dbg !3450
  %1072 = load <2 x float>, ptr %615, align 4, !dbg !3450
  %1073 = getelementptr inbounds { <2 x float>, <2 x float> }, ptr %615, i32 0, i32 1, !dbg !3450
  %1074 = load <2 x float>, ptr %1073, align 4, !dbg !3450
  store <2 x float> %1069, ptr %545, align 4
  %1075 = getelementptr inbounds { <2 x float>, <2 x float> }, ptr %545, i32 0, i32 1
  store <2 x float> %1071, ptr %1075, align 4
  store <2 x float> %1072, ptr %546, align 4
  %1076 = getelementptr inbounds { <2 x float>, <2 x float> }, ptr %546, i32 0, i32 1
  store <2 x float> %1074, ptr %1076, align 4
  call void @llvm.dbg.declare(metadata ptr %545, metadata !2435, metadata !DIExpression()), !dbg !3613
  call void @llvm.dbg.declare(metadata ptr %546, metadata !2439, metadata !DIExpression()), !dbg !3615
  call void @llvm.dbg.declare(metadata ptr %544, metadata !2441, metadata !DIExpression()), !dbg !3616
  call void @_ZN5sse_fC2Ev(ptr noundef nonnull align 4 dereferenceable(16) %544), !dbg !3616
  call void @llvm.dbg.declare(metadata ptr %547, metadata !2443, metadata !DIExpression()), !dbg !3617
  store i32 0, ptr %547, align 4, !dbg !3617
  br label %1077, !dbg !3618

1077:                                             ; preds = %1080, %1064
  %1078 = load i32, ptr %547, align 4, !dbg !3619
  %1079 = icmp slt i32 %1078, 4, !dbg !3620
  br i1 %1079, label %1080, label %1095, !dbg !3621

1080:                                             ; preds = %1077
  %1081 = load i32, ptr %547, align 4, !dbg !3622
  %1082 = sext i32 %1081 to i64, !dbg !3622
  %1083 = getelementptr inbounds [4 x float], ptr %545, i64 0, i64 %1082, !dbg !3622
  %1084 = load i32, ptr %1083, align 4, !dbg !3622
  %1085 = load i32, ptr %547, align 4, !dbg !3623
  %1086 = sext i32 %1085 to i64, !dbg !3623
  %1087 = getelementptr inbounds [4 x float], ptr %546, i64 0, i64 %1086, !dbg !3623
  %1088 = load i32, ptr %1087, align 4, !dbg !3623
  %1089 = or i32 %1084, %1088, !dbg !3624
  %1090 = load i32, ptr %547, align 4, !dbg !3625
  %1091 = sext i32 %1090 to i64, !dbg !3625
  %1092 = getelementptr inbounds [4 x float], ptr %544, i64 0, i64 %1091, !dbg !3625
  store i32 %1089, ptr %1092, align 4, !dbg !3626
  %1093 = load i32, ptr %547, align 4, !dbg !3627
  %1094 = add nsw i32 %1093, 1, !dbg !3627
  store i32 %1094, ptr %547, align 4, !dbg !3627
  br label %1077, !dbg !3628, !llvm.loop !3629

1095:                                             ; preds = %1077
  %1096 = load { <2 x float>, <2 x float> }, ptr %544, align 4, !dbg !3631
  %1097 = extractvalue { <2 x float>, <2 x float> } %1096, 0, !dbg !3450
  store <2 x float> %1097, ptr %604, align 4, !dbg !3450
  %1098 = getelementptr inbounds { <2 x float>, <2 x float> }, ptr %604, i32 0, i32 1, !dbg !3450
  %1099 = extractvalue { <2 x float>, <2 x float> } %1096, 1, !dbg !3450
  store <2 x float> %1099, ptr %1098, align 4, !dbg !3450
  %1100 = load { <2 x float>, <2 x float> }, ptr %604, align 4, !dbg !3632
  %1101 = getelementptr inbounds %struct.sse_f, ptr %648, i32 0, i32 0, !dbg !3445
  %1102 = getelementptr inbounds { <2 x float>, <2 x float> }, ptr %1101, i32 0, i32 0, !dbg !3445
  %1103 = extractvalue { <2 x float>, <2 x float> } %1100, 0, !dbg !3445
  store <2 x float> %1103, ptr %1102, align 4, !dbg !3445
  %1104 = getelementptr inbounds { <2 x float>, <2 x float> }, ptr %1101, i32 0, i32 1, !dbg !3445
  %1105 = extractvalue { <2 x float>, <2 x float> } %1100, 1, !dbg !3445
  store <2 x float> %1105, ptr %1104, align 4, !dbg !3445
  %1106 = load i8, ptr %641, align 1, !dbg !3633
  %1107 = trunc i8 %1106 to i1, !dbg !3633
  %1108 = zext i1 %1107 to i32, !dbg !3633
  %1109 = icmp eq i32 %1108, 0, !dbg !3635
  br i1 %1109, label %1110, label %1915, !dbg !3636

1110:                                             ; preds = %1095
  %1111 = load i32, ptr %644, align 4, !dbg !3637
  store ptr %683, ptr %627, align 8
  call void @llvm.dbg.declare(metadata ptr %627, metadata !1948, metadata !DIExpression()), !dbg !3639
  store i32 %1111, ptr %628, align 4
  call void @llvm.dbg.declare(metadata ptr %628, metadata !1952, metadata !DIExpression()), !dbg !3641
  store ptr @_ZN4RTTL22BinnedAllDimsSaveSpace8binTableE, ptr %629, align 8
  call void @llvm.dbg.declare(metadata ptr %629, metadata !1954, metadata !DIExpression()), !dbg !3642
  %1112 = load ptr, ptr %627, align 8
  call void @llvm.dbg.declare(metadata ptr %630, metadata !1956, metadata !DIExpression()), !dbg !3643
  store i32 0, ptr %630, align 4, !dbg !3643
  br label %1113, !dbg !3644

1113:                                             ; preds = %1212, %1110
  %1114 = load i32, ptr %630, align 4, !dbg !3645
  %1115 = icmp slt i32 %1114, 3, !dbg !3646
  br i1 %1115, label %1116, label %1215, !dbg !3647

1116:                                             ; preds = %1113
  call void @llvm.dbg.declare(metadata ptr %631, metadata !1964, metadata !DIExpression()), !dbg !3648
  store i32 0, ptr %631, align 4, !dbg !3648
  br label %1117, !dbg !3649

1117:                                             ; preds = %1194, %1116
  %1118 = load i32, ptr %631, align 4, !dbg !3650
  %1119 = load i32, ptr %628, align 4, !dbg !3651
  %1120 = icmp slt i32 %1118, %1119, !dbg !3652
  br i1 %1120, label %1121, label %1197, !dbg !3653

1121:                                             ; preds = %1117
  %1122 = load ptr, ptr %629, align 8, !dbg !3654
  %1123 = getelementptr inbounds %"struct.RTTL::BinnedAllDimsSaveSpace::BinTable", ptr %1122, i32 0, i32 1, !dbg !3655
  %1124 = load i32, ptr %630, align 4, !dbg !3656
  %1125 = sext i32 %1124 to i64, !dbg !3654
  %1126 = getelementptr inbounds [3 x [32 x %"class.RTTL::AABB"]], ptr %1123, i64 0, i64 %1125, !dbg !3654
  %1127 = load i32, ptr %631, align 4, !dbg !3657
  %1128 = sext i32 %1127 to i64, !dbg !3654
  %1129 = getelementptr inbounds [32 x %"class.RTTL::AABB"], ptr %1126, i64 0, i64 %1128, !dbg !3654
  store ptr %1129, ptr %576, align 8
  call void @llvm.dbg.declare(metadata ptr %576, metadata !1978, metadata !DIExpression()), !dbg !3658
  %1130 = load ptr, ptr %576, align 8
  store ptr %1130, ptr %408, align 8
  call void @llvm.dbg.declare(metadata ptr %408, metadata !1983, metadata !DIExpression()), !dbg !3660
  %1131 = load ptr, ptr %408, align 8
  store float 0x47EFFFFFE0000000, ptr %403, align 4
  call void @llvm.dbg.declare(metadata ptr %403, metadata !1885, metadata !DIExpression()), !dbg !3662
  call void @llvm.dbg.declare(metadata ptr %402, metadata !1892, metadata !DIExpression()), !dbg !3664
  call void @_ZN5sse_fC2Ev(ptr noundef nonnull align 4 dereferenceable(16) %402), !dbg !3664
