; ModuleID = '/home/raj/SVF_PAPER_BENCHMARKS/parsec-3.0/pkgs/apps/raytrace/src/RTTL/BVH/Builder/Builder.cxx'
source_filename = "/home/raj/SVF_PAPER_BENCHMARKS/parsec-3.0/pkgs/apps/raytrace/src/RTTL/BVH/Builder/Builder.cxx"
target datalayout = "e-m:e-p270:32:32-p271:32:32-p272:64:64-i64:64-f80:128-n8:16:32:64-S128"
target triple = "x86_64-unknown-linux-gnu"

%"class.std::ios_base::Init" = type { i8 }
%struct.sse_f = type { [4 x float] }
%"class.std::basic_ostream" = type { ptr, %"class.std::basic_ios" }
%"class.std::basic_ios" = type { %"class.std::ios_base", ptr, i8, i8, ptr, ptr, ptr, ptr }
%"class.std::ios_base" = type { ptr, i64, i64, i32, i32, i32, ptr, %"struct.std::ios_base::_Words", [8 x %"struct.std::ios_base::_Words"], i32, ptr, %"class.std::locale" }
%"struct.std::ios_base::_Words" = type { ptr, i64 }
%"class.std::locale" = type { ptr }
%"class.std::__cxx11::basic_string" = type { %"struct.std::__cxx11::basic_string<char>::_Alloc_hider", i64, %union.anon }
%"struct.std::__cxx11::basic_string<char>::_Alloc_hider" = type { ptr }
%union.anon = type { i64, [8 x i8] }
%"class.std::allocator" = type { i8 }
%"class.RTTL::OnDemandBuilder" = type { %"class.RTTL::BVHBuilder", ptr }
%"class.RTTL::BVHBuilder" = type { ptr, ptr }
%"struct.std::forward_iterator_tag" = type { i8 }
%"struct.std::random_access_iterator_tag" = type { i8 }
%"struct.RTTL::BVH" = type { ptr, ptr, ptr, i32, ptr }

$_ZN4RTTL22BinnedAllDimsSaveSpaceC2EPNS_3BVHE = comdat any

$_ZN4RTTL15SweepBVHBuilderC2EPNS_3BVHE = comdat any

$_ZN4RTTL13BinnedAllDimsC2EPNS_3BVHE = comdat any

$_ZN4RTTL15OnDemandBuilderC2EPNS_3BVHE = comdat any

$_ZNSt7__cxx1112basic_stringIcSt11char_traitsIcESaIcEEC2IS3_EEPKcRKS3_ = comdat any

$_ZN5sse_fC2Ev = comdat any

$_ZN4RTTL10BVHBuilderC2EPNS_3BVHE = comdat any

$_ZN4RTTL15SweepBVHBuilder5buildERKNS_7RTBox3aES3_ = comdat any

$_ZN4RTTL13BinnedAllDims5buildERKNS_7RTBox3aES3_ = comdat any

$_ZNSt11char_traitsIcE6lengthEPKc = comdat any

$_ZNSt7__cxx1112basic_stringIcSt11char_traitsIcESaIcEE12_M_constructIPKcEEvT_S8_St20forward_iterator_tag = comdat any

$_ZNSt7__cxx1112basic_stringIcSt11char_traitsIcESaIcEE12_Alloc_hiderD2Ev = comdat any

$_ZN9__gnu_cxx11char_traitsIcE6lengthEPKc = comdat any

$_ZN9__gnu_cxx11char_traitsIcE2eqERKcS3_ = comdat any

$_ZN9__gnu_cxx17__is_null_pointerIKcEEbPT_ = comdat any

$_ZSt8distanceIPKcENSt15iterator_traitsIT_E15difference_typeES3_S3_ = comdat any

$__clang_call_terminate = comdat any

$_ZSt10__distanceIPKcENSt15iterator_traitsIT_E15difference_typeES3_S3_St26random_access_iterator_tag = comdat any

$_ZSt19__iterator_categoryIPKcENSt15iterator_traitsIT_E17iterator_categoryERKS3_ = comdat any

$_ZTVN4RTTL10BVHBuilderE = comdat any

$_ZTSN4RTTL10BVHBuilderE = comdat any

$_ZTIN4RTTL10BVHBuilderE = comdat any

$_ZTVN4RTTL15SweepBVHBuilderE = comdat any

$_ZTSN4RTTL15SweepBVHBuilderE = comdat any

$_ZTIN4RTTL15SweepBVHBuilderE = comdat any

$_ZTVN4RTTL13BinnedAllDimsE = comdat any

$_ZTSN4RTTL13BinnedAllDimsE = comdat any

$_ZTIN4RTTL13BinnedAllDimsE = comdat any

@_ZStL8__ioinit = internal global %"class.std::ios_base::Init" zeroinitializer, align 1, !dbg !0
@__dso_handle = external hidden global i8
@_ZL8maxFloat = internal global %struct.sse_f zeroinitializer, align 4, !dbg !7
@.str = private unnamed_addr constant [23 x i8] c"binnedalldimssavespace\00", align 1, !dbg !712
@_ZN4RTTL10BVHBuilder7Options14defaultBuilderE = dso_local global ptr @.str, align 8, !dbg !718
@_ZSt4cout = external global %"class.std::basic_ostream", align 8
@.str.2 = private unnamed_addr constant [19 x i8] c"using BVH builder \00", align 1, !dbg !786
@.str.3 = private unnamed_addr constant [8 x i8] c"default\00", align 1, !dbg !791
@.str.4 = private unnamed_addr constant [6 x i8] c"sweep\00", align 1, !dbg !796
@.str.5 = private unnamed_addr constant [14 x i8] c"binnedalldims\00", align 1, !dbg !801
@.str.6 = private unnamed_addr constant [9 x i8] c"binned3d\00", align 1, !dbg !806
@.str.7 = private unnamed_addr constant [7 x i8] c"binned\00", align 1, !dbg !811
@.str.8 = private unnamed_addr constant [9 x i8] c"ondemand\00", align 1, !dbg !816
@.str.9 = private unnamed_addr constant [5 x i8] c"lazy\00", align 1, !dbg !818
@.str.10 = private unnamed_addr constant [26 x i8] c"unknown BVH builder type \00", align 1, !dbg !823
@_ZSt4cerr = external global %"class.std::basic_ostream", align 8
@.str.11 = private unnamed_addr constant [8 x i8] c"FATAL: \00", align 1, !dbg !828
@.str.12 = private unnamed_addr constant [5 x i8] c"(in \00", align 1, !dbg !830
@__PRETTY_FUNCTION__._ZN4RTTL10BVHBuilder3getEPKcPNS_3BVHE = private unnamed_addr constant [62 x i8] c"static BVHBuilder *RTTL::BVHBuilder::get(const char *, BVH *)\00", align 1, !dbg !832
@.str.13 = private unnamed_addr constant [2 x i8] c")\00", align 1, !dbg !837
@_ZTVN4RTTL22BinnedAllDimsSaveSpaceE = external unnamed_addr constant { [3 x ptr] }, align 8
@_ZTVN4RTTL10BVHBuilderE = linkonce_odr dso_local unnamed_addr constant { [3 x ptr] } { [3 x ptr] [ptr null, ptr @_ZTIN4RTTL10BVHBuilderE, ptr @__cxa_pure_virtual] }, comdat, align 8
@_ZTVN10__cxxabiv117__class_type_infoE = external global ptr
@_ZTSN4RTTL10BVHBuilderE = linkonce_odr dso_local constant [20 x i8] c"N4RTTL10BVHBuilderE\00", comdat, align 1
@_ZTIN4RTTL10BVHBuilderE = linkonce_odr dso_local constant { ptr, ptr } { ptr getelementptr inbounds (ptr, ptr @_ZTVN10__cxxabiv117__class_type_infoE, i64 2), ptr @_ZTSN4RTTL10BVHBuilderE }, comdat, align 8
@_ZTVN4RTTL15SweepBVHBuilderE = linkonce_odr dso_local unnamed_addr constant { [3 x ptr] } { [3 x ptr] [ptr null, ptr @_ZTIN4RTTL15SweepBVHBuilderE, ptr @_ZN4RTTL15SweepBVHBuilder5buildERKNS_7RTBox3aES3_] }, comdat, align 8
@_ZTVN10__cxxabiv120__si_class_type_infoE = external global ptr
@_ZTSN4RTTL15SweepBVHBuilderE = linkonce_odr dso_local constant [25 x i8] c"N4RTTL15SweepBVHBuilderE\00", comdat, align 1
@_ZTIN4RTTL15SweepBVHBuilderE = linkonce_odr dso_local constant { ptr, ptr, ptr } { ptr getelementptr inbounds (ptr, ptr @_ZTVN10__cxxabiv120__si_class_type_infoE, i64 2), ptr @_ZTSN4RTTL15SweepBVHBuilderE, ptr @_ZTIN4RTTL10BVHBuilderE }, comdat, align 8
@_ZTVN4RTTL13BinnedAllDimsE = linkonce_odr dso_local unnamed_addr constant { [3 x ptr] } { [3 x ptr] [ptr null, ptr @_ZTIN4RTTL13BinnedAllDimsE, ptr @_ZN4RTTL13BinnedAllDims5buildERKNS_7RTBox3aES3_] }, comdat, align 8
@_ZTSN4RTTL13BinnedAllDimsE = linkonce_odr dso_local constant [23 x i8] c"N4RTTL13BinnedAllDimsE\00", comdat, align 1
@_ZTIN4RTTL13BinnedAllDimsE = linkonce_odr dso_local constant { ptr, ptr, ptr } { ptr getelementptr inbounds (ptr, ptr @_ZTVN10__cxxabiv120__si_class_type_infoE, i64 2), ptr @_ZTSN4RTTL13BinnedAllDimsE, ptr @_ZTIN4RTTL10BVHBuilderE }, comdat, align 8
@_ZTVN4RTTL15OnDemandBuilderE = external unnamed_addr constant { [3 x ptr] }, align 8
@.str.14 = private unnamed_addr constant [42 x i8] c"basic_string::_M_construct null not valid\00", align 1, !dbg !842
@llvm.global_ctors = appending global [1 x { i32, ptr, ptr }] [{ i32, ptr, ptr } { i32 65535, ptr @_GLOBAL__sub_I_Builder.cxx, ptr null }]

; Function Attrs: noinline uwtable
define internal void @__cxx_global_var_init() #0 section ".text.startup" !dbg !2136 {
  call void @_ZNSt8ios_base4InitC1Ev(ptr noundef nonnull align 1 dereferenceable(1) @_ZStL8__ioinit), !dbg !2137
  %1 = call i32 @__cxa_atexit(ptr @_ZNSt8ios_base4InitD1Ev, ptr @_ZStL8__ioinit, ptr @__dso_handle) #3, !dbg !2139
  ret void, !dbg !2137
}

declare void @_ZNSt8ios_base4InitC1Ev(ptr noundef nonnull align 1 dereferenceable(1)) unnamed_addr #1

; Function Attrs: nounwind
declare void @_ZNSt8ios_base4InitD1Ev(ptr noundef nonnull align 1 dereferenceable(1)) unnamed_addr #2

; Function Attrs: nounwind
declare i32 @__cxa_atexit(ptr, ptr, ptr) #3

; Function Attrs: noinline uwtable
define internal void @__cxx_global_var_init.1() #4 section ".text.startup" !dbg !2140 {
  %1 = alloca %struct.sse_f, align 4
  %2 = alloca float, align 4
  %3 = alloca i32, align 4
  store float 0x47EFFFFFE0000000, ptr %2, align 4
  call void @llvm.dbg.declare(metadata ptr %2, metadata !2141, metadata !DIExpression()), !dbg !2145
  call void @llvm.dbg.declare(metadata ptr %1, metadata !2148, metadata !DIExpression()), !dbg !2149
  call void @_ZN5sse_fC2Ev(ptr noundef nonnull align 4 dereferenceable(16) %1), !dbg !2149
  call void @llvm.dbg.declare(metadata ptr %3, metadata !2150, metadata !DIExpression()), !dbg !2152
  store i32 0, ptr %3, align 4, !dbg !2152
  br label %4, !dbg !2153

4:                                                ; preds = %7, %0
  %5 = load i32, ptr %3, align 4, !dbg !2154
  %6 = icmp slt i32 %5, 4, !dbg !2156
  br i1 %6, label %7, label %14, !dbg !2157

7:                                                ; preds = %4
  %8 = load float, ptr %2, align 4, !dbg !2158
  %9 = load i32, ptr %3, align 4, !dbg !2159
  %10 = sext i32 %9 to i64, !dbg !2160
  %11 = getelementptr inbounds [4 x float], ptr %1, i64 0, i64 %10, !dbg !2160
  store float %8, ptr %11, align 4, !dbg !2161
  %12 = load i32, ptr %3, align 4, !dbg !2162
  %13 = add nsw i32 %12, 1, !dbg !2162
  store i32 %13, ptr %3, align 4, !dbg !2162
  br label %4, !dbg !2163, !llvm.loop !2164

14:                                               ; preds = %4
  %15 = load { <2 x float>, <2 x float> }, ptr %1, align 4, !dbg !2167
  %16 = extractvalue { <2 x float>, <2 x float> } %15, 0, !dbg !2168
  store <2 x float> %16, ptr @_ZL8maxFloat, align 4, !dbg !2168
  %17 = extractvalue { <2 x float>, <2 x float> } %15, 1, !dbg !2168
  store <2 x float> %17, ptr getelementptr inbounds ({ <2 x float>, <2 x float> }, ptr @_ZL8maxFloat, i32 0, i32 1), align 4, !dbg !2168
  ret void, !dbg !2169
}

; Function Attrs: mustprogress noinline optnone uwtable
define dso_local noundef ptr @_ZN4RTTL10BVHBuilder3getEPKcPNS_3BVHE(ptr noundef %0, ptr noundef %1) #5 align 2 personality ptr @__gxx_personality_v0 !dbg !2170 {
  %3 = alloca ptr, align 8
  %4 = alloca ptr, align 8
  %5 = alloca ptr, align 8
  %6 = alloca ptr, align 8
  %7 = alloca i32, align 4
  %8 = alloca %"class.std::__cxx11::basic_string", align 8
  %9 = alloca %"class.std::allocator", align 1
  %10 = alloca %"class.std::__cxx11::basic_string", align 8
  %11 = alloca %"class.std::allocator", align 1
  store ptr %0, ptr %4, align 8
  call void @llvm.dbg.declare(metadata ptr %4, metadata !2171, metadata !DIExpression()), !dbg !2172
  store ptr %1, ptr %5, align 8
  call void @llvm.dbg.declare(metadata ptr %5, metadata !2173, metadata !DIExpression()), !dbg !2174
  %12 = call noundef nonnull align 8 dereferenceable(8) ptr @_ZStlsISt11char_traitsIcEERSt13basic_ostreamIcT_ES5_PKc(ptr noundef nonnull align 8 dereferenceable(8) @_ZSt4cout, ptr noundef @.str.2), !dbg !2175
  %13 = load ptr, ptr %4, align 8, !dbg !2176
  %14 = call noundef nonnull align 8 dereferenceable(8) ptr @_ZStlsISt11char_traitsIcEERSt13basic_ostreamIcT_ES5_PKc(ptr noundef nonnull align 8 dereferenceable(8) %12, ptr noundef %13), !dbg !2177
  %15 = call noundef nonnull align 8 dereferenceable(8) ptr @_ZNSolsEPFRSoS_E(ptr noundef nonnull align 8 dereferenceable(8) %14, ptr noundef @_ZSt4endlIcSt11char_traitsIcEERSt13basic_ostreamIT_T0_ES6_), !dbg !2178
  %16 = load ptr, ptr %4, align 8, !dbg !2179
  %17 = icmp eq ptr %16, null, !dbg !2181
  br i1 %17, label %18, label %21, !dbg !2182

18:                                               ; preds = %2
  %19 = load ptr, ptr %5, align 8, !dbg !2183
  %20 = call noundef ptr @_ZN4RTTL10BVHBuilder3getEPKcPNS_3BVHE(ptr noundef @.str.3, ptr noundef %19), !dbg !2184
  store ptr %20, ptr %3, align 8, !dbg !2185
  br label %146, !dbg !2185

21:                                               ; preds = %2
  %22 = load ptr, ptr %4, align 8, !dbg !2186
  %23 = call i32 @strcmp(ptr noundef %22, ptr noundef @.str.3) #16, !dbg !2188
  %24 = icmp ne i32 %23, 0, !dbg !2188
  br i1 %24, label %33, label %25, !dbg !2189

25:                                               ; preds = %21
  %26 = call noalias noundef nonnull ptr @_Znwm(i64 noundef 16) #17, !dbg !2190, !heapallocsite !2191
  %27 = load ptr, ptr %5, align 8, !dbg !2193
  invoke void @_ZN4RTTL22BinnedAllDimsSaveSpaceC2EPNS_3BVHE(ptr noundef nonnull align 8 dereferenceable(16) %26, ptr noundef %27)
          to label %28 unwind label %29, !dbg !2194

28:                                               ; preds = %25
  store ptr %26, ptr %3, align 8, !dbg !2195
  br label %146, !dbg !2195

29:                                               ; preds = %25
  %30 = landingpad { ptr, i32 }
          cleanup, !dbg !2196
  %31 = extractvalue { ptr, i32 } %30, 0, !dbg !2196
  store ptr %31, ptr %6, align 8, !dbg !2196
  %32 = extractvalue { ptr, i32 } %30, 1, !dbg !2196
  store i32 %32, ptr %7, align 4, !dbg !2196
  call void @_ZdlPv(ptr noundef %26) #18, !dbg !2190
  br label %148, !dbg !2190

33:                                               ; preds = %21
  %34 = load ptr, ptr %4, align 8, !dbg !2197
  %35 = call i32 @strcmp(ptr noundef %34, ptr noundef @.str.4) #16, !dbg !2199
  %36 = icmp ne i32 %35, 0, !dbg !2199
  br i1 %36, label %45, label %37, !dbg !2200

37:                                               ; preds = %33
  %38 = call noalias noundef nonnull ptr @_Znwm(i64 noundef 16) #17, !dbg !2201, !heapallocsite !2202
  %39 = load ptr, ptr %5, align 8, !dbg !2239
  invoke void @_ZN4RTTL15SweepBVHBuilderC2EPNS_3BVHE(ptr noundef nonnull align 8 dereferenceable(16) %38, ptr noundef %39)
          to label %40 unwind label %41, !dbg !2240

40:                                               ; preds = %37
  store ptr %38, ptr %3, align 8, !dbg !2241
  br label %146, !dbg !2241

41:                                               ; preds = %37
  %42 = landingpad { ptr, i32 }
          cleanup, !dbg !2242
  %43 = extractvalue { ptr, i32 } %42, 0, !dbg !2242
  store ptr %43, ptr %6, align 8, !dbg !2242
  %44 = extractvalue { ptr, i32 } %42, 1, !dbg !2242
  store i32 %44, ptr %7, align 4, !dbg !2242
  call void @_ZdlPv(ptr noundef %38) #18, !dbg !2201
  br label %148, !dbg !2201

45:                                               ; preds = %33
  %46 = load ptr, ptr %4, align 8, !dbg !2243
  %47 = call i32 @strcmp(ptr noundef %46, ptr noundef @.str.5) #16, !dbg !2245
  %48 = icmp ne i32 %47, 0, !dbg !2245
  br i1 %48, label %57, label %49, !dbg !2246

49:                                               ; preds = %45
  %50 = call noalias noundef nonnull ptr @_Znwm(i64 noundef 16) #17, !dbg !2247, !heapallocsite !2248
  %51 = load ptr, ptr %5, align 8, !dbg !2266
  invoke void @_ZN4RTTL13BinnedAllDimsC2EPNS_3BVHE(ptr noundef nonnull align 8 dereferenceable(16) %50, ptr noundef %51)
          to label %52 unwind label %53, !dbg !2267

52:                                               ; preds = %49
  store ptr %50, ptr %3, align 8, !dbg !2268
  br label %146, !dbg !2268

53:                                               ; preds = %49
  %54 = landingpad { ptr, i32 }
          cleanup, !dbg !2269
  %55 = extractvalue { ptr, i32 } %54, 0, !dbg !2269
  store ptr %55, ptr %6, align 8, !dbg !2269
  %56 = extractvalue { ptr, i32 } %54, 1, !dbg !2269
  store i32 %56, ptr %7, align 4, !dbg !2269
  call void @_ZdlPv(ptr noundef %50) #18, !dbg !2247
  br label %148, !dbg !2247

57:                                               ; preds = %45
  %58 = load ptr, ptr %4, align 8, !dbg !2270
  %59 = call i32 @strcmp(ptr noundef %58, ptr noundef @.str) #16, !dbg !2272
  %60 = icmp ne i32 %59, 0, !dbg !2272
  br i1 %60, label %69, label %61, !dbg !2273

61:                                               ; preds = %57
  %62 = call noalias noundef nonnull ptr @_Znwm(i64 noundef 16) #17, !dbg !2274, !heapallocsite !2191
  %63 = load ptr, ptr %5, align 8, !dbg !2275
  invoke void @_ZN4RTTL22BinnedAllDimsSaveSpaceC2EPNS_3BVHE(ptr noundef nonnull align 8 dereferenceable(16) %62, ptr noundef %63)
          to label %64 unwind label %65, !dbg !2276

64:                                               ; preds = %61
  store ptr %62, ptr %3, align 8, !dbg !2277
  br label %146, !dbg !2277

65:                                               ; preds = %61
  %66 = landingpad { ptr, i32 }
          cleanup, !dbg !2278
  %67 = extractvalue { ptr, i32 } %66, 0, !dbg !2278
  store ptr %67, ptr %6, align 8, !dbg !2278
  %68 = extractvalue { ptr, i32 } %66, 1, !dbg !2278
  store i32 %68, ptr %7, align 4, !dbg !2278
  call void @_ZdlPv(ptr noundef %62) #18, !dbg !2274
  br label %148, !dbg !2274

69:                                               ; preds = %57
  %70 = load ptr, ptr %4, align 8, !dbg !2279
  %71 = call i32 @strcmp(ptr noundef %70, ptr noundef @.str.6) #16, !dbg !2281
  %72 = icmp ne i32 %71, 0, !dbg !2281
  br i1 %72, label %81, label %73, !dbg !2282

73:                                               ; preds = %69
  %74 = call noalias noundef nonnull ptr @_Znwm(i64 noundef 16) #17, !dbg !2283, !heapallocsite !2248
  %75 = load ptr, ptr %5, align 8, !dbg !2284
  invoke void @_ZN4RTTL13BinnedAllDimsC2EPNS_3BVHE(ptr noundef nonnull align 8 dereferenceable(16) %74, ptr noundef %75)
          to label %76 unwind label %77, !dbg !2285

76:                                               ; preds = %73
  store ptr %74, ptr %3, align 8, !dbg !2286
  br label %146, !dbg !2286

77:                                               ; preds = %73
  %78 = landingpad { ptr, i32 }
          cleanup, !dbg !2287
  %79 = extractvalue { ptr, i32 } %78, 0, !dbg !2287
  store ptr %79, ptr %6, align 8, !dbg !2287
  %80 = extractvalue { ptr, i32 } %78, 1, !dbg !2287
  store i32 %80, ptr %7, align 4, !dbg !2287
  call void @_ZdlPv(ptr noundef %74) #18, !dbg !2283
  br label %148, !dbg !2283

81:                                               ; preds = %69
  %82 = load ptr, ptr %4, align 8, !dbg !2288
  %83 = call i32 @strcmp(ptr noundef %82, ptr noundef @.str.7) #16, !dbg !2290
  %84 = icmp ne i32 %83, 0, !dbg !2290
  br i1 %84, label %93, label %85, !dbg !2291

85:                                               ; preds = %81
  %86 = call noalias noundef nonnull ptr @_Znwm(i64 noundef 16) #17, !dbg !2292, !heapallocsite !2248
  %87 = load ptr, ptr %5, align 8, !dbg !2293
  invoke void @_ZN4RTTL13BinnedAllDimsC2EPNS_3BVHE(ptr noundef nonnull align 8 dereferenceable(16) %86, ptr noundef %87)
          to label %88 unwind label %89, !dbg !2294

88:                                               ; preds = %85
  store ptr %86, ptr %3, align 8, !dbg !2295
  br label %146, !dbg !2295

89:                                               ; preds = %85
  %90 = landingpad { ptr, i32 }
          cleanup, !dbg !2296
  %91 = extractvalue { ptr, i32 } %90, 0, !dbg !2296
  store ptr %91, ptr %6, align 8, !dbg !2296
  %92 = extractvalue { ptr, i32 } %90, 1, !dbg !2296
  store i32 %92, ptr %7, align 4, !dbg !2296
  call void @_ZdlPv(ptr noundef %86) #18, !dbg !2292
  br label %148, !dbg !2292

93:                                               ; preds = %81
  %94 = load ptr, ptr %4, align 8, !dbg !2297
  %95 = call i32 @strcmp(ptr noundef %94, ptr noundef @.str.8) #16, !dbg !2299
  %96 = icmp ne i32 %95, 0, !dbg !2299
  br i1 %96, label %97, label %101, !dbg !2300

97:                                               ; preds = %93
  %98 = load ptr, ptr %4, align 8, !dbg !2301
  %99 = call i32 @strcmp(ptr noundef %98, ptr noundef @.str.9) #16, !dbg !2302
  %100 = icmp ne i32 %99, 0, !dbg !2302
  br i1 %100, label %109, label %101, !dbg !2303

101:                                              ; preds = %97, %93
  %102 = call noalias noundef nonnull ptr @_Znwm(i64 noundef 24) #17, !dbg !2304, !heapallocsite !2305
  %103 = load ptr, ptr %5, align 8, !dbg !2307
  invoke void @_ZN4RTTL15OnDemandBuilderC2EPNS_3BVHE(ptr noundef nonnull align 8 dereferenceable(24) %102, ptr noundef %103)
          to label %104 unwind label %105, !dbg !2308

104:                                              ; preds = %101
  store ptr %102, ptr %3, align 8, !dbg !2309
  br label %146, !dbg !2309

105:                                              ; preds = %101
  %106 = landingpad { ptr, i32 }
          cleanup, !dbg !2310
  %107 = extractvalue { ptr, i32 } %106, 0, !dbg !2310
  store ptr %107, ptr %6, align 8, !dbg !2310
  %108 = extractvalue { ptr, i32 } %106, 1, !dbg !2310
  store i32 %108, ptr %7, align 4, !dbg !2310
  call void @_ZdlPv(ptr noundef %102) #18, !dbg !2304
  br label %148, !dbg !2304

109:                                              ; preds = %97
  call void @llvm.dbg.declare(metadata ptr %8, metadata !2311, metadata !DIExpression()), !dbg !2313
  call void @_ZNSaIcEC1Ev(ptr noundef nonnull align 1 dereferenceable(1) %9) #3, !dbg !2314
  invoke void @_ZNSt7__cxx1112basic_stringIcSt11char_traitsIcESaIcEEC2IS3_EEPKcRKS3_(ptr noundef nonnull align 8 dereferenceable(32) %8, ptr noundef @.str.10, ptr noundef nonnull align 1 dereferenceable(1) %9)
          to label %110 unwind label %128, !dbg !2314

110:                                              ; preds = %109
  call void @_ZNSaIcED1Ev(ptr noundef nonnull align 1 dereferenceable(1) %9) #3, !dbg !2314
  %111 = load ptr, ptr %4, align 8, !dbg !2315
  call void @_ZNSaIcEC1Ev(ptr noundef nonnull align 1 dereferenceable(1) %11) #3, !dbg !2316
  invoke void @_ZNSt7__cxx1112basic_stringIcSt11char_traitsIcESaIcEEC2IS3_EEPKcRKS3_(ptr noundef nonnull align 8 dereferenceable(32) %10, ptr noundef %111, ptr noundef nonnull align 1 dereferenceable(1) %11)
          to label %112 unwind label %132, !dbg !2316

112:                                              ; preds = %110
  %113 = invoke noundef nonnull align 8 dereferenceable(32) ptr @_ZNSt7__cxx1112basic_stringIcSt11char_traitsIcESaIcEEpLERKS4_(ptr noundef nonnull align 8 dereferenceable(32) %8, ptr noundef nonnull align 8 dereferenceable(32) %10)
          to label %114 unwind label %136, !dbg !2317

114:                                              ; preds = %112
  call void @_ZNSt7__cxx1112basic_stringIcSt11char_traitsIcESaIcEED1Ev(ptr noundef nonnull align 8 dereferenceable(32) %10) #3, !dbg !2318
  call void @_ZNSaIcED1Ev(ptr noundef nonnull align 1 dereferenceable(1) %11) #3, !dbg !2318
  %115 = invoke noundef nonnull align 8 dereferenceable(8) ptr @_ZStlsISt11char_traitsIcEERSt13basic_ostreamIcT_ES5_PKc(ptr noundef nonnull align 8 dereferenceable(8) @_ZSt4cerr, ptr noundef @.str.11)
          to label %116 unwind label %141, !dbg !2319

116:                                              ; preds = %114
  %117 = call noundef ptr @_ZNKSt7__cxx1112basic_stringIcSt11char_traitsIcESaIcEE5c_strEv(ptr noundef nonnull align 8 dereferenceable(32) %8) #3, !dbg !2319
  %118 = invoke noundef nonnull align 8 dereferenceable(8) ptr @_ZStlsISt11char_traitsIcEERSt13basic_ostreamIcT_ES5_PKc(ptr noundef nonnull align 8 dereferenceable(8) %115, ptr noundef %117)
          to label %119 unwind label %141, !dbg !2319

119:                                              ; preds = %116
  %120 = invoke noundef nonnull align 8 dereferenceable(8) ptr @_ZStlsISt11char_traitsIcEERSt13basic_ostreamIcT_ES5_PKc(ptr noundef nonnull align 8 dereferenceable(8) %118, ptr noundef @.str.12)
          to label %121 unwind label %141, !dbg !2319

121:                                              ; preds = %119
  %122 = invoke noundef nonnull align 8 dereferenceable(8) ptr @_ZStlsISt11char_traitsIcEERSt13basic_ostreamIcT_ES5_PKc(ptr noundef nonnull align 8 dereferenceable(8) %120, ptr noundef @__PRETTY_FUNCTION__._ZN4RTTL10BVHBuilder3getEPKcPNS_3BVHE)
          to label %123 unwind label %141, !dbg !2319

123:                                              ; preds = %121
  %124 = invoke noundef nonnull align 8 dereferenceable(8) ptr @_ZStlsISt11char_traitsIcEERSt13basic_ostreamIcT_ES5_PKc(ptr noundef nonnull align 8 dereferenceable(8) %122, ptr noundef @.str.13)
          to label %125 unwind label %141, !dbg !2319

125:                                              ; preds = %123
  %126 = invoke noundef nonnull align 8 dereferenceable(8) ptr @_ZNSolsEPFRSoS_E(ptr noundef nonnull align 8 dereferenceable(8) %124, ptr noundef @_ZSt4endlIcSt11char_traitsIcEERSt13basic_ostreamIT_T0_ES6_)
          to label %127 unwind label %141, !dbg !2319

127:                                              ; preds = %125
  call void @exit(i32 noundef 1) #19, !dbg !2319
  unreachable, !dbg !2319

128:                                              ; preds = %109
  %129 = landingpad { ptr, i32 }
          cleanup, !dbg !2321
  %130 = extractvalue { ptr, i32 } %129, 0, !dbg !2321
  store ptr %130, ptr %6, align 8, !dbg !2321
  %131 = extractvalue { ptr, i32 } %129, 1, !dbg !2321
  store i32 %131, ptr %7, align 4, !dbg !2321
  call void @_ZNSaIcED1Ev(ptr noundef nonnull align 1 dereferenceable(1) %9) #3, !dbg !2314
  br label %148, !dbg !2314

132:                                              ; preds = %110
  %133 = landingpad { ptr, i32 }
          cleanup, !dbg !2321
  %134 = extractvalue { ptr, i32 } %133, 0, !dbg !2321
  store ptr %134, ptr %6, align 8, !dbg !2321
  %135 = extractvalue { ptr, i32 } %133, 1, !dbg !2321
  store i32 %135, ptr %7, align 4, !dbg !2321
  br label %140, !dbg !2321

136:                                              ; preds = %112
  %137 = landingpad { ptr, i32 }
          cleanup, !dbg !2321
  %138 = extractvalue { ptr, i32 } %137, 0, !dbg !2321
  store ptr %138, ptr %6, align 8, !dbg !2321
  %139 = extractvalue { ptr, i32 } %137, 1, !dbg !2321
  store i32 %139, ptr %7, align 4, !dbg !2321
  call void @_ZNSt7__cxx1112basic_stringIcSt11char_traitsIcESaIcEED1Ev(ptr noundef nonnull align 8 dereferenceable(32) %10) #3, !dbg !2318
  br label %140, !dbg !2318

140:                                              ; preds = %136, %132
  call void @_ZNSaIcED1Ev(ptr noundef nonnull align 1 dereferenceable(1) %11) #3, !dbg !2318
  br label %145, !dbg !2318

141:                                              ; preds = %125, %123, %121, %119, %116, %114
  %142 = landingpad { ptr, i32 }
          cleanup, !dbg !2322
  %143 = extractvalue { ptr, i32 } %142, 0, !dbg !2322
  store ptr %143, ptr %6, align 8, !dbg !2322
  %144 = extractvalue { ptr, i32 } %142, 1, !dbg !2322
  store i32 %144, ptr %7, align 4, !dbg !2322
  br label %145, !dbg !2322

145:                                              ; preds = %141, %140
  call void @_ZNSt7__cxx1112basic_stringIcSt11char_traitsIcESaIcEED1Ev(ptr noundef nonnull align 8 dereferenceable(32) %8) #3, !dbg !2323
  br label %148, !dbg !2323

146:                                              ; preds = %104, %88, %76, %64, %52, %40, %28, %18
  %147 = load ptr, ptr %3, align 8, !dbg !2324
  ret ptr %147, !dbg !2324

148:                                              ; preds = %145, %128, %105, %89, %77, %65, %53, %41, %29
  %149 = load ptr, ptr %6, align 8, !dbg !2190
  %150 = load i32, ptr %7, align 4, !dbg !2190
  %151 = insertvalue { ptr, i32 } poison, ptr %149, 0, !dbg !2190
  %152 = insertvalue { ptr, i32 } %151, i32 %150, 1, !dbg !2190
  resume { ptr, i32 } %152, !dbg !2190
}

; Function Attrs: nocallback nofree nosync nounwind speculatable willreturn memory(none)
declare void @llvm.dbg.declare(metadata, metadata, metadata) #6

declare noundef nonnull align 8 dereferenceable(8) ptr @_ZStlsISt11char_traitsIcEERSt13basic_ostreamIcT_ES5_PKc(ptr noundef nonnull align 8 dereferenceable(8), ptr noundef) #1

declare noundef nonnull align 8 dereferenceable(8) ptr @_ZNSolsEPFRSoS_E(ptr noundef nonnull align 8 dereferenceable(8), ptr noundef) #1

declare noundef nonnull align 8 dereferenceable(8) ptr @_ZSt4endlIcSt11char_traitsIcEERSt13basic_ostreamIT_T0_ES6_(ptr noundef nonnull align 8 dereferenceable(8)) #1

; Function Attrs: nounwind willreturn memory(read)
declare i32 @strcmp(ptr noundef, ptr noundef) #7

; Function Attrs: nobuiltin allocsize(0)
declare noundef nonnull ptr @_Znwm(i64 noundef) #8

; Function Attrs: noinline optnone uwtable
define linkonce_odr dso_local void @_ZN4RTTL22BinnedAllDimsSaveSpaceC2EPNS_3BVHE(ptr noundef nonnull align 8 dereferenceable(16) %0, ptr noundef %1) unnamed_addr #9 comdat align 2 !dbg !2325 {
  %3 = alloca ptr, align 8
  %4 = alloca ptr, align 8
  store ptr %0, ptr %3, align 8
  call void @llvm.dbg.declare(metadata ptr %3, metadata !2330, metadata !DIExpression()), !dbg !2332
  store ptr %1, ptr %4, align 8
  call void @llvm.dbg.declare(metadata ptr %4, metadata !2333, metadata !DIExpression()), !dbg !2334
  %5 = load ptr, ptr %3, align 8
  %6 = load ptr, ptr %4, align 8, !dbg !2335
  call void @_ZN4RTTL10BVHBuilderC2EPNS_3BVHE(ptr noundef nonnull align 8 dereferenceable(16) %5, ptr noundef %6), !dbg !2336
  store ptr getelementptr inbounds ({ [3 x ptr] }, ptr @_ZTVN4RTTL22BinnedAllDimsSaveSpaceE, i32 0, inrange i32 0, i32 2), ptr %5, align 8, !dbg !2337
  ret void, !dbg !2338
}

declare i32 @__gxx_personality_v0(...)

; Function Attrs: nobuiltin nounwind
declare void @_ZdlPv(ptr noundef) #10

; Function Attrs: noinline nounwind optnone uwtable
define linkonce_odr dso_local void @_ZN4RTTL15SweepBVHBuilderC2EPNS_3BVHE(ptr noundef nonnull align 8 dereferenceable(16) %0, ptr noundef %1) unnamed_addr #11 comdat align 2 !dbg !2339 {
  %3 = alloca ptr, align 8
  %4 = alloca ptr, align 8
  store ptr %0, ptr %3, align 8
  call void @llvm.dbg.declare(metadata ptr %3, metadata !2340, metadata !DIExpression()), !dbg !2342
  store ptr %1, ptr %4, align 8
  call void @llvm.dbg.declare(metadata ptr %4, metadata !2343, metadata !DIExpression()), !dbg !2344
  %5 = load ptr, ptr %3, align 8
  %6 = load ptr, ptr %4, align 8, !dbg !2345
  call void @_ZN4RTTL10BVHBuilderC2EPNS_3BVHE(ptr noundef nonnull align 8 dereferenceable(16) %5, ptr noundef %6), !dbg !2346
  store ptr getelementptr inbounds ({ [3 x ptr] }, ptr @_ZTVN4RTTL15SweepBVHBuilderE, i32 0, inrange i32 0, i32 2), ptr %5, align 8, !dbg !2347
  ret void, !dbg !2348
}

; Function Attrs: noinline nounwind optnone uwtable
define linkonce_odr dso_local void @_ZN4RTTL13BinnedAllDimsC2EPNS_3BVHE(ptr noundef nonnull align 8 dereferenceable(16) %0, ptr noundef %1) unnamed_addr #11 comdat align 2 !dbg !2349 {
  %3 = alloca ptr, align 8
  %4 = alloca ptr, align 8
  store ptr %0, ptr %3, align 8
  call void @llvm.dbg.declare(metadata ptr %3, metadata !2350, metadata !DIExpression()), !dbg !2352
  store ptr %1, ptr %4, align 8
  call void @llvm.dbg.declare(metadata ptr %4, metadata !2353, metadata !DIExpression()), !dbg !2354
  %5 = load ptr, ptr %3, align 8
  %6 = load ptr, ptr %4, align 8, !dbg !2355
  call void @_ZN4RTTL10BVHBuilderC2EPNS_3BVHE(ptr noundef nonnull align 8 dereferenceable(16) %5, ptr noundef %6), !dbg !2356
  store ptr getelementptr inbounds ({ [3 x ptr] }, ptr @_ZTVN4RTTL13BinnedAllDimsE, i32 0, inrange i32 0, i32 2), ptr %5, align 8, !dbg !2357
  ret void, !dbg !2358
}

; Function Attrs: noinline nounwind optnone uwtable
define linkonce_odr dso_local void @_ZN4RTTL15OnDemandBuilderC2EPNS_3BVHE(ptr noundef nonnull align 8 dereferenceable(24) %0, ptr noundef %1) unnamed_addr #11 comdat align 2 !dbg !2359 {
  %3 = alloca ptr, align 8
  %4 = alloca ptr, align 8
  store ptr %0, ptr %3, align 8
  call void @llvm.dbg.declare(metadata ptr %3, metadata !2364, metadata !DIExpression()), !dbg !2366
  store ptr %1, ptr %4, align 8
  call void @llvm.dbg.declare(metadata ptr %4, metadata !2367, metadata !DIExpression()), !dbg !2368
  %5 = load ptr, ptr %3, align 8
  %6 = load ptr, ptr %4, align 8, !dbg !2369
  call void @_ZN4RTTL10BVHBuilderC2EPNS_3BVHE(ptr noundef nonnull align 8 dereferenceable(16) %5, ptr noundef %6), !dbg !2370
  store ptr getelementptr inbounds ({ [3 x ptr] }, ptr @_ZTVN4RTTL15OnDemandBuilderE, i32 0, inrange i32 0, i32 2), ptr %5, align 8, !dbg !2371
  %7 = getelementptr inbounds %"class.RTTL::OnDemandBuilder", ptr %5, i32 0, i32 1, !dbg !2372
  store ptr null, ptr %7, align 8, !dbg !2372
  ret void, !dbg !2373
}

; Function Attrs: nounwind
declare void @_ZNSaIcEC1Ev(ptr noundef nonnull align 1 dereferenceable(1)) unnamed_addr #2

; Function Attrs: noinline optnone uwtable
define linkonce_odr dso_local void @_ZNSt7__cxx1112basic_stringIcSt11char_traitsIcESaIcEEC2IS3_EEPKcRKS3_(ptr noundef nonnull align 8 dereferenceable(32) %0, ptr noundef %1, ptr noundef nonnull align 1 dereferenceable(1) %2) unnamed_addr #9 comdat align 2 personality ptr @__gxx_personality_v0 !dbg !2374 {
  %4 = alloca ptr, align 8
  %5 = alloca ptr, align 8
  %6 = alloca ptr, align 8
  %7 = alloca ptr, align 8
  %8 = alloca ptr, align 8
  %9 = alloca i32, align 4
  %10 = alloca %"struct.std::forward_iterator_tag", align 1
  %11 = alloca %"struct.std::random_access_iterator_tag", align 1
  store ptr %0, ptr %4, align 8
  call void @llvm.dbg.declare(metadata ptr %4, metadata !2380, metadata !DIExpression()), !dbg !2382
  store ptr %1, ptr %5, align 8
  call void @llvm.dbg.declare(metadata ptr %5, metadata !2383, metadata !DIExpression()), !dbg !2384
  store ptr %2, ptr %6, align 8
  call void @llvm.dbg.declare(metadata ptr %6, metadata !2385, metadata !DIExpression()), !dbg !2386
  %12 = load ptr, ptr %4, align 8
  %13 = getelementptr inbounds %"class.std::__cxx11::basic_string", ptr %12, i32 0, i32 0, !dbg !2387
  %14 = call noundef ptr @_ZNSt7__cxx1112basic_stringIcSt11char_traitsIcESaIcEE13_M_local_dataEv(ptr noundef nonnull align 8 dereferenceable(32) %12), !dbg !2388
  %15 = load ptr, ptr %6, align 8, !dbg !2389
  call void @_ZNSt7__cxx1112basic_stringIcSt11char_traitsIcESaIcEE12_Alloc_hiderC1EPcRKS3_(ptr noundef nonnull align 8 dereferenceable(8) %13, ptr noundef %14, ptr noundef nonnull align 1 dereferenceable(1) %15), !dbg !2387
  call void @llvm.dbg.declare(metadata ptr %7, metadata !2390, metadata !DIExpression()), !dbg !2392
  %16 = load ptr, ptr %5, align 8, !dbg !2393
  %17 = icmp ne ptr %16, null, !dbg !2393
  br i1 %17, label %18, label %24, !dbg !2393

18:                                               ; preds = %3
  %19 = load ptr, ptr %5, align 8, !dbg !2394
  %20 = load ptr, ptr %5, align 8, !dbg !2395
  %21 = invoke noundef i64 @_ZNSt11char_traitsIcE6lengthEPKc(ptr noundef %20)
          to label %22 unwind label %30, !dbg !2396

22:                                               ; preds = %18
  %23 = getelementptr inbounds i8, ptr %19, i64 %21, !dbg !2397
  br label %25, !dbg !2393

24:                                               ; preds = %3
  br label %25, !dbg !2393

25:                                               ; preds = %24, %22
  %26 = phi ptr [ %23, %22 ], [ inttoptr (i64 1 to ptr), %24 ], !dbg !2393
  store ptr %26, ptr %7, align 8, !dbg !2392
  %27 = load ptr, ptr %5, align 8, !dbg !2398
  %28 = load ptr, ptr %7, align 8, !dbg !2399
  invoke void @_ZNSt7__cxx1112basic_stringIcSt11char_traitsIcESaIcEE12_M_constructIPKcEEvT_S8_St20forward_iterator_tag(ptr noundef nonnull align 8 dereferenceable(32) %12, ptr noundef %27, ptr noundef %28)
          to label %29 unwind label %30, !dbg !2400

29:                                               ; preds = %25
  ret void, !dbg !2401

30:                                               ; preds = %25, %18
  %31 = landingpad { ptr, i32 }
          cleanup, !dbg !2402
  %32 = extractvalue { ptr, i32 } %31, 0, !dbg !2402
  store ptr %32, ptr %8, align 8, !dbg !2402
  %33 = extractvalue { ptr, i32 } %31, 1, !dbg !2402
  store i32 %33, ptr %9, align 4, !dbg !2402
  call void @_ZNSt7__cxx1112basic_stringIcSt11char_traitsIcESaIcEE12_Alloc_hiderD2Ev(ptr noundef nonnull align 8 dereferenceable(8) %13) #3, !dbg !2402
  br label %34, !dbg !2402

34:                                               ; preds = %30
  %35 = load ptr, ptr %8, align 8, !dbg !2402
  %36 = load i32, ptr %9, align 4, !dbg !2402
  %37 = insertvalue { ptr, i32 } poison, ptr %35, 0, !dbg !2402
  %38 = insertvalue { ptr, i32 } %37, i32 %36, 1, !dbg !2402
  resume { ptr, i32 } %38, !dbg !2402
}

; Function Attrs: nounwind
declare void @_ZNSaIcED1Ev(ptr noundef nonnull align 1 dereferenceable(1)) unnamed_addr #2

declare noundef nonnull align 8 dereferenceable(32) ptr @_ZNSt7__cxx1112basic_stringIcSt11char_traitsIcESaIcEEpLERKS4_(ptr noundef nonnull align 8 dereferenceable(32), ptr noundef nonnull align 8 dereferenceable(32)) #1

; Function Attrs: nounwind
declare void @_ZNSt7__cxx1112basic_stringIcSt11char_traitsIcESaIcEED1Ev(ptr noundef nonnull align 8 dereferenceable(32)) unnamed_addr #2

; Function Attrs: nounwind
declare noundef ptr @_ZNKSt7__cxx1112basic_stringIcSt11char_traitsIcESaIcEE5c_strEv(ptr noundef nonnull align 8 dereferenceable(32)) #2

; Function Attrs: noreturn nounwind
declare void @exit(i32 noundef) #12

; Function Attrs: noinline nounwind optnone uwtable
define linkonce_odr dso_local void @_ZN5sse_fC2Ev(ptr noundef nonnull align 4 dereferenceable(16) %0) unnamed_addr #11 comdat align 2 !dbg !2403 {
  %2 = alloca ptr, align 8
  store ptr %0, ptr %2, align 8
  call void @llvm.dbg.declare(metadata ptr %2, metadata !2404, metadata !DIExpression()), !dbg !2406
  %3 = load ptr, ptr %2, align 8
  ret void, !dbg !2407
}

; Function Attrs: noinline nounwind optnone uwtable
define linkonce_odr dso_local void @_ZN4RTTL10BVHBuilderC2EPNS_3BVHE(ptr noundef nonnull align 8 dereferenceable(16) %0, ptr noundef %1) unnamed_addr #11 comdat align 2 !dbg !2408 {
  %3 = alloca ptr, align 8
  %4 = alloca ptr, align 8
  store ptr %0, ptr %3, align 8
  call void @llvm.dbg.declare(metadata ptr %3, metadata !2409, metadata !DIExpression()), !dbg !2410
  store ptr %1, ptr %4, align 8
  call void @llvm.dbg.declare(metadata ptr %4, metadata !2411, metadata !DIExpression()), !dbg !2412
  %5 = load ptr, ptr %3, align 8
  store ptr getelementptr inbounds ({ [3 x ptr] }, ptr @_ZTVN4RTTL10BVHBuilderE, i32 0, inrange i32 0, i32 2), ptr %5, align 8, !dbg !2413
  %6 = getelementptr inbounds %"class.RTTL::BVHBuilder", ptr %5, i32 0, i32 1, !dbg !2414
  %7 = load ptr, ptr %4, align 8, !dbg !2415
  store ptr %7, ptr %6, align 8, !dbg !2414
  ret void, !dbg !2416
}

declare void @__cxa_pure_virtual() unnamed_addr

; Function Attrs: mustprogress noinline optnone uwtable
define linkonce_odr dso_local void @_ZN4RTTL15SweepBVHBuilder5buildERKNS_7RTBox3aES3_(ptr noundef nonnull align 8 dereferenceable(16) %0, ptr noundef nonnull align 4 dereferenceable(32) %1, ptr noundef nonnull align 4 dereferenceable(32) %2) unnamed_addr #5 comdat align 2 !dbg !2417 {
  %4 = alloca ptr, align 8
  %5 = alloca ptr, align 8
  %6 = alloca ptr, align 8
  %7 = alloca ptr, align 8
  %8 = alloca i32, align 4
  store ptr %0, ptr %4, align 8
  call void @llvm.dbg.declare(metadata ptr %4, metadata !2418, metadata !DIExpression()), !dbg !2419
  store ptr %1, ptr %5, align 8
  call void @llvm.dbg.declare(metadata ptr %5, metadata !2420, metadata !DIExpression()), !dbg !2421
  store ptr %2, ptr %6, align 8
  call void @llvm.dbg.declare(metadata ptr %6, metadata !2422, metadata !DIExpression()), !dbg !2423
  %9 = load ptr, ptr %4, align 8
  call void @llvm.dbg.declare(metadata ptr %7, metadata !2424, metadata !DIExpression()), !dbg !2425
  %10 = getelementptr inbounds %"class.RTTL::BVHBuilder", ptr %9, i32 0, i32 1, !dbg !2426
  %11 = load ptr, ptr %10, align 8, !dbg !2426
  %12 = load ptr, ptr %11, align 8, !dbg !2427
  %13 = getelementptr inbounds ptr, ptr %12, i64 1, !dbg !2427
  %14 = load ptr, ptr %13, align 8, !dbg !2427
  %15 = call noundef ptr %14(ptr noundef nonnull align 8 dereferenceable(40) %11), !dbg !2427
  store ptr %15, ptr %7, align 8, !dbg !2425
  call void @llvm.dbg.declare(metadata ptr %8, metadata !2428, metadata !DIExpression()), !dbg !2429
  %16 = getelementptr inbounds %"class.RTTL::BVHBuilder", ptr %9, i32 0, i32 1, !dbg !2430
  %17 = load ptr, ptr %16, align 8, !dbg !2430
  %18 = load ptr, ptr %17, align 8, !dbg !2431
  %19 = getelementptr inbounds ptr, ptr %18, i64 3, !dbg !2431
  %20 = load ptr, ptr %19, align 8, !dbg !2431
  %21 = call noundef i32 %20(ptr noundef nonnull align 8 dereferenceable(40) %17), !dbg !2431
  store i32 %21, ptr %8, align 4, !dbg !2429
  %22 = getelementptr inbounds %"class.RTTL::BVHBuilder", ptr %9, i32 0, i32 1, !dbg !2432
  %23 = load ptr, ptr %22, align 8, !dbg !2432
  %24 = load i32, ptr %8, align 4, !dbg !2433
  call void @_ZN4RTTL3BVH7reserveEi(ptr noundef nonnull align 8 dereferenceable(40) %23, i32 noundef %24), !dbg !2434
  %25 = load ptr, ptr %7, align 8, !dbg !2435
  %26 = getelementptr inbounds %"class.RTTL::BVHBuilder", ptr %9, i32 0, i32 1, !dbg !2436
  %27 = load ptr, ptr %26, align 8, !dbg !2436
  %28 = getelementptr inbounds %"struct.RTTL::BVH", ptr %27, i32 0, i32 2, !dbg !2437
  %29 = load ptr, ptr %28, align 8, !dbg !2437
  %30 = getelementptr inbounds %"class.RTTL::BVHBuilder", ptr %9, i32 0, i32 1, !dbg !2438
  %31 = load ptr, ptr %30, align 8, !dbg !2438
  %32 = getelementptr inbounds %"struct.RTTL::BVH", ptr %31, i32 0, i32 1, !dbg !2439
  %33 = load ptr, ptr %32, align 8, !dbg !2439
  %34 = load i32, ptr %8, align 4, !dbg !2440
  call void @_ZN4RTTL15SweepBVHBuilder8my_buildEPKNS_4AABBEPiPS1_i(ptr noundef nonnull align 8 dereferenceable(16) %9, ptr noundef %25, ptr noundef %29, ptr noundef %33, i32 noundef %34), !dbg !2441
  %35 = getelementptr inbounds %"class.RTTL::BVHBuilder", ptr %9, i32 0, i32 1, !dbg !2442
  %36 = load ptr, ptr %35, align 8, !dbg !2442
  %37 = load ptr, ptr %7, align 8, !dbg !2443
  %38 = load ptr, ptr %36, align 8, !dbg !2444
  %39 = getelementptr inbounds ptr, ptr %38, i64 2, !dbg !2444
  %40 = load ptr, ptr %39, align 8, !dbg !2444
  call void %40(ptr noundef nonnull align 8 dereferenceable(40) %36, ptr noundef %37), !dbg !2444
  ret void, !dbg !2445
}

declare void @_ZN4RTTL3BVH7reserveEi(ptr noundef nonnull align 8 dereferenceable(40), i32 noundef) #1

declare void @_ZN4RTTL15SweepBVHBuilder8my_buildEPKNS_4AABBEPiPS1_i(ptr noundef nonnull align 8 dereferenceable(16), ptr noundef, ptr noundef, ptr noundef, i32 noundef) #1

; Function Attrs: mustprogress noinline optnone uwtable
define linkonce_odr dso_local void @_ZN4RTTL13BinnedAllDims5buildERKNS_7RTBox3aES3_(ptr noundef nonnull align 8 dereferenceable(16) %0, ptr noundef nonnull align 4 dereferenceable(32) %1, ptr noundef nonnull align 4 dereferenceable(32) %2) unnamed_addr #5 comdat align 2 !dbg !2446 {
  %4 = alloca ptr, align 8
  %5 = alloca ptr, align 8
  %6 = alloca ptr, align 8
  %7 = alloca ptr, align 8
  %8 = alloca i32, align 4
  store ptr %0, ptr %4, align 8
  call void @llvm.dbg.declare(metadata ptr %4, metadata !2447, metadata !DIExpression()), !dbg !2448
  store ptr %1, ptr %5, align 8
  call void @llvm.dbg.declare(metadata ptr %5, metadata !2449, metadata !DIExpression()), !dbg !2450
  store ptr %2, ptr %6, align 8
  call void @llvm.dbg.declare(metadata ptr %6, metadata !2451, metadata !DIExpression()), !dbg !2452
  %9 = load ptr, ptr %4, align 8
  call void @llvm.dbg.declare(metadata ptr %7, metadata !2453, metadata !DIExpression()), !dbg !2454
  %10 = getelementptr inbounds %"class.RTTL::BVHBuilder", ptr %9, i32 0, i32 1, !dbg !2455
  %11 = load ptr, ptr %10, align 8, !dbg !2455
  %12 = load ptr, ptr %11, align 8, !dbg !2456
  %13 = getelementptr inbounds ptr, ptr %12, i64 1, !dbg !2456
  %14 = load ptr, ptr %13, align 8, !dbg !2456
  %15 = call noundef ptr %14(ptr noundef nonnull align 8 dereferenceable(40) %11), !dbg !2456
  store ptr %15, ptr %7, align 8, !dbg !2454
  call void @llvm.dbg.declare(metadata ptr %8, metadata !2457, metadata !DIExpression()), !dbg !2458
  %16 = getelementptr inbounds %"class.RTTL::BVHBuilder", ptr %9, i32 0, i32 1, !dbg !2459
  %17 = load ptr, ptr %16, align 8, !dbg !2459
  %18 = load ptr, ptr %17, align 8, !dbg !2460
  %19 = getelementptr inbounds ptr, ptr %18, i64 3, !dbg !2460
  %20 = load ptr, ptr %19, align 8, !dbg !2460
  %21 = call noundef i32 %20(ptr noundef nonnull align 8 dereferenceable(40) %17), !dbg !2460
  store i32 %21, ptr %8, align 4, !dbg !2458
  %22 = getelementptr inbounds %"class.RTTL::BVHBuilder", ptr %9, i32 0, i32 1, !dbg !2461
  %23 = load ptr, ptr %22, align 8, !dbg !2461
  %24 = load i32, ptr %8, align 4, !dbg !2462
  call void @_ZN4RTTL3BVH7reserveEi(ptr noundef nonnull align 8 dereferenceable(40) %23, i32 noundef %24), !dbg !2463
  %25 = load ptr, ptr %7, align 8, !dbg !2464
  %26 = getelementptr inbounds %"class.RTTL::BVHBuilder", ptr %9, i32 0, i32 1, !dbg !2465
  %27 = load ptr, ptr %26, align 8, !dbg !2465
  %28 = getelementptr inbounds %"struct.RTTL::BVH", ptr %27, i32 0, i32 2, !dbg !2466
  %29 = load ptr, ptr %28, align 8, !dbg !2466
  %30 = getelementptr inbounds %"class.RTTL::BVHBuilder", ptr %9, i32 0, i32 1, !dbg !2467
  %31 = load ptr, ptr %30, align 8, !dbg !2467
  %32 = getelementptr inbounds %"struct.RTTL::BVH", ptr %31, i32 0, i32 1, !dbg !2468
  %33 = load ptr, ptr %32, align 8, !dbg !2468
  %34 = load i32, ptr %8, align 4, !dbg !2469
  call void @_ZN4RTTL13BinnedAllDims8my_buildEPKNS_4AABBEPiPS1_i(ptr noundef nonnull align 8 dereferenceable(16) %9, ptr noundef %25, ptr noundef %29, ptr noundef %33, i32 noundef %34), !dbg !2470
  %35 = getelementptr inbounds %"class.RTTL::BVHBuilder", ptr %9, i32 0, i32 1, !dbg !2471
  %36 = load ptr, ptr %35, align 8, !dbg !2471
  %37 = load ptr, ptr %7, align 8, !dbg !2472
  %38 = load ptr, ptr %36, align 8, !dbg !2473
  %39 = getelementptr inbounds ptr, ptr %38, i64 2, !dbg !2473
  %40 = load ptr, ptr %39, align 8, !dbg !2473
  call void %40(ptr noundef nonnull align 8 dereferenceable(40) %36, ptr noundef %37), !dbg !2473
  ret void, !dbg !2474
}

declare void @_ZN4RTTL13BinnedAllDims8my_buildEPKNS_4AABBEPiPS1_i(ptr noundef nonnull align 8 dereferenceable(16), ptr noundef, ptr noundef, ptr noundef, i32 noundef) #1

declare noundef ptr @_ZNSt7__cxx1112basic_stringIcSt11char_traitsIcESaIcEE13_M_local_dataEv(ptr noundef nonnull align 8 dereferenceable(32)) #1

declare void @_ZNSt7__cxx1112basic_stringIcSt11char_traitsIcESaIcEE12_Alloc_hiderC1EPcRKS3_(ptr noundef nonnull align 8 dereferenceable(8), ptr noundef, ptr noundef nonnull align 1 dereferenceable(1)) unnamed_addr #1

; Function Attrs: mustprogress noinline optnone uwtable
define linkonce_odr dso_local noundef i64 @_ZNSt11char_traitsIcE6lengthEPKc(ptr noundef %0) #5 comdat align 2 !dbg !2475 {
  %2 = alloca ptr, align 8
  %3 = alloca i64, align 8
  %4 = alloca ptr, align 8
  store ptr %0, ptr %4, align 8
  call void @llvm.dbg.declare(metadata ptr %4, metadata !2476, metadata !DIExpression()), !dbg !2477
  %5 = load ptr, ptr %4, align 8, !dbg !2478
  store ptr %5, ptr %2, align 8
  call void @llvm.dbg.declare(metadata ptr %2, metadata !2480, metadata !DIExpression()), !dbg !2484
  br i1 false, label %6, label %9, !dbg !2486

6:                                                ; preds = %1
  %7 = load ptr, ptr %4, align 8, !dbg !2487
  %8 = call noundef i64 @_ZN9__gnu_cxx11char_traitsIcE6lengthEPKc(ptr noundef %7), !dbg !2488
  store i64 %8, ptr %3, align 8, !dbg !2489
  br label %12, !dbg !2489

9:                                                ; preds = %1
  %10 = load ptr, ptr %4, align 8, !dbg !2490
  %11 = call i64 @strlen(ptr noundef %10) #3, !dbg !2491
  store i64 %11, ptr %3, align 8, !dbg !2492
  br label %12, !dbg !2492

12:                                               ; preds = %9, %6
  %13 = load i64, ptr %3, align 8, !dbg !2493
  ret i64 %13, !dbg !2493
}

; Function Attrs: mustprogress noinline optnone uwtable
define linkonce_odr dso_local void @_ZNSt7__cxx1112basic_stringIcSt11char_traitsIcESaIcEE12_M_constructIPKcEEvT_S8_St20forward_iterator_tag(ptr noundef nonnull align 8 dereferenceable(32) %0, ptr noundef %1, ptr noundef %2) #5 comdat align 2 personality ptr @__gxx_personality_v0 !dbg !2494 {
  %4 = alloca %"struct.std::forward_iterator_tag", align 1
  %5 = alloca ptr, align 8
  %6 = alloca ptr, align 8
  %7 = alloca ptr, align 8
  %8 = alloca i64, align 8
  %9 = alloca ptr, align 8
  %10 = alloca i32, align 4
  store ptr %0, ptr %5, align 8
  call void @llvm.dbg.declare(metadata ptr %5, metadata !2505, metadata !DIExpression()), !dbg !2506
  store ptr %1, ptr %6, align 8
  call void @llvm.dbg.declare(metadata ptr %6, metadata !2507, metadata !DIExpression()), !dbg !2508
  store ptr %2, ptr %7, align 8
  call void @llvm.dbg.declare(metadata ptr %7, metadata !2509, metadata !DIExpression()), !dbg !2510
  call void @llvm.dbg.declare(metadata ptr %4, metadata !2511, metadata !DIExpression()), !dbg !2512
  %11 = load ptr, ptr %5, align 8
  %12 = load ptr, ptr %6, align 8, !dbg !2513
  %13 = call noundef zeroext i1 @_ZN9__gnu_cxx17__is_null_pointerIKcEEbPT_(ptr noundef %12), !dbg !2515
  br i1 %13, label %14, label %19, !dbg !2516

14:                                               ; preds = %3
  %15 = load ptr, ptr %6, align 8, !dbg !2517
  %16 = load ptr, ptr %7, align 8, !dbg !2518
  %17 = icmp ne ptr %15, %16, !dbg !2519
  br i1 %17, label %18, label %19, !dbg !2520

18:                                               ; preds = %14
  call void @_ZSt19__throw_logic_errorPKc(ptr noundef @.str.14) #20, !dbg !2521
  unreachable, !dbg !2521

19:                                               ; preds = %14, %3
  call void @llvm.dbg.declare(metadata ptr %8, metadata !2522, metadata !DIExpression()), !dbg !2523
  %20 = load ptr, ptr %6, align 8, !dbg !2524
  %21 = load ptr, ptr %7, align 8, !dbg !2525
  %22 = call noundef i64 @_ZSt8distanceIPKcENSt15iterator_traitsIT_E15difference_typeES3_S3_(ptr noundef %20, ptr noundef %21), !dbg !2526
  store i64 %22, ptr %8, align 8, !dbg !2523
  %23 = load i64, ptr %8, align 8, !dbg !2527
  %24 = icmp ugt i64 %23, 15, !dbg !2529
  br i1 %24, label %25, label %28, !dbg !2530

25:                                               ; preds = %19
  %26 = call noundef ptr @_ZNSt7__cxx1112basic_stringIcSt11char_traitsIcESaIcEE9_M_createERmm(ptr noundef nonnull align 8 dereferenceable(32) %11, ptr noundef nonnull align 8 dereferenceable(8) %8, i64 noundef 0), !dbg !2531
  call void @_ZNSt7__cxx1112basic_stringIcSt11char_traitsIcESaIcEE7_M_dataEPc(ptr noundef nonnull align 8 dereferenceable(32) %11, ptr noundef %26), !dbg !2533
  %27 = load i64, ptr %8, align 8, !dbg !2534
  call void @_ZNSt7__cxx1112basic_stringIcSt11char_traitsIcESaIcEE11_M_capacityEm(ptr noundef nonnull align 8 dereferenceable(32) %11, i64 noundef %27), !dbg !2535
  br label %28, !dbg !2536

28:                                               ; preds = %25, %19
  %29 = invoke noundef ptr @_ZNKSt7__cxx1112basic_stringIcSt11char_traitsIcESaIcEE7_M_dataEv(ptr noundef nonnull align 8 dereferenceable(32) %11)
          to label %30 unwind label %33, !dbg !2537

30:                                               ; preds = %28
  %31 = load ptr, ptr %6, align 8, !dbg !2539
  %32 = load ptr, ptr %7, align 8, !dbg !2540
  call void @_ZNSt7__cxx1112basic_stringIcSt11char_traitsIcESaIcEE13_S_copy_charsEPcPKcS7_(ptr noundef %29, ptr noundef %31, ptr noundef %32) #3, !dbg !2541
  br label %46, !dbg !2542

33:                                               ; preds = %28
  %34 = landingpad { ptr, i32 }
          catch ptr null, !dbg !2543
  %35 = extractvalue { ptr, i32 } %34, 0, !dbg !2543
  store ptr %35, ptr %9, align 8, !dbg !2543
  %36 = extractvalue { ptr, i32 } %34, 1, !dbg !2543
  store i32 %36, ptr %10, align 4, !dbg !2543
  br label %37, !dbg !2543

37:                                               ; preds = %33
  %38 = load ptr, ptr %9, align 8, !dbg !2542
  %39 = call ptr @__cxa_begin_catch(ptr %38) #3, !dbg !2542
  invoke void @_ZNSt7__cxx1112basic_stringIcSt11char_traitsIcESaIcEE10_M_disposeEv(ptr noundef nonnull align 8 dereferenceable(32) %11)
          to label %40 unwind label %41, !dbg !2544

40:                                               ; preds = %37
  invoke void @__cxa_rethrow() #20
          to label %56 unwind label %41, !dbg !2546

41:                                               ; preds = %40, %37
  %42 = landingpad { ptr, i32 }
          cleanup, !dbg !2547
  %43 = extractvalue { ptr, i32 } %42, 0, !dbg !2547
  store ptr %43, ptr %9, align 8, !dbg !2547
  %44 = extractvalue { ptr, i32 } %42, 1, !dbg !2547
  store i32 %44, ptr %10, align 4, !dbg !2547
  invoke void @__cxa_end_catch()
          to label %45 unwind label %53, !dbg !2548

45:                                               ; preds = %41
  br label %48, !dbg !2548

46:                                               ; preds = %30
  %47 = load i64, ptr %8, align 8, !dbg !2549
  call void @_ZNSt7__cxx1112basic_stringIcSt11char_traitsIcESaIcEE13_M_set_lengthEm(ptr noundef nonnull align 8 dereferenceable(32) %11, i64 noundef %47), !dbg !2550
  ret void, !dbg !2551

48:                                               ; preds = %45
  %49 = load ptr, ptr %9, align 8, !dbg !2548
  %50 = load i32, ptr %10, align 4, !dbg !2548
  %51 = insertvalue { ptr, i32 } poison, ptr %49, 0, !dbg !2548
  %52 = insertvalue { ptr, i32 } %51, i32 %50, 1, !dbg !2548
  resume { ptr, i32 } %52, !dbg !2548

53:                                               ; preds = %41
  %54 = landingpad { ptr, i32 }
          catch ptr null, !dbg !2548
  %55 = extractvalue { ptr, i32 } %54, 0, !dbg !2548
  call void @__clang_call_terminate(ptr %55) #19, !dbg !2548
  unreachable, !dbg !2548

56:                                               ; preds = %40
  unreachable
}

; Function Attrs: noinline nounwind optnone uwtable
define linkonce_odr dso_local void @_ZNSt7__cxx1112basic_stringIcSt11char_traitsIcESaIcEE12_Alloc_hiderD2Ev(ptr noundef nonnull align 8 dereferenceable(8) %0) unnamed_addr #11 comdat align 2 !dbg !2552 {
  %2 = alloca ptr, align 8
  store ptr %0, ptr %2, align 8
  call void @llvm.dbg.declare(metadata ptr %2, metadata !2557, metadata !DIExpression()), !dbg !2559
  %3 = load ptr, ptr %2, align 8
  call void @_ZNSaIcED2Ev(ptr noundef nonnull align 1 dereferenceable(1) %3) #3, !dbg !2560
  ret void, !dbg !2562
}

; Function Attrs: mustprogress noinline optnone uwtable
define linkonce_odr dso_local noundef i64 @_ZN9__gnu_cxx11char_traitsIcE6lengthEPKc(ptr noundef %0) #5 comdat align 2 !dbg !2563 {
  %2 = alloca ptr, align 8
  %3 = alloca i64, align 8
  %4 = alloca i8, align 1
  store ptr %0, ptr %2, align 8
  call void @llvm.dbg.declare(metadata ptr %2, metadata !2615, metadata !DIExpression()), !dbg !2616
  call void @llvm.dbg.declare(metadata ptr %3, metadata !2617, metadata !DIExpression()), !dbg !2618
  store i64 0, ptr %3, align 8, !dbg !2618
  br label %5, !dbg !2619

5:                                                ; preds = %11, %1
  %6 = load ptr, ptr %2, align 8, !dbg !2620
  %7 = load i64, ptr %3, align 8, !dbg !2621
  %8 = getelementptr inbounds i8, ptr %6, i64 %7, !dbg !2620
  store i8 0, ptr %4, align 1, !dbg !2622
  %9 = call noundef zeroext i1 @_ZN9__gnu_cxx11char_traitsIcE2eqERKcS3_(ptr noundef nonnull align 1 dereferenceable(1) %8, ptr noundef nonnull align 1 dereferenceable(1) %4), !dbg !2623
  %10 = xor i1 %9, true, !dbg !2624
  br i1 %10, label %11, label %14, !dbg !2619

11:                                               ; preds = %5
  %12 = load i64, ptr %3, align 8, !dbg !2625
  %13 = add i64 %12, 1, !dbg !2625
  store i64 %13, ptr %3, align 8, !dbg !2625
  br label %5, !dbg !2619, !llvm.loop !2626

14:                                               ; preds = %5
  %15 = load i64, ptr %3, align 8, !dbg !2628
  ret i64 %15, !dbg !2629
}

; Function Attrs: nounwind
declare i64 @strlen(ptr noundef) #2

; Function Attrs: mustprogress noinline nounwind optnone uwtable
define linkonce_odr dso_local noundef zeroext i1 @_ZN9__gnu_cxx11char_traitsIcE2eqERKcS3_(ptr noundef nonnull align 1 dereferenceable(1) %0, ptr noundef nonnull align 1 dereferenceable(1) %1) #13 comdat align 2 !dbg !2630 {
  %3 = alloca ptr, align 8
  %4 = alloca ptr, align 8
  store ptr %0, ptr %3, align 8
  call void @llvm.dbg.declare(metadata ptr %3, metadata !2631, metadata !DIExpression()), !dbg !2632
  store ptr %1, ptr %4, align 8
  call void @llvm.dbg.declare(metadata ptr %4, metadata !2633, metadata !DIExpression()), !dbg !2634
  %5 = load ptr, ptr %3, align 8, !dbg !2635
  %6 = load i8, ptr %5, align 1, !dbg !2635
  %7 = sext i8 %6 to i32, !dbg !2635
  %8 = load ptr, ptr %4, align 8, !dbg !2636
  %9 = load i8, ptr %8, align 1, !dbg !2636
  %10 = sext i8 %9 to i32, !dbg !2636
  %11 = icmp eq i32 %7, %10, !dbg !2637
  ret i1 %11, !dbg !2638
}

; Function Attrs: mustprogress noinline nounwind optnone uwtable
define linkonce_odr dso_local noundef zeroext i1 @_ZN9__gnu_cxx17__is_null_pointerIKcEEbPT_(ptr noundef %0) #13 comdat !dbg !2639 {
  %2 = alloca ptr, align 8
  store ptr %0, ptr %2, align 8
  call void @llvm.dbg.declare(metadata ptr %2, metadata !2643, metadata !DIExpression()), !dbg !2644
  %3 = load ptr, ptr %2, align 8, !dbg !2645
  %4 = icmp eq ptr %3, null, !dbg !2646
  ret i1 %4, !dbg !2647
}

; Function Attrs: noreturn
declare void @_ZSt19__throw_logic_errorPKc(ptr noundef) #14

; Function Attrs: mustprogress noinline optnone uwtable
define linkonce_odr dso_local noundef i64 @_ZSt8distanceIPKcENSt15iterator_traitsIT_E15difference_typeES3_S3_(ptr noundef %0, ptr noundef %1) #5 comdat !dbg !2648 {
  %3 = alloca ptr, align 8
  %4 = alloca ptr, align 8
  %5 = alloca %"struct.std::random_access_iterator_tag", align 1
  %6 = alloca %"struct.std::random_access_iterator_tag", align 1
  store ptr %0, ptr %3, align 8
  call void @llvm.dbg.declare(metadata ptr %3, metadata !2659, metadata !DIExpression()), !dbg !2660
  store ptr %1, ptr %4, align 8
  call void @llvm.dbg.declare(metadata ptr %4, metadata !2661, metadata !DIExpression()), !dbg !2662
  %7 = load ptr, ptr %3, align 8, !dbg !2663
  %8 = load ptr, ptr %4, align 8, !dbg !2664
  call void @_ZSt19__iterator_categoryIPKcENSt15iterator_traitsIT_E17iterator_categoryERKS3_(ptr noundef nonnull align 8 dereferenceable(8) %3), !dbg !2665
  %9 = call noundef i64 @_ZSt10__distanceIPKcENSt15iterator_traitsIT_E15difference_typeES3_S3_St26random_access_iterator_tag(ptr noundef %7, ptr noundef %8), !dbg !2666
  ret i64 %9, !dbg !2667
}

declare void @_ZNSt7__cxx1112basic_stringIcSt11char_traitsIcESaIcEE7_M_dataEPc(ptr noundef nonnull align 8 dereferenceable(32), ptr noundef) #1

declare noundef ptr @_ZNSt7__cxx1112basic_stringIcSt11char_traitsIcESaIcEE9_M_createERmm(ptr noundef nonnull align 8 dereferenceable(32), ptr noundef nonnull align 8 dereferenceable(8), i64 noundef) #1

declare void @_ZNSt7__cxx1112basic_stringIcSt11char_traitsIcESaIcEE11_M_capacityEm(ptr noundef nonnull align 8 dereferenceable(32), i64 noundef) #1

; Function Attrs: nounwind
declare void @_ZNSt7__cxx1112basic_stringIcSt11char_traitsIcESaIcEE13_S_copy_charsEPcPKcS7_(ptr noundef, ptr noundef, ptr noundef) #2

declare noundef ptr @_ZNKSt7__cxx1112basic_stringIcSt11char_traitsIcESaIcEE7_M_dataEv(ptr noundef nonnull align 8 dereferenceable(32)) #1

declare ptr @__cxa_begin_catch(ptr)

declare void @_ZNSt7__cxx1112basic_stringIcSt11char_traitsIcESaIcEE10_M_disposeEv(ptr noundef nonnull align 8 dereferenceable(32)) #1

declare void @__cxa_rethrow()

declare void @__cxa_end_catch()

; Function Attrs: noinline noreturn nounwind
define linkonce_odr hidden void @__clang_call_terminate(ptr noundef %0) #15 comdat {
  %2 = call ptr @__cxa_begin_catch(ptr %0) #3
  call void @_ZSt9terminatev() #19
  unreachable
}

declare void @_ZSt9terminatev()

declare void @_ZNSt7__cxx1112basic_stringIcSt11char_traitsIcESaIcEE13_M_set_lengthEm(ptr noundef nonnull align 8 dereferenceable(32), i64 noundef) #1

; Function Attrs: mustprogress noinline nounwind optnone uwtable
define linkonce_odr dso_local noundef i64 @_ZSt10__distanceIPKcENSt15iterator_traitsIT_E15difference_typeES3_S3_St26random_access_iterator_tag(ptr noundef %0, ptr noundef %1) #13 comdat !dbg !2668 {
  %3 = alloca %"struct.std::random_access_iterator_tag", align 1
  %4 = alloca ptr, align 8
  %5 = alloca ptr, align 8
  store ptr %0, ptr %4, align 8
  call void @llvm.dbg.declare(metadata ptr %4, metadata !2679, metadata !DIExpression()), !dbg !2680
  store ptr %1, ptr %5, align 8
  call void @llvm.dbg.declare(metadata ptr %5, metadata !2681, metadata !DIExpression()), !dbg !2682
  call void @llvm.dbg.declare(metadata ptr %3, metadata !2683, metadata !DIExpression()), !dbg !2684
  %6 = load ptr, ptr %5, align 8, !dbg !2685
  %7 = load ptr, ptr %4, align 8, !dbg !2686
  %8 = ptrtoint ptr %6 to i64, !dbg !2687
  %9 = ptrtoint ptr %7 to i64, !dbg !2687
  %10 = sub i64 %8, %9, !dbg !2687
  ret i64 %10, !dbg !2688
}

; Function Attrs: mustprogress noinline nounwind optnone uwtable
define linkonce_odr dso_local void @_ZSt19__iterator_categoryIPKcENSt15iterator_traitsIT_E17iterator_categoryERKS3_(ptr noundef nonnull align 8 dereferenceable(8) %0) #13 comdat !dbg !2689 {
  %2 = alloca ptr, align 8
  store ptr %0, ptr %2, align 8
  call void @llvm.dbg.declare(metadata ptr %2, metadata !2697, metadata !DIExpression()), !dbg !2698
  ret void, !dbg !2699
}

; Function Attrs: nounwind
declare void @_ZNSaIcED2Ev(ptr noundef nonnull align 1 dereferenceable(1)) unnamed_addr #2

; Function Attrs: noinline uwtable
define internal void @_GLOBAL__sub_I_Builder.cxx() #0 section ".text.startup" !dbg !2700 {
  call void @__cxx_global_var_init(), !dbg !2702
  call void @__cxx_global_var_init.1(), !dbg !2702
  ret void
}

attributes #0 = { noinline uwtable "frame-pointer"="all" "min-legal-vector-width"="0" "no-trapping-math"="true" "stack-protector-buffer-size"="8" "target-cpu"="x86-64" "target-features"="+cx8,+fxsr,+mmx,+sse,+sse2,+x87" "tune-cpu"="generic" }
attributes #1 = { "frame-pointer"="all" "no-trapping-math"="true" "stack-protector-buffer-size"="8" "target-cpu"="x86-64" "target-features"="+cx8,+fxsr,+mmx,+sse,+sse2,+x87" "tune-cpu"="generic" }
attributes #2 = { nounwind "frame-pointer"="all" "no-trapping-math"="true" "stack-protector-buffer-size"="8" "target-cpu"="x86-64" "target-features"="+cx8,+fxsr,+mmx,+sse,+sse2,+x87" "tune-cpu"="generic" }
attributes #3 = { nounwind }
attributes #4 = { noinline uwtable "frame-pointer"="all" "min-legal-vector-width"="64" "no-trapping-math"="true" "stack-protector-buffer-size"="8" "target-cpu"="x86-64" "target-features"="+cx8,+fxsr,+mmx,+sse,+sse2,+x87" "tune-cpu"="generic" }
attributes #5 = { mustprogress noinline optnone uwtable "frame-pointer"="all" "min-legal-vector-width"="0" "no-trapping-math"="true" "stack-protector-buffer-size"="8" "target-cpu"="x86-64" "target-features"="+cx8,+fxsr,+mmx,+sse,+sse2,+x87" "tune-cpu"="generic" }
attributes #6 = { nocallback nofree nosync nounwind speculatable willreturn memory(none) }
attributes #7 = { nounwind willreturn memory(read) "frame-pointer"="all" "no-trapping-math"="true" "stack-protector-buffer-size"="8" "target-cpu"="x86-64" "target-features"="+cx8,+fxsr,+mmx,+sse,+sse2,+x87" "tune-cpu"="generic" }
attributes #8 = { nobuiltin allocsize(0) "frame-pointer"="all" "no-trapping-math"="true" "stack-protector-buffer-size"="8" "target-cpu"="x86-64" "target-features"="+cx8,+fxsr,+mmx,+sse,+sse2,+x87" "tune-cpu"="generic" }
attributes #9 = { noinline optnone uwtable "frame-pointer"="all" "min-legal-vector-width"="0" "no-trapping-math"="true" "stack-protector-buffer-size"="8" "target-cpu"="x86-64" "target-features"="+cx8,+fxsr,+mmx,+sse,+sse2,+x87" "tune-cpu"="generic" }
attributes #10 = { nobuiltin nounwind "frame-pointer"="all" "no-trapping-math"="true" "stack-protector-buffer-size"="8" "target-cpu"="x86-64" "target-features"="+cx8,+fxsr,+mmx,+sse,+sse2,+x87" "tune-cpu"="generic" }
attributes #11 = { noinline nounwind optnone uwtable "frame-pointer"="all" "min-legal-vector-width"="0" "no-trapping-math"="true" "stack-protector-buffer-size"="8" "target-cpu"="x86-64" "target-features"="+cx8,+fxsr,+mmx,+sse,+sse2,+x87" "tune-cpu"="generic" }
attributes #12 = { noreturn nounwind "frame-pointer"="all" "no-trapping-math"="true" "stack-protector-buffer-size"="8" "target-cpu"="x86-64" "target-features"="+cx8,+fxsr,+mmx,+sse,+sse2,+x87" "tune-cpu"="generic" }
attributes #13 = { mustprogress noinline nounwind optnone uwtable "frame-pointer"="all" "min-legal-vector-width"="0" "no-trapping-math"="true" "stack-protector-buffer-size"="8" "target-cpu"="x86-64" "target-features"="+cx8,+fxsr,+mmx,+sse,+sse2,+x87" "tune-cpu"="generic" }
attributes #14 = { noreturn "frame-pointer"="all" "no-trapping-math"="true" "stack-protector-buffer-size"="8" "target-cpu"="x86-64" "target-features"="+cx8,+fxsr,+mmx,+sse,+sse2,+x87" "tune-cpu"="generic" }
attributes #15 = { noinline noreturn nounwind "frame-pointer"="all" "no-trapping-math"="true" "stack-protector-buffer-size"="8" "target-cpu"="x86-64" "target-features"="+cx8,+fxsr,+mmx,+sse,+sse2,+x87" "tune-cpu"="generic" }
attributes #16 = { nounwind willreturn memory(read) }
attributes #17 = { builtin allocsize(0) }
attributes #18 = { builtin nounwind }
attributes #19 = { noreturn nounwind }
attributes #20 = { noreturn }

!llvm.dbg.cu = !{!9}
!llvm.module.flags = !{!2128, !2129, !2130, !2131, !2132, !2133, !2134}
!llvm.ident = !{!2135}

!0 = !DIGlobalVariableExpression(var: !1, expr: !DIExpression())
!1 = distinct !DIGlobalVariable(name: "__ioinit", linkageName: "_ZStL8__ioinit", scope: !2, file: !3, line: 74, type: !4, isLocal: true, isDefinition: true)
!2 = !DINamespace(name: "std", scope: null)
!3 = !DIFile(filename: "/usr/lib/gcc/x86_64-linux-gnu/11/../../../../include/c++/11/iostream", directory: "")
!4 = !DICompositeType(tag: DW_TAG_class_type, name: "Init", scope: !6, file: !5, line: 626, size: 8, flags: DIFlagFwdDecl | DIFlagNonTrivial, identifier: "_ZTSNSt8ios_base4InitE")
!5 = !DIFile(filename: "/usr/lib/gcc/x86_64-linux-gnu/11/../../../../include/c++/11/bits/ios_base.h", directory: "")
!6 = !DICompositeType(tag: DW_TAG_class_type, name: "ios_base", scope: !2, file: !5, line: 228, size: 1728, flags: DIFlagFwdDecl | DIFlagNonTrivial)
!7 = !DIGlobalVariableExpression(var: !8, expr: !DIExpression())
!8 = distinct !DIGlobalVariable(name: "maxFloat", linkageName: "_ZL8maxFloat", scope: !9, file: !2126, line: 38, type: !2127, isLocal: true, isDefinition: true)
!9 = distinct !DICompileUnit(language: DW_LANG_C_plus_plus_14, file: !10, producer: "clang version 16.0.0", isOptimized: false, runtimeVersion: 0, emissionKind: FullDebug, enums: !11, retainedTypes: !696, globals: !711, imports: !847, splitDebugInlining: false, nameTableKind: None)
!10 = !DIFile(filename: "/home/raj/SVF_PAPER_BENCHMARKS/parsec-3.0/pkgs/apps/raytrace/src/RTTL/BVH/Builder/Builder.cxx", directory: "/home/raj/SVF_PAPER_BENCHMARKS/parsec-3.0/pkgs/apps/raytrace/src/build/RTTL", checksumkind: CSK_MD5, checksum: "2bd310ee2f533abc9143f1eb3b1e9579")
!11 = !{!12}
!12 = !DICompositeType(tag: DW_TAG_enumeration_type, scope: !14, file: !13, line: 177, baseType: !693, size: 32, elements: !694, identifier: "_ZTSNSt7__cxx1112basic_stringIcSt11char_traitsIcESaIcEEUt_E")
!13 = !DIFile(filename: "/usr/lib/gcc/x86_64-linux-gnu/11/../../../../include/c++/11/bits/basic_string.h", directory: "")
!14 = distinct !DICompositeType(tag: DW_TAG_class_type, name: "basic_string<char, std::char_traits<char>, std::allocator<char> >", scope: !16, file: !15, line: 1627, size: 256, flags: DIFlagTypePassByReference | DIFlagNonTrivial, elements: !17, templateParams: !691, identifier: "_ZTSNSt7__cxx1112basic_stringIcSt11char_traitsIcESaIcEEE")
!15 = !DIFile(filename: "/usr/lib/gcc/x86_64-linux-gnu/11/../../../../include/c++/11/bits/basic_string.tcc", directory: "")
!16 = !DINamespace(name: "__cxx11", scope: !2, exportSymbols: true)
!17 = !{!18, !83, !85, !86, !94, !291, !296, !301, !304, !309, !312, !318, !319, !320, !323, !327, !330, !331, !334, !335, !347, !352, !355, !358, !361, !364, !367, !368, !371, !376, !381, !384, !387, !390, !394, !397, !400, !401, !404, !405, !408, !411, !414, !417, !421, !426, !429, !432, !433, !437, !440, !443, !446, !449, !452, !455, !458, !459, !460, !465, !470, !471, !472, !473, !474, !475, !476, !479, !480, !481, !482, !483, !484, !485, !486, !487, !488, !489, !498, !504, !505, !506, !509, !512, !513, !514, !515, !516, !517, !518, !519, !522, !525, !526, !529, !530, !533, !534, !535, !536, !537, !538, !539, !540, !543, !546, !549, !552, !555, !558, !561, !565, !568, !571, !574, !575, !578, !581, !584, !587, !590, !593, !596, !599, !602, !605, !608, !611, !614, !617, !618, !621, !622, !625, !628, !631, !632, !635, !638, !641, !644, !647, !650, !651, !652, !653, !654, !655, !656, !657, !658, !659, !660, !661, !662, !663, !664, !665, !666, !667, !668, !669, !670, !673, !676, !679, !682, !685, !688}
!18 = !DIDerivedType(tag: DW_TAG_member, name: "npos", scope: !14, file: !13, line: 109, baseType: !19, flags: DIFlagPublic | DIFlagStaticMember, extraData: i64 -1)
!19 = !DIDerivedType(tag: DW_TAG_const_type, baseType: !20)
!20 = !DIDerivedType(tag: DW_TAG_typedef, name: "size_type", scope: !14, file: !13, line: 96, baseType: !21, flags: DIFlagPublic)
!21 = !DIDerivedType(tag: DW_TAG_typedef, name: "size_type", scope: !23, file: !22, line: 59, baseType: !56)
!22 = !DIFile(filename: "/usr/lib/gcc/x86_64-linux-gnu/11/../../../../include/c++/11/ext/alloc_traits.h", directory: "")
!23 = distinct !DICompositeType(tag: DW_TAG_structure_type, name: "__alloc_traits<std::allocator<char>, char>", scope: !24, file: !22, line: 48, size: 8, flags: DIFlagTypePassByValue, elements: !25, templateParams: !81, identifier: "_ZTSN9__gnu_cxx14__alloc_traitsISaIcEcEE")
!24 = !DINamespace(name: "__gnu_cxx", scope: null)
!25 = !{!26, !64, !69, !73, !77, !78, !79, !80}
!26 = !DIDerivedType(tag: DW_TAG_inheritance, scope: !23, baseType: !27, extraData: i32 0)
!27 = distinct !DICompositeType(tag: DW_TAG_structure_type, name: "allocator_traits<std::allocator<char> >", scope: !2, file: !28, line: 411, size: 8, flags: DIFlagTypePassByValue, elements: !29, templateParams: !62, identifier: "_ZTSSt16allocator_traitsISaIcEE")
!28 = !DIFile(filename: "/usr/lib/gcc/x86_64-linux-gnu/11/../../../../include/c++/11/bits/alloc_traits.h", directory: "", checksumkind: CSK_MD5, checksum: "937e9d7f00d3ed7cff7ec8fafeb8a8bc")
!29 = !{!30, !44, !50, !53, !59}
!30 = !DISubprogram(name: "allocate", linkageName: "_ZNSt16allocator_traitsISaIcEE8allocateERS0_m", scope: !27, file: !28, line: 463, type: !31, scopeLine: 463, flags: DIFlagPrototyped | DIFlagStaticMember, spFlags: 0)
!31 = !DISubroutineType(types: !32)
!32 = !{!33, !36, !40}
!33 = !DIDerivedType(tag: DW_TAG_typedef, name: "pointer", scope: !27, file: !28, line: 420, baseType: !34)
!34 = !DIDerivedType(tag: DW_TAG_pointer_type, baseType: !35, size: 64)
!35 = !DIBasicType(name: "char", size: 8, encoding: DW_ATE_signed_char)
!36 = !DIDerivedType(tag: DW_TAG_reference_type, baseType: !37, size: 64)
!37 = !DIDerivedType(tag: DW_TAG_typedef, name: "allocator_type", scope: !27, file: !28, line: 414, baseType: !38)
!38 = !DICompositeType(tag: DW_TAG_class_type, name: "allocator<char>", scope: !2, file: !39, line: 261, size: 8, flags: DIFlagFwdDecl | DIFlagNonTrivial, identifier: "_ZTSSaIcE")
!39 = !DIFile(filename: "/usr/lib/gcc/x86_64-linux-gnu/11/../../../../include/c++/11/bits/allocator.h", directory: "", checksumkind: CSK_MD5, checksum: "52abf05a7426983321ecef80fe4251be")
!40 = !DIDerivedType(tag: DW_TAG_typedef, name: "size_type", file: !28, line: 435, baseType: !41)
!41 = !DIDerivedType(tag: DW_TAG_typedef, name: "size_t", scope: !2, file: !42, line: 280, baseType: !43)
!42 = !DIFile(filename: "/usr/lib/gcc/x86_64-linux-gnu/11/../../../../include/x86_64-linux-gnu/c++/11/bits/c++config.h", directory: "", checksumkind: CSK_MD5, checksum: "b09addf8bea7ac9bf251a76b15f26064")
!43 = !DIBasicType(name: "unsigned long", size: 64, encoding: DW_ATE_unsigned)
!44 = !DISubprogram(name: "allocate", linkageName: "_ZNSt16allocator_traitsISaIcEE8allocateERS0_mPKv", scope: !27, file: !28, line: 477, type: !45, scopeLine: 477, flags: DIFlagPrototyped | DIFlagStaticMember, spFlags: 0)
!45 = !DISubroutineType(types: !46)
!46 = !{!33, !36, !40, !47}
!47 = !DIDerivedType(tag: DW_TAG_typedef, name: "const_void_pointer", file: !28, line: 429, baseType: !48)
!48 = !DIDerivedType(tag: DW_TAG_pointer_type, baseType: !49, size: 64)
!49 = !DIDerivedType(tag: DW_TAG_const_type, baseType: null)
!50 = !DISubprogram(name: "deallocate", linkageName: "_ZNSt16allocator_traitsISaIcEE10deallocateERS0_Pcm", scope: !27, file: !28, line: 495, type: !51, scopeLine: 495, flags: DIFlagPrototyped | DIFlagStaticMember, spFlags: 0)
!51 = !DISubroutineType(types: !52)
!52 = !{null, !36, !33, !40}
!53 = !DISubprogram(name: "max_size", linkageName: "_ZNSt16allocator_traitsISaIcEE8max_sizeERKS0_", scope: !27, file: !28, line: 547, type: !54, scopeLine: 547, flags: DIFlagPrototyped | DIFlagStaticMember, spFlags: 0)
!54 = !DISubroutineType(types: !55)
!55 = !{!56, !57}
!56 = !DIDerivedType(tag: DW_TAG_typedef, name: "size_type", scope: !27, file: !28, line: 435, baseType: !41)
!57 = !DIDerivedType(tag: DW_TAG_reference_type, baseType: !58, size: 64)
!58 = !DIDerivedType(tag: DW_TAG_const_type, baseType: !37)
!59 = !DISubprogram(name: "select_on_container_copy_construction", linkageName: "_ZNSt16allocator_traitsISaIcEE37select_on_container_copy_constructionERKS0_", scope: !27, file: !28, line: 562, type: !60, scopeLine: 562, flags: DIFlagPrototyped | DIFlagStaticMember, spFlags: 0)
!60 = !DISubroutineType(types: !61)
!61 = !{!37, !57}
!62 = !{!63}
!63 = !DITemplateTypeParameter(name: "_Alloc", type: !38)
!64 = !DISubprogram(name: "_S_select_on_copy", linkageName: "_ZN9__gnu_cxx14__alloc_traitsISaIcEcE17_S_select_on_copyERKS1_", scope: !23, file: !22, line: 97, type: !65, scopeLine: 97, flags: DIFlagPrototyped | DIFlagStaticMember, spFlags: 0)
!65 = !DISubroutineType(types: !66)
!66 = !{!38, !67}
!67 = !DIDerivedType(tag: DW_TAG_reference_type, baseType: !68, size: 64)
!68 = !DIDerivedType(tag: DW_TAG_const_type, baseType: !38)
!69 = !DISubprogram(name: "_S_on_swap", linkageName: "_ZN9__gnu_cxx14__alloc_traitsISaIcEcE10_S_on_swapERS1_S3_", scope: !23, file: !22, line: 100, type: !70, scopeLine: 100, flags: DIFlagPrototyped | DIFlagStaticMember, spFlags: 0)
!70 = !DISubroutineType(types: !71)
!71 = !{null, !72, !72}
!72 = !DIDerivedType(tag: DW_TAG_reference_type, baseType: !38, size: 64)
!73 = !DISubprogram(name: "_S_propagate_on_copy_assign", linkageName: "_ZN9__gnu_cxx14__alloc_traitsISaIcEcE27_S_propagate_on_copy_assignEv", scope: !23, file: !22, line: 103, type: !74, scopeLine: 103, flags: DIFlagPrototyped | DIFlagStaticMember, spFlags: 0)
!74 = !DISubroutineType(types: !75)
!75 = !{!76}
!76 = !DIBasicType(name: "bool", size: 8, encoding: DW_ATE_boolean)
!77 = !DISubprogram(name: "_S_propagate_on_move_assign", linkageName: "_ZN9__gnu_cxx14__alloc_traitsISaIcEcE27_S_propagate_on_move_assignEv", scope: !23, file: !22, line: 106, type: !74, scopeLine: 106, flags: DIFlagPrototyped | DIFlagStaticMember, spFlags: 0)
!78 = !DISubprogram(name: "_S_propagate_on_swap", linkageName: "_ZN9__gnu_cxx14__alloc_traitsISaIcEcE20_S_propagate_on_swapEv", scope: !23, file: !22, line: 109, type: !74, scopeLine: 109, flags: DIFlagPrototyped | DIFlagStaticMember, spFlags: 0)
!79 = !DISubprogram(name: "_S_always_equal", linkageName: "_ZN9__gnu_cxx14__alloc_traitsISaIcEcE15_S_always_equalEv", scope: !23, file: !22, line: 112, type: !74, scopeLine: 112, flags: DIFlagPrototyped | DIFlagStaticMember, spFlags: 0)
!80 = !DISubprogram(name: "_S_nothrow_move", linkageName: "_ZN9__gnu_cxx14__alloc_traitsISaIcEcE15_S_nothrow_moveEv", scope: !23, file: !22, line: 115, type: !74, scopeLine: 115, flags: DIFlagPrototyped | DIFlagStaticMember, spFlags: 0)
!81 = !{!63, !82}
!82 = !DITemplateTypeParameter(type: !35)
!83 = !DIDerivedType(tag: DW_TAG_member, name: "_M_dataplus", scope: !14, file: !13, line: 174, baseType: !84, size: 64)
!84 = !DICompositeType(tag: DW_TAG_structure_type, name: "_Alloc_hider", scope: !14, file: !13, line: 158, size: 64, flags: DIFlagFwdDecl | DIFlagNonTrivial, identifier: "_ZTSNSt7__cxx1112basic_stringIcSt11char_traitsIcESaIcEE12_Alloc_hiderE")
!85 = !DIDerivedType(tag: DW_TAG_member, name: "_M_string_length", scope: !14, file: !13, line: 175, baseType: !20, size: 64, offset: 64)
!86 = !DIDerivedType(tag: DW_TAG_member, scope: !14, file: !13, line: 179, baseType: !87, size: 128, offset: 128)
!87 = distinct !DICompositeType(tag: DW_TAG_union_type, scope: !14, file: !13, line: 179, size: 128, flags: DIFlagExportSymbols | DIFlagTypePassByValue, elements: !88, identifier: "_ZTSNSt7__cxx1112basic_stringIcSt11char_traitsIcESaIcEEUt0_E")
!88 = !{!89, !93}
!89 = !DIDerivedType(tag: DW_TAG_member, name: "_M_local_buf", scope: !87, file: !13, line: 181, baseType: !90, size: 128)
!90 = !DICompositeType(tag: DW_TAG_array_type, baseType: !35, size: 128, elements: !91)
!91 = !{!92}
!92 = !DISubrange(count: 16)
!93 = !DIDerivedType(tag: DW_TAG_member, name: "_M_allocated_capacity", scope: !87, file: !13, line: 182, baseType: !20, size: 64)
!94 = !DISubprogram(name: "_S_to_string_view", linkageName: "_ZNSt7__cxx1112basic_stringIcSt11char_traitsIcESaIcEE17_S_to_string_viewESt17basic_string_viewIcS2_E", scope: !14, file: !13, line: 133, type: !95, scopeLine: 133, flags: DIFlagPrototyped | DIFlagStaticMember, spFlags: 0)
!95 = !DISubroutineType(types: !96)
!96 = !{!97, !97}
!97 = !DIDerivedType(tag: DW_TAG_typedef, name: "__sv_type", scope: !14, file: !13, line: 122, baseType: !98)
!98 = distinct !DICompositeType(tag: DW_TAG_class_type, name: "basic_string_view<char, std::char_traits<char> >", scope: !2, file: !99, line: 98, size: 128, flags: DIFlagTypePassByValue | DIFlagNonTrivial, elements: !100, templateParams: !237, identifier: "_ZTSSt17basic_string_viewIcSt11char_traitsIcEE")
!99 = !DIFile(filename: "/usr/lib/gcc/x86_64-linux-gnu/11/../../../../include/c++/11/string_view", directory: "")
!100 = !{!101, !104, !105, !108, !112, !117, !120, !123, !127, !135, !136, !137, !138, !144, !145, !146, !147, !150, !151, !152, !155, !160, !161, !164, !165, !169, !172, !173, !176, !180, !183, !187, !190, !193, !196, !199, !202, !205, !208, !211, !214, !215, !216, !217, !218, !219, !220, !221, !222, !223, !224, !225, !226, !227, !228, !229, !230, !231, !232, !233, !234}
!101 = !DIDerivedType(tag: DW_TAG_member, name: "npos", scope: !98, file: !99, line: 119, baseType: !102, flags: DIFlagPublic | DIFlagStaticMember)
!102 = !DIDerivedType(tag: DW_TAG_const_type, baseType: !103)
!103 = !DIDerivedType(tag: DW_TAG_typedef, name: "size_type", file: !99, line: 117, baseType: !41, flags: DIFlagPublic)
!104 = !DIDerivedType(tag: DW_TAG_member, name: "_M_len", scope: !98, file: !99, line: 511, baseType: !41, size: 64)
!105 = !DIDerivedType(tag: DW_TAG_member, name: "_M_str", scope: !98, file: !99, line: 512, baseType: !106, size: 64, offset: 64)
!106 = !DIDerivedType(tag: DW_TAG_pointer_type, baseType: !107, size: 64)
!107 = !DIDerivedType(tag: DW_TAG_const_type, baseType: !35)
!108 = !DISubprogram(name: "basic_string_view", scope: !98, file: !99, line: 124, type: !109, scopeLine: 124, flags: DIFlagPublic | DIFlagPrototyped, spFlags: 0)
!109 = !DISubroutineType(types: !110)
!110 = !{null, !111}
!111 = !DIDerivedType(tag: DW_TAG_pointer_type, baseType: !98, size: 64, flags: DIFlagArtificial | DIFlagObjectPointer)
!112 = !DISubprogram(name: "basic_string_view", scope: !98, file: !99, line: 128, type: !113, scopeLine: 128, flags: DIFlagPublic | DIFlagPrototyped, spFlags: 0)
!113 = !DISubroutineType(types: !114)
!114 = !{null, !111, !115}
!115 = !DIDerivedType(tag: DW_TAG_reference_type, baseType: !116, size: 64)
!116 = !DIDerivedType(tag: DW_TAG_const_type, baseType: !98)
!117 = !DISubprogram(name: "basic_string_view", scope: !98, file: !99, line: 131, type: !118, scopeLine: 131, flags: DIFlagPublic | DIFlagPrototyped, spFlags: 0)
!118 = !DISubroutineType(types: !119)
!119 = !{null, !111, !106}
!120 = !DISubprogram(name: "basic_string_view", scope: !98, file: !99, line: 137, type: !121, scopeLine: 137, flags: DIFlagPublic | DIFlagPrototyped, spFlags: 0)
!121 = !DISubroutineType(types: !122)
!122 = !{null, !111, !106, !103}
!123 = !DISubprogram(name: "operator=", linkageName: "_ZNSt17basic_string_viewIcSt11char_traitsIcEEaSERKS2_", scope: !98, file: !99, line: 172, type: !124, scopeLine: 172, flags: DIFlagPublic | DIFlagPrototyped, spFlags: 0)
!124 = !DISubroutineType(types: !125)
!125 = !{!126, !111, !115}
!126 = !DIDerivedType(tag: DW_TAG_reference_type, baseType: !98, size: 64)
!127 = !DISubprogram(name: "begin", linkageName: "_ZNKSt17basic_string_viewIcSt11char_traitsIcEE5beginEv", scope: !98, file: !99, line: 177, type: !128, scopeLine: 177, flags: DIFlagPublic | DIFlagPrototyped, spFlags: 0)
!128 = !DISubroutineType(types: !129)
!129 = !{!130, !134}
!130 = !DIDerivedType(tag: DW_TAG_typedef, name: "const_iterator", scope: !98, file: !99, line: 113, baseType: !131, flags: DIFlagPublic)
!131 = !DIDerivedType(tag: DW_TAG_pointer_type, baseType: !132, size: 64)
!132 = !DIDerivedType(tag: DW_TAG_const_type, baseType: !133)
!133 = !DIDerivedType(tag: DW_TAG_typedef, name: "value_type", scope: !98, file: !99, line: 108, baseType: !35, flags: DIFlagPublic)
!134 = !DIDerivedType(tag: DW_TAG_pointer_type, baseType: !116, size: 64, flags: DIFlagArtificial | DIFlagObjectPointer)
!135 = !DISubprogram(name: "end", linkageName: "_ZNKSt17basic_string_viewIcSt11char_traitsIcEE3endEv", scope: !98, file: !99, line: 181, type: !128, scopeLine: 181, flags: DIFlagPublic | DIFlagPrototyped, spFlags: 0)
!136 = !DISubprogram(name: "cbegin", linkageName: "_ZNKSt17basic_string_viewIcSt11char_traitsIcEE6cbeginEv", scope: !98, file: !99, line: 185, type: !128, scopeLine: 185, flags: DIFlagPublic | DIFlagPrototyped, spFlags: 0)
!137 = !DISubprogram(name: "cend", linkageName: "_ZNKSt17basic_string_viewIcSt11char_traitsIcEE4cendEv", scope: !98, file: !99, line: 189, type: !128, scopeLine: 189, flags: DIFlagPublic | DIFlagPrototyped, spFlags: 0)
!138 = !DISubprogram(name: "rbegin", linkageName: "_ZNKSt17basic_string_viewIcSt11char_traitsIcEE6rbeginEv", scope: !98, file: !99, line: 193, type: !139, scopeLine: 193, flags: DIFlagPublic | DIFlagPrototyped, spFlags: 0)
!139 = !DISubroutineType(types: !140)
!140 = !{!141, !134}
!141 = !DIDerivedType(tag: DW_TAG_typedef, name: "const_reverse_iterator", scope: !98, file: !99, line: 115, baseType: !142, flags: DIFlagPublic)
!142 = !DICompositeType(tag: DW_TAG_class_type, name: "reverse_iterator<const char *>", scope: !2, file: !143, line: 128, flags: DIFlagFwdDecl | DIFlagNonTrivial, identifier: "_ZTSSt16reverse_iteratorIPKcE")
!143 = !DIFile(filename: "/usr/lib/gcc/x86_64-linux-gnu/11/../../../../include/c++/11/bits/stl_iterator.h", directory: "", checksumkind: CSK_MD5, checksum: "adfbaa72dad2c93f2f61417c54c47efb")
!144 = !DISubprogram(name: "rend", linkageName: "_ZNKSt17basic_string_viewIcSt11char_traitsIcEE4rendEv", scope: !98, file: !99, line: 197, type: !139, scopeLine: 197, flags: DIFlagPublic | DIFlagPrototyped, spFlags: 0)
!145 = !DISubprogram(name: "crbegin", linkageName: "_ZNKSt17basic_string_viewIcSt11char_traitsIcEE7crbeginEv", scope: !98, file: !99, line: 201, type: !139, scopeLine: 201, flags: DIFlagPublic | DIFlagPrototyped, spFlags: 0)
!146 = !DISubprogram(name: "crend", linkageName: "_ZNKSt17basic_string_viewIcSt11char_traitsIcEE5crendEv", scope: !98, file: !99, line: 205, type: !139, scopeLine: 205, flags: DIFlagPublic | DIFlagPrototyped, spFlags: 0)
!147 = !DISubprogram(name: "size", linkageName: "_ZNKSt17basic_string_viewIcSt11char_traitsIcEE4sizeEv", scope: !98, file: !99, line: 211, type: !148, scopeLine: 211, flags: DIFlagPublic | DIFlagPrototyped, spFlags: 0)
!148 = !DISubroutineType(types: !149)
!149 = !{!103, !134}
!150 = !DISubprogram(name: "length", linkageName: "_ZNKSt17basic_string_viewIcSt11char_traitsIcEE6lengthEv", scope: !98, file: !99, line: 215, type: !148, scopeLine: 215, flags: DIFlagPublic | DIFlagPrototyped, spFlags: 0)
!151 = !DISubprogram(name: "max_size", linkageName: "_ZNKSt17basic_string_viewIcSt11char_traitsIcEE8max_sizeEv", scope: !98, file: !99, line: 219, type: !148, scopeLine: 219, flags: DIFlagPublic | DIFlagPrototyped, spFlags: 0)
!152 = !DISubprogram(name: "empty", linkageName: "_ZNKSt17basic_string_viewIcSt11char_traitsIcEE5emptyEv", scope: !98, file: !99, line: 226, type: !153, scopeLine: 226, flags: DIFlagPublic | DIFlagPrototyped, spFlags: 0)
!153 = !DISubroutineType(types: !154)
!154 = !{!76, !134}
!155 = !DISubprogram(name: "operator[]", linkageName: "_ZNKSt17basic_string_viewIcSt11char_traitsIcEEixEm", scope: !98, file: !99, line: 232, type: !156, scopeLine: 232, flags: DIFlagPublic | DIFlagPrototyped, spFlags: 0)
!156 = !DISubroutineType(types: !157)
!157 = !{!158, !134, !103}
!158 = !DIDerivedType(tag: DW_TAG_typedef, name: "const_reference", scope: !98, file: !99, line: 112, baseType: !159, flags: DIFlagPublic)
!159 = !DIDerivedType(tag: DW_TAG_reference_type, baseType: !132, size: 64)
!160 = !DISubprogram(name: "at", linkageName: "_ZNKSt17basic_string_viewIcSt11char_traitsIcEE2atEm", scope: !98, file: !99, line: 239, type: !156, scopeLine: 239, flags: DIFlagPublic | DIFlagPrototyped, spFlags: 0)
!161 = !DISubprogram(name: "front", linkageName: "_ZNKSt17basic_string_viewIcSt11char_traitsIcEE5frontEv", scope: !98, file: !99, line: 249, type: !162, scopeLine: 249, flags: DIFlagPublic | DIFlagPrototyped, spFlags: 0)
!162 = !DISubroutineType(types: !163)
!163 = !{!158, !134}
!164 = !DISubprogram(name: "back", linkageName: "_ZNKSt17basic_string_viewIcSt11char_traitsIcEE4backEv", scope: !98, file: !99, line: 256, type: !162, scopeLine: 256, flags: DIFlagPublic | DIFlagPrototyped, spFlags: 0)
!165 = !DISubprogram(name: "data", linkageName: "_ZNKSt17basic_string_viewIcSt11char_traitsIcEE4dataEv", scope: !98, file: !99, line: 263, type: !166, scopeLine: 263, flags: DIFlagPublic | DIFlagPrototyped, spFlags: 0)
!166 = !DISubroutineType(types: !167)
!167 = !{!168, !134}
!168 = !DIDerivedType(tag: DW_TAG_typedef, name: "const_pointer", scope: !98, file: !99, line: 110, baseType: !131, flags: DIFlagPublic)
!169 = !DISubprogram(name: "remove_prefix", linkageName: "_ZNSt17basic_string_viewIcSt11char_traitsIcEE13remove_prefixEm", scope: !98, file: !99, line: 269, type: !170, scopeLine: 269, flags: DIFlagPublic | DIFlagPrototyped, spFlags: 0)
!170 = !DISubroutineType(types: !171)
!171 = !{null, !111, !103}
!172 = !DISubprogram(name: "remove_suffix", linkageName: "_ZNSt17basic_string_viewIcSt11char_traitsIcEE13remove_suffixEm", scope: !98, file: !99, line: 277, type: !170, scopeLine: 277, flags: DIFlagPublic | DIFlagPrototyped, spFlags: 0)
!173 = !DISubprogram(name: "swap", linkageName: "_ZNSt17basic_string_viewIcSt11char_traitsIcEE4swapERS2_", scope: !98, file: !99, line: 281, type: !174, scopeLine: 281, flags: DIFlagPublic | DIFlagPrototyped, spFlags: 0)
!174 = !DISubroutineType(types: !175)
!175 = !{null, !111, !126}
!176 = !DISubprogram(name: "copy", linkageName: "_ZNKSt17basic_string_viewIcSt11char_traitsIcEE4copyEPcmm", scope: !98, file: !99, line: 292, type: !177, scopeLine: 292, flags: DIFlagPublic | DIFlagPrototyped, spFlags: 0)
!177 = !DISubroutineType(types: !178)
!178 = !{!179, !134, !34, !103, !103}
!179 = !DIDerivedType(tag: DW_TAG_typedef, name: "size_type", scope: !98, file: !99, line: 117, baseType: !41, flags: DIFlagPublic)
!180 = !DISubprogram(name: "substr", linkageName: "_ZNKSt17basic_string_viewIcSt11char_traitsIcEE6substrEmm", scope: !98, file: !99, line: 304, type: !181, scopeLine: 304, flags: DIFlagPublic | DIFlagPrototyped, spFlags: 0)
!181 = !DISubroutineType(types: !182)
!182 = !{!98, !134, !103, !103}
!183 = !DISubprogram(name: "compare", linkageName: "_ZNKSt17basic_string_viewIcSt11char_traitsIcEE7compareES2_", scope: !98, file: !99, line: 312, type: !184, scopeLine: 312, flags: DIFlagPublic | DIFlagPrototyped, spFlags: 0)
!184 = !DISubroutineType(types: !185)
!185 = !{!186, !134, !98}
!186 = !DIBasicType(name: "int", size: 32, encoding: DW_ATE_signed)
!187 = !DISubprogram(name: "compare", linkageName: "_ZNKSt17basic_string_viewIcSt11char_traitsIcEE7compareEmmS2_", scope: !98, file: !99, line: 322, type: !188, scopeLine: 322, flags: DIFlagPublic | DIFlagPrototyped, spFlags: 0)
!188 = !DISubroutineType(types: !189)
!189 = !{!186, !134, !103, !103, !98}
!190 = !DISubprogram(name: "compare", linkageName: "_ZNKSt17basic_string_viewIcSt11char_traitsIcEE7compareEmmS2_mm", scope: !98, file: !99, line: 326, type: !191, scopeLine: 326, flags: DIFlagPublic | DIFlagPrototyped, spFlags: 0)
!191 = !DISubroutineType(types: !192)
!192 = !{!186, !134, !103, !103, !98, !103, !103}
!193 = !DISubprogram(name: "compare", linkageName: "_ZNKSt17basic_string_viewIcSt11char_traitsIcEE7compareEPKc", scope: !98, file: !99, line: 333, type: !194, scopeLine: 333, flags: DIFlagPublic | DIFlagPrototyped, spFlags: 0)
!194 = !DISubroutineType(types: !195)
!195 = !{!186, !134, !106}
!196 = !DISubprogram(name: "compare", linkageName: "_ZNKSt17basic_string_viewIcSt11char_traitsIcEE7compareEmmPKc", scope: !98, file: !99, line: 337, type: !197, scopeLine: 337, flags: DIFlagPublic | DIFlagPrototyped, spFlags: 0)
!197 = !DISubroutineType(types: !198)
!198 = !{!186, !134, !103, !103, !106}
!199 = !DISubprogram(name: "compare", linkageName: "_ZNKSt17basic_string_viewIcSt11char_traitsIcEE7compareEmmPKcm", scope: !98, file: !99, line: 341, type: !200, scopeLine: 341, flags: DIFlagPublic | DIFlagPrototyped, spFlags: 0)
!200 = !DISubroutineType(types: !201)
!201 = !{!186, !134, !103, !103, !106, !103}
!202 = !DISubprogram(name: "find", linkageName: "_ZNKSt17basic_string_viewIcSt11char_traitsIcEE4findES2_m", scope: !98, file: !99, line: 398, type: !203, scopeLine: 398, flags: DIFlagPublic | DIFlagPrototyped, spFlags: 0)
!203 = !DISubroutineType(types: !204)
!204 = !{!179, !134, !98, !103}
!205 = !DISubprogram(name: "find", linkageName: "_ZNKSt17basic_string_viewIcSt11char_traitsIcEE4findEcm", scope: !98, file: !99, line: 402, type: !206, scopeLine: 402, flags: DIFlagPublic | DIFlagPrototyped, spFlags: 0)
!206 = !DISubroutineType(types: !207)
!207 = !{!179, !134, !35, !103}
!208 = !DISubprogram(name: "find", linkageName: "_ZNKSt17basic_string_viewIcSt11char_traitsIcEE4findEPKcmm", scope: !98, file: !99, line: 405, type: !209, scopeLine: 405, flags: DIFlagPublic | DIFlagPrototyped, spFlags: 0)
!209 = !DISubroutineType(types: !210)
!210 = !{!179, !134, !106, !103, !103}
!211 = !DISubprogram(name: "find", linkageName: "_ZNKSt17basic_string_viewIcSt11char_traitsIcEE4findEPKcm", scope: !98, file: !99, line: 408, type: !212, scopeLine: 408, flags: DIFlagPublic | DIFlagPrototyped, spFlags: 0)
!212 = !DISubroutineType(types: !213)
!213 = !{!179, !134, !106, !103}
!214 = !DISubprogram(name: "rfind", linkageName: "_ZNKSt17basic_string_viewIcSt11char_traitsIcEE5rfindES2_m", scope: !98, file: !99, line: 412, type: !203, scopeLine: 412, flags: DIFlagPublic | DIFlagPrototyped, spFlags: 0)
!215 = !DISubprogram(name: "rfind", linkageName: "_ZNKSt17basic_string_viewIcSt11char_traitsIcEE5rfindEcm", scope: !98, file: !99, line: 416, type: !206, scopeLine: 416, flags: DIFlagPublic | DIFlagPrototyped, spFlags: 0)
!216 = !DISubprogram(name: "rfind", linkageName: "_ZNKSt17basic_string_viewIcSt11char_traitsIcEE5rfindEPKcmm", scope: !98, file: !99, line: 419, type: !209, scopeLine: 419, flags: DIFlagPublic | DIFlagPrototyped, spFlags: 0)
!217 = !DISubprogram(name: "rfind", linkageName: "_ZNKSt17basic_string_viewIcSt11char_traitsIcEE5rfindEPKcm", scope: !98, file: !99, line: 422, type: !212, scopeLine: 422, flags: DIFlagPublic | DIFlagPrototyped, spFlags: 0)
!218 = !DISubprogram(name: "find_first_of", linkageName: "_ZNKSt17basic_string_viewIcSt11char_traitsIcEE13find_first_ofES2_m", scope: !98, file: !99, line: 426, type: !203, scopeLine: 426, flags: DIFlagPublic | DIFlagPrototyped, spFlags: 0)
!219 = !DISubprogram(name: "find_first_of", linkageName: "_ZNKSt17basic_string_viewIcSt11char_traitsIcEE13find_first_ofEcm", scope: !98, file: !99, line: 430, type: !206, scopeLine: 430, flags: DIFlagPublic | DIFlagPrototyped, spFlags: 0)
!220 = !DISubprogram(name: "find_first_of", linkageName: "_ZNKSt17basic_string_viewIcSt11char_traitsIcEE13find_first_ofEPKcmm", scope: !98, file: !99, line: 434, type: !209, scopeLine: 434, flags: DIFlagPublic | DIFlagPrototyped, spFlags: 0)
!221 = !DISubprogram(name: "find_first_of", linkageName: "_ZNKSt17basic_string_viewIcSt11char_traitsIcEE13find_first_ofEPKcm", scope: !98, file: !99, line: 438, type: !212, scopeLine: 438, flags: DIFlagPublic | DIFlagPrototyped, spFlags: 0)
!222 = !DISubprogram(name: "find_last_of", linkageName: "_ZNKSt17basic_string_viewIcSt11char_traitsIcEE12find_last_ofES2_m", scope: !98, file: !99, line: 442, type: !203, scopeLine: 442, flags: DIFlagPublic | DIFlagPrototyped, spFlags: 0)
!223 = !DISubprogram(name: "find_last_of", linkageName: "_ZNKSt17basic_string_viewIcSt11char_traitsIcEE12find_last_ofEcm", scope: !98, file: !99, line: 447, type: !206, scopeLine: 447, flags: DIFlagPublic | DIFlagPrototyped, spFlags: 0)
!224 = !DISubprogram(name: "find_last_of", linkageName: "_ZNKSt17basic_string_viewIcSt11char_traitsIcEE12find_last_ofEPKcmm", scope: !98, file: !99, line: 451, type: !209, scopeLine: 451, flags: DIFlagPublic | DIFlagPrototyped, spFlags: 0)
!225 = !DISubprogram(name: "find_last_of", linkageName: "_ZNKSt17basic_string_viewIcSt11char_traitsIcEE12find_last_ofEPKcm", scope: !98, file: !99, line: 455, type: !212, scopeLine: 455, flags: DIFlagPublic | DIFlagPrototyped, spFlags: 0)
!226 = !DISubprogram(name: "find_first_not_of", linkageName: "_ZNKSt17basic_string_viewIcSt11char_traitsIcEE17find_first_not_ofES2_m", scope: !98, file: !99, line: 459, type: !203, scopeLine: 459, flags: DIFlagPublic | DIFlagPrototyped, spFlags: 0)
!227 = !DISubprogram(name: "find_first_not_of", linkageName: "_ZNKSt17basic_string_viewIcSt11char_traitsIcEE17find_first_not_ofEcm", scope: !98, file: !99, line: 464, type: !206, scopeLine: 464, flags: DIFlagPublic | DIFlagPrototyped, spFlags: 0)
!228 = !DISubprogram(name: "find_first_not_of", linkageName: "_ZNKSt17basic_string_viewIcSt11char_traitsIcEE17find_first_not_ofEPKcmm", scope: !98, file: !99, line: 467, type: !209, scopeLine: 467, flags: DIFlagPublic | DIFlagPrototyped, spFlags: 0)
!229 = !DISubprogram(name: "find_first_not_of", linkageName: "_ZNKSt17basic_string_viewIcSt11char_traitsIcEE17find_first_not_ofEPKcm", scope: !98, file: !99, line: 471, type: !212, scopeLine: 471, flags: DIFlagPublic | DIFlagPrototyped, spFlags: 0)
!230 = !DISubprogram(name: "find_last_not_of", linkageName: "_ZNKSt17basic_string_viewIcSt11char_traitsIcEE16find_last_not_ofES2_m", scope: !98, file: !99, line: 478, type: !203, scopeLine: 478, flags: DIFlagPublic | DIFlagPrototyped, spFlags: 0)
!231 = !DISubprogram(name: "find_last_not_of", linkageName: "_ZNKSt17basic_string_viewIcSt11char_traitsIcEE16find_last_not_ofEcm", scope: !98, file: !99, line: 483, type: !206, scopeLine: 483, flags: DIFlagPublic | DIFlagPrototyped, spFlags: 0)
!232 = !DISubprogram(name: "find_last_not_of", linkageName: "_ZNKSt17basic_string_viewIcSt11char_traitsIcEE16find_last_not_ofEPKcmm", scope: !98, file: !99, line: 486, type: !209, scopeLine: 486, flags: DIFlagPublic | DIFlagPrototyped, spFlags: 0)
!233 = !DISubprogram(name: "find_last_not_of", linkageName: "_ZNKSt17basic_string_viewIcSt11char_traitsIcEE16find_last_not_ofEPKcm", scope: !98, file: !99, line: 490, type: !212, scopeLine: 490, flags: DIFlagPublic | DIFlagPrototyped, spFlags: 0)
!234 = !DISubprogram(name: "_S_compare", linkageName: "_ZNSt17basic_string_viewIcSt11char_traitsIcEE10_S_compareEmm", scope: !98, file: !99, line: 500, type: !235, scopeLine: 500, flags: DIFlagPrototyped | DIFlagStaticMember, spFlags: 0)
!235 = !DISubroutineType(types: !236)
!236 = !{!186, !103, !103}
!237 = !{!238, !239}
!238 = !DITemplateTypeParameter(name: "_CharT", type: !35)
!239 = !DITemplateTypeParameter(name: "_Traits", type: !240, defaulted: true)
!240 = distinct !DICompositeType(tag: DW_TAG_structure_type, name: "char_traits<char>", scope: !2, file: !241, line: 344, size: 8, flags: DIFlagTypePassByValue, elements: !242, templateParams: !290, identifier: "_ZTSSt11char_traitsIcE")
!241 = !DIFile(filename: "/usr/lib/gcc/x86_64-linux-gnu/11/../../../../include/c++/11/bits/char_traits.h", directory: "")
!242 = !{!243, !250, !253, !254, !258, !261, !264, !268, !269, !272, !278, !281, !284, !287}
!243 = !DISubprogram(name: "assign", linkageName: "_ZNSt11char_traitsIcE6assignERcRKc", scope: !240, file: !241, line: 356, type: !244, scopeLine: 356, flags: DIFlagPrototyped | DIFlagStaticMember, spFlags: 0)
!244 = !DISubroutineType(types: !245)
!245 = !{null, !246, !248}
!246 = !DIDerivedType(tag: DW_TAG_reference_type, baseType: !247, size: 64)
!247 = !DIDerivedType(tag: DW_TAG_typedef, name: "char_type", scope: !240, file: !241, line: 346, baseType: !35)
!248 = !DIDerivedType(tag: DW_TAG_reference_type, baseType: !249, size: 64)
!249 = !DIDerivedType(tag: DW_TAG_const_type, baseType: !247)
!250 = !DISubprogram(name: "eq", linkageName: "_ZNSt11char_traitsIcE2eqERKcS2_", scope: !240, file: !241, line: 360, type: !251, scopeLine: 360, flags: DIFlagPrototyped | DIFlagStaticMember, spFlags: 0)
!251 = !DISubroutineType(types: !252)
!252 = !{!76, !248, !248}
!253 = !DISubprogram(name: "lt", linkageName: "_ZNSt11char_traitsIcE2ltERKcS2_", scope: !240, file: !241, line: 364, type: !251, scopeLine: 364, flags: DIFlagPrototyped | DIFlagStaticMember, spFlags: 0)
!254 = !DISubprogram(name: "compare", linkageName: "_ZNSt11char_traitsIcE7compareEPKcS2_m", scope: !240, file: !241, line: 372, type: !255, scopeLine: 372, flags: DIFlagPrototyped | DIFlagStaticMember, spFlags: 0)
!255 = !DISubroutineType(types: !256)
!256 = !{!186, !257, !257, !41}
!257 = !DIDerivedType(tag: DW_TAG_pointer_type, baseType: !249, size: 64)
!258 = !DISubprogram(name: "length", linkageName: "_ZNSt11char_traitsIcE6lengthEPKc", scope: !240, file: !241, line: 393, type: !259, scopeLine: 393, flags: DIFlagPrototyped | DIFlagStaticMember, spFlags: 0)
!259 = !DISubroutineType(types: !260)
!260 = !{!41, !257}
!261 = !DISubprogram(name: "find", linkageName: "_ZNSt11char_traitsIcE4findEPKcmRS1_", scope: !240, file: !241, line: 403, type: !262, scopeLine: 403, flags: DIFlagPrototyped | DIFlagStaticMember, spFlags: 0)
!262 = !DISubroutineType(types: !263)
!263 = !{!257, !257, !41, !248}
!264 = !DISubprogram(name: "move", linkageName: "_ZNSt11char_traitsIcE4moveEPcPKcm", scope: !240, file: !241, line: 417, type: !265, scopeLine: 417, flags: DIFlagPrototyped | DIFlagStaticMember, spFlags: 0)
!265 = !DISubroutineType(types: !266)
!266 = !{!267, !267, !257, !41}
!267 = !DIDerivedType(tag: DW_TAG_pointer_type, baseType: !247, size: 64)
!268 = !DISubprogram(name: "copy", linkageName: "_ZNSt11char_traitsIcE4copyEPcPKcm", scope: !240, file: !241, line: 429, type: !265, scopeLine: 429, flags: DIFlagPrototyped | DIFlagStaticMember, spFlags: 0)
!269 = !DISubprogram(name: "assign", linkageName: "_ZNSt11char_traitsIcE6assignEPcmc", scope: !240, file: !241, line: 441, type: !270, scopeLine: 441, flags: DIFlagPrototyped | DIFlagStaticMember, spFlags: 0)
!270 = !DISubroutineType(types: !271)
!271 = !{!267, !267, !41, !247}
!272 = !DISubprogram(name: "to_char_type", linkageName: "_ZNSt11char_traitsIcE12to_char_typeERKi", scope: !240, file: !241, line: 453, type: !273, scopeLine: 453, flags: DIFlagPrototyped | DIFlagStaticMember, spFlags: 0)
!273 = !DISubroutineType(types: !274)
!274 = !{!247, !275}
!275 = !DIDerivedType(tag: DW_TAG_reference_type, baseType: !276, size: 64)
!276 = !DIDerivedType(tag: DW_TAG_const_type, baseType: !277)
!277 = !DIDerivedType(tag: DW_TAG_typedef, name: "int_type", scope: !240, file: !241, line: 347, baseType: !186)
!278 = !DISubprogram(name: "to_int_type", linkageName: "_ZNSt11char_traitsIcE11to_int_typeERKc", scope: !240, file: !241, line: 459, type: !279, scopeLine: 459, flags: DIFlagPrototyped | DIFlagStaticMember, spFlags: 0)
!279 = !DISubroutineType(types: !280)
!280 = !{!277, !248}
!281 = !DISubprogram(name: "eq_int_type", linkageName: "_ZNSt11char_traitsIcE11eq_int_typeERKiS2_", scope: !240, file: !241, line: 463, type: !282, scopeLine: 463, flags: DIFlagPrototyped | DIFlagStaticMember, spFlags: 0)
!282 = !DISubroutineType(types: !283)
!283 = !{!76, !275, !275}
!284 = !DISubprogram(name: "eof", linkageName: "_ZNSt11char_traitsIcE3eofEv", scope: !240, file: !241, line: 467, type: !285, scopeLine: 467, flags: DIFlagPrototyped | DIFlagStaticMember, spFlags: 0)
!285 = !DISubroutineType(types: !286)
!286 = !{!277}
!287 = !DISubprogram(name: "not_eof", linkageName: "_ZNSt11char_traitsIcE7not_eofERKi", scope: !240, file: !241, line: 471, type: !288, scopeLine: 471, flags: DIFlagPrototyped | DIFlagStaticMember, spFlags: 0)
!288 = !DISubroutineType(types: !289)
!289 = !{!277, !275}
!290 = !{!238}
!291 = !DISubprogram(name: "basic_string", scope: !14, file: !13, line: 153, type: !292, scopeLine: 153, flags: DIFlagExplicit | DIFlagPrototyped, spFlags: 0)
!292 = !DISubroutineType(types: !293)
!293 = !{null, !294, !295, !67}
!294 = !DIDerivedType(tag: DW_TAG_pointer_type, baseType: !14, size: 64, flags: DIFlagArtificial | DIFlagObjectPointer)
!295 = !DICompositeType(tag: DW_TAG_structure_type, name: "__sv_wrapper", scope: !14, file: !13, line: 140, size: 128, flags: DIFlagFwdDecl | DIFlagNonTrivial, identifier: "_ZTSNSt7__cxx1112basic_stringIcSt11char_traitsIcESaIcEE12__sv_wrapperE")
!296 = !DISubprogram(name: "_M_data", linkageName: "_ZNSt7__cxx1112basic_stringIcSt11char_traitsIcESaIcEE7_M_dataEPc", scope: !14, file: !13, line: 186, type: !297, scopeLine: 186, flags: DIFlagPrototyped, spFlags: 0)
!297 = !DISubroutineType(types: !298)
!298 = !{null, !294, !299}
!299 = !DIDerivedType(tag: DW_TAG_typedef, name: "pointer", scope: !14, file: !13, line: 100, baseType: !300, flags: DIFlagPublic)
!300 = !DIDerivedType(tag: DW_TAG_typedef, name: "pointer", scope: !23, file: !22, line: 57, baseType: !33)
!301 = !DISubprogram(name: "_M_length", linkageName: "_ZNSt7__cxx1112basic_stringIcSt11char_traitsIcESaIcEE9_M_lengthEm", scope: !14, file: !13, line: 190, type: !302, scopeLine: 190, flags: DIFlagPrototyped, spFlags: 0)
!302 = !DISubroutineType(types: !303)
!303 = !{null, !294, !20}
!304 = !DISubprogram(name: "_M_data", linkageName: "_ZNKSt7__cxx1112basic_stringIcSt11char_traitsIcESaIcEE7_M_dataEv", scope: !14, file: !13, line: 194, type: !305, scopeLine: 194, flags: DIFlagPrototyped, spFlags: 0)
!305 = !DISubroutineType(types: !306)
!306 = !{!299, !307}
!307 = !DIDerivedType(tag: DW_TAG_pointer_type, baseType: !308, size: 64, flags: DIFlagArtificial | DIFlagObjectPointer)
!308 = !DIDerivedType(tag: DW_TAG_const_type, baseType: !14)
!309 = !DISubprogram(name: "_M_local_data", linkageName: "_ZNSt7__cxx1112basic_stringIcSt11char_traitsIcESaIcEE13_M_local_dataEv", scope: !14, file: !13, line: 198, type: !310, scopeLine: 198, flags: DIFlagPrototyped, spFlags: 0)
!310 = !DISubroutineType(types: !311)
!311 = !{!299, !294}
!312 = !DISubprogram(name: "_M_local_data", linkageName: "_ZNKSt7__cxx1112basic_stringIcSt11char_traitsIcESaIcEE13_M_local_dataEv", scope: !14, file: !13, line: 208, type: !313, scopeLine: 208, flags: DIFlagPrototyped, spFlags: 0)
!313 = !DISubroutineType(types: !314)
!314 = !{!315, !307}
!315 = !DIDerivedType(tag: DW_TAG_typedef, name: "const_pointer", scope: !14, file: !13, line: 101, baseType: !316, flags: DIFlagPublic)
!316 = !DIDerivedType(tag: DW_TAG_typedef, name: "const_pointer", scope: !23, file: !22, line: 58, baseType: !317)
!317 = !DIDerivedType(tag: DW_TAG_typedef, name: "const_pointer", scope: !27, file: !28, line: 423, baseType: !106)
!318 = !DISubprogram(name: "_M_capacity", linkageName: "_ZNSt7__cxx1112basic_stringIcSt11char_traitsIcESaIcEE11_M_capacityEm", scope: !14, file: !13, line: 218, type: !302, scopeLine: 218, flags: DIFlagPrototyped, spFlags: 0)
!319 = !DISubprogram(name: "_M_set_length", linkageName: "_ZNSt7__cxx1112basic_stringIcSt11char_traitsIcESaIcEE13_M_set_lengthEm", scope: !14, file: !13, line: 222, type: !302, scopeLine: 222, flags: DIFlagPrototyped, spFlags: 0)
!320 = !DISubprogram(name: "_M_is_local", linkageName: "_ZNKSt7__cxx1112basic_stringIcSt11char_traitsIcESaIcEE11_M_is_localEv", scope: !14, file: !13, line: 229, type: !321, scopeLine: 229, flags: DIFlagPrototyped, spFlags: 0)
!321 = !DISubroutineType(types: !322)
!322 = !{!76, !307}
!323 = !DISubprogram(name: "_M_create", linkageName: "_ZNSt7__cxx1112basic_stringIcSt11char_traitsIcESaIcEE9_M_createERmm", scope: !14, file: !13, line: 234, type: !324, scopeLine: 234, flags: DIFlagPrototyped, spFlags: 0)
!324 = !DISubroutineType(types: !325)
!325 = !{!299, !294, !326, !20}
!326 = !DIDerivedType(tag: DW_TAG_reference_type, baseType: !20, size: 64)
!327 = !DISubprogram(name: "_M_dispose", linkageName: "_ZNSt7__cxx1112basic_stringIcSt11char_traitsIcESaIcEE10_M_disposeEv", scope: !14, file: !13, line: 237, type: !328, scopeLine: 237, flags: DIFlagPrototyped, spFlags: 0)
!328 = !DISubroutineType(types: !329)
!329 = !{null, !294}
!330 = !DISubprogram(name: "_M_destroy", linkageName: "_ZNSt7__cxx1112basic_stringIcSt11char_traitsIcESaIcEE10_M_destroyEm", scope: !14, file: !13, line: 244, type: !302, scopeLine: 244, flags: DIFlagPrototyped, spFlags: 0)
!331 = !DISubprogram(name: "_M_construct_aux_2", linkageName: "_ZNSt7__cxx1112basic_stringIcSt11char_traitsIcESaIcEE18_M_construct_aux_2Emc", scope: !14, file: !13, line: 266, type: !332, scopeLine: 266, flags: DIFlagPrototyped, spFlags: 0)
!332 = !DISubroutineType(types: !333)
!333 = !{null, !294, !20, !35}
!334 = !DISubprogram(name: "_M_construct", linkageName: "_ZNSt7__cxx1112basic_stringIcSt11char_traitsIcESaIcEE12_M_constructEmc", scope: !14, file: !13, line: 291, type: !332, scopeLine: 291, flags: DIFlagPrototyped, spFlags: 0)
!335 = !DISubprogram(name: "_M_get_allocator", linkageName: "_ZNSt7__cxx1112basic_stringIcSt11char_traitsIcESaIcEE16_M_get_allocatorEv", scope: !14, file: !13, line: 294, type: !336, scopeLine: 294, flags: DIFlagPrototyped, spFlags: 0)
!336 = !DISubroutineType(types: !337)
!337 = !{!338, !294}
!338 = !DIDerivedType(tag: DW_TAG_reference_type, baseType: !339, size: 64)
!339 = !DIDerivedType(tag: DW_TAG_typedef, name: "allocator_type", scope: !14, file: !13, line: 95, baseType: !340, flags: DIFlagPublic)
!340 = !DIDerivedType(tag: DW_TAG_typedef, name: "_Char_alloc_type", scope: !14, file: !13, line: 88, baseType: !341)
!341 = !DIDerivedType(tag: DW_TAG_typedef, name: "other", scope: !342, file: !22, line: 120, baseType: !346)
!342 = distinct !DICompositeType(tag: DW_TAG_structure_type, name: "rebind<char>", scope: !23, file: !22, line: 119, size: 8, flags: DIFlagTypePassByValue, elements: !343, templateParams: !344, identifier: "_ZTSN9__gnu_cxx14__alloc_traitsISaIcEcE6rebindIcEE")
!343 = !{}
!344 = !{!345}
!345 = !DITemplateTypeParameter(name: "_Tp", type: !35)
!346 = !DIDerivedType(tag: DW_TAG_typedef, name: "rebind_alloc<char>", scope: !27, file: !28, line: 450, baseType: !38)
!347 = !DISubprogram(name: "_M_get_allocator", linkageName: "_ZNKSt7__cxx1112basic_stringIcSt11char_traitsIcESaIcEE16_M_get_allocatorEv", scope: !14, file: !13, line: 298, type: !348, scopeLine: 298, flags: DIFlagPrototyped, spFlags: 0)
!348 = !DISubroutineType(types: !349)
!349 = !{!350, !307}
!350 = !DIDerivedType(tag: DW_TAG_reference_type, baseType: !351, size: 64)
!351 = !DIDerivedType(tag: DW_TAG_const_type, baseType: !339)
!352 = !DISubprogram(name: "_M_check", linkageName: "_ZNKSt7__cxx1112basic_stringIcSt11char_traitsIcESaIcEE8_M_checkEmPKc", scope: !14, file: !13, line: 318, type: !353, scopeLine: 318, flags: DIFlagPrototyped, spFlags: 0)
!353 = !DISubroutineType(types: !354)
!354 = !{!20, !307, !20, !106}
!355 = !DISubprogram(name: "_M_check_length", linkageName: "_ZNKSt7__cxx1112basic_stringIcSt11char_traitsIcESaIcEE15_M_check_lengthEmmPKc", scope: !14, file: !13, line: 328, type: !356, scopeLine: 328, flags: DIFlagPrototyped, spFlags: 0)
!356 = !DISubroutineType(types: !357)
!357 = !{null, !307, !20, !20, !106}
!358 = !DISubprogram(name: "_M_limit", linkageName: "_ZNKSt7__cxx1112basic_stringIcSt11char_traitsIcESaIcEE8_M_limitEmm", scope: !14, file: !13, line: 337, type: !359, scopeLine: 337, flags: DIFlagPrototyped, spFlags: 0)
!359 = !DISubroutineType(types: !360)
!360 = !{!20, !307, !20, !20}
!361 = !DISubprogram(name: "_M_disjunct", linkageName: "_ZNKSt7__cxx1112basic_stringIcSt11char_traitsIcESaIcEE11_M_disjunctEPKc", scope: !14, file: !13, line: 345, type: !362, scopeLine: 345, flags: DIFlagPrototyped, spFlags: 0)
!362 = !DISubroutineType(types: !363)
!363 = !{!76, !307, !106}
!364 = !DISubprogram(name: "_S_copy", linkageName: "_ZNSt7__cxx1112basic_stringIcSt11char_traitsIcESaIcEE7_S_copyEPcPKcm", scope: !14, file: !13, line: 354, type: !365, scopeLine: 354, flags: DIFlagPrototyped | DIFlagStaticMember, spFlags: 0)
!365 = !DISubroutineType(types: !366)
!366 = !{null, !34, !106, !20}
!367 = !DISubprogram(name: "_S_move", linkageName: "_ZNSt7__cxx1112basic_stringIcSt11char_traitsIcESaIcEE7_S_moveEPcPKcm", scope: !14, file: !13, line: 363, type: !365, scopeLine: 363, flags: DIFlagPrototyped | DIFlagStaticMember, spFlags: 0)
!368 = !DISubprogram(name: "_S_assign", linkageName: "_ZNSt7__cxx1112basic_stringIcSt11char_traitsIcESaIcEE9_S_assignEPcmc", scope: !14, file: !13, line: 372, type: !369, scopeLine: 372, flags: DIFlagPrototyped | DIFlagStaticMember, spFlags: 0)
!369 = !DISubroutineType(types: !370)
!370 = !{null, !34, !20, !35}
!371 = !DISubprogram(name: "_S_copy_chars", linkageName: "_ZNSt7__cxx1112basic_stringIcSt11char_traitsIcESaIcEE13_S_copy_charsEPcN9__gnu_cxx17__normal_iteratorIS5_S4_EES8_", scope: !14, file: !13, line: 391, type: !372, scopeLine: 391, flags: DIFlagPrototyped | DIFlagStaticMember, spFlags: 0)
!372 = !DISubroutineType(types: !373)
!373 = !{null, !34, !374, !374}
!374 = !DIDerivedType(tag: DW_TAG_typedef, name: "iterator", scope: !14, file: !13, line: 102, baseType: !375, flags: DIFlagPublic)
!375 = !DICompositeType(tag: DW_TAG_class_type, name: "__normal_iterator<char *, std::__cxx11::basic_string<char, std::char_traits<char>, std::allocator<char> > >", scope: !24, file: !143, line: 1004, size: 64, flags: DIFlagFwdDecl | DIFlagNonTrivial, identifier: "_ZTSN9__gnu_cxx17__normal_iteratorIPcNSt7__cxx1112basic_stringIcSt11char_traitsIcESaIcEEEEE")
!376 = !DISubprogram(name: "_S_copy_chars", linkageName: "_ZNSt7__cxx1112basic_stringIcSt11char_traitsIcESaIcEE13_S_copy_charsEPcN9__gnu_cxx17__normal_iteratorIPKcS4_EESA_", scope: !14, file: !13, line: 395, type: !377, scopeLine: 395, flags: DIFlagPrototyped | DIFlagStaticMember, spFlags: 0)
!377 = !DISubroutineType(types: !378)
!378 = !{null, !34, !379, !379}
!379 = !DIDerivedType(tag: DW_TAG_typedef, name: "const_iterator", scope: !14, file: !13, line: 104, baseType: !380, flags: DIFlagPublic)
!380 = !DICompositeType(tag: DW_TAG_class_type, name: "__normal_iterator<const char *, std::__cxx11::basic_string<char, std::char_traits<char>, std::allocator<char> > >", scope: !24, file: !143, line: 1004, size: 64, flags: DIFlagFwdDecl | DIFlagNonTrivial, identifier: "_ZTSN9__gnu_cxx17__normal_iteratorIPKcNSt7__cxx1112basic_stringIcSt11char_traitsIcESaIcEEEEE")
!381 = !DISubprogram(name: "_S_copy_chars", linkageName: "_ZNSt7__cxx1112basic_stringIcSt11char_traitsIcESaIcEE13_S_copy_charsEPcS5_S5_", scope: !14, file: !13, line: 400, type: !382, scopeLine: 400, flags: DIFlagPrototyped | DIFlagStaticMember, spFlags: 0)
!382 = !DISubroutineType(types: !383)
!383 = !{null, !34, !34, !34}
!384 = !DISubprogram(name: "_S_copy_chars", linkageName: "_ZNSt7__cxx1112basic_stringIcSt11char_traitsIcESaIcEE13_S_copy_charsEPcPKcS7_", scope: !14, file: !13, line: 404, type: !385, scopeLine: 404, flags: DIFlagPrototyped | DIFlagStaticMember, spFlags: 0)
!385 = !DISubroutineType(types: !386)
!386 = !{null, !34, !106, !106}
!387 = !DISubprogram(name: "_S_compare", linkageName: "_ZNSt7__cxx1112basic_stringIcSt11char_traitsIcESaIcEE10_S_compareEmm", scope: !14, file: !13, line: 409, type: !388, scopeLine: 409, flags: DIFlagPrototyped | DIFlagStaticMember, spFlags: 0)
!388 = !DISubroutineType(types: !389)
!389 = !{!186, !20, !20}
!390 = !DISubprogram(name: "_M_assign", linkageName: "_ZNSt7__cxx1112basic_stringIcSt11char_traitsIcESaIcEE9_M_assignERKS4_", scope: !14, file: !13, line: 422, type: !391, scopeLine: 422, flags: DIFlagPrototyped, spFlags: 0)
!391 = !DISubroutineType(types: !392)
!392 = !{null, !294, !393}
!393 = !DIDerivedType(tag: DW_TAG_reference_type, baseType: !308, size: 64)
!394 = !DISubprogram(name: "_M_mutate", linkageName: "_ZNSt7__cxx1112basic_stringIcSt11char_traitsIcESaIcEE9_M_mutateEmmPKcm", scope: !14, file: !13, line: 425, type: !395, scopeLine: 425, flags: DIFlagPrototyped, spFlags: 0)
!395 = !DISubroutineType(types: !396)
!396 = !{null, !294, !20, !20, !106, !20}
!397 = !DISubprogram(name: "_M_erase", linkageName: "_ZNSt7__cxx1112basic_stringIcSt11char_traitsIcESaIcEE8_M_eraseEmm", scope: !14, file: !13, line: 429, type: !398, scopeLine: 429, flags: DIFlagPrototyped, spFlags: 0)
!398 = !DISubroutineType(types: !399)
!399 = !{null, !294, !20, !20}
!400 = !DISubprogram(name: "basic_string", scope: !14, file: !13, line: 439, type: !328, scopeLine: 439, flags: DIFlagPublic | DIFlagPrototyped, spFlags: 0)
!401 = !DISubprogram(name: "basic_string", scope: !14, file: !13, line: 448, type: !402, scopeLine: 448, flags: DIFlagPublic | DIFlagExplicit | DIFlagPrototyped, spFlags: 0)
!402 = !DISubroutineType(types: !403)
!403 = !{null, !294, !67}
!404 = !DISubprogram(name: "basic_string", scope: !14, file: !13, line: 456, type: !391, scopeLine: 456, flags: DIFlagPublic | DIFlagPrototyped, spFlags: 0)
!405 = !DISubprogram(name: "basic_string", scope: !14, file: !13, line: 469, type: !406, scopeLine: 469, flags: DIFlagPublic | DIFlagPrototyped, spFlags: 0)
!406 = !DISubroutineType(types: !407)
!407 = !{null, !294, !393, !20, !67}
!408 = !DISubprogram(name: "basic_string", scope: !14, file: !13, line: 484, type: !409, scopeLine: 484, flags: DIFlagPublic | DIFlagPrototyped, spFlags: 0)
!409 = !DISubroutineType(types: !410)
!410 = !{null, !294, !393, !20, !20}
!411 = !DISubprogram(name: "basic_string", scope: !14, file: !13, line: 500, type: !412, scopeLine: 500, flags: DIFlagPublic | DIFlagPrototyped, spFlags: 0)
!412 = !DISubroutineType(types: !413)
!413 = !{null, !294, !393, !20, !20, !67}
!414 = !DISubprogram(name: "basic_string", scope: !14, file: !13, line: 518, type: !415, scopeLine: 518, flags: DIFlagPublic | DIFlagPrototyped, spFlags: 0)
!415 = !DISubroutineType(types: !416)
!416 = !{null, !294, !106, !20, !67}
!417 = !DISubprogram(name: "basic_string", scope: !14, file: !13, line: 565, type: !418, scopeLine: 565, flags: DIFlagPublic | DIFlagPrototyped, spFlags: 0)
!418 = !DISubroutineType(types: !419)
!419 = !{null, !294, !420}
!420 = !DIDerivedType(tag: DW_TAG_rvalue_reference_type, baseType: !14, size: 64)
!421 = !DISubprogram(name: "basic_string", scope: !14, file: !13, line: 592, type: !422, scopeLine: 592, flags: DIFlagPublic | DIFlagPrototyped, spFlags: 0)
!422 = !DISubroutineType(types: !423)
!423 = !{null, !294, !424, !67}
!424 = !DICompositeType(tag: DW_TAG_class_type, name: "initializer_list<char>", scope: !2, file: !425, line: 47, size: 128, flags: DIFlagFwdDecl | DIFlagNonTrivial, identifier: "_ZTSSt16initializer_listIcE")
!425 = !DIFile(filename: "/usr/lib/gcc/x86_64-linux-gnu/11/../../../../include/c++/11/initializer_list", directory: "")
!426 = !DISubprogram(name: "basic_string", scope: !14, file: !13, line: 596, type: !427, scopeLine: 596, flags: DIFlagPublic | DIFlagPrototyped, spFlags: 0)
!427 = !DISubroutineType(types: !428)
!428 = !{null, !294, !393, !67}
!429 = !DISubprogram(name: "basic_string", scope: !14, file: !13, line: 600, type: !430, scopeLine: 600, flags: DIFlagPublic | DIFlagPrototyped, spFlags: 0)
!430 = !DISubroutineType(types: !431)
!431 = !{null, !294, !420, !67}
!432 = !DISubprogram(name: "~basic_string", scope: !14, file: !13, line: 671, type: !328, scopeLine: 671, flags: DIFlagPublic | DIFlagPrototyped, spFlags: 0)
!433 = !DISubprogram(name: "operator=", linkageName: "_ZNSt7__cxx1112basic_stringIcSt11char_traitsIcESaIcEEaSERKS4_", scope: !14, file: !13, line: 679, type: !434, scopeLine: 679, flags: DIFlagPublic | DIFlagPrototyped, spFlags: 0)
!434 = !DISubroutineType(types: !435)
!435 = !{!436, !294, !393}
!436 = !DIDerivedType(tag: DW_TAG_reference_type, baseType: !14, size: 64)
!437 = !DISubprogram(name: "operator=", linkageName: "_ZNSt7__cxx1112basic_stringIcSt11char_traitsIcESaIcEEaSEPKc", scope: !14, file: !13, line: 689, type: !438, scopeLine: 689, flags: DIFlagPublic | DIFlagPrototyped, spFlags: 0)
!438 = !DISubroutineType(types: !439)
!439 = !{!436, !294, !106}
!440 = !DISubprogram(name: "operator=", linkageName: "_ZNSt7__cxx1112basic_stringIcSt11char_traitsIcESaIcEEaSEc", scope: !14, file: !13, line: 700, type: !441, scopeLine: 700, flags: DIFlagPublic | DIFlagPrototyped, spFlags: 0)
!441 = !DISubroutineType(types: !442)
!442 = !{!436, !294, !35}
!443 = !DISubprogram(name: "operator=", linkageName: "_ZNSt7__cxx1112basic_stringIcSt11char_traitsIcESaIcEEaSEOS4_", scope: !14, file: !13, line: 717, type: !444, scopeLine: 717, flags: DIFlagPublic | DIFlagPrototyped, spFlags: 0)
!444 = !DISubroutineType(types: !445)
!445 = !{!436, !294, !420}
!446 = !DISubprogram(name: "operator=", linkageName: "_ZNSt7__cxx1112basic_stringIcSt11char_traitsIcESaIcEEaSESt16initializer_listIcE", scope: !14, file: !13, line: 785, type: !447, scopeLine: 785, flags: DIFlagPublic | DIFlagPrototyped, spFlags: 0)
!447 = !DISubroutineType(types: !448)
!448 = !{!436, !294, !424}
!449 = !DISubprogram(name: "operator basic_string_view", linkageName: "_ZNKSt7__cxx1112basic_stringIcSt11char_traitsIcESaIcEEcvSt17basic_string_viewIcS2_EEv", scope: !14, file: !13, line: 806, type: !450, scopeLine: 806, flags: DIFlagPublic | DIFlagPrototyped, spFlags: 0)
!450 = !DISubroutineType(types: !451)
!451 = !{!97, !307}
!452 = !DISubprogram(name: "begin", linkageName: "_ZNSt7__cxx1112basic_stringIcSt11char_traitsIcESaIcEE5beginEv", scope: !14, file: !13, line: 816, type: !453, scopeLine: 816, flags: DIFlagPublic | DIFlagPrototyped, spFlags: 0)
!453 = !DISubroutineType(types: !454)
!454 = !{!374, !294}
!455 = !DISubprogram(name: "begin", linkageName: "_ZNKSt7__cxx1112basic_stringIcSt11char_traitsIcESaIcEE5beginEv", scope: !14, file: !13, line: 824, type: !456, scopeLine: 824, flags: DIFlagPublic | DIFlagPrototyped, spFlags: 0)
!456 = !DISubroutineType(types: !457)
!457 = !{!379, !307}
!458 = !DISubprogram(name: "end", linkageName: "_ZNSt7__cxx1112basic_stringIcSt11char_traitsIcESaIcEE3endEv", scope: !14, file: !13, line: 832, type: !453, scopeLine: 832, flags: DIFlagPublic | DIFlagPrototyped, spFlags: 0)
!459 = !DISubprogram(name: "end", linkageName: "_ZNKSt7__cxx1112basic_stringIcSt11char_traitsIcESaIcEE3endEv", scope: !14, file: !13, line: 840, type: !456, scopeLine: 840, flags: DIFlagPublic | DIFlagPrototyped, spFlags: 0)
!460 = !DISubprogram(name: "rbegin", linkageName: "_ZNSt7__cxx1112basic_stringIcSt11char_traitsIcESaIcEE6rbeginEv", scope: !14, file: !13, line: 849, type: !461, scopeLine: 849, flags: DIFlagPublic | DIFlagPrototyped, spFlags: 0)
!461 = !DISubroutineType(types: !462)
!462 = !{!463, !294}
!463 = !DIDerivedType(tag: DW_TAG_typedef, name: "reverse_iterator", scope: !14, file: !13, line: 106, baseType: !464, flags: DIFlagPublic)
!464 = !DICompositeType(tag: DW_TAG_class_type, name: "reverse_iterator<__gnu_cxx::__normal_iterator<char *, std::__cxx11::basic_string<char, std::char_traits<char>, std::allocator<char> > > >", scope: !2, file: !143, line: 128, flags: DIFlagFwdDecl | DIFlagNonTrivial, identifier: "_ZTSSt16reverse_iteratorIN9__gnu_cxx17__normal_iteratorIPcNSt7__cxx1112basic_stringIcSt11char_traitsIcESaIcEEEEEE")
!465 = !DISubprogram(name: "rbegin", linkageName: "_ZNKSt7__cxx1112basic_stringIcSt11char_traitsIcESaIcEE6rbeginEv", scope: !14, file: !13, line: 858, type: !466, scopeLine: 858, flags: DIFlagPublic | DIFlagPrototyped, spFlags: 0)
!466 = !DISubroutineType(types: !467)
!467 = !{!468, !307}
!468 = !DIDerivedType(tag: DW_TAG_typedef, name: "const_reverse_iterator", scope: !14, file: !13, line: 105, baseType: !469, flags: DIFlagPublic)
!469 = !DICompositeType(tag: DW_TAG_class_type, name: "reverse_iterator<__gnu_cxx::__normal_iterator<const char *, std::__cxx11::basic_string<char, std::char_traits<char>, std::allocator<char> > > >", scope: !2, file: !143, line: 128, flags: DIFlagFwdDecl | DIFlagNonTrivial, identifier: "_ZTSSt16reverse_iteratorIN9__gnu_cxx17__normal_iteratorIPKcNSt7__cxx1112basic_stringIcSt11char_traitsIcESaIcEEEEEE")
!470 = !DISubprogram(name: "rend", linkageName: "_ZNSt7__cxx1112basic_stringIcSt11char_traitsIcESaIcEE4rendEv", scope: !14, file: !13, line: 867, type: !461, scopeLine: 867, flags: DIFlagPublic | DIFlagPrototyped, spFlags: 0)
!471 = !DISubprogram(name: "rend", linkageName: "_ZNKSt7__cxx1112basic_stringIcSt11char_traitsIcESaIcEE4rendEv", scope: !14, file: !13, line: 876, type: !466, scopeLine: 876, flags: DIFlagPublic | DIFlagPrototyped, spFlags: 0)
!472 = !DISubprogram(name: "cbegin", linkageName: "_ZNKSt7__cxx1112basic_stringIcSt11char_traitsIcESaIcEE6cbeginEv", scope: !14, file: !13, line: 885, type: !456, scopeLine: 885, flags: DIFlagPublic | DIFlagPrototyped, spFlags: 0)
!473 = !DISubprogram(name: "cend", linkageName: "_ZNKSt7__cxx1112basic_stringIcSt11char_traitsIcESaIcEE4cendEv", scope: !14, file: !13, line: 893, type: !456, scopeLine: 893, flags: DIFlagPublic | DIFlagPrototyped, spFlags: 0)
!474 = !DISubprogram(name: "crbegin", linkageName: "_ZNKSt7__cxx1112basic_stringIcSt11char_traitsIcESaIcEE7crbeginEv", scope: !14, file: !13, line: 902, type: !466, scopeLine: 902, flags: DIFlagPublic | DIFlagPrototyped, spFlags: 0)
!475 = !DISubprogram(name: "crend", linkageName: "_ZNKSt7__cxx1112basic_stringIcSt11char_traitsIcESaIcEE5crendEv", scope: !14, file: !13, line: 911, type: !466, scopeLine: 911, flags: DIFlagPublic | DIFlagPrototyped, spFlags: 0)
!476 = !DISubprogram(name: "size", linkageName: "_ZNKSt7__cxx1112basic_stringIcSt11char_traitsIcESaIcEE4sizeEv", scope: !14, file: !13, line: 920, type: !477, scopeLine: 920, flags: DIFlagPublic | DIFlagPrototyped, spFlags: 0)
!477 = !DISubroutineType(types: !478)
!478 = !{!20, !307}
!479 = !DISubprogram(name: "length", linkageName: "_ZNKSt7__cxx1112basic_stringIcSt11char_traitsIcESaIcEE6lengthEv", scope: !14, file: !13, line: 926, type: !477, scopeLine: 926, flags: DIFlagPublic | DIFlagPrototyped, spFlags: 0)
!480 = !DISubprogram(name: "max_size", linkageName: "_ZNKSt7__cxx1112basic_stringIcSt11char_traitsIcESaIcEE8max_sizeEv", scope: !14, file: !13, line: 931, type: !477, scopeLine: 931, flags: DIFlagPublic | DIFlagPrototyped, spFlags: 0)
!481 = !DISubprogram(name: "resize", linkageName: "_ZNSt7__cxx1112basic_stringIcSt11char_traitsIcESaIcEE6resizeEmc", scope: !14, file: !13, line: 945, type: !332, scopeLine: 945, flags: DIFlagPublic | DIFlagPrototyped, spFlags: 0)
!482 = !DISubprogram(name: "resize", linkageName: "_ZNSt7__cxx1112basic_stringIcSt11char_traitsIcESaIcEE6resizeEm", scope: !14, file: !13, line: 958, type: !302, scopeLine: 958, flags: DIFlagPublic | DIFlagPrototyped, spFlags: 0)
!483 = !DISubprogram(name: "shrink_to_fit", linkageName: "_ZNSt7__cxx1112basic_stringIcSt11char_traitsIcESaIcEE13shrink_to_fitEv", scope: !14, file: !13, line: 966, type: !328, scopeLine: 966, flags: DIFlagPublic | DIFlagPrototyped, spFlags: 0)
!484 = !DISubprogram(name: "capacity", linkageName: "_ZNKSt7__cxx1112basic_stringIcSt11char_traitsIcESaIcEE8capacityEv", scope: !14, file: !13, line: 976, type: !477, scopeLine: 976, flags: DIFlagPublic | DIFlagPrototyped, spFlags: 0)
!485 = !DISubprogram(name: "reserve", linkageName: "_ZNSt7__cxx1112basic_stringIcSt11char_traitsIcESaIcEE7reserveEm", scope: !14, file: !13, line: 1000, type: !302, scopeLine: 1000, flags: DIFlagPublic | DIFlagPrototyped, spFlags: 0)
!486 = !DISubprogram(name: "reserve", linkageName: "_ZNSt7__cxx1112basic_stringIcSt11char_traitsIcESaIcEE7reserveEv", scope: !14, file: !13, line: 1009, type: !328, scopeLine: 1009, flags: DIFlagPublic | DIFlagPrototyped, spFlags: 0)
!487 = !DISubprogram(name: "clear", linkageName: "_ZNSt7__cxx1112basic_stringIcSt11char_traitsIcESaIcEE5clearEv", scope: !14, file: !13, line: 1015, type: !328, scopeLine: 1015, flags: DIFlagPublic | DIFlagPrototyped, spFlags: 0)
!488 = !DISubprogram(name: "empty", linkageName: "_ZNKSt7__cxx1112basic_stringIcSt11char_traitsIcESaIcEE5emptyEv", scope: !14, file: !13, line: 1023, type: !321, scopeLine: 1023, flags: DIFlagPublic | DIFlagPrototyped, spFlags: 0)
!489 = !DISubprogram(name: "operator[]", linkageName: "_ZNKSt7__cxx1112basic_stringIcSt11char_traitsIcESaIcEEixEm", scope: !14, file: !13, line: 1038, type: !490, scopeLine: 1038, flags: DIFlagPublic | DIFlagPrototyped, spFlags: 0)
!490 = !DISubroutineType(types: !491)
!491 = !{!492, !307, !20}
!492 = !DIDerivedType(tag: DW_TAG_typedef, name: "const_reference", scope: !14, file: !13, line: 99, baseType: !493, flags: DIFlagPublic)
!493 = !DIDerivedType(tag: DW_TAG_typedef, name: "const_reference", scope: !23, file: !22, line: 63, baseType: !494)
!494 = !DIDerivedType(tag: DW_TAG_reference_type, baseType: !495, size: 64)
!495 = !DIDerivedType(tag: DW_TAG_const_type, baseType: !496)
!496 = !DIDerivedType(tag: DW_TAG_typedef, name: "value_type", scope: !23, file: !22, line: 56, baseType: !497)
!497 = !DIDerivedType(tag: DW_TAG_typedef, name: "value_type", scope: !27, file: !28, line: 417, baseType: !35)
!498 = !DISubprogram(name: "operator[]", linkageName: "_ZNSt7__cxx1112basic_stringIcSt11char_traitsIcESaIcEEixEm", scope: !14, file: !13, line: 1055, type: !499, scopeLine: 1055, flags: DIFlagPublic | DIFlagPrototyped, spFlags: 0)
!499 = !DISubroutineType(types: !500)
!500 = !{!501, !294, !20}
!501 = !DIDerivedType(tag: DW_TAG_typedef, name: "reference", scope: !14, file: !13, line: 98, baseType: !502, flags: DIFlagPublic)
!502 = !DIDerivedType(tag: DW_TAG_typedef, name: "reference", scope: !23, file: !22, line: 62, baseType: !503)
!503 = !DIDerivedType(tag: DW_TAG_reference_type, baseType: !496, size: 64)
!504 = !DISubprogram(name: "at", linkageName: "_ZNKSt7__cxx1112basic_stringIcSt11char_traitsIcESaIcEE2atEm", scope: !14, file: !13, line: 1076, type: !490, scopeLine: 1076, flags: DIFlagPublic | DIFlagPrototyped, spFlags: 0)
!505 = !DISubprogram(name: "at", linkageName: "_ZNSt7__cxx1112basic_stringIcSt11char_traitsIcESaIcEE2atEm", scope: !14, file: !13, line: 1097, type: !499, scopeLine: 1097, flags: DIFlagPublic | DIFlagPrototyped, spFlags: 0)
!506 = !DISubprogram(name: "front", linkageName: "_ZNSt7__cxx1112basic_stringIcSt11char_traitsIcESaIcEE5frontEv", scope: !14, file: !13, line: 1113, type: !507, scopeLine: 1113, flags: DIFlagPublic | DIFlagPrototyped, spFlags: 0)
!507 = !DISubroutineType(types: !508)
!508 = !{!501, !294}
!509 = !DISubprogram(name: "front", linkageName: "_ZNKSt7__cxx1112basic_stringIcSt11char_traitsIcESaIcEE5frontEv", scope: !14, file: !13, line: 1124, type: !510, scopeLine: 1124, flags: DIFlagPublic | DIFlagPrototyped, spFlags: 0)
!510 = !DISubroutineType(types: !511)
!511 = !{!492, !307}
!512 = !DISubprogram(name: "back", linkageName: "_ZNSt7__cxx1112basic_stringIcSt11char_traitsIcESaIcEE4backEv", scope: !14, file: !13, line: 1135, type: !507, scopeLine: 1135, flags: DIFlagPublic | DIFlagPrototyped, spFlags: 0)
!513 = !DISubprogram(name: "back", linkageName: "_ZNKSt7__cxx1112basic_stringIcSt11char_traitsIcESaIcEE4backEv", scope: !14, file: !13, line: 1146, type: !510, scopeLine: 1146, flags: DIFlagPublic | DIFlagPrototyped, spFlags: 0)
!514 = !DISubprogram(name: "operator+=", linkageName: "_ZNSt7__cxx1112basic_stringIcSt11char_traitsIcESaIcEEpLERKS4_", scope: !14, file: !13, line: 1160, type: !434, scopeLine: 1160, flags: DIFlagPublic | DIFlagPrototyped, spFlags: 0)
!515 = !DISubprogram(name: "operator+=", linkageName: "_ZNSt7__cxx1112basic_stringIcSt11char_traitsIcESaIcEEpLEPKc", scope: !14, file: !13, line: 1169, type: !438, scopeLine: 1169, flags: DIFlagPublic | DIFlagPrototyped, spFlags: 0)
!516 = !DISubprogram(name: "operator+=", linkageName: "_ZNSt7__cxx1112basic_stringIcSt11char_traitsIcESaIcEEpLEc", scope: !14, file: !13, line: 1178, type: !441, scopeLine: 1178, flags: DIFlagPublic | DIFlagPrototyped, spFlags: 0)
!517 = !DISubprogram(name: "operator+=", linkageName: "_ZNSt7__cxx1112basic_stringIcSt11char_traitsIcESaIcEEpLESt16initializer_listIcE", scope: !14, file: !13, line: 1191, type: !447, scopeLine: 1191, flags: DIFlagPublic | DIFlagPrototyped, spFlags: 0)
!518 = !DISubprogram(name: "append", linkageName: "_ZNSt7__cxx1112basic_stringIcSt11char_traitsIcESaIcEE6appendERKS4_", scope: !14, file: !13, line: 1213, type: !434, scopeLine: 1213, flags: DIFlagPublic | DIFlagPrototyped, spFlags: 0)
!519 = !DISubprogram(name: "append", linkageName: "_ZNSt7__cxx1112basic_stringIcSt11char_traitsIcESaIcEE6appendERKS4_mm", scope: !14, file: !13, line: 1230, type: !520, scopeLine: 1230, flags: DIFlagPublic | DIFlagPrototyped, spFlags: 0)
!520 = !DISubroutineType(types: !521)
!521 = !{!436, !294, !393, !20, !20}
!522 = !DISubprogram(name: "append", linkageName: "_ZNSt7__cxx1112basic_stringIcSt11char_traitsIcESaIcEE6appendEPKcm", scope: !14, file: !13, line: 1242, type: !523, scopeLine: 1242, flags: DIFlagPublic | DIFlagPrototyped, spFlags: 0)
!523 = !DISubroutineType(types: !524)
!524 = !{!436, !294, !106, !20}
!525 = !DISubprogram(name: "append", linkageName: "_ZNSt7__cxx1112basic_stringIcSt11char_traitsIcESaIcEE6appendEPKc", scope: !14, file: !13, line: 1255, type: !438, scopeLine: 1255, flags: DIFlagPublic | DIFlagPrototyped, spFlags: 0)
!526 = !DISubprogram(name: "append", linkageName: "_ZNSt7__cxx1112basic_stringIcSt11char_traitsIcESaIcEE6appendEmc", scope: !14, file: !13, line: 1272, type: !527, scopeLine: 1272, flags: DIFlagPublic | DIFlagPrototyped, spFlags: 0)
!527 = !DISubroutineType(types: !528)
!528 = !{!436, !294, !20, !35}
!529 = !DISubprogram(name: "append", linkageName: "_ZNSt7__cxx1112basic_stringIcSt11char_traitsIcESaIcEE6appendESt16initializer_listIcE", scope: !14, file: !13, line: 1282, type: !447, scopeLine: 1282, flags: DIFlagPublic | DIFlagPrototyped, spFlags: 0)
!530 = !DISubprogram(name: "push_back", linkageName: "_ZNSt7__cxx1112basic_stringIcSt11char_traitsIcESaIcEE9push_backEc", scope: !14, file: !13, line: 1341, type: !531, scopeLine: 1341, flags: DIFlagPublic | DIFlagPrototyped, spFlags: 0)
!531 = !DISubroutineType(types: !532)
!532 = !{null, !294, !35}
!533 = !DISubprogram(name: "assign", linkageName: "_ZNSt7__cxx1112basic_stringIcSt11char_traitsIcESaIcEE6assignERKS4_", scope: !14, file: !13, line: 1356, type: !434, scopeLine: 1356, flags: DIFlagPublic | DIFlagPrototyped, spFlags: 0)
!534 = !DISubprogram(name: "assign", linkageName: "_ZNSt7__cxx1112basic_stringIcSt11char_traitsIcESaIcEE6assignEOS4_", scope: !14, file: !13, line: 1401, type: !444, scopeLine: 1401, flags: DIFlagPublic | DIFlagPrototyped, spFlags: 0)
!535 = !DISubprogram(name: "assign", linkageName: "_ZNSt7__cxx1112basic_stringIcSt11char_traitsIcESaIcEE6assignERKS4_mm", scope: !14, file: !13, line: 1424, type: !520, scopeLine: 1424, flags: DIFlagPublic | DIFlagPrototyped, spFlags: 0)
!536 = !DISubprogram(name: "assign", linkageName: "_ZNSt7__cxx1112basic_stringIcSt11char_traitsIcESaIcEE6assignEPKcm", scope: !14, file: !13, line: 1440, type: !523, scopeLine: 1440, flags: DIFlagPublic | DIFlagPrototyped, spFlags: 0)
!537 = !DISubprogram(name: "assign", linkageName: "_ZNSt7__cxx1112basic_stringIcSt11char_traitsIcESaIcEE6assignEPKc", scope: !14, file: !13, line: 1456, type: !438, scopeLine: 1456, flags: DIFlagPublic | DIFlagPrototyped, spFlags: 0)
!538 = !DISubprogram(name: "assign", linkageName: "_ZNSt7__cxx1112basic_stringIcSt11char_traitsIcESaIcEE6assignEmc", scope: !14, file: !13, line: 1473, type: !527, scopeLine: 1473, flags: DIFlagPublic | DIFlagPrototyped, spFlags: 0)
!539 = !DISubprogram(name: "assign", linkageName: "_ZNSt7__cxx1112basic_stringIcSt11char_traitsIcESaIcEE6assignESt16initializer_listIcE", scope: !14, file: !13, line: 1501, type: !447, scopeLine: 1501, flags: DIFlagPublic | DIFlagPrototyped, spFlags: 0)
!540 = !DISubprogram(name: "insert", linkageName: "_ZNSt7__cxx1112basic_stringIcSt11char_traitsIcESaIcEE6insertEN9__gnu_cxx17__normal_iteratorIPKcS4_EEmc", scope: !14, file: !13, line: 1555, type: !541, scopeLine: 1555, flags: DIFlagPublic | DIFlagPrototyped, spFlags: 0)
!541 = !DISubroutineType(types: !542)
!542 = !{!374, !294, !379, !20, !35}
!543 = !DISubprogram(name: "insert", linkageName: "_ZNSt7__cxx1112basic_stringIcSt11char_traitsIcESaIcEE6insertEN9__gnu_cxx17__normal_iteratorIPKcS4_EESt16initializer_listIcE", scope: !14, file: !13, line: 1633, type: !544, scopeLine: 1633, flags: DIFlagPublic | DIFlagPrototyped, spFlags: 0)
!544 = !DISubroutineType(types: !545)
!545 = !{!374, !294, !379, !424}
!546 = !DISubprogram(name: "insert", linkageName: "_ZNSt7__cxx1112basic_stringIcSt11char_traitsIcESaIcEE6insertEmRKS4_", scope: !14, file: !13, line: 1660, type: !547, scopeLine: 1660, flags: DIFlagPublic | DIFlagPrototyped, spFlags: 0)
!547 = !DISubroutineType(types: !548)
!548 = !{!436, !294, !20, !393}
!549 = !DISubprogram(name: "insert", linkageName: "_ZNSt7__cxx1112basic_stringIcSt11char_traitsIcESaIcEE6insertEmRKS4_mm", scope: !14, file: !13, line: 1683, type: !550, scopeLine: 1683, flags: DIFlagPublic | DIFlagPrototyped, spFlags: 0)
!550 = !DISubroutineType(types: !551)
!551 = !{!436, !294, !20, !393, !20, !20}
!552 = !DISubprogram(name: "insert", linkageName: "_ZNSt7__cxx1112basic_stringIcSt11char_traitsIcESaIcEE6insertEmPKcm", scope: !14, file: !13, line: 1706, type: !553, scopeLine: 1706, flags: DIFlagPublic | DIFlagPrototyped, spFlags: 0)
!553 = !DISubroutineType(types: !554)
!554 = !{!436, !294, !20, !106, !20}
!555 = !DISubprogram(name: "insert", linkageName: "_ZNSt7__cxx1112basic_stringIcSt11char_traitsIcESaIcEE6insertEmPKc", scope: !14, file: !13, line: 1725, type: !556, scopeLine: 1725, flags: DIFlagPublic | DIFlagPrototyped, spFlags: 0)
!556 = !DISubroutineType(types: !557)
!557 = !{!436, !294, !20, !106}
!558 = !DISubprogram(name: "insert", linkageName: "_ZNSt7__cxx1112basic_stringIcSt11char_traitsIcESaIcEE6insertEmmc", scope: !14, file: !13, line: 1749, type: !559, scopeLine: 1749, flags: DIFlagPublic | DIFlagPrototyped, spFlags: 0)
!559 = !DISubroutineType(types: !560)
!560 = !{!436, !294, !20, !20, !35}
!561 = !DISubprogram(name: "insert", linkageName: "_ZNSt7__cxx1112basic_stringIcSt11char_traitsIcESaIcEE6insertEN9__gnu_cxx17__normal_iteratorIPKcS4_EEc", scope: !14, file: !13, line: 1767, type: !562, scopeLine: 1767, flags: DIFlagPublic | DIFlagPrototyped, spFlags: 0)
!562 = !DISubroutineType(types: !563)
!563 = !{!374, !294, !564, !35}
!564 = !DIDerivedType(tag: DW_TAG_typedef, name: "__const_iterator", scope: !14, file: !13, line: 116, baseType: !379, flags: DIFlagProtected)
!565 = !DISubprogram(name: "erase", linkageName: "_ZNSt7__cxx1112basic_stringIcSt11char_traitsIcESaIcEE5eraseEmm", scope: !14, file: !13, line: 1827, type: !566, scopeLine: 1827, flags: DIFlagPublic | DIFlagPrototyped, spFlags: 0)
!566 = !DISubroutineType(types: !567)
!567 = !{!436, !294, !20, !20}
!568 = !DISubprogram(name: "erase", linkageName: "_ZNSt7__cxx1112basic_stringIcSt11char_traitsIcESaIcEE5eraseEN9__gnu_cxx17__normal_iteratorIPKcS4_EE", scope: !14, file: !13, line: 1846, type: !569, scopeLine: 1846, flags: DIFlagPublic | DIFlagPrototyped, spFlags: 0)
!569 = !DISubroutineType(types: !570)
!570 = !{!374, !294, !564}
!571 = !DISubprogram(name: "erase", linkageName: "_ZNSt7__cxx1112basic_stringIcSt11char_traitsIcESaIcEE5eraseEN9__gnu_cxx17__normal_iteratorIPKcS4_EES9_", scope: !14, file: !13, line: 1865, type: !572, scopeLine: 1865, flags: DIFlagPublic | DIFlagPrototyped, spFlags: 0)
!572 = !DISubroutineType(types: !573)
!573 = !{!374, !294, !564, !564}
!574 = !DISubprogram(name: "pop_back", linkageName: "_ZNSt7__cxx1112basic_stringIcSt11char_traitsIcESaIcEE8pop_backEv", scope: !14, file: !13, line: 1884, type: !328, scopeLine: 1884, flags: DIFlagPublic | DIFlagPrototyped, spFlags: 0)
!575 = !DISubprogram(name: "replace", linkageName: "_ZNSt7__cxx1112basic_stringIcSt11char_traitsIcESaIcEE7replaceEmmRKS4_", scope: !14, file: !13, line: 1909, type: !576, scopeLine: 1909, flags: DIFlagPublic | DIFlagPrototyped, spFlags: 0)
!576 = !DISubroutineType(types: !577)
!577 = !{!436, !294, !20, !20, !393}
!578 = !DISubprogram(name: "replace", linkageName: "_ZNSt7__cxx1112basic_stringIcSt11char_traitsIcESaIcEE7replaceEmmRKS4_mm", scope: !14, file: !13, line: 1931, type: !579, scopeLine: 1931, flags: DIFlagPublic | DIFlagPrototyped, spFlags: 0)
!579 = !DISubroutineType(types: !580)
!580 = !{!436, !294, !20, !20, !393, !20, !20}
!581 = !DISubprogram(name: "replace", linkageName: "_ZNSt7__cxx1112basic_stringIcSt11char_traitsIcESaIcEE7replaceEmmPKcm", scope: !14, file: !13, line: 1956, type: !582, scopeLine: 1956, flags: DIFlagPublic | DIFlagPrototyped, spFlags: 0)
!582 = !DISubroutineType(types: !583)
!583 = !{!436, !294, !20, !20, !106, !20}
!584 = !DISubprogram(name: "replace", linkageName: "_ZNSt7__cxx1112basic_stringIcSt11char_traitsIcESaIcEE7replaceEmmPKc", scope: !14, file: !13, line: 1981, type: !585, scopeLine: 1981, flags: DIFlagPublic | DIFlagPrototyped, spFlags: 0)
!585 = !DISubroutineType(types: !586)
!586 = !{!436, !294, !20, !20, !106}
!587 = !DISubprogram(name: "replace", linkageName: "_ZNSt7__cxx1112basic_stringIcSt11char_traitsIcESaIcEE7replaceEmmmc", scope: !14, file: !13, line: 2005, type: !588, scopeLine: 2005, flags: DIFlagPublic | DIFlagPrototyped, spFlags: 0)
!588 = !DISubroutineType(types: !589)
!589 = !{!436, !294, !20, !20, !20, !35}
!590 = !DISubprogram(name: "replace", linkageName: "_ZNSt7__cxx1112basic_stringIcSt11char_traitsIcESaIcEE7replaceEN9__gnu_cxx17__normal_iteratorIPKcS4_EES9_RKS4_", scope: !14, file: !13, line: 2023, type: !591, scopeLine: 2023, flags: DIFlagPublic | DIFlagPrototyped, spFlags: 0)
!591 = !DISubroutineType(types: !592)
!592 = !{!436, !294, !564, !564, !393}
!593 = !DISubprogram(name: "replace", linkageName: "_ZNSt7__cxx1112basic_stringIcSt11char_traitsIcESaIcEE7replaceEN9__gnu_cxx17__normal_iteratorIPKcS4_EES9_S8_m", scope: !14, file: !13, line: 2043, type: !594, scopeLine: 2043, flags: DIFlagPublic | DIFlagPrototyped, spFlags: 0)
!594 = !DISubroutineType(types: !595)
!595 = !{!436, !294, !564, !564, !106, !20}
!596 = !DISubprogram(name: "replace", linkageName: "_ZNSt7__cxx1112basic_stringIcSt11char_traitsIcESaIcEE7replaceEN9__gnu_cxx17__normal_iteratorIPKcS4_EES9_S8_", scope: !14, file: !13, line: 2065, type: !597, scopeLine: 2065, flags: DIFlagPublic | DIFlagPrototyped, spFlags: 0)
!597 = !DISubroutineType(types: !598)
!598 = !{!436, !294, !564, !564, !106}
!599 = !DISubprogram(name: "replace", linkageName: "_ZNSt7__cxx1112basic_stringIcSt11char_traitsIcESaIcEE7replaceEN9__gnu_cxx17__normal_iteratorIPKcS4_EES9_mc", scope: !14, file: !13, line: 2086, type: !600, scopeLine: 2086, flags: DIFlagPublic | DIFlagPrototyped, spFlags: 0)
!600 = !DISubroutineType(types: !601)
!601 = !{!436, !294, !564, !564, !20, !35}
!602 = !DISubprogram(name: "replace", linkageName: "_ZNSt7__cxx1112basic_stringIcSt11char_traitsIcESaIcEE7replaceEN9__gnu_cxx17__normal_iteratorIPKcS4_EES9_PcSA_", scope: !14, file: !13, line: 2143, type: !603, scopeLine: 2143, flags: DIFlagPublic | DIFlagPrototyped, spFlags: 0)
!603 = !DISubroutineType(types: !604)
!604 = !{!436, !294, !564, !564, !34, !34}
!605 = !DISubprogram(name: "replace", linkageName: "_ZNSt7__cxx1112basic_stringIcSt11char_traitsIcESaIcEE7replaceEN9__gnu_cxx17__normal_iteratorIPKcS4_EES9_S8_S8_", scope: !14, file: !13, line: 2154, type: !606, scopeLine: 2154, flags: DIFlagPublic | DIFlagPrototyped, spFlags: 0)
!606 = !DISubroutineType(types: !607)
!607 = !{!436, !294, !564, !564, !106, !106}
!608 = !DISubprogram(name: "replace", linkageName: "_ZNSt7__cxx1112basic_stringIcSt11char_traitsIcESaIcEE7replaceEN9__gnu_cxx17__normal_iteratorIPKcS4_EES9_NS6_IPcS4_EESB_", scope: !14, file: !13, line: 2165, type: !609, scopeLine: 2165, flags: DIFlagPublic | DIFlagPrototyped, spFlags: 0)
!609 = !DISubroutineType(types: !610)
!610 = !{!436, !294, !564, !564, !374, !374}
!611 = !DISubprogram(name: "replace", linkageName: "_ZNSt7__cxx1112basic_stringIcSt11char_traitsIcESaIcEE7replaceEN9__gnu_cxx17__normal_iteratorIPKcS4_EES9_S9_S9_", scope: !14, file: !13, line: 2176, type: !612, scopeLine: 2176, flags: DIFlagPublic | DIFlagPrototyped, spFlags: 0)
!612 = !DISubroutineType(types: !613)
!613 = !{!436, !294, !564, !564, !379, !379}
!614 = !DISubprogram(name: "replace", linkageName: "_ZNSt7__cxx1112basic_stringIcSt11char_traitsIcESaIcEE7replaceEN9__gnu_cxx17__normal_iteratorIPKcS4_EES9_St16initializer_listIcE", scope: !14, file: !13, line: 2201, type: !615, scopeLine: 2201, flags: DIFlagPublic | DIFlagPrototyped, spFlags: 0)
!615 = !DISubroutineType(types: !616)
!616 = !{!436, !294, !379, !379, !424}
!617 = !DISubprogram(name: "_M_replace_aux", linkageName: "_ZNSt7__cxx1112basic_stringIcSt11char_traitsIcESaIcEE14_M_replace_auxEmmmc", scope: !14, file: !13, line: 2275, type: !588, scopeLine: 2275, flags: DIFlagPrototyped, spFlags: 0)
!618 = !DISubprogram(name: "_M_replace", linkageName: "_ZNSt7__cxx1112basic_stringIcSt11char_traitsIcESaIcEE10_M_replaceEmmPKcm", scope: !14, file: !13, line: 2279, type: !619, scopeLine: 2279, flags: DIFlagPrototyped, spFlags: 0)
!619 = !DISubroutineType(types: !620)
!620 = !{!436, !294, !20, !20, !106, !19}
!621 = !DISubprogram(name: "_M_append", linkageName: "_ZNSt7__cxx1112basic_stringIcSt11char_traitsIcESaIcEE9_M_appendEPKcm", scope: !14, file: !13, line: 2283, type: !523, scopeLine: 2283, flags: DIFlagPrototyped, spFlags: 0)
!622 = !DISubprogram(name: "copy", linkageName: "_ZNKSt7__cxx1112basic_stringIcSt11char_traitsIcESaIcEE4copyEPcmm", scope: !14, file: !13, line: 2300, type: !623, scopeLine: 2300, flags: DIFlagPublic | DIFlagPrototyped, spFlags: 0)
!623 = !DISubroutineType(types: !624)
!624 = !{!20, !307, !34, !20, !20}
!625 = !DISubprogram(name: "swap", linkageName: "_ZNSt7__cxx1112basic_stringIcSt11char_traitsIcESaIcEE4swapERS4_", scope: !14, file: !13, line: 2310, type: !626, scopeLine: 2310, flags: DIFlagPublic | DIFlagPrototyped, spFlags: 0)
!626 = !DISubroutineType(types: !627)
!627 = !{null, !294, !436}
!628 = !DISubprogram(name: "c_str", linkageName: "_ZNKSt7__cxx1112basic_stringIcSt11char_traitsIcESaIcEE5c_strEv", scope: !14, file: !13, line: 2320, type: !629, scopeLine: 2320, flags: DIFlagPublic | DIFlagPrototyped, spFlags: 0)
!629 = !DISubroutineType(types: !630)
!630 = !{!106, !307}
!631 = !DISubprogram(name: "data", linkageName: "_ZNKSt7__cxx1112basic_stringIcSt11char_traitsIcESaIcEE4dataEv", scope: !14, file: !13, line: 2332, type: !629, scopeLine: 2332, flags: DIFlagPublic | DIFlagPrototyped, spFlags: 0)
!632 = !DISubprogram(name: "data", linkageName: "_ZNSt7__cxx1112basic_stringIcSt11char_traitsIcESaIcEE4dataEv", scope: !14, file: !13, line: 2343, type: !633, scopeLine: 2343, flags: DIFlagPublic | DIFlagPrototyped, spFlags: 0)
!633 = !DISubroutineType(types: !634)
!634 = !{!34, !294}
!635 = !DISubprogram(name: "get_allocator", linkageName: "_ZNKSt7__cxx1112basic_stringIcSt11char_traitsIcESaIcEE13get_allocatorEv", scope: !14, file: !13, line: 2351, type: !636, scopeLine: 2351, flags: DIFlagPublic | DIFlagPrototyped, spFlags: 0)
!636 = !DISubroutineType(types: !637)
!637 = !{!339, !307}
!638 = !DISubprogram(name: "find", linkageName: "_ZNKSt7__cxx1112basic_stringIcSt11char_traitsIcESaIcEE4findEPKcmm", scope: !14, file: !13, line: 2367, type: !639, scopeLine: 2367, flags: DIFlagPublic | DIFlagPrototyped, spFlags: 0)
!639 = !DISubroutineType(types: !640)
!640 = !{!20, !307, !106, !20, !20}
!641 = !DISubprogram(name: "find", linkageName: "_ZNKSt7__cxx1112basic_stringIcSt11char_traitsIcESaIcEE4findERKS4_m", scope: !14, file: !13, line: 2381, type: !642, scopeLine: 2381, flags: DIFlagPublic | DIFlagPrototyped, spFlags: 0)
!642 = !DISubroutineType(types: !643)
!643 = !{!20, !307, !393, !20}
!644 = !DISubprogram(name: "find", linkageName: "_ZNKSt7__cxx1112basic_stringIcSt11char_traitsIcESaIcEE4findEPKcm", scope: !14, file: !13, line: 2413, type: !645, scopeLine: 2413, flags: DIFlagPublic | DIFlagPrototyped, spFlags: 0)
!645 = !DISubroutineType(types: !646)
!646 = !{!20, !307, !106, !20}
!647 = !DISubprogram(name: "find", linkageName: "_ZNKSt7__cxx1112basic_stringIcSt11char_traitsIcESaIcEE4findEcm", scope: !14, file: !13, line: 2430, type: !648, scopeLine: 2430, flags: DIFlagPublic | DIFlagPrototyped, spFlags: 0)
!648 = !DISubroutineType(types: !649)
!649 = !{!20, !307, !35, !20}
!650 = !DISubprogram(name: "rfind", linkageName: "_ZNKSt7__cxx1112basic_stringIcSt11char_traitsIcESaIcEE5rfindERKS4_m", scope: !14, file: !13, line: 2443, type: !642, scopeLine: 2443, flags: DIFlagPublic | DIFlagPrototyped, spFlags: 0)
!651 = !DISubprogram(name: "rfind", linkageName: "_ZNKSt7__cxx1112basic_stringIcSt11char_traitsIcESaIcEE5rfindEPKcmm", scope: !14, file: !13, line: 2477, type: !639, scopeLine: 2477, flags: DIFlagPublic | DIFlagPrototyped, spFlags: 0)
!652 = !DISubprogram(name: "rfind", linkageName: "_ZNKSt7__cxx1112basic_stringIcSt11char_traitsIcESaIcEE5rfindEPKcm", scope: !14, file: !13, line: 2491, type: !645, scopeLine: 2491, flags: DIFlagPublic | DIFlagPrototyped, spFlags: 0)
!653 = !DISubprogram(name: "rfind", linkageName: "_ZNKSt7__cxx1112basic_stringIcSt11char_traitsIcESaIcEE5rfindEcm", scope: !14, file: !13, line: 2508, type: !648, scopeLine: 2508, flags: DIFlagPublic | DIFlagPrototyped, spFlags: 0)
!654 = !DISubprogram(name: "find_first_of", linkageName: "_ZNKSt7__cxx1112basic_stringIcSt11char_traitsIcESaIcEE13find_first_ofERKS4_m", scope: !14, file: !13, line: 2522, type: !642, scopeLine: 2522, flags: DIFlagPublic | DIFlagPrototyped, spFlags: 0)
!655 = !DISubprogram(name: "find_first_of", linkageName: "_ZNKSt7__cxx1112basic_stringIcSt11char_traitsIcESaIcEE13find_first_ofEPKcmm", scope: !14, file: !13, line: 2557, type: !639, scopeLine: 2557, flags: DIFlagPublic | DIFlagPrototyped, spFlags: 0)
!656 = !DISubprogram(name: "find_first_of", linkageName: "_ZNKSt7__cxx1112basic_stringIcSt11char_traitsIcESaIcEE13find_first_ofEPKcm", scope: !14, file: !13, line: 2571, type: !645, scopeLine: 2571, flags: DIFlagPublic | DIFlagPrototyped, spFlags: 0)
!657 = !DISubprogram(name: "find_first_of", linkageName: "_ZNKSt7__cxx1112basic_stringIcSt11char_traitsIcESaIcEE13find_first_ofEcm", scope: !14, file: !13, line: 2591, type: !648, scopeLine: 2591, flags: DIFlagPublic | DIFlagPrototyped, spFlags: 0)
!658 = !DISubprogram(name: "find_last_of", linkageName: "_ZNKSt7__cxx1112basic_stringIcSt11char_traitsIcESaIcEE12find_last_ofERKS4_m", scope: !14, file: !13, line: 2606, type: !642, scopeLine: 2606, flags: DIFlagPublic | DIFlagPrototyped, spFlags: 0)
!659 = !DISubprogram(name: "find_last_of", linkageName: "_ZNKSt7__cxx1112basic_stringIcSt11char_traitsIcESaIcEE12find_last_ofEPKcmm", scope: !14, file: !13, line: 2641, type: !639, scopeLine: 2641, flags: DIFlagPublic | DIFlagPrototyped, spFlags: 0)
!660 = !DISubprogram(name: "find_last_of", linkageName: "_ZNKSt7__cxx1112basic_stringIcSt11char_traitsIcESaIcEE12find_last_ofEPKcm", scope: !14, file: !13, line: 2655, type: !645, scopeLine: 2655, flags: DIFlagPublic | DIFlagPrototyped, spFlags: 0)
!661 = !DISubprogram(name: "find_last_of", linkageName: "_ZNKSt7__cxx1112basic_stringIcSt11char_traitsIcESaIcEE12find_last_ofEcm", scope: !14, file: !13, line: 2675, type: !648, scopeLine: 2675, flags: DIFlagPublic | DIFlagPrototyped, spFlags: 0)
!662 = !DISubprogram(name: "find_first_not_of", linkageName: "_ZNKSt7__cxx1112basic_stringIcSt11char_traitsIcESaIcEE17find_first_not_ofERKS4_m", scope: !14, file: !13, line: 2689, type: !642, scopeLine: 2689, flags: DIFlagPublic | DIFlagPrototyped, spFlags: 0)
!663 = !DISubprogram(name: "find_first_not_of", linkageName: "_ZNKSt7__cxx1112basic_stringIcSt11char_traitsIcESaIcEE17find_first_not_ofEPKcmm", scope: !14, file: !13, line: 2724, type: !639, scopeLine: 2724, flags: DIFlagPublic | DIFlagPrototyped, spFlags: 0)
!664 = !DISubprogram(name: "find_first_not_of", linkageName: "_ZNKSt7__cxx1112basic_stringIcSt11char_traitsIcESaIcEE17find_first_not_ofEPKcm", scope: !14, file: !13, line: 2738, type: !645, scopeLine: 2738, flags: DIFlagPublic | DIFlagPrototyped, spFlags: 0)
!665 = !DISubprogram(name: "find_first_not_of", linkageName: "_ZNKSt7__cxx1112basic_stringIcSt11char_traitsIcESaIcEE17find_first_not_ofEcm", scope: !14, file: !13, line: 2756, type: !648, scopeLine: 2756, flags: DIFlagPublic | DIFlagPrototyped, spFlags: 0)
!666 = !DISubprogram(name: "find_last_not_of", linkageName: "_ZNKSt7__cxx1112basic_stringIcSt11char_traitsIcESaIcEE16find_last_not_ofERKS4_m", scope: !14, file: !13, line: 2771, type: !642, scopeLine: 2771, flags: DIFlagPublic | DIFlagPrototyped, spFlags: 0)
!667 = !DISubprogram(name: "find_last_not_of", linkageName: "_ZNKSt7__cxx1112basic_stringIcSt11char_traitsIcESaIcEE16find_last_not_ofEPKcmm", scope: !14, file: !13, line: 2806, type: !639, scopeLine: 2806, flags: DIFlagPublic | DIFlagPrototyped, spFlags: 0)
!668 = !DISubprogram(name: "find_last_not_of", linkageName: "_ZNKSt7__cxx1112basic_stringIcSt11char_traitsIcESaIcEE16find_last_not_ofEPKcm", scope: !14, file: !13, line: 2820, type: !645, scopeLine: 2820, flags: DIFlagPublic | DIFlagPrototyped, spFlags: 0)
!669 = !DISubprogram(name: "find_last_not_of", linkageName: "_ZNKSt7__cxx1112basic_stringIcSt11char_traitsIcESaIcEE16find_last_not_ofEcm", scope: !14, file: !13, line: 2838, type: !648, scopeLine: 2838, flags: DIFlagPublic | DIFlagPrototyped, spFlags: 0)
!670 = !DISubprogram(name: "substr", linkageName: "_ZNKSt7__cxx1112basic_stringIcSt11char_traitsIcESaIcEE6substrEmm", scope: !14, file: !13, line: 2854, type: !671, scopeLine: 2854, flags: DIFlagPublic | DIFlagPrototyped, spFlags: 0)
!671 = !DISubroutineType(types: !672)
!672 = !{!14, !307, !20, !20}
!673 = !DISubprogram(name: "compare", linkageName: "_ZNKSt7__cxx1112basic_stringIcSt11char_traitsIcESaIcEE7compareERKS4_", scope: !14, file: !13, line: 2873, type: !674, scopeLine: 2873, flags: DIFlagPublic | DIFlagPrototyped, spFlags: 0)
!674 = !DISubroutineType(types: !675)
!675 = !{!186, !307, !393}
!676 = !DISubprogram(name: "compare", linkageName: "_ZNKSt7__cxx1112basic_stringIcSt11char_traitsIcESaIcEE7compareEmmRKS4_", scope: !14, file: !13, line: 2966, type: !677, scopeLine: 2966, flags: DIFlagPublic | DIFlagPrototyped, spFlags: 0)
!677 = !DISubroutineType(types: !678)
!678 = !{!186, !307, !20, !20, !393}
!679 = !DISubprogram(name: "compare", linkageName: "_ZNKSt7__cxx1112basic_stringIcSt11char_traitsIcESaIcEE7compareEmmRKS4_mm", scope: !14, file: !13, line: 2992, type: !680, scopeLine: 2992, flags: DIFlagPublic | DIFlagPrototyped, spFlags: 0)
!680 = !DISubroutineType(types: !681)
!681 = !{!186, !307, !20, !20, !393, !20, !20}
!682 = !DISubprogram(name: "compare", linkageName: "_ZNKSt7__cxx1112basic_stringIcSt11char_traitsIcESaIcEE7compareEPKc", scope: !14, file: !13, line: 3010, type: !683, scopeLine: 3010, flags: DIFlagPublic | DIFlagPrototyped, spFlags: 0)
!683 = !DISubroutineType(types: !684)
!684 = !{!186, !307, !106}
!685 = !DISubprogram(name: "compare", linkageName: "_ZNKSt7__cxx1112basic_stringIcSt11char_traitsIcESaIcEE7compareEmmPKc", scope: !14, file: !13, line: 3034, type: !686, scopeLine: 3034, flags: DIFlagPublic | DIFlagPrototyped, spFlags: 0)
!686 = !DISubroutineType(types: !687)
!687 = !{!186, !307, !20, !20, !106}
!688 = !DISubprogram(name: "compare", linkageName: "_ZNKSt7__cxx1112basic_stringIcSt11char_traitsIcESaIcEE7compareEmmPKcm", scope: !14, file: !13, line: 3061, type: !689, scopeLine: 3061, flags: DIFlagPublic | DIFlagPrototyped, spFlags: 0)
!689 = !DISubroutineType(types: !690)
!690 = !{!186, !307, !20, !20, !106, !20}
!691 = !{!238, !239, !692}
!692 = !DITemplateTypeParameter(name: "_Alloc", type: !38, defaulted: true)
!693 = !DIBasicType(name: "unsigned int", size: 32, encoding: DW_ATE_unsigned)
!694 = !{!695}
!695 = !DIEnumerator(name: "_S_local_capacity", value: 15, isUnsigned: true)
!696 = !{!697, !106, !20, !699, !98, !14}
!697 = !DIDerivedType(tag: DW_TAG_typedef, name: "string", scope: !2, file: !698, line: 79, baseType: !14)
!698 = !DIFile(filename: "/usr/lib/gcc/x86_64-linux-gnu/11/../../../../include/c++/11/bits/stringfwd.h", directory: "")
!699 = distinct !DICompositeType(tag: DW_TAG_structure_type, name: "sse_f", file: !700, line: 20, size: 128, flags: DIFlagTypePassByValue | DIFlagNonTrivial, elements: !701, identifier: "_ZTS5sse_f")
!700 = !DIFile(filename: "RTTL/common/RTEmulatedSSE.hxx", directory: "/home/raj/SVF_PAPER_BENCHMARKS/parsec-3.0/pkgs/apps/raytrace/src", checksumkind: CSK_MD5, checksum: "899b754f585bbc37282aa5883c939129")
!701 = !{!702, !707}
!702 = !DIDerivedType(tag: DW_TAG_member, name: "f", scope: !699, file: !700, line: 23, baseType: !703, size: 128)
!703 = !DICompositeType(tag: DW_TAG_array_type, baseType: !704, size: 128, elements: !705)
!704 = !DIBasicType(name: "float", size: 32, encoding: DW_ATE_float)
!705 = !{!706}
!706 = !DISubrange(count: 4)
!707 = !DISubprogram(name: "sse_f", scope: !699, file: !700, line: 21, type: !708, scopeLine: 21, flags: DIFlagPrototyped, spFlags: 0)
!708 = !DISubroutineType(types: !709)
!709 = !{null, !710}
!710 = !DIDerivedType(tag: DW_TAG_pointer_type, baseType: !699, size: 64, flags: DIFlagArtificial | DIFlagObjectPointer)
!711 = !{!0, !7, !712, !718, !786, !791, !796, !801, !806, !811, !816, !818, !823, !828, !830, !832, !837, !842}
!712 = !DIGlobalVariableExpression(var: !713, expr: !DIExpression())
!713 = distinct !DIGlobalVariable(scope: null, file: !714, line: 19, type: !715, isLocal: true, isDefinition: true)
!714 = !DIFile(filename: "RTTL/BVH/Builder/Builder.cxx", directory: "/home/raj/SVF_PAPER_BENCHMARKS/parsec-3.0/pkgs/apps/raytrace/src", checksumkind: CSK_MD5, checksum: "2bd310ee2f533abc9143f1eb3b1e9579")
!715 = !DICompositeType(tag: DW_TAG_array_type, baseType: !107, size: 184, elements: !716)
!716 = !{!717}
!717 = !DISubrange(count: 23)
!718 = !DIGlobalVariableExpression(var: !719, expr: !DIExpression())
!719 = distinct !DIGlobalVariable(name: "defaultBuilder", linkageName: "_ZN4RTTL10BVHBuilder7Options14defaultBuilderE", scope: !720, file: !714, line: 19, type: !106, isLocal: false, isDefinition: true, declaration: !721)
!720 = !DINamespace(name: "RTTL", scope: null)
!721 = !DIDerivedType(tag: DW_TAG_member, name: "defaultBuilder", scope: !723, file: !722, line: 28, baseType: !106, flags: DIFlagStaticMember)
!722 = !DIFile(filename: "RTTL/BVH/Builder/Builder.hxx", directory: "/home/raj/SVF_PAPER_BENCHMARKS/parsec-3.0/pkgs/apps/raytrace/src", checksumkind: CSK_MD5, checksum: "fe7860fec0b0fa60176fcfef0a53cc02")
!723 = distinct !DICompositeType(tag: DW_TAG_structure_type, name: "Options", scope: !724, file: !722, line: 25, size: 8, flags: DIFlagPublic | DIFlagTypePassByValue, elements: !785, identifier: "_ZTSN4RTTL10BVHBuilder7OptionsE")
!724 = distinct !DICompositeType(tag: DW_TAG_class_type, name: "BVHBuilder", scope: !720, file: !722, line: 19, size: 128, flags: DIFlagTypePassByReference | DIFlagNonTrivial, elements: !725, vtableHolder: !724, identifier: "_ZTSN4RTTL10BVHBuilderE")
!725 = !{!726, !731, !735, !739, !781}
!726 = !DIDerivedType(tag: DW_TAG_member, name: "_vptr$BVHBuilder", scope: !722, file: !722, baseType: !727, size: 64, flags: DIFlagArtificial)
!727 = !DIDerivedType(tag: DW_TAG_pointer_type, baseType: !728, size: 64)
!728 = !DIDerivedType(tag: DW_TAG_pointer_type, name: "__vtbl_ptr_type", baseType: !729, size: 64)
!729 = !DISubroutineType(types: !730)
!730 = !{!186}
!731 = !DIDerivedType(tag: DW_TAG_member, name: "bvh", scope: !724, file: !722, line: 23, baseType: !732, size: 64, offset: 64, flags: DIFlagPublic)
!732 = !DIDerivedType(tag: DW_TAG_pointer_type, baseType: !733, size: 64)
!733 = !DICompositeType(tag: DW_TAG_structure_type, name: "BVH", scope: !720, file: !734, line: 44, size: 320, flags: DIFlagFwdDecl | DIFlagNonTrivial)
!734 = !DIFile(filename: "RTTL/BVH/BVH.hxx", directory: "/home/raj/SVF_PAPER_BENCHMARKS/parsec-3.0/pkgs/apps/raytrace/src", checksumkind: CSK_MD5, checksum: "c3a2af3458e408a897501c5d46fd95a1")
!735 = !DISubprogram(name: "BVHBuilder", scope: !724, file: !722, line: 31, type: !736, scopeLine: 31, flags: DIFlagPublic | DIFlagPrototyped, spFlags: 0)
!736 = !DISubroutineType(types: !737)
!737 = !{null, !738, !732}
!738 = !DIDerivedType(tag: DW_TAG_pointer_type, baseType: !724, size: 64, flags: DIFlagArtificial | DIFlagObjectPointer)
!739 = !DISubprogram(name: "build", linkageName: "_ZN4RTTL10BVHBuilder5buildERKNS_7RTBox3aES3_", scope: !724, file: !722, line: 36, type: !740, scopeLine: 36, containingType: !724, virtualIndex: 0, flags: DIFlagPublic | DIFlagPrototyped, spFlags: DISPFlagPureVirtual)
!740 = !DISubroutineType(types: !741)
!741 = !{null, !738, !742, !742}
!742 = !DIDerivedType(tag: DW_TAG_reference_type, baseType: !743, size: 64)
!743 = !DIDerivedType(tag: DW_TAG_const_type, baseType: !744)
!744 = !DIDerivedType(tag: DW_TAG_typedef, name: "RTBoxSSE", file: !745, line: 393, baseType: !746)
!745 = !DIFile(filename: "RTTL/BVH/../common/RTBox.hxx", directory: "/home/raj/SVF_PAPER_BENCHMARKS/parsec-3.0/pkgs/apps/raytrace/src", checksumkind: CSK_MD5, checksum: "a4a4497a4fc18999a587672c7ed0e869")
!746 = distinct !DICompositeType(tag: DW_TAG_class_type, name: "RTBox3a", scope: !720, file: !745, line: 285, size: 256, flags: DIFlagTypePassByReference | DIFlagNonTrivial, elements: !747, identifier: "_ZTSN4RTTL7RTBox3aE")
!747 = !{!748, !750, !756, !757, !760, !761, !768, !769, !774, !778, !779, !780}
!748 = !DIDerivedType(tag: DW_TAG_inheritance, scope: !746, baseType: !749, flags: DIFlagPublic, extraData: i32 0)
!749 = !DICompositeType(tag: DW_TAG_class_type, name: "RTBox_t<1, sse_f, 0>", scope: !720, file: !745, line: 8, size: 256, flags: DIFlagFwdDecl | DIFlagNonTrivial, identifier: "_ZTSN4RTTL7RTBox_tILi1E5sse_fLi0EEE")
!750 = !DISubprogram(name: "center", linkageName: "_ZNK4RTTL7RTBox3a6centerEv", scope: !746, file: !745, line: 287, type: !751, scopeLine: 287, flags: DIFlagPublic | DIFlagPrototyped, spFlags: 0)
!751 = !DISubroutineType(types: !752)
!752 = !{!753, !754}
!753 = !DIDerivedType(tag: DW_TAG_typedef, name: "sse_f", file: !700, line: 24, baseType: !699)
!754 = !DIDerivedType(tag: DW_TAG_pointer_type, baseType: !755, size: 64, flags: DIFlagArtificial | DIFlagObjectPointer)
!755 = !DIDerivedType(tag: DW_TAG_const_type, baseType: !746)
!756 = !DISubprogram(name: "diameter", linkageName: "_ZNK4RTTL7RTBox3a8diameterEv", scope: !746, file: !745, line: 288, type: !751, scopeLine: 288, flags: DIFlagPublic | DIFlagPrototyped, spFlags: 0)
!757 = !DISubprogram(name: "volume", linkageName: "_ZNK4RTTL7RTBox3a6volumeEv", scope: !746, file: !745, line: 292, type: !758, scopeLine: 292, flags: DIFlagPublic | DIFlagPrototyped, spFlags: 0)
!758 = !DISubroutineType(types: !759)
!759 = !{!704, !754}
!760 = !DISubprogram(name: "area", linkageName: "_ZNK4RTTL7RTBox3a4areaEv", scope: !746, file: !745, line: 295, type: !758, scopeLine: 295, flags: DIFlagPublic | DIFlagPrototyped, spFlags: 0)
!761 = !DISubprogram(name: "min3f", linkageName: "_ZNK4RTTL7RTBox3a5min3fEv", scope: !746, file: !745, line: 310, type: !762, scopeLine: 310, flags: DIFlagPublic | DIFlagPrototyped, spFlags: 0)
!762 = !DISubroutineType(types: !763)
!763 = !{!764, !754}
!764 = !DIDerivedType(tag: DW_TAG_reference_type, baseType: !765, size: 64)
!765 = !DIDerivedType(tag: DW_TAG_typedef, name: "RTVec3f", scope: !720, file: !766, line: 269, baseType: !767)
!766 = !DIFile(filename: "RTTL/common/RTVec.hxx", directory: "/home/raj/SVF_PAPER_BENCHMARKS/parsec-3.0/pkgs/apps/raytrace/src", checksumkind: CSK_MD5, checksum: "adfbd7ae4dab54b31af1e64824b8abcb")
!767 = !DICompositeType(tag: DW_TAG_class_type, name: "RTVec_t<3, float, 0>", scope: !720, file: !766, line: 48, size: 96, flags: DIFlagFwdDecl | DIFlagNonTrivial, identifier: "_ZTSN4RTTL7RTVec_tILi3EfLi0EEE")
!768 = !DISubprogram(name: "max3f", linkageName: "_ZNK4RTTL7RTBox3a5max3fEv", scope: !746, file: !745, line: 313, type: !762, scopeLine: 313, flags: DIFlagPublic | DIFlagPrototyped, spFlags: 0)
!769 = !DISubprogram(name: "operator[]", linkageName: "_ZN4RTTL7RTBox3aixEi", scope: !746, file: !745, line: 317, type: !770, scopeLine: 317, flags: DIFlagPublic | DIFlagPrototyped, spFlags: 0)
!770 = !DISubroutineType(types: !771)
!771 = !{!764, !772, !773}
!772 = !DIDerivedType(tag: DW_TAG_pointer_type, baseType: !746, size: 64, flags: DIFlagArtificial | DIFlagObjectPointer)
!773 = !DIDerivedType(tag: DW_TAG_const_type, baseType: !186)
!774 = !DISubprogram(name: "min_f", linkageName: "_ZN4RTTL7RTBox3a5min_fEv", scope: !746, file: !745, line: 322, type: !775, scopeLine: 322, flags: DIFlagPublic | DIFlagPrototyped, spFlags: 0)
!775 = !DISubroutineType(types: !776)
!776 = !{!777, !772}
!777 = !DIDerivedType(tag: DW_TAG_reference_type, baseType: !753, size: 64)
!778 = !DISubprogram(name: "max_f", linkageName: "_ZN4RTTL7RTBox3a5max_fEv", scope: !746, file: !745, line: 323, type: !775, scopeLine: 323, flags: DIFlagPublic | DIFlagPrototyped, spFlags: 0)
!779 = !DISubprogram(name: "min_f", linkageName: "_ZNK4RTTL7RTBox3a5min_fEv", scope: !746, file: !745, line: 324, type: !751, scopeLine: 324, flags: DIFlagPublic | DIFlagPrototyped, spFlags: 0)
!780 = !DISubprogram(name: "max_f", linkageName: "_ZNK4RTTL7RTBox3a5max_fEv", scope: !746, file: !745, line: 325, type: !751, scopeLine: 325, flags: DIFlagPublic | DIFlagPrototyped, spFlags: 0)
!781 = !DISubprogram(name: "get", linkageName: "_ZN4RTTL10BVHBuilder3getEPKcPNS_3BVHE", scope: !724, file: !722, line: 40, type: !782, scopeLine: 40, flags: DIFlagPublic | DIFlagPrototyped | DIFlagStaticMember, spFlags: 0)
!782 = !DISubroutineType(types: !783)
!783 = !{!784, !106, !732}
!784 = !DIDerivedType(tag: DW_TAG_pointer_type, baseType: !724, size: 64)
!785 = !{!721}
!786 = !DIGlobalVariableExpression(var: !787, expr: !DIExpression())
!787 = distinct !DIGlobalVariable(scope: null, file: !714, line: 24, type: !788, isLocal: true, isDefinition: true)
!788 = !DICompositeType(tag: DW_TAG_array_type, baseType: !107, size: 152, elements: !789)
!789 = !{!790}
!790 = !DISubrange(count: 19)
!791 = !DIGlobalVariableExpression(var: !792, expr: !DIExpression())
!792 = distinct !DIGlobalVariable(scope: null, file: !714, line: 26, type: !793, isLocal: true, isDefinition: true)
!793 = !DICompositeType(tag: DW_TAG_array_type, baseType: !107, size: 64, elements: !794)
!794 = !{!795}
!795 = !DISubrange(count: 8)
!796 = !DIGlobalVariableExpression(var: !797, expr: !DIExpression())
!797 = distinct !DIGlobalVariable(scope: null, file: !714, line: 30, type: !798, isLocal: true, isDefinition: true)
!798 = !DICompositeType(tag: DW_TAG_array_type, baseType: !107, size: 48, elements: !799)
!799 = !{!800}
!800 = !DISubrange(count: 6)
!801 = !DIGlobalVariableExpression(var: !802, expr: !DIExpression())
!802 = distinct !DIGlobalVariable(scope: null, file: !714, line: 32, type: !803, isLocal: true, isDefinition: true)
!803 = !DICompositeType(tag: DW_TAG_array_type, baseType: !107, size: 112, elements: !804)
!804 = !{!805}
!805 = !DISubrange(count: 14)
!806 = !DIGlobalVariableExpression(var: !807, expr: !DIExpression())
!807 = distinct !DIGlobalVariable(scope: null, file: !714, line: 36, type: !808, isLocal: true, isDefinition: true)
!808 = !DICompositeType(tag: DW_TAG_array_type, baseType: !107, size: 72, elements: !809)
!809 = !{!810}
!810 = !DISubrange(count: 9)
!811 = !DIGlobalVariableExpression(var: !812, expr: !DIExpression())
!812 = distinct !DIGlobalVariable(scope: null, file: !714, line: 38, type: !813, isLocal: true, isDefinition: true)
!813 = !DICompositeType(tag: DW_TAG_array_type, baseType: !107, size: 56, elements: !814)
!814 = !{!815}
!815 = !DISubrange(count: 7)
!816 = !DIGlobalVariableExpression(var: !817, expr: !DIExpression())
!817 = distinct !DIGlobalVariable(scope: null, file: !714, line: 41, type: !808, isLocal: true, isDefinition: true)
!818 = !DIGlobalVariableExpression(var: !819, expr: !DIExpression())
!819 = distinct !DIGlobalVariable(scope: null, file: !714, line: 41, type: !820, isLocal: true, isDefinition: true)
!820 = !DICompositeType(tag: DW_TAG_array_type, baseType: !107, size: 40, elements: !821)
!821 = !{!822}
!822 = !DISubrange(count: 5)
!823 = !DIGlobalVariableExpression(var: !824, expr: !DIExpression())
!824 = distinct !DIGlobalVariable(scope: null, file: !714, line: 44, type: !825, isLocal: true, isDefinition: true)
!825 = !DICompositeType(tag: DW_TAG_array_type, baseType: !107, size: 208, elements: !826)
!826 = !{!827}
!827 = !DISubrange(count: 26)
!828 = !DIGlobalVariableExpression(var: !829, expr: !DIExpression())
!829 = distinct !DIGlobalVariable(scope: null, file: !714, line: 47, type: !793, isLocal: true, isDefinition: true)
!830 = !DIGlobalVariableExpression(var: !831, expr: !DIExpression())
!831 = distinct !DIGlobalVariable(scope: null, file: !714, line: 47, type: !820, isLocal: true, isDefinition: true)
!832 = !DIGlobalVariableExpression(var: !833, expr: !DIExpression())
!833 = distinct !DIGlobalVariable(scope: null, file: !714, line: 47, type: !834, isLocal: true, isDefinition: true)
!834 = !DICompositeType(tag: DW_TAG_array_type, baseType: !107, size: 496, elements: !835)
!835 = !{!836}
!836 = !DISubrange(count: 62)
!837 = !DIGlobalVariableExpression(var: !838, expr: !DIExpression())
!838 = distinct !DIGlobalVariable(scope: null, file: !714, line: 47, type: !839, isLocal: true, isDefinition: true)
!839 = !DICompositeType(tag: DW_TAG_array_type, baseType: !107, size: 16, elements: !840)
!840 = !{!841}
!841 = !DISubrange(count: 2)
!842 = !DIGlobalVariableExpression(var: !843, expr: !DIExpression())
!843 = distinct !DIGlobalVariable(scope: null, file: !15, line: 212, type: !844, isLocal: true, isDefinition: true)
!844 = !DICompositeType(tag: DW_TAG_array_type, baseType: !107, size: 336, elements: !845)
!845 = !{!846}
!846 = !DISubrange(count: 42)
!847 = !{!848, !856, !860, !867, !871, !875, !881, !885, !887, !889, !893, !897, !901, !905, !909, !911, !913, !915, !919, !923, !927, !929, !931, !937, !941, !948, !952, !956, !961, !963, !968, !972, !976, !984, !986, !990, !994, !998, !1002, !1006, !1010, !1014, !1018, !1025, !1029, !1033, !1035, !1037, !1041, !1045, !1051, !1055, !1059, !1061, !1068, !1072, !1079, !1081, !1085, !1089, !1093, !1097, !1102, !1106, !1111, !1112, !1113, !1114, !1116, !1117, !1118, !1119, !1120, !1121, !1122, !1124, !1125, !1126, !1127, !1128, !1129, !1130, !1135, !1136, !1137, !1138, !1139, !1140, !1141, !1142, !1143, !1144, !1145, !1146, !1147, !1148, !1149, !1150, !1151, !1152, !1153, !1154, !1155, !1156, !1157, !1158, !1159, !1165, !1167, !1169, !1173, !1175, !1177, !1179, !1181, !1183, !1185, !1187, !1192, !1196, !1198, !1200, !1205, !1207, !1209, !1211, !1213, !1215, !1217, !1220, !1222, !1224, !1228, !1232, !1234, !1236, !1238, !1240, !1242, !1244, !1246, !1248, !1250, !1252, !1256, !1260, !1262, !1264, !1266, !1268, !1270, !1272, !1274, !1276, !1278, !1280, !1282, !1284, !1286, !1288, !1290, !1294, !1298, !1302, !1304, !1306, !1308, !1310, !1312, !1314, !1316, !1318, !1320, !1324, !1328, !1332, !1334, !1336, !1338, !1342, !1346, !1350, !1352, !1354, !1356, !1358, !1360, !1362, !1364, !1366, !1368, !1370, !1372, !1374, !1378, !1382, !1386, !1388, !1390, !1392, !1394, !1398, !1402, !1404, !1406, !1408, !1410, !1412, !1414, !1418, !1422, !1424, !1426, !1428, !1430, !1434, !1438, !1442, !1444, !1446, !1448, !1450, !1452, !1454, !1458, !1462, !1466, !1468, !1472, !1476, !1478, !1480, !1482, !1484, !1486, !1488, !1492, !1494, !1499, !1514, !1517, !1522, !1531, !1536, !1540, !1544, !1548, !1552, !1554, !1556, !1560, !1566, !1570, !1576, !1582, !1584, !1588, !1592, !1596, !1600, !1612, !1614, !1618, !1622, !1626, !1628, !1632, !1636, !1640, !1642, !1644, !1648, !1656, !1660, !1664, !1668, !1670, !1676, !1678, !1684, !1688, !1692, !1696, !1700, !1704, !1708, !1710, !1712, !1716, !1720, !1724, !1726, !1730, !1734, !1736, !1738, !1742, !1746, !1750, !1754, !1755, !1756, !1757, !1758, !1759, !1760, !1761, !1762, !1763, !1764, !1768, !1772, !1779, !1783, !1786, !1789, !1792, !1794, !1796, !1798, !1801, !1804, !1807, !1810, !1813, !1815, !1820, !1824, !1827, !1830, !1832, !1834, !1836, !1838, !1841, !1844, !1847, !1850, !1853, !1855, !1859, !1863, !1868, !1872, !1874, !1876, !1878, !1880, !1882, !1884, !1886, !1888, !1890, !1892, !1894, !1896, !1898, !1902, !1908, !1913, !1917, !1919, !1921, !1923, !1925, !1932, !1936, !1940, !1944, !1948, !1952, !1956, !1960, !1962, !1966, !1972, !1976, !1980, !1982, !1984, !1988, !1992, !1994, !1996, !1998, !2000, !2002, !2004, !2006, !2010, !2014, !2018, !2022, !2026, !2030, !2032, !2036, !2040, !2044, !2048, !2050, !2052, !2056, !2060, !2061, !2062, !2063, !2064, !2065, !2071, !2074, !2075, !2077, !2079, !2081, !2083, !2087, !2089, !2091, !2093, !2095, !2097, !2099, !2101, !2103, !2107, !2111, !2113, !2117, !2121, !2123, !2124}
!848 = !DIImportedEntity(tag: DW_TAG_imported_declaration, scope: !2, entity: !849, file: !855, line: 77)
!849 = !DISubprogram(name: "memchr", scope: !850, file: !850, line: 89, type: !851, flags: DIFlagPrototyped, spFlags: 0)
!850 = !DIFile(filename: "/usr/include/string.h", directory: "", checksumkind: CSK_MD5, checksum: "f443da8025a0b7c1498fb6c554ec788d")
!851 = !DISubroutineType(types: !852)
!852 = !{!48, !48, !186, !853}
!853 = !DIDerivedType(tag: DW_TAG_typedef, name: "size_t", file: !854, line: 46, baseType: !43)
!854 = !DIFile(filename: "SVF/llvm-16.0.0.obj/lib/clang/16/include/stddef.h", directory: "/home/raj", checksumkind: CSK_MD5, checksum: "f95079da609b0e8f201cb8136304bf3b")
!855 = !DIFile(filename: "/usr/lib/gcc/x86_64-linux-gnu/11/../../../../include/c++/11/cstring", directory: "")
!856 = !DIImportedEntity(tag: DW_TAG_imported_declaration, scope: !2, entity: !857, file: !855, line: 78)
!857 = !DISubprogram(name: "memcmp", scope: !850, file: !850, line: 64, type: !858, flags: DIFlagPrototyped, spFlags: 0)
!858 = !DISubroutineType(types: !859)
!859 = !{!186, !48, !48, !853}
!860 = !DIImportedEntity(tag: DW_TAG_imported_declaration, scope: !2, entity: !861, file: !855, line: 79)
!861 = !DISubprogram(name: "memcpy", scope: !850, file: !850, line: 43, type: !862, flags: DIFlagPrototyped, spFlags: 0)
!862 = !DISubroutineType(types: !863)
!863 = !{!864, !865, !866, !853}
!864 = !DIDerivedType(tag: DW_TAG_pointer_type, baseType: null, size: 64)
!865 = !DIDerivedType(tag: DW_TAG_restrict_type, baseType: !864)
!866 = !DIDerivedType(tag: DW_TAG_restrict_type, baseType: !48)
!867 = !DIImportedEntity(tag: DW_TAG_imported_declaration, scope: !2, entity: !868, file: !855, line: 80)
!868 = !DISubprogram(name: "memmove", scope: !850, file: !850, line: 47, type: !869, flags: DIFlagPrototyped, spFlags: 0)
!869 = !DISubroutineType(types: !870)
!870 = !{!864, !864, !48, !853}
!871 = !DIImportedEntity(tag: DW_TAG_imported_declaration, scope: !2, entity: !872, file: !855, line: 81)
!872 = !DISubprogram(name: "memset", scope: !850, file: !850, line: 61, type: !873, flags: DIFlagPrototyped, spFlags: 0)
!873 = !DISubroutineType(types: !874)
!874 = !{!864, !864, !186, !853}
!875 = !DIImportedEntity(tag: DW_TAG_imported_declaration, scope: !2, entity: !876, file: !855, line: 82)
!876 = !DISubprogram(name: "strcat", scope: !850, file: !850, line: 149, type: !877, flags: DIFlagPrototyped, spFlags: 0)
!877 = !DISubroutineType(types: !878)
!878 = !{!34, !879, !880}
!879 = !DIDerivedType(tag: DW_TAG_restrict_type, baseType: !34)
!880 = !DIDerivedType(tag: DW_TAG_restrict_type, baseType: !106)
!881 = !DIImportedEntity(tag: DW_TAG_imported_declaration, scope: !2, entity: !882, file: !855, line: 83)
!882 = !DISubprogram(name: "strcmp", scope: !850, file: !850, line: 156, type: !883, flags: DIFlagPrototyped, spFlags: 0)
!883 = !DISubroutineType(types: !884)
!884 = !{!186, !106, !106}
!885 = !DIImportedEntity(tag: DW_TAG_imported_declaration, scope: !2, entity: !886, file: !855, line: 84)
!886 = !DISubprogram(name: "strcoll", scope: !850, file: !850, line: 163, type: !883, flags: DIFlagPrototyped, spFlags: 0)
!887 = !DIImportedEntity(tag: DW_TAG_imported_declaration, scope: !2, entity: !888, file: !855, line: 85)
!888 = !DISubprogram(name: "strcpy", scope: !850, file: !850, line: 141, type: !877, flags: DIFlagPrototyped, spFlags: 0)
!889 = !DIImportedEntity(tag: DW_TAG_imported_declaration, scope: !2, entity: !890, file: !855, line: 86)
!890 = !DISubprogram(name: "strcspn", scope: !850, file: !850, line: 293, type: !891, flags: DIFlagPrototyped, spFlags: 0)
!891 = !DISubroutineType(types: !892)
!892 = !{!853, !106, !106}
!893 = !DIImportedEntity(tag: DW_TAG_imported_declaration, scope: !2, entity: !894, file: !855, line: 87)
!894 = !DISubprogram(name: "strerror", scope: !850, file: !850, line: 419, type: !895, flags: DIFlagPrototyped, spFlags: 0)
!895 = !DISubroutineType(types: !896)
!896 = !{!34, !186}
!897 = !DIImportedEntity(tag: DW_TAG_imported_declaration, scope: !2, entity: !898, file: !855, line: 88)
!898 = !DISubprogram(name: "strlen", scope: !850, file: !850, line: 407, type: !899, flags: DIFlagPrototyped, spFlags: 0)
!899 = !DISubroutineType(types: !900)
!900 = !{!853, !106}
!901 = !DIImportedEntity(tag: DW_TAG_imported_declaration, scope: !2, entity: !902, file: !855, line: 89)
!902 = !DISubprogram(name: "strncat", scope: !850, file: !850, line: 152, type: !903, flags: DIFlagPrototyped, spFlags: 0)
!903 = !DISubroutineType(types: !904)
!904 = !{!34, !879, !880, !853}
!905 = !DIImportedEntity(tag: DW_TAG_imported_declaration, scope: !2, entity: !906, file: !855, line: 90)
!906 = !DISubprogram(name: "strncmp", scope: !850, file: !850, line: 159, type: !907, flags: DIFlagPrototyped, spFlags: 0)
!907 = !DISubroutineType(types: !908)
!908 = !{!186, !106, !106, !853}
!909 = !DIImportedEntity(tag: DW_TAG_imported_declaration, scope: !2, entity: !910, file: !855, line: 91)
!910 = !DISubprogram(name: "strncpy", scope: !850, file: !850, line: 144, type: !903, flags: DIFlagPrototyped, spFlags: 0)
!911 = !DIImportedEntity(tag: DW_TAG_imported_declaration, scope: !2, entity: !912, file: !855, line: 92)
!912 = !DISubprogram(name: "strspn", scope: !850, file: !850, line: 297, type: !891, flags: DIFlagPrototyped, spFlags: 0)
!913 = !DIImportedEntity(tag: DW_TAG_imported_declaration, scope: !2, entity: !914, file: !855, line: 93)
!914 = !DISubprogram(name: "strtok", scope: !850, file: !850, line: 356, type: !877, flags: DIFlagPrototyped, spFlags: 0)
!915 = !DIImportedEntity(tag: DW_TAG_imported_declaration, scope: !2, entity: !916, file: !855, line: 94)
!916 = !DISubprogram(name: "strxfrm", scope: !850, file: !850, line: 166, type: !917, flags: DIFlagPrototyped, spFlags: 0)
!917 = !DISubroutineType(types: !918)
!918 = !{!853, !879, !880, !853}
!919 = !DIImportedEntity(tag: DW_TAG_imported_declaration, scope: !2, entity: !920, file: !855, line: 95)
!920 = !DISubprogram(name: "strchr", scope: !850, file: !850, line: 228, type: !921, flags: DIFlagPrototyped, spFlags: 0)
!921 = !DISubroutineType(types: !922)
!922 = !{!106, !106, !186}
!923 = !DIImportedEntity(tag: DW_TAG_imported_declaration, scope: !2, entity: !924, file: !855, line: 96)
!924 = !DISubprogram(name: "strpbrk", scope: !850, file: !850, line: 305, type: !925, flags: DIFlagPrototyped, spFlags: 0)
!925 = !DISubroutineType(types: !926)
!926 = !{!106, !106, !106}
!927 = !DIImportedEntity(tag: DW_TAG_imported_declaration, scope: !2, entity: !928, file: !855, line: 97)
!928 = !DISubprogram(name: "strrchr", scope: !850, file: !850, line: 255, type: !921, flags: DIFlagPrototyped, spFlags: 0)
!929 = !DIImportedEntity(tag: DW_TAG_imported_declaration, scope: !2, entity: !930, file: !855, line: 98)
!930 = !DISubprogram(name: "strstr", scope: !850, file: !850, line: 332, type: !925, flags: DIFlagPrototyped, spFlags: 0)
!931 = !DIImportedEntity(tag: DW_TAG_imported_declaration, scope: !2, entity: !932, file: !936, line: 52)
!932 = !DISubprogram(name: "abs", scope: !933, file: !933, line: 848, type: !934, flags: DIFlagPrototyped, spFlags: 0)
!933 = !DIFile(filename: "/usr/include/stdlib.h", directory: "", checksumkind: CSK_MD5, checksum: "02258fad21adf111bb9df9825e61954a")
!934 = !DISubroutineType(types: !935)
!935 = !{!186, !186}
!936 = !DIFile(filename: "/usr/lib/gcc/x86_64-linux-gnu/11/../../../../include/c++/11/bits/std_abs.h", directory: "")
!937 = !DIImportedEntity(tag: DW_TAG_imported_declaration, scope: !2, entity: !938, file: !940, line: 127)
!938 = !DIDerivedType(tag: DW_TAG_typedef, name: "div_t", file: !933, line: 63, baseType: !939)
!939 = !DICompositeType(tag: DW_TAG_structure_type, file: !933, line: 59, size: 64, flags: DIFlagFwdDecl, identifier: "_ZTS5div_t")
!940 = !DIFile(filename: "/usr/lib/gcc/x86_64-linux-gnu/11/../../../../include/c++/11/cstdlib", directory: "")
!941 = !DIImportedEntity(tag: DW_TAG_imported_declaration, scope: !2, entity: !942, file: !940, line: 128)
!942 = !DIDerivedType(tag: DW_TAG_typedef, name: "ldiv_t", file: !933, line: 71, baseType: !943)
!943 = distinct !DICompositeType(tag: DW_TAG_structure_type, file: !933, line: 67, size: 128, flags: DIFlagTypePassByValue, elements: !944, identifier: "_ZTS6ldiv_t")
!944 = !{!945, !947}
!945 = !DIDerivedType(tag: DW_TAG_member, name: "quot", scope: !943, file: !933, line: 69, baseType: !946, size: 64)
!946 = !DIBasicType(name: "long", size: 64, encoding: DW_ATE_signed)
!947 = !DIDerivedType(tag: DW_TAG_member, name: "rem", scope: !943, file: !933, line: 70, baseType: !946, size: 64, offset: 64)
!948 = !DIImportedEntity(tag: DW_TAG_imported_declaration, scope: !2, entity: !949, file: !940, line: 130)
!949 = !DISubprogram(name: "abort", scope: !933, file: !933, line: 598, type: !950, flags: DIFlagPrototyped | DIFlagNoReturn, spFlags: 0)
!950 = !DISubroutineType(types: !951)
!951 = !{null}
!952 = !DIImportedEntity(tag: DW_TAG_imported_declaration, scope: !2, entity: !953, file: !940, line: 132)
!953 = !DISubprogram(name: "aligned_alloc", scope: !933, file: !933, line: 592, type: !954, flags: DIFlagPrototyped, spFlags: 0)
!954 = !DISubroutineType(types: !955)
!955 = !{!864, !853, !853}
!956 = !DIImportedEntity(tag: DW_TAG_imported_declaration, scope: !2, entity: !957, file: !940, line: 134)
!957 = !DISubprogram(name: "atexit", scope: !933, file: !933, line: 602, type: !958, flags: DIFlagPrototyped, spFlags: 0)
!958 = !DISubroutineType(types: !959)
!959 = !{!186, !960}
!960 = !DIDerivedType(tag: DW_TAG_pointer_type, baseType: !950, size: 64)
!961 = !DIImportedEntity(tag: DW_TAG_imported_declaration, scope: !2, entity: !962, file: !940, line: 137)
!962 = !DISubprogram(name: "at_quick_exit", scope: !933, file: !933, line: 607, type: !958, flags: DIFlagPrototyped, spFlags: 0)
!963 = !DIImportedEntity(tag: DW_TAG_imported_declaration, scope: !2, entity: !964, file: !940, line: 140)
!964 = !DISubprogram(name: "atof", scope: !933, file: !933, line: 102, type: !965, flags: DIFlagPrototyped, spFlags: 0)
!965 = !DISubroutineType(types: !966)
!966 = !{!967, !106}
!967 = !DIBasicType(name: "double", size: 64, encoding: DW_ATE_float)
!968 = !DIImportedEntity(tag: DW_TAG_imported_declaration, scope: !2, entity: !969, file: !940, line: 141)
!969 = !DISubprogram(name: "atoi", scope: !933, file: !933, line: 105, type: !970, flags: DIFlagPrototyped, spFlags: 0)
!970 = !DISubroutineType(types: !971)
!971 = !{!186, !106}
!972 = !DIImportedEntity(tag: DW_TAG_imported_declaration, scope: !2, entity: !973, file: !940, line: 142)
!973 = !DISubprogram(name: "atol", scope: !933, file: !933, line: 108, type: !974, flags: DIFlagPrototyped, spFlags: 0)
!974 = !DISubroutineType(types: !975)
!975 = !{!946, !106}
!976 = !DIImportedEntity(tag: DW_TAG_imported_declaration, scope: !2, entity: !977, file: !940, line: 143)
!977 = !DISubprogram(name: "bsearch", scope: !933, file: !933, line: 828, type: !978, flags: DIFlagPrototyped, spFlags: 0)
!978 = !DISubroutineType(types: !979)
!979 = !{!864, !48, !48, !853, !853, !980}
!980 = !DIDerivedType(tag: DW_TAG_typedef, name: "__compar_fn_t", file: !933, line: 816, baseType: !981)
!981 = !DIDerivedType(tag: DW_TAG_pointer_type, baseType: !982, size: 64)
!982 = !DISubroutineType(types: !983)
!983 = !{!186, !48, !48}
!984 = !DIImportedEntity(tag: DW_TAG_imported_declaration, scope: !2, entity: !985, file: !940, line: 144)
!985 = !DISubprogram(name: "calloc", scope: !933, file: !933, line: 543, type: !954, flags: DIFlagPrototyped, spFlags: 0)
!986 = !DIImportedEntity(tag: DW_TAG_imported_declaration, scope: !2, entity: !987, file: !940, line: 145)
!987 = !DISubprogram(name: "div", scope: !933, file: !933, line: 860, type: !988, flags: DIFlagPrototyped, spFlags: 0)
!988 = !DISubroutineType(types: !989)
!989 = !{!938, !186, !186}
!990 = !DIImportedEntity(tag: DW_TAG_imported_declaration, scope: !2, entity: !991, file: !940, line: 146)
!991 = !DISubprogram(name: "exit", scope: !933, file: !933, line: 624, type: !992, flags: DIFlagPrototyped | DIFlagNoReturn, spFlags: 0)
!992 = !DISubroutineType(types: !993)
!993 = !{null, !186}
!994 = !DIImportedEntity(tag: DW_TAG_imported_declaration, scope: !2, entity: !995, file: !940, line: 147)
!995 = !DISubprogram(name: "free", scope: !933, file: !933, line: 555, type: !996, flags: DIFlagPrototyped, spFlags: 0)
!996 = !DISubroutineType(types: !997)
!997 = !{null, !864}
!998 = !DIImportedEntity(tag: DW_TAG_imported_declaration, scope: !2, entity: !999, file: !940, line: 148)
!999 = !DISubprogram(name: "getenv", scope: !933, file: !933, line: 641, type: !1000, flags: DIFlagPrototyped, spFlags: 0)
!1000 = !DISubroutineType(types: !1001)
!1001 = !{!34, !106}
!1002 = !DIImportedEntity(tag: DW_TAG_imported_declaration, scope: !2, entity: !1003, file: !940, line: 149)
!1003 = !DISubprogram(name: "labs", scope: !933, file: !933, line: 849, type: !1004, flags: DIFlagPrototyped, spFlags: 0)
!1004 = !DISubroutineType(types: !1005)
!1005 = !{!946, !946}
!1006 = !DIImportedEntity(tag: DW_TAG_imported_declaration, scope: !2, entity: !1007, file: !940, line: 150)
!1007 = !DISubprogram(name: "ldiv", scope: !933, file: !933, line: 862, type: !1008, flags: DIFlagPrototyped, spFlags: 0)
!1008 = !DISubroutineType(types: !1009)
!1009 = !{!942, !946, !946}
!1010 = !DIImportedEntity(tag: DW_TAG_imported_declaration, scope: !2, entity: !1011, file: !940, line: 151)
!1011 = !DISubprogram(name: "malloc", scope: !933, file: !933, line: 540, type: !1012, flags: DIFlagPrototyped, spFlags: 0)
!1012 = !DISubroutineType(types: !1013)
!1013 = !{!864, !853}
!1014 = !DIImportedEntity(tag: DW_TAG_imported_declaration, scope: !2, entity: !1015, file: !940, line: 153)
!1015 = !DISubprogram(name: "mblen", scope: !933, file: !933, line: 930, type: !1016, flags: DIFlagPrototyped, spFlags: 0)
!1016 = !DISubroutineType(types: !1017)
!1017 = !{!186, !106, !853}
!1018 = !DIImportedEntity(tag: DW_TAG_imported_declaration, scope: !2, entity: !1019, file: !940, line: 154)
!1019 = !DISubprogram(name: "mbstowcs", scope: !933, file: !933, line: 941, type: !1020, flags: DIFlagPrototyped, spFlags: 0)
!1020 = !DISubroutineType(types: !1021)
!1021 = !{!853, !1022, !880, !853}
!1022 = !DIDerivedType(tag: DW_TAG_restrict_type, baseType: !1023)
!1023 = !DIDerivedType(tag: DW_TAG_pointer_type, baseType: !1024, size: 64)
!1024 = !DIBasicType(name: "wchar_t", size: 32, encoding: DW_ATE_signed)
!1025 = !DIImportedEntity(tag: DW_TAG_imported_declaration, scope: !2, entity: !1026, file: !940, line: 155)
!1026 = !DISubprogram(name: "mbtowc", scope: !933, file: !933, line: 933, type: !1027, flags: DIFlagPrototyped, spFlags: 0)
!1027 = !DISubroutineType(types: !1028)
!1028 = !{!186, !1022, !880, !853}
!1029 = !DIImportedEntity(tag: DW_TAG_imported_declaration, scope: !2, entity: !1030, file: !940, line: 157)
!1030 = !DISubprogram(name: "qsort", scope: !933, file: !933, line: 838, type: !1031, flags: DIFlagPrototyped, spFlags: 0)
!1031 = !DISubroutineType(types: !1032)
!1032 = !{null, !864, !853, !853, !980}
!1033 = !DIImportedEntity(tag: DW_TAG_imported_declaration, scope: !2, entity: !1034, file: !940, line: 160)
!1034 = !DISubprogram(name: "quick_exit", scope: !933, file: !933, line: 630, type: !992, flags: DIFlagPrototyped | DIFlagNoReturn, spFlags: 0)
!1035 = !DIImportedEntity(tag: DW_TAG_imported_declaration, scope: !2, entity: !1036, file: !940, line: 163)
!1036 = !DISubprogram(name: "rand", scope: !933, file: !933, line: 454, type: !729, flags: DIFlagPrototyped, spFlags: 0)
!1037 = !DIImportedEntity(tag: DW_TAG_imported_declaration, scope: !2, entity: !1038, file: !940, line: 164)
!1038 = !DISubprogram(name: "realloc", scope: !933, file: !933, line: 551, type: !1039, flags: DIFlagPrototyped, spFlags: 0)
!1039 = !DISubroutineType(types: !1040)
!1040 = !{!864, !864, !853}
!1041 = !DIImportedEntity(tag: DW_TAG_imported_declaration, scope: !2, entity: !1042, file: !940, line: 165)
!1042 = !DISubprogram(name: "srand", scope: !933, file: !933, line: 456, type: !1043, flags: DIFlagPrototyped, spFlags: 0)
!1043 = !DISubroutineType(types: !1044)
!1044 = !{null, !693}
!1045 = !DIImportedEntity(tag: DW_TAG_imported_declaration, scope: !2, entity: !1046, file: !940, line: 166)
!1046 = !DISubprogram(name: "strtod", scope: !933, file: !933, line: 118, type: !1047, flags: DIFlagPrototyped, spFlags: 0)
!1047 = !DISubroutineType(types: !1048)
!1048 = !{!967, !880, !1049}
!1049 = !DIDerivedType(tag: DW_TAG_restrict_type, baseType: !1050)
!1050 = !DIDerivedType(tag: DW_TAG_pointer_type, baseType: !34, size: 64)
!1051 = !DIImportedEntity(tag: DW_TAG_imported_declaration, scope: !2, entity: !1052, file: !940, line: 167)
!1052 = !DISubprogram(name: "strtol", scope: !933, file: !933, line: 177, type: !1053, flags: DIFlagPrototyped, spFlags: 0)
!1053 = !DISubroutineType(types: !1054)
!1054 = !{!946, !880, !1049, !186}
!1055 = !DIImportedEntity(tag: DW_TAG_imported_declaration, scope: !2, entity: !1056, file: !940, line: 168)
!1056 = !DISubprogram(name: "strtoul", scope: !933, file: !933, line: 181, type: !1057, flags: DIFlagPrototyped, spFlags: 0)
!1057 = !DISubroutineType(types: !1058)
!1058 = !{!43, !880, !1049, !186}
!1059 = !DIImportedEntity(tag: DW_TAG_imported_declaration, scope: !2, entity: !1060, file: !940, line: 169)
!1060 = !DISubprogram(name: "system", scope: !933, file: !933, line: 791, type: !970, flags: DIFlagPrototyped, spFlags: 0)
!1061 = !DIImportedEntity(tag: DW_TAG_imported_declaration, scope: !2, entity: !1062, file: !940, line: 171)
!1062 = !DISubprogram(name: "wcstombs", scope: !933, file: !933, line: 945, type: !1063, flags: DIFlagPrototyped, spFlags: 0)
!1063 = !DISubroutineType(types: !1064)
!1064 = !{!853, !879, !1065, !853}
!1065 = !DIDerivedType(tag: DW_TAG_restrict_type, baseType: !1066)
!1066 = !DIDerivedType(tag: DW_TAG_pointer_type, baseType: !1067, size: 64)
!1067 = !DIDerivedType(tag: DW_TAG_const_type, baseType: !1024)
!1068 = !DIImportedEntity(tag: DW_TAG_imported_declaration, scope: !2, entity: !1069, file: !940, line: 172)
!1069 = !DISubprogram(name: "wctomb", scope: !933, file: !933, line: 937, type: !1070, flags: DIFlagPrototyped, spFlags: 0)
!1070 = !DISubroutineType(types: !1071)
!1071 = !{!186, !34, !1024}
!1072 = !DIImportedEntity(tag: DW_TAG_imported_declaration, scope: !24, entity: !1073, file: !940, line: 200)
!1073 = !DIDerivedType(tag: DW_TAG_typedef, name: "lldiv_t", file: !933, line: 81, baseType: !1074)
!1074 = distinct !DICompositeType(tag: DW_TAG_structure_type, file: !933, line: 77, size: 128, flags: DIFlagTypePassByValue, elements: !1075, identifier: "_ZTS7lldiv_t")
!1075 = !{!1076, !1078}
!1076 = !DIDerivedType(tag: DW_TAG_member, name: "quot", scope: !1074, file: !933, line: 79, baseType: !1077, size: 64)
!1077 = !DIBasicType(name: "long long", size: 64, encoding: DW_ATE_signed)
!1078 = !DIDerivedType(tag: DW_TAG_member, name: "rem", scope: !1074, file: !933, line: 80, baseType: !1077, size: 64, offset: 64)
!1079 = !DIImportedEntity(tag: DW_TAG_imported_declaration, scope: !24, entity: !1080, file: !940, line: 206)
!1080 = !DISubprogram(name: "_Exit", scope: !933, file: !933, line: 636, type: !992, flags: DIFlagPrototyped | DIFlagNoReturn, spFlags: 0)
!1081 = !DIImportedEntity(tag: DW_TAG_imported_declaration, scope: !24, entity: !1082, file: !940, line: 210)
!1082 = !DISubprogram(name: "llabs", scope: !933, file: !933, line: 852, type: !1083, flags: DIFlagPrototyped, spFlags: 0)
!1083 = !DISubroutineType(types: !1084)
!1084 = !{!1077, !1077}
!1085 = !DIImportedEntity(tag: DW_TAG_imported_declaration, scope: !24, entity: !1086, file: !940, line: 216)
!1086 = !DISubprogram(name: "lldiv", scope: !933, file: !933, line: 866, type: !1087, flags: DIFlagPrototyped, spFlags: 0)
!1087 = !DISubroutineType(types: !1088)
!1088 = !{!1073, !1077, !1077}
!1089 = !DIImportedEntity(tag: DW_TAG_imported_declaration, scope: !24, entity: !1090, file: !940, line: 227)
!1090 = !DISubprogram(name: "atoll", scope: !933, file: !933, line: 113, type: !1091, flags: DIFlagPrototyped, spFlags: 0)
!1091 = !DISubroutineType(types: !1092)
!1092 = !{!1077, !106}
!1093 = !DIImportedEntity(tag: DW_TAG_imported_declaration, scope: !24, entity: !1094, file: !940, line: 228)
!1094 = !DISubprogram(name: "strtoll", scope: !933, file: !933, line: 201, type: !1095, flags: DIFlagPrototyped, spFlags: 0)
!1095 = !DISubroutineType(types: !1096)
!1096 = !{!1077, !880, !1049, !186}
!1097 = !DIImportedEntity(tag: DW_TAG_imported_declaration, scope: !24, entity: !1098, file: !940, line: 229)
!1098 = !DISubprogram(name: "strtoull", scope: !933, file: !933, line: 206, type: !1099, flags: DIFlagPrototyped, spFlags: 0)
!1099 = !DISubroutineType(types: !1100)
!1100 = !{!1101, !880, !1049, !186}
!1101 = !DIBasicType(name: "unsigned long long", size: 64, encoding: DW_ATE_unsigned)
!1102 = !DIImportedEntity(tag: DW_TAG_imported_declaration, scope: !24, entity: !1103, file: !940, line: 231)
!1103 = !DISubprogram(name: "strtof", scope: !933, file: !933, line: 124, type: !1104, flags: DIFlagPrototyped, spFlags: 0)
!1104 = !DISubroutineType(types: !1105)
!1105 = !{!704, !880, !1049}
!1106 = !DIImportedEntity(tag: DW_TAG_imported_declaration, scope: !24, entity: !1107, file: !940, line: 232)
!1107 = !DISubprogram(name: "strtold", scope: !933, file: !933, line: 127, type: !1108, flags: DIFlagPrototyped, spFlags: 0)
!1108 = !DISubroutineType(types: !1109)
!1109 = !{!1110, !880, !1049}
!1110 = !DIBasicType(name: "long double", size: 128, encoding: DW_ATE_float)
!1111 = !DIImportedEntity(tag: DW_TAG_imported_declaration, scope: !2, entity: !1073, file: !940, line: 240)
!1112 = !DIImportedEntity(tag: DW_TAG_imported_declaration, scope: !2, entity: !1080, file: !940, line: 242)
!1113 = !DIImportedEntity(tag: DW_TAG_imported_declaration, scope: !2, entity: !1082, file: !940, line: 244)
!1114 = !DIImportedEntity(tag: DW_TAG_imported_declaration, scope: !2, entity: !1115, file: !940, line: 245)
!1115 = !DISubprogram(name: "div", linkageName: "_ZN9__gnu_cxx3divExx", scope: !24, file: !940, line: 213, type: !1087, flags: DIFlagPrototyped, spFlags: 0)
!1116 = !DIImportedEntity(tag: DW_TAG_imported_declaration, scope: !2, entity: !1086, file: !940, line: 246)
!1117 = !DIImportedEntity(tag: DW_TAG_imported_declaration, scope: !2, entity: !1090, file: !940, line: 248)
!1118 = !DIImportedEntity(tag: DW_TAG_imported_declaration, scope: !2, entity: !1103, file: !940, line: 249)
!1119 = !DIImportedEntity(tag: DW_TAG_imported_declaration, scope: !2, entity: !1094, file: !940, line: 250)
!1120 = !DIImportedEntity(tag: DW_TAG_imported_declaration, scope: !2, entity: !1098, file: !940, line: 251)
!1121 = !DIImportedEntity(tag: DW_TAG_imported_declaration, scope: !2, entity: !1107, file: !940, line: 252)
!1122 = !DIImportedEntity(tag: DW_TAG_imported_declaration, scope: !9, entity: !949, file: !1123, line: 38)
!1123 = !DIFile(filename: "/usr/lib/gcc/x86_64-linux-gnu/11/../../../../include/c++/11/stdlib.h", directory: "", checksumkind: CSK_MD5, checksum: "0f5b773a303c24013fb112082e6d18a5")
!1124 = !DIImportedEntity(tag: DW_TAG_imported_declaration, scope: !9, entity: !957, file: !1123, line: 39)
!1125 = !DIImportedEntity(tag: DW_TAG_imported_declaration, scope: !9, entity: !991, file: !1123, line: 40)
!1126 = !DIImportedEntity(tag: DW_TAG_imported_declaration, scope: !9, entity: !962, file: !1123, line: 43)
!1127 = !DIImportedEntity(tag: DW_TAG_imported_declaration, scope: !9, entity: !1034, file: !1123, line: 46)
!1128 = !DIImportedEntity(tag: DW_TAG_imported_declaration, scope: !9, entity: !938, file: !1123, line: 51)
!1129 = !DIImportedEntity(tag: DW_TAG_imported_declaration, scope: !9, entity: !942, file: !1123, line: 52)
!1130 = !DIImportedEntity(tag: DW_TAG_imported_declaration, scope: !9, entity: !1131, file: !1123, line: 54)
!1131 = !DISubprogram(name: "abs", linkageName: "_ZSt3absg", scope: !2, file: !936, line: 103, type: !1132, flags: DIFlagPrototyped, spFlags: 0)
!1132 = !DISubroutineType(types: !1133)
!1133 = !{!1134, !1134}
!1134 = !DIBasicType(name: "__float128", size: 128, encoding: DW_ATE_float)
!1135 = !DIImportedEntity(tag: DW_TAG_imported_declaration, scope: !9, entity: !964, file: !1123, line: 55)
!1136 = !DIImportedEntity(tag: DW_TAG_imported_declaration, scope: !9, entity: !969, file: !1123, line: 56)
!1137 = !DIImportedEntity(tag: DW_TAG_imported_declaration, scope: !9, entity: !973, file: !1123, line: 57)
!1138 = !DIImportedEntity(tag: DW_TAG_imported_declaration, scope: !9, entity: !977, file: !1123, line: 58)
!1139 = !DIImportedEntity(tag: DW_TAG_imported_declaration, scope: !9, entity: !985, file: !1123, line: 59)
!1140 = !DIImportedEntity(tag: DW_TAG_imported_declaration, scope: !9, entity: !1115, file: !1123, line: 60)
!1141 = !DIImportedEntity(tag: DW_TAG_imported_declaration, scope: !9, entity: !995, file: !1123, line: 61)
!1142 = !DIImportedEntity(tag: DW_TAG_imported_declaration, scope: !9, entity: !999, file: !1123, line: 62)
!1143 = !DIImportedEntity(tag: DW_TAG_imported_declaration, scope: !9, entity: !1003, file: !1123, line: 63)
!1144 = !DIImportedEntity(tag: DW_TAG_imported_declaration, scope: !9, entity: !1007, file: !1123, line: 64)
!1145 = !DIImportedEntity(tag: DW_TAG_imported_declaration, scope: !9, entity: !1011, file: !1123, line: 65)
!1146 = !DIImportedEntity(tag: DW_TAG_imported_declaration, scope: !9, entity: !1015, file: !1123, line: 67)
!1147 = !DIImportedEntity(tag: DW_TAG_imported_declaration, scope: !9, entity: !1019, file: !1123, line: 68)
!1148 = !DIImportedEntity(tag: DW_TAG_imported_declaration, scope: !9, entity: !1026, file: !1123, line: 69)
!1149 = !DIImportedEntity(tag: DW_TAG_imported_declaration, scope: !9, entity: !1030, file: !1123, line: 71)
!1150 = !DIImportedEntity(tag: DW_TAG_imported_declaration, scope: !9, entity: !1036, file: !1123, line: 72)
!1151 = !DIImportedEntity(tag: DW_TAG_imported_declaration, scope: !9, entity: !1038, file: !1123, line: 73)
!1152 = !DIImportedEntity(tag: DW_TAG_imported_declaration, scope: !9, entity: !1042, file: !1123, line: 74)
!1153 = !DIImportedEntity(tag: DW_TAG_imported_declaration, scope: !9, entity: !1046, file: !1123, line: 75)
!1154 = !DIImportedEntity(tag: DW_TAG_imported_declaration, scope: !9, entity: !1052, file: !1123, line: 76)
!1155 = !DIImportedEntity(tag: DW_TAG_imported_declaration, scope: !9, entity: !1056, file: !1123, line: 77)
!1156 = !DIImportedEntity(tag: DW_TAG_imported_declaration, scope: !9, entity: !1060, file: !1123, line: 78)
!1157 = !DIImportedEntity(tag: DW_TAG_imported_declaration, scope: !9, entity: !1062, file: !1123, line: 80)
!1158 = !DIImportedEntity(tag: DW_TAG_imported_declaration, scope: !9, entity: !1069, file: !1123, line: 81)
!1159 = !DIImportedEntity(tag: DW_TAG_imported_declaration, scope: !2, entity: !1160, file: !1164, line: 83)
!1160 = !DISubprogram(name: "acos", scope: !1161, file: !1161, line: 53, type: !1162, flags: DIFlagPrototyped, spFlags: 0)
!1161 = !DIFile(filename: "/usr/include/x86_64-linux-gnu/bits/mathcalls.h", directory: "", checksumkind: CSK_MD5, checksum: "8c6e2d0d2bda65bc5ba1ca02b65383b7")
!1162 = !DISubroutineType(types: !1163)
!1163 = !{!967, !967}
!1164 = !DIFile(filename: "/usr/lib/gcc/x86_64-linux-gnu/11/../../../../include/c++/11/cmath", directory: "")
!1165 = !DIImportedEntity(tag: DW_TAG_imported_declaration, scope: !2, entity: !1166, file: !1164, line: 102)
!1166 = !DISubprogram(name: "asin", scope: !1161, file: !1161, line: 55, type: !1162, flags: DIFlagPrototyped, spFlags: 0)
!1167 = !DIImportedEntity(tag: DW_TAG_imported_declaration, scope: !2, entity: !1168, file: !1164, line: 121)
!1168 = !DISubprogram(name: "atan", scope: !1161, file: !1161, line: 57, type: !1162, flags: DIFlagPrototyped, spFlags: 0)
!1169 = !DIImportedEntity(tag: DW_TAG_imported_declaration, scope: !2, entity: !1170, file: !1164, line: 140)
!1170 = !DISubprogram(name: "atan2", scope: !1161, file: !1161, line: 59, type: !1171, flags: DIFlagPrototyped, spFlags: 0)
!1171 = !DISubroutineType(types: !1172)
!1172 = !{!967, !967, !967}
!1173 = !DIImportedEntity(tag: DW_TAG_imported_declaration, scope: !2, entity: !1174, file: !1164, line: 161)
!1174 = !DISubprogram(name: "ceil", scope: !1161, file: !1161, line: 159, type: !1162, flags: DIFlagPrototyped, spFlags: 0)
!1175 = !DIImportedEntity(tag: DW_TAG_imported_declaration, scope: !2, entity: !1176, file: !1164, line: 180)
!1176 = !DISubprogram(name: "cos", scope: !1161, file: !1161, line: 62, type: !1162, flags: DIFlagPrototyped, spFlags: 0)
!1177 = !DIImportedEntity(tag: DW_TAG_imported_declaration, scope: !2, entity: !1178, file: !1164, line: 199)
!1178 = !DISubprogram(name: "cosh", scope: !1161, file: !1161, line: 71, type: !1162, flags: DIFlagPrototyped, spFlags: 0)
!1179 = !DIImportedEntity(tag: DW_TAG_imported_declaration, scope: !2, entity: !1180, file: !1164, line: 218)
!1180 = !DISubprogram(name: "exp", scope: !1161, file: !1161, line: 95, type: !1162, flags: DIFlagPrototyped, spFlags: 0)
!1181 = !DIImportedEntity(tag: DW_TAG_imported_declaration, scope: !2, entity: !1182, file: !1164, line: 237)
!1182 = !DISubprogram(name: "fabs", scope: !1161, file: !1161, line: 162, type: !1162, flags: DIFlagPrototyped, spFlags: 0)
!1183 = !DIImportedEntity(tag: DW_TAG_imported_declaration, scope: !2, entity: !1184, file: !1164, line: 256)
!1184 = !DISubprogram(name: "floor", scope: !1161, file: !1161, line: 165, type: !1162, flags: DIFlagPrototyped, spFlags: 0)
!1185 = !DIImportedEntity(tag: DW_TAG_imported_declaration, scope: !2, entity: !1186, file: !1164, line: 275)
!1186 = !DISubprogram(name: "fmod", scope: !1161, file: !1161, line: 168, type: !1171, flags: DIFlagPrototyped, spFlags: 0)
!1187 = !DIImportedEntity(tag: DW_TAG_imported_declaration, scope: !2, entity: !1188, file: !1164, line: 296)
!1188 = !DISubprogram(name: "frexp", scope: !1161, file: !1161, line: 98, type: !1189, flags: DIFlagPrototyped, spFlags: 0)
!1189 = !DISubroutineType(types: !1190)
!1190 = !{!967, !967, !1191}
!1191 = !DIDerivedType(tag: DW_TAG_pointer_type, baseType: !186, size: 64)
!1192 = !DIImportedEntity(tag: DW_TAG_imported_declaration, scope: !2, entity: !1193, file: !1164, line: 315)
!1193 = !DISubprogram(name: "ldexp", scope: !1161, file: !1161, line: 101, type: !1194, flags: DIFlagPrototyped, spFlags: 0)
!1194 = !DISubroutineType(types: !1195)
!1195 = !{!967, !967, !186}
!1196 = !DIImportedEntity(tag: DW_TAG_imported_declaration, scope: !2, entity: !1197, file: !1164, line: 334)
!1197 = !DISubprogram(name: "log", scope: !1161, file: !1161, line: 104, type: !1162, flags: DIFlagPrototyped, spFlags: 0)
!1198 = !DIImportedEntity(tag: DW_TAG_imported_declaration, scope: !2, entity: !1199, file: !1164, line: 353)
!1199 = !DISubprogram(name: "log10", scope: !1161, file: !1161, line: 107, type: !1162, flags: DIFlagPrototyped, spFlags: 0)
!1200 = !DIImportedEntity(tag: DW_TAG_imported_declaration, scope: !2, entity: !1201, file: !1164, line: 372)
!1201 = !DISubprogram(name: "modf", scope: !1161, file: !1161, line: 110, type: !1202, flags: DIFlagPrototyped, spFlags: 0)
!1202 = !DISubroutineType(types: !1203)
!1203 = !{!967, !967, !1204}
!1204 = !DIDerivedType(tag: DW_TAG_pointer_type, baseType: !967, size: 64)
!1205 = !DIImportedEntity(tag: DW_TAG_imported_declaration, scope: !2, entity: !1206, file: !1164, line: 384)
!1206 = !DISubprogram(name: "pow", scope: !1161, file: !1161, line: 140, type: !1171, flags: DIFlagPrototyped, spFlags: 0)
!1207 = !DIImportedEntity(tag: DW_TAG_imported_declaration, scope: !2, entity: !1208, file: !1164, line: 421)
!1208 = !DISubprogram(name: "sin", scope: !1161, file: !1161, line: 64, type: !1162, flags: DIFlagPrototyped, spFlags: 0)
!1209 = !DIImportedEntity(tag: DW_TAG_imported_declaration, scope: !2, entity: !1210, file: !1164, line: 440)
!1210 = !DISubprogram(name: "sinh", scope: !1161, file: !1161, line: 73, type: !1162, flags: DIFlagPrototyped, spFlags: 0)
!1211 = !DIImportedEntity(tag: DW_TAG_imported_declaration, scope: !2, entity: !1212, file: !1164, line: 459)
!1212 = !DISubprogram(name: "sqrt", scope: !1161, file: !1161, line: 143, type: !1162, flags: DIFlagPrototyped, spFlags: 0)
!1213 = !DIImportedEntity(tag: DW_TAG_imported_declaration, scope: !2, entity: !1214, file: !1164, line: 478)
!1214 = !DISubprogram(name: "tan", scope: !1161, file: !1161, line: 66, type: !1162, flags: DIFlagPrototyped, spFlags: 0)
!1215 = !DIImportedEntity(tag: DW_TAG_imported_declaration, scope: !2, entity: !1216, file: !1164, line: 497)
!1216 = !DISubprogram(name: "tanh", scope: !1161, file: !1161, line: 75, type: !1162, flags: DIFlagPrototyped, spFlags: 0)
!1217 = !DIImportedEntity(tag: DW_TAG_imported_declaration, scope: !2, entity: !1218, file: !1164, line: 1065)
!1218 = !DIDerivedType(tag: DW_TAG_typedef, name: "double_t", file: !1219, line: 164, baseType: !967)
!1219 = !DIFile(filename: "/usr/include/math.h", directory: "", checksumkind: CSK_MD5, checksum: "f3450d1d586f704597de1a1b2bed18f3")
!1220 = !DIImportedEntity(tag: DW_TAG_imported_declaration, scope: !2, entity: !1221, file: !1164, line: 1066)
!1221 = !DIDerivedType(tag: DW_TAG_typedef, name: "float_t", file: !1219, line: 163, baseType: !704)
!1222 = !DIImportedEntity(tag: DW_TAG_imported_declaration, scope: !2, entity: !1223, file: !1164, line: 1069)
!1223 = !DISubprogram(name: "acosh", scope: !1161, file: !1161, line: 85, type: !1162, flags: DIFlagPrototyped, spFlags: 0)
!1224 = !DIImportedEntity(tag: DW_TAG_imported_declaration, scope: !2, entity: !1225, file: !1164, line: 1070)
!1225 = !DISubprogram(name: "acoshf", scope: !1161, file: !1161, line: 85, type: !1226, flags: DIFlagPrototyped, spFlags: 0)
!1226 = !DISubroutineType(types: !1227)
!1227 = !{!704, !704}
!1228 = !DIImportedEntity(tag: DW_TAG_imported_declaration, scope: !2, entity: !1229, file: !1164, line: 1071)
!1229 = !DISubprogram(name: "acoshl", scope: !1161, file: !1161, line: 85, type: !1230, flags: DIFlagPrototyped, spFlags: 0)
!1230 = !DISubroutineType(types: !1231)
!1231 = !{!1110, !1110}
!1232 = !DIImportedEntity(tag: DW_TAG_imported_declaration, scope: !2, entity: !1233, file: !1164, line: 1073)
!1233 = !DISubprogram(name: "asinh", scope: !1161, file: !1161, line: 87, type: !1162, flags: DIFlagPrototyped, spFlags: 0)
!1234 = !DIImportedEntity(tag: DW_TAG_imported_declaration, scope: !2, entity: !1235, file: !1164, line: 1074)
!1235 = !DISubprogram(name: "asinhf", scope: !1161, file: !1161, line: 87, type: !1226, flags: DIFlagPrototyped, spFlags: 0)
!1236 = !DIImportedEntity(tag: DW_TAG_imported_declaration, scope: !2, entity: !1237, file: !1164, line: 1075)
!1237 = !DISubprogram(name: "asinhl", scope: !1161, file: !1161, line: 87, type: !1230, flags: DIFlagPrototyped, spFlags: 0)
!1238 = !DIImportedEntity(tag: DW_TAG_imported_declaration, scope: !2, entity: !1239, file: !1164, line: 1077)
!1239 = !DISubprogram(name: "atanh", scope: !1161, file: !1161, line: 89, type: !1162, flags: DIFlagPrototyped, spFlags: 0)
!1240 = !DIImportedEntity(tag: DW_TAG_imported_declaration, scope: !2, entity: !1241, file: !1164, line: 1078)
!1241 = !DISubprogram(name: "atanhf", scope: !1161, file: !1161, line: 89, type: !1226, flags: DIFlagPrototyped, spFlags: 0)
!1242 = !DIImportedEntity(tag: DW_TAG_imported_declaration, scope: !2, entity: !1243, file: !1164, line: 1079)
!1243 = !DISubprogram(name: "atanhl", scope: !1161, file: !1161, line: 89, type: !1230, flags: DIFlagPrototyped, spFlags: 0)
!1244 = !DIImportedEntity(tag: DW_TAG_imported_declaration, scope: !2, entity: !1245, file: !1164, line: 1081)
!1245 = !DISubprogram(name: "cbrt", scope: !1161, file: !1161, line: 152, type: !1162, flags: DIFlagPrototyped, spFlags: 0)
!1246 = !DIImportedEntity(tag: DW_TAG_imported_declaration, scope: !2, entity: !1247, file: !1164, line: 1082)
!1247 = !DISubprogram(name: "cbrtf", scope: !1161, file: !1161, line: 152, type: !1226, flags: DIFlagPrototyped, spFlags: 0)
!1248 = !DIImportedEntity(tag: DW_TAG_imported_declaration, scope: !2, entity: !1249, file: !1164, line: 1083)
!1249 = !DISubprogram(name: "cbrtl", scope: !1161, file: !1161, line: 152, type: !1230, flags: DIFlagPrototyped, spFlags: 0)
!1250 = !DIImportedEntity(tag: DW_TAG_imported_declaration, scope: !2, entity: !1251, file: !1164, line: 1085)
!1251 = !DISubprogram(name: "copysign", scope: !1161, file: !1161, line: 198, type: !1171, flags: DIFlagPrototyped, spFlags: 0)
!1252 = !DIImportedEntity(tag: DW_TAG_imported_declaration, scope: !2, entity: !1253, file: !1164, line: 1086)
!1253 = !DISubprogram(name: "copysignf", scope: !1161, file: !1161, line: 198, type: !1254, flags: DIFlagPrototyped, spFlags: 0)
!1254 = !DISubroutineType(types: !1255)
!1255 = !{!704, !704, !704}
!1256 = !DIImportedEntity(tag: DW_TAG_imported_declaration, scope: !2, entity: !1257, file: !1164, line: 1087)
!1257 = !DISubprogram(name: "copysignl", scope: !1161, file: !1161, line: 198, type: !1258, flags: DIFlagPrototyped, spFlags: 0)
!1258 = !DISubroutineType(types: !1259)
!1259 = !{!1110, !1110, !1110}
!1260 = !DIImportedEntity(tag: DW_TAG_imported_declaration, scope: !2, entity: !1261, file: !1164, line: 1089)
!1261 = !DISubprogram(name: "erf", scope: !1161, file: !1161, line: 231, type: !1162, flags: DIFlagPrototyped, spFlags: 0)
!1262 = !DIImportedEntity(tag: DW_TAG_imported_declaration, scope: !2, entity: !1263, file: !1164, line: 1090)
!1263 = !DISubprogram(name: "erff", scope: !1161, file: !1161, line: 231, type: !1226, flags: DIFlagPrototyped, spFlags: 0)
!1264 = !DIImportedEntity(tag: DW_TAG_imported_declaration, scope: !2, entity: !1265, file: !1164, line: 1091)
!1265 = !DISubprogram(name: "erfl", scope: !1161, file: !1161, line: 231, type: !1230, flags: DIFlagPrototyped, spFlags: 0)
!1266 = !DIImportedEntity(tag: DW_TAG_imported_declaration, scope: !2, entity: !1267, file: !1164, line: 1093)
!1267 = !DISubprogram(name: "erfc", scope: !1161, file: !1161, line: 232, type: !1162, flags: DIFlagPrototyped, spFlags: 0)
!1268 = !DIImportedEntity(tag: DW_TAG_imported_declaration, scope: !2, entity: !1269, file: !1164, line: 1094)
!1269 = !DISubprogram(name: "erfcf", scope: !1161, file: !1161, line: 232, type: !1226, flags: DIFlagPrototyped, spFlags: 0)
!1270 = !DIImportedEntity(tag: DW_TAG_imported_declaration, scope: !2, entity: !1271, file: !1164, line: 1095)
!1271 = !DISubprogram(name: "erfcl", scope: !1161, file: !1161, line: 232, type: !1230, flags: DIFlagPrototyped, spFlags: 0)
!1272 = !DIImportedEntity(tag: DW_TAG_imported_declaration, scope: !2, entity: !1273, file: !1164, line: 1097)
!1273 = !DISubprogram(name: "exp2", scope: !1161, file: !1161, line: 130, type: !1162, flags: DIFlagPrototyped, spFlags: 0)
!1274 = !DIImportedEntity(tag: DW_TAG_imported_declaration, scope: !2, entity: !1275, file: !1164, line: 1098)
!1275 = !DISubprogram(name: "exp2f", scope: !1161, file: !1161, line: 130, type: !1226, flags: DIFlagPrototyped, spFlags: 0)
!1276 = !DIImportedEntity(tag: DW_TAG_imported_declaration, scope: !2, entity: !1277, file: !1164, line: 1099)
!1277 = !DISubprogram(name: "exp2l", scope: !1161, file: !1161, line: 130, type: !1230, flags: DIFlagPrototyped, spFlags: 0)
!1278 = !DIImportedEntity(tag: DW_TAG_imported_declaration, scope: !2, entity: !1279, file: !1164, line: 1101)
!1279 = !DISubprogram(name: "expm1", scope: !1161, file: !1161, line: 119, type: !1162, flags: DIFlagPrototyped, spFlags: 0)
!1280 = !DIImportedEntity(tag: DW_TAG_imported_declaration, scope: !2, entity: !1281, file: !1164, line: 1102)
!1281 = !DISubprogram(name: "expm1f", scope: !1161, file: !1161, line: 119, type: !1226, flags: DIFlagPrototyped, spFlags: 0)
!1282 = !DIImportedEntity(tag: DW_TAG_imported_declaration, scope: !2, entity: !1283, file: !1164, line: 1103)
!1283 = !DISubprogram(name: "expm1l", scope: !1161, file: !1161, line: 119, type: !1230, flags: DIFlagPrototyped, spFlags: 0)
!1284 = !DIImportedEntity(tag: DW_TAG_imported_declaration, scope: !2, entity: !1285, file: !1164, line: 1105)
!1285 = !DISubprogram(name: "fdim", scope: !1161, file: !1161, line: 329, type: !1171, flags: DIFlagPrototyped, spFlags: 0)
!1286 = !DIImportedEntity(tag: DW_TAG_imported_declaration, scope: !2, entity: !1287, file: !1164, line: 1106)
!1287 = !DISubprogram(name: "fdimf", scope: !1161, file: !1161, line: 329, type: !1254, flags: DIFlagPrototyped, spFlags: 0)
!1288 = !DIImportedEntity(tag: DW_TAG_imported_declaration, scope: !2, entity: !1289, file: !1164, line: 1107)
!1289 = !DISubprogram(name: "fdiml", scope: !1161, file: !1161, line: 329, type: !1258, flags: DIFlagPrototyped, spFlags: 0)
!1290 = !DIImportedEntity(tag: DW_TAG_imported_declaration, scope: !2, entity: !1291, file: !1164, line: 1109)
!1291 = !DISubprogram(name: "fma", scope: !1161, file: !1161, line: 340, type: !1292, flags: DIFlagPrototyped, spFlags: 0)
!1292 = !DISubroutineType(types: !1293)
!1293 = !{!967, !967, !967, !967}
!1294 = !DIImportedEntity(tag: DW_TAG_imported_declaration, scope: !2, entity: !1295, file: !1164, line: 1110)
!1295 = !DISubprogram(name: "fmaf", scope: !1161, file: !1161, line: 340, type: !1296, flags: DIFlagPrototyped, spFlags: 0)
!1296 = !DISubroutineType(types: !1297)
!1297 = !{!704, !704, !704, !704}
!1298 = !DIImportedEntity(tag: DW_TAG_imported_declaration, scope: !2, entity: !1299, file: !1164, line: 1111)
!1299 = !DISubprogram(name: "fmal", scope: !1161, file: !1161, line: 340, type: !1300, flags: DIFlagPrototyped, spFlags: 0)
!1300 = !DISubroutineType(types: !1301)
!1301 = !{!1110, !1110, !1110, !1110}
!1302 = !DIImportedEntity(tag: DW_TAG_imported_declaration, scope: !2, entity: !1303, file: !1164, line: 1113)
!1303 = !DISubprogram(name: "fmax", scope: !1161, file: !1161, line: 333, type: !1171, flags: DIFlagPrototyped, spFlags: 0)
!1304 = !DIImportedEntity(tag: DW_TAG_imported_declaration, scope: !2, entity: !1305, file: !1164, line: 1114)
!1305 = !DISubprogram(name: "fmaxf", scope: !1161, file: !1161, line: 333, type: !1254, flags: DIFlagPrototyped, spFlags: 0)
!1306 = !DIImportedEntity(tag: DW_TAG_imported_declaration, scope: !2, entity: !1307, file: !1164, line: 1115)
!1307 = !DISubprogram(name: "fmaxl", scope: !1161, file: !1161, line: 333, type: !1258, flags: DIFlagPrototyped, spFlags: 0)
!1308 = !DIImportedEntity(tag: DW_TAG_imported_declaration, scope: !2, entity: !1309, file: !1164, line: 1117)
!1309 = !DISubprogram(name: "fmin", scope: !1161, file: !1161, line: 336, type: !1171, flags: DIFlagPrototyped, spFlags: 0)
!1310 = !DIImportedEntity(tag: DW_TAG_imported_declaration, scope: !2, entity: !1311, file: !1164, line: 1118)
!1311 = !DISubprogram(name: "fminf", scope: !1161, file: !1161, line: 336, type: !1254, flags: DIFlagPrototyped, spFlags: 0)
!1312 = !DIImportedEntity(tag: DW_TAG_imported_declaration, scope: !2, entity: !1313, file: !1164, line: 1119)
!1313 = !DISubprogram(name: "fminl", scope: !1161, file: !1161, line: 336, type: !1258, flags: DIFlagPrototyped, spFlags: 0)
!1314 = !DIImportedEntity(tag: DW_TAG_imported_declaration, scope: !2, entity: !1315, file: !1164, line: 1121)
!1315 = !DISubprogram(name: "hypot", scope: !1161, file: !1161, line: 147, type: !1171, flags: DIFlagPrototyped, spFlags: 0)
!1316 = !DIImportedEntity(tag: DW_TAG_imported_declaration, scope: !2, entity: !1317, file: !1164, line: 1122)
!1317 = !DISubprogram(name: "hypotf", scope: !1161, file: !1161, line: 147, type: !1254, flags: DIFlagPrototyped, spFlags: 0)
!1318 = !DIImportedEntity(tag: DW_TAG_imported_declaration, scope: !2, entity: !1319, file: !1164, line: 1123)
!1319 = !DISubprogram(name: "hypotl", scope: !1161, file: !1161, line: 147, type: !1258, flags: DIFlagPrototyped, spFlags: 0)
!1320 = !DIImportedEntity(tag: DW_TAG_imported_declaration, scope: !2, entity: !1321, file: !1164, line: 1125)
!1321 = !DISubprogram(name: "ilogb", scope: !1161, file: !1161, line: 283, type: !1322, flags: DIFlagPrototyped, spFlags: 0)
!1322 = !DISubroutineType(types: !1323)
!1323 = !{!186, !967}
!1324 = !DIImportedEntity(tag: DW_TAG_imported_declaration, scope: !2, entity: !1325, file: !1164, line: 1126)
!1325 = !DISubprogram(name: "ilogbf", scope: !1161, file: !1161, line: 283, type: !1326, flags: DIFlagPrototyped, spFlags: 0)
!1326 = !DISubroutineType(types: !1327)
!1327 = !{!186, !704}
!1328 = !DIImportedEntity(tag: DW_TAG_imported_declaration, scope: !2, entity: !1329, file: !1164, line: 1127)
!1329 = !DISubprogram(name: "ilogbl", scope: !1161, file: !1161, line: 283, type: !1330, flags: DIFlagPrototyped, spFlags: 0)
!1330 = !DISubroutineType(types: !1331)
!1331 = !{!186, !1110}
!1332 = !DIImportedEntity(tag: DW_TAG_imported_declaration, scope: !2, entity: !1333, file: !1164, line: 1129)
!1333 = !DISubprogram(name: "lgamma", scope: !1161, file: !1161, line: 233, type: !1162, flags: DIFlagPrototyped, spFlags: 0)
!1334 = !DIImportedEntity(tag: DW_TAG_imported_declaration, scope: !2, entity: !1335, file: !1164, line: 1130)
!1335 = !DISubprogram(name: "lgammaf", scope: !1161, file: !1161, line: 233, type: !1226, flags: DIFlagPrototyped, spFlags: 0)
!1336 = !DIImportedEntity(tag: DW_TAG_imported_declaration, scope: !2, entity: !1337, file: !1164, line: 1131)
!1337 = !DISubprogram(name: "lgammal", scope: !1161, file: !1161, line: 233, type: !1230, flags: DIFlagPrototyped, spFlags: 0)
!1338 = !DIImportedEntity(tag: DW_TAG_imported_declaration, scope: !2, entity: !1339, file: !1164, line: 1134)
!1339 = !DISubprogram(name: "llrint", scope: !1161, file: !1161, line: 319, type: !1340, flags: DIFlagPrototyped, spFlags: 0)
!1340 = !DISubroutineType(types: !1341)
!1341 = !{!1077, !967}
!1342 = !DIImportedEntity(tag: DW_TAG_imported_declaration, scope: !2, entity: !1343, file: !1164, line: 1135)
!1343 = !DISubprogram(name: "llrintf", scope: !1161, file: !1161, line: 319, type: !1344, flags: DIFlagPrototyped, spFlags: 0)
!1344 = !DISubroutineType(types: !1345)
!1345 = !{!1077, !704}
!1346 = !DIImportedEntity(tag: DW_TAG_imported_declaration, scope: !2, entity: !1347, file: !1164, line: 1136)
!1347 = !DISubprogram(name: "llrintl", scope: !1161, file: !1161, line: 319, type: !1348, flags: DIFlagPrototyped, spFlags: 0)
!1348 = !DISubroutineType(types: !1349)
!1349 = !{!1077, !1110}
!1350 = !DIImportedEntity(tag: DW_TAG_imported_declaration, scope: !2, entity: !1351, file: !1164, line: 1138)
!1351 = !DISubprogram(name: "llround", scope: !1161, file: !1161, line: 325, type: !1340, flags: DIFlagPrototyped, spFlags: 0)
!1352 = !DIImportedEntity(tag: DW_TAG_imported_declaration, scope: !2, entity: !1353, file: !1164, line: 1139)
!1353 = !DISubprogram(name: "llroundf", scope: !1161, file: !1161, line: 325, type: !1344, flags: DIFlagPrototyped, spFlags: 0)
!1354 = !DIImportedEntity(tag: DW_TAG_imported_declaration, scope: !2, entity: !1355, file: !1164, line: 1140)
!1355 = !DISubprogram(name: "llroundl", scope: !1161, file: !1161, line: 325, type: !1348, flags: DIFlagPrototyped, spFlags: 0)
!1356 = !DIImportedEntity(tag: DW_TAG_imported_declaration, scope: !2, entity: !1357, file: !1164, line: 1143)
!1357 = !DISubprogram(name: "log1p", scope: !1161, file: !1161, line: 122, type: !1162, flags: DIFlagPrototyped, spFlags: 0)
!1358 = !DIImportedEntity(tag: DW_TAG_imported_declaration, scope: !2, entity: !1359, file: !1164, line: 1144)
!1359 = !DISubprogram(name: "log1pf", scope: !1161, file: !1161, line: 122, type: !1226, flags: DIFlagPrototyped, spFlags: 0)
!1360 = !DIImportedEntity(tag: DW_TAG_imported_declaration, scope: !2, entity: !1361, file: !1164, line: 1145)
!1361 = !DISubprogram(name: "log1pl", scope: !1161, file: !1161, line: 122, type: !1230, flags: DIFlagPrototyped, spFlags: 0)
!1362 = !DIImportedEntity(tag: DW_TAG_imported_declaration, scope: !2, entity: !1363, file: !1164, line: 1147)
!1363 = !DISubprogram(name: "log2", scope: !1161, file: !1161, line: 133, type: !1162, flags: DIFlagPrototyped, spFlags: 0)
!1364 = !DIImportedEntity(tag: DW_TAG_imported_declaration, scope: !2, entity: !1365, file: !1164, line: 1148)
!1365 = !DISubprogram(name: "log2f", scope: !1161, file: !1161, line: 133, type: !1226, flags: DIFlagPrototyped, spFlags: 0)
!1366 = !DIImportedEntity(tag: DW_TAG_imported_declaration, scope: !2, entity: !1367, file: !1164, line: 1149)
!1367 = !DISubprogram(name: "log2l", scope: !1161, file: !1161, line: 133, type: !1230, flags: DIFlagPrototyped, spFlags: 0)
!1368 = !DIImportedEntity(tag: DW_TAG_imported_declaration, scope: !2, entity: !1369, file: !1164, line: 1151)
!1369 = !DISubprogram(name: "logb", scope: !1161, file: !1161, line: 125, type: !1162, flags: DIFlagPrototyped, spFlags: 0)
!1370 = !DIImportedEntity(tag: DW_TAG_imported_declaration, scope: !2, entity: !1371, file: !1164, line: 1152)
!1371 = !DISubprogram(name: "logbf", scope: !1161, file: !1161, line: 125, type: !1226, flags: DIFlagPrototyped, spFlags: 0)
!1372 = !DIImportedEntity(tag: DW_TAG_imported_declaration, scope: !2, entity: !1373, file: !1164, line: 1153)
!1373 = !DISubprogram(name: "logbl", scope: !1161, file: !1161, line: 125, type: !1230, flags: DIFlagPrototyped, spFlags: 0)
!1374 = !DIImportedEntity(tag: DW_TAG_imported_declaration, scope: !2, entity: !1375, file: !1164, line: 1155)
!1375 = !DISubprogram(name: "lrint", scope: !1161, file: !1161, line: 317, type: !1376, flags: DIFlagPrototyped, spFlags: 0)
!1376 = !DISubroutineType(types: !1377)
!1377 = !{!946, !967}
!1378 = !DIImportedEntity(tag: DW_TAG_imported_declaration, scope: !2, entity: !1379, file: !1164, line: 1156)
!1379 = !DISubprogram(name: "lrintf", scope: !1161, file: !1161, line: 317, type: !1380, flags: DIFlagPrototyped, spFlags: 0)
!1380 = !DISubroutineType(types: !1381)
!1381 = !{!946, !704}
!1382 = !DIImportedEntity(tag: DW_TAG_imported_declaration, scope: !2, entity: !1383, file: !1164, line: 1157)
!1383 = !DISubprogram(name: "lrintl", scope: !1161, file: !1161, line: 317, type: !1384, flags: DIFlagPrototyped, spFlags: 0)
!1384 = !DISubroutineType(types: !1385)
!1385 = !{!946, !1110}
!1386 = !DIImportedEntity(tag: DW_TAG_imported_declaration, scope: !2, entity: !1387, file: !1164, line: 1159)
!1387 = !DISubprogram(name: "lround", scope: !1161, file: !1161, line: 323, type: !1376, flags: DIFlagPrototyped, spFlags: 0)
!1388 = !DIImportedEntity(tag: DW_TAG_imported_declaration, scope: !2, entity: !1389, file: !1164, line: 1160)
!1389 = !DISubprogram(name: "lroundf", scope: !1161, file: !1161, line: 323, type: !1380, flags: DIFlagPrototyped, spFlags: 0)
!1390 = !DIImportedEntity(tag: DW_TAG_imported_declaration, scope: !2, entity: !1391, file: !1164, line: 1161)
!1391 = !DISubprogram(name: "lroundl", scope: !1161, file: !1161, line: 323, type: !1384, flags: DIFlagPrototyped, spFlags: 0)
!1392 = !DIImportedEntity(tag: DW_TAG_imported_declaration, scope: !2, entity: !1393, file: !1164, line: 1163)
!1393 = !DISubprogram(name: "nan", scope: !1161, file: !1161, line: 203, type: !965, flags: DIFlagPrototyped, spFlags: 0)
!1394 = !DIImportedEntity(tag: DW_TAG_imported_declaration, scope: !2, entity: !1395, file: !1164, line: 1164)
!1395 = !DISubprogram(name: "nanf", scope: !1161, file: !1161, line: 203, type: !1396, flags: DIFlagPrototyped, spFlags: 0)
!1396 = !DISubroutineType(types: !1397)
!1397 = !{!704, !106}
!1398 = !DIImportedEntity(tag: DW_TAG_imported_declaration, scope: !2, entity: !1399, file: !1164, line: 1165)
!1399 = !DISubprogram(name: "nanl", scope: !1161, file: !1161, line: 203, type: !1400, flags: DIFlagPrototyped, spFlags: 0)
!1400 = !DISubroutineType(types: !1401)
!1401 = !{!1110, !106}
!1402 = !DIImportedEntity(tag: DW_TAG_imported_declaration, scope: !2, entity: !1403, file: !1164, line: 1167)
!1403 = !DISubprogram(name: "nearbyint", scope: !1161, file: !1161, line: 297, type: !1162, flags: DIFlagPrototyped, spFlags: 0)
!1404 = !DIImportedEntity(tag: DW_TAG_imported_declaration, scope: !2, entity: !1405, file: !1164, line: 1168)
!1405 = !DISubprogram(name: "nearbyintf", scope: !1161, file: !1161, line: 297, type: !1226, flags: DIFlagPrototyped, spFlags: 0)
!1406 = !DIImportedEntity(tag: DW_TAG_imported_declaration, scope: !2, entity: !1407, file: !1164, line: 1169)
!1407 = !DISubprogram(name: "nearbyintl", scope: !1161, file: !1161, line: 297, type: !1230, flags: DIFlagPrototyped, spFlags: 0)
!1408 = !DIImportedEntity(tag: DW_TAG_imported_declaration, scope: !2, entity: !1409, file: !1164, line: 1171)
!1409 = !DISubprogram(name: "nextafter", scope: !1161, file: !1161, line: 262, type: !1171, flags: DIFlagPrototyped, spFlags: 0)
!1410 = !DIImportedEntity(tag: DW_TAG_imported_declaration, scope: !2, entity: !1411, file: !1164, line: 1172)
!1411 = !DISubprogram(name: "nextafterf", scope: !1161, file: !1161, line: 262, type: !1254, flags: DIFlagPrototyped, spFlags: 0)
!1412 = !DIImportedEntity(tag: DW_TAG_imported_declaration, scope: !2, entity: !1413, file: !1164, line: 1173)
!1413 = !DISubprogram(name: "nextafterl", scope: !1161, file: !1161, line: 262, type: !1258, flags: DIFlagPrototyped, spFlags: 0)
!1414 = !DIImportedEntity(tag: DW_TAG_imported_declaration, scope: !2, entity: !1415, file: !1164, line: 1175)
!1415 = !DISubprogram(name: "nexttoward", scope: !1161, file: !1161, line: 264, type: !1416, flags: DIFlagPrototyped, spFlags: 0)
!1416 = !DISubroutineType(types: !1417)
!1417 = !{!967, !967, !1110}
!1418 = !DIImportedEntity(tag: DW_TAG_imported_declaration, scope: !2, entity: !1419, file: !1164, line: 1176)
!1419 = !DISubprogram(name: "nexttowardf", scope: !1161, file: !1161, line: 264, type: !1420, flags: DIFlagPrototyped, spFlags: 0)
!1420 = !DISubroutineType(types: !1421)
!1421 = !{!704, !704, !1110}
!1422 = !DIImportedEntity(tag: DW_TAG_imported_declaration, scope: !2, entity: !1423, file: !1164, line: 1177)
!1423 = !DISubprogram(name: "nexttowardl", scope: !1161, file: !1161, line: 264, type: !1258, flags: DIFlagPrototyped, spFlags: 0)
!1424 = !DIImportedEntity(tag: DW_TAG_imported_declaration, scope: !2, entity: !1425, file: !1164, line: 1179)
!1425 = !DISubprogram(name: "remainder", scope: !1161, file: !1161, line: 275, type: !1171, flags: DIFlagPrototyped, spFlags: 0)
!1426 = !DIImportedEntity(tag: DW_TAG_imported_declaration, scope: !2, entity: !1427, file: !1164, line: 1180)
!1427 = !DISubprogram(name: "remainderf", scope: !1161, file: !1161, line: 275, type: !1254, flags: DIFlagPrototyped, spFlags: 0)
!1428 = !DIImportedEntity(tag: DW_TAG_imported_declaration, scope: !2, entity: !1429, file: !1164, line: 1181)
!1429 = !DISubprogram(name: "remainderl", scope: !1161, file: !1161, line: 275, type: !1258, flags: DIFlagPrototyped, spFlags: 0)
!1430 = !DIImportedEntity(tag: DW_TAG_imported_declaration, scope: !2, entity: !1431, file: !1164, line: 1183)
!1431 = !DISubprogram(name: "remquo", scope: !1161, file: !1161, line: 310, type: !1432, flags: DIFlagPrototyped, spFlags: 0)
!1432 = !DISubroutineType(types: !1433)
!1433 = !{!967, !967, !967, !1191}
!1434 = !DIImportedEntity(tag: DW_TAG_imported_declaration, scope: !2, entity: !1435, file: !1164, line: 1184)
!1435 = !DISubprogram(name: "remquof", scope: !1161, file: !1161, line: 310, type: !1436, flags: DIFlagPrototyped, spFlags: 0)
!1436 = !DISubroutineType(types: !1437)
!1437 = !{!704, !704, !704, !1191}
!1438 = !DIImportedEntity(tag: DW_TAG_imported_declaration, scope: !2, entity: !1439, file: !1164, line: 1185)
!1439 = !DISubprogram(name: "remquol", scope: !1161, file: !1161, line: 310, type: !1440, flags: DIFlagPrototyped, spFlags: 0)
!1440 = !DISubroutineType(types: !1441)
!1441 = !{!1110, !1110, !1110, !1191}
!1442 = !DIImportedEntity(tag: DW_TAG_imported_declaration, scope: !2, entity: !1443, file: !1164, line: 1187)
!1443 = !DISubprogram(name: "rint", scope: !1161, file: !1161, line: 259, type: !1162, flags: DIFlagPrototyped, spFlags: 0)
!1444 = !DIImportedEntity(tag: DW_TAG_imported_declaration, scope: !2, entity: !1445, file: !1164, line: 1188)
!1445 = !DISubprogram(name: "rintf", scope: !1161, file: !1161, line: 259, type: !1226, flags: DIFlagPrototyped, spFlags: 0)
!1446 = !DIImportedEntity(tag: DW_TAG_imported_declaration, scope: !2, entity: !1447, file: !1164, line: 1189)
!1447 = !DISubprogram(name: "rintl", scope: !1161, file: !1161, line: 259, type: !1230, flags: DIFlagPrototyped, spFlags: 0)
!1448 = !DIImportedEntity(tag: DW_TAG_imported_declaration, scope: !2, entity: !1449, file: !1164, line: 1191)
!1449 = !DISubprogram(name: "round", scope: !1161, file: !1161, line: 301, type: !1162, flags: DIFlagPrototyped, spFlags: 0)
!1450 = !DIImportedEntity(tag: DW_TAG_imported_declaration, scope: !2, entity: !1451, file: !1164, line: 1192)
!1451 = !DISubprogram(name: "roundf", scope: !1161, file: !1161, line: 301, type: !1226, flags: DIFlagPrototyped, spFlags: 0)
!1452 = !DIImportedEntity(tag: DW_TAG_imported_declaration, scope: !2, entity: !1453, file: !1164, line: 1193)
!1453 = !DISubprogram(name: "roundl", scope: !1161, file: !1161, line: 301, type: !1230, flags: DIFlagPrototyped, spFlags: 0)
!1454 = !DIImportedEntity(tag: DW_TAG_imported_declaration, scope: !2, entity: !1455, file: !1164, line: 1195)
!1455 = !DISubprogram(name: "scalbln", scope: !1161, file: !1161, line: 293, type: !1456, flags: DIFlagPrototyped, spFlags: 0)
!1456 = !DISubroutineType(types: !1457)
!1457 = !{!967, !967, !946}
!1458 = !DIImportedEntity(tag: DW_TAG_imported_declaration, scope: !2, entity: !1459, file: !1164, line: 1196)
!1459 = !DISubprogram(name: "scalblnf", scope: !1161, file: !1161, line: 293, type: !1460, flags: DIFlagPrototyped, spFlags: 0)
!1460 = !DISubroutineType(types: !1461)
!1461 = !{!704, !704, !946}
!1462 = !DIImportedEntity(tag: DW_TAG_imported_declaration, scope: !2, entity: !1463, file: !1164, line: 1197)
!1463 = !DISubprogram(name: "scalblnl", scope: !1161, file: !1161, line: 293, type: !1464, flags: DIFlagPrototyped, spFlags: 0)
!1464 = !DISubroutineType(types: !1465)
!1465 = !{!1110, !1110, !946}
!1466 = !DIImportedEntity(tag: DW_TAG_imported_declaration, scope: !2, entity: !1467, file: !1164, line: 1199)
!1467 = !DISubprogram(name: "scalbn", scope: !1161, file: !1161, line: 279, type: !1194, flags: DIFlagPrototyped, spFlags: 0)
!1468 = !DIImportedEntity(tag: DW_TAG_imported_declaration, scope: !2, entity: !1469, file: !1164, line: 1200)
!1469 = !DISubprogram(name: "scalbnf", scope: !1161, file: !1161, line: 279, type: !1470, flags: DIFlagPrototyped, spFlags: 0)
!1470 = !DISubroutineType(types: !1471)
!1471 = !{!704, !704, !186}
!1472 = !DIImportedEntity(tag: DW_TAG_imported_declaration, scope: !2, entity: !1473, file: !1164, line: 1201)
!1473 = !DISubprogram(name: "scalbnl", scope: !1161, file: !1161, line: 279, type: !1474, flags: DIFlagPrototyped, spFlags: 0)
!1474 = !DISubroutineType(types: !1475)
!1475 = !{!1110, !1110, !186}
!1476 = !DIImportedEntity(tag: DW_TAG_imported_declaration, scope: !2, entity: !1477, file: !1164, line: 1203)
!1477 = !DISubprogram(name: "tgamma", scope: !1161, file: !1161, line: 238, type: !1162, flags: DIFlagPrototyped, spFlags: 0)
!1478 = !DIImportedEntity(tag: DW_TAG_imported_declaration, scope: !2, entity: !1479, file: !1164, line: 1204)
!1479 = !DISubprogram(name: "tgammaf", scope: !1161, file: !1161, line: 238, type: !1226, flags: DIFlagPrototyped, spFlags: 0)
!1480 = !DIImportedEntity(tag: DW_TAG_imported_declaration, scope: !2, entity: !1481, file: !1164, line: 1205)
!1481 = !DISubprogram(name: "tgammal", scope: !1161, file: !1161, line: 238, type: !1230, flags: DIFlagPrototyped, spFlags: 0)
!1482 = !DIImportedEntity(tag: DW_TAG_imported_declaration, scope: !2, entity: !1483, file: !1164, line: 1207)
!1483 = !DISubprogram(name: "trunc", scope: !1161, file: !1161, line: 305, type: !1162, flags: DIFlagPrototyped, spFlags: 0)
!1484 = !DIImportedEntity(tag: DW_TAG_imported_declaration, scope: !2, entity: !1485, file: !1164, line: 1208)
!1485 = !DISubprogram(name: "truncf", scope: !1161, file: !1161, line: 305, type: !1226, flags: DIFlagPrototyped, spFlags: 0)
!1486 = !DIImportedEntity(tag: DW_TAG_imported_declaration, scope: !2, entity: !1487, file: !1164, line: 1209)
!1487 = !DISubprogram(name: "truncl", scope: !1161, file: !1161, line: 305, type: !1230, flags: DIFlagPrototyped, spFlags: 0)
!1488 = !DIImportedEntity(tag: DW_TAG_imported_module, scope: !1489, entity: !1490, file: !1491, line: 58)
!1489 = !DINamespace(name: "__gnu_debug", scope: null)
!1490 = !DINamespace(name: "__debug", scope: !2)
!1491 = !DIFile(filename: "/usr/lib/gcc/x86_64-linux-gnu/11/../../../../include/c++/11/debug/debug.h", directory: "", checksumkind: CSK_MD5, checksum: "982c0103e1e5f86b0818efdfc5273c3c")
!1492 = !DIImportedEntity(tag: DW_TAG_imported_declaration, scope: !9, entity: !1131, file: !1493, line: 38)
!1493 = !DIFile(filename: "/usr/lib/gcc/x86_64-linux-gnu/11/../../../../include/c++/11/math.h", directory: "", checksumkind: CSK_MD5, checksum: "a990cded20a6fb8dad866460b8c40922")
!1494 = !DIImportedEntity(tag: DW_TAG_imported_declaration, scope: !9, entity: !1495, file: !1493, line: 54)
!1495 = !DISubprogram(name: "modf", linkageName: "_ZSt4modfePe", scope: !2, file: !1164, line: 380, type: !1496, flags: DIFlagPrototyped, spFlags: 0)
!1496 = !DISubroutineType(types: !1497)
!1497 = !{!1110, !1110, !1498}
!1498 = !DIDerivedType(tag: DW_TAG_pointer_type, baseType: !1110, size: 64)
!1499 = !DIImportedEntity(tag: DW_TAG_imported_declaration, scope: !2, entity: !1500, file: !1513, line: 64)
!1500 = !DIDerivedType(tag: DW_TAG_typedef, name: "mbstate_t", file: !1501, line: 6, baseType: !1502)
!1501 = !DIFile(filename: "/usr/include/x86_64-linux-gnu/bits/types/mbstate_t.h", directory: "", checksumkind: CSK_MD5, checksum: "ba8742313715e20e434cf6ccb2db98e3")
!1502 = !DIDerivedType(tag: DW_TAG_typedef, name: "__mbstate_t", file: !1503, line: 21, baseType: !1504)
!1503 = !DIFile(filename: "/usr/include/x86_64-linux-gnu/bits/types/__mbstate_t.h", directory: "", checksumkind: CSK_MD5, checksum: "82911a3e689448e3691ded3e0b471a55")
!1504 = distinct !DICompositeType(tag: DW_TAG_structure_type, file: !1503, line: 13, size: 64, flags: DIFlagTypePassByValue, elements: !1505, identifier: "_ZTS11__mbstate_t")
!1505 = !{!1506, !1507}
!1506 = !DIDerivedType(tag: DW_TAG_member, name: "__count", scope: !1504, file: !1503, line: 15, baseType: !186, size: 32)
!1507 = !DIDerivedType(tag: DW_TAG_member, name: "__value", scope: !1504, file: !1503, line: 20, baseType: !1508, size: 32, offset: 32)
!1508 = distinct !DICompositeType(tag: DW_TAG_union_type, scope: !1504, file: !1503, line: 16, size: 32, flags: DIFlagTypePassByValue, elements: !1509, identifier: "_ZTSN11__mbstate_tUt_E")
!1509 = !{!1510, !1511}
!1510 = !DIDerivedType(tag: DW_TAG_member, name: "__wch", scope: !1508, file: !1503, line: 18, baseType: !693, size: 32)
!1511 = !DIDerivedType(tag: DW_TAG_member, name: "__wchb", scope: !1508, file: !1503, line: 19, baseType: !1512, size: 32)
!1512 = !DICompositeType(tag: DW_TAG_array_type, baseType: !35, size: 32, elements: !705)
!1513 = !DIFile(filename: "/usr/lib/gcc/x86_64-linux-gnu/11/../../../../include/c++/11/cwchar", directory: "")
!1514 = !DIImportedEntity(tag: DW_TAG_imported_declaration, scope: !2, entity: !1515, file: !1513, line: 141)
!1515 = !DIDerivedType(tag: DW_TAG_typedef, name: "wint_t", file: !1516, line: 20, baseType: !693)
!1516 = !DIFile(filename: "/usr/include/x86_64-linux-gnu/bits/types/wint_t.h", directory: "", checksumkind: CSK_MD5, checksum: "aa31b53ef28dc23152ceb41e2763ded3")
!1517 = !DIImportedEntity(tag: DW_TAG_imported_declaration, scope: !2, entity: !1518, file: !1513, line: 143)
!1518 = !DISubprogram(name: "btowc", scope: !1519, file: !1519, line: 285, type: !1520, flags: DIFlagPrototyped, spFlags: 0)
!1519 = !DIFile(filename: "/usr/include/wchar.h", directory: "", checksumkind: CSK_MD5, checksum: "484b7adbbc849bb51cdbcb2d985b07a0")
!1520 = !DISubroutineType(types: !1521)
!1521 = !{!1515, !186}
!1522 = !DIImportedEntity(tag: DW_TAG_imported_declaration, scope: !2, entity: !1523, file: !1513, line: 144)
!1523 = !DISubprogram(name: "fgetwc", scope: !1519, file: !1519, line: 744, type: !1524, flags: DIFlagPrototyped, spFlags: 0)
!1524 = !DISubroutineType(types: !1525)
!1525 = !{!1515, !1526}
!1526 = !DIDerivedType(tag: DW_TAG_pointer_type, baseType: !1527, size: 64)
!1527 = !DIDerivedType(tag: DW_TAG_typedef, name: "__FILE", file: !1528, line: 5, baseType: !1529)
!1528 = !DIFile(filename: "/usr/include/x86_64-linux-gnu/bits/types/__FILE.h", directory: "", checksumkind: CSK_MD5, checksum: "72a8fe90981f484acae7c6f3dfc5c2b7")
!1529 = !DICompositeType(tag: DW_TAG_structure_type, name: "_IO_FILE", file: !1530, line: 49, size: 1728, flags: DIFlagFwdDecl, identifier: "_ZTS8_IO_FILE")
!1530 = !DIFile(filename: "/usr/include/x86_64-linux-gnu/bits/types/struct_FILE.h", directory: "", checksumkind: CSK_MD5, checksum: "1bad07471b7974df4ecc1d1c2ca207e6")
!1531 = !DIImportedEntity(tag: DW_TAG_imported_declaration, scope: !2, entity: !1532, file: !1513, line: 145)
!1532 = !DISubprogram(name: "fgetws", scope: !1519, file: !1519, line: 773, type: !1533, flags: DIFlagPrototyped, spFlags: 0)
!1533 = !DISubroutineType(types: !1534)
!1534 = !{!1023, !1022, !186, !1535}
!1535 = !DIDerivedType(tag: DW_TAG_restrict_type, baseType: !1526)
!1536 = !DIImportedEntity(tag: DW_TAG_imported_declaration, scope: !2, entity: !1537, file: !1513, line: 146)
!1537 = !DISubprogram(name: "fputwc", scope: !1519, file: !1519, line: 758, type: !1538, flags: DIFlagPrototyped, spFlags: 0)
!1538 = !DISubroutineType(types: !1539)
!1539 = !{!1515, !1024, !1526}
!1540 = !DIImportedEntity(tag: DW_TAG_imported_declaration, scope: !2, entity: !1541, file: !1513, line: 147)
!1541 = !DISubprogram(name: "fputws", scope: !1519, file: !1519, line: 780, type: !1542, flags: DIFlagPrototyped, spFlags: 0)
!1542 = !DISubroutineType(types: !1543)
!1543 = !{!186, !1065, !1535}
!1544 = !DIImportedEntity(tag: DW_TAG_imported_declaration, scope: !2, entity: !1545, file: !1513, line: 148)
!1545 = !DISubprogram(name: "fwide", scope: !1519, file: !1519, line: 588, type: !1546, flags: DIFlagPrototyped, spFlags: 0)
!1546 = !DISubroutineType(types: !1547)
!1547 = !{!186, !1526, !186}
!1548 = !DIImportedEntity(tag: DW_TAG_imported_declaration, scope: !2, entity: !1549, file: !1513, line: 149)
!1549 = !DISubprogram(name: "fwprintf", scope: !1519, file: !1519, line: 595, type: !1550, flags: DIFlagPrototyped, spFlags: 0)
!1550 = !DISubroutineType(types: !1551)
!1551 = !{!186, !1535, !1065, null}
!1552 = !DIImportedEntity(tag: DW_TAG_imported_declaration, scope: !2, entity: !1553, file: !1513, line: 150)
!1553 = !DISubprogram(name: "fwscanf", linkageName: "__isoc99_fwscanf", scope: !1519, file: !1519, line: 657, type: !1550, flags: DIFlagPrototyped, spFlags: 0)
!1554 = !DIImportedEntity(tag: DW_TAG_imported_declaration, scope: !2, entity: !1555, file: !1513, line: 151)
!1555 = !DISubprogram(name: "getwc", scope: !1519, file: !1519, line: 745, type: !1524, flags: DIFlagPrototyped, spFlags: 0)
!1556 = !DIImportedEntity(tag: DW_TAG_imported_declaration, scope: !2, entity: !1557, file: !1513, line: 152)
!1557 = !DISubprogram(name: "getwchar", scope: !1519, file: !1519, line: 751, type: !1558, flags: DIFlagPrototyped, spFlags: 0)
!1558 = !DISubroutineType(types: !1559)
!1559 = !{!1515}
!1560 = !DIImportedEntity(tag: DW_TAG_imported_declaration, scope: !2, entity: !1561, file: !1513, line: 153)
!1561 = !DISubprogram(name: "mbrlen", scope: !1519, file: !1519, line: 308, type: !1562, flags: DIFlagPrototyped, spFlags: 0)
!1562 = !DISubroutineType(types: !1563)
!1563 = !{!853, !880, !853, !1564}
!1564 = !DIDerivedType(tag: DW_TAG_restrict_type, baseType: !1565)
!1565 = !DIDerivedType(tag: DW_TAG_pointer_type, baseType: !1500, size: 64)
!1566 = !DIImportedEntity(tag: DW_TAG_imported_declaration, scope: !2, entity: !1567, file: !1513, line: 154)
!1567 = !DISubprogram(name: "mbrtowc", scope: !1519, file: !1519, line: 297, type: !1568, flags: DIFlagPrototyped, spFlags: 0)
!1568 = !DISubroutineType(types: !1569)
!1569 = !{!853, !1022, !880, !853, !1564}
!1570 = !DIImportedEntity(tag: DW_TAG_imported_declaration, scope: !2, entity: !1571, file: !1513, line: 155)
!1571 = !DISubprogram(name: "mbsinit", scope: !1519, file: !1519, line: 293, type: !1572, flags: DIFlagPrototyped, spFlags: 0)
!1572 = !DISubroutineType(types: !1573)
!1573 = !{!186, !1574}
!1574 = !DIDerivedType(tag: DW_TAG_pointer_type, baseType: !1575, size: 64)
!1575 = !DIDerivedType(tag: DW_TAG_const_type, baseType: !1500)
!1576 = !DIImportedEntity(tag: DW_TAG_imported_declaration, scope: !2, entity: !1577, file: !1513, line: 156)
!1577 = !DISubprogram(name: "mbsrtowcs", scope: !1519, file: !1519, line: 338, type: !1578, flags: DIFlagPrototyped, spFlags: 0)
!1578 = !DISubroutineType(types: !1579)
!1579 = !{!853, !1022, !1580, !853, !1564}
!1580 = !DIDerivedType(tag: DW_TAG_restrict_type, baseType: !1581)
!1581 = !DIDerivedType(tag: DW_TAG_pointer_type, baseType: !106, size: 64)
!1582 = !DIImportedEntity(tag: DW_TAG_imported_declaration, scope: !2, entity: !1583, file: !1513, line: 157)
!1583 = !DISubprogram(name: "putwc", scope: !1519, file: !1519, line: 759, type: !1538, flags: DIFlagPrototyped, spFlags: 0)
!1584 = !DIImportedEntity(tag: DW_TAG_imported_declaration, scope: !2, entity: !1585, file: !1513, line: 158)
!1585 = !DISubprogram(name: "putwchar", scope: !1519, file: !1519, line: 765, type: !1586, flags: DIFlagPrototyped, spFlags: 0)
!1586 = !DISubroutineType(types: !1587)
!1587 = !{!1515, !1024}
!1588 = !DIImportedEntity(tag: DW_TAG_imported_declaration, scope: !2, entity: !1589, file: !1513, line: 160)
!1589 = !DISubprogram(name: "swprintf", scope: !1519, file: !1519, line: 605, type: !1590, flags: DIFlagPrototyped, spFlags: 0)
!1590 = !DISubroutineType(types: !1591)
!1591 = !{!186, !1022, !853, !1065, null}
!1592 = !DIImportedEntity(tag: DW_TAG_imported_declaration, scope: !2, entity: !1593, file: !1513, line: 162)
!1593 = !DISubprogram(name: "swscanf", linkageName: "__isoc99_swscanf", scope: !1519, file: !1519, line: 664, type: !1594, flags: DIFlagPrototyped, spFlags: 0)
!1594 = !DISubroutineType(types: !1595)
!1595 = !{!186, !1065, !1065, null}
!1596 = !DIImportedEntity(tag: DW_TAG_imported_declaration, scope: !2, entity: !1597, file: !1513, line: 163)
!1597 = !DISubprogram(name: "ungetwc", scope: !1519, file: !1519, line: 788, type: !1598, flags: DIFlagPrototyped, spFlags: 0)
!1598 = !DISubroutineType(types: !1599)
!1599 = !{!1515, !1515, !1526}
!1600 = !DIImportedEntity(tag: DW_TAG_imported_declaration, scope: !2, entity: !1601, file: !1513, line: 164)
!1601 = !DISubprogram(name: "vfwprintf", scope: !1519, file: !1519, line: 613, type: !1602, flags: DIFlagPrototyped, spFlags: 0)
!1602 = !DISubroutineType(types: !1603)
!1603 = !{!186, !1535, !1065, !1604}
!1604 = !DIDerivedType(tag: DW_TAG_pointer_type, baseType: !1605, size: 64)
!1605 = distinct !DICompositeType(tag: DW_TAG_structure_type, name: "__va_list_tag", size: 192, flags: DIFlagTypePassByValue, elements: !1606, identifier: "_ZTS13__va_list_tag")
!1606 = !{!1607, !1609, !1610, !1611}
!1607 = !DIDerivedType(tag: DW_TAG_member, name: "gp_offset", scope: !1605, file: !1608, baseType: !693, size: 32)
!1608 = !DIFile(filename: "RTTL/BVH/Builder/Builder.cxx", directory: "/home/raj/SVF_PAPER_BENCHMARKS/parsec-3.0/pkgs/apps/raytrace/src")
!1609 = !DIDerivedType(tag: DW_TAG_member, name: "fp_offset", scope: !1605, file: !1608, baseType: !693, size: 32, offset: 32)
!1610 = !DIDerivedType(tag: DW_TAG_member, name: "overflow_arg_area", scope: !1605, file: !1608, baseType: !864, size: 64, offset: 64)
!1611 = !DIDerivedType(tag: DW_TAG_member, name: "reg_save_area", scope: !1605, file: !1608, baseType: !864, size: 64, offset: 128)
!1612 = !DIImportedEntity(tag: DW_TAG_imported_declaration, scope: !2, entity: !1613, file: !1513, line: 166)
!1613 = !DISubprogram(name: "vfwscanf", linkageName: "__isoc99_vfwscanf", scope: !1519, file: !1519, line: 711, type: !1602, flags: DIFlagPrototyped, spFlags: 0)
!1614 = !DIImportedEntity(tag: DW_TAG_imported_declaration, scope: !2, entity: !1615, file: !1513, line: 169)
!1615 = !DISubprogram(name: "vswprintf", scope: !1519, file: !1519, line: 626, type: !1616, flags: DIFlagPrototyped, spFlags: 0)
!1616 = !DISubroutineType(types: !1617)
!1617 = !{!186, !1022, !853, !1065, !1604}
!1618 = !DIImportedEntity(tag: DW_TAG_imported_declaration, scope: !2, entity: !1619, file: !1513, line: 172)
!1619 = !DISubprogram(name: "vswscanf", linkageName: "__isoc99_vswscanf", scope: !1519, file: !1519, line: 718, type: !1620, flags: DIFlagPrototyped, spFlags: 0)
!1620 = !DISubroutineType(types: !1621)
!1621 = !{!186, !1065, !1065, !1604}
!1622 = !DIImportedEntity(tag: DW_TAG_imported_declaration, scope: !2, entity: !1623, file: !1513, line: 174)
!1623 = !DISubprogram(name: "vwprintf", scope: !1519, file: !1519, line: 621, type: !1624, flags: DIFlagPrototyped, spFlags: 0)
!1624 = !DISubroutineType(types: !1625)
!1625 = !{!186, !1065, !1604}
!1626 = !DIImportedEntity(tag: DW_TAG_imported_declaration, scope: !2, entity: !1627, file: !1513, line: 176)
!1627 = !DISubprogram(name: "vwscanf", linkageName: "__isoc99_vwscanf", scope: !1519, file: !1519, line: 715, type: !1624, flags: DIFlagPrototyped, spFlags: 0)
!1628 = !DIImportedEntity(tag: DW_TAG_imported_declaration, scope: !2, entity: !1629, file: !1513, line: 178)
!1629 = !DISubprogram(name: "wcrtomb", scope: !1519, file: !1519, line: 302, type: !1630, flags: DIFlagPrototyped, spFlags: 0)
!1630 = !DISubroutineType(types: !1631)
!1631 = !{!853, !879, !1024, !1564}
!1632 = !DIImportedEntity(tag: DW_TAG_imported_declaration, scope: !2, entity: !1633, file: !1513, line: 179)
!1633 = !DISubprogram(name: "wcscat", scope: !1519, file: !1519, line: 97, type: !1634, flags: DIFlagPrototyped, spFlags: 0)
!1634 = !DISubroutineType(types: !1635)
!1635 = !{!1023, !1022, !1065}
!1636 = !DIImportedEntity(tag: DW_TAG_imported_declaration, scope: !2, entity: !1637, file: !1513, line: 180)
!1637 = !DISubprogram(name: "wcscmp", scope: !1519, file: !1519, line: 106, type: !1638, flags: DIFlagPrototyped, spFlags: 0)
!1638 = !DISubroutineType(types: !1639)
!1639 = !{!186, !1066, !1066}
!1640 = !DIImportedEntity(tag: DW_TAG_imported_declaration, scope: !2, entity: !1641, file: !1513, line: 181)
!1641 = !DISubprogram(name: "wcscoll", scope: !1519, file: !1519, line: 131, type: !1638, flags: DIFlagPrototyped, spFlags: 0)
!1642 = !DIImportedEntity(tag: DW_TAG_imported_declaration, scope: !2, entity: !1643, file: !1513, line: 182)
!1643 = !DISubprogram(name: "wcscpy", scope: !1519, file: !1519, line: 87, type: !1634, flags: DIFlagPrototyped, spFlags: 0)
!1644 = !DIImportedEntity(tag: DW_TAG_imported_declaration, scope: !2, entity: !1645, file: !1513, line: 183)
!1645 = !DISubprogram(name: "wcscspn", scope: !1519, file: !1519, line: 188, type: !1646, flags: DIFlagPrototyped, spFlags: 0)
!1646 = !DISubroutineType(types: !1647)
!1647 = !{!853, !1066, !1066}
!1648 = !DIImportedEntity(tag: DW_TAG_imported_declaration, scope: !2, entity: !1649, file: !1513, line: 184)
!1649 = !DISubprogram(name: "wcsftime", scope: !1519, file: !1519, line: 852, type: !1650, flags: DIFlagPrototyped, spFlags: 0)
!1650 = !DISubroutineType(types: !1651)
!1651 = !{!853, !1022, !853, !1065, !1652}
!1652 = !DIDerivedType(tag: DW_TAG_restrict_type, baseType: !1653)
!1653 = !DIDerivedType(tag: DW_TAG_pointer_type, baseType: !1654, size: 64)
!1654 = !DIDerivedType(tag: DW_TAG_const_type, baseType: !1655)
!1655 = !DICompositeType(tag: DW_TAG_structure_type, name: "tm", file: !1519, line: 83, flags: DIFlagFwdDecl | DIFlagNonTrivial, identifier: "_ZTS2tm")
!1656 = !DIImportedEntity(tag: DW_TAG_imported_declaration, scope: !2, entity: !1657, file: !1513, line: 185)
!1657 = !DISubprogram(name: "wcslen", scope: !1519, file: !1519, line: 223, type: !1658, flags: DIFlagPrototyped, spFlags: 0)
!1658 = !DISubroutineType(types: !1659)
!1659 = !{!853, !1066}
!1660 = !DIImportedEntity(tag: DW_TAG_imported_declaration, scope: !2, entity: !1661, file: !1513, line: 186)
!1661 = !DISubprogram(name: "wcsncat", scope: !1519, file: !1519, line: 101, type: !1662, flags: DIFlagPrototyped, spFlags: 0)
!1662 = !DISubroutineType(types: !1663)
!1663 = !{!1023, !1022, !1065, !853}
!1664 = !DIImportedEntity(tag: DW_TAG_imported_declaration, scope: !2, entity: !1665, file: !1513, line: 187)
!1665 = !DISubprogram(name: "wcsncmp", scope: !1519, file: !1519, line: 109, type: !1666, flags: DIFlagPrototyped, spFlags: 0)
!1666 = !DISubroutineType(types: !1667)
!1667 = !{!186, !1066, !1066, !853}
!1668 = !DIImportedEntity(tag: DW_TAG_imported_declaration, scope: !2, entity: !1669, file: !1513, line: 188)
!1669 = !DISubprogram(name: "wcsncpy", scope: !1519, file: !1519, line: 92, type: !1662, flags: DIFlagPrototyped, spFlags: 0)
!1670 = !DIImportedEntity(tag: DW_TAG_imported_declaration, scope: !2, entity: !1671, file: !1513, line: 189)
!1671 = !DISubprogram(name: "wcsrtombs", scope: !1519, file: !1519, line: 344, type: !1672, flags: DIFlagPrototyped, spFlags: 0)
!1672 = !DISubroutineType(types: !1673)
!1673 = !{!853, !879, !1674, !853, !1564}
!1674 = !DIDerivedType(tag: DW_TAG_restrict_type, baseType: !1675)
!1675 = !DIDerivedType(tag: DW_TAG_pointer_type, baseType: !1066, size: 64)
!1676 = !DIImportedEntity(tag: DW_TAG_imported_declaration, scope: !2, entity: !1677, file: !1513, line: 190)
!1677 = !DISubprogram(name: "wcsspn", scope: !1519, file: !1519, line: 192, type: !1646, flags: DIFlagPrototyped, spFlags: 0)
!1678 = !DIImportedEntity(tag: DW_TAG_imported_declaration, scope: !2, entity: !1679, file: !1513, line: 191)
!1679 = !DISubprogram(name: "wcstod", scope: !1519, file: !1519, line: 378, type: !1680, flags: DIFlagPrototyped, spFlags: 0)
!1680 = !DISubroutineType(types: !1681)
!1681 = !{!967, !1065, !1682}
!1682 = !DIDerivedType(tag: DW_TAG_restrict_type, baseType: !1683)
!1683 = !DIDerivedType(tag: DW_TAG_pointer_type, baseType: !1023, size: 64)
!1684 = !DIImportedEntity(tag: DW_TAG_imported_declaration, scope: !2, entity: !1685, file: !1513, line: 193)
!1685 = !DISubprogram(name: "wcstof", scope: !1519, file: !1519, line: 383, type: !1686, flags: DIFlagPrototyped, spFlags: 0)
!1686 = !DISubroutineType(types: !1687)
!1687 = !{!704, !1065, !1682}
!1688 = !DIImportedEntity(tag: DW_TAG_imported_declaration, scope: !2, entity: !1689, file: !1513, line: 195)
!1689 = !DISubprogram(name: "wcstok", scope: !1519, file: !1519, line: 218, type: !1690, flags: DIFlagPrototyped, spFlags: 0)
!1690 = !DISubroutineType(types: !1691)
!1691 = !{!1023, !1022, !1065, !1682}
!1692 = !DIImportedEntity(tag: DW_TAG_imported_declaration, scope: !2, entity: !1693, file: !1513, line: 196)
!1693 = !DISubprogram(name: "wcstol", scope: !1519, file: !1519, line: 429, type: !1694, flags: DIFlagPrototyped, spFlags: 0)
!1694 = !DISubroutineType(types: !1695)
!1695 = !{!946, !1065, !1682, !186}
!1696 = !DIImportedEntity(tag: DW_TAG_imported_declaration, scope: !2, entity: !1697, file: !1513, line: 197)
!1697 = !DISubprogram(name: "wcstoul", scope: !1519, file: !1519, line: 434, type: !1698, flags: DIFlagPrototyped, spFlags: 0)
!1698 = !DISubroutineType(types: !1699)
!1699 = !{!43, !1065, !1682, !186}
!1700 = !DIImportedEntity(tag: DW_TAG_imported_declaration, scope: !2, entity: !1701, file: !1513, line: 198)
!1701 = !DISubprogram(name: "wcsxfrm", scope: !1519, file: !1519, line: 135, type: !1702, flags: DIFlagPrototyped, spFlags: 0)
!1702 = !DISubroutineType(types: !1703)
!1703 = !{!853, !1022, !1065, !853}
!1704 = !DIImportedEntity(tag: DW_TAG_imported_declaration, scope: !2, entity: !1705, file: !1513, line: 199)
!1705 = !DISubprogram(name: "wctob", scope: !1519, file: !1519, line: 289, type: !1706, flags: DIFlagPrototyped, spFlags: 0)
!1706 = !DISubroutineType(types: !1707)
!1707 = !{!186, !1515}
!1708 = !DIImportedEntity(tag: DW_TAG_imported_declaration, scope: !2, entity: !1709, file: !1513, line: 200)
!1709 = !DISubprogram(name: "wmemcmp", scope: !1519, file: !1519, line: 259, type: !1666, flags: DIFlagPrototyped, spFlags: 0)
!1710 = !DIImportedEntity(tag: DW_TAG_imported_declaration, scope: !2, entity: !1711, file: !1513, line: 201)
!1711 = !DISubprogram(name: "wmemcpy", scope: !1519, file: !1519, line: 263, type: !1662, flags: DIFlagPrototyped, spFlags: 0)
!1712 = !DIImportedEntity(tag: DW_TAG_imported_declaration, scope: !2, entity: !1713, file: !1513, line: 202)
!1713 = !DISubprogram(name: "wmemmove", scope: !1519, file: !1519, line: 268, type: !1714, flags: DIFlagPrototyped, spFlags: 0)
!1714 = !DISubroutineType(types: !1715)
!1715 = !{!1023, !1023, !1066, !853}
!1716 = !DIImportedEntity(tag: DW_TAG_imported_declaration, scope: !2, entity: !1717, file: !1513, line: 203)
!1717 = !DISubprogram(name: "wmemset", scope: !1519, file: !1519, line: 272, type: !1718, flags: DIFlagPrototyped, spFlags: 0)
!1718 = !DISubroutineType(types: !1719)
!1719 = !{!1023, !1023, !1024, !853}
!1720 = !DIImportedEntity(tag: DW_TAG_imported_declaration, scope: !2, entity: !1721, file: !1513, line: 204)
!1721 = !DISubprogram(name: "wprintf", scope: !1519, file: !1519, line: 602, type: !1722, flags: DIFlagPrototyped, spFlags: 0)
!1722 = !DISubroutineType(types: !1723)
!1723 = !{!186, !1065, null}
!1724 = !DIImportedEntity(tag: DW_TAG_imported_declaration, scope: !2, entity: !1725, file: !1513, line: 205)
!1725 = !DISubprogram(name: "wscanf", linkageName: "__isoc99_wscanf", scope: !1519, file: !1519, line: 661, type: !1722, flags: DIFlagPrototyped, spFlags: 0)
!1726 = !DIImportedEntity(tag: DW_TAG_imported_declaration, scope: !2, entity: !1727, file: !1513, line: 206)
!1727 = !DISubprogram(name: "wcschr", scope: !1519, file: !1519, line: 165, type: !1728, flags: DIFlagPrototyped, spFlags: 0)
!1728 = !DISubroutineType(types: !1729)
!1729 = !{!1023, !1066, !1024}
