; ModuleID = '/home/raj/SVF_PAPER_BENCHMARKS/parsec-3.0/pkgs/apps/raytrace/src/RTTL/BVH/BVH.cxx'
source_filename = "/home/raj/SVF_PAPER_BENCHMARKS/parsec-3.0/pkgs/apps/raytrace/src/RTTL/BVH/BVH.cxx"
target datalayout = "e-m:e-p270:32:32-p271:32:32-p272:64:64-i64:64-f80:128-n8:16:32:64-S128"
target triple = "x86_64-unknown-linux-gnu"

%"class.std::ios_base::Init" = type { i8 }
%struct.sse_f = type { [4 x float] }
%"class.RTTL::BVHStatCollector" = type { i32, i32, i32, i32, i32, i32, i32 }
%"struct.RTTL::BVH" = type { ptr, ptr, ptr, i32, ptr }

$_Z12aligned_freeIN4RTTL4AABBEEvPT_ = comdat any

$_Z14aligned_mallocIN4RTTL4AABBEEPT_i = comdat any

$_Z14aligned_mallocIiEPT_i = comdat any

$_ZN5sse_fC2Ev = comdat any

@_ZStL8__ioinit = internal global %"class.std::ios_base::Init" zeroinitializer, align 1, !dbg !0
@__dso_handle = external hidden global i8
@_ZL8maxFloat = internal global %struct.sse_f zeroinitializer, align 4, !dbg !7
@_ZN4RTTL16BVHStatCollector6globalE = dso_local global %"class.RTTL::BVHStatCollector" zeroinitializer, align 4, !dbg !31
@.str = private unnamed_addr constant [8 x i8] c"default\00", align 1, !dbg !49
@_ZTVN4RTTL3BVHE = dso_local unnamed_addr constant { [6 x ptr] } { [6 x ptr] [ptr null, ptr @_ZTIN4RTTL3BVHE, ptr @_ZN4RTTL3BVH5buildERKNS_7RTBox3aES3_, ptr @__cxa_pure_virtual, ptr @__cxa_pure_virtual, ptr @__cxa_pure_virtual] }, align 8
@_ZTVN10__cxxabiv117__class_type_infoE = external global ptr
@_ZTSN4RTTL3BVHE = dso_local constant [12 x i8] c"N4RTTL3BVHE\00", align 1
@_ZTIN4RTTL3BVHE = dso_local constant { ptr, ptr } { ptr getelementptr inbounds (ptr, ptr @_ZTVN10__cxxabiv117__class_type_infoE, i64 2), ptr @_ZTSN4RTTL3BVHE }, align 8
@llvm.global_ctors = appending global [1 x { i32, ptr, ptr }] [{ i32, ptr, ptr } { i32 65535, ptr @_GLOBAL__sub_I_BVH.cxx, ptr null }]

; Function Attrs: noinline uwtable
define internal void @__cxx_global_var_init() #0 section ".text.startup" !dbg !1281 {
  call void @_ZNSt8ios_base4InitC1Ev(ptr noundef nonnull align 1 dereferenceable(1) @_ZStL8__ioinit), !dbg !1283
  %1 = call i32 @__cxa_atexit(ptr @_ZNSt8ios_base4InitD1Ev, ptr @_ZStL8__ioinit, ptr @__dso_handle) #3, !dbg !1285
  ret void, !dbg !1283
}

declare void @_ZNSt8ios_base4InitC1Ev(ptr noundef nonnull align 1 dereferenceable(1)) unnamed_addr #1

; Function Attrs: nounwind
declare void @_ZNSt8ios_base4InitD1Ev(ptr noundef nonnull align 1 dereferenceable(1)) unnamed_addr #2

; Function Attrs: nounwind
declare i32 @__cxa_atexit(ptr, ptr, ptr) #3

; Function Attrs: noinline uwtable
define internal void @__cxx_global_var_init.1() #4 section ".text.startup" !dbg !1286 {
  %1 = alloca %struct.sse_f, align 4
  %2 = alloca float, align 4
  %3 = alloca i32, align 4
  store float 0x47EFFFFFE0000000, ptr %2, align 4
  call void @llvm.dbg.declare(metadata ptr %2, metadata !1287, metadata !DIExpression()), !dbg !1291
  call void @llvm.dbg.declare(metadata ptr %1, metadata !1294, metadata !DIExpression()), !dbg !1295
  call void @_ZN5sse_fC2Ev(ptr noundef nonnull align 4 dereferenceable(16) %1), !dbg !1295
  call void @llvm.dbg.declare(metadata ptr %3, metadata !1296, metadata !DIExpression()), !dbg !1298
  store i32 0, ptr %3, align 4, !dbg !1298
  br label %4, !dbg !1299

4:                                                ; preds = %7, %0
  %5 = load i32, ptr %3, align 4, !dbg !1300
  %6 = icmp slt i32 %5, 4, !dbg !1302
  br i1 %6, label %7, label %14, !dbg !1303

7:                                                ; preds = %4
  %8 = load float, ptr %2, align 4, !dbg !1304
  %9 = load i32, ptr %3, align 4, !dbg !1305
  %10 = sext i32 %9 to i64, !dbg !1306
  %11 = getelementptr inbounds [4 x float], ptr %1, i64 0, i64 %10, !dbg !1306
  store float %8, ptr %11, align 4, !dbg !1307
  %12 = load i32, ptr %3, align 4, !dbg !1308
  %13 = add nsw i32 %12, 1, !dbg !1308
  store i32 %13, ptr %3, align 4, !dbg !1308
  br label %4, !dbg !1309, !llvm.loop !1310

14:                                               ; preds = %4
  %15 = load { <2 x float>, <2 x float> }, ptr %1, align 4, !dbg !1313
  %16 = extractvalue { <2 x float>, <2 x float> } %15, 0, !dbg !1314
  store <2 x float> %16, ptr @_ZL8maxFloat, align 4, !dbg !1314
  %17 = extractvalue { <2 x float>, <2 x float> } %15, 1, !dbg !1314
  store <2 x float> %17, ptr getelementptr inbounds ({ <2 x float>, <2 x float> }, ptr @_ZL8maxFloat, i32 0, i32 1), align 4, !dbg !1314
  ret void, !dbg !1315
}

; Function Attrs: mustprogress noinline optnone uwtable
define dso_local void @_ZN4RTTL3BVH5buildERKNS_7RTBox3aES3_(ptr noundef nonnull align 8 dereferenceable(40) %0, ptr noundef nonnull align 4 dereferenceable(32) %1, ptr noundef nonnull align 4 dereferenceable(32) %2) unnamed_addr #5 align 2 !dbg !1316 {
  %4 = alloca ptr, align 8
  %5 = alloca ptr, align 8
  %6 = alloca ptr, align 8
  store ptr %0, ptr %4, align 8
  call void @llvm.dbg.declare(metadata ptr %4, metadata !1388, metadata !DIExpression()), !dbg !1390
  store ptr %1, ptr %5, align 8
  call void @llvm.dbg.declare(metadata ptr %5, metadata !1391, metadata !DIExpression()), !dbg !1392
  store ptr %2, ptr %6, align 8
  call void @llvm.dbg.declare(metadata ptr %6, metadata !1393, metadata !DIExpression()), !dbg !1394
  %7 = load ptr, ptr %4, align 8
  %8 = getelementptr inbounds %"struct.RTTL::BVH", ptr %7, i32 0, i32 4, !dbg !1395
  %9 = load ptr, ptr %8, align 8, !dbg !1395
  %10 = icmp eq ptr %9, null, !dbg !1397
  br i1 %10, label %11, label %12, !dbg !1398

11:                                               ; preds = %3
  call void @_ZN4RTTL3BVH10setBuilderEPKc(ptr noundef nonnull align 8 dereferenceable(40) %7, ptr noundef @.str), !dbg !1399
  br label %12, !dbg !1399

12:                                               ; preds = %11, %3
  %13 = getelementptr inbounds %"struct.RTTL::BVH", ptr %7, i32 0, i32 4, !dbg !1400
  %14 = load ptr, ptr %13, align 8, !dbg !1400
  %15 = load ptr, ptr %5, align 8, !dbg !1401
  %16 = load ptr, ptr %6, align 8, !dbg !1402
  %17 = load ptr, ptr %14, align 8, !dbg !1403
  %18 = getelementptr inbounds ptr, ptr %17, i64 0, !dbg !1403
  %19 = load ptr, ptr %18, align 8, !dbg !1403
  call void %19(ptr noundef nonnull align 8 dereferenceable(16) %14, ptr noundef nonnull align 4 dereferenceable(32) %15, ptr noundef nonnull align 4 dereferenceable(32) %16), !dbg !1403
  ret void, !dbg !1404
}

; Function Attrs: nocallback nofree nosync nounwind speculatable willreturn memory(none)
declare void @llvm.dbg.declare(metadata, metadata, metadata) #6

; Function Attrs: mustprogress noinline optnone uwtable
define dso_local void @_ZN4RTTL3BVH10setBuilderEPKc(ptr noundef nonnull align 8 dereferenceable(40) %0, ptr noundef %1) #5 align 2 !dbg !1405 {
  %3 = alloca ptr, align 8
  %4 = alloca ptr, align 8
  store ptr %0, ptr %3, align 8
  call void @llvm.dbg.declare(metadata ptr %3, metadata !1406, metadata !DIExpression()), !dbg !1407
  store ptr %1, ptr %4, align 8
  call void @llvm.dbg.declare(metadata ptr %4, metadata !1408, metadata !DIExpression()), !dbg !1409
  %5 = load ptr, ptr %3, align 8
  %6 = getelementptr inbounds %"struct.RTTL::BVH", ptr %5, i32 0, i32 4, !dbg !1410
  %7 = load ptr, ptr %6, align 8, !dbg !1410
  %8 = icmp ne ptr %7, null, !dbg !1410
  br i1 %8, label %9, label %15, !dbg !1412

9:                                                ; preds = %2
  %10 = getelementptr inbounds %"struct.RTTL::BVH", ptr %5, i32 0, i32 4, !dbg !1413
  %11 = load ptr, ptr %10, align 8, !dbg !1413
  %12 = icmp eq ptr %11, null, !dbg !1414
  br i1 %12, label %14, label %13, !dbg !1414

13:                                               ; preds = %9
  call void @_ZdlPv(ptr noundef %11) #12, !dbg !1414
  br label %14, !dbg !1414

14:                                               ; preds = %13, %9
  br label %15, !dbg !1414

15:                                               ; preds = %14, %2
  %16 = load ptr, ptr %4, align 8, !dbg !1415
  %17 = call noundef ptr @_ZN4RTTL10BVHBuilder3getEPKcPNS_3BVHE(ptr noundef %16, ptr noundef %5), !dbg !1416
  %18 = getelementptr inbounds %"struct.RTTL::BVH", ptr %5, i32 0, i32 4, !dbg !1417
  store ptr %17, ptr %18, align 8, !dbg !1418
  ret void, !dbg !1419
}

; Function Attrs: nobuiltin nounwind
declare void @_ZdlPv(ptr noundef) #7

declare noundef ptr @_ZN4RTTL10BVHBuilder3getEPKcPNS_3BVHE(ptr noundef, ptr noundef) #1

; Function Attrs: mustprogress noinline optnone uwtable
define dso_local void @_ZN4RTTL3BVH7reserveEi(ptr noundef nonnull align 8 dereferenceable(40) %0, i32 noundef %1) #5 align 2 !dbg !1420 {
  %3 = alloca ptr, align 8
  %4 = alloca i32, align 4
  store ptr %0, ptr %3, align 8
  call void @llvm.dbg.declare(metadata ptr %3, metadata !1421, metadata !DIExpression()), !dbg !1422
  store i32 %1, ptr %4, align 4
  call void @llvm.dbg.declare(metadata ptr %4, metadata !1423, metadata !DIExpression()), !dbg !1424
  %5 = load ptr, ptr %3, align 8
  %6 = load i32, ptr %4, align 4, !dbg !1425
  %7 = getelementptr inbounds %"struct.RTTL::BVH", ptr %5, i32 0, i32 3, !dbg !1427
  %8 = load i32, ptr %7, align 8, !dbg !1427
  %9 = icmp sgt i32 %6, %8, !dbg !1428
  br i1 %9, label %10, label %34, !dbg !1429

10:                                               ; preds = %2
  %11 = getelementptr inbounds %"struct.RTTL::BVH", ptr %5, i32 0, i32 1, !dbg !1430
  %12 = load ptr, ptr %11, align 8, !dbg !1430
  %13 = icmp ne ptr %12, null, !dbg !1430
  br i1 %13, label %14, label %17, !dbg !1433

14:                                               ; preds = %10
  %15 = getelementptr inbounds %"struct.RTTL::BVH", ptr %5, i32 0, i32 1, !dbg !1434
  %16 = load ptr, ptr %15, align 8, !dbg !1434
  call void @_Z12aligned_freeIN4RTTL4AABBEEvPT_(ptr noundef %16), !dbg !1435
  br label %17, !dbg !1435

17:                                               ; preds = %14, %10
  %18 = getelementptr inbounds %"struct.RTTL::BVH", ptr %5, i32 0, i32 2, !dbg !1436
  %19 = load ptr, ptr %18, align 8, !dbg !1436
  %20 = icmp ne ptr %19, null, !dbg !1436
  br i1 %20, label %21, label %24, !dbg !1438

21:                                               ; preds = %17
  %22 = getelementptr inbounds %"struct.RTTL::BVH", ptr %5, i32 0, i32 1, !dbg !1439
  %23 = load ptr, ptr %22, align 8, !dbg !1439
  call void @_Z12aligned_freeIN4RTTL4AABBEEvPT_(ptr noundef %23), !dbg !1440
  br label %24, !dbg !1440

24:                                               ; preds = %21, %17
  %25 = load i32, ptr %4, align 4, !dbg !1441
  %26 = mul nsw i32 2, %25, !dbg !1442
  %27 = call noundef ptr @_Z14aligned_mallocIN4RTTL4AABBEEPT_i(i32 noundef %26), !dbg !1443
  %28 = getelementptr inbounds %"struct.RTTL::BVH", ptr %5, i32 0, i32 1, !dbg !1444
  store ptr %27, ptr %28, align 8, !dbg !1445
  %29 = load i32, ptr %4, align 4, !dbg !1446
  %30 = call noundef ptr @_Z14aligned_mallocIiEPT_i(i32 noundef %29), !dbg !1447
  %31 = getelementptr inbounds %"struct.RTTL::BVH", ptr %5, i32 0, i32 2, !dbg !1448
  store ptr %30, ptr %31, align 8, !dbg !1449
  %32 = load i32, ptr %4, align 4, !dbg !1450
  %33 = getelementptr inbounds %"struct.RTTL::BVH", ptr %5, i32 0, i32 3, !dbg !1451
  store i32 %32, ptr %33, align 8, !dbg !1452
  br label %34, !dbg !1453

34:                                               ; preds = %24, %2
  ret void, !dbg !1454
}

; Function Attrs: mustprogress noinline optnone uwtable
define linkonce_odr dso_local void @_Z12aligned_freeIN4RTTL4AABBEEvPT_(ptr noundef %0) #5 comdat !dbg !1455 {
  %2 = alloca ptr, align 8
  %3 = alloca ptr, align 8
  store ptr %0, ptr %3, align 8
  call void @llvm.dbg.declare(metadata ptr %3, metadata !1460, metadata !DIExpression()), !dbg !1461
  %4 = load ptr, ptr %3, align 8, !dbg !1462
  store ptr %4, ptr %2, align 8
  call void @llvm.dbg.declare(metadata ptr %2, metadata !1463, metadata !DIExpression()), !dbg !1465
  %5 = load ptr, ptr %2, align 8, !dbg !1467
  call void @free(ptr noundef %5) #3, !dbg !1468
  ret void, !dbg !1469
}

; Function Attrs: mustprogress noinline optnone uwtable
define linkonce_odr dso_local noundef ptr @_Z14aligned_mallocIN4RTTL4AABBEEPT_i(i32 noundef %0) #5 comdat !dbg !1470 {
  %2 = alloca i32, align 4
  %3 = alloca i32, align 4
  %4 = alloca i32, align 4
  store i32 %0, ptr %4, align 4
  call void @llvm.dbg.declare(metadata ptr %4, metadata !1473, metadata !DIExpression()), !dbg !1474
  %5 = load i32, ptr %4, align 4, !dbg !1475
  %6 = sext i32 %5 to i64, !dbg !1475
  %7 = mul i64 %6, 32, !dbg !1476
  %8 = trunc i64 %7 to i32, !dbg !1475
  store i32 %8, ptr %2, align 4
  call void @llvm.dbg.declare(metadata ptr %2, metadata !1477, metadata !DIExpression()), !dbg !1481
  store i32 64, ptr %3, align 4
  call void @llvm.dbg.declare(metadata ptr %3, metadata !1483, metadata !DIExpression()), !dbg !1484
  %9 = load i32, ptr %3, align 4, !dbg !1485
  %10 = sext i32 %9 to i64, !dbg !1485
  %11 = load i32, ptr %2, align 4, !dbg !1486
  %12 = sext i32 %11 to i64, !dbg !1486
  %13 = call noalias ptr @memalign(i64 noundef %10, i64 noundef %12) #13, !dbg !1487
  call void @llvm.assume(i1 true) [ "align"(ptr %13, i64 %10) ], !dbg !1487
  ret ptr %13, !dbg !1488
}

; Function Attrs: mustprogress noinline nounwind optnone uwtable
define linkonce_odr dso_local noundef ptr @_Z14aligned_mallocIiEPT_i(i32 noundef %0) #8 comdat !dbg !1489 {
  %2 = alloca i32, align 4
  %3 = alloca i32, align 4
  %4 = alloca i32, align 4
  store i32 %0, ptr %4, align 4
  call void @llvm.dbg.declare(metadata ptr %4, metadata !1494, metadata !DIExpression()), !dbg !1495
  %5 = load i32, ptr %4, align 4, !dbg !1496
  %6 = sext i32 %5 to i64, !dbg !1496
  %7 = mul i64 %6, 4, !dbg !1497
  %8 = trunc i64 %7 to i32, !dbg !1496
  store i32 %8, ptr %2, align 4
  call void @llvm.dbg.declare(metadata ptr %2, metadata !1477, metadata !DIExpression()), !dbg !1498
  store i32 64, ptr %3, align 4
  call void @llvm.dbg.declare(metadata ptr %3, metadata !1483, metadata !DIExpression()), !dbg !1500
  %9 = load i32, ptr %3, align 4, !dbg !1501
  %10 = sext i32 %9 to i64, !dbg !1501
  %11 = load i32, ptr %2, align 4, !dbg !1502
  %12 = sext i32 %11 to i64, !dbg !1502
  %13 = call noalias ptr @memalign(i64 noundef %10, i64 noundef %12) #13, !dbg !1503
  call void @llvm.assume(i1 true) [ "align"(ptr %13, i64 %10) ], !dbg !1503
  ret ptr %13, !dbg !1504
}

declare void @__cxa_pure_virtual() unnamed_addr

; Function Attrs: noinline nounwind optnone uwtable
define linkonce_odr dso_local void @_ZN5sse_fC2Ev(ptr noundef nonnull align 4 dereferenceable(16) %0) unnamed_addr #9 comdat align 2 !dbg !1505 {
  %2 = alloca ptr, align 8
  store ptr %0, ptr %2, align 8
  call void @llvm.dbg.declare(metadata ptr %2, metadata !1506, metadata !DIExpression()), !dbg !1508
  %3 = load ptr, ptr %2, align 8
  ret void, !dbg !1509
}

; Function Attrs: nounwind
declare void @free(ptr noundef) #2

; Function Attrs: nounwind allocsize(1)
declare noalias ptr @memalign(i64 noundef, i64 noundef) #10

; Function Attrs: nocallback nofree nosync nounwind willreturn memory(inaccessiblemem: readwrite)
declare void @llvm.assume(i1 noundef) #11

; Function Attrs: noinline uwtable
define internal void @_GLOBAL__sub_I_BVH.cxx() #0 section ".text.startup" !dbg !1510 {
  call void @__cxx_global_var_init(), !dbg !1512
  call void @__cxx_global_var_init.1(), !dbg !1512
  ret void
}

attributes #0 = { noinline uwtable "frame-pointer"="all" "min-legal-vector-width"="0" "no-trapping-math"="true" "stack-protector-buffer-size"="8" "target-cpu"="x86-64" "target-features"="+cx8,+fxsr,+mmx,+sse,+sse2,+x87" "tune-cpu"="generic" }
attributes #1 = { "frame-pointer"="all" "no-trapping-math"="true" "stack-protector-buffer-size"="8" "target-cpu"="x86-64" "target-features"="+cx8,+fxsr,+mmx,+sse,+sse2,+x87" "tune-cpu"="generic" }
attributes #2 = { nounwind "frame-pointer"="all" "no-trapping-math"="true" "stack-protector-buffer-size"="8" "target-cpu"="x86-64" "target-features"="+cx8,+fxsr,+mmx,+sse,+sse2,+x87" "tune-cpu"="generic" }
attributes #3 = { nounwind }
attributes #4 = { noinline uwtable "frame-pointer"="all" "min-legal-vector-width"="64" "no-trapping-math"="true" "stack-protector-buffer-size"="8" "target-cpu"="x86-64" "target-features"="+cx8,+fxsr,+mmx,+sse,+sse2,+x87" "tune-cpu"="generic" }
attributes #5 = { mustprogress noinline optnone uwtable "frame-pointer"="all" "min-legal-vector-width"="0" "no-trapping-math"="true" "stack-protector-buffer-size"="8" "target-cpu"="x86-64" "target-features"="+cx8,+fxsr,+mmx,+sse,+sse2,+x87" "tune-cpu"="generic" }
attributes #6 = { nocallback nofree nosync nounwind speculatable willreturn memory(none) }
attributes #7 = { nobuiltin nounwind "frame-pointer"="all" "no-trapping-math"="true" "stack-protector-buffer-size"="8" "target-cpu"="x86-64" "target-features"="+cx8,+fxsr,+mmx,+sse,+sse2,+x87" "tune-cpu"="generic" }
attributes #8 = { mustprogress noinline nounwind optnone uwtable "frame-pointer"="all" "min-legal-vector-width"="0" "no-trapping-math"="true" "stack-protector-buffer-size"="8" "target-cpu"="x86-64" "target-features"="+cx8,+fxsr,+mmx,+sse,+sse2,+x87" "tune-cpu"="generic" }
attributes #9 = { noinline nounwind optnone uwtable "frame-pointer"="all" "min-legal-vector-width"="0" "no-trapping-math"="true" "stack-protector-buffer-size"="8" "target-cpu"="x86-64" "target-features"="+cx8,+fxsr,+mmx,+sse,+sse2,+x87" "tune-cpu"="generic" }
attributes #10 = { nounwind allocsize(1) "frame-pointer"="all" "no-trapping-math"="true" "stack-protector-buffer-size"="8" "target-cpu"="x86-64" "target-features"="+cx8,+fxsr,+mmx,+sse,+sse2,+x87" "tune-cpu"="generic" }
attributes #11 = { nocallback nofree nosync nounwind willreturn memory(inaccessiblemem: readwrite) }
attributes #12 = { builtin nounwind }
attributes #13 = { nounwind allocsize(1) }

!llvm.dbg.cu = !{!9}
!llvm.module.flags = !{!1273, !1274, !1275, !1276, !1277, !1278, !1279}
!llvm.ident = !{!1280}

!0 = !DIGlobalVariableExpression(var: !1, expr: !DIExpression())
!1 = distinct !DIGlobalVariable(name: "__ioinit", linkageName: "_ZStL8__ioinit", scope: !2, file: !3, line: 74, type: !4, isLocal: true, isDefinition: true)
!2 = !DINamespace(name: "std", scope: null)
!3 = !DIFile(filename: "/usr/lib/gcc/x86_64-linux-gnu/11/../../../../include/c++/11/iostream", directory: "")
!4 = !DICompositeType(tag: DW_TAG_class_type, name: "Init", scope: !6, file: !5, line: 626, size: 8, flags: DIFlagFwdDecl | DIFlagNonTrivial, identifier: "_ZTSNSt8ios_base4InitE")
!5 = !DIFile(filename: "/usr/lib/gcc/x86_64-linux-gnu/11/../../../../include/c++/11/bits/ios_base.h", directory: "")
!6 = !DICompositeType(tag: DW_TAG_class_type, name: "ios_base", scope: !2, file: !5, line: 228, size: 1728, flags: DIFlagFwdDecl | DIFlagNonTrivial)
!7 = !DIGlobalVariableExpression(var: !8, expr: !DIExpression())
!8 = distinct !DIGlobalVariable(name: "maxFloat", linkageName: "_ZL8maxFloat", scope: !9, file: !1270, line: 38, type: !1271, isLocal: true, isDefinition: true)
!9 = distinct !DICompileUnit(language: DW_LANG_C_plus_plus_14, file: !10, producer: "clang version 16.0.0", isOptimized: false, runtimeVersion: 0, emissionKind: FullDebug, retainedTypes: !11, globals: !30, imports: !56, splitDebugInlining: false, nameTableKind: None)
!10 = !DIFile(filename: "/home/raj/SVF_PAPER_BENCHMARKS/parsec-3.0/pkgs/apps/raytrace/src/RTTL/BVH/BVH.cxx", directory: "/home/raj/SVF_PAPER_BENCHMARKS/parsec-3.0/pkgs/apps/raytrace/src/build/RTTL", checksumkind: CSK_MD5, checksum: "54ce5400e447f1197f896a096c741f6c")
!11 = !{!12, !16, !18}
!12 = !DIDerivedType(tag: DW_TAG_pointer_type, baseType: !13, size: 64)
!13 = !DICompositeType(tag: DW_TAG_class_type, name: "AABB", scope: !15, file: !14, line: 175, size: 256, flags: DIFlagFwdDecl | DIFlagNonTrivial, identifier: "_ZTSN4RTTL4AABBE")
!14 = !DIFile(filename: "RTTL/BVH/BVH.hxx", directory: "/home/raj/SVF_PAPER_BENCHMARKS/parsec-3.0/pkgs/apps/raytrace/src", checksumkind: CSK_MD5, checksum: "c3a2af3458e408a897501c5d46fd95a1")
!15 = !DINamespace(name: "RTTL", scope: null)
!16 = !DIDerivedType(tag: DW_TAG_pointer_type, baseType: !17, size: 64)
!17 = !DIBasicType(name: "int", size: 32, encoding: DW_ATE_signed)
!18 = distinct !DICompositeType(tag: DW_TAG_structure_type, name: "sse_f", file: !19, line: 20, size: 128, flags: DIFlagTypePassByValue | DIFlagNonTrivial, elements: !20, identifier: "_ZTS5sse_f")
!19 = !DIFile(filename: "RTTL/common/RTEmulatedSSE.hxx", directory: "/home/raj/SVF_PAPER_BENCHMARKS/parsec-3.0/pkgs/apps/raytrace/src", checksumkind: CSK_MD5, checksum: "899b754f585bbc37282aa5883c939129")
!20 = !{!21, !26}
!21 = !DIDerivedType(tag: DW_TAG_member, name: "f", scope: !18, file: !19, line: 23, baseType: !22, size: 128)
!22 = !DICompositeType(tag: DW_TAG_array_type, baseType: !23, size: 128, elements: !24)
!23 = !DIBasicType(name: "float", size: 32, encoding: DW_ATE_float)
!24 = !{!25}
!25 = !DISubrange(count: 4)
!26 = !DISubprogram(name: "sse_f", scope: !18, file: !19, line: 21, type: !27, scopeLine: 21, flags: DIFlagPrototyped, spFlags: 0)
!27 = !DISubroutineType(types: !28)
!28 = !{null, !29}
!29 = !DIDerivedType(tag: DW_TAG_pointer_type, baseType: !18, size: 64, flags: DIFlagArtificial | DIFlagObjectPointer)
!30 = !{!0, !7, !31, !49}
!31 = !DIGlobalVariableExpression(var: !32, expr: !DIExpression())
!32 = distinct !DIGlobalVariable(name: "global", linkageName: "_ZN4RTTL16BVHStatCollector6globalE", scope: !15, file: !33, line: 10, type: !34, isLocal: false, isDefinition: true, declaration: !36)
!33 = !DIFile(filename: "RTTL/BVH/BVH.cxx", directory: "/home/raj/SVF_PAPER_BENCHMARKS/parsec-3.0/pkgs/apps/raytrace/src", checksumkind: CSK_MD5, checksum: "54ce5400e447f1197f896a096c741f6c")
!34 = distinct !DICompositeType(tag: DW_TAG_class_type, name: "BVHStatCollector", scope: !15, file: !14, line: 109, size: 224, flags: DIFlagTypePassByValue, elements: !35, identifier: "_ZTSN4RTTL16BVHStatCollectorE")
!35 = !{!36, !37, !38, !39, !40, !41, !42, !43, !44, !48}
!36 = !DIDerivedType(tag: DW_TAG_member, name: "global", scope: !34, file: !14, line: 113, baseType: !34, flags: DIFlagPublic | DIFlagStaticMember)
!37 = !DIDerivedType(tag: DW_TAG_member, name: "numPackets", scope: !34, file: !14, line: 115, baseType: !17, size: 32, flags: DIFlagPublic)
!38 = !DIDerivedType(tag: DW_TAG_member, name: "numTraversalSteps", scope: !34, file: !14, line: 116, baseType: !17, size: 32, offset: 32, flags: DIFlagPublic)
!39 = !DIDerivedType(tag: DW_TAG_member, name: "numLeafIntersections", scope: !34, file: !14, line: 117, baseType: !17, size: 32, offset: 64, flags: DIFlagPublic)
!40 = !DIDerivedType(tag: DW_TAG_member, name: "numPrimitiveIntersections", scope: !34, file: !14, line: 118, baseType: !17, size: 32, offset: 96, flags: DIFlagPublic)
!41 = !DIDerivedType(tag: DW_TAG_member, name: "numFirstHitTests", scope: !34, file: !14, line: 119, baseType: !17, size: 32, offset: 128, flags: DIFlagPublic)
!42 = !DIDerivedType(tag: DW_TAG_member, name: "numIntervalPruningTests", scope: !34, file: !14, line: 120, baseType: !17, size: 32, offset: 160, flags: DIFlagPublic)
!43 = !DIDerivedType(tag: DW_TAG_member, name: "numLazyBuildSteps", scope: !34, file: !14, line: 121, baseType: !17, size: 32, offset: 192, flags: DIFlagPublic)
!44 = !DISubprogram(name: "reset", linkageName: "_ZN4RTTL16BVHStatCollector5resetEv", scope: !34, file: !14, line: 123, type: !45, scopeLine: 123, flags: DIFlagPublic | DIFlagPrototyped, spFlags: 0)
!45 = !DISubroutineType(types: !46)
!46 = !{null, !47}
!47 = !DIDerivedType(tag: DW_TAG_pointer_type, baseType: !34, size: 64, flags: DIFlagArtificial | DIFlagObjectPointer)
!48 = !DISubprogram(name: "print", linkageName: "_ZN4RTTL16BVHStatCollector5printEv", scope: !34, file: !14, line: 134, type: !45, scopeLine: 134, flags: DIFlagPublic | DIFlagPrototyped, spFlags: 0)
!49 = !DIGlobalVariableExpression(var: !50, expr: !DIExpression())
!50 = distinct !DIGlobalVariable(scope: null, file: !33, line: 15, type: !51, isLocal: true, isDefinition: true)
!51 = !DICompositeType(tag: DW_TAG_array_type, baseType: !52, size: 64, elements: !54)
!52 = !DIDerivedType(tag: DW_TAG_const_type, baseType: !53)
!53 = !DIBasicType(name: "char", size: 8, encoding: DW_ATE_signed_char)
!54 = !{!55}
!55 = !DISubrange(count: 8)
!56 = !{!57, !63, !67, !74, !78, !86, !91, !93, !99, !103, !107, !117, !119, !123, !127, !131, !136, !140, !144, !148, !152, !160, !164, !168, !170, !174, !178, !183, !189, !193, !197, !199, !207, !211, !219, !221, !225, !229, !233, !237, !242, !246, !251, !252, !253, !254, !256, !257, !258, !259, !260, !261, !262, !264, !265, !266, !267, !268, !269, !270, !275, !276, !277, !278, !279, !280, !281, !282, !283, !284, !285, !286, !287, !288, !289, !290, !291, !292, !293, !294, !295, !296, !297, !298, !299, !305, !307, !309, !313, !315, !317, !319, !321, !323, !325, !327, !331, !335, !337, !339, !344, !346, !348, !350, !352, !354, !356, !359, !361, !363, !367, !371, !373, !375, !377, !379, !381, !383, !385, !387, !389, !391, !395, !399, !401, !403, !405, !407, !409, !411, !413, !415, !417, !419, !421, !423, !425, !427, !429, !433, !437, !441, !443, !445, !447, !449, !451, !453, !455, !457, !459, !463, !467, !471, !473, !475, !477, !481, !485, !489, !491, !493, !495, !497, !499, !501, !503, !505, !507, !509, !511, !513, !517, !521, !525, !527, !529, !531, !533, !537, !541, !543, !545, !547, !549, !551, !553, !557, !561, !563, !565, !567, !569, !573, !577, !581, !583, !585, !587, !589, !591, !593, !597, !601, !605, !607, !611, !615, !617, !619, !621, !623, !625, !627, !631, !633, !638, !653, !656, !661, !670, !675, !679, !683, !687, !691, !693, !695, !699, !705, !709, !715, !721, !723, !727, !731, !735, !739, !751, !753, !757, !761, !765, !767, !771, !775, !779, !781, !783, !787, !795, !799, !803, !807, !809, !815, !817, !823, !827, !831, !835, !839, !843, !847, !849, !851, !855, !859, !863, !865, !869, !873, !875, !877, !881, !885, !889, !893, !894, !895, !896, !897, !898, !899, !900, !901, !902, !903, !907, !911, !918, !922, !925, !928, !931, !933, !935, !937, !940, !943, !946, !949, !952, !954, !959, !963, !966, !969, !971, !973, !975, !977, !980, !983, !986, !989, !992, !994, !998, !1002, !1007, !1011, !1013, !1015, !1017, !1019, !1021, !1023, !1025, !1027, !1029, !1031, !1033, !1035, !1037, !1041, !1047, !1052, !1056, !1058, !1060, !1062, !1064, !1071, !1075, !1079, !1083, !1087, !1091, !1096, !1100, !1102, !1106, !1112, !1116, !1121, !1123, !1125, !1129, !1133, !1135, !1137, !1139, !1141, !1145, !1147, !1149, !1153, !1157, !1161, !1165, !1169, !1173, !1175, !1179, !1183, !1187, !1191, !1193, !1195, !1199, !1203, !1204, !1205, !1206, !1207, !1208, !1214, !1217, !1218, !1220, !1222, !1224, !1226, !1230, !1232, !1234, !1236, !1238, !1240, !1242, !1244, !1246, !1250, !1254, !1256, !1260, !1264, !1266, !1268}
!57 = !DIImportedEntity(tag: DW_TAG_imported_declaration, scope: !2, entity: !58, file: !62, line: 52)
!58 = !DISubprogram(name: "abs", scope: !59, file: !59, line: 848, type: !60, flags: DIFlagPrototyped, spFlags: 0)
!59 = !DIFile(filename: "/usr/include/stdlib.h", directory: "", checksumkind: CSK_MD5, checksum: "02258fad21adf111bb9df9825e61954a")
!60 = !DISubroutineType(types: !61)
!61 = !{!17, !17}
!62 = !DIFile(filename: "/usr/lib/gcc/x86_64-linux-gnu/11/../../../../include/c++/11/bits/std_abs.h", directory: "")
!63 = !DIImportedEntity(tag: DW_TAG_imported_declaration, scope: !2, entity: !64, file: !66, line: 127)
!64 = !DIDerivedType(tag: DW_TAG_typedef, name: "div_t", file: !59, line: 63, baseType: !65)
!65 = !DICompositeType(tag: DW_TAG_structure_type, file: !59, line: 59, size: 64, flags: DIFlagFwdDecl, identifier: "_ZTS5div_t")
!66 = !DIFile(filename: "/usr/lib/gcc/x86_64-linux-gnu/11/../../../../include/c++/11/cstdlib", directory: "")
!67 = !DIImportedEntity(tag: DW_TAG_imported_declaration, scope: !2, entity: !68, file: !66, line: 128)
!68 = !DIDerivedType(tag: DW_TAG_typedef, name: "ldiv_t", file: !59, line: 71, baseType: !69)
!69 = distinct !DICompositeType(tag: DW_TAG_structure_type, file: !59, line: 67, size: 128, flags: DIFlagTypePassByValue, elements: !70, identifier: "_ZTS6ldiv_t")
!70 = !{!71, !73}
!71 = !DIDerivedType(tag: DW_TAG_member, name: "quot", scope: !69, file: !59, line: 69, baseType: !72, size: 64)
!72 = !DIBasicType(name: "long", size: 64, encoding: DW_ATE_signed)
!73 = !DIDerivedType(tag: DW_TAG_member, name: "rem", scope: !69, file: !59, line: 70, baseType: !72, size: 64, offset: 64)
!74 = !DIImportedEntity(tag: DW_TAG_imported_declaration, scope: !2, entity: !75, file: !66, line: 130)
!75 = !DISubprogram(name: "abort", scope: !59, file: !59, line: 598, type: !76, flags: DIFlagPrototyped | DIFlagNoReturn, spFlags: 0)
!76 = !DISubroutineType(types: !77)
!77 = !{null}
!78 = !DIImportedEntity(tag: DW_TAG_imported_declaration, scope: !2, entity: !79, file: !66, line: 132)
!79 = !DISubprogram(name: "aligned_alloc", scope: !59, file: !59, line: 592, type: !80, flags: DIFlagPrototyped, spFlags: 0)
!80 = !DISubroutineType(types: !81)
!81 = !{!82, !83, !83}
!82 = !DIDerivedType(tag: DW_TAG_pointer_type, baseType: null, size: 64)
!83 = !DIDerivedType(tag: DW_TAG_typedef, name: "size_t", file: !84, line: 46, baseType: !85)
!84 = !DIFile(filename: "SVF/llvm-16.0.0.obj/lib/clang/16/include/stddef.h", directory: "/home/raj", checksumkind: CSK_MD5, checksum: "f95079da609b0e8f201cb8136304bf3b")
!85 = !DIBasicType(name: "unsigned long", size: 64, encoding: DW_ATE_unsigned)
!86 = !DIImportedEntity(tag: DW_TAG_imported_declaration, scope: !2, entity: !87, file: !66, line: 134)
!87 = !DISubprogram(name: "atexit", scope: !59, file: !59, line: 602, type: !88, flags: DIFlagPrototyped, spFlags: 0)
!88 = !DISubroutineType(types: !89)
!89 = !{!17, !90}
!90 = !DIDerivedType(tag: DW_TAG_pointer_type, baseType: !76, size: 64)
!91 = !DIImportedEntity(tag: DW_TAG_imported_declaration, scope: !2, entity: !92, file: !66, line: 137)
!92 = !DISubprogram(name: "at_quick_exit", scope: !59, file: !59, line: 607, type: !88, flags: DIFlagPrototyped, spFlags: 0)
!93 = !DIImportedEntity(tag: DW_TAG_imported_declaration, scope: !2, entity: !94, file: !66, line: 140)
!94 = !DISubprogram(name: "atof", scope: !59, file: !59, line: 102, type: !95, flags: DIFlagPrototyped, spFlags: 0)
!95 = !DISubroutineType(types: !96)
!96 = !{!97, !98}
!97 = !DIBasicType(name: "double", size: 64, encoding: DW_ATE_float)
!98 = !DIDerivedType(tag: DW_TAG_pointer_type, baseType: !52, size: 64)
!99 = !DIImportedEntity(tag: DW_TAG_imported_declaration, scope: !2, entity: !100, file: !66, line: 141)
!100 = !DISubprogram(name: "atoi", scope: !59, file: !59, line: 105, type: !101, flags: DIFlagPrototyped, spFlags: 0)
!101 = !DISubroutineType(types: !102)
!102 = !{!17, !98}
!103 = !DIImportedEntity(tag: DW_TAG_imported_declaration, scope: !2, entity: !104, file: !66, line: 142)
!104 = !DISubprogram(name: "atol", scope: !59, file: !59, line: 108, type: !105, flags: DIFlagPrototyped, spFlags: 0)
!105 = !DISubroutineType(types: !106)
!106 = !{!72, !98}
!107 = !DIImportedEntity(tag: DW_TAG_imported_declaration, scope: !2, entity: !108, file: !66, line: 143)
!108 = !DISubprogram(name: "bsearch", scope: !59, file: !59, line: 828, type: !109, flags: DIFlagPrototyped, spFlags: 0)
!109 = !DISubroutineType(types: !110)
!110 = !{!82, !111, !111, !83, !83, !113}
!111 = !DIDerivedType(tag: DW_TAG_pointer_type, baseType: !112, size: 64)
!112 = !DIDerivedType(tag: DW_TAG_const_type, baseType: null)
!113 = !DIDerivedType(tag: DW_TAG_typedef, name: "__compar_fn_t", file: !59, line: 816, baseType: !114)
!114 = !DIDerivedType(tag: DW_TAG_pointer_type, baseType: !115, size: 64)
!115 = !DISubroutineType(types: !116)
!116 = !{!17, !111, !111}
!117 = !DIImportedEntity(tag: DW_TAG_imported_declaration, scope: !2, entity: !118, file: !66, line: 144)
!118 = !DISubprogram(name: "calloc", scope: !59, file: !59, line: 543, type: !80, flags: DIFlagPrototyped, spFlags: 0)
!119 = !DIImportedEntity(tag: DW_TAG_imported_declaration, scope: !2, entity: !120, file: !66, line: 145)
!120 = !DISubprogram(name: "div", scope: !59, file: !59, line: 860, type: !121, flags: DIFlagPrototyped, spFlags: 0)
!121 = !DISubroutineType(types: !122)
!122 = !{!64, !17, !17}
!123 = !DIImportedEntity(tag: DW_TAG_imported_declaration, scope: !2, entity: !124, file: !66, line: 146)
!124 = !DISubprogram(name: "exit", scope: !59, file: !59, line: 624, type: !125, flags: DIFlagPrototyped | DIFlagNoReturn, spFlags: 0)
!125 = !DISubroutineType(types: !126)
!126 = !{null, !17}
!127 = !DIImportedEntity(tag: DW_TAG_imported_declaration, scope: !2, entity: !128, file: !66, line: 147)
!128 = !DISubprogram(name: "free", scope: !59, file: !59, line: 555, type: !129, flags: DIFlagPrototyped, spFlags: 0)
!129 = !DISubroutineType(types: !130)
!130 = !{null, !82}
!131 = !DIImportedEntity(tag: DW_TAG_imported_declaration, scope: !2, entity: !132, file: !66, line: 148)
!132 = !DISubprogram(name: "getenv", scope: !59, file: !59, line: 641, type: !133, flags: DIFlagPrototyped, spFlags: 0)
!133 = !DISubroutineType(types: !134)
!134 = !{!135, !98}
!135 = !DIDerivedType(tag: DW_TAG_pointer_type, baseType: !53, size: 64)
!136 = !DIImportedEntity(tag: DW_TAG_imported_declaration, scope: !2, entity: !137, file: !66, line: 149)
!137 = !DISubprogram(name: "labs", scope: !59, file: !59, line: 849, type: !138, flags: DIFlagPrototyped, spFlags: 0)
!138 = !DISubroutineType(types: !139)
!139 = !{!72, !72}
!140 = !DIImportedEntity(tag: DW_TAG_imported_declaration, scope: !2, entity: !141, file: !66, line: 150)
!141 = !DISubprogram(name: "ldiv", scope: !59, file: !59, line: 862, type: !142, flags: DIFlagPrototyped, spFlags: 0)
!142 = !DISubroutineType(types: !143)
!143 = !{!68, !72, !72}
!144 = !DIImportedEntity(tag: DW_TAG_imported_declaration, scope: !2, entity: !145, file: !66, line: 151)
!145 = !DISubprogram(name: "malloc", scope: !59, file: !59, line: 540, type: !146, flags: DIFlagPrototyped, spFlags: 0)
!146 = !DISubroutineType(types: !147)
!147 = !{!82, !83}
!148 = !DIImportedEntity(tag: DW_TAG_imported_declaration, scope: !2, entity: !149, file: !66, line: 153)
!149 = !DISubprogram(name: "mblen", scope: !59, file: !59, line: 930, type: !150, flags: DIFlagPrototyped, spFlags: 0)
!150 = !DISubroutineType(types: !151)
!151 = !{!17, !98, !83}
!152 = !DIImportedEntity(tag: DW_TAG_imported_declaration, scope: !2, entity: !153, file: !66, line: 154)
!153 = !DISubprogram(name: "mbstowcs", scope: !59, file: !59, line: 941, type: !154, flags: DIFlagPrototyped, spFlags: 0)
!154 = !DISubroutineType(types: !155)
!155 = !{!83, !156, !159, !83}
!156 = !DIDerivedType(tag: DW_TAG_restrict_type, baseType: !157)
!157 = !DIDerivedType(tag: DW_TAG_pointer_type, baseType: !158, size: 64)
!158 = !DIBasicType(name: "wchar_t", size: 32, encoding: DW_ATE_signed)
!159 = !DIDerivedType(tag: DW_TAG_restrict_type, baseType: !98)
!160 = !DIImportedEntity(tag: DW_TAG_imported_declaration, scope: !2, entity: !161, file: !66, line: 155)
!161 = !DISubprogram(name: "mbtowc", scope: !59, file: !59, line: 933, type: !162, flags: DIFlagPrototyped, spFlags: 0)
!162 = !DISubroutineType(types: !163)
!163 = !{!17, !156, !159, !83}
!164 = !DIImportedEntity(tag: DW_TAG_imported_declaration, scope: !2, entity: !165, file: !66, line: 157)
!165 = !DISubprogram(name: "qsort", scope: !59, file: !59, line: 838, type: !166, flags: DIFlagPrototyped, spFlags: 0)
!166 = !DISubroutineType(types: !167)
!167 = !{null, !82, !83, !83, !113}
!168 = !DIImportedEntity(tag: DW_TAG_imported_declaration, scope: !2, entity: !169, file: !66, line: 160)
!169 = !DISubprogram(name: "quick_exit", scope: !59, file: !59, line: 630, type: !125, flags: DIFlagPrototyped | DIFlagNoReturn, spFlags: 0)
!170 = !DIImportedEntity(tag: DW_TAG_imported_declaration, scope: !2, entity: !171, file: !66, line: 163)
!171 = !DISubprogram(name: "rand", scope: !59, file: !59, line: 454, type: !172, flags: DIFlagPrototyped, spFlags: 0)
!172 = !DISubroutineType(types: !173)
!173 = !{!17}
!174 = !DIImportedEntity(tag: DW_TAG_imported_declaration, scope: !2, entity: !175, file: !66, line: 164)
!175 = !DISubprogram(name: "realloc", scope: !59, file: !59, line: 551, type: !176, flags: DIFlagPrototyped, spFlags: 0)
!176 = !DISubroutineType(types: !177)
!177 = !{!82, !82, !83}
!178 = !DIImportedEntity(tag: DW_TAG_imported_declaration, scope: !2, entity: !179, file: !66, line: 165)
!179 = !DISubprogram(name: "srand", scope: !59, file: !59, line: 456, type: !180, flags: DIFlagPrototyped, spFlags: 0)
!180 = !DISubroutineType(types: !181)
!181 = !{null, !182}
!182 = !DIBasicType(name: "unsigned int", size: 32, encoding: DW_ATE_unsigned)
!183 = !DIImportedEntity(tag: DW_TAG_imported_declaration, scope: !2, entity: !184, file: !66, line: 166)
!184 = !DISubprogram(name: "strtod", scope: !59, file: !59, line: 118, type: !185, flags: DIFlagPrototyped, spFlags: 0)
!185 = !DISubroutineType(types: !186)
!186 = !{!97, !159, !187}
!187 = !DIDerivedType(tag: DW_TAG_restrict_type, baseType: !188)
!188 = !DIDerivedType(tag: DW_TAG_pointer_type, baseType: !135, size: 64)
!189 = !DIImportedEntity(tag: DW_TAG_imported_declaration, scope: !2, entity: !190, file: !66, line: 167)
!190 = !DISubprogram(name: "strtol", scope: !59, file: !59, line: 177, type: !191, flags: DIFlagPrototyped, spFlags: 0)
!191 = !DISubroutineType(types: !192)
!192 = !{!72, !159, !187, !17}
!193 = !DIImportedEntity(tag: DW_TAG_imported_declaration, scope: !2, entity: !194, file: !66, line: 168)
!194 = !DISubprogram(name: "strtoul", scope: !59, file: !59, line: 181, type: !195, flags: DIFlagPrototyped, spFlags: 0)
!195 = !DISubroutineType(types: !196)
!196 = !{!85, !159, !187, !17}
!197 = !DIImportedEntity(tag: DW_TAG_imported_declaration, scope: !2, entity: !198, file: !66, line: 169)
!198 = !DISubprogram(name: "system", scope: !59, file: !59, line: 791, type: !101, flags: DIFlagPrototyped, spFlags: 0)
!199 = !DIImportedEntity(tag: DW_TAG_imported_declaration, scope: !2, entity: !200, file: !66, line: 171)
!200 = !DISubprogram(name: "wcstombs", scope: !59, file: !59, line: 945, type: !201, flags: DIFlagPrototyped, spFlags: 0)
!201 = !DISubroutineType(types: !202)
!202 = !{!83, !203, !204, !83}
!203 = !DIDerivedType(tag: DW_TAG_restrict_type, baseType: !135)
!204 = !DIDerivedType(tag: DW_TAG_restrict_type, baseType: !205)
!205 = !DIDerivedType(tag: DW_TAG_pointer_type, baseType: !206, size: 64)
!206 = !DIDerivedType(tag: DW_TAG_const_type, baseType: !158)
!207 = !DIImportedEntity(tag: DW_TAG_imported_declaration, scope: !2, entity: !208, file: !66, line: 172)
!208 = !DISubprogram(name: "wctomb", scope: !59, file: !59, line: 937, type: !209, flags: DIFlagPrototyped, spFlags: 0)
!209 = !DISubroutineType(types: !210)
!210 = !{!17, !135, !158}
!211 = !DIImportedEntity(tag: DW_TAG_imported_declaration, scope: !212, entity: !213, file: !66, line: 200)
!212 = !DINamespace(name: "__gnu_cxx", scope: null)
!213 = !DIDerivedType(tag: DW_TAG_typedef, name: "lldiv_t", file: !59, line: 81, baseType: !214)
!214 = distinct !DICompositeType(tag: DW_TAG_structure_type, file: !59, line: 77, size: 128, flags: DIFlagTypePassByValue, elements: !215, identifier: "_ZTS7lldiv_t")
!215 = !{!216, !218}
!216 = !DIDerivedType(tag: DW_TAG_member, name: "quot", scope: !214, file: !59, line: 79, baseType: !217, size: 64)
!217 = !DIBasicType(name: "long long", size: 64, encoding: DW_ATE_signed)
!218 = !DIDerivedType(tag: DW_TAG_member, name: "rem", scope: !214, file: !59, line: 80, baseType: !217, size: 64, offset: 64)
!219 = !DIImportedEntity(tag: DW_TAG_imported_declaration, scope: !212, entity: !220, file: !66, line: 206)
!220 = !DISubprogram(name: "_Exit", scope: !59, file: !59, line: 636, type: !125, flags: DIFlagPrototyped | DIFlagNoReturn, spFlags: 0)
!221 = !DIImportedEntity(tag: DW_TAG_imported_declaration, scope: !212, entity: !222, file: !66, line: 210)
!222 = !DISubprogram(name: "llabs", scope: !59, file: !59, line: 852, type: !223, flags: DIFlagPrototyped, spFlags: 0)
!223 = !DISubroutineType(types: !224)
!224 = !{!217, !217}
!225 = !DIImportedEntity(tag: DW_TAG_imported_declaration, scope: !212, entity: !226, file: !66, line: 216)
!226 = !DISubprogram(name: "lldiv", scope: !59, file: !59, line: 866, type: !227, flags: DIFlagPrototyped, spFlags: 0)
!227 = !DISubroutineType(types: !228)
!228 = !{!213, !217, !217}
!229 = !DIImportedEntity(tag: DW_TAG_imported_declaration, scope: !212, entity: !230, file: !66, line: 227)
!230 = !DISubprogram(name: "atoll", scope: !59, file: !59, line: 113, type: !231, flags: DIFlagPrototyped, spFlags: 0)
!231 = !DISubroutineType(types: !232)
!232 = !{!217, !98}
!233 = !DIImportedEntity(tag: DW_TAG_imported_declaration, scope: !212, entity: !234, file: !66, line: 228)
!234 = !DISubprogram(name: "strtoll", scope: !59, file: !59, line: 201, type: !235, flags: DIFlagPrototyped, spFlags: 0)
!235 = !DISubroutineType(types: !236)
!236 = !{!217, !159, !187, !17}
!237 = !DIImportedEntity(tag: DW_TAG_imported_declaration, scope: !212, entity: !238, file: !66, line: 229)
!238 = !DISubprogram(name: "strtoull", scope: !59, file: !59, line: 206, type: !239, flags: DIFlagPrototyped, spFlags: 0)
!239 = !DISubroutineType(types: !240)
!240 = !{!241, !159, !187, !17}
!241 = !DIBasicType(name: "unsigned long long", size: 64, encoding: DW_ATE_unsigned)
!242 = !DIImportedEntity(tag: DW_TAG_imported_declaration, scope: !212, entity: !243, file: !66, line: 231)
!243 = !DISubprogram(name: "strtof", scope: !59, file: !59, line: 124, type: !244, flags: DIFlagPrototyped, spFlags: 0)
!244 = !DISubroutineType(types: !245)
!245 = !{!23, !159, !187}
!246 = !DIImportedEntity(tag: DW_TAG_imported_declaration, scope: !212, entity: !247, file: !66, line: 232)
!247 = !DISubprogram(name: "strtold", scope: !59, file: !59, line: 127, type: !248, flags: DIFlagPrototyped, spFlags: 0)
!248 = !DISubroutineType(types: !249)
!249 = !{!250, !159, !187}
!250 = !DIBasicType(name: "long double", size: 128, encoding: DW_ATE_float)
!251 = !DIImportedEntity(tag: DW_TAG_imported_declaration, scope: !2, entity: !213, file: !66, line: 240)
!252 = !DIImportedEntity(tag: DW_TAG_imported_declaration, scope: !2, entity: !220, file: !66, line: 242)
!253 = !DIImportedEntity(tag: DW_TAG_imported_declaration, scope: !2, entity: !222, file: !66, line: 244)
!254 = !DIImportedEntity(tag: DW_TAG_imported_declaration, scope: !2, entity: !255, file: !66, line: 245)
!255 = !DISubprogram(name: "div", linkageName: "_ZN9__gnu_cxx3divExx", scope: !212, file: !66, line: 213, type: !227, flags: DIFlagPrototyped, spFlags: 0)
!256 = !DIImportedEntity(tag: DW_TAG_imported_declaration, scope: !2, entity: !226, file: !66, line: 246)
!257 = !DIImportedEntity(tag: DW_TAG_imported_declaration, scope: !2, entity: !230, file: !66, line: 248)
!258 = !DIImportedEntity(tag: DW_TAG_imported_declaration, scope: !2, entity: !243, file: !66, line: 249)
!259 = !DIImportedEntity(tag: DW_TAG_imported_declaration, scope: !2, entity: !234, file: !66, line: 250)
!260 = !DIImportedEntity(tag: DW_TAG_imported_declaration, scope: !2, entity: !238, file: !66, line: 251)
!261 = !DIImportedEntity(tag: DW_TAG_imported_declaration, scope: !2, entity: !247, file: !66, line: 252)
!262 = !DIImportedEntity(tag: DW_TAG_imported_declaration, scope: !9, entity: !75, file: !263, line: 38)
!263 = !DIFile(filename: "/usr/lib/gcc/x86_64-linux-gnu/11/../../../../include/c++/11/stdlib.h", directory: "", checksumkind: CSK_MD5, checksum: "0f5b773a303c24013fb112082e6d18a5")
!264 = !DIImportedEntity(tag: DW_TAG_imported_declaration, scope: !9, entity: !87, file: !263, line: 39)
!265 = !DIImportedEntity(tag: DW_TAG_imported_declaration, scope: !9, entity: !124, file: !263, line: 40)
!266 = !DIImportedEntity(tag: DW_TAG_imported_declaration, scope: !9, entity: !92, file: !263, line: 43)
!267 = !DIImportedEntity(tag: DW_TAG_imported_declaration, scope: !9, entity: !169, file: !263, line: 46)
!268 = !DIImportedEntity(tag: DW_TAG_imported_declaration, scope: !9, entity: !64, file: !263, line: 51)
!269 = !DIImportedEntity(tag: DW_TAG_imported_declaration, scope: !9, entity: !68, file: !263, line: 52)
!270 = !DIImportedEntity(tag: DW_TAG_imported_declaration, scope: !9, entity: !271, file: !263, line: 54)
!271 = !DISubprogram(name: "abs", linkageName: "_ZSt3absg", scope: !2, file: !62, line: 103, type: !272, flags: DIFlagPrototyped, spFlags: 0)
!272 = !DISubroutineType(types: !273)
!273 = !{!274, !274}
!274 = !DIBasicType(name: "__float128", size: 128, encoding: DW_ATE_float)
!275 = !DIImportedEntity(tag: DW_TAG_imported_declaration, scope: !9, entity: !94, file: !263, line: 55)
!276 = !DIImportedEntity(tag: DW_TAG_imported_declaration, scope: !9, entity: !100, file: !263, line: 56)
!277 = !DIImportedEntity(tag: DW_TAG_imported_declaration, scope: !9, entity: !104, file: !263, line: 57)
!278 = !DIImportedEntity(tag: DW_TAG_imported_declaration, scope: !9, entity: !108, file: !263, line: 58)
!279 = !DIImportedEntity(tag: DW_TAG_imported_declaration, scope: !9, entity: !118, file: !263, line: 59)
!280 = !DIImportedEntity(tag: DW_TAG_imported_declaration, scope: !9, entity: !255, file: !263, line: 60)
!281 = !DIImportedEntity(tag: DW_TAG_imported_declaration, scope: !9, entity: !128, file: !263, line: 61)
!282 = !DIImportedEntity(tag: DW_TAG_imported_declaration, scope: !9, entity: !132, file: !263, line: 62)
!283 = !DIImportedEntity(tag: DW_TAG_imported_declaration, scope: !9, entity: !137, file: !263, line: 63)
!284 = !DIImportedEntity(tag: DW_TAG_imported_declaration, scope: !9, entity: !141, file: !263, line: 64)
!285 = !DIImportedEntity(tag: DW_TAG_imported_declaration, scope: !9, entity: !145, file: !263, line: 65)
!286 = !DIImportedEntity(tag: DW_TAG_imported_declaration, scope: !9, entity: !149, file: !263, line: 67)
!287 = !DIImportedEntity(tag: DW_TAG_imported_declaration, scope: !9, entity: !153, file: !263, line: 68)
!288 = !DIImportedEntity(tag: DW_TAG_imported_declaration, scope: !9, entity: !161, file: !263, line: 69)
!289 = !DIImportedEntity(tag: DW_TAG_imported_declaration, scope: !9, entity: !165, file: !263, line: 71)
!290 = !DIImportedEntity(tag: DW_TAG_imported_declaration, scope: !9, entity: !171, file: !263, line: 72)
!291 = !DIImportedEntity(tag: DW_TAG_imported_declaration, scope: !9, entity: !175, file: !263, line: 73)
!292 = !DIImportedEntity(tag: DW_TAG_imported_declaration, scope: !9, entity: !179, file: !263, line: 74)
!293 = !DIImportedEntity(tag: DW_TAG_imported_declaration, scope: !9, entity: !184, file: !263, line: 75)
!294 = !DIImportedEntity(tag: DW_TAG_imported_declaration, scope: !9, entity: !190, file: !263, line: 76)
!295 = !DIImportedEntity(tag: DW_TAG_imported_declaration, scope: !9, entity: !194, file: !263, line: 77)
!296 = !DIImportedEntity(tag: DW_TAG_imported_declaration, scope: !9, entity: !198, file: !263, line: 78)
!297 = !DIImportedEntity(tag: DW_TAG_imported_declaration, scope: !9, entity: !200, file: !263, line: 80)
!298 = !DIImportedEntity(tag: DW_TAG_imported_declaration, scope: !9, entity: !208, file: !263, line: 81)
!299 = !DIImportedEntity(tag: DW_TAG_imported_declaration, scope: !2, entity: !300, file: !304, line: 83)
!300 = !DISubprogram(name: "acos", scope: !301, file: !301, line: 53, type: !302, flags: DIFlagPrototyped, spFlags: 0)
!301 = !DIFile(filename: "/usr/include/x86_64-linux-gnu/bits/mathcalls.h", directory: "", checksumkind: CSK_MD5, checksum: "8c6e2d0d2bda65bc5ba1ca02b65383b7")
!302 = !DISubroutineType(types: !303)
!303 = !{!97, !97}
!304 = !DIFile(filename: "/usr/lib/gcc/x86_64-linux-gnu/11/../../../../include/c++/11/cmath", directory: "")
!305 = !DIImportedEntity(tag: DW_TAG_imported_declaration, scope: !2, entity: !306, file: !304, line: 102)
!306 = !DISubprogram(name: "asin", scope: !301, file: !301, line: 55, type: !302, flags: DIFlagPrototyped, spFlags: 0)
!307 = !DIImportedEntity(tag: DW_TAG_imported_declaration, scope: !2, entity: !308, file: !304, line: 121)
!308 = !DISubprogram(name: "atan", scope: !301, file: !301, line: 57, type: !302, flags: DIFlagPrototyped, spFlags: 0)
!309 = !DIImportedEntity(tag: DW_TAG_imported_declaration, scope: !2, entity: !310, file: !304, line: 140)
!310 = !DISubprogram(name: "atan2", scope: !301, file: !301, line: 59, type: !311, flags: DIFlagPrototyped, spFlags: 0)
!311 = !DISubroutineType(types: !312)
!312 = !{!97, !97, !97}
!313 = !DIImportedEntity(tag: DW_TAG_imported_declaration, scope: !2, entity: !314, file: !304, line: 161)
!314 = !DISubprogram(name: "ceil", scope: !301, file: !301, line: 159, type: !302, flags: DIFlagPrototyped, spFlags: 0)
!315 = !DIImportedEntity(tag: DW_TAG_imported_declaration, scope: !2, entity: !316, file: !304, line: 180)
!316 = !DISubprogram(name: "cos", scope: !301, file: !301, line: 62, type: !302, flags: DIFlagPrototyped, spFlags: 0)
!317 = !DIImportedEntity(tag: DW_TAG_imported_declaration, scope: !2, entity: !318, file: !304, line: 199)
!318 = !DISubprogram(name: "cosh", scope: !301, file: !301, line: 71, type: !302, flags: DIFlagPrototyped, spFlags: 0)
!319 = !DIImportedEntity(tag: DW_TAG_imported_declaration, scope: !2, entity: !320, file: !304, line: 218)
!320 = !DISubprogram(name: "exp", scope: !301, file: !301, line: 95, type: !302, flags: DIFlagPrototyped, spFlags: 0)
!321 = !DIImportedEntity(tag: DW_TAG_imported_declaration, scope: !2, entity: !322, file: !304, line: 237)
!322 = !DISubprogram(name: "fabs", scope: !301, file: !301, line: 162, type: !302, flags: DIFlagPrototyped, spFlags: 0)
!323 = !DIImportedEntity(tag: DW_TAG_imported_declaration, scope: !2, entity: !324, file: !304, line: 256)
!324 = !DISubprogram(name: "floor", scope: !301, file: !301, line: 165, type: !302, flags: DIFlagPrototyped, spFlags: 0)
!325 = !DIImportedEntity(tag: DW_TAG_imported_declaration, scope: !2, entity: !326, file: !304, line: 275)
!326 = !DISubprogram(name: "fmod", scope: !301, file: !301, line: 168, type: !311, flags: DIFlagPrototyped, spFlags: 0)
!327 = !DIImportedEntity(tag: DW_TAG_imported_declaration, scope: !2, entity: !328, file: !304, line: 296)
!328 = !DISubprogram(name: "frexp", scope: !301, file: !301, line: 98, type: !329, flags: DIFlagPrototyped, spFlags: 0)
!329 = !DISubroutineType(types: !330)
!330 = !{!97, !97, !16}
!331 = !DIImportedEntity(tag: DW_TAG_imported_declaration, scope: !2, entity: !332, file: !304, line: 315)
!332 = !DISubprogram(name: "ldexp", scope: !301, file: !301, line: 101, type: !333, flags: DIFlagPrototyped, spFlags: 0)
!333 = !DISubroutineType(types: !334)
!334 = !{!97, !97, !17}
!335 = !DIImportedEntity(tag: DW_TAG_imported_declaration, scope: !2, entity: !336, file: !304, line: 334)
!336 = !DISubprogram(name: "log", scope: !301, file: !301, line: 104, type: !302, flags: DIFlagPrototyped, spFlags: 0)
!337 = !DIImportedEntity(tag: DW_TAG_imported_declaration, scope: !2, entity: !338, file: !304, line: 353)
!338 = !DISubprogram(name: "log10", scope: !301, file: !301, line: 107, type: !302, flags: DIFlagPrototyped, spFlags: 0)
!339 = !DIImportedEntity(tag: DW_TAG_imported_declaration, scope: !2, entity: !340, file: !304, line: 372)
!340 = !DISubprogram(name: "modf", scope: !301, file: !301, line: 110, type: !341, flags: DIFlagPrototyped, spFlags: 0)
!341 = !DISubroutineType(types: !342)
!342 = !{!97, !97, !343}
!343 = !DIDerivedType(tag: DW_TAG_pointer_type, baseType: !97, size: 64)
!344 = !DIImportedEntity(tag: DW_TAG_imported_declaration, scope: !2, entity: !345, file: !304, line: 384)
!345 = !DISubprogram(name: "pow", scope: !301, file: !301, line: 140, type: !311, flags: DIFlagPrototyped, spFlags: 0)
!346 = !DIImportedEntity(tag: DW_TAG_imported_declaration, scope: !2, entity: !347, file: !304, line: 421)
!347 = !DISubprogram(name: "sin", scope: !301, file: !301, line: 64, type: !302, flags: DIFlagPrototyped, spFlags: 0)
!348 = !DIImportedEntity(tag: DW_TAG_imported_declaration, scope: !2, entity: !349, file: !304, line: 440)
!349 = !DISubprogram(name: "sinh", scope: !301, file: !301, line: 73, type: !302, flags: DIFlagPrototyped, spFlags: 0)
!350 = !DIImportedEntity(tag: DW_TAG_imported_declaration, scope: !2, entity: !351, file: !304, line: 459)
!351 = !DISubprogram(name: "sqrt", scope: !301, file: !301, line: 143, type: !302, flags: DIFlagPrototyped, spFlags: 0)
!352 = !DIImportedEntity(tag: DW_TAG_imported_declaration, scope: !2, entity: !353, file: !304, line: 478)
!353 = !DISubprogram(name: "tan", scope: !301, file: !301, line: 66, type: !302, flags: DIFlagPrototyped, spFlags: 0)
!354 = !DIImportedEntity(tag: DW_TAG_imported_declaration, scope: !2, entity: !355, file: !304, line: 497)
!355 = !DISubprogram(name: "tanh", scope: !301, file: !301, line: 75, type: !302, flags: DIFlagPrototyped, spFlags: 0)
!356 = !DIImportedEntity(tag: DW_TAG_imported_declaration, scope: !2, entity: !357, file: !304, line: 1065)
!357 = !DIDerivedType(tag: DW_TAG_typedef, name: "double_t", file: !358, line: 164, baseType: !97)
!358 = !DIFile(filename: "/usr/include/math.h", directory: "", checksumkind: CSK_MD5, checksum: "f3450d1d586f704597de1a1b2bed18f3")
!359 = !DIImportedEntity(tag: DW_TAG_imported_declaration, scope: !2, entity: !360, file: !304, line: 1066)
!360 = !DIDerivedType(tag: DW_TAG_typedef, name: "float_t", file: !358, line: 163, baseType: !23)
!361 = !DIImportedEntity(tag: DW_TAG_imported_declaration, scope: !2, entity: !362, file: !304, line: 1069)
!362 = !DISubprogram(name: "acosh", scope: !301, file: !301, line: 85, type: !302, flags: DIFlagPrototyped, spFlags: 0)
!363 = !DIImportedEntity(tag: DW_TAG_imported_declaration, scope: !2, entity: !364, file: !304, line: 1070)
!364 = !DISubprogram(name: "acoshf", scope: !301, file: !301, line: 85, type: !365, flags: DIFlagPrototyped, spFlags: 0)
!365 = !DISubroutineType(types: !366)
!366 = !{!23, !23}
!367 = !DIImportedEntity(tag: DW_TAG_imported_declaration, scope: !2, entity: !368, file: !304, line: 1071)
!368 = !DISubprogram(name: "acoshl", scope: !301, file: !301, line: 85, type: !369, flags: DIFlagPrototyped, spFlags: 0)
!369 = !DISubroutineType(types: !370)
!370 = !{!250, !250}
!371 = !DIImportedEntity(tag: DW_TAG_imported_declaration, scope: !2, entity: !372, file: !304, line: 1073)
!372 = !DISubprogram(name: "asinh", scope: !301, file: !301, line: 87, type: !302, flags: DIFlagPrototyped, spFlags: 0)
!373 = !DIImportedEntity(tag: DW_TAG_imported_declaration, scope: !2, entity: !374, file: !304, line: 1074)
!374 = !DISubprogram(name: "asinhf", scope: !301, file: !301, line: 87, type: !365, flags: DIFlagPrototyped, spFlags: 0)
!375 = !DIImportedEntity(tag: DW_TAG_imported_declaration, scope: !2, entity: !376, file: !304, line: 1075)
!376 = !DISubprogram(name: "asinhl", scope: !301, file: !301, line: 87, type: !369, flags: DIFlagPrototyped, spFlags: 0)
!377 = !DIImportedEntity(tag: DW_TAG_imported_declaration, scope: !2, entity: !378, file: !304, line: 1077)
!378 = !DISubprogram(name: "atanh", scope: !301, file: !301, line: 89, type: !302, flags: DIFlagPrototyped, spFlags: 0)
!379 = !DIImportedEntity(tag: DW_TAG_imported_declaration, scope: !2, entity: !380, file: !304, line: 1078)
!380 = !DISubprogram(name: "atanhf", scope: !301, file: !301, line: 89, type: !365, flags: DIFlagPrototyped, spFlags: 0)
!381 = !DIImportedEntity(tag: DW_TAG_imported_declaration, scope: !2, entity: !382, file: !304, line: 1079)
!382 = !DISubprogram(name: "atanhl", scope: !301, file: !301, line: 89, type: !369, flags: DIFlagPrototyped, spFlags: 0)
!383 = !DIImportedEntity(tag: DW_TAG_imported_declaration, scope: !2, entity: !384, file: !304, line: 1081)
!384 = !DISubprogram(name: "cbrt", scope: !301, file: !301, line: 152, type: !302, flags: DIFlagPrototyped, spFlags: 0)
!385 = !DIImportedEntity(tag: DW_TAG_imported_declaration, scope: !2, entity: !386, file: !304, line: 1082)
!386 = !DISubprogram(name: "cbrtf", scope: !301, file: !301, line: 152, type: !365, flags: DIFlagPrototyped, spFlags: 0)
!387 = !DIImportedEntity(tag: DW_TAG_imported_declaration, scope: !2, entity: !388, file: !304, line: 1083)
!388 = !DISubprogram(name: "cbrtl", scope: !301, file: !301, line: 152, type: !369, flags: DIFlagPrototyped, spFlags: 0)
!389 = !DIImportedEntity(tag: DW_TAG_imported_declaration, scope: !2, entity: !390, file: !304, line: 1085)
!390 = !DISubprogram(name: "copysign", scope: !301, file: !301, line: 198, type: !311, flags: DIFlagPrototyped, spFlags: 0)
!391 = !DIImportedEntity(tag: DW_TAG_imported_declaration, scope: !2, entity: !392, file: !304, line: 1086)
!392 = !DISubprogram(name: "copysignf", scope: !301, file: !301, line: 198, type: !393, flags: DIFlagPrototyped, spFlags: 0)
!393 = !DISubroutineType(types: !394)
!394 = !{!23, !23, !23}
!395 = !DIImportedEntity(tag: DW_TAG_imported_declaration, scope: !2, entity: !396, file: !304, line: 1087)
!396 = !DISubprogram(name: "copysignl", scope: !301, file: !301, line: 198, type: !397, flags: DIFlagPrototyped, spFlags: 0)
!397 = !DISubroutineType(types: !398)
!398 = !{!250, !250, !250}
!399 = !DIImportedEntity(tag: DW_TAG_imported_declaration, scope: !2, entity: !400, file: !304, line: 1089)
!400 = !DISubprogram(name: "erf", scope: !301, file: !301, line: 231, type: !302, flags: DIFlagPrototyped, spFlags: 0)
!401 = !DIImportedEntity(tag: DW_TAG_imported_declaration, scope: !2, entity: !402, file: !304, line: 1090)
!402 = !DISubprogram(name: "erff", scope: !301, file: !301, line: 231, type: !365, flags: DIFlagPrototyped, spFlags: 0)
!403 = !DIImportedEntity(tag: DW_TAG_imported_declaration, scope: !2, entity: !404, file: !304, line: 1091)
!404 = !DISubprogram(name: "erfl", scope: !301, file: !301, line: 231, type: !369, flags: DIFlagPrototyped, spFlags: 0)
!405 = !DIImportedEntity(tag: DW_TAG_imported_declaration, scope: !2, entity: !406, file: !304, line: 1093)
!406 = !DISubprogram(name: "erfc", scope: !301, file: !301, line: 232, type: !302, flags: DIFlagPrototyped, spFlags: 0)
!407 = !DIImportedEntity(tag: DW_TAG_imported_declaration, scope: !2, entity: !408, file: !304, line: 1094)
!408 = !DISubprogram(name: "erfcf", scope: !301, file: !301, line: 232, type: !365, flags: DIFlagPrototyped, spFlags: 0)
!409 = !DIImportedEntity(tag: DW_TAG_imported_declaration, scope: !2, entity: !410, file: !304, line: 1095)
!410 = !DISubprogram(name: "erfcl", scope: !301, file: !301, line: 232, type: !369, flags: DIFlagPrototyped, spFlags: 0)
!411 = !DIImportedEntity(tag: DW_TAG_imported_declaration, scope: !2, entity: !412, file: !304, line: 1097)
!412 = !DISubprogram(name: "exp2", scope: !301, file: !301, line: 130, type: !302, flags: DIFlagPrototyped, spFlags: 0)
!413 = !DIImportedEntity(tag: DW_TAG_imported_declaration, scope: !2, entity: !414, file: !304, line: 1098)
!414 = !DISubprogram(name: "exp2f", scope: !301, file: !301, line: 130, type: !365, flags: DIFlagPrototyped, spFlags: 0)
!415 = !DIImportedEntity(tag: DW_TAG_imported_declaration, scope: !2, entity: !416, file: !304, line: 1099)
!416 = !DISubprogram(name: "exp2l", scope: !301, file: !301, line: 130, type: !369, flags: DIFlagPrototyped, spFlags: 0)
!417 = !DIImportedEntity(tag: DW_TAG_imported_declaration, scope: !2, entity: !418, file: !304, line: 1101)
!418 = !DISubprogram(name: "expm1", scope: !301, file: !301, line: 119, type: !302, flags: DIFlagPrototyped, spFlags: 0)
!419 = !DIImportedEntity(tag: DW_TAG_imported_declaration, scope: !2, entity: !420, file: !304, line: 1102)
!420 = !DISubprogram(name: "expm1f", scope: !301, file: !301, line: 119, type: !365, flags: DIFlagPrototyped, spFlags: 0)
!421 = !DIImportedEntity(tag: DW_TAG_imported_declaration, scope: !2, entity: !422, file: !304, line: 1103)
!422 = !DISubprogram(name: "expm1l", scope: !301, file: !301, line: 119, type: !369, flags: DIFlagPrototyped, spFlags: 0)
!423 = !DIImportedEntity(tag: DW_TAG_imported_declaration, scope: !2, entity: !424, file: !304, line: 1105)
!424 = !DISubprogram(name: "fdim", scope: !301, file: !301, line: 329, type: !311, flags: DIFlagPrototyped, spFlags: 0)
!425 = !DIImportedEntity(tag: DW_TAG_imported_declaration, scope: !2, entity: !426, file: !304, line: 1106)
!426 = !DISubprogram(name: "fdimf", scope: !301, file: !301, line: 329, type: !393, flags: DIFlagPrototyped, spFlags: 0)
!427 = !DIImportedEntity(tag: DW_TAG_imported_declaration, scope: !2, entity: !428, file: !304, line: 1107)
!428 = !DISubprogram(name: "fdiml", scope: !301, file: !301, line: 329, type: !397, flags: DIFlagPrototyped, spFlags: 0)
!429 = !DIImportedEntity(tag: DW_TAG_imported_declaration, scope: !2, entity: !430, file: !304, line: 1109)
!430 = !DISubprogram(name: "fma", scope: !301, file: !301, line: 340, type: !431, flags: DIFlagPrototyped, spFlags: 0)
!431 = !DISubroutineType(types: !432)
!432 = !{!97, !97, !97, !97}
!433 = !DIImportedEntity(tag: DW_TAG_imported_declaration, scope: !2, entity: !434, file: !304, line: 1110)
!434 = !DISubprogram(name: "fmaf", scope: !301, file: !301, line: 340, type: !435, flags: DIFlagPrototyped, spFlags: 0)
!435 = !DISubroutineType(types: !436)
!436 = !{!23, !23, !23, !23}
!437 = !DIImportedEntity(tag: DW_TAG_imported_declaration, scope: !2, entity: !438, file: !304, line: 1111)
!438 = !DISubprogram(name: "fmal", scope: !301, file: !301, line: 340, type: !439, flags: DIFlagPrototyped, spFlags: 0)
!439 = !DISubroutineType(types: !440)
!440 = !{!250, !250, !250, !250}
!441 = !DIImportedEntity(tag: DW_TAG_imported_declaration, scope: !2, entity: !442, file: !304, line: 1113)
!442 = !DISubprogram(name: "fmax", scope: !301, file: !301, line: 333, type: !311, flags: DIFlagPrototyped, spFlags: 0)
!443 = !DIImportedEntity(tag: DW_TAG_imported_declaration, scope: !2, entity: !444, file: !304, line: 1114)
!444 = !DISubprogram(name: "fmaxf", scope: !301, file: !301, line: 333, type: !393, flags: DIFlagPrototyped, spFlags: 0)
!445 = !DIImportedEntity(tag: DW_TAG_imported_declaration, scope: !2, entity: !446, file: !304, line: 1115)
!446 = !DISubprogram(name: "fmaxl", scope: !301, file: !301, line: 333, type: !397, flags: DIFlagPrototyped, spFlags: 0)
!447 = !DIImportedEntity(tag: DW_TAG_imported_declaration, scope: !2, entity: !448, file: !304, line: 1117)
!448 = !DISubprogram(name: "fmin", scope: !301, file: !301, line: 336, type: !311, flags: DIFlagPrototyped, spFlags: 0)
!449 = !DIImportedEntity(tag: DW_TAG_imported_declaration, scope: !2, entity: !450, file: !304, line: 1118)
!450 = !DISubprogram(name: "fminf", scope: !301, file: !301, line: 336, type: !393, flags: DIFlagPrototyped, spFlags: 0)
!451 = !DIImportedEntity(tag: DW_TAG_imported_declaration, scope: !2, entity: !452, file: !304, line: 1119)
!452 = !DISubprogram(name: "fminl", scope: !301, file: !301, line: 336, type: !397, flags: DIFlagPrototyped, spFlags: 0)
!453 = !DIImportedEntity(tag: DW_TAG_imported_declaration, scope: !2, entity: !454, file: !304, line: 1121)
!454 = !DISubprogram(name: "hypot", scope: !301, file: !301, line: 147, type: !311, flags: DIFlagPrototyped, spFlags: 0)
!455 = !DIImportedEntity(tag: DW_TAG_imported_declaration, scope: !2, entity: !456, file: !304, line: 1122)
!456 = !DISubprogram(name: "hypotf", scope: !301, file: !301, line: 147, type: !393, flags: DIFlagPrototyped, spFlags: 0)
!457 = !DIImportedEntity(tag: DW_TAG_imported_declaration, scope: !2, entity: !458, file: !304, line: 1123)
!458 = !DISubprogram(name: "hypotl", scope: !301, file: !301, line: 147, type: !397, flags: DIFlagPrototyped, spFlags: 0)
!459 = !DIImportedEntity(tag: DW_TAG_imported_declaration, scope: !2, entity: !460, file: !304, line: 1125)
!460 = !DISubprogram(name: "ilogb", scope: !301, file: !301, line: 283, type: !461, flags: DIFlagPrototyped, spFlags: 0)
!461 = !DISubroutineType(types: !462)
!462 = !{!17, !97}
!463 = !DIImportedEntity(tag: DW_TAG_imported_declaration, scope: !2, entity: !464, file: !304, line: 1126)
!464 = !DISubprogram(name: "ilogbf", scope: !301, file: !301, line: 283, type: !465, flags: DIFlagPrototyped, spFlags: 0)
!465 = !DISubroutineType(types: !466)
!466 = !{!17, !23}
!467 = !DIImportedEntity(tag: DW_TAG_imported_declaration, scope: !2, entity: !468, file: !304, line: 1127)
!468 = !DISubprogram(name: "ilogbl", scope: !301, file: !301, line: 283, type: !469, flags: DIFlagPrototyped, spFlags: 0)
!469 = !DISubroutineType(types: !470)
!470 = !{!17, !250}
!471 = !DIImportedEntity(tag: DW_TAG_imported_declaration, scope: !2, entity: !472, file: !304, line: 1129)
!472 = !DISubprogram(name: "lgamma", scope: !301, file: !301, line: 233, type: !302, flags: DIFlagPrototyped, spFlags: 0)
!473 = !DIImportedEntity(tag: DW_TAG_imported_declaration, scope: !2, entity: !474, file: !304, line: 1130)
!474 = !DISubprogram(name: "lgammaf", scope: !301, file: !301, line: 233, type: !365, flags: DIFlagPrototyped, spFlags: 0)
!475 = !DIImportedEntity(tag: DW_TAG_imported_declaration, scope: !2, entity: !476, file: !304, line: 1131)
!476 = !DISubprogram(name: "lgammal", scope: !301, file: !301, line: 233, type: !369, flags: DIFlagPrototyped, spFlags: 0)
!477 = !DIImportedEntity(tag: DW_TAG_imported_declaration, scope: !2, entity: !478, file: !304, line: 1134)
!478 = !DISubprogram(name: "llrint", scope: !301, file: !301, line: 319, type: !479, flags: DIFlagPrototyped, spFlags: 0)
!479 = !DISubroutineType(types: !480)
!480 = !{!217, !97}
!481 = !DIImportedEntity(tag: DW_TAG_imported_declaration, scope: !2, entity: !482, file: !304, line: 1135)
!482 = !DISubprogram(name: "llrintf", scope: !301, file: !301, line: 319, type: !483, flags: DIFlagPrototyped, spFlags: 0)
!483 = !DISubroutineType(types: !484)
!484 = !{!217, !23}
!485 = !DIImportedEntity(tag: DW_TAG_imported_declaration, scope: !2, entity: !486, file: !304, line: 1136)
!486 = !DISubprogram(name: "llrintl", scope: !301, file: !301, line: 319, type: !487, flags: DIFlagPrototyped, spFlags: 0)
!487 = !DISubroutineType(types: !488)
!488 = !{!217, !250}
!489 = !DIImportedEntity(tag: DW_TAG_imported_declaration, scope: !2, entity: !490, file: !304, line: 1138)
!490 = !DISubprogram(name: "llround", scope: !301, file: !301, line: 325, type: !479, flags: DIFlagPrototyped, spFlags: 0)
!491 = !DIImportedEntity(tag: DW_TAG_imported_declaration, scope: !2, entity: !492, file: !304, line: 1139)
!492 = !DISubprogram(name: "llroundf", scope: !301, file: !301, line: 325, type: !483, flags: DIFlagPrototyped, spFlags: 0)
!493 = !DIImportedEntity(tag: DW_TAG_imported_declaration, scope: !2, entity: !494, file: !304, line: 1140)
!494 = !DISubprogram(name: "llroundl", scope: !301, file: !301, line: 325, type: !487, flags: DIFlagPrototyped, spFlags: 0)
!495 = !DIImportedEntity(tag: DW_TAG_imported_declaration, scope: !2, entity: !496, file: !304, line: 1143)
!496 = !DISubprogram(name: "log1p", scope: !301, file: !301, line: 122, type: !302, flags: DIFlagPrototyped, spFlags: 0)
!497 = !DIImportedEntity(tag: DW_TAG_imported_declaration, scope: !2, entity: !498, file: !304, line: 1144)
!498 = !DISubprogram(name: "log1pf", scope: !301, file: !301, line: 122, type: !365, flags: DIFlagPrototyped, spFlags: 0)
!499 = !DIImportedEntity(tag: DW_TAG_imported_declaration, scope: !2, entity: !500, file: !304, line: 1145)
!500 = !DISubprogram(name: "log1pl", scope: !301, file: !301, line: 122, type: !369, flags: DIFlagPrototyped, spFlags: 0)
!501 = !DIImportedEntity(tag: DW_TAG_imported_declaration, scope: !2, entity: !502, file: !304, line: 1147)
!502 = !DISubprogram(name: "log2", scope: !301, file: !301, line: 133, type: !302, flags: DIFlagPrototyped, spFlags: 0)
!503 = !DIImportedEntity(tag: DW_TAG_imported_declaration, scope: !2, entity: !504, file: !304, line: 1148)
!504 = !DISubprogram(name: "log2f", scope: !301, file: !301, line: 133, type: !365, flags: DIFlagPrototyped, spFlags: 0)
!505 = !DIImportedEntity(tag: DW_TAG_imported_declaration, scope: !2, entity: !506, file: !304, line: 1149)
!506 = !DISubprogram(name: "log2l", scope: !301, file: !301, line: 133, type: !369, flags: DIFlagPrototyped, spFlags: 0)
!507 = !DIImportedEntity(tag: DW_TAG_imported_declaration, scope: !2, entity: !508, file: !304, line: 1151)
!508 = !DISubprogram(name: "logb", scope: !301, file: !301, line: 125, type: !302, flags: DIFlagPrototyped, spFlags: 0)
!509 = !DIImportedEntity(tag: DW_TAG_imported_declaration, scope: !2, entity: !510, file: !304, line: 1152)
!510 = !DISubprogram(name: "logbf", scope: !301, file: !301, line: 125, type: !365, flags: DIFlagPrototyped, spFlags: 0)
!511 = !DIImportedEntity(tag: DW_TAG_imported_declaration, scope: !2, entity: !512, file: !304, line: 1153)
!512 = !DISubprogram(name: "logbl", scope: !301, file: !301, line: 125, type: !369, flags: DIFlagPrototyped, spFlags: 0)
!513 = !DIImportedEntity(tag: DW_TAG_imported_declaration, scope: !2, entity: !514, file: !304, line: 1155)
!514 = !DISubprogram(name: "lrint", scope: !301, file: !301, line: 317, type: !515, flags: DIFlagPrototyped, spFlags: 0)
!515 = !DISubroutineType(types: !516)
!516 = !{!72, !97}
!517 = !DIImportedEntity(tag: DW_TAG_imported_declaration, scope: !2, entity: !518, file: !304, line: 1156)
!518 = !DISubprogram(name: "lrintf", scope: !301, file: !301, line: 317, type: !519, flags: DIFlagPrototyped, spFlags: 0)
!519 = !DISubroutineType(types: !520)
!520 = !{!72, !23}
!521 = !DIImportedEntity(tag: DW_TAG_imported_declaration, scope: !2, entity: !522, file: !304, line: 1157)
!522 = !DISubprogram(name: "lrintl", scope: !301, file: !301, line: 317, type: !523, flags: DIFlagPrototyped, spFlags: 0)
!523 = !DISubroutineType(types: !524)
!524 = !{!72, !250}
!525 = !DIImportedEntity(tag: DW_TAG_imported_declaration, scope: !2, entity: !526, file: !304, line: 1159)
!526 = !DISubprogram(name: "lround", scope: !301, file: !301, line: 323, type: !515, flags: DIFlagPrototyped, spFlags: 0)
!527 = !DIImportedEntity(tag: DW_TAG_imported_declaration, scope: !2, entity: !528, file: !304, line: 1160)
!528 = !DISubprogram(name: "lroundf", scope: !301, file: !301, line: 323, type: !519, flags: DIFlagPrototyped, spFlags: 0)
!529 = !DIImportedEntity(tag: DW_TAG_imported_declaration, scope: !2, entity: !530, file: !304, line: 1161)
!530 = !DISubprogram(name: "lroundl", scope: !301, file: !301, line: 323, type: !523, flags: DIFlagPrototyped, spFlags: 0)
!531 = !DIImportedEntity(tag: DW_TAG_imported_declaration, scope: !2, entity: !532, file: !304, line: 1163)
!532 = !DISubprogram(name: "nan", scope: !301, file: !301, line: 203, type: !95, flags: DIFlagPrototyped, spFlags: 0)
!533 = !DIImportedEntity(tag: DW_TAG_imported_declaration, scope: !2, entity: !534, file: !304, line: 1164)
!534 = !DISubprogram(name: "nanf", scope: !301, file: !301, line: 203, type: !535, flags: DIFlagPrototyped, spFlags: 0)
!535 = !DISubroutineType(types: !536)
!536 = !{!23, !98}
!537 = !DIImportedEntity(tag: DW_TAG_imported_declaration, scope: !2, entity: !538, file: !304, line: 1165)
!538 = !DISubprogram(name: "nanl", scope: !301, file: !301, line: 203, type: !539, flags: DIFlagPrototyped, spFlags: 0)
!539 = !DISubroutineType(types: !540)
!540 = !{!250, !98}
!541 = !DIImportedEntity(tag: DW_TAG_imported_declaration, scope: !2, entity: !542, file: !304, line: 1167)
!542 = !DISubprogram(name: "nearbyint", scope: !301, file: !301, line: 297, type: !302, flags: DIFlagPrototyped, spFlags: 0)
!543 = !DIImportedEntity(tag: DW_TAG_imported_declaration, scope: !2, entity: !544, file: !304, line: 1168)
!544 = !DISubprogram(name: "nearbyintf", scope: !301, file: !301, line: 297, type: !365, flags: DIFlagPrototyped, spFlags: 0)
!545 = !DIImportedEntity(tag: DW_TAG_imported_declaration, scope: !2, entity: !546, file: !304, line: 1169)
!546 = !DISubprogram(name: "nearbyintl", scope: !301, file: !301, line: 297, type: !369, flags: DIFlagPrototyped, spFlags: 0)
!547 = !DIImportedEntity(tag: DW_TAG_imported_declaration, scope: !2, entity: !548, file: !304, line: 1171)
!548 = !DISubprogram(name: "nextafter", scope: !301, file: !301, line: 262, type: !311, flags: DIFlagPrototyped, spFlags: 0)
!549 = !DIImportedEntity(tag: DW_TAG_imported_declaration, scope: !2, entity: !550, file: !304, line: 1172)
!550 = !DISubprogram(name: "nextafterf", scope: !301, file: !301, line: 262, type: !393, flags: DIFlagPrototyped, spFlags: 0)
!551 = !DIImportedEntity(tag: DW_TAG_imported_declaration, scope: !2, entity: !552, file: !304, line: 1173)
!552 = !DISubprogram(name: "nextafterl", scope: !301, file: !301, line: 262, type: !397, flags: DIFlagPrototyped, spFlags: 0)
!553 = !DIImportedEntity(tag: DW_TAG_imported_declaration, scope: !2, entity: !554, file: !304, line: 1175)
!554 = !DISubprogram(name: "nexttoward", scope: !301, file: !301, line: 264, type: !555, flags: DIFlagPrototyped, spFlags: 0)
!555 = !DISubroutineType(types: !556)
!556 = !{!97, !97, !250}
!557 = !DIImportedEntity(tag: DW_TAG_imported_declaration, scope: !2, entity: !558, file: !304, line: 1176)
!558 = !DISubprogram(name: "nexttowardf", scope: !301, file: !301, line: 264, type: !559, flags: DIFlagPrototyped, spFlags: 0)
!559 = !DISubroutineType(types: !560)
!560 = !{!23, !23, !250}
!561 = !DIImportedEntity(tag: DW_TAG_imported_declaration, scope: !2, entity: !562, file: !304, line: 1177)
!562 = !DISubprogram(name: "nexttowardl", scope: !301, file: !301, line: 264, type: !397, flags: DIFlagPrototyped, spFlags: 0)
!563 = !DIImportedEntity(tag: DW_TAG_imported_declaration, scope: !2, entity: !564, file: !304, line: 1179)
!564 = !DISubprogram(name: "remainder", scope: !301, file: !301, line: 275, type: !311, flags: DIFlagPrototyped, spFlags: 0)
!565 = !DIImportedEntity(tag: DW_TAG_imported_declaration, scope: !2, entity: !566, file: !304, line: 1180)
!566 = !DISubprogram(name: "remainderf", scope: !301, file: !301, line: 275, type: !393, flags: DIFlagPrototyped, spFlags: 0)
!567 = !DIImportedEntity(tag: DW_TAG_imported_declaration, scope: !2, entity: !568, file: !304, line: 1181)
!568 = !DISubprogram(name: "remainderl", scope: !301, file: !301, line: 275, type: !397, flags: DIFlagPrototyped, spFlags: 0)
!569 = !DIImportedEntity(tag: DW_TAG_imported_declaration, scope: !2, entity: !570, file: !304, line: 1183)
!570 = !DISubprogram(name: "remquo", scope: !301, file: !301, line: 310, type: !571, flags: DIFlagPrototyped, spFlags: 0)
!571 = !DISubroutineType(types: !572)
!572 = !{!97, !97, !97, !16}
!573 = !DIImportedEntity(tag: DW_TAG_imported_declaration, scope: !2, entity: !574, file: !304, line: 1184)
!574 = !DISubprogram(name: "remquof", scope: !301, file: !301, line: 310, type: !575, flags: DIFlagPrototyped, spFlags: 0)
!575 = !DISubroutineType(types: !576)
!576 = !{!23, !23, !23, !16}
!577 = !DIImportedEntity(tag: DW_TAG_imported_declaration, scope: !2, entity: !578, file: !304, line: 1185)
!578 = !DISubprogram(name: "remquol", scope: !301, file: !301, line: 310, type: !579, flags: DIFlagPrototyped, spFlags: 0)
!579 = !DISubroutineType(types: !580)
!580 = !{!250, !250, !250, !16}
!581 = !DIImportedEntity(tag: DW_TAG_imported_declaration, scope: !2, entity: !582, file: !304, line: 1187)
!582 = !DISubprogram(name: "rint", scope: !301, file: !301, line: 259, type: !302, flags: DIFlagPrototyped, spFlags: 0)
!583 = !DIImportedEntity(tag: DW_TAG_imported_declaration, scope: !2, entity: !584, file: !304, line: 1188)
!584 = !DISubprogram(name: "rintf", scope: !301, file: !301, line: 259, type: !365, flags: DIFlagPrototyped, spFlags: 0)
!585 = !DIImportedEntity(tag: DW_TAG_imported_declaration, scope: !2, entity: !586, file: !304, line: 1189)
!586 = !DISubprogram(name: "rintl", scope: !301, file: !301, line: 259, type: !369, flags: DIFlagPrototyped, spFlags: 0)
!587 = !DIImportedEntity(tag: DW_TAG_imported_declaration, scope: !2, entity: !588, file: !304, line: 1191)
!588 = !DISubprogram(name: "round", scope: !301, file: !301, line: 301, type: !302, flags: DIFlagPrototyped, spFlags: 0)
!589 = !DIImportedEntity(tag: DW_TAG_imported_declaration, scope: !2, entity: !590, file: !304, line: 1192)
!590 = !DISubprogram(name: "roundf", scope: !301, file: !301, line: 301, type: !365, flags: DIFlagPrototyped, spFlags: 0)
!591 = !DIImportedEntity(tag: DW_TAG_imported_declaration, scope: !2, entity: !592, file: !304, line: 1193)
!592 = !DISubprogram(name: "roundl", scope: !301, file: !301, line: 301, type: !369, flags: DIFlagPrototyped, spFlags: 0)
!593 = !DIImportedEntity(tag: DW_TAG_imported_declaration, scope: !2, entity: !594, file: !304, line: 1195)
!594 = !DISubprogram(name: "scalbln", scope: !301, file: !301, line: 293, type: !595, flags: DIFlagPrototyped, spFlags: 0)
!595 = !DISubroutineType(types: !596)
!596 = !{!97, !97, !72}
!597 = !DIImportedEntity(tag: DW_TAG_imported_declaration, scope: !2, entity: !598, file: !304, line: 1196)
!598 = !DISubprogram(name: "scalblnf", scope: !301, file: !301, line: 293, type: !599, flags: DIFlagPrototyped, spFlags: 0)
!599 = !DISubroutineType(types: !600)
!600 = !{!23, !23, !72}
!601 = !DIImportedEntity(tag: DW_TAG_imported_declaration, scope: !2, entity: !602, file: !304, line: 1197)
!602 = !DISubprogram(name: "scalblnl", scope: !301, file: !301, line: 293, type: !603, flags: DIFlagPrototyped, spFlags: 0)
!603 = !DISubroutineType(types: !604)
!604 = !{!250, !250, !72}
!605 = !DIImportedEntity(tag: DW_TAG_imported_declaration, scope: !2, entity: !606, file: !304, line: 1199)
!606 = !DISubprogram(name: "scalbn", scope: !301, file: !301, line: 279, type: !333, flags: DIFlagPrototyped, spFlags: 0)
!607 = !DIImportedEntity(tag: DW_TAG_imported_declaration, scope: !2, entity: !608, file: !304, line: 1200)
!608 = !DISubprogram(name: "scalbnf", scope: !301, file: !301, line: 279, type: !609, flags: DIFlagPrototyped, spFlags: 0)
!609 = !DISubroutineType(types: !610)
!610 = !{!23, !23, !17}
!611 = !DIImportedEntity(tag: DW_TAG_imported_declaration, scope: !2, entity: !612, file: !304, line: 1201)
!612 = !DISubprogram(name: "scalbnl", scope: !301, file: !301, line: 279, type: !613, flags: DIFlagPrototyped, spFlags: 0)
!613 = !DISubroutineType(types: !614)
!614 = !{!250, !250, !17}
!615 = !DIImportedEntity(tag: DW_TAG_imported_declaration, scope: !2, entity: !616, file: !304, line: 1203)
!616 = !DISubprogram(name: "tgamma", scope: !301, file: !301, line: 238, type: !302, flags: DIFlagPrototyped, spFlags: 0)
!617 = !DIImportedEntity(tag: DW_TAG_imported_declaration, scope: !2, entity: !618, file: !304, line: 1204)
!618 = !DISubprogram(name: "tgammaf", scope: !301, file: !301, line: 238, type: !365, flags: DIFlagPrototyped, spFlags: 0)
!619 = !DIImportedEntity(tag: DW_TAG_imported_declaration, scope: !2, entity: !620, file: !304, line: 1205)
!620 = !DISubprogram(name: "tgammal", scope: !301, file: !301, line: 238, type: !369, flags: DIFlagPrototyped, spFlags: 0)
!621 = !DIImportedEntity(tag: DW_TAG_imported_declaration, scope: !2, entity: !622, file: !304, line: 1207)
!622 = !DISubprogram(name: "trunc", scope: !301, file: !301, line: 305, type: !302, flags: DIFlagPrototyped, spFlags: 0)
!623 = !DIImportedEntity(tag: DW_TAG_imported_declaration, scope: !2, entity: !624, file: !304, line: 1208)
!624 = !DISubprogram(name: "truncf", scope: !301, file: !301, line: 305, type: !365, flags: DIFlagPrototyped, spFlags: 0)
!625 = !DIImportedEntity(tag: DW_TAG_imported_declaration, scope: !2, entity: !626, file: !304, line: 1209)
!626 = !DISubprogram(name: "truncl", scope: !301, file: !301, line: 305, type: !369, flags: DIFlagPrototyped, spFlags: 0)
!627 = !DIImportedEntity(tag: DW_TAG_imported_module, scope: !628, entity: !629, file: !630, line: 58)
!628 = !DINamespace(name: "__gnu_debug", scope: null)
!629 = !DINamespace(name: "__debug", scope: !2)
!630 = !DIFile(filename: "/usr/lib/gcc/x86_64-linux-gnu/11/../../../../include/c++/11/debug/debug.h", directory: "", checksumkind: CSK_MD5, checksum: "982c0103e1e5f86b0818efdfc5273c3c")
!631 = !DIImportedEntity(tag: DW_TAG_imported_declaration, scope: !9, entity: !271, file: !632, line: 38)
!632 = !DIFile(filename: "/usr/lib/gcc/x86_64-linux-gnu/11/../../../../include/c++/11/math.h", directory: "", checksumkind: CSK_MD5, checksum: "a990cded20a6fb8dad866460b8c40922")
!633 = !DIImportedEntity(tag: DW_TAG_imported_declaration, scope: !9, entity: !634, file: !632, line: 54)
!634 = !DISubprogram(name: "modf", linkageName: "_ZSt4modfePe", scope: !2, file: !304, line: 380, type: !635, flags: DIFlagPrototyped, spFlags: 0)
!635 = !DISubroutineType(types: !636)
!636 = !{!250, !250, !637}
!637 = !DIDerivedType(tag: DW_TAG_pointer_type, baseType: !250, size: 64)
!638 = !DIImportedEntity(tag: DW_TAG_imported_declaration, scope: !2, entity: !639, file: !652, line: 64)
!639 = !DIDerivedType(tag: DW_TAG_typedef, name: "mbstate_t", file: !640, line: 6, baseType: !641)
!640 = !DIFile(filename: "/usr/include/x86_64-linux-gnu/bits/types/mbstate_t.h", directory: "", checksumkind: CSK_MD5, checksum: "ba8742313715e20e434cf6ccb2db98e3")
!641 = !DIDerivedType(tag: DW_TAG_typedef, name: "__mbstate_t", file: !642, line: 21, baseType: !643)
!642 = !DIFile(filename: "/usr/include/x86_64-linux-gnu/bits/types/__mbstate_t.h", directory: "", checksumkind: CSK_MD5, checksum: "82911a3e689448e3691ded3e0b471a55")
!643 = distinct !DICompositeType(tag: DW_TAG_structure_type, file: !642, line: 13, size: 64, flags: DIFlagTypePassByValue, elements: !644, identifier: "_ZTS11__mbstate_t")
!644 = !{!645, !646}
!645 = !DIDerivedType(tag: DW_TAG_member, name: "__count", scope: !643, file: !642, line: 15, baseType: !17, size: 32)
!646 = !DIDerivedType(tag: DW_TAG_member, name: "__value", scope: !643, file: !642, line: 20, baseType: !647, size: 32, offset: 32)
!647 = distinct !DICompositeType(tag: DW_TAG_union_type, scope: !643, file: !642, line: 16, size: 32, flags: DIFlagTypePassByValue, elements: !648, identifier: "_ZTSN11__mbstate_tUt_E")
!648 = !{!649, !650}
!649 = !DIDerivedType(tag: DW_TAG_member, name: "__wch", scope: !647, file: !642, line: 18, baseType: !182, size: 32)
!650 = !DIDerivedType(tag: DW_TAG_member, name: "__wchb", scope: !647, file: !642, line: 19, baseType: !651, size: 32)
!651 = !DICompositeType(tag: DW_TAG_array_type, baseType: !53, size: 32, elements: !24)
!652 = !DIFile(filename: "/usr/lib/gcc/x86_64-linux-gnu/11/../../../../include/c++/11/cwchar", directory: "")
!653 = !DIImportedEntity(tag: DW_TAG_imported_declaration, scope: !2, entity: !654, file: !652, line: 141)
!654 = !DIDerivedType(tag: DW_TAG_typedef, name: "wint_t", file: !655, line: 20, baseType: !182)
!655 = !DIFile(filename: "/usr/include/x86_64-linux-gnu/bits/types/wint_t.h", directory: "", checksumkind: CSK_MD5, checksum: "aa31b53ef28dc23152ceb41e2763ded3")
!656 = !DIImportedEntity(tag: DW_TAG_imported_declaration, scope: !2, entity: !657, file: !652, line: 143)
!657 = !DISubprogram(name: "btowc", scope: !658, file: !658, line: 285, type: !659, flags: DIFlagPrototyped, spFlags: 0)
!658 = !DIFile(filename: "/usr/include/wchar.h", directory: "", checksumkind: CSK_MD5, checksum: "484b7adbbc849bb51cdbcb2d985b07a0")
!659 = !DISubroutineType(types: !660)
!660 = !{!654, !17}
!661 = !DIImportedEntity(tag: DW_TAG_imported_declaration, scope: !2, entity: !662, file: !652, line: 144)
!662 = !DISubprogram(name: "fgetwc", scope: !658, file: !658, line: 744, type: !663, flags: DIFlagPrototyped, spFlags: 0)
!663 = !DISubroutineType(types: !664)
!664 = !{!654, !665}
!665 = !DIDerivedType(tag: DW_TAG_pointer_type, baseType: !666, size: 64)
!666 = !DIDerivedType(tag: DW_TAG_typedef, name: "__FILE", file: !667, line: 5, baseType: !668)
!667 = !DIFile(filename: "/usr/include/x86_64-linux-gnu/bits/types/__FILE.h", directory: "", checksumkind: CSK_MD5, checksum: "72a8fe90981f484acae7c6f3dfc5c2b7")
!668 = !DICompositeType(tag: DW_TAG_structure_type, name: "_IO_FILE", file: !669, line: 49, size: 1728, flags: DIFlagFwdDecl, identifier: "_ZTS8_IO_FILE")
!669 = !DIFile(filename: "/usr/include/x86_64-linux-gnu/bits/types/struct_FILE.h", directory: "", checksumkind: CSK_MD5, checksum: "1bad07471b7974df4ecc1d1c2ca207e6")
!670 = !DIImportedEntity(tag: DW_TAG_imported_declaration, scope: !2, entity: !671, file: !652, line: 145)
!671 = !DISubprogram(name: "fgetws", scope: !658, file: !658, line: 773, type: !672, flags: DIFlagPrototyped, spFlags: 0)
!672 = !DISubroutineType(types: !673)
!673 = !{!157, !156, !17, !674}
!674 = !DIDerivedType(tag: DW_TAG_restrict_type, baseType: !665)
!675 = !DIImportedEntity(tag: DW_TAG_imported_declaration, scope: !2, entity: !676, file: !652, line: 146)
!676 = !DISubprogram(name: "fputwc", scope: !658, file: !658, line: 758, type: !677, flags: DIFlagPrototyped, spFlags: 0)
!677 = !DISubroutineType(types: !678)
!678 = !{!654, !158, !665}
!679 = !DIImportedEntity(tag: DW_TAG_imported_declaration, scope: !2, entity: !680, file: !652, line: 147)
!680 = !DISubprogram(name: "fputws", scope: !658, file: !658, line: 780, type: !681, flags: DIFlagPrototyped, spFlags: 0)
!681 = !DISubroutineType(types: !682)
!682 = !{!17, !204, !674}
!683 = !DIImportedEntity(tag: DW_TAG_imported_declaration, scope: !2, entity: !684, file: !652, line: 148)
!684 = !DISubprogram(name: "fwide", scope: !658, file: !658, line: 588, type: !685, flags: DIFlagPrototyped, spFlags: 0)
!685 = !DISubroutineType(types: !686)
!686 = !{!17, !665, !17}
!687 = !DIImportedEntity(tag: DW_TAG_imported_declaration, scope: !2, entity: !688, file: !652, line: 149)
!688 = !DISubprogram(name: "fwprintf", scope: !658, file: !658, line: 595, type: !689, flags: DIFlagPrototyped, spFlags: 0)
!689 = !DISubroutineType(types: !690)
!690 = !{!17, !674, !204, null}
!691 = !DIImportedEntity(tag: DW_TAG_imported_declaration, scope: !2, entity: !692, file: !652, line: 150)
!692 = !DISubprogram(name: "fwscanf", linkageName: "__isoc99_fwscanf", scope: !658, file: !658, line: 657, type: !689, flags: DIFlagPrototyped, spFlags: 0)
!693 = !DIImportedEntity(tag: DW_TAG_imported_declaration, scope: !2, entity: !694, file: !652, line: 151)
!694 = !DISubprogram(name: "getwc", scope: !658, file: !658, line: 745, type: !663, flags: DIFlagPrototyped, spFlags: 0)
!695 = !DIImportedEntity(tag: DW_TAG_imported_declaration, scope: !2, entity: !696, file: !652, line: 152)
!696 = !DISubprogram(name: "getwchar", scope: !658, file: !658, line: 751, type: !697, flags: DIFlagPrototyped, spFlags: 0)
!697 = !DISubroutineType(types: !698)
!698 = !{!654}
!699 = !DIImportedEntity(tag: DW_TAG_imported_declaration, scope: !2, entity: !700, file: !652, line: 153)
!700 = !DISubprogram(name: "mbrlen", scope: !658, file: !658, line: 308, type: !701, flags: DIFlagPrototyped, spFlags: 0)
!701 = !DISubroutineType(types: !702)
!702 = !{!83, !159, !83, !703}
!703 = !DIDerivedType(tag: DW_TAG_restrict_type, baseType: !704)
!704 = !DIDerivedType(tag: DW_TAG_pointer_type, baseType: !639, size: 64)
!705 = !DIImportedEntity(tag: DW_TAG_imported_declaration, scope: !2, entity: !706, file: !652, line: 154)
!706 = !DISubprogram(name: "mbrtowc", scope: !658, file: !658, line: 297, type: !707, flags: DIFlagPrototyped, spFlags: 0)
!707 = !DISubroutineType(types: !708)
!708 = !{!83, !156, !159, !83, !703}
!709 = !DIImportedEntity(tag: DW_TAG_imported_declaration, scope: !2, entity: !710, file: !652, line: 155)
!710 = !DISubprogram(name: "mbsinit", scope: !658, file: !658, line: 293, type: !711, flags: DIFlagPrototyped, spFlags: 0)
!711 = !DISubroutineType(types: !712)
!712 = !{!17, !713}
!713 = !DIDerivedType(tag: DW_TAG_pointer_type, baseType: !714, size: 64)
!714 = !DIDerivedType(tag: DW_TAG_const_type, baseType: !639)
!715 = !DIImportedEntity(tag: DW_TAG_imported_declaration, scope: !2, entity: !716, file: !652, line: 156)
!716 = !DISubprogram(name: "mbsrtowcs", scope: !658, file: !658, line: 338, type: !717, flags: DIFlagPrototyped, spFlags: 0)
!717 = !DISubroutineType(types: !718)
!718 = !{!83, !156, !719, !83, !703}
!719 = !DIDerivedType(tag: DW_TAG_restrict_type, baseType: !720)
!720 = !DIDerivedType(tag: DW_TAG_pointer_type, baseType: !98, size: 64)
!721 = !DIImportedEntity(tag: DW_TAG_imported_declaration, scope: !2, entity: !722, file: !652, line: 157)
!722 = !DISubprogram(name: "putwc", scope: !658, file: !658, line: 759, type: !677, flags: DIFlagPrototyped, spFlags: 0)
!723 = !DIImportedEntity(tag: DW_TAG_imported_declaration, scope: !2, entity: !724, file: !652, line: 158)
!724 = !DISubprogram(name: "putwchar", scope: !658, file: !658, line: 765, type: !725, flags: DIFlagPrototyped, spFlags: 0)
!725 = !DISubroutineType(types: !726)
!726 = !{!654, !158}
!727 = !DIImportedEntity(tag: DW_TAG_imported_declaration, scope: !2, entity: !728, file: !652, line: 160)
!728 = !DISubprogram(name: "swprintf", scope: !658, file: !658, line: 605, type: !729, flags: DIFlagPrototyped, spFlags: 0)
!729 = !DISubroutineType(types: !730)
!730 = !{!17, !156, !83, !204, null}
!731 = !DIImportedEntity(tag: DW_TAG_imported_declaration, scope: !2, entity: !732, file: !652, line: 162)
!732 = !DISubprogram(name: "swscanf", linkageName: "__isoc99_swscanf", scope: !658, file: !658, line: 664, type: !733, flags: DIFlagPrototyped, spFlags: 0)
!733 = !DISubroutineType(types: !734)
!734 = !{!17, !204, !204, null}
!735 = !DIImportedEntity(tag: DW_TAG_imported_declaration, scope: !2, entity: !736, file: !652, line: 163)
!736 = !DISubprogram(name: "ungetwc", scope: !658, file: !658, line: 788, type: !737, flags: DIFlagPrototyped, spFlags: 0)
!737 = !DISubroutineType(types: !738)
!738 = !{!654, !654, !665}
!739 = !DIImportedEntity(tag: DW_TAG_imported_declaration, scope: !2, entity: !740, file: !652, line: 164)
!740 = !DISubprogram(name: "vfwprintf", scope: !658, file: !658, line: 613, type: !741, flags: DIFlagPrototyped, spFlags: 0)
!741 = !DISubroutineType(types: !742)
!742 = !{!17, !674, !204, !743}
!743 = !DIDerivedType(tag: DW_TAG_pointer_type, baseType: !744, size: 64)
!744 = distinct !DICompositeType(tag: DW_TAG_structure_type, name: "__va_list_tag", size: 192, flags: DIFlagTypePassByValue, elements: !745, identifier: "_ZTS13__va_list_tag")
!745 = !{!746, !748, !749, !750}
!746 = !DIDerivedType(tag: DW_TAG_member, name: "gp_offset", scope: !744, file: !747, baseType: !182, size: 32)
!747 = !DIFile(filename: "RTTL/BVH/BVH.cxx", directory: "/home/raj/SVF_PAPER_BENCHMARKS/parsec-3.0/pkgs/apps/raytrace/src")
!748 = !DIDerivedType(tag: DW_TAG_member, name: "fp_offset", scope: !744, file: !747, baseType: !182, size: 32, offset: 32)
!749 = !DIDerivedType(tag: DW_TAG_member, name: "overflow_arg_area", scope: !744, file: !747, baseType: !82, size: 64, offset: 64)
!750 = !DIDerivedType(tag: DW_TAG_member, name: "reg_save_area", scope: !744, file: !747, baseType: !82, size: 64, offset: 128)
!751 = !DIImportedEntity(tag: DW_TAG_imported_declaration, scope: !2, entity: !752, file: !652, line: 166)
!752 = !DISubprogram(name: "vfwscanf", linkageName: "__isoc99_vfwscanf", scope: !658, file: !658, line: 711, type: !741, flags: DIFlagPrototyped, spFlags: 0)
!753 = !DIImportedEntity(tag: DW_TAG_imported_declaration, scope: !2, entity: !754, file: !652, line: 169)
!754 = !DISubprogram(name: "vswprintf", scope: !658, file: !658, line: 626, type: !755, flags: DIFlagPrototyped, spFlags: 0)
!755 = !DISubroutineType(types: !756)
!756 = !{!17, !156, !83, !204, !743}
!757 = !DIImportedEntity(tag: DW_TAG_imported_declaration, scope: !2, entity: !758, file: !652, line: 172)
!758 = !DISubprogram(name: "vswscanf", linkageName: "__isoc99_vswscanf", scope: !658, file: !658, line: 718, type: !759, flags: DIFlagPrototyped, spFlags: 0)
!759 = !DISubroutineType(types: !760)
!760 = !{!17, !204, !204, !743}
!761 = !DIImportedEntity(tag: DW_TAG_imported_declaration, scope: !2, entity: !762, file: !652, line: 174)
!762 = !DISubprogram(name: "vwprintf", scope: !658, file: !658, line: 621, type: !763, flags: DIFlagPrototyped, spFlags: 0)
!763 = !DISubroutineType(types: !764)
!764 = !{!17, !204, !743}
!765 = !DIImportedEntity(tag: DW_TAG_imported_declaration, scope: !2, entity: !766, file: !652, line: 176)
!766 = !DISubprogram(name: "vwscanf", linkageName: "__isoc99_vwscanf", scope: !658, file: !658, line: 715, type: !763, flags: DIFlagPrototyped, spFlags: 0)
!767 = !DIImportedEntity(tag: DW_TAG_imported_declaration, scope: !2, entity: !768, file: !652, line: 178)
!768 = !DISubprogram(name: "wcrtomb", scope: !658, file: !658, line: 302, type: !769, flags: DIFlagPrototyped, spFlags: 0)
!769 = !DISubroutineType(types: !770)
!770 = !{!83, !203, !158, !703}
!771 = !DIImportedEntity(tag: DW_TAG_imported_declaration, scope: !2, entity: !772, file: !652, line: 179)
!772 = !DISubprogram(name: "wcscat", scope: !658, file: !658, line: 97, type: !773, flags: DIFlagPrototyped, spFlags: 0)
!773 = !DISubroutineType(types: !774)
!774 = !{!157, !156, !204}
!775 = !DIImportedEntity(tag: DW_TAG_imported_declaration, scope: !2, entity: !776, file: !652, line: 180)
!776 = !DISubprogram(name: "wcscmp", scope: !658, file: !658, line: 106, type: !777, flags: DIFlagPrototyped, spFlags: 0)
!777 = !DISubroutineType(types: !778)
!778 = !{!17, !205, !205}
!779 = !DIImportedEntity(tag: DW_TAG_imported_declaration, scope: !2, entity: !780, file: !652, line: 181)
!780 = !DISubprogram(name: "wcscoll", scope: !658, file: !658, line: 131, type: !777, flags: DIFlagPrototyped, spFlags: 0)
!781 = !DIImportedEntity(tag: DW_TAG_imported_declaration, scope: !2, entity: !782, file: !652, line: 182)
!782 = !DISubprogram(name: "wcscpy", scope: !658, file: !658, line: 87, type: !773, flags: DIFlagPrototyped, spFlags: 0)
!783 = !DIImportedEntity(tag: DW_TAG_imported_declaration, scope: !2, entity: !784, file: !652, line: 183)
!784 = !DISubprogram(name: "wcscspn", scope: !658, file: !658, line: 188, type: !785, flags: DIFlagPrototyped, spFlags: 0)
!785 = !DISubroutineType(types: !786)
!786 = !{!83, !205, !205}
!787 = !DIImportedEntity(tag: DW_TAG_imported_declaration, scope: !2, entity: !788, file: !652, line: 184)
!788 = !DISubprogram(name: "wcsftime", scope: !658, file: !658, line: 852, type: !789, flags: DIFlagPrototyped, spFlags: 0)
!789 = !DISubroutineType(types: !790)
!790 = !{!83, !156, !83, !204, !791}
!791 = !DIDerivedType(tag: DW_TAG_restrict_type, baseType: !792)
!792 = !DIDerivedType(tag: DW_TAG_pointer_type, baseType: !793, size: 64)
!793 = !DIDerivedType(tag: DW_TAG_const_type, baseType: !794)
!794 = !DICompositeType(tag: DW_TAG_structure_type, name: "tm", file: !658, line: 83, flags: DIFlagFwdDecl | DIFlagNonTrivial, identifier: "_ZTS2tm")
!795 = !DIImportedEntity(tag: DW_TAG_imported_declaration, scope: !2, entity: !796, file: !652, line: 185)
!796 = !DISubprogram(name: "wcslen", scope: !658, file: !658, line: 223, type: !797, flags: DIFlagPrototyped, spFlags: 0)
!797 = !DISubroutineType(types: !798)
!798 = !{!83, !205}
!799 = !DIImportedEntity(tag: DW_TAG_imported_declaration, scope: !2, entity: !800, file: !652, line: 186)
!800 = !DISubprogram(name: "wcsncat", scope: !658, file: !658, line: 101, type: !801, flags: DIFlagPrototyped, spFlags: 0)
!801 = !DISubroutineType(types: !802)
!802 = !{!157, !156, !204, !83}
!803 = !DIImportedEntity(tag: DW_TAG_imported_declaration, scope: !2, entity: !804, file: !652, line: 187)
!804 = !DISubprogram(name: "wcsncmp", scope: !658, file: !658, line: 109, type: !805, flags: DIFlagPrototyped, spFlags: 0)
!805 = !DISubroutineType(types: !806)
!806 = !{!17, !205, !205, !83}
!807 = !DIImportedEntity(tag: DW_TAG_imported_declaration, scope: !2, entity: !808, file: !652, line: 188)
!808 = !DISubprogram(name: "wcsncpy", scope: !658, file: !658, line: 92, type: !801, flags: DIFlagPrototyped, spFlags: 0)
!809 = !DIImportedEntity(tag: DW_TAG_imported_declaration, scope: !2, entity: !810, file: !652, line: 189)
!810 = !DISubprogram(name: "wcsrtombs", scope: !658, file: !658, line: 344, type: !811, flags: DIFlagPrototyped, spFlags: 0)
!811 = !DISubroutineType(types: !812)
!812 = !{!83, !203, !813, !83, !703}
!813 = !DIDerivedType(tag: DW_TAG_restrict_type, baseType: !814)
!814 = !DIDerivedType(tag: DW_TAG_pointer_type, baseType: !205, size: 64)
!815 = !DIImportedEntity(tag: DW_TAG_imported_declaration, scope: !2, entity: !816, file: !652, line: 190)
!816 = !DISubprogram(name: "wcsspn", scope: !658, file: !658, line: 192, type: !785, flags: DIFlagPrototyped, spFlags: 0)
!817 = !DIImportedEntity(tag: DW_TAG_imported_declaration, scope: !2, entity: !818, file: !652, line: 191)
!818 = !DISubprogram(name: "wcstod", scope: !658, file: !658, line: 378, type: !819, flags: DIFlagPrototyped, spFlags: 0)
!819 = !DISubroutineType(types: !820)
!820 = !{!97, !204, !821}
!821 = !DIDerivedType(tag: DW_TAG_restrict_type, baseType: !822)
!822 = !DIDerivedType(tag: DW_TAG_pointer_type, baseType: !157, size: 64)
!823 = !DIImportedEntity(tag: DW_TAG_imported_declaration, scope: !2, entity: !824, file: !652, line: 193)
!824 = !DISubprogram(name: "wcstof", scope: !658, file: !658, line: 383, type: !825, flags: DIFlagPrototyped, spFlags: 0)
!825 = !DISubroutineType(types: !826)
!826 = !{!23, !204, !821}
!827 = !DIImportedEntity(tag: DW_TAG_imported_declaration, scope: !2, entity: !828, file: !652, line: 195)
!828 = !DISubprogram(name: "wcstok", scope: !658, file: !658, line: 218, type: !829, flags: DIFlagPrototyped, spFlags: 0)
!829 = !DISubroutineType(types: !830)
!830 = !{!157, !156, !204, !821}
!831 = !DIImportedEntity(tag: DW_TAG_imported_declaration, scope: !2, entity: !832, file: !652, line: 196)
!832 = !DISubprogram(name: "wcstol", scope: !658, file: !658, line: 429, type: !833, flags: DIFlagPrototyped, spFlags: 0)
!833 = !DISubroutineType(types: !834)
!834 = !{!72, !204, !821, !17}
!835 = !DIImportedEntity(tag: DW_TAG_imported_declaration, scope: !2, entity: !836, file: !652, line: 197)
!836 = !DISubprogram(name: "wcstoul", scope: !658, file: !658, line: 434, type: !837, flags: DIFlagPrototyped, spFlags: 0)
!837 = !DISubroutineType(types: !838)
!838 = !{!85, !204, !821, !17}
!839 = !DIImportedEntity(tag: DW_TAG_imported_declaration, scope: !2, entity: !840, file: !652, line: 198)
!840 = !DISubprogram(name: "wcsxfrm", scope: !658, file: !658, line: 135, type: !841, flags: DIFlagPrototyped, spFlags: 0)
!841 = !DISubroutineType(types: !842)
!842 = !{!83, !156, !204, !83}
!843 = !DIImportedEntity(tag: DW_TAG_imported_declaration, scope: !2, entity: !844, file: !652, line: 199)
!844 = !DISubprogram(name: "wctob", scope: !658, file: !658, line: 289, type: !845, flags: DIFlagPrototyped, spFlags: 0)
!845 = !DISubroutineType(types: !846)
!846 = !{!17, !654}
!847 = !DIImportedEntity(tag: DW_TAG_imported_declaration, scope: !2, entity: !848, file: !652, line: 200)
!848 = !DISubprogram(name: "wmemcmp", scope: !658, file: !658, line: 259, type: !805, flags: DIFlagPrototyped, spFlags: 0)
!849 = !DIImportedEntity(tag: DW_TAG_imported_declaration, scope: !2, entity: !850, file: !652, line: 201)
!850 = !DISubprogram(name: "wmemcpy", scope: !658, file: !658, line: 263, type: !801, flags: DIFlagPrototyped, spFlags: 0)
!851 = !DIImportedEntity(tag: DW_TAG_imported_declaration, scope: !2, entity: !852, file: !652, line: 202)
!852 = !DISubprogram(name: "wmemmove", scope: !658, file: !658, line: 268, type: !853, flags: DIFlagPrototyped, spFlags: 0)
!853 = !DISubroutineType(types: !854)
!854 = !{!157, !157, !205, !83}
!855 = !DIImportedEntity(tag: DW_TAG_imported_declaration, scope: !2, entity: !856, file: !652, line: 203)
!856 = !DISubprogram(name: "wmemset", scope: !658, file: !658, line: 272, type: !857, flags: DIFlagPrototyped, spFlags: 0)
!857 = !DISubroutineType(types: !858)
!858 = !{!157, !157, !158, !83}
!859 = !DIImportedEntity(tag: DW_TAG_imported_declaration, scope: !2, entity: !860, file: !652, line: 204)
!860 = !DISubprogram(name: "wprintf", scope: !658, file: !658, line: 602, type: !861, flags: DIFlagPrototyped, spFlags: 0)
!861 = !DISubroutineType(types: !862)
!862 = !{!17, !204, null}
!863 = !DIImportedEntity(tag: DW_TAG_imported_declaration, scope: !2, entity: !864, file: !652, line: 205)
!864 = !DISubprogram(name: "wscanf", linkageName: "__isoc99_wscanf", scope: !658, file: !658, line: 661, type: !861, flags: DIFlagPrototyped, spFlags: 0)
!865 = !DIImportedEntity(tag: DW_TAG_imported_declaration, scope: !2, entity: !866, file: !652, line: 206)
!866 = !DISubprogram(name: "wcschr", scope: !658, file: !658, line: 165, type: !867, flags: DIFlagPrototyped, spFlags: 0)
!867 = !DISubroutineType(types: !868)
!868 = !{!157, !205, !158}
!869 = !DIImportedEntity(tag: DW_TAG_imported_declaration, scope: !2, entity: !870, file: !652, line: 207)
!870 = !DISubprogram(name: "wcspbrk", scope: !658, file: !658, line: 202, type: !871, flags: DIFlagPrototyped, spFlags: 0)
!871 = !DISubroutineType(types: !872)
!872 = !{!157, !205, !205}
!873 = !DIImportedEntity(tag: DW_TAG_imported_declaration, scope: !2, entity: !874, file: !652, line: 208)
!874 = !DISubprogram(name: "wcsrchr", scope: !658, file: !658, line: 175, type: !867, flags: DIFlagPrototyped, spFlags: 0)
!875 = !DIImportedEntity(tag: DW_TAG_imported_declaration, scope: !2, entity: !876, file: !652, line: 209)
!876 = !DISubprogram(name: "wcsstr", scope: !658, file: !658, line: 213, type: !871, flags: DIFlagPrototyped, spFlags: 0)
!877 = !DIImportedEntity(tag: DW_TAG_imported_declaration, scope: !2, entity: !878, file: !652, line: 210)
!878 = !DISubprogram(name: "wmemchr", scope: !658, file: !658, line: 254, type: !879, flags: DIFlagPrototyped, spFlags: 0)
!879 = !DISubroutineType(types: !880)
!880 = !{!157, !205, !158, !83}
!881 = !DIImportedEntity(tag: DW_TAG_imported_declaration, scope: !212, entity: !882, file: !652, line: 251)
!882 = !DISubprogram(name: "wcstold", scope: !658, file: !658, line: 385, type: !883, flags: DIFlagPrototyped, spFlags: 0)
!883 = !DISubroutineType(types: !884)
!884 = !{!250, !204, !821}
!885 = !DIImportedEntity(tag: DW_TAG_imported_declaration, scope: !212, entity: !886, file: !652, line: 260)
!886 = !DISubprogram(name: "wcstoll", scope: !658, file: !658, line: 442, type: !887, flags: DIFlagPrototyped, spFlags: 0)
!887 = !DISubroutineType(types: !888)
!888 = !{!217, !204, !821, !17}
!889 = !DIImportedEntity(tag: DW_TAG_imported_declaration, scope: !212, entity: !890, file: !652, line: 261)
!890 = !DISubprogram(name: "wcstoull", scope: !658, file: !658, line: 449, type: !891, flags: DIFlagPrototyped, spFlags: 0)
!891 = !DISubroutineType(types: !892)
!892 = !{!241, !204, !821, !17}
!893 = !DIImportedEntity(tag: DW_TAG_imported_declaration, scope: !2, entity: !882, file: !652, line: 267)
!894 = !DIImportedEntity(tag: DW_TAG_imported_declaration, scope: !2, entity: !886, file: !652, line: 268)
!895 = !DIImportedEntity(tag: DW_TAG_imported_declaration, scope: !2, entity: !890, file: !652, line: 269)
!896 = !DIImportedEntity(tag: DW_TAG_imported_declaration, scope: !2, entity: !824, file: !652, line: 283)
!897 = !DIImportedEntity(tag: DW_TAG_imported_declaration, scope: !2, entity: !752, file: !652, line: 286)
!898 = !DIImportedEntity(tag: DW_TAG_imported_declaration, scope: !2, entity: !758, file: !652, line: 289)
!899 = !DIImportedEntity(tag: DW_TAG_imported_declaration, scope: !2, entity: !766, file: !652, line: 292)
!900 = !DIImportedEntity(tag: DW_TAG_imported_declaration, scope: !2, entity: !882, file: !652, line: 296)
!901 = !DIImportedEntity(tag: DW_TAG_imported_declaration, scope: !2, entity: !886, file: !652, line: 297)
!902 = !DIImportedEntity(tag: DW_TAG_imported_declaration, scope: !2, entity: !890, file: !652, line: 298)
!903 = !DIImportedEntity(tag: DW_TAG_imported_declaration, scope: !2, entity: !904, file: !905, line: 68)
!904 = !DICompositeType(tag: DW_TAG_class_type, name: "exception_ptr", scope: !906, file: !905, line: 90, size: 64, flags: DIFlagFwdDecl | DIFlagNonTrivial, identifier: "_ZTSNSt15__exception_ptr13exception_ptrE")
!905 = !DIFile(filename: "/usr/lib/gcc/x86_64-linux-gnu/11/../../../../include/c++/11/bits/exception_ptr.h", directory: "", checksumkind: CSK_MD5, checksum: "ed433011c81450fc2dabd9aa8a29a038")
!906 = !DINamespace(name: "__exception_ptr", scope: !2)
!907 = !DIImportedEntity(tag: DW_TAG_imported_declaration, scope: !906, entity: !908, file: !905, line: 84)
!908 = !DISubprogram(name: "rethrow_exception", linkageName: "_ZSt17rethrow_exceptionNSt15__exception_ptr13exception_ptrE", scope: !2, file: !905, line: 80, type: !909, flags: DIFlagPrototyped | DIFlagNoReturn, spFlags: 0)
!909 = !DISubroutineType(types: !910)
!910 = !{null, !904}
!911 = !DIImportedEntity(tag: DW_TAG_imported_declaration, scope: !2, entity: !912, file: !917, line: 47)
!912 = !DIDerivedType(tag: DW_TAG_typedef, name: "int8_t", file: !913, line: 24, baseType: !914)
!913 = !DIFile(filename: "/usr/include/x86_64-linux-gnu/bits/stdint-intn.h", directory: "", checksumkind: CSK_MD5, checksum: "55bcbdc3159515ebd91d351a70d505f4")
!914 = !DIDerivedType(tag: DW_TAG_typedef, name: "__int8_t", file: !915, line: 37, baseType: !916)
!915 = !DIFile(filename: "/usr/include/x86_64-linux-gnu/bits/types.h", directory: "", checksumkind: CSK_MD5, checksum: "d108b5f93a74c50510d7d9bc0ab36df9")
!916 = !DIBasicType(name: "signed char", size: 8, encoding: DW_ATE_signed_char)
!917 = !DIFile(filename: "/usr/lib/gcc/x86_64-linux-gnu/11/../../../../include/c++/11/cstdint", directory: "")
!918 = !DIImportedEntity(tag: DW_TAG_imported_declaration, scope: !2, entity: !919, file: !917, line: 48)
!919 = !DIDerivedType(tag: DW_TAG_typedef, name: "int16_t", file: !913, line: 25, baseType: !920)
!920 = !DIDerivedType(tag: DW_TAG_typedef, name: "__int16_t", file: !915, line: 39, baseType: !921)
!921 = !DIBasicType(name: "short", size: 16, encoding: DW_ATE_signed)
!922 = !DIImportedEntity(tag: DW_TAG_imported_declaration, scope: !2, entity: !923, file: !917, line: 49)
!923 = !DIDerivedType(tag: DW_TAG_typedef, name: "int32_t", file: !913, line: 26, baseType: !924)
!924 = !DIDerivedType(tag: DW_TAG_typedef, name: "__int32_t", file: !915, line: 41, baseType: !17)
!925 = !DIImportedEntity(tag: DW_TAG_imported_declaration, scope: !2, entity: !926, file: !917, line: 50)
!926 = !DIDerivedType(tag: DW_TAG_typedef, name: "int64_t", file: !913, line: 27, baseType: !927)
!927 = !DIDerivedType(tag: DW_TAG_typedef, name: "__int64_t", file: !915, line: 44, baseType: !72)
!928 = !DIImportedEntity(tag: DW_TAG_imported_declaration, scope: !2, entity: !929, file: !917, line: 52)
!929 = !DIDerivedType(tag: DW_TAG_typedef, name: "int_fast8_t", file: !930, line: 58, baseType: !916)
!930 = !DIFile(filename: "/usr/include/stdint.h", directory: "", checksumkind: CSK_MD5, checksum: "a48e64edacc5b19f56c99745232c963c")
!931 = !DIImportedEntity(tag: DW_TAG_imported_declaration, scope: !2, entity: !932, file: !917, line: 53)
!932 = !DIDerivedType(tag: DW_TAG_typedef, name: "int_fast16_t", file: !930, line: 60, baseType: !72)
!933 = !DIImportedEntity(tag: DW_TAG_imported_declaration, scope: !2, entity: !934, file: !917, line: 54)
!934 = !DIDerivedType(tag: DW_TAG_typedef, name: "int_fast32_t", file: !930, line: 61, baseType: !72)
!935 = !DIImportedEntity(tag: DW_TAG_imported_declaration, scope: !2, entity: !936, file: !917, line: 55)
!936 = !DIDerivedType(tag: DW_TAG_typedef, name: "int_fast64_t", file: !930, line: 62, baseType: !72)
!937 = !DIImportedEntity(tag: DW_TAG_imported_declaration, scope: !2, entity: !938, file: !917, line: 57)
!938 = !DIDerivedType(tag: DW_TAG_typedef, name: "int_least8_t", file: !930, line: 43, baseType: !939)
!939 = !DIDerivedType(tag: DW_TAG_typedef, name: "__int_least8_t", file: !915, line: 52, baseType: !914)
!940 = !DIImportedEntity(tag: DW_TAG_imported_declaration, scope: !2, entity: !941, file: !917, line: 58)
!941 = !DIDerivedType(tag: DW_TAG_typedef, name: "int_least16_t", file: !930, line: 44, baseType: !942)
!942 = !DIDerivedType(tag: DW_TAG_typedef, name: "__int_least16_t", file: !915, line: 54, baseType: !920)
!943 = !DIImportedEntity(tag: DW_TAG_imported_declaration, scope: !2, entity: !944, file: !917, line: 59)
!944 = !DIDerivedType(tag: DW_TAG_typedef, name: "int_least32_t", file: !930, line: 45, baseType: !945)
!945 = !DIDerivedType(tag: DW_TAG_typedef, name: "__int_least32_t", file: !915, line: 56, baseType: !924)
!946 = !DIImportedEntity(tag: DW_TAG_imported_declaration, scope: !2, entity: !947, file: !917, line: 60)
!947 = !DIDerivedType(tag: DW_TAG_typedef, name: "int_least64_t", file: !930, line: 46, baseType: !948)
!948 = !DIDerivedType(tag: DW_TAG_typedef, name: "__int_least64_t", file: !915, line: 58, baseType: !927)
!949 = !DIImportedEntity(tag: DW_TAG_imported_declaration, scope: !2, entity: !950, file: !917, line: 62)
!950 = !DIDerivedType(tag: DW_TAG_typedef, name: "intmax_t", file: !930, line: 101, baseType: !951)
!951 = !DIDerivedType(tag: DW_TAG_typedef, name: "__intmax_t", file: !915, line: 72, baseType: !72)
!952 = !DIImportedEntity(tag: DW_TAG_imported_declaration, scope: !2, entity: !953, file: !917, line: 63)
!953 = !DIDerivedType(tag: DW_TAG_typedef, name: "intptr_t", file: !930, line: 87, baseType: !72)
!954 = !DIImportedEntity(tag: DW_TAG_imported_declaration, scope: !2, entity: !955, file: !917, line: 65)
!955 = !DIDerivedType(tag: DW_TAG_typedef, name: "uint8_t", file: !956, line: 24, baseType: !957)
!956 = !DIFile(filename: "/usr/include/x86_64-linux-gnu/bits/stdint-uintn.h", directory: "", checksumkind: CSK_MD5, checksum: "2bf2ae53c58c01b1a1b9383b5195125c")
!957 = !DIDerivedType(tag: DW_TAG_typedef, name: "__uint8_t", file: !915, line: 38, baseType: !958)
!958 = !DIBasicType(name: "unsigned char", size: 8, encoding: DW_ATE_unsigned_char)
!959 = !DIImportedEntity(tag: DW_TAG_imported_declaration, scope: !2, entity: !960, file: !917, line: 66)
!960 = !DIDerivedType(tag: DW_TAG_typedef, name: "uint16_t", file: !956, line: 25, baseType: !961)
!961 = !DIDerivedType(tag: DW_TAG_typedef, name: "__uint16_t", file: !915, line: 40, baseType: !962)
!962 = !DIBasicType(name: "unsigned short", size: 16, encoding: DW_ATE_unsigned)
!963 = !DIImportedEntity(tag: DW_TAG_imported_declaration, scope: !2, entity: !964, file: !917, line: 67)
!964 = !DIDerivedType(tag: DW_TAG_typedef, name: "uint32_t", file: !956, line: 26, baseType: !965)
!965 = !DIDerivedType(tag: DW_TAG_typedef, name: "__uint32_t", file: !915, line: 42, baseType: !182)
!966 = !DIImportedEntity(tag: DW_TAG_imported_declaration, scope: !2, entity: !967, file: !917, line: 68)
!967 = !DIDerivedType(tag: DW_TAG_typedef, name: "uint64_t", file: !956, line: 27, baseType: !968)
!968 = !DIDerivedType(tag: DW_TAG_typedef, name: "__uint64_t", file: !915, line: 45, baseType: !85)
!969 = !DIImportedEntity(tag: DW_TAG_imported_declaration, scope: !2, entity: !970, file: !917, line: 70)
!970 = !DIDerivedType(tag: DW_TAG_typedef, name: "uint_fast8_t", file: !930, line: 71, baseType: !958)
!971 = !DIImportedEntity(tag: DW_TAG_imported_declaration, scope: !2, entity: !972, file: !917, line: 71)
!972 = !DIDerivedType(tag: DW_TAG_typedef, name: "uint_fast16_t", file: !930, line: 73, baseType: !85)
!973 = !DIImportedEntity(tag: DW_TAG_imported_declaration, scope: !2, entity: !974, file: !917, line: 72)
!974 = !DIDerivedType(tag: DW_TAG_typedef, name: "uint_fast32_t", file: !930, line: 74, baseType: !85)
!975 = !DIImportedEntity(tag: DW_TAG_imported_declaration, scope: !2, entity: !976, file: !917, line: 73)
!976 = !DIDerivedType(tag: DW_TAG_typedef, name: "uint_fast64_t", file: !930, line: 75, baseType: !85)
!977 = !DIImportedEntity(tag: DW_TAG_imported_declaration, scope: !2, entity: !978, file: !917, line: 75)
!978 = !DIDerivedType(tag: DW_TAG_typedef, name: "uint_least8_t", file: !930, line: 49, baseType: !979)
!979 = !DIDerivedType(tag: DW_TAG_typedef, name: "__uint_least8_t", file: !915, line: 53, baseType: !957)
!980 = !DIImportedEntity(tag: DW_TAG_imported_declaration, scope: !2, entity: !981, file: !917, line: 76)
!981 = !DIDerivedType(tag: DW_TAG_typedef, name: "uint_least16_t", file: !930, line: 50, baseType: !982)
!982 = !DIDerivedType(tag: DW_TAG_typedef, name: "__uint_least16_t", file: !915, line: 55, baseType: !961)
!983 = !DIImportedEntity(tag: DW_TAG_imported_declaration, scope: !2, entity: !984, file: !917, line: 77)
!984 = !DIDerivedType(tag: DW_TAG_typedef, name: "uint_least32_t", file: !930, line: 51, baseType: !985)
!985 = !DIDerivedType(tag: DW_TAG_typedef, name: "__uint_least32_t", file: !915, line: 57, baseType: !965)
!986 = !DIImportedEntity(tag: DW_TAG_imported_declaration, scope: !2, entity: !987, file: !917, line: 78)
!987 = !DIDerivedType(tag: DW_TAG_typedef, name: "uint_least64_t", file: !930, line: 52, baseType: !988)
!988 = !DIDerivedType(tag: DW_TAG_typedef, name: "__uint_least64_t", file: !915, line: 59, baseType: !968)
!989 = !DIImportedEntity(tag: DW_TAG_imported_declaration, scope: !2, entity: !990, file: !917, line: 80)
!990 = !DIDerivedType(tag: DW_TAG_typedef, name: "uintmax_t", file: !930, line: 102, baseType: !991)
!991 = !DIDerivedType(tag: DW_TAG_typedef, name: "__uintmax_t", file: !915, line: 73, baseType: !85)
!992 = !DIImportedEntity(tag: DW_TAG_imported_declaration, scope: !2, entity: !993, file: !917, line: 81)
!993 = !DIDerivedType(tag: DW_TAG_typedef, name: "uintptr_t", file: !930, line: 90, baseType: !85)
!994 = !DIImportedEntity(tag: DW_TAG_imported_declaration, scope: !2, entity: !995, file: !997, line: 53)
!995 = !DICompositeType(tag: DW_TAG_structure_type, name: "lconv", file: !996, line: 51, size: 768, flags: DIFlagFwdDecl, identifier: "_ZTS5lconv")
!996 = !DIFile(filename: "/usr/include/locale.h", directory: "", checksumkind: CSK_MD5, checksum: "a1d177e0f311dc60a74cb347049d75bc")
!997 = !DIFile(filename: "/usr/lib/gcc/x86_64-linux-gnu/11/../../../../include/c++/11/clocale", directory: "")
!998 = !DIImportedEntity(tag: DW_TAG_imported_declaration, scope: !2, entity: !999, file: !997, line: 54)
!999 = !DISubprogram(name: "setlocale", scope: !996, file: !996, line: 122, type: !1000, flags: DIFlagPrototyped, spFlags: 0)
!1000 = !DISubroutineType(types: !1001)
!1001 = !{!135, !17, !98}
!1002 = !DIImportedEntity(tag: DW_TAG_imported_declaration, scope: !2, entity: !1003, file: !997, line: 55)
!1003 = !DISubprogram(name: "localeconv", scope: !996, file: !996, line: 125, type: !1004, flags: DIFlagPrototyped, spFlags: 0)
!1004 = !DISubroutineType(types: !1005)
!1005 = !{!1006}
!1006 = !DIDerivedType(tag: DW_TAG_pointer_type, baseType: !995, size: 64)
!1007 = !DIImportedEntity(tag: DW_TAG_imported_declaration, scope: !2, entity: !1008, file: !1010, line: 64)
!1008 = !DISubprogram(name: "isalnum", scope: !1009, file: !1009, line: 108, type: !60, flags: DIFlagPrototyped, spFlags: 0)
!1009 = !DIFile(filename: "/usr/include/ctype.h", directory: "", checksumkind: CSK_MD5, checksum: "3ab3dd7fdf2578005732722ee2393e59")
!1010 = !DIFile(filename: "/usr/lib/gcc/x86_64-linux-gnu/11/../../../../include/c++/11/cctype", directory: "")
!1011 = !DIImportedEntity(tag: DW_TAG_imported_declaration, scope: !2, entity: !1012, file: !1010, line: 65)
!1012 = !DISubprogram(name: "isalpha", scope: !1009, file: !1009, line: 109, type: !60, flags: DIFlagPrototyped, spFlags: 0)
!1013 = !DIImportedEntity(tag: DW_TAG_imported_declaration, scope: !2, entity: !1014, file: !1010, line: 66)
!1014 = !DISubprogram(name: "iscntrl", scope: !1009, file: !1009, line: 110, type: !60, flags: DIFlagPrototyped, spFlags: 0)
!1015 = !DIImportedEntity(tag: DW_TAG_imported_declaration, scope: !2, entity: !1016, file: !1010, line: 67)
!1016 = !DISubprogram(name: "isdigit", scope: !1009, file: !1009, line: 111, type: !60, flags: DIFlagPrototyped, spFlags: 0)
!1017 = !DIImportedEntity(tag: DW_TAG_imported_declaration, scope: !2, entity: !1018, file: !1010, line: 68)
!1018 = !DISubprogram(name: "isgraph", scope: !1009, file: !1009, line: 113, type: !60, flags: DIFlagPrototyped, spFlags: 0)
!1019 = !DIImportedEntity(tag: DW_TAG_imported_declaration, scope: !2, entity: !1020, file: !1010, line: 69)
!1020 = !DISubprogram(name: "islower", scope: !1009, file: !1009, line: 112, type: !60, flags: DIFlagPrototyped, spFlags: 0)
!1021 = !DIImportedEntity(tag: DW_TAG_imported_declaration, scope: !2, entity: !1022, file: !1010, line: 70)
!1022 = !DISubprogram(name: "isprint", scope: !1009, file: !1009, line: 114, type: !60, flags: DIFlagPrototyped, spFlags: 0)
!1023 = !DIImportedEntity(tag: DW_TAG_imported_declaration, scope: !2, entity: !1024, file: !1010, line: 71)
!1024 = !DISubprogram(name: "ispunct", scope: !1009, file: !1009, line: 115, type: !60, flags: DIFlagPrototyped, spFlags: 0)
!1025 = !DIImportedEntity(tag: DW_TAG_imported_declaration, scope: !2, entity: !1026, file: !1010, line: 72)
!1026 = !DISubprogram(name: "isspace", scope: !1009, file: !1009, line: 116, type: !60, flags: DIFlagPrototyped, spFlags: 0)
!1027 = !DIImportedEntity(tag: DW_TAG_imported_declaration, scope: !2, entity: !1028, file: !1010, line: 73)
!1028 = !DISubprogram(name: "isupper", scope: !1009, file: !1009, line: 117, type: !60, flags: DIFlagPrototyped, spFlags: 0)
!1029 = !DIImportedEntity(tag: DW_TAG_imported_declaration, scope: !2, entity: !1030, file: !1010, line: 74)
!1030 = !DISubprogram(name: "isxdigit", scope: !1009, file: !1009, line: 118, type: !60, flags: DIFlagPrototyped, spFlags: 0)
!1031 = !DIImportedEntity(tag: DW_TAG_imported_declaration, scope: !2, entity: !1032, file: !1010, line: 75)
!1032 = !DISubprogram(name: "tolower", scope: !1009, file: !1009, line: 122, type: !60, flags: DIFlagPrototyped, spFlags: 0)
!1033 = !DIImportedEntity(tag: DW_TAG_imported_declaration, scope: !2, entity: !1034, file: !1010, line: 76)
!1034 = !DISubprogram(name: "toupper", scope: !1009, file: !1009, line: 125, type: !60, flags: DIFlagPrototyped, spFlags: 0)
!1035 = !DIImportedEntity(tag: DW_TAG_imported_declaration, scope: !2, entity: !1036, file: !1010, line: 87)
!1036 = !DISubprogram(name: "isblank", scope: !1009, file: !1009, line: 130, type: !60, flags: DIFlagPrototyped, spFlags: 0)
!1037 = !DIImportedEntity(tag: DW_TAG_imported_declaration, scope: !2, entity: !1038, file: !1040, line: 98)
!1038 = !DIDerivedType(tag: DW_TAG_typedef, name: "FILE", file: !1039, line: 7, baseType: !668)
!1039 = !DIFile(filename: "/usr/include/x86_64-linux-gnu/bits/types/FILE.h", directory: "", checksumkind: CSK_MD5, checksum: "571f9fb6223c42439075fdde11a0de5d")
!1040 = !DIFile(filename: "/usr/lib/gcc/x86_64-linux-gnu/11/../../../../include/c++/11/cstdio", directory: "")
!1041 = !DIImportedEntity(tag: DW_TAG_imported_declaration, scope: !2, entity: !1042, file: !1040, line: 99)
!1042 = !DIDerivedType(tag: DW_TAG_typedef, name: "fpos_t", file: !1043, line: 84, baseType: !1044)
!1043 = !DIFile(filename: "/usr/include/stdio.h", directory: "", checksumkind: CSK_MD5, checksum: "f31eefcc3f15835fc5a4023a625cf609")
!1044 = !DIDerivedType(tag: DW_TAG_typedef, name: "__fpos_t", file: !1045, line: 14, baseType: !1046)
!1045 = !DIFile(filename: "/usr/include/x86_64-linux-gnu/bits/types/__fpos_t.h", directory: "", checksumkind: CSK_MD5, checksum: "32de8bdaf3551a6c0a9394f9af4389ce")
!1046 = !DICompositeType(tag: DW_TAG_structure_type, name: "_G_fpos_t", file: !1045, line: 10, size: 128, flags: DIFlagFwdDecl, identifier: "_ZTS9_G_fpos_t")
!1047 = !DIImportedEntity(tag: DW_TAG_imported_declaration, scope: !2, entity: !1048, file: !1040, line: 101)
!1048 = !DISubprogram(name: "clearerr", scope: !1043, file: !1043, line: 786, type: !1049, flags: DIFlagPrototyped, spFlags: 0)
!1049 = !DISubroutineType(types: !1050)
!1050 = !{null, !1051}
!1051 = !DIDerivedType(tag: DW_TAG_pointer_type, baseType: !1038, size: 64)
!1052 = !DIImportedEntity(tag: DW_TAG_imported_declaration, scope: !2, entity: !1053, file: !1040, line: 102)
!1053 = !DISubprogram(name: "fclose", scope: !1043, file: !1043, line: 178, type: !1054, flags: DIFlagPrototyped, spFlags: 0)
!1054 = !DISubroutineType(types: !1055)
!1055 = !{!17, !1051}
!1056 = !DIImportedEntity(tag: DW_TAG_imported_declaration, scope: !2, entity: !1057, file: !1040, line: 103)
!1057 = !DISubprogram(name: "feof", scope: !1043, file: !1043, line: 788, type: !1054, flags: DIFlagPrototyped, spFlags: 0)
!1058 = !DIImportedEntity(tag: DW_TAG_imported_declaration, scope: !2, entity: !1059, file: !1040, line: 104)
!1059 = !DISubprogram(name: "ferror", scope: !1043, file: !1043, line: 790, type: !1054, flags: DIFlagPrototyped, spFlags: 0)
!1060 = !DIImportedEntity(tag: DW_TAG_imported_declaration, scope: !2, entity: !1061, file: !1040, line: 105)
!1061 = !DISubprogram(name: "fflush", scope: !1043, file: !1043, line: 230, type: !1054, flags: DIFlagPrototyped, spFlags: 0)
!1062 = !DIImportedEntity(tag: DW_TAG_imported_declaration, scope: !2, entity: !1063, file: !1040, line: 106)
!1063 = !DISubprogram(name: "fgetc", scope: !1043, file: !1043, line: 513, type: !1054, flags: DIFlagPrototyped, spFlags: 0)
!1064 = !DIImportedEntity(tag: DW_TAG_imported_declaration, scope: !2, entity: !1065, file: !1040, line: 107)
!1065 = !DISubprogram(name: "fgetpos", scope: !1043, file: !1043, line: 760, type: !1066, flags: DIFlagPrototyped, spFlags: 0)
!1066 = !DISubroutineType(types: !1067)
!1067 = !{!17, !1068, !1069}
!1068 = !DIDerivedType(tag: DW_TAG_restrict_type, baseType: !1051)
!1069 = !DIDerivedType(tag: DW_TAG_restrict_type, baseType: !1070)
!1070 = !DIDerivedType(tag: DW_TAG_pointer_type, baseType: !1042, size: 64)
!1071 = !DIImportedEntity(tag: DW_TAG_imported_declaration, scope: !2, entity: !1072, file: !1040, line: 108)
!1072 = !DISubprogram(name: "fgets", scope: !1043, file: !1043, line: 592, type: !1073, flags: DIFlagPrototyped, spFlags: 0)
!1073 = !DISubroutineType(types: !1074)
!1074 = !{!135, !203, !17, !1068}
!1075 = !DIImportedEntity(tag: DW_TAG_imported_declaration, scope: !2, entity: !1076, file: !1040, line: 109)
!1076 = !DISubprogram(name: "fopen", scope: !1043, file: !1043, line: 258, type: !1077, flags: DIFlagPrototyped, spFlags: 0)
!1077 = !DISubroutineType(types: !1078)
!1078 = !{!1051, !159, !159}
!1079 = !DIImportedEntity(tag: DW_TAG_imported_declaration, scope: !2, entity: !1080, file: !1040, line: 110)
!1080 = !DISubprogram(name: "fprintf", scope: !1043, file: !1043, line: 350, type: !1081, flags: DIFlagPrototyped, spFlags: 0)
!1081 = !DISubroutineType(types: !1082)
!1082 = !{!17, !1068, !159, null}
!1083 = !DIImportedEntity(tag: DW_TAG_imported_declaration, scope: !2, entity: !1084, file: !1040, line: 111)
!1084 = !DISubprogram(name: "fputc", scope: !1043, file: !1043, line: 549, type: !1085, flags: DIFlagPrototyped, spFlags: 0)
!1085 = !DISubroutineType(types: !1086)
!1086 = !{!17, !17, !1051}
!1087 = !DIImportedEntity(tag: DW_TAG_imported_declaration, scope: !2, entity: !1088, file: !1040, line: 112)
!1088 = !DISubprogram(name: "fputs", scope: !1043, file: !1043, line: 655, type: !1089, flags: DIFlagPrototyped, spFlags: 0)
!1089 = !DISubroutineType(types: !1090)
!1090 = !{!17, !159, !1068}
!1091 = !DIImportedEntity(tag: DW_TAG_imported_declaration, scope: !2, entity: !1092, file: !1040, line: 113)
!1092 = !DISubprogram(name: "fread", scope: !1043, file: !1043, line: 675, type: !1093, flags: DIFlagPrototyped, spFlags: 0)
!1093 = !DISubroutineType(types: !1094)
!1094 = !{!83, !1095, !83, !83, !1068}
!1095 = !DIDerivedType(tag: DW_TAG_restrict_type, baseType: !82)
!1096 = !DIImportedEntity(tag: DW_TAG_imported_declaration, scope: !2, entity: !1097, file: !1040, line: 114)
!1097 = !DISubprogram(name: "freopen", scope: !1043, file: !1043, line: 265, type: !1098, flags: DIFlagPrototyped, spFlags: 0)
!1098 = !DISubroutineType(types: !1099)
!1099 = !{!1051, !159, !159, !1068}
!1100 = !DIImportedEntity(tag: DW_TAG_imported_declaration, scope: !2, entity: !1101, file: !1040, line: 115)
!1101 = !DISubprogram(name: "fscanf", linkageName: "__isoc99_fscanf", scope: !1043, file: !1043, line: 434, type: !1081, flags: DIFlagPrototyped, spFlags: 0)
!1102 = !DIImportedEntity(tag: DW_TAG_imported_declaration, scope: !2, entity: !1103, file: !1040, line: 116)
!1103 = !DISubprogram(name: "fseek", scope: !1043, file: !1043, line: 713, type: !1104, flags: DIFlagPrototyped, spFlags: 0)
!1104 = !DISubroutineType(types: !1105)
!1105 = !{!17, !1051, !72, !17}
!1106 = !DIImportedEntity(tag: DW_TAG_imported_declaration, scope: !2, entity: !1107, file: !1040, line: 117)
!1107 = !DISubprogram(name: "fsetpos", scope: !1043, file: !1043, line: 765, type: !1108, flags: DIFlagPrototyped, spFlags: 0)
!1108 = !DISubroutineType(types: !1109)
!1109 = !{!17, !1051, !1110}
!1110 = !DIDerivedType(tag: DW_TAG_pointer_type, baseType: !1111, size: 64)
!1111 = !DIDerivedType(tag: DW_TAG_const_type, baseType: !1042)
!1112 = !DIImportedEntity(tag: DW_TAG_imported_declaration, scope: !2, entity: !1113, file: !1040, line: 118)
!1113 = !DISubprogram(name: "ftell", scope: !1043, file: !1043, line: 718, type: !1114, flags: DIFlagPrototyped, spFlags: 0)
!1114 = !DISubroutineType(types: !1115)
!1115 = !{!72, !1051}
!1116 = !DIImportedEntity(tag: DW_TAG_imported_declaration, scope: !2, entity: !1117, file: !1040, line: 119)
!1117 = !DISubprogram(name: "fwrite", scope: !1043, file: !1043, line: 681, type: !1118, flags: DIFlagPrototyped, spFlags: 0)
!1118 = !DISubroutineType(types: !1119)
!1119 = !{!83, !1120, !83, !83, !1068}
!1120 = !DIDerivedType(tag: DW_TAG_restrict_type, baseType: !111)
!1121 = !DIImportedEntity(tag: DW_TAG_imported_declaration, scope: !2, entity: !1122, file: !1040, line: 120)
!1122 = !DISubprogram(name: "getc", scope: !1043, file: !1043, line: 514, type: !1054, flags: DIFlagPrototyped, spFlags: 0)
!1123 = !DIImportedEntity(tag: DW_TAG_imported_declaration, scope: !2, entity: !1124, file: !1040, line: 121)
!1124 = !DISubprogram(name: "getchar", scope: !1043, file: !1043, line: 520, type: !172, flags: DIFlagPrototyped, spFlags: 0)
!1125 = !DIImportedEntity(tag: DW_TAG_imported_declaration, scope: !2, entity: !1126, file: !1040, line: 126)
!1126 = !DISubprogram(name: "perror", scope: !1043, file: !1043, line: 804, type: !1127, flags: DIFlagPrototyped, spFlags: 0)
!1127 = !DISubroutineType(types: !1128)
!1128 = !{null, !98}
!1129 = !DIImportedEntity(tag: DW_TAG_imported_declaration, scope: !2, entity: !1130, file: !1040, line: 127)
!1130 = !DISubprogram(name: "printf", scope: !1043, file: !1043, line: 356, type: !1131, flags: DIFlagPrototyped, spFlags: 0)
!1131 = !DISubroutineType(types: !1132)
!1132 = !{!17, !159, null}
!1133 = !DIImportedEntity(tag: DW_TAG_imported_declaration, scope: !2, entity: !1134, file: !1040, line: 128)
!1134 = !DISubprogram(name: "putc", scope: !1043, file: !1043, line: 550, type: !1085, flags: DIFlagPrototyped, spFlags: 0)
!1135 = !DIImportedEntity(tag: DW_TAG_imported_declaration, scope: !2, entity: !1136, file: !1040, line: 129)
!1136 = !DISubprogram(name: "putchar", scope: !1043, file: !1043, line: 556, type: !60, flags: DIFlagPrototyped, spFlags: 0)
!1137 = !DIImportedEntity(tag: DW_TAG_imported_declaration, scope: !2, entity: !1138, file: !1040, line: 130)
!1138 = !DISubprogram(name: "puts", scope: !1043, file: !1043, line: 661, type: !101, flags: DIFlagPrototyped, spFlags: 0)
!1139 = !DIImportedEntity(tag: DW_TAG_imported_declaration, scope: !2, entity: !1140, file: !1040, line: 131)
!1140 = !DISubprogram(name: "remove", scope: !1043, file: !1043, line: 152, type: !101, flags: DIFlagPrototyped, spFlags: 0)
!1141 = !DIImportedEntity(tag: DW_TAG_imported_declaration, scope: !2, entity: !1142, file: !1040, line: 132)
!1142 = !DISubprogram(name: "rename", scope: !1043, file: !1043, line: 154, type: !1143, flags: DIFlagPrototyped, spFlags: 0)
!1143 = !DISubroutineType(types: !1144)
!1144 = !{!17, !98, !98}
!1145 = !DIImportedEntity(tag: DW_TAG_imported_declaration, scope: !2, entity: !1146, file: !1040, line: 133)
!1146 = !DISubprogram(name: "rewind", scope: !1043, file: !1043, line: 723, type: !1049, flags: DIFlagPrototyped, spFlags: 0)
!1147 = !DIImportedEntity(tag: DW_TAG_imported_declaration, scope: !2, entity: !1148, file: !1040, line: 134)
!1148 = !DISubprogram(name: "scanf", linkageName: "__isoc99_scanf", scope: !1043, file: !1043, line: 437, type: !1131, flags: DIFlagPrototyped, spFlags: 0)
!1149 = !DIImportedEntity(tag: DW_TAG_imported_declaration, scope: !2, entity: !1150, file: !1040, line: 135)
!1150 = !DISubprogram(name: "setbuf", scope: !1043, file: !1043, line: 328, type: !1151, flags: DIFlagPrototyped, spFlags: 0)
!1151 = !DISubroutineType(types: !1152)
!1152 = !{null, !1068, !203}
!1153 = !DIImportedEntity(tag: DW_TAG_imported_declaration, scope: !2, entity: !1154, file: !1040, line: 136)
!1154 = !DISubprogram(name: "setvbuf", scope: !1043, file: !1043, line: 332, type: !1155, flags: DIFlagPrototyped, spFlags: 0)
!1155 = !DISubroutineType(types: !1156)
!1156 = !{!17, !1068, !203, !17, !83}
!1157 = !DIImportedEntity(tag: DW_TAG_imported_declaration, scope: !2, entity: !1158, file: !1040, line: 137)
!1158 = !DISubprogram(name: "sprintf", scope: !1043, file: !1043, line: 358, type: !1159, flags: DIFlagPrototyped, spFlags: 0)
!1159 = !DISubroutineType(types: !1160)
!1160 = !{!17, !203, !159, null}
!1161 = !DIImportedEntity(tag: DW_TAG_imported_declaration, scope: !2, entity: !1162, file: !1040, line: 138)
!1162 = !DISubprogram(name: "sscanf", linkageName: "__isoc99_sscanf", scope: !1043, file: !1043, line: 439, type: !1163, flags: DIFlagPrototyped, spFlags: 0)
!1163 = !DISubroutineType(types: !1164)
!1164 = !{!17, !159, !159, null}
!1165 = !DIImportedEntity(tag: DW_TAG_imported_declaration, scope: !2, entity: !1166, file: !1040, line: 139)
!1166 = !DISubprogram(name: "tmpfile", scope: !1043, file: !1043, line: 188, type: !1167, flags: DIFlagPrototyped, spFlags: 0)
!1167 = !DISubroutineType(types: !1168)
!1168 = !{!1051}
!1169 = !DIImportedEntity(tag: DW_TAG_imported_declaration, scope: !2, entity: !1170, file: !1040, line: 141)
!1170 = !DISubprogram(name: "tmpnam", scope: !1043, file: !1043, line: 205, type: !1171, flags: DIFlagPrototyped, spFlags: 0)
!1171 = !DISubroutineType(types: !1172)
!1172 = !{!135, !135}
!1173 = !DIImportedEntity(tag: DW_TAG_imported_declaration, scope: !2, entity: !1174, file: !1040, line: 143)
!1174 = !DISubprogram(name: "ungetc", scope: !1043, file: !1043, line: 668, type: !1085, flags: DIFlagPrototyped, spFlags: 0)
!1175 = !DIImportedEntity(tag: DW_TAG_imported_declaration, scope: !2, entity: !1176, file: !1040, line: 144)
!1176 = !DISubprogram(name: "vfprintf", scope: !1043, file: !1043, line: 365, type: !1177, flags: DIFlagPrototyped, spFlags: 0)
!1177 = !DISubroutineType(types: !1178)
!1178 = !{!17, !1068, !159, !743}
!1179 = !DIImportedEntity(tag: DW_TAG_imported_declaration, scope: !2, entity: !1180, file: !1040, line: 145)
!1180 = !DISubprogram(name: "vprintf", scope: !1043, file: !1043, line: 371, type: !1181, flags: DIFlagPrototyped, spFlags: 0)
!1181 = !DISubroutineType(types: !1182)
!1182 = !{!17, !159, !743}
!1183 = !DIImportedEntity(tag: DW_TAG_imported_declaration, scope: !2, entity: !1184, file: !1040, line: 146)
!1184 = !DISubprogram(name: "vsprintf", scope: !1043, file: !1043, line: 373, type: !1185, flags: DIFlagPrototyped, spFlags: 0)
!1185 = !DISubroutineType(types: !1186)
!1186 = !{!17, !203, !159, !743}
!1187 = !DIImportedEntity(tag: DW_TAG_imported_declaration, scope: !212, entity: !1188, file: !1040, line: 175)
!1188 = !DISubprogram(name: "snprintf", scope: !1043, file: !1043, line: 378, type: !1189, flags: DIFlagPrototyped, spFlags: 0)
!1189 = !DISubroutineType(types: !1190)
!1190 = !{!17, !203, !83, !159, null}
!1191 = !DIImportedEntity(tag: DW_TAG_imported_declaration, scope: !212, entity: !1192, file: !1040, line: 176)
!1192 = !DISubprogram(name: "vfscanf", linkageName: "__isoc99_vfscanf", scope: !1043, file: !1043, line: 479, type: !1177, flags: DIFlagPrototyped, spFlags: 0)
!1193 = !DIImportedEntity(tag: DW_TAG_imported_declaration, scope: !212, entity: !1194, file: !1040, line: 177)
!1194 = !DISubprogram(name: "vscanf", linkageName: "__isoc99_vscanf", scope: !1043, file: !1043, line: 484, type: !1181, flags: DIFlagPrototyped, spFlags: 0)
!1195 = !DIImportedEntity(tag: DW_TAG_imported_declaration, scope: !212, entity: !1196, file: !1040, line: 178)
!1196 = !DISubprogram(name: "vsnprintf", scope: !1043, file: !1043, line: 382, type: !1197, flags: DIFlagPrototyped, spFlags: 0)
!1197 = !DISubroutineType(types: !1198)
!1198 = !{!17, !203, !83, !159, !743}
!1199 = !DIImportedEntity(tag: DW_TAG_imported_declaration, scope: !212, entity: !1200, file: !1040, line: 179)
!1200 = !DISubprogram(name: "vsscanf", linkageName: "__isoc99_vsscanf", scope: !1043, file: !1043, line: 487, type: !1201, flags: DIFlagPrototyped, spFlags: 0)
!1201 = !DISubroutineType(types: !1202)
!1202 = !{!17, !159, !159, !743}
!1203 = !DIImportedEntity(tag: DW_TAG_imported_declaration, scope: !2, entity: !1188, file: !1040, line: 185)
!1204 = !DIImportedEntity(tag: DW_TAG_imported_declaration, scope: !2, entity: !1192, file: !1040, line: 186)
!1205 = !DIImportedEntity(tag: DW_TAG_imported_declaration, scope: !2, entity: !1194, file: !1040, line: 187)
!1206 = !DIImportedEntity(tag: DW_TAG_imported_declaration, scope: !2, entity: !1196, file: !1040, line: 188)
!1207 = !DIImportedEntity(tag: DW_TAG_imported_declaration, scope: !2, entity: !1200, file: !1040, line: 189)
!1208 = !DIImportedEntity(tag: DW_TAG_imported_declaration, scope: !2, entity: !1209, file: !1213, line: 82)
!1209 = !DIDerivedType(tag: DW_TAG_typedef, name: "wctrans_t", file: !1210, line: 48, baseType: !1211)
!1210 = !DIFile(filename: "/usr/include/wctype.h", directory: "", checksumkind: CSK_MD5, checksum: "9bcd8e8b8cd2078c8a6c42e262af7d7b")
!1211 = !DIDerivedType(tag: DW_TAG_pointer_type, baseType: !1212, size: 64)
!1212 = !DIDerivedType(tag: DW_TAG_const_type, baseType: !924)
!1213 = !DIFile(filename: "/usr/lib/gcc/x86_64-linux-gnu/11/../../../../include/c++/11/cwctype", directory: "")
!1214 = !DIImportedEntity(tag: DW_TAG_imported_declaration, scope: !2, entity: !1215, file: !1213, line: 83)
!1215 = !DIDerivedType(tag: DW_TAG_typedef, name: "wctype_t", file: !1216, line: 38, baseType: !85)
!1216 = !DIFile(filename: "/usr/include/x86_64-linux-gnu/bits/wctype-wchar.h", directory: "", checksumkind: CSK_MD5, checksum: "48fed714a84c77fca0455b433489fc47")
!1217 = !DIImportedEntity(tag: DW_TAG_imported_declaration, scope: !2, entity: !654, file: !1213, line: 84)
!1218 = !DIImportedEntity(tag: DW_TAG_imported_declaration, scope: !2, entity: !1219, file: !1213, line: 86)
!1219 = !DISubprogram(name: "iswalnum", scope: !1216, file: !1216, line: 95, type: !845, flags: DIFlagPrototyped, spFlags: 0)
!1220 = !DIImportedEntity(tag: DW_TAG_imported_declaration, scope: !2, entity: !1221, file: !1213, line: 87)
!1221 = !DISubprogram(name: "iswalpha", scope: !1216, file: !1216, line: 101, type: !845, flags: DIFlagPrototyped, spFlags: 0)
!1222 = !DIImportedEntity(tag: DW_TAG_imported_declaration, scope: !2, entity: !1223, file: !1213, line: 89)
!1223 = !DISubprogram(name: "iswblank", scope: !1216, file: !1216, line: 146, type: !845, flags: DIFlagPrototyped, spFlags: 0)
!1224 = !DIImportedEntity(tag: DW_TAG_imported_declaration, scope: !2, entity: !1225, file: !1213, line: 91)
!1225 = !DISubprogram(name: "iswcntrl", scope: !1216, file: !1216, line: 104, type: !845, flags: DIFlagPrototyped, spFlags: 0)
!1226 = !DIImportedEntity(tag: DW_TAG_imported_declaration, scope: !2, entity: !1227, file: !1213, line: 92)
!1227 = !DISubprogram(name: "iswctype", scope: !1216, file: !1216, line: 159, type: !1228, flags: DIFlagPrototyped, spFlags: 0)
!1228 = !DISubroutineType(types: !1229)
!1229 = !{!17, !654, !1215}
!1230 = !DIImportedEntity(tag: DW_TAG_imported_declaration, scope: !2, entity: !1231, file: !1213, line: 93)
!1231 = !DISubprogram(name: "iswdigit", scope: !1216, file: !1216, line: 108, type: !845, flags: DIFlagPrototyped, spFlags: 0)
!1232 = !DIImportedEntity(tag: DW_TAG_imported_declaration, scope: !2, entity: !1233, file: !1213, line: 94)
!1233 = !DISubprogram(name: "iswgraph", scope: !1216, file: !1216, line: 112, type: !845, flags: DIFlagPrototyped, spFlags: 0)
!1234 = !DIImportedEntity(tag: DW_TAG_imported_declaration, scope: !2, entity: !1235, file: !1213, line: 95)
!1235 = !DISubprogram(name: "iswlower", scope: !1216, file: !1216, line: 117, type: !845, flags: DIFlagPrototyped, spFlags: 0)
!1236 = !DIImportedEntity(tag: DW_TAG_imported_declaration, scope: !2, entity: !1237, file: !1213, line: 96)
!1237 = !DISubprogram(name: "iswprint", scope: !1216, file: !1216, line: 120, type: !845, flags: DIFlagPrototyped, spFlags: 0)
!1238 = !DIImportedEntity(tag: DW_TAG_imported_declaration, scope: !2, entity: !1239, file: !1213, line: 97)
!1239 = !DISubprogram(name: "iswpunct", scope: !1216, file: !1216, line: 125, type: !845, flags: DIFlagPrototyped, spFlags: 0)
!1240 = !DIImportedEntity(tag: DW_TAG_imported_declaration, scope: !2, entity: !1241, file: !1213, line: 98)
!1241 = !DISubprogram(name: "iswspace", scope: !1216, file: !1216, line: 130, type: !845, flags: DIFlagPrototyped, spFlags: 0)
!1242 = !DIImportedEntity(tag: DW_TAG_imported_declaration, scope: !2, entity: !1243, file: !1213, line: 99)
!1243 = !DISubprogram(name: "iswupper", scope: !1216, file: !1216, line: 135, type: !845, flags: DIFlagPrototyped, spFlags: 0)
!1244 = !DIImportedEntity(tag: DW_TAG_imported_declaration, scope: !2, entity: !1245, file: !1213, line: 100)
!1245 = !DISubprogram(name: "iswxdigit", scope: !1216, file: !1216, line: 140, type: !845, flags: DIFlagPrototyped, spFlags: 0)
!1246 = !DIImportedEntity(tag: DW_TAG_imported_declaration, scope: !2, entity: !1247, file: !1213, line: 101)
!1247 = !DISubprogram(name: "towctrans", scope: !1210, file: !1210, line: 55, type: !1248, flags: DIFlagPrototyped, spFlags: 0)
!1248 = !DISubroutineType(types: !1249)
!1249 = !{!654, !654, !1209}
!1250 = !DIImportedEntity(tag: DW_TAG_imported_declaration, scope: !2, entity: !1251, file: !1213, line: 102)
!1251 = !DISubprogram(name: "towlower", scope: !1216, file: !1216, line: 166, type: !1252, flags: DIFlagPrototyped, spFlags: 0)
!1252 = !DISubroutineType(types: !1253)
!1253 = !{!654, !654}
!1254 = !DIImportedEntity(tag: DW_TAG_imported_declaration, scope: !2, entity: !1255, file: !1213, line: 103)
!1255 = !DISubprogram(name: "towupper", scope: !1216, file: !1216, line: 169, type: !1252, flags: DIFlagPrototyped, spFlags: 0)
!1256 = !DIImportedEntity(tag: DW_TAG_imported_declaration, scope: !2, entity: !1257, file: !1213, line: 104)
!1257 = !DISubprogram(name: "wctrans", scope: !1210, file: !1210, line: 52, type: !1258, flags: DIFlagPrototyped, spFlags: 0)
!1258 = !DISubroutineType(types: !1259)
!1259 = !{!1209, !98}
!1260 = !DIImportedEntity(tag: DW_TAG_imported_declaration, scope: !2, entity: !1261, file: !1213, line: 105)
!1261 = !DISubprogram(name: "wctype", scope: !1216, file: !1216, line: 155, type: !1262, flags: DIFlagPrototyped, spFlags: 0)
!1262 = !DISubroutineType(types: !1263)
!1263 = !{!1215, !98}
!1264 = !DIImportedEntity(tag: DW_TAG_imported_module, scope: !9, entity: !2, file: !1265, line: 70)
!1265 = !DIFile(filename: "RTTL/BVH/../common/RTInclude.hxx", directory: "/home/raj/SVF_PAPER_BENCHMARKS/parsec-3.0/pkgs/apps/raytrace/src", checksumkind: CSK_MD5, checksum: "735b2b9337cd60438b3f1c6b71b217f1")
!1266 = !DIImportedEntity(tag: DW_TAG_imported_module, scope: !9, entity: !2, file: !1267, line: 7)
!1267 = !DIFile(filename: "RTTL/common/RTVec.hxx", directory: "/home/raj/SVF_PAPER_BENCHMARKS/parsec-3.0/pkgs/apps/raytrace/src", checksumkind: CSK_MD5, checksum: "adfbd7ae4dab54b31af1e64824b8abcb")
!1268 = !DIImportedEntity(tag: DW_TAG_imported_module, scope: !9, entity: !15, file: !1269, line: 10)
!1269 = !DIFile(filename: "RTTL/BVH/../Triangle/Triangle.hxx", directory: "/home/raj/SVF_PAPER_BENCHMARKS/parsec-3.0/pkgs/apps/raytrace/src", checksumkind: CSK_MD5, checksum: "5520012dde959a8e77b0f8f6df2de19f")
!1270 = !DIFile(filename: "RTTL/common/RTSSE.hxx", directory: "/home/raj/SVF_PAPER_BENCHMARKS/parsec-3.0/pkgs/apps/raytrace/src", checksumkind: CSK_MD5, checksum: "bbd5737e46ece2f5710eab9b8aad1d25")
!1271 = !DIDerivedType(tag: DW_TAG_const_type, baseType: !1272)
!1272 = !DIDerivedType(tag: DW_TAG_typedef, name: "sse_f", file: !19, line: 24, baseType: !18)
!1273 = !{i32 7, !"Dwarf Version", i32 5}
!1274 = !{i32 2, !"Debug Info Version", i32 3}
!1275 = !{i32 1, !"wchar_size", i32 4}
!1276 = !{i32 8, !"PIC Level", i32 2}
!1277 = !{i32 7, !"PIE Level", i32 2}
!1278 = !{i32 7, !"uwtable", i32 2}
!1279 = !{i32 7, !"frame-pointer", i32 2}
!1280 = !{!"clang version 16.0.0"}
!1281 = distinct !DISubprogram(name: "__cxx_global_var_init", scope: !747, file: !747, type: !76, flags: DIFlagArtificial, spFlags: DISPFlagLocalToUnit | DISPFlagDefinition, unit: !9, retainedNodes: !1282)
!1282 = !{}
!1283 = !DILocation(line: 74, column: 25, scope: !1284)
!1284 = !DILexicalBlockFile(scope: !1281, file: !3, discriminator: 0)
!1285 = !DILocation(line: 0, scope: !1281)
!1286 = distinct !DISubprogram(name: "__cxx_global_var_init.1", scope: !747, file: !747, type: !76, flags: DIFlagArtificial, spFlags: DISPFlagLocalToUnit | DISPFlagDefinition, unit: !9, retainedNodes: !1282)
!1287 = !DILocalVariable(name: "a", arg: 1, scope: !1288, file: !19, line: 622, type: !23)
!1288 = distinct !DISubprogram(name: "_mm_set_ps1", linkageName: "_ZL11_mm_set_ps1f", scope: !19, file: !19, line: 622, type: !1289, scopeLine: 622, flags: DIFlagPrototyped, spFlags: DISPFlagLocalToUnit | DISPFlagDefinition, unit: !9, retainedNodes: !1282)
!1289 = !DISubroutineType(types: !1290)
!1290 = !{!1272, !23}
!1291 = !DILocation(line: 622, column: 40, scope: !1288, inlinedAt: !1292)
!1292 = distinct !DILocation(line: 38, column: 31, scope: !1293)
!1293 = !DILexicalBlockFile(scope: !1286, file: !1270, discriminator: 0)
!1294 = !DILocalVariable(name: "result", scope: !1288, file: !19, line: 623, type: !1272)
!1295 = !DILocation(line: 623, column: 11, scope: !1288, inlinedAt: !1292)
!1296 = !DILocalVariable(name: "i", scope: !1297, file: !19, line: 626, type: !17)
!1297 = distinct !DILexicalBlock(scope: !1288, file: !19, line: 626, column: 5)
!1298 = !DILocation(line: 626, column: 14, scope: !1297, inlinedAt: !1292)
!1299 = !DILocation(line: 626, column: 10, scope: !1297, inlinedAt: !1292)
!1300 = !DILocation(line: 626, column: 21, scope: !1301, inlinedAt: !1292)
!1301 = distinct !DILexicalBlock(scope: !1297, file: !19, line: 626, column: 5)
!1302 = !DILocation(line: 626, column: 23, scope: !1301, inlinedAt: !1292)
!1303 = !DILocation(line: 626, column: 5, scope: !1297, inlinedAt: !1292)
!1304 = !DILocation(line: 627, column: 23, scope: !1301, inlinedAt: !1292)
!1305 = !DILocation(line: 627, column: 18, scope: !1301, inlinedAt: !1292)
!1306 = !DILocation(line: 627, column: 9, scope: !1301, inlinedAt: !1292)
!1307 = !DILocation(line: 627, column: 21, scope: !1301, inlinedAt: !1292)
!1308 = !DILocation(line: 626, column: 39, scope: !1301, inlinedAt: !1292)
!1309 = !DILocation(line: 626, column: 5, scope: !1301, inlinedAt: !1292)
!1310 = distinct !{!1310, !1303, !1311, !1312}
!1311 = !DILocation(line: 627, column: 23, scope: !1297, inlinedAt: !1292)
!1312 = !{!"llvm.loop.mustprogress"}
!1313 = !DILocation(line: 629, column: 5, scope: !1288, inlinedAt: !1292)
!1314 = !DILocation(line: 38, column: 31, scope: !1293)
!1315 = !DILocation(line: 38, column: 43, scope: !1293)
!1316 = distinct !DISubprogram(name: "build", linkageName: "_ZN4RTTL3BVH5buildERKNS_7RTBox3aES3_", scope: !1317, file: !33, line: 12, type: !1337, scopeLine: 13, flags: DIFlagPrototyped, spFlags: DISPFlagDefinition, unit: !9, declaration: !1336, retainedNodes: !1282)
!1317 = distinct !DICompositeType(tag: DW_TAG_structure_type, name: "BVH", scope: !15, file: !14, line: 44, size: 320, flags: DIFlagTypePassByReference | DIFlagNonTrivial, elements: !1318, vtableHolder: !1317)
!1318 = !{!1319, !1322, !1323, !1324, !1325, !1329, !1333, !1336, !1376, !1379, !1382, !1385}
!1319 = !DIDerivedType(tag: DW_TAG_member, name: "_vptr$BVH", scope: !14, file: !14, baseType: !1320, size: 64, flags: DIFlagArtificial)
!1320 = !DIDerivedType(tag: DW_TAG_pointer_type, baseType: !1321, size: 64)
!1321 = !DIDerivedType(tag: DW_TAG_pointer_type, name: "__vtbl_ptr_type", baseType: !172, size: 64)
!1322 = !DIDerivedType(tag: DW_TAG_member, name: "node", scope: !1317, file: !14, line: 47, baseType: !12, size: 64, offset: 64)
!1323 = !DIDerivedType(tag: DW_TAG_member, name: "item", scope: !1317, file: !14, line: 50, baseType: !16, size: 64, offset: 128)
!1324 = !DIDerivedType(tag: DW_TAG_member, name: "reservedSize", scope: !1317, file: !14, line: 52, baseType: !17, size: 32, offset: 192)
!1325 = !DIDerivedType(tag: DW_TAG_member, name: "builder", scope: !1317, file: !14, line: 67, baseType: !1326, size: 64, offset: 256)
!1326 = !DIDerivedType(tag: DW_TAG_pointer_type, baseType: !1327, size: 64)
!1327 = !DICompositeType(tag: DW_TAG_class_type, name: "BVHBuilder", scope: !15, file: !1328, line: 19, size: 128, flags: DIFlagFwdDecl | DIFlagNonTrivial, identifier: "_ZTSN4RTTL10BVHBuilderE")
!1328 = !DIFile(filename: "RTTL/BVH/Builder/Builder.hxx", directory: "/home/raj/SVF_PAPER_BENCHMARKS/parsec-3.0/pkgs/apps/raytrace/src", checksumkind: CSK_MD5, checksum: "fe7860fec0b0fa60176fcfef0a53cc02")
!1329 = !DISubprogram(name: "BVH", scope: !1317, file: !14, line: 56, type: !1330, scopeLine: 56, flags: DIFlagPrototyped, spFlags: 0)
!1330 = !DISubroutineType(types: !1331)
!1331 = !{null, !1332}
!1332 = !DIDerivedType(tag: DW_TAG_pointer_type, baseType: !1317, size: 64, flags: DIFlagArtificial | DIFlagObjectPointer)
!1333 = !DISubprogram(name: "setBuilder", linkageName: "_ZN4RTTL3BVH10setBuilderEPKc", scope: !1317, file: !14, line: 61, type: !1334, scopeLine: 61, flags: DIFlagPrototyped, spFlags: 0)
!1334 = !DISubroutineType(types: !1335)
!1335 = !{null, !1332, !98}
!1336 = !DISubprogram(name: "build", linkageName: "_ZN4RTTL3BVH5buildERKNS_7RTBox3aES3_", scope: !1317, file: !14, line: 65, type: !1337, scopeLine: 65, containingType: !1317, virtualIndex: 0, flags: DIFlagPrototyped, spFlags: DISPFlagVirtual)
!1337 = !DISubroutineType(types: !1338)
!1338 = !{null, !1332, !1339, !1339}
!1339 = !DIDerivedType(tag: DW_TAG_reference_type, baseType: !1340, size: 64)
!1340 = !DIDerivedType(tag: DW_TAG_const_type, baseType: !1341)
!1341 = !DIDerivedType(tag: DW_TAG_typedef, name: "RTBoxSSE", file: !1342, line: 393, baseType: !1343)
!1342 = !DIFile(filename: "RTTL/BVH/../common/RTBox.hxx", directory: "/home/raj/SVF_PAPER_BENCHMARKS/parsec-3.0/pkgs/apps/raytrace/src", checksumkind: CSK_MD5, checksum: "a4a4497a4fc18999a587672c7ed0e869")
!1343 = distinct !DICompositeType(tag: DW_TAG_class_type, name: "RTBox3a", scope: !15, file: !1342, line: 285, size: 256, flags: DIFlagTypePassByReference | DIFlagNonTrivial, elements: !1344, identifier: "_ZTSN4RTTL7RTBox3aE")
!1344 = !{!1345, !1347, !1352, !1353, !1356, !1357, !1363, !1364, !1369, !1373, !1374, !1375}
!1345 = !DIDerivedType(tag: DW_TAG_inheritance, scope: !1343, baseType: !1346, flags: DIFlagPublic, extraData: i32 0)
!1346 = !DICompositeType(tag: DW_TAG_class_type, name: "RTBox_t<1, sse_f, 0>", scope: !15, file: !1342, line: 8, size: 256, flags: DIFlagFwdDecl | DIFlagNonTrivial, identifier: "_ZTSN4RTTL7RTBox_tILi1E5sse_fLi0EEE")
!1347 = !DISubprogram(name: "center", linkageName: "_ZNK4RTTL7RTBox3a6centerEv", scope: !1343, file: !1342, line: 287, type: !1348, scopeLine: 287, flags: DIFlagPublic | DIFlagPrototyped, spFlags: 0)
!1348 = !DISubroutineType(types: !1349)
!1349 = !{!1272, !1350}
!1350 = !DIDerivedType(tag: DW_TAG_pointer_type, baseType: !1351, size: 64, flags: DIFlagArtificial | DIFlagObjectPointer)
!1351 = !DIDerivedType(tag: DW_TAG_const_type, baseType: !1343)
!1352 = !DISubprogram(name: "diameter", linkageName: "_ZNK4RTTL7RTBox3a8diameterEv", scope: !1343, file: !1342, line: 288, type: !1348, scopeLine: 288, flags: DIFlagPublic | DIFlagPrototyped, spFlags: 0)
!1353 = !DISubprogram(name: "volume", linkageName: "_ZNK4RTTL7RTBox3a6volumeEv", scope: !1343, file: !1342, line: 292, type: !1354, scopeLine: 292, flags: DIFlagPublic | DIFlagPrototyped, spFlags: 0)
!1354 = !DISubroutineType(types: !1355)
!1355 = !{!23, !1350}
!1356 = !DISubprogram(name: "area", linkageName: "_ZNK4RTTL7RTBox3a4areaEv", scope: !1343, file: !1342, line: 295, type: !1354, scopeLine: 295, flags: DIFlagPublic | DIFlagPrototyped, spFlags: 0)
!1357 = !DISubprogram(name: "min3f", linkageName: "_ZNK4RTTL7RTBox3a5min3fEv", scope: !1343, file: !1342, line: 310, type: !1358, scopeLine: 310, flags: DIFlagPublic | DIFlagPrototyped, spFlags: 0)
!1358 = !DISubroutineType(types: !1359)
!1359 = !{!1360, !1350}
!1360 = !DIDerivedType(tag: DW_TAG_reference_type, baseType: !1361, size: 64)
!1361 = !DIDerivedType(tag: DW_TAG_typedef, name: "RTVec3f", scope: !15, file: !1267, line: 269, baseType: !1362)
!1362 = !DICompositeType(tag: DW_TAG_class_type, name: "RTVec_t<3, float, 0>", scope: !15, file: !1267, line: 48, size: 96, flags: DIFlagFwdDecl | DIFlagNonTrivial, identifier: "_ZTSN4RTTL7RTVec_tILi3EfLi0EEE")
!1363 = !DISubprogram(name: "max3f", linkageName: "_ZNK4RTTL7RTBox3a5max3fEv", scope: !1343, file: !1342, line: 313, type: !1358, scopeLine: 313, flags: DIFlagPublic | DIFlagPrototyped, spFlags: 0)
!1364 = !DISubprogram(name: "operator[]", linkageName: "_ZN4RTTL7RTBox3aixEi", scope: !1343, file: !1342, line: 317, type: !1365, scopeLine: 317, flags: DIFlagPublic | DIFlagPrototyped, spFlags: 0)
!1365 = !DISubroutineType(types: !1366)
!1366 = !{!1360, !1367, !1368}
!1367 = !DIDerivedType(tag: DW_TAG_pointer_type, baseType: !1343, size: 64, flags: DIFlagArtificial | DIFlagObjectPointer)
!1368 = !DIDerivedType(tag: DW_TAG_const_type, baseType: !17)
!1369 = !DISubprogram(name: "min_f", linkageName: "_ZN4RTTL7RTBox3a5min_fEv", scope: !1343, file: !1342, line: 322, type: !1370, scopeLine: 322, flags: DIFlagPublic | DIFlagPrototyped, spFlags: 0)
!1370 = !DISubroutineType(types: !1371)
!1371 = !{!1372, !1367}
!1372 = !DIDerivedType(tag: DW_TAG_reference_type, baseType: !1272, size: 64)
!1373 = !DISubprogram(name: "max_f", linkageName: "_ZN4RTTL7RTBox3a5max_fEv", scope: !1343, file: !1342, line: 323, type: !1370, scopeLine: 323, flags: DIFlagPublic | DIFlagPrototyped, spFlags: 0)
!1374 = !DISubprogram(name: "min_f", linkageName: "_ZNK4RTTL7RTBox3a5min_fEv", scope: !1343, file: !1342, line: 324, type: !1348, scopeLine: 324, flags: DIFlagPublic | DIFlagPrototyped, spFlags: 0)
!1375 = !DISubprogram(name: "max_f", linkageName: "_ZNK4RTTL7RTBox3a5max_fEv", scope: !1343, file: !1342, line: 325, type: !1348, scopeLine: 325, flags: DIFlagPublic | DIFlagPrototyped, spFlags: 0)
!1376 = !DISubprogram(name: "reserve", linkageName: "_ZN4RTTL3BVH7reserveEi", scope: !1317, file: !14, line: 70, type: !1377, scopeLine: 70, flags: DIFlagPrototyped, spFlags: 0)
!1377 = !DISubroutineType(types: !1378)
!1378 = !{null, !1332, !17}
!1379 = !DISubprogram(name: "getAllPrimitiveBounds", linkageName: "_ZN4RTTL3BVH21getAllPrimitiveBoundsEv", scope: !1317, file: !14, line: 80, type: !1380, scopeLine: 80, containingType: !1317, virtualIndex: 1, flags: DIFlagPrototyped, spFlags: DISPFlagPureVirtual)
!1380 = !DISubroutineType(types: !1381)
!1381 = !{!12, !1332}
!1382 = !DISubprogram(name: "doneWithAllPrimitiveBounds", linkageName: "_ZN4RTTL3BVH26doneWithAllPrimitiveBoundsEPNS_4AABBE", scope: !1317, file: !14, line: 83, type: !1383, scopeLine: 83, containingType: !1317, virtualIndex: 2, flags: DIFlagPrototyped, spFlags: DISPFlagPureVirtual)
!1383 = !DISubroutineType(types: !1384)
!1384 = !{null, !1332, !12}
!1385 = !DISubprogram(name: "numPrimitives", linkageName: "_ZN4RTTL3BVH13numPrimitivesEv", scope: !1317, file: !14, line: 86, type: !1386, scopeLine: 86, containingType: !1317, virtualIndex: 3, flags: DIFlagPrototyped, spFlags: DISPFlagPureVirtual)
!1386 = !DISubroutineType(types: !1387)
!1387 = !{!17, !1332}
!1388 = !DILocalVariable(name: "this", arg: 1, scope: !1316, type: !1389, flags: DIFlagArtificial | DIFlagObjectPointer)
!1389 = !DIDerivedType(tag: DW_TAG_pointer_type, baseType: !1317, size: 64)
!1390 = !DILocation(line: 0, scope: !1316)
!1391 = !DILocalVariable(name: "sceneAABB", arg: 2, scope: !1316, file: !33, line: 12, type: !1339)
!1392 = !DILocation(line: 12, column: 35, scope: !1316)
!1393 = !DILocalVariable(name: "centroidAABB", arg: 3, scope: !1316, file: !33, line: 12, type: !1339)
!1394 = !DILocation(line: 12, column: 61, scope: !1316)
!1395 = !DILocation(line: 14, column: 9, scope: !1396)
!1396 = distinct !DILexicalBlock(scope: !1316, file: !33, line: 14, column: 9)
!1397 = !DILocation(line: 14, column: 17, scope: !1396)
!1398 = !DILocation(line: 14, column: 9, scope: !1316)
!1399 = !DILocation(line: 15, column: 7, scope: !1396)
!1400 = !DILocation(line: 16, column: 5, scope: !1316)
!1401 = !DILocation(line: 16, column: 20, scope: !1316)
!1402 = !DILocation(line: 16, column: 30, scope: !1316)
!1403 = !DILocation(line: 16, column: 14, scope: !1316)
!1404 = !DILocation(line: 17, column: 3, scope: !1316)
!1405 = distinct !DISubprogram(name: "setBuilder", linkageName: "_ZN4RTTL3BVH10setBuilderEPKc", scope: !1317, file: !33, line: 19, type: !1334, scopeLine: 20, flags: DIFlagPrototyped, spFlags: DISPFlagDefinition, unit: !9, declaration: !1333, retainedNodes: !1282)
!1406 = !DILocalVariable(name: "this", arg: 1, scope: !1405, type: !1389, flags: DIFlagArtificial | DIFlagObjectPointer)
!1407 = !DILocation(line: 0, scope: !1405)
!1408 = !DILocalVariable(name: "builderType", arg: 2, scope: !1405, file: !33, line: 19, type: !98)
!1409 = !DILocation(line: 19, column: 36, scope: !1405)
!1410 = !DILocation(line: 21, column: 9, scope: !1411)
!1411 = distinct !DILexicalBlock(scope: !1405, file: !33, line: 21, column: 9)
!1412 = !DILocation(line: 21, column: 9, scope: !1405)
!1413 = !DILocation(line: 21, column: 25, scope: !1411)
!1414 = !DILocation(line: 21, column: 18, scope: !1411)
!1415 = !DILocation(line: 22, column: 31, scope: !1405)
!1416 = !DILocation(line: 22, column: 15, scope: !1405)
!1417 = !DILocation(line: 22, column: 5, scope: !1405)
!1418 = !DILocation(line: 22, column: 13, scope: !1405)
!1419 = !DILocation(line: 23, column: 3, scope: !1405)
!1420 = distinct !DISubprogram(name: "reserve", linkageName: "_ZN4RTTL3BVH7reserveEi", scope: !1317, file: !33, line: 25, type: !1377, scopeLine: 26, flags: DIFlagPrototyped, spFlags: DISPFlagDefinition, unit: !9, declaration: !1376, retainedNodes: !1282)
!1421 = !DILocalVariable(name: "this", arg: 1, scope: !1420, type: !1389, flags: DIFlagArtificial | DIFlagObjectPointer)
!1422 = !DILocation(line: 0, scope: !1420)
!1423 = !DILocalVariable(name: "numPrimitives", arg: 2, scope: !1420, file: !33, line: 25, type: !17)
!1424 = !DILocation(line: 25, column: 25, scope: !1420)
!1425 = !DILocation(line: 27, column: 9, scope: !1426)
!1426 = distinct !DILexicalBlock(scope: !1420, file: !33, line: 27, column: 9)
!1427 = !DILocation(line: 27, column: 25, scope: !1426)
!1428 = !DILocation(line: 27, column: 23, scope: !1426)
!1429 = !DILocation(line: 27, column: 9, scope: !1420)
!1430 = !DILocation(line: 29, column: 9, scope: !1431)
!1431 = distinct !DILexicalBlock(scope: !1432, file: !33, line: 29, column: 9)
!1432 = distinct !DILexicalBlock(scope: !1426, file: !33, line: 28, column: 7)
!1433 = !DILocation(line: 29, column: 9, scope: !1432)
!1434 = !DILocation(line: 29, column: 28, scope: !1431)
!1435 = !DILocation(line: 29, column: 15, scope: !1431)
!1436 = !DILocation(line: 30, column: 9, scope: !1437)
!1437 = distinct !DILexicalBlock(scope: !1432, file: !33, line: 30, column: 9)
!1438 = !DILocation(line: 30, column: 9, scope: !1432)
!1439 = !DILocation(line: 30, column: 28, scope: !1437)
!1440 = !DILocation(line: 30, column: 15, scope: !1437)
!1441 = !DILocation(line: 32, column: 35, scope: !1432)
!1442 = !DILocation(line: 32, column: 34, scope: !1432)
!1443 = !DILocation(line: 32, column: 12, scope: !1432)
!1444 = !DILocation(line: 32, column: 5, scope: !1432)
!1445 = !DILocation(line: 32, column: 10, scope: !1432)
!1446 = !DILocation(line: 33, column: 32, scope: !1432)
!1447 = !DILocation(line: 33, column: 12, scope: !1432)
!1448 = !DILocation(line: 33, column: 5, scope: !1432)
!1449 = !DILocation(line: 33, column: 10, scope: !1432)
!1450 = !DILocation(line: 35, column: 20, scope: !1432)
!1451 = !DILocation(line: 35, column: 5, scope: !1432)
!1452 = !DILocation(line: 35, column: 18, scope: !1432)
!1453 = !DILocation(line: 36, column: 7, scope: !1432)
!1454 = !DILocation(line: 37, column: 3, scope: !1420)
!1455 = distinct !DISubprogram(name: "aligned_free<RTTL::AABB>", linkageName: "_Z12aligned_freeIN4RTTL4AABBEEvPT_", scope: !1265, file: !1265, line: 292, type: !1456, scopeLine: 293, flags: DIFlagPrototyped, spFlags: DISPFlagDefinition, unit: !9, templateParams: !1458, retainedNodes: !1282)
!1456 = !DISubroutineType(types: !1457)
!1457 = !{null, !12}
!1458 = !{!1459}
!1459 = !DITemplateTypeParameter(name: "T", type: !13)
!1460 = !DILocalVariable(name: "t", arg: 1, scope: !1455, file: !1265, line: 292, type: !12)
!1461 = !DILocation(line: 292, column: 22, scope: !1455)
!1462 = !DILocation(line: 293, column: 21, scope: !1455)
!1463 = !DILocalVariable(name: "ptr", arg: 1, scope: !1464, file: !1265, line: 211, type: !82)
!1464 = distinct !DISubprogram(name: "free_align", linkageName: "_Z10free_alignPv", scope: !1265, file: !1265, line: 211, type: !129, scopeLine: 211, flags: DIFlagPrototyped, spFlags: DISPFlagDefinition, unit: !9, retainedNodes: !1282)
!1465 = !DILocation(line: 211, column: 31, scope: !1464, inlinedAt: !1466)
!1466 = distinct !DILocation(line: 293, column: 10, scope: !1455)
!1467 = !DILocation(line: 213, column: 10, scope: !1464, inlinedAt: !1466)
!1468 = !DILocation(line: 213, column: 5, scope: !1464, inlinedAt: !1466)
!1469 = !DILocation(line: 293, column: 3, scope: !1455)
!1470 = distinct !DISubprogram(name: "aligned_malloc<RTTL::AABB>", linkageName: "_Z14aligned_mallocIN4RTTL4AABBEEPT_i", scope: !1265, file: !1265, line: 287, type: !1471, scopeLine: 288, flags: DIFlagPrototyped, spFlags: DISPFlagDefinition, unit: !9, templateParams: !1458, retainedNodes: !1282)
!1471 = !DISubroutineType(types: !1472)
!1472 = !{!12, !17}
!1473 = !DILocalVariable(name: "N", arg: 1, scope: !1470, file: !1265, line: 287, type: !17)
!1474 = !DILocation(line: 287, column: 23, scope: !1470)
!1475 = !DILocation(line: 288, column: 27, scope: !1470)
!1476 = !DILocation(line: 288, column: 29, scope: !1470)
!1477 = !DILocalVariable(name: "size", arg: 1, scope: !1478, file: !1265, line: 203, type: !1368)
!1478 = distinct !DISubprogram(name: "malloc_align", linkageName: "_Z12malloc_alignii", scope: !1265, file: !1265, line: 203, type: !1479, scopeLine: 203, flags: DIFlagPrototyped, spFlags: DISPFlagDefinition, unit: !9, retainedNodes: !1282)
!1479 = !DISubroutineType(types: !1480)
!1480 = !{!82, !1368, !1368}
!1481 = !DILocation(line: 203, column: 38, scope: !1478, inlinedAt: !1482)
!1482 = distinct !DILocation(line: 288, column: 14, scope: !1470)
!1483 = !DILocalVariable(name: "alignment", arg: 2, scope: !1478, file: !1265, line: 203, type: !1368)
!1484 = !DILocation(line: 203, column: 53, scope: !1478, inlinedAt: !1482)
!1485 = !DILocation(line: 205, column: 21, scope: !1478, inlinedAt: !1482)
!1486 = !DILocation(line: 205, column: 31, scope: !1478, inlinedAt: !1482)
!1487 = !DILocation(line: 205, column: 12, scope: !1478, inlinedAt: !1482)
!1488 = !DILocation(line: 288, column: 3, scope: !1470)
!1489 = distinct !DISubprogram(name: "aligned_malloc<int>", linkageName: "_Z14aligned_mallocIiEPT_i", scope: !1265, file: !1265, line: 287, type: !1490, scopeLine: 288, flags: DIFlagPrototyped, spFlags: DISPFlagDefinition, unit: !9, templateParams: !1492, retainedNodes: !1282)
!1490 = !DISubroutineType(types: !1491)
!1491 = !{!16, !17}
!1492 = !{!1493}
!1493 = !DITemplateTypeParameter(name: "T", type: !17)
!1494 = !DILocalVariable(name: "N", arg: 1, scope: !1489, file: !1265, line: 287, type: !17)
!1495 = !DILocation(line: 287, column: 23, scope: !1489)
!1496 = !DILocation(line: 288, column: 27, scope: !1489)
!1497 = !DILocation(line: 288, column: 29, scope: !1489)
!1498 = !DILocation(line: 203, column: 38, scope: !1478, inlinedAt: !1499)
!1499 = distinct !DILocation(line: 288, column: 14, scope: !1489)
!1500 = !DILocation(line: 203, column: 53, scope: !1478, inlinedAt: !1499)
!1501 = !DILocation(line: 205, column: 21, scope: !1478, inlinedAt: !1499)
!1502 = !DILocation(line: 205, column: 31, scope: !1478, inlinedAt: !1499)
!1503 = !DILocation(line: 205, column: 12, scope: !1478, inlinedAt: !1499)
!1504 = !DILocation(line: 288, column: 3, scope: !1489)
!1505 = distinct !DISubprogram(name: "sse_f", linkageName: "_ZN5sse_fC2Ev", scope: !18, file: !19, line: 21, type: !27, scopeLine: 21, flags: DIFlagPrototyped, spFlags: DISPFlagDefinition, unit: !9, declaration: !26, retainedNodes: !1282)
!1506 = !DILocalVariable(name: "this", arg: 1, scope: !1505, type: !1507, flags: DIFlagArtificial | DIFlagObjectPointer)
!1507 = !DIDerivedType(tag: DW_TAG_pointer_type, baseType: !18, size: 64)
!1508 = !DILocation(line: 0, scope: !1505)
!1509 = !DILocation(line: 21, column: 11, scope: !1505)
!1510 = distinct !DISubprogram(linkageName: "_GLOBAL__sub_I_BVH.cxx", scope: !747, file: !747, type: !1511, flags: DIFlagArtificial, spFlags: DISPFlagLocalToUnit | DISPFlagDefinition, unit: !9, retainedNodes: !1282)
!1511 = !DISubroutineType(types: !1282)
!1512 = !DILocation(line: 0, scope: !1510)
