; ModuleID = '/home/raj/SVF_PAPER_BENCHMARKS/parsec-3.0/pkgs/apps/raytrace/src/LRT/Init.cxx'
source_filename = "/home/raj/SVF_PAPER_BENCHMARKS/parsec-3.0/pkgs/apps/raytrace/src/LRT/Init.cxx"
target datalayout = "e-m:e-p270:32:32-p271:32:32-p272:64:64-i64:64-f80:128-n8:16:32:64-S128"
target triple = "x86_64-unknown-linux-gnu"

%"class.std::ios_base::Init" = type { i8 }
%struct.sse_f = type { [4 x float] }
%"class.std::basic_ostream" = type { ptr, %"class.std::basic_ios" }
%"class.std::basic_ios" = type { %"class.std::ios_base", ptr, i8, i8, ptr, ptr, ptr, ptr }
%"class.std::ios_base" = type { ptr, i64, i64, i32, i32, i32, ptr, %"struct.std::ios_base::_Words", [8 x %"struct.std::ios_base::_Words"], i32, ptr, %"class.std::locale" }
%"struct.std::ios_base::_Words" = type { ptr, i64 }
%"class.std::locale" = type { ptr }
%"class.RTTL::MapOptions" = type { %"class.std::map", %"class.std::map.0" }
%"class.std::map" = type { %"class.std::_Rb_tree" }
%"class.std::_Rb_tree" = type { %"struct.std::_Rb_tree<std::__cxx11::basic_string<char>, std::pair<const std::__cxx11::basic_string<char>, std::vector<std::__cxx11::basic_string<char>> *>, std::_Select1st<std::pair<const std::__cxx11::basic_string<char>, std::vector<std::__cxx11::basic_string<char>> *>>, std::less<std::__cxx11::basic_string<char>>>::_Rb_tree_impl" }
%"struct.std::_Rb_tree<std::__cxx11::basic_string<char>, std::pair<const std::__cxx11::basic_string<char>, std::vector<std::__cxx11::basic_string<char>> *>, std::_Select1st<std::pair<const std::__cxx11::basic_string<char>, std::vector<std::__cxx11::basic_string<char>> *>>, std::less<std::__cxx11::basic_string<char>>>::_Rb_tree_impl" = type { %"struct.std::_Rb_tree_key_compare", %"struct.std::_Rb_tree_header" }
%"struct.std::_Rb_tree_key_compare" = type { %"struct.std::less" }
%"struct.std::less" = type { i8 }
%"struct.std::_Rb_tree_header" = type { %"struct.std::_Rb_tree_node_base", i64 }
%"struct.std::_Rb_tree_node_base" = type { i32, ptr, ptr, ptr }
%"class.std::map.0" = type { %"class.std::_Rb_tree.1" }
%"class.std::_Rb_tree.1" = type { %"struct.std::_Rb_tree<void *, std::pair<void *const, bool>, std::_Select1st<std::pair<void *const, bool>>, std::less<void *>>::_Rb_tree_impl" }
%"struct.std::_Rb_tree<void *, std::pair<void *const, bool>, std::_Select1st<std::pair<void *const, bool>>, std::less<void *>>::_Rb_tree_impl" = type { %"struct.std::_Rb_tree_key_compare.5", %"struct.std::_Rb_tree_header" }
%"struct.std::_Rb_tree_key_compare.5" = type { %"struct.std::less.6" }
%"struct.std::less.6" = type { i8 }
%"class.std::__cxx11::basic_string" = type { %"struct.std::__cxx11::basic_string<char>::_Alloc_hider", i64, %union.anon }
%"struct.std::__cxx11::basic_string<char>::_Alloc_hider" = type { ptr }
%union.anon = type { i64, [8 x i8] }
%"class.std::allocator.8" = type { i8 }
%"struct.std::_Rb_tree_const_iterator" = type { ptr }
%"struct.std::pair" = type { %"class.std::__cxx11::basic_string", ptr }
%"struct.std::_Vector_base" = type { %"struct.std::_Vector_base<std::__cxx11::basic_string<char>, std::allocator<std::__cxx11::basic_string<char>>>::_Vector_impl" }
%"struct.std::_Vector_base<std::__cxx11::basic_string<char>, std::allocator<std::__cxx11::basic_string<char>>>::_Vector_impl" = type { %"struct.std::_Vector_base<std::__cxx11::basic_string<char>, std::allocator<std::__cxx11::basic_string<char>>>::_Vector_impl_data" }
%"struct.std::_Vector_base<std::__cxx11::basic_string<char>, std::allocator<std::__cxx11::basic_string<char>>>::_Vector_impl_data" = type { ptr, ptr, ptr }
%"struct.std::_Rb_tree_node" = type { %"struct.std::_Rb_tree_node_base", %"struct.__gnu_cxx::__aligned_membuf" }
%"struct.__gnu_cxx::__aligned_membuf" = type { [40 x i8] }

$_ZN4RTTL10MapOptionsC2Ev = comdat any

$_ZNK4RTTL10MapOptions3getIiEET_RKNSt7__cxx1112basic_stringIcSt11char_traitsIcESaIcEEES2_j = comdat any

$_ZSteqIcEN9__gnu_cxx11__enable_ifIXsr9__is_charIT_EE7__valueEbE6__typeERKNSt7__cxx1112basic_stringIS2_St11char_traitsIS2_ESaIS2_EEESC_ = comdat any

$_ZNK4RTTL10MapOptions3getIPKcEET_RKNSt7__cxx1112basic_stringIcSt11char_traitsIcESaIcEEES4_j = comdat any

$_ZN5sse_fC2Ev = comdat any

$_ZNSt3mapINSt7__cxx1112basic_stringIcSt11char_traitsIcESaIcEEEPSt6vectorIS5_SaIS5_EESt4lessIS5_ESaISt4pairIKS5_S9_EEEC2Ev = comdat any

$_ZNSt3mapIPvbSt4lessIS0_ESaISt4pairIKS0_bEEEC2Ev = comdat any

$_ZNSt8_Rb_treeINSt7__cxx1112basic_stringIcSt11char_traitsIcESaIcEEESt4pairIKS5_PSt6vectorIS5_SaIS5_EEESt10_Select1stISC_ESt4lessIS5_ESaISC_EEC2Ev = comdat any

$_ZNSt8_Rb_treeINSt7__cxx1112basic_stringIcSt11char_traitsIcESaIcEEESt4pairIKS5_PSt6vectorIS5_SaIS5_EEESt10_Select1stISC_ESt4lessIS5_ESaISC_EE13_Rb_tree_implISG_Lb1EEC2Ev = comdat any

$_ZNSaISt13_Rb_tree_nodeISt4pairIKNSt7__cxx1112basic_stringIcSt11char_traitsIcESaIcEEEPSt6vectorIS6_SaIS6_EEEEEC2Ev = comdat any

$_ZNSt20_Rb_tree_key_compareISt4lessINSt7__cxx1112basic_stringIcSt11char_traitsIcESaIcEEEEEC2Ev = comdat any

$_ZNSt15_Rb_tree_headerC2Ev = comdat any

$_ZN9__gnu_cxx13new_allocatorISt13_Rb_tree_nodeISt4pairIKNSt7__cxx1112basic_stringIcSt11char_traitsIcESaIcEEEPSt6vectorIS8_SaIS8_EEEEEC2Ev = comdat any

$_ZNSt15_Rb_tree_header8_M_resetEv = comdat any

$__clang_call_terminate = comdat any

$_ZNSt8_Rb_treeIPvSt4pairIKS0_bESt10_Select1stIS3_ESt4lessIS0_ESaIS3_EEC2Ev = comdat any

$_ZNSt8_Rb_treeIPvSt4pairIKS0_bESt10_Select1stIS3_ESt4lessIS0_ESaIS3_EE13_Rb_tree_implIS7_Lb1EEC2Ev = comdat any

$_ZNSaISt13_Rb_tree_nodeISt4pairIKPvbEEEC2Ev = comdat any

$_ZNSt20_Rb_tree_key_compareISt4lessIPvEEC2Ev = comdat any

$_ZN9__gnu_cxx13new_allocatorISt13_Rb_tree_nodeISt4pairIKPvbEEEC2Ev = comdat any

$_ZSteqRKSt23_Rb_tree_const_iteratorISt4pairIKNSt7__cxx1112basic_stringIcSt11char_traitsIcESaIcEEEPSt6vectorIS6_SaIS6_EEEESF_ = comdat any

$_ZNKSt3mapINSt7__cxx1112basic_stringIcSt11char_traitsIcESaIcEEEPSt6vectorIS5_SaIS5_EESt4lessIS5_ESaISt4pairIKS5_S9_EEE3endEv = comdat any

$_ZNKSt23_Rb_tree_const_iteratorISt4pairIKNSt7__cxx1112basic_stringIcSt11char_traitsIcESaIcEEEPSt6vectorIS6_SaIS6_EEEEptEv = comdat any

$_ZNKSt6vectorINSt7__cxx1112basic_stringIcSt11char_traitsIcESaIcEEESaIS5_EE4sizeEv = comdat any

$_ZNKSt6vectorINSt7__cxx1112basic_stringIcSt11char_traitsIcESaIcEEESaIS5_EEixEm = comdat any

$_ZNKSt8_Rb_treeINSt7__cxx1112basic_stringIcSt11char_traitsIcESaIcEEESt4pairIKS5_PSt6vectorIS5_SaIS5_EEESt10_Select1stISC_ESt4lessIS5_ESaISC_EE3endEv = comdat any

$_ZNSt23_Rb_tree_const_iteratorISt4pairIKNSt7__cxx1112basic_stringIcSt11char_traitsIcESaIcEEEPSt6vectorIS6_SaIS6_EEEEC2EPKSt18_Rb_tree_node_base = comdat any

$_ZNKSt13_Rb_tree_nodeISt4pairIKNSt7__cxx1112basic_stringIcSt11char_traitsIcESaIcEEEPSt6vectorIS6_SaIS6_EEEE9_M_valptrEv = comdat any

$_ZNK9__gnu_cxx16__aligned_membufISt4pairIKNSt7__cxx1112basic_stringIcSt11char_traitsIcESaIcEEEPSt6vectorIS7_SaIS7_EEEE6_M_ptrEv = comdat any

$_ZNK9__gnu_cxx16__aligned_membufISt4pairIKNSt7__cxx1112basic_stringIcSt11char_traitsIcESaIcEEEPSt6vectorIS7_SaIS7_EEEE7_M_addrEv = comdat any

$_ZNSt11char_traitsIcE7compareEPKcS2_m = comdat any

@_ZStL8__ioinit = internal global %"class.std::ios_base::Init" zeroinitializer, align 1, !dbg !0
@__dso_handle = external hidden global i8
@_ZL8maxFloat = internal global %struct.sse_f zeroinitializer, align 4, !dbg !7
@.str = private unnamed_addr constant [16 x i8] c"no-pbo, no-pbos\00", align 1, !dbg !1709
@_ZN3LRT20RGBAucharFrameBuffer7Options7usePBOsE = external global i8, align 1
@.str.2 = private unnamed_addr constant [4 x i8] c"pbo\00", align 1, !dbg !1713
@.str.3 = private unnamed_addr constant [3 x i8] c"on\00", align 1, !dbg !1716
@.str.4 = private unnamed_addr constant [18 x i8] c"mem-fb, memory-fb\00", align 1, !dbg !1721
@_ZN3LRT20RGBAucharFrameBuffer7Options11useMemoryFBE = external global i8, align 1
@.str.5 = private unnamed_addr constant [17 x i8] c"bvh-build-method\00", align 1, !dbg !1726
@_ZN4RTTL10BVHBuilder7Options14defaultBuilderE = external global ptr, align 8
@.str.6 = private unnamed_addr constant [12 x i8] c"bvh-builder\00", align 1, !dbg !1731
@_ZSt4cout = external global %"class.std::basic_ostream", align 8
@.str.7 = private unnamed_addr constant [23 x i8] c"default BVH builder : \00", align 1, !dbg !1736
@.str.8 = private unnamed_addr constant [23 x i8] c"MapOptions: parameter \00", align 1, !dbg !1741
@.str.9 = private unnamed_addr constant [2 x i8] c"[\00", align 1, !dbg !1743
@.str.10 = private unnamed_addr constant [2 x i8] c"]\00", align 1, !dbg !1748
@.str.11 = private unnamed_addr constant [39 x i8] c" is undefined; using default value of \00", align 1, !dbg !1750
@.str.12 = private unnamed_addr constant [19 x i8] c"MapOptions: using \00", align 1, !dbg !1755
@.str.13 = private unnamed_addr constant [5 x i8] c"] = \00", align 1, !dbg !1760
@llvm.global_ctors = appending global [1 x { i32, ptr, ptr }] [{ i32, ptr, ptr } { i32 65535, ptr @_GLOBAL__sub_I_Init.cxx, ptr null }]

; Function Attrs: noinline uwtable
define internal void @__cxx_global_var_init() #0 section ".text.startup" !dbg !3095 {
  call void @_ZNSt8ios_base4InitC1Ev(ptr noundef nonnull align 1 dereferenceable(1) @_ZStL8__ioinit), !dbg !3096
  %1 = call i32 @__cxa_atexit(ptr @_ZNSt8ios_base4InitD1Ev, ptr @_ZStL8__ioinit, ptr @__dso_handle) #3, !dbg !3098
  ret void, !dbg !3096
}

declare void @_ZNSt8ios_base4InitC1Ev(ptr noundef nonnull align 1 dereferenceable(1)) unnamed_addr #1

; Function Attrs: nounwind
declare void @_ZNSt8ios_base4InitD1Ev(ptr noundef nonnull align 1 dereferenceable(1)) unnamed_addr #2

; Function Attrs: nounwind
declare i32 @__cxa_atexit(ptr, ptr, ptr) #3

; Function Attrs: noinline uwtable
define internal void @__cxx_global_var_init.1() #4 section ".text.startup" !dbg !3099 {
  %1 = alloca %struct.sse_f, align 4
  %2 = alloca float, align 4
  %3 = alloca i32, align 4
  store float 0x47EFFFFFE0000000, ptr %2, align 4
  call void @llvm.dbg.declare(metadata ptr %2, metadata !3100, metadata !DIExpression()), !dbg !3104
  call void @llvm.dbg.declare(metadata ptr %1, metadata !3107, metadata !DIExpression()), !dbg !3108
  call void @_ZN5sse_fC2Ev(ptr noundef nonnull align 4 dereferenceable(16) %1), !dbg !3108
  call void @llvm.dbg.declare(metadata ptr %3, metadata !3109, metadata !DIExpression()), !dbg !3111
  store i32 0, ptr %3, align 4, !dbg !3111
  br label %4, !dbg !3112

4:                                                ; preds = %7, %0
  %5 = load i32, ptr %3, align 4, !dbg !3113
  %6 = icmp slt i32 %5, 4, !dbg !3115
  br i1 %6, label %7, label %14, !dbg !3116

7:                                                ; preds = %4
  %8 = load float, ptr %2, align 4, !dbg !3117
  %9 = load i32, ptr %3, align 4, !dbg !3118
  %10 = sext i32 %9 to i64, !dbg !3119
  %11 = getelementptr inbounds [4 x float], ptr %1, i64 0, i64 %10, !dbg !3119
  store float %8, ptr %11, align 4, !dbg !3120
  %12 = load i32, ptr %3, align 4, !dbg !3121
  %13 = add nsw i32 %12, 1, !dbg !3121
  store i32 %13, ptr %3, align 4, !dbg !3121
  br label %4, !dbg !3122, !llvm.loop !3123

14:                                               ; preds = %4
  %15 = load { <2 x float>, <2 x float> }, ptr %1, align 4, !dbg !3126
  %16 = extractvalue { <2 x float>, <2 x float> } %15, 0, !dbg !3127
  store <2 x float> %16, ptr @_ZL8maxFloat, align 4, !dbg !3127
  %17 = extractvalue { <2 x float>, <2 x float> } %15, 1, !dbg !3127
  store <2 x float> %17, ptr getelementptr inbounds ({ <2 x float>, <2 x float> }, ptr @_ZL8maxFloat, i32 0, i32 1), align 4, !dbg !3127
  ret void, !dbg !3128
}

; Function Attrs: mustprogress noinline optnone uwtable
define dso_local void @_ZN3LRT12ParseCmdLineEPiPPc(ptr noundef %0, ptr noundef %1) #5 personality ptr @__gxx_personality_v0 !dbg !3129 {
  %3 = alloca ptr, align 8
  %4 = alloca ptr, align 8
  %5 = alloca %"class.RTTL::MapOptions", align 8
  %6 = alloca ptr, align 8
  %7 = alloca i32, align 4
  %8 = alloca %"class.std::__cxx11::basic_string", align 8
  %9 = alloca %"class.std::allocator.8", align 1
  %10 = alloca %"class.std::__cxx11::basic_string", align 8
  %11 = alloca %"class.std::allocator.8", align 1
  %12 = alloca %"class.std::__cxx11::basic_string", align 8
  %13 = alloca %"class.std::__cxx11::basic_string", align 8
  %14 = alloca %"class.std::allocator.8", align 1
  %15 = alloca i1, align 1
  %16 = alloca i1, align 1
  %17 = alloca i1, align 1
  %18 = alloca %"class.std::__cxx11::basic_string", align 8
  %19 = alloca %"class.std::allocator.8", align 1
  %20 = alloca i1, align 1
  %21 = alloca i1, align 1
  %22 = alloca %"class.std::__cxx11::basic_string", align 8
  %23 = alloca %"class.std::allocator.8", align 1
  %24 = alloca %"class.std::__cxx11::basic_string", align 8
  %25 = alloca %"class.std::allocator.8", align 1
  %26 = alloca %"class.std::__cxx11::basic_string", align 8
  %27 = alloca %"class.std::allocator.8", align 1
  store ptr %0, ptr %3, align 8
  call void @llvm.dbg.declare(metadata ptr %3, metadata !3133, metadata !DIExpression()), !dbg !3134
  store ptr %1, ptr %4, align 8
  call void @llvm.dbg.declare(metadata ptr %4, metadata !3135, metadata !DIExpression()), !dbg !3136
  call void @llvm.dbg.declare(metadata ptr %5, metadata !3137, metadata !DIExpression()), !dbg !3138
  call void @_ZN4RTTL10MapOptionsC2Ev(ptr noundef nonnull align 8 dereferenceable(96) %5) #3, !dbg !3138
  %28 = load ptr, ptr %3, align 8, !dbg !3139
  %29 = load i32, ptr %28, align 4, !dbg !3140
  %30 = load ptr, ptr %4, align 8, !dbg !3141
  %31 = invoke noundef zeroext i1 @_ZN4RTTL10MapOptions5parseEiPPcb(ptr noundef nonnull align 8 dereferenceable(96) %5, i32 noundef %29, ptr noundef %30, i1 noundef zeroext false)
          to label %32 unwind label %65, !dbg !3142

32:                                               ; preds = %2
  call void @_ZNSaIcEC1Ev(ptr noundef nonnull align 1 dereferenceable(1) %9) #3, !dbg !3143
  invoke void @_ZNSt7__cxx1112basic_stringIcSt11char_traitsIcESaIcEEC1EPKcRKS3_(ptr noundef nonnull align 8 dereferenceable(32) %8, ptr noundef @.str, ptr noundef nonnull align 1 dereferenceable(1) %9)
          to label %33 unwind label %69, !dbg !3143

33:                                               ; preds = %32
  %34 = invoke noundef zeroext i1 @_ZNK4RTTL10MapOptions7definedERKNSt7__cxx1112basic_stringIcSt11char_traitsIcESaIcEEE(ptr noundef nonnull align 8 dereferenceable(96) %5, ptr noundef nonnull align 8 dereferenceable(32) %8)
          to label %35 unwind label %73, !dbg !3144

35:                                               ; preds = %33
  %36 = xor i1 %34, true, !dbg !3145
  %37 = zext i1 %36 to i8, !dbg !3146
  store i8 %37, ptr @_ZN3LRT20RGBAucharFrameBuffer7Options7usePBOsE, align 1, !dbg !3146
  call void @_ZNSt7__cxx1112basic_stringIcSt11char_traitsIcESaIcEED1Ev(ptr noundef nonnull align 8 dereferenceable(32) %8) #3, !dbg !3147
  call void @_ZNSaIcED1Ev(ptr noundef nonnull align 1 dereferenceable(1) %9) #3, !dbg !3147
  call void @_ZNSaIcEC1Ev(ptr noundef nonnull align 1 dereferenceable(1) %11) #3, !dbg !3148
  store i1 false, ptr %15, align 1
  store i1 false, ptr %16, align 1
  store i1 false, ptr %17, align 1
  store i1 false, ptr %20, align 1
  store i1 false, ptr %21, align 1
  invoke void @_ZNSt7__cxx1112basic_stringIcSt11char_traitsIcESaIcEEC1EPKcRKS3_(ptr noundef nonnull align 8 dereferenceable(32) %10, ptr noundef @.str.2, ptr noundef nonnull align 1 dereferenceable(1) %11)
          to label %38 unwind label %78, !dbg !3148

38:                                               ; preds = %35
  %39 = invoke noundef i32 @_ZNK4RTTL10MapOptions3getIiEET_RKNSt7__cxx1112basic_stringIcSt11char_traitsIcESaIcEEES2_j(ptr noundef nonnull align 8 dereferenceable(96) %5, ptr noundef nonnull align 8 dereferenceable(32) %10, i32 noundef 0, i32 noundef 0)
          to label %40 unwind label %82, !dbg !3150

40:                                               ; preds = %38
  %41 = icmp ne i32 %39, 0, !dbg !3151
  br i1 %41, label %47, label %42, !dbg !3152

42:                                               ; preds = %40
  call void @_ZNSaIcEC1Ev(ptr noundef nonnull align 1 dereferenceable(1) %14) #3, !dbg !3153
  store i1 true, ptr %15, align 1, !dbg !3153
  invoke void @_ZNSt7__cxx1112basic_stringIcSt11char_traitsIcESaIcEEC1EPKcRKS3_(ptr noundef nonnull align 8 dereferenceable(32) %13, ptr noundef @.str.2, ptr noundef nonnull align 1 dereferenceable(1) %14)
          to label %43 unwind label %86, !dbg !3153

43:                                               ; preds = %42
  store i1 true, ptr %16, align 1, !dbg !3153
  invoke void @_ZNK4RTTL10MapOptions3getENSt7__cxx1112basic_stringIcSt11char_traitsIcESaIcEEE(ptr sret(%"class.std::__cxx11::basic_string") align 8 %12, ptr noundef nonnull align 8 dereferenceable(96) %5, ptr noundef %13)
          to label %44 unwind label %90, !dbg !3154

44:                                               ; preds = %43
  store i1 true, ptr %17, align 1, !dbg !3155
  call void @_ZNSaIcEC1Ev(ptr noundef nonnull align 1 dereferenceable(1) %19) #3, !dbg !3156
  store i1 true, ptr %20, align 1, !dbg !3156
  invoke void @_ZNSt7__cxx1112basic_stringIcSt11char_traitsIcESaIcEEC1EPKcRKS3_(ptr noundef nonnull align 8 dereferenceable(32) %18, ptr noundef @.str.3, ptr noundef nonnull align 1 dereferenceable(1) %19)
          to label %45 unwind label %94, !dbg !3156

45:                                               ; preds = %44
  store i1 true, ptr %21, align 1, !dbg !3156
  %46 = call noundef zeroext i1 @_ZSteqIcEN9__gnu_cxx11__enable_ifIXsr9__is_charIT_EE7__valueEbE6__typeERKNSt7__cxx1112basic_stringIS2_St11char_traitsIS2_ESaIS2_EEESC_(ptr noundef nonnull align 8 dereferenceable(32) %12, ptr noundef nonnull align 8 dereferenceable(32) %18) #3, !dbg !3157
  br label %47, !dbg !3152

47:                                               ; preds = %45, %40
  %48 = phi i1 [ true, %40 ], [ %46, %45 ]
  %49 = load i1, ptr %21, align 1, !dbg !3151
  br i1 %49, label %50, label %51, !dbg !3151

50:                                               ; preds = %47
  call void @_ZNSt7__cxx1112basic_stringIcSt11char_traitsIcESaIcEED1Ev(ptr noundef nonnull align 8 dereferenceable(32) %18) #3, !dbg !3151
  br label %51, !dbg !3151

51:                                               ; preds = %50, %47
  %52 = load i1, ptr %20, align 1, !dbg !3151
  br i1 %52, label %53, label %54, !dbg !3151

53:                                               ; preds = %51
  call void @_ZNSaIcED1Ev(ptr noundef nonnull align 1 dereferenceable(1) %19) #3, !dbg !3151
  br label %54, !dbg !3151

54:                                               ; preds = %53, %51
  %55 = load i1, ptr %17, align 1, !dbg !3151
  br i1 %55, label %56, label %57, !dbg !3151

56:                                               ; preds = %54
  call void @_ZNSt7__cxx1112basic_stringIcSt11char_traitsIcESaIcEED1Ev(ptr noundef nonnull align 8 dereferenceable(32) %12) #3, !dbg !3151
  br label %57, !dbg !3151

57:                                               ; preds = %56, %54
  %58 = load i1, ptr %16, align 1, !dbg !3151
  br i1 %58, label %59, label %60, !dbg !3151

59:                                               ; preds = %57
  call void @_ZNSt7__cxx1112basic_stringIcSt11char_traitsIcESaIcEED1Ev(ptr noundef nonnull align 8 dereferenceable(32) %13) #3, !dbg !3151
  br label %60, !dbg !3151

60:                                               ; preds = %59, %57
  %61 = load i1, ptr %15, align 1, !dbg !3151
  br i1 %61, label %62, label %63, !dbg !3151

62:                                               ; preds = %60
  call void @_ZNSaIcED1Ev(ptr noundef nonnull align 1 dereferenceable(1) %14) #3, !dbg !3151
  br label %63, !dbg !3151

63:                                               ; preds = %62, %60
  call void @_ZNSt7__cxx1112basic_stringIcSt11char_traitsIcESaIcEED1Ev(ptr noundef nonnull align 8 dereferenceable(32) %10) #3, !dbg !3151
  call void @_ZNSaIcED1Ev(ptr noundef nonnull align 1 dereferenceable(1) %11) #3, !dbg !3151
  br i1 %48, label %64, label %114, !dbg !3158

64:                                               ; preds = %63
  store i8 1, ptr @_ZN3LRT20RGBAucharFrameBuffer7Options7usePBOsE, align 1, !dbg !3159
  br label %114, !dbg !3160

65:                                               ; preds = %131, %128, %126, %2
  %66 = landingpad { ptr, i32 }
          cleanup, !dbg !3161
  %67 = extractvalue { ptr, i32 } %66, 0, !dbg !3161
  store ptr %67, ptr %6, align 8, !dbg !3161
  %68 = extractvalue { ptr, i32 } %66, 1, !dbg !3161
  store i32 %68, ptr %7, align 4, !dbg !3161
  br label %161, !dbg !3161

69:                                               ; preds = %32
  %70 = landingpad { ptr, i32 }
          cleanup, !dbg !3161
  %71 = extractvalue { ptr, i32 } %70, 0, !dbg !3161
  store ptr %71, ptr %6, align 8, !dbg !3161
  %72 = extractvalue { ptr, i32 } %70, 1, !dbg !3161
  store i32 %72, ptr %7, align 4, !dbg !3161
  br label %77, !dbg !3161

73:                                               ; preds = %33
  %74 = landingpad { ptr, i32 }
          cleanup, !dbg !3161
  %75 = extractvalue { ptr, i32 } %74, 0, !dbg !3161
  store ptr %75, ptr %6, align 8, !dbg !3161
  %76 = extractvalue { ptr, i32 } %74, 1, !dbg !3161
  store i32 %76, ptr %7, align 4, !dbg !3161
  call void @_ZNSt7__cxx1112basic_stringIcSt11char_traitsIcESaIcEED1Ev(ptr noundef nonnull align 8 dereferenceable(32) %8) #3, !dbg !3147
  br label %77, !dbg !3147

77:                                               ; preds = %73, %69
  call void @_ZNSaIcED1Ev(ptr noundef nonnull align 1 dereferenceable(1) %9) #3, !dbg !3147
  br label %161, !dbg !3147

78:                                               ; preds = %35
  %79 = landingpad { ptr, i32 }
          cleanup, !dbg !3162
  %80 = extractvalue { ptr, i32 } %79, 0, !dbg !3162
  store ptr %80, ptr %6, align 8, !dbg !3162
  %81 = extractvalue { ptr, i32 } %79, 1, !dbg !3162
  store i32 %81, ptr %7, align 4, !dbg !3162
  br label %113, !dbg !3162

82:                                               ; preds = %38
  %83 = landingpad { ptr, i32 }
          cleanup, !dbg !3162
  %84 = extractvalue { ptr, i32 } %83, 0, !dbg !3162
  store ptr %84, ptr %6, align 8, !dbg !3162
  %85 = extractvalue { ptr, i32 } %83, 1, !dbg !3162
  store i32 %85, ptr %7, align 4, !dbg !3162
  br label %112, !dbg !3162

86:                                               ; preds = %42
  %87 = landingpad { ptr, i32 }
          cleanup, !dbg !3162
  %88 = extractvalue { ptr, i32 } %87, 0, !dbg !3162
  store ptr %88, ptr %6, align 8, !dbg !3162
  %89 = extractvalue { ptr, i32 } %87, 1, !dbg !3162
  store i32 %89, ptr %7, align 4, !dbg !3162
  br label %108, !dbg !3162

90:                                               ; preds = %43
  %91 = landingpad { ptr, i32 }
          cleanup, !dbg !3162
  %92 = extractvalue { ptr, i32 } %91, 0, !dbg !3162
  store ptr %92, ptr %6, align 8, !dbg !3162
  %93 = extractvalue { ptr, i32 } %91, 1, !dbg !3162
  store i32 %93, ptr %7, align 4, !dbg !3162
  br label %104, !dbg !3162

94:                                               ; preds = %44
  %95 = landingpad { ptr, i32 }
          cleanup, !dbg !3162
  %96 = extractvalue { ptr, i32 } %95, 0, !dbg !3162
  store ptr %96, ptr %6, align 8, !dbg !3162
  %97 = extractvalue { ptr, i32 } %95, 1, !dbg !3162
  store i32 %97, ptr %7, align 4, !dbg !3162
  %98 = load i1, ptr %20, align 1, !dbg !3151
  br i1 %98, label %99, label %100, !dbg !3151

99:                                               ; preds = %94
  call void @_ZNSaIcED1Ev(ptr noundef nonnull align 1 dereferenceable(1) %19) #3, !dbg !3151
  br label %100, !dbg !3151

100:                                              ; preds = %99, %94
  %101 = load i1, ptr %17, align 1, !dbg !3151
  br i1 %101, label %102, label %103, !dbg !3151

102:                                              ; preds = %100
  call void @_ZNSt7__cxx1112basic_stringIcSt11char_traitsIcESaIcEED1Ev(ptr noundef nonnull align 8 dereferenceable(32) %12) #3, !dbg !3151
  br label %103, !dbg !3151

103:                                              ; preds = %102, %100
  br label %104, !dbg !3151

104:                                              ; preds = %103, %90
  %105 = load i1, ptr %16, align 1, !dbg !3151
  br i1 %105, label %106, label %107, !dbg !3151

106:                                              ; preds = %104
  call void @_ZNSt7__cxx1112basic_stringIcSt11char_traitsIcESaIcEED1Ev(ptr noundef nonnull align 8 dereferenceable(32) %13) #3, !dbg !3151
  br label %107, !dbg !3151

107:                                              ; preds = %106, %104
  br label %108, !dbg !3151

108:                                              ; preds = %107, %86
  %109 = load i1, ptr %15, align 1, !dbg !3151
  br i1 %109, label %110, label %111, !dbg !3151

110:                                              ; preds = %108
  call void @_ZNSaIcED1Ev(ptr noundef nonnull align 1 dereferenceable(1) %14) #3, !dbg !3151
  br label %111, !dbg !3151

111:                                              ; preds = %110, %108
  br label %112, !dbg !3151

112:                                              ; preds = %111, %82
  call void @_ZNSt7__cxx1112basic_stringIcSt11char_traitsIcESaIcEED1Ev(ptr noundef nonnull align 8 dereferenceable(32) %10) #3, !dbg !3151
  br label %113, !dbg !3151

113:                                              ; preds = %112, %78
  call void @_ZNSaIcED1Ev(ptr noundef nonnull align 1 dereferenceable(1) %11) #3, !dbg !3151
  br label %161, !dbg !3151

114:                                              ; preds = %64, %63
  call void @_ZNSaIcEC1Ev(ptr noundef nonnull align 1 dereferenceable(1) %23) #3, !dbg !3163
  invoke void @_ZNSt7__cxx1112basic_stringIcSt11char_traitsIcESaIcEEC1EPKcRKS3_(ptr noundef nonnull align 8 dereferenceable(32) %22, ptr noundef @.str.4, ptr noundef nonnull align 1 dereferenceable(1) %23)
          to label %115 unwind label %134, !dbg !3163

115:                                              ; preds = %114
  %116 = invoke noundef zeroext i1 @_ZNK4RTTL10MapOptions7definedERKNSt7__cxx1112basic_stringIcSt11char_traitsIcESaIcEEE(ptr noundef nonnull align 8 dereferenceable(96) %5, ptr noundef nonnull align 8 dereferenceable(32) %22)
          to label %117 unwind label %138, !dbg !3164

117:                                              ; preds = %115
  %118 = zext i1 %116 to i8, !dbg !3165
  store i8 %118, ptr @_ZN3LRT20RGBAucharFrameBuffer7Options11useMemoryFBE, align 1, !dbg !3165
  call void @_ZNSt7__cxx1112basic_stringIcSt11char_traitsIcESaIcEED1Ev(ptr noundef nonnull align 8 dereferenceable(32) %22) #3, !dbg !3166
  call void @_ZNSaIcED1Ev(ptr noundef nonnull align 1 dereferenceable(1) %23) #3, !dbg !3166
  call void @_ZNSaIcEC1Ev(ptr noundef nonnull align 1 dereferenceable(1) %25) #3, !dbg !3167
  invoke void @_ZNSt7__cxx1112basic_stringIcSt11char_traitsIcESaIcEEC1EPKcRKS3_(ptr noundef nonnull align 8 dereferenceable(32) %24, ptr noundef @.str.5, ptr noundef nonnull align 1 dereferenceable(1) %25)
          to label %119 unwind label %143, !dbg !3167

119:                                              ; preds = %117
  %120 = load ptr, ptr @_ZN4RTTL10BVHBuilder7Options14defaultBuilderE, align 8, !dbg !3168
  %121 = invoke noundef ptr @_ZNK4RTTL10MapOptions3getIPKcEET_RKNSt7__cxx1112basic_stringIcSt11char_traitsIcESaIcEEES4_j(ptr noundef nonnull align 8 dereferenceable(96) %5, ptr noundef nonnull align 8 dereferenceable(32) %24, ptr noundef %120, i32 noundef 0)
          to label %122 unwind label %147, !dbg !3169

122:                                              ; preds = %119
  store ptr %121, ptr @_ZN4RTTL10BVHBuilder7Options14defaultBuilderE, align 8, !dbg !3170
  call void @_ZNSt7__cxx1112basic_stringIcSt11char_traitsIcESaIcEED1Ev(ptr noundef nonnull align 8 dereferenceable(32) %24) #3, !dbg !3171
  call void @_ZNSaIcED1Ev(ptr noundef nonnull align 1 dereferenceable(1) %25) #3, !dbg !3171
  call void @_ZNSaIcEC1Ev(ptr noundef nonnull align 1 dereferenceable(1) %27) #3, !dbg !3172
  invoke void @_ZNSt7__cxx1112basic_stringIcSt11char_traitsIcESaIcEEC1EPKcRKS3_(ptr noundef nonnull align 8 dereferenceable(32) %26, ptr noundef @.str.6, ptr noundef nonnull align 1 dereferenceable(1) %27)
          to label %123 unwind label %152, !dbg !3172

123:                                              ; preds = %122
  %124 = load ptr, ptr @_ZN4RTTL10BVHBuilder7Options14defaultBuilderE, align 8, !dbg !3173
  %125 = invoke noundef ptr @_ZNK4RTTL10MapOptions3getIPKcEET_RKNSt7__cxx1112basic_stringIcSt11char_traitsIcESaIcEEES4_j(ptr noundef nonnull align 8 dereferenceable(96) %5, ptr noundef nonnull align 8 dereferenceable(32) %26, ptr noundef %124, i32 noundef 0)
          to label %126 unwind label %156, !dbg !3174

126:                                              ; preds = %123
  store ptr %125, ptr @_ZN4RTTL10BVHBuilder7Options14defaultBuilderE, align 8, !dbg !3175
  call void @_ZNSt7__cxx1112basic_stringIcSt11char_traitsIcESaIcEED1Ev(ptr noundef nonnull align 8 dereferenceable(32) %26) #3, !dbg !3176
  call void @_ZNSaIcED1Ev(ptr noundef nonnull align 1 dereferenceable(1) %27) #3, !dbg !3176
  %127 = invoke noundef nonnull align 8 dereferenceable(8) ptr @_ZStlsISt11char_traitsIcEERSt13basic_ostreamIcT_ES5_PKc(ptr noundef nonnull align 8 dereferenceable(8) @_ZSt4cout, ptr noundef @.str.7)
          to label %128 unwind label %65, !dbg !3177

128:                                              ; preds = %126
  %129 = load ptr, ptr @_ZN4RTTL10BVHBuilder7Options14defaultBuilderE, align 8, !dbg !3178
  %130 = invoke noundef nonnull align 8 dereferenceable(8) ptr @_ZStlsISt11char_traitsIcEERSt13basic_ostreamIcT_ES5_PKc(ptr noundef nonnull align 8 dereferenceable(8) %127, ptr noundef %129)
          to label %131 unwind label %65, !dbg !3179

131:                                              ; preds = %128
  %132 = invoke noundef nonnull align 8 dereferenceable(8) ptr @_ZNSolsEPFRSoS_E(ptr noundef nonnull align 8 dereferenceable(8) %130, ptr noundef @_ZSt4endlIcSt11char_traitsIcEERSt13basic_ostreamIT_T0_ES6_)
          to label %133 unwind label %65, !dbg !3180

133:                                              ; preds = %131
  call void @_ZN4RTTL10MapOptionsD1Ev(ptr noundef nonnull align 8 dereferenceable(96) %5) #3, !dbg !3161
  ret void, !dbg !3161

134:                                              ; preds = %114
  %135 = landingpad { ptr, i32 }
          cleanup, !dbg !3161
  %136 = extractvalue { ptr, i32 } %135, 0, !dbg !3161
  store ptr %136, ptr %6, align 8, !dbg !3161
  %137 = extractvalue { ptr, i32 } %135, 1, !dbg !3161
  store i32 %137, ptr %7, align 4, !dbg !3161
  br label %142, !dbg !3161

138:                                              ; preds = %115
  %139 = landingpad { ptr, i32 }
          cleanup, !dbg !3161
  %140 = extractvalue { ptr, i32 } %139, 0, !dbg !3161
  store ptr %140, ptr %6, align 8, !dbg !3161
  %141 = extractvalue { ptr, i32 } %139, 1, !dbg !3161
  store i32 %141, ptr %7, align 4, !dbg !3161
  call void @_ZNSt7__cxx1112basic_stringIcSt11char_traitsIcESaIcEED1Ev(ptr noundef nonnull align 8 dereferenceable(32) %22) #3, !dbg !3166
  br label %142, !dbg !3166

142:                                              ; preds = %138, %134
  call void @_ZNSaIcED1Ev(ptr noundef nonnull align 1 dereferenceable(1) %23) #3, !dbg !3166
  br label %161, !dbg !3166

143:                                              ; preds = %117
  %144 = landingpad { ptr, i32 }
          cleanup, !dbg !3161
  %145 = extractvalue { ptr, i32 } %144, 0, !dbg !3161
  store ptr %145, ptr %6, align 8, !dbg !3161
  %146 = extractvalue { ptr, i32 } %144, 1, !dbg !3161
  store i32 %146, ptr %7, align 4, !dbg !3161
  br label %151, !dbg !3161

147:                                              ; preds = %119
  %148 = landingpad { ptr, i32 }
          cleanup, !dbg !3161
  %149 = extractvalue { ptr, i32 } %148, 0, !dbg !3161
  store ptr %149, ptr %6, align 8, !dbg !3161
  %150 = extractvalue { ptr, i32 } %148, 1, !dbg !3161
  store i32 %150, ptr %7, align 4, !dbg !3161
  call void @_ZNSt7__cxx1112basic_stringIcSt11char_traitsIcESaIcEED1Ev(ptr noundef nonnull align 8 dereferenceable(32) %24) #3, !dbg !3171
  br label %151, !dbg !3171

151:                                              ; preds = %147, %143
  call void @_ZNSaIcED1Ev(ptr noundef nonnull align 1 dereferenceable(1) %25) #3, !dbg !3171
  br label %161, !dbg !3171

152:                                              ; preds = %122
  %153 = landingpad { ptr, i32 }
          cleanup, !dbg !3161
  %154 = extractvalue { ptr, i32 } %153, 0, !dbg !3161
  store ptr %154, ptr %6, align 8, !dbg !3161
  %155 = extractvalue { ptr, i32 } %153, 1, !dbg !3161
  store i32 %155, ptr %7, align 4, !dbg !3161
  br label %160, !dbg !3161

156:                                              ; preds = %123
  %157 = landingpad { ptr, i32 }
          cleanup, !dbg !3161
  %158 = extractvalue { ptr, i32 } %157, 0, !dbg !3161
  store ptr %158, ptr %6, align 8, !dbg !3161
  %159 = extractvalue { ptr, i32 } %157, 1, !dbg !3161
  store i32 %159, ptr %7, align 4, !dbg !3161
  call void @_ZNSt7__cxx1112basic_stringIcSt11char_traitsIcESaIcEED1Ev(ptr noundef nonnull align 8 dereferenceable(32) %26) #3, !dbg !3176
  br label %160, !dbg !3176

160:                                              ; preds = %156, %152
  call void @_ZNSaIcED1Ev(ptr noundef nonnull align 1 dereferenceable(1) %27) #3, !dbg !3176
  br label %161, !dbg !3176

161:                                              ; preds = %160, %151, %142, %113, %77, %65
  call void @_ZN4RTTL10MapOptionsD1Ev(ptr noundef nonnull align 8 dereferenceable(96) %5) #3, !dbg !3161
  br label %162, !dbg !3161

162:                                              ; preds = %161
  %163 = load ptr, ptr %6, align 8, !dbg !3161
  %164 = load i32, ptr %7, align 4, !dbg !3161
  %165 = insertvalue { ptr, i32 } poison, ptr %163, 0, !dbg !3161
  %166 = insertvalue { ptr, i32 } %165, i32 %164, 1, !dbg !3161
  resume { ptr, i32 } %166, !dbg !3161
}

; Function Attrs: nocallback nofree nosync nounwind speculatable willreturn memory(none)
declare void @llvm.dbg.declare(metadata, metadata, metadata) #6

; Function Attrs: noinline nounwind optnone uwtable
define linkonce_odr dso_local void @_ZN4RTTL10MapOptionsC2Ev(ptr noundef nonnull align 8 dereferenceable(96) %0) unnamed_addr #7 comdat align 2 !dbg !3181 {
  %2 = alloca ptr, align 8
  store ptr %0, ptr %2, align 8
  call void @llvm.dbg.declare(metadata ptr %2, metadata !3183, metadata !DIExpression()), !dbg !3185
  %3 = load ptr, ptr %2, align 8
  call void @_ZNSt3mapINSt7__cxx1112basic_stringIcSt11char_traitsIcESaIcEEEPSt6vectorIS5_SaIS5_EESt4lessIS5_ESaISt4pairIKS5_S9_EEEC2Ev(ptr noundef nonnull align 8 dereferenceable(48) %3) #3, !dbg !3186
  %4 = getelementptr inbounds %"class.RTTL::MapOptions", ptr %3, i32 0, i32 1, !dbg !3186
  call void @_ZNSt3mapIPvbSt4lessIS0_ESaISt4pairIKS0_bEEEC2Ev(ptr noundef nonnull align 8 dereferenceable(48) %4) #3, !dbg !3186
  ret void, !dbg !3186
}

declare noundef zeroext i1 @_ZN4RTTL10MapOptions5parseEiPPcb(ptr noundef nonnull align 8 dereferenceable(96), i32 noundef, ptr noundef, i1 noundef zeroext) #1

declare i32 @__gxx_personality_v0(...)

declare noundef zeroext i1 @_ZNK4RTTL10MapOptions7definedERKNSt7__cxx1112basic_stringIcSt11char_traitsIcESaIcEEE(ptr noundef nonnull align 8 dereferenceable(96), ptr noundef nonnull align 8 dereferenceable(32)) #1

; Function Attrs: nounwind
declare void @_ZNSaIcEC1Ev(ptr noundef nonnull align 1 dereferenceable(1)) unnamed_addr #2

declare void @_ZNSt7__cxx1112basic_stringIcSt11char_traitsIcESaIcEEC1EPKcRKS3_(ptr noundef nonnull align 8 dereferenceable(32), ptr noundef, ptr noundef nonnull align 1 dereferenceable(1)) unnamed_addr #1

; Function Attrs: nounwind
declare void @_ZNSt7__cxx1112basic_stringIcSt11char_traitsIcESaIcEED1Ev(ptr noundef nonnull align 8 dereferenceable(32)) unnamed_addr #2

; Function Attrs: nounwind
declare void @_ZNSaIcED1Ev(ptr noundef nonnull align 1 dereferenceable(1)) unnamed_addr #2

; Function Attrs: mustprogress noinline optnone uwtable
define linkonce_odr dso_local noundef i32 @_ZNK4RTTL10MapOptions3getIiEET_RKNSt7__cxx1112basic_stringIcSt11char_traitsIcESaIcEEES2_j(ptr noundef nonnull align 8 dereferenceable(96) %0, ptr noundef nonnull align 8 dereferenceable(32) %1, i32 noundef %2, i32 noundef %3) #5 comdat align 2 personality ptr @__gxx_personality_v0 !dbg !3187 {
  %5 = alloca ptr, align 8
  %6 = alloca ptr, align 8
  %7 = alloca i32, align 4
  %8 = alloca ptr, align 8
  %9 = alloca ptr, align 8
  %10 = alloca i32, align 4
  %11 = alloca i32, align 4
  %12 = alloca %"struct.std::_Rb_tree_const_iterator", align 8
  %13 = alloca i32, align 4
  %14 = alloca %"struct.std::_Rb_tree_const_iterator", align 8
  %15 = alloca ptr, align 8
  %16 = alloca %"class.std::__cxx11::basic_string", align 8
  %17 = alloca %"class.std::allocator.8", align 1
  %18 = alloca ptr, align 8
  %19 = alloca i32, align 4
  %20 = alloca ptr, align 8
  %21 = alloca i32, align 4
  store ptr %0, ptr %8, align 8
  call void @llvm.dbg.declare(metadata ptr %8, metadata !3193, metadata !DIExpression()), !dbg !3195
  store ptr %1, ptr %9, align 8
  call void @llvm.dbg.declare(metadata ptr %9, metadata !3196, metadata !DIExpression()), !dbg !3197
  store i32 %2, ptr %10, align 4
  call void @llvm.dbg.declare(metadata ptr %10, metadata !3198, metadata !DIExpression()), !dbg !3199
  store i32 %3, ptr %11, align 4
  call void @llvm.dbg.declare(metadata ptr %11, metadata !3200, metadata !DIExpression()), !dbg !3201
  %22 = load ptr, ptr %8, align 8
  call void @llvm.dbg.declare(metadata ptr %12, metadata !3202, metadata !DIExpression()), !dbg !3203
  %23 = load ptr, ptr %9, align 8, !dbg !3204
  %24 = call ptr @_ZNK4RTTL10MapOptions4findERKNSt7__cxx1112basic_stringIcSt11char_traitsIcESaIcEEE(ptr noundef nonnull align 8 dereferenceable(96) %22, ptr noundef nonnull align 8 dereferenceable(32) %23), !dbg !3205
  %25 = getelementptr inbounds %"struct.std::_Rb_tree_const_iterator", ptr %12, i32 0, i32 0, !dbg !3205
  store ptr %24, ptr %25, align 8, !dbg !3205
  call void @llvm.dbg.declare(metadata ptr %13, metadata !3206, metadata !DIExpression()), !dbg !3207
  %26 = call noundef i32 @_ZNK4RTTL10MapOptions7verboseEv(ptr noundef nonnull align 8 dereferenceable(96) %22), !dbg !3208
  store i32 %26, ptr %13, align 4, !dbg !3207
  %27 = call ptr @_ZNKSt3mapINSt7__cxx1112basic_stringIcSt11char_traitsIcESaIcEEEPSt6vectorIS5_SaIS5_EESt4lessIS5_ESaISt4pairIKS5_S9_EEE3endEv(ptr noundef nonnull align 8 dereferenceable(48) %22) #3, !dbg !3209
  %28 = getelementptr inbounds %"struct.std::_Rb_tree_const_iterator", ptr %14, i32 0, i32 0, !dbg !3209
  store ptr %27, ptr %28, align 8, !dbg !3209
  %29 = call noundef zeroext i1 @_ZSteqRKSt23_Rb_tree_const_iteratorISt4pairIKNSt7__cxx1112basic_stringIcSt11char_traitsIcESaIcEEEPSt6vectorIS6_SaIS6_EEEESF_(ptr noundef nonnull align 8 dereferenceable(8) %12, ptr noundef nonnull align 8 dereferenceable(8) %14) #3, !dbg !3211
  br i1 %29, label %30, label %69, !dbg !3212

30:                                               ; preds = %4
  call void @llvm.dbg.declare(metadata ptr %15, metadata !3213, metadata !DIExpression()), !dbg !3215
  %31 = load ptr, ptr %9, align 8, !dbg !3216
  %32 = call noundef ptr @_ZNKSt7__cxx1112basic_stringIcSt11char_traitsIcESaIcEE5c_strEv(ptr noundef nonnull align 8 dereferenceable(32) %31) #3, !dbg !3217
  %33 = call ptr @getenv(ptr noundef %32) #3, !dbg !3218
  store ptr %33, ptr %15, align 8, !dbg !3215
  %34 = load ptr, ptr %15, align 8, !dbg !3219
  %35 = icmp ne ptr %34, null, !dbg !3219
  br i1 %35, label %36, label %52, !dbg !3221

36:                                               ; preds = %30
  %37 = load ptr, ptr %15, align 8, !dbg !3222
  call void @_ZNSaIcEC1Ev(ptr noundef nonnull align 1 dereferenceable(1) %17) #3, !dbg !3222
  invoke void @_ZNSt7__cxx1112basic_stringIcSt11char_traitsIcESaIcEEC1EPKcRKS3_(ptr noundef nonnull align 8 dereferenceable(32) %16, ptr noundef %37, ptr noundef nonnull align 1 dereferenceable(1) %17)
          to label %38 unwind label %43, !dbg !3222

38:                                               ; preds = %36
  store ptr %16, ptr %5, align 8
  call void @llvm.dbg.declare(metadata ptr %5, metadata !3224, metadata !DIExpression()), !dbg !3229
  %39 = load ptr, ptr %5, align 8, !dbg !3231
  %40 = call noundef ptr @_ZNKSt7__cxx1112basic_stringIcSt11char_traitsIcESaIcEE5c_strEv(ptr noundef nonnull align 8 dereferenceable(32) %39) #3, !dbg !3232
  %41 = call i32 @atoi(ptr noundef %40) #12, !dbg !3233
  br label %42, !dbg !3234

42:                                               ; preds = %38
  store i32 %41, ptr %7, align 4, !dbg !3235
  call void @_ZNSt7__cxx1112basic_stringIcSt11char_traitsIcESaIcEED1Ev(ptr noundef nonnull align 8 dereferenceable(32) %16) #3, !dbg !3235
  call void @_ZNSaIcED1Ev(ptr noundef nonnull align 1 dereferenceable(1) %17) #3, !dbg !3235
  br label %112, !dbg !3235

43:                                               ; preds = %36
  %44 = landingpad { ptr, i32 }
          cleanup, !dbg !3236
  %45 = extractvalue { ptr, i32 } %44, 0, !dbg !3236
  store ptr %45, ptr %18, align 8, !dbg !3236
  %46 = extractvalue { ptr, i32 } %44, 1, !dbg !3236
  store i32 %46, ptr %19, align 4, !dbg !3236
  br label %51, !dbg !3236

47:                                               ; No predecessors!
  %48 = landingpad { ptr, i32 }
          cleanup, !dbg !3236
  %49 = extractvalue { ptr, i32 } %48, 0, !dbg !3236
  store ptr %49, ptr %18, align 8, !dbg !3236
  %50 = extractvalue { ptr, i32 } %48, 1, !dbg !3236
  store i32 %50, ptr %19, align 4, !dbg !3236
  call void @_ZNSt7__cxx1112basic_stringIcSt11char_traitsIcESaIcEED1Ev(ptr noundef nonnull align 8 dereferenceable(32) %16) #3, !dbg !3235
  br label %51, !dbg !3235

51:                                               ; preds = %47, %43
  call void @_ZNSaIcED1Ev(ptr noundef nonnull align 1 dereferenceable(1) %17) #3, !dbg !3235
  br label %114, !dbg !3235

52:                                               ; preds = %30
  %53 = load i32, ptr %13, align 4, !dbg !3237
  %54 = icmp sge i32 %53, 1, !dbg !3239
  br i1 %54, label %55, label %67, !dbg !3240

55:                                               ; preds = %52
  %56 = call noundef nonnull align 8 dereferenceable(8) ptr @_ZStlsISt11char_traitsIcEERSt13basic_ostreamIcT_ES5_PKc(ptr noundef nonnull align 8 dereferenceable(8) @_ZSt4cout, ptr noundef @.str.8), !dbg !3241
  %57 = load ptr, ptr %9, align 8, !dbg !3243
  %58 = call noundef nonnull align 8 dereferenceable(8) ptr @_ZStlsIcSt11char_traitsIcESaIcEERSt13basic_ostreamIT_T0_ES7_RKNSt7__cxx1112basic_stringIS4_S5_T1_EE(ptr noundef nonnull align 8 dereferenceable(8) %56, ptr noundef nonnull align 8 dereferenceable(32) %57), !dbg !3244
  %59 = call noundef nonnull align 8 dereferenceable(8) ptr @_ZStlsISt11char_traitsIcEERSt13basic_ostreamIcT_ES5_PKc(ptr noundef nonnull align 8 dereferenceable(8) %58, ptr noundef @.str.9), !dbg !3245
  %60 = load i32, ptr %11, align 4, !dbg !3246
  %61 = call noundef nonnull align 8 dereferenceable(8) ptr @_ZNSolsEj(ptr noundef nonnull align 8 dereferenceable(8) %59, i32 noundef %60), !dbg !3247
  %62 = call noundef nonnull align 8 dereferenceable(8) ptr @_ZStlsISt11char_traitsIcEERSt13basic_ostreamIcT_ES5_PKc(ptr noundef nonnull align 8 dereferenceable(8) %61, ptr noundef @.str.10), !dbg !3248
  %63 = call noundef nonnull align 8 dereferenceable(8) ptr @_ZStlsISt11char_traitsIcEERSt13basic_ostreamIcT_ES5_PKc(ptr noundef nonnull align 8 dereferenceable(8) %62, ptr noundef @.str.11), !dbg !3249
  %64 = load i32, ptr %10, align 4, !dbg !3250
  %65 = call noundef nonnull align 8 dereferenceable(8) ptr @_ZNSolsEi(ptr noundef nonnull align 8 dereferenceable(8) %63, i32 noundef %64), !dbg !3251
  %66 = call noundef nonnull align 8 dereferenceable(8) ptr @_ZNSolsEPFRSoS_E(ptr noundef nonnull align 8 dereferenceable(8) %65, ptr noundef @_ZSt4endlIcSt11char_traitsIcEERSt13basic_ostreamIT_T0_ES6_), !dbg !3252
  br label %67, !dbg !3253

67:                                               ; preds = %55, %52
  %68 = load i32, ptr %10, align 4, !dbg !3254
  store i32 %68, ptr %7, align 4, !dbg !3255
  br label %112, !dbg !3255

69:                                               ; preds = %4
  call void @llvm.dbg.declare(metadata ptr %20, metadata !3256, metadata !DIExpression()), !dbg !3259
  %70 = call noundef ptr @_ZNKSt23_Rb_tree_const_iteratorISt4pairIKNSt7__cxx1112basic_stringIcSt11char_traitsIcESaIcEEEPSt6vectorIS6_SaIS6_EEEEptEv(ptr noundef nonnull align 8 dereferenceable(8) %12) #3, !dbg !3260
  %71 = getelementptr inbounds %"struct.std::pair", ptr %70, i32 0, i32 1, !dbg !3261
  %72 = load ptr, ptr %71, align 8, !dbg !3261
  store ptr %72, ptr %20, align 8, !dbg !3259
  %73 = load i32, ptr %11, align 4, !dbg !3262
  %74 = zext i32 %73 to i64, !dbg !3262
  %75 = load ptr, ptr %20, align 8, !dbg !3264
  %76 = call noundef i64 @_ZNKSt6vectorINSt7__cxx1112basic_stringIcSt11char_traitsIcESaIcEEESaIS5_EE4sizeEv(ptr noundef nonnull align 8 dereferenceable(24) %75) #3, !dbg !3265
  %77 = icmp uge i64 %74, %76, !dbg !3266
  br i1 %77, label %78, label %80, !dbg !3267

78:                                               ; preds = %69
  %79 = load i32, ptr %10, align 4, !dbg !3268
  store i32 %79, ptr %7, align 4, !dbg !3269
  br label %112, !dbg !3269

80:                                               ; preds = %69
  %81 = load ptr, ptr %20, align 8, !dbg !3270
  %82 = load i32, ptr %11, align 4, !dbg !3272
  %83 = zext i32 %82 to i64, !dbg !3272
  %84 = call noundef nonnull align 8 dereferenceable(32) ptr @_ZNKSt6vectorINSt7__cxx1112basic_stringIcSt11char_traitsIcESaIcEEESaIS5_EEixEm(ptr noundef nonnull align 8 dereferenceable(24) %81, i64 noundef %83) #3, !dbg !3270
  %85 = call noundef i64 @_ZNKSt7__cxx1112basic_stringIcSt11char_traitsIcESaIcEE4sizeEv(ptr noundef nonnull align 8 dereferenceable(32) %84) #3, !dbg !3273
  %86 = icmp eq i64 %85, 0, !dbg !3274
  br i1 %86, label %87, label %89, !dbg !3275

87:                                               ; preds = %80
  %88 = load i32, ptr %10, align 4, !dbg !3276
  store i32 %88, ptr %7, align 4, !dbg !3277
  br label %112, !dbg !3277

89:                                               ; preds = %80
  call void @llvm.dbg.declare(metadata ptr %21, metadata !3278, metadata !DIExpression()), !dbg !3279
  %90 = load ptr, ptr %20, align 8, !dbg !3280
  %91 = load i32, ptr %11, align 4, !dbg !3281
  %92 = zext i32 %91 to i64, !dbg !3281
  %93 = call noundef nonnull align 8 dereferenceable(32) ptr @_ZNKSt6vectorINSt7__cxx1112basic_stringIcSt11char_traitsIcESaIcEEESaIS5_EEixEm(ptr noundef nonnull align 8 dereferenceable(24) %90, i64 noundef %92) #3, !dbg !3280
  store ptr %93, ptr %6, align 8
  call void @llvm.dbg.declare(metadata ptr %6, metadata !3224, metadata !DIExpression()), !dbg !3282
  %94 = load ptr, ptr %6, align 8, !dbg !3284
  %95 = call noundef ptr @_ZNKSt7__cxx1112basic_stringIcSt11char_traitsIcESaIcEE5c_strEv(ptr noundef nonnull align 8 dereferenceable(32) %94) #3, !dbg !3285
  %96 = call i32 @atoi(ptr noundef %95) #12, !dbg !3286
  store i32 %96, ptr %21, align 4, !dbg !3279
  %97 = load i32, ptr %13, align 4, !dbg !3287
  %98 = icmp sge i32 %97, 2, !dbg !3289
  br i1 %98, label %99, label %110, !dbg !3290

99:                                               ; preds = %89
  %100 = call noundef nonnull align 8 dereferenceable(8) ptr @_ZStlsISt11char_traitsIcEERSt13basic_ostreamIcT_ES5_PKc(ptr noundef nonnull align 8 dereferenceable(8) @_ZSt4cout, ptr noundef @.str.12), !dbg !3291
  %101 = load ptr, ptr %9, align 8, !dbg !3293
  %102 = call noundef nonnull align 8 dereferenceable(8) ptr @_ZStlsIcSt11char_traitsIcESaIcEERSt13basic_ostreamIT_T0_ES7_RKNSt7__cxx1112basic_stringIS4_S5_T1_EE(ptr noundef nonnull align 8 dereferenceable(8) %100, ptr noundef nonnull align 8 dereferenceable(32) %101), !dbg !3294
  %103 = call noundef nonnull align 8 dereferenceable(8) ptr @_ZStlsISt11char_traitsIcEERSt13basic_ostreamIcT_ES5_PKc(ptr noundef nonnull align 8 dereferenceable(8) %102, ptr noundef @.str.9), !dbg !3295
  %104 = load i32, ptr %11, align 4, !dbg !3296
  %105 = call noundef nonnull align 8 dereferenceable(8) ptr @_ZNSolsEj(ptr noundef nonnull align 8 dereferenceable(8) %103, i32 noundef %104), !dbg !3297
  %106 = call noundef nonnull align 8 dereferenceable(8) ptr @_ZStlsISt11char_traitsIcEERSt13basic_ostreamIcT_ES5_PKc(ptr noundef nonnull align 8 dereferenceable(8) %105, ptr noundef @.str.13), !dbg !3298
  %107 = load i32, ptr %21, align 4, !dbg !3299
  %108 = call noundef nonnull align 8 dereferenceable(8) ptr @_ZNSolsEi(ptr noundef nonnull align 8 dereferenceable(8) %106, i32 noundef %107), !dbg !3300
  %109 = call noundef nonnull align 8 dereferenceable(8) ptr @_ZNSolsEPFRSoS_E(ptr noundef nonnull align 8 dereferenceable(8) %108, ptr noundef @_ZSt4endlIcSt11char_traitsIcEERSt13basic_ostreamIT_T0_ES6_), !dbg !3301
  br label %110, !dbg !3302

110:                                              ; preds = %99, %89
  %111 = load i32, ptr %21, align 4, !dbg !3303
  store i32 %111, ptr %7, align 4, !dbg !3304
  br label %112, !dbg !3304

112:                                              ; preds = %110, %87, %78, %67, %42
  %113 = load i32, ptr %7, align 4, !dbg !3305
  ret i32 %113, !dbg !3305

114:                                              ; preds = %51
  %115 = load ptr, ptr %18, align 8, !dbg !3235
  %116 = load i32, ptr %19, align 4, !dbg !3235
  %117 = insertvalue { ptr, i32 } poison, ptr %115, 0, !dbg !3235
  %118 = insertvalue { ptr, i32 } %117, i32 %116, 1, !dbg !3235
  resume { ptr, i32 } %118, !dbg !3235
}

; Function Attrs: mustprogress noinline nounwind optnone uwtable
define linkonce_odr dso_local noundef zeroext i1 @_ZSteqIcEN9__gnu_cxx11__enable_ifIXsr9__is_charIT_EE7__valueEbE6__typeERKNSt7__cxx1112basic_stringIS2_St11char_traitsIS2_ESaIS2_EEESC_(ptr noundef nonnull align 8 dereferenceable(32) %0, ptr noundef nonnull align 8 dereferenceable(32) %1) #8 comdat personality ptr @__gxx_personality_v0 !dbg !3306 {
  %3 = alloca ptr, align 8
  %4 = alloca ptr, align 8
  store ptr %0, ptr %3, align 8
  call void @llvm.dbg.declare(metadata ptr %3, metadata !3317, metadata !DIExpression()), !dbg !3318
  store ptr %1, ptr %4, align 8
  call void @llvm.dbg.declare(metadata ptr %4, metadata !3319, metadata !DIExpression()), !dbg !3320
  %5 = load ptr, ptr %3, align 8, !dbg !3321
  %6 = call noundef i64 @_ZNKSt7__cxx1112basic_stringIcSt11char_traitsIcESaIcEE4sizeEv(ptr noundef nonnull align 8 dereferenceable(32) %5) #3, !dbg !3322
  %7 = load ptr, ptr %4, align 8, !dbg !3323
  %8 = call noundef i64 @_ZNKSt7__cxx1112basic_stringIcSt11char_traitsIcESaIcEE4sizeEv(ptr noundef nonnull align 8 dereferenceable(32) %7) #3, !dbg !3324
  %9 = icmp eq i64 %6, %8, !dbg !3325
  br i1 %9, label %10, label %21, !dbg !3326

10:                                               ; preds = %2
  %11 = load ptr, ptr %3, align 8, !dbg !3327
  %12 = call noundef ptr @_ZNKSt7__cxx1112basic_stringIcSt11char_traitsIcESaIcEE4dataEv(ptr noundef nonnull align 8 dereferenceable(32) %11) #3, !dbg !3328
  %13 = load ptr, ptr %4, align 8, !dbg !3329
  %14 = call noundef ptr @_ZNKSt7__cxx1112basic_stringIcSt11char_traitsIcESaIcEE4dataEv(ptr noundef nonnull align 8 dereferenceable(32) %13) #3, !dbg !3330
  %15 = load ptr, ptr %3, align 8, !dbg !3331
  %16 = call noundef i64 @_ZNKSt7__cxx1112basic_stringIcSt11char_traitsIcESaIcEE4sizeEv(ptr noundef nonnull align 8 dereferenceable(32) %15) #3, !dbg !3332
  %17 = invoke noundef i32 @_ZNSt11char_traitsIcE7compareEPKcS2_m(ptr noundef %12, ptr noundef %14, i64 noundef %16)
          to label %18 unwind label %23, !dbg !3333

18:                                               ; preds = %10
  %19 = icmp ne i32 %17, 0, !dbg !3333
  %20 = xor i1 %19, true, !dbg !3334
  br label %21

21:                                               ; preds = %18, %2
  %22 = phi i1 [ false, %2 ], [ %20, %18 ], !dbg !3335
  ret i1 %22, !dbg !3336

23:                                               ; preds = %10
  %24 = landingpad { ptr, i32 }
          catch ptr null, !dbg !3333
  %25 = extractvalue { ptr, i32 } %24, 0, !dbg !3333
  call void @__clang_call_terminate(ptr %25) #13, !dbg !3333
  unreachable, !dbg !3333
}

declare void @_ZNK4RTTL10MapOptions3getENSt7__cxx1112basic_stringIcSt11char_traitsIcESaIcEEE(ptr sret(%"class.std::__cxx11::basic_string") align 8, ptr noundef nonnull align 8 dereferenceable(96), ptr noundef) #1

; Function Attrs: mustprogress noinline optnone uwtable
define linkonce_odr dso_local noundef ptr @_ZNK4RTTL10MapOptions3getIPKcEET_RKNSt7__cxx1112basic_stringIcSt11char_traitsIcESaIcEEES4_j(ptr noundef nonnull align 8 dereferenceable(96) %0, ptr noundef nonnull align 8 dereferenceable(32) %1, ptr noundef %2, i32 noundef %3) #5 comdat align 2 personality ptr @__gxx_personality_v0 !dbg !3337 {
  %5 = alloca ptr, align 8
  %6 = alloca ptr, align 8
  %7 = alloca ptr, align 8
  %8 = alloca ptr, align 8
  %9 = alloca ptr, align 8
  %10 = alloca ptr, align 8
  %11 = alloca i32, align 4
  %12 = alloca %"struct.std::_Rb_tree_const_iterator", align 8
  %13 = alloca i32, align 4
  %14 = alloca %"struct.std::_Rb_tree_const_iterator", align 8
  %15 = alloca ptr, align 8
  %16 = alloca %"class.std::__cxx11::basic_string", align 8
  %17 = alloca %"class.std::allocator.8", align 1
  %18 = alloca ptr, align 8
  %19 = alloca i32, align 4
  %20 = alloca ptr, align 8
  %21 = alloca ptr, align 8
  store ptr %0, ptr %8, align 8
  call void @llvm.dbg.declare(metadata ptr %8, metadata !3343, metadata !DIExpression()), !dbg !3344
  store ptr %1, ptr %9, align 8
  call void @llvm.dbg.declare(metadata ptr %9, metadata !3345, metadata !DIExpression()), !dbg !3346
  store ptr %2, ptr %10, align 8
  call void @llvm.dbg.declare(metadata ptr %10, metadata !3347, metadata !DIExpression()), !dbg !3348
  store i32 %3, ptr %11, align 4
  call void @llvm.dbg.declare(metadata ptr %11, metadata !3349, metadata !DIExpression()), !dbg !3350
  %22 = load ptr, ptr %8, align 8
  call void @llvm.dbg.declare(metadata ptr %12, metadata !3351, metadata !DIExpression()), !dbg !3352
  %23 = load ptr, ptr %9, align 8, !dbg !3353
  %24 = call ptr @_ZNK4RTTL10MapOptions4findERKNSt7__cxx1112basic_stringIcSt11char_traitsIcESaIcEEE(ptr noundef nonnull align 8 dereferenceable(96) %22, ptr noundef nonnull align 8 dereferenceable(32) %23), !dbg !3354
  %25 = getelementptr inbounds %"struct.std::_Rb_tree_const_iterator", ptr %12, i32 0, i32 0, !dbg !3354
  store ptr %24, ptr %25, align 8, !dbg !3354
  call void @llvm.dbg.declare(metadata ptr %13, metadata !3355, metadata !DIExpression()), !dbg !3356
  %26 = call noundef i32 @_ZNK4RTTL10MapOptions7verboseEv(ptr noundef nonnull align 8 dereferenceable(96) %22), !dbg !3357
  store i32 %26, ptr %13, align 4, !dbg !3356
  %27 = call ptr @_ZNKSt3mapINSt7__cxx1112basic_stringIcSt11char_traitsIcESaIcEEEPSt6vectorIS5_SaIS5_EESt4lessIS5_ESaISt4pairIKS5_S9_EEE3endEv(ptr noundef nonnull align 8 dereferenceable(48) %22) #3, !dbg !3358
  %28 = getelementptr inbounds %"struct.std::_Rb_tree_const_iterator", ptr %14, i32 0, i32 0, !dbg !3358
  store ptr %27, ptr %28, align 8, !dbg !3358
  %29 = call noundef zeroext i1 @_ZSteqRKSt23_Rb_tree_const_iteratorISt4pairIKNSt7__cxx1112basic_stringIcSt11char_traitsIcESaIcEEEPSt6vectorIS6_SaIS6_EEEESF_(ptr noundef nonnull align 8 dereferenceable(8) %12, ptr noundef nonnull align 8 dereferenceable(8) %14) #3, !dbg !3360
  br i1 %29, label %30, label %68, !dbg !3361

30:                                               ; preds = %4
  call void @llvm.dbg.declare(metadata ptr %15, metadata !3362, metadata !DIExpression()), !dbg !3364
  %31 = load ptr, ptr %9, align 8, !dbg !3365
  %32 = call noundef ptr @_ZNKSt7__cxx1112basic_stringIcSt11char_traitsIcESaIcEE5c_strEv(ptr noundef nonnull align 8 dereferenceable(32) %31) #3, !dbg !3366
  %33 = call ptr @getenv(ptr noundef %32) #3, !dbg !3367
  store ptr %33, ptr %15, align 8, !dbg !3364
  %34 = load ptr, ptr %15, align 8, !dbg !3368
  %35 = icmp ne ptr %34, null, !dbg !3368
  br i1 %35, label %36, label %51, !dbg !3370

36:                                               ; preds = %30
  %37 = load ptr, ptr %15, align 8, !dbg !3371
  call void @_ZNSaIcEC1Ev(ptr noundef nonnull align 1 dereferenceable(1) %17) #3, !dbg !3371
  invoke void @_ZNSt7__cxx1112basic_stringIcSt11char_traitsIcESaIcEEC1EPKcRKS3_(ptr noundef nonnull align 8 dereferenceable(32) %16, ptr noundef %37, ptr noundef nonnull align 1 dereferenceable(1) %17)
          to label %38 unwind label %42, !dbg !3371

38:                                               ; preds = %36
  store ptr %16, ptr %5, align 8
  call void @llvm.dbg.declare(metadata ptr %5, metadata !3373, metadata !DIExpression()), !dbg !3377
  %39 = load ptr, ptr %5, align 8, !dbg !3379
  %40 = call noundef ptr @_ZNKSt7__cxx1112basic_stringIcSt11char_traitsIcESaIcEE5c_strEv(ptr noundef nonnull align 8 dereferenceable(32) %39) #3, !dbg !3380
  br label %41, !dbg !3381

41:                                               ; preds = %38
  store ptr %40, ptr %7, align 8, !dbg !3382
  call void @_ZNSt7__cxx1112basic_stringIcSt11char_traitsIcESaIcEED1Ev(ptr noundef nonnull align 8 dereferenceable(32) %16) #3, !dbg !3382
  call void @_ZNSaIcED1Ev(ptr noundef nonnull align 1 dereferenceable(1) %17) #3, !dbg !3382
  br label %110, !dbg !3382

42:                                               ; preds = %36
  %43 = landingpad { ptr, i32 }
          cleanup, !dbg !3383
  %44 = extractvalue { ptr, i32 } %43, 0, !dbg !3383
  store ptr %44, ptr %18, align 8, !dbg !3383
  %45 = extractvalue { ptr, i32 } %43, 1, !dbg !3383
  store i32 %45, ptr %19, align 4, !dbg !3383
  br label %50, !dbg !3383

46:                                               ; No predecessors!
  %47 = landingpad { ptr, i32 }
          cleanup, !dbg !3383
  %48 = extractvalue { ptr, i32 } %47, 0, !dbg !3383
  store ptr %48, ptr %18, align 8, !dbg !3383
  %49 = extractvalue { ptr, i32 } %47, 1, !dbg !3383
  store i32 %49, ptr %19, align 4, !dbg !3383
  call void @_ZNSt7__cxx1112basic_stringIcSt11char_traitsIcESaIcEED1Ev(ptr noundef nonnull align 8 dereferenceable(32) %16) #3, !dbg !3382
  br label %50, !dbg !3382

50:                                               ; preds = %46, %42
  call void @_ZNSaIcED1Ev(ptr noundef nonnull align 1 dereferenceable(1) %17) #3, !dbg !3382
  br label %112, !dbg !3382

51:                                               ; preds = %30
  %52 = load i32, ptr %13, align 4, !dbg !3384
  %53 = icmp sge i32 %52, 1, !dbg !3386
  br i1 %53, label %54, label %66, !dbg !3387

54:                                               ; preds = %51
  %55 = call noundef nonnull align 8 dereferenceable(8) ptr @_ZStlsISt11char_traitsIcEERSt13basic_ostreamIcT_ES5_PKc(ptr noundef nonnull align 8 dereferenceable(8) @_ZSt4cout, ptr noundef @.str.8), !dbg !3388
  %56 = load ptr, ptr %9, align 8, !dbg !3390
  %57 = call noundef nonnull align 8 dereferenceable(8) ptr @_ZStlsIcSt11char_traitsIcESaIcEERSt13basic_ostreamIT_T0_ES7_RKNSt7__cxx1112basic_stringIS4_S5_T1_EE(ptr noundef nonnull align 8 dereferenceable(8) %55, ptr noundef nonnull align 8 dereferenceable(32) %56), !dbg !3391
  %58 = call noundef nonnull align 8 dereferenceable(8) ptr @_ZStlsISt11char_traitsIcEERSt13basic_ostreamIcT_ES5_PKc(ptr noundef nonnull align 8 dereferenceable(8) %57, ptr noundef @.str.9), !dbg !3392
  %59 = load i32, ptr %11, align 4, !dbg !3393
  %60 = call noundef nonnull align 8 dereferenceable(8) ptr @_ZNSolsEj(ptr noundef nonnull align 8 dereferenceable(8) %58, i32 noundef %59), !dbg !3394
  %61 = call noundef nonnull align 8 dereferenceable(8) ptr @_ZStlsISt11char_traitsIcEERSt13basic_ostreamIcT_ES5_PKc(ptr noundef nonnull align 8 dereferenceable(8) %60, ptr noundef @.str.10), !dbg !3395
  %62 = call noundef nonnull align 8 dereferenceable(8) ptr @_ZStlsISt11char_traitsIcEERSt13basic_ostreamIcT_ES5_PKc(ptr noundef nonnull align 8 dereferenceable(8) %61, ptr noundef @.str.11), !dbg !3396
  %63 = load ptr, ptr %10, align 8, !dbg !3397
  %64 = call noundef nonnull align 8 dereferenceable(8) ptr @_ZStlsISt11char_traitsIcEERSt13basic_ostreamIcT_ES5_PKc(ptr noundef nonnull align 8 dereferenceable(8) %62, ptr noundef %63), !dbg !3398
  %65 = call noundef nonnull align 8 dereferenceable(8) ptr @_ZNSolsEPFRSoS_E(ptr noundef nonnull align 8 dereferenceable(8) %64, ptr noundef @_ZSt4endlIcSt11char_traitsIcEERSt13basic_ostreamIT_T0_ES6_), !dbg !3399
  br label %66, !dbg !3400

66:                                               ; preds = %54, %51
  %67 = load ptr, ptr %10, align 8, !dbg !3401
  store ptr %67, ptr %7, align 8, !dbg !3402
  br label %110, !dbg !3402

68:                                               ; preds = %4
  call void @llvm.dbg.declare(metadata ptr %20, metadata !3403, metadata !DIExpression()), !dbg !3405
  %69 = call noundef ptr @_ZNKSt23_Rb_tree_const_iteratorISt4pairIKNSt7__cxx1112basic_stringIcSt11char_traitsIcESaIcEEEPSt6vectorIS6_SaIS6_EEEEptEv(ptr noundef nonnull align 8 dereferenceable(8) %12) #3, !dbg !3406
  %70 = getelementptr inbounds %"struct.std::pair", ptr %69, i32 0, i32 1, !dbg !3407
  %71 = load ptr, ptr %70, align 8, !dbg !3407
  store ptr %71, ptr %20, align 8, !dbg !3405
  %72 = load i32, ptr %11, align 4, !dbg !3408
  %73 = zext i32 %72 to i64, !dbg !3408
  %74 = load ptr, ptr %20, align 8, !dbg !3410
  %75 = call noundef i64 @_ZNKSt6vectorINSt7__cxx1112basic_stringIcSt11char_traitsIcESaIcEEESaIS5_EE4sizeEv(ptr noundef nonnull align 8 dereferenceable(24) %74) #3, !dbg !3411
  %76 = icmp uge i64 %73, %75, !dbg !3412
  br i1 %76, label %77, label %79, !dbg !3413

77:                                               ; preds = %68
  %78 = load ptr, ptr %10, align 8, !dbg !3414
  store ptr %78, ptr %7, align 8, !dbg !3415
  br label %110, !dbg !3415

79:                                               ; preds = %68
  %80 = load ptr, ptr %20, align 8, !dbg !3416
  %81 = load i32, ptr %11, align 4, !dbg !3418
  %82 = zext i32 %81 to i64, !dbg !3418
  %83 = call noundef nonnull align 8 dereferenceable(32) ptr @_ZNKSt6vectorINSt7__cxx1112basic_stringIcSt11char_traitsIcESaIcEEESaIS5_EEixEm(ptr noundef nonnull align 8 dereferenceable(24) %80, i64 noundef %82) #3, !dbg !3416
  %84 = call noundef i64 @_ZNKSt7__cxx1112basic_stringIcSt11char_traitsIcESaIcEE4sizeEv(ptr noundef nonnull align 8 dereferenceable(32) %83) #3, !dbg !3419
  %85 = icmp eq i64 %84, 0, !dbg !3420
  br i1 %85, label %86, label %88, !dbg !3421

86:                                               ; preds = %79
  %87 = load ptr, ptr %10, align 8, !dbg !3422
  store ptr %87, ptr %7, align 8, !dbg !3423
  br label %110, !dbg !3423

88:                                               ; preds = %79
  call void @llvm.dbg.declare(metadata ptr %21, metadata !3424, metadata !DIExpression()), !dbg !3425
  %89 = load ptr, ptr %20, align 8, !dbg !3426
  %90 = load i32, ptr %11, align 4, !dbg !3427
  %91 = zext i32 %90 to i64, !dbg !3427
  %92 = call noundef nonnull align 8 dereferenceable(32) ptr @_ZNKSt6vectorINSt7__cxx1112basic_stringIcSt11char_traitsIcESaIcEEESaIS5_EEixEm(ptr noundef nonnull align 8 dereferenceable(24) %89, i64 noundef %91) #3, !dbg !3426
  store ptr %92, ptr %6, align 8
  call void @llvm.dbg.declare(metadata ptr %6, metadata !3373, metadata !DIExpression()), !dbg !3428
  %93 = load ptr, ptr %6, align 8, !dbg !3430
  %94 = call noundef ptr @_ZNKSt7__cxx1112basic_stringIcSt11char_traitsIcESaIcEE5c_strEv(ptr noundef nonnull align 8 dereferenceable(32) %93) #3, !dbg !3431
  store ptr %94, ptr %21, align 8, !dbg !3425
  %95 = load i32, ptr %13, align 4, !dbg !3432
  %96 = icmp sge i32 %95, 2, !dbg !3434
  br i1 %96, label %97, label %108, !dbg !3435

97:                                               ; preds = %88
  %98 = call noundef nonnull align 8 dereferenceable(8) ptr @_ZStlsISt11char_traitsIcEERSt13basic_ostreamIcT_ES5_PKc(ptr noundef nonnull align 8 dereferenceable(8) @_ZSt4cout, ptr noundef @.str.12), !dbg !3436
  %99 = load ptr, ptr %9, align 8, !dbg !3438
  %100 = call noundef nonnull align 8 dereferenceable(8) ptr @_ZStlsIcSt11char_traitsIcESaIcEERSt13basic_ostreamIT_T0_ES7_RKNSt7__cxx1112basic_stringIS4_S5_T1_EE(ptr noundef nonnull align 8 dereferenceable(8) %98, ptr noundef nonnull align 8 dereferenceable(32) %99), !dbg !3439
  %101 = call noundef nonnull align 8 dereferenceable(8) ptr @_ZStlsISt11char_traitsIcEERSt13basic_ostreamIcT_ES5_PKc(ptr noundef nonnull align 8 dereferenceable(8) %100, ptr noundef @.str.9), !dbg !3440
  %102 = load i32, ptr %11, align 4, !dbg !3441
  %103 = call noundef nonnull align 8 dereferenceable(8) ptr @_ZNSolsEj(ptr noundef nonnull align 8 dereferenceable(8) %101, i32 noundef %102), !dbg !3442
  %104 = call noundef nonnull align 8 dereferenceable(8) ptr @_ZStlsISt11char_traitsIcEERSt13basic_ostreamIcT_ES5_PKc(ptr noundef nonnull align 8 dereferenceable(8) %103, ptr noundef @.str.13), !dbg !3443
  %105 = load ptr, ptr %21, align 8, !dbg !3444
  %106 = call noundef nonnull align 8 dereferenceable(8) ptr @_ZStlsISt11char_traitsIcEERSt13basic_ostreamIcT_ES5_PKc(ptr noundef nonnull align 8 dereferenceable(8) %104, ptr noundef %105), !dbg !3445
  %107 = call noundef nonnull align 8 dereferenceable(8) ptr @_ZNSolsEPFRSoS_E(ptr noundef nonnull align 8 dereferenceable(8) %106, ptr noundef @_ZSt4endlIcSt11char_traitsIcEERSt13basic_ostreamIT_T0_ES6_), !dbg !3446
  br label %108, !dbg !3447

108:                                              ; preds = %97, %88
  %109 = load ptr, ptr %21, align 8, !dbg !3448
  store ptr %109, ptr %7, align 8, !dbg !3449
  br label %110, !dbg !3449

110:                                              ; preds = %108, %86, %77, %66, %41
  %111 = load ptr, ptr %7, align 8, !dbg !3450
  ret ptr %111, !dbg !3450

112:                                              ; preds = %50
  %113 = load ptr, ptr %18, align 8, !dbg !3382
  %114 = load i32, ptr %19, align 4, !dbg !3382
  %115 = insertvalue { ptr, i32 } poison, ptr %113, 0, !dbg !3382
  %116 = insertvalue { ptr, i32 } %115, i32 %114, 1, !dbg !3382
  resume { ptr, i32 } %116, !dbg !3382
}

declare noundef nonnull align 8 dereferenceable(8) ptr @_ZStlsISt11char_traitsIcEERSt13basic_ostreamIcT_ES5_PKc(ptr noundef nonnull align 8 dereferenceable(8), ptr noundef) #1

declare noundef nonnull align 8 dereferenceable(8) ptr @_ZNSolsEPFRSoS_E(ptr noundef nonnull align 8 dereferenceable(8), ptr noundef) #1

declare noundef nonnull align 8 dereferenceable(8) ptr @_ZSt4endlIcSt11char_traitsIcEERSt13basic_ostreamIT_T0_ES6_(ptr noundef nonnull align 8 dereferenceable(8)) #1

; Function Attrs: nounwind
declare void @_ZN4RTTL10MapOptionsD1Ev(ptr noundef nonnull align 8 dereferenceable(96)) unnamed_addr #2

; Function Attrs: mustprogress noinline optnone uwtable
define dso_local void @lrtInit(ptr noundef %0, ptr noundef %1) #5 !dbg !3451 {
  %3 = alloca ptr, align 8
  %4 = alloca ptr, align 8
  %5 = alloca i32, align 4
  %6 = alloca i32, align 4
  %7 = alloca i32, align 4
  %8 = alloca i32, align 4
  store ptr %0, ptr %3, align 8
  call void @llvm.dbg.declare(metadata ptr %3, metadata !3452, metadata !DIExpression()), !dbg !3453
  store ptr %1, ptr %4, align 8
  call void @llvm.dbg.declare(metadata ptr %4, metadata !3454, metadata !DIExpression()), !dbg !3455
  call void @llvm.dbg.declare(metadata ptr %5, metadata !3456, metadata !DIExpression()), !dbg !3457
  call void @llvm.x86.sse.stmxcsr(ptr %6), !dbg !3458
  %9 = load i32, ptr %6, align 4, !dbg !3458
  store i32 %9, ptr %5, align 4, !dbg !3457
  call void @llvm.dbg.declare(metadata ptr %7, metadata !3459, metadata !DIExpression()), !dbg !3460
  %10 = load i32, ptr %5, align 4, !dbg !3461
  %11 = or i32 %10, 32928, !dbg !3462
  store i32 %11, ptr %7, align 4, !dbg !3460
  %12 = load i32, ptr %7, align 4, !dbg !3463
  store i32 %12, ptr %8, align 4, !dbg !3464
  call void @llvm.x86.sse.ldmxcsr(ptr %8), !dbg !3464
  %13 = load ptr, ptr %3, align 8, !dbg !3465
  %14 = load ptr, ptr %4, align 8, !dbg !3466
  call void @_ZN3LRT12ParseCmdLineEPiPPc(ptr noundef %13, ptr noundef %14), !dbg !3467
  ret void, !dbg !3468
}

; Function Attrs: nounwind memory(argmem: write)
declare void @llvm.x86.sse.stmxcsr(ptr) #9

; Function Attrs: nounwind
declare void @llvm.x86.sse.ldmxcsr(ptr) #3

; Function Attrs: noinline nounwind optnone uwtable
define linkonce_odr dso_local void @_ZN5sse_fC2Ev(ptr noundef nonnull align 4 dereferenceable(16) %0) unnamed_addr #7 comdat align 2 !dbg !3469 {
  %2 = alloca ptr, align 8
  store ptr %0, ptr %2, align 8
  call void @llvm.dbg.declare(metadata ptr %2, metadata !3470, metadata !DIExpression()), !dbg !3472
  %3 = load ptr, ptr %2, align 8
  ret void, !dbg !3473
}

; Function Attrs: noinline nounwind optnone uwtable
define linkonce_odr dso_local void @_ZNSt3mapINSt7__cxx1112basic_stringIcSt11char_traitsIcESaIcEEEPSt6vectorIS5_SaIS5_EESt4lessIS5_ESaISt4pairIKS5_S9_EEEC2Ev(ptr noundef nonnull align 8 dereferenceable(48) %0) unnamed_addr #7 comdat align 2 !dbg !3474 {
  %2 = alloca ptr, align 8
  store ptr %0, ptr %2, align 8
  call void @llvm.dbg.declare(metadata ptr %2, metadata !3475, metadata !DIExpression()), !dbg !3477
  %3 = load ptr, ptr %2, align 8
  %4 = getelementptr inbounds %"class.std::map", ptr %3, i32 0, i32 0, !dbg !3478
  call void @_ZNSt8_Rb_treeINSt7__cxx1112basic_stringIcSt11char_traitsIcESaIcEEESt4pairIKS5_PSt6vectorIS5_SaIS5_EEESt10_Select1stISC_ESt4lessIS5_ESaISC_EEC2Ev(ptr noundef nonnull align 8 dereferenceable(48) %4) #3, !dbg !3478
  ret void, !dbg !3479
}

; Function Attrs: noinline nounwind optnone uwtable
define linkonce_odr dso_local void @_ZNSt3mapIPvbSt4lessIS0_ESaISt4pairIKS0_bEEEC2Ev(ptr noundef nonnull align 8 dereferenceable(48) %0) unnamed_addr #7 comdat align 2 !dbg !3480 {
  %2 = alloca ptr, align 8
  store ptr %0, ptr %2, align 8
  call void @llvm.dbg.declare(metadata ptr %2, metadata !3481, metadata !DIExpression()), !dbg !3483
  %3 = load ptr, ptr %2, align 8
  %4 = getelementptr inbounds %"class.std::map.0", ptr %3, i32 0, i32 0, !dbg !3484
  call void @_ZNSt8_Rb_treeIPvSt4pairIKS0_bESt10_Select1stIS3_ESt4lessIS0_ESaIS3_EEC2Ev(ptr noundef nonnull align 8 dereferenceable(48) %4) #3, !dbg !3484
  ret void, !dbg !3485
}

; Function Attrs: noinline nounwind optnone uwtable
define linkonce_odr dso_local void @_ZNSt8_Rb_treeINSt7__cxx1112basic_stringIcSt11char_traitsIcESaIcEEESt4pairIKS5_PSt6vectorIS5_SaIS5_EEESt10_Select1stISC_ESt4lessIS5_ESaISC_EEC2Ev(ptr noundef nonnull align 8 dereferenceable(48) %0) unnamed_addr #7 comdat align 2 !dbg !3486 {
  %2 = alloca ptr, align 8
  store ptr %0, ptr %2, align 8
  call void @llvm.dbg.declare(metadata ptr %2, metadata !3487, metadata !DIExpression()), !dbg !3489
  %3 = load ptr, ptr %2, align 8
  %4 = getelementptr inbounds %"class.std::_Rb_tree", ptr %3, i32 0, i32 0, !dbg !3490
  call void @_ZNSt8_Rb_treeINSt7__cxx1112basic_stringIcSt11char_traitsIcESaIcEEESt4pairIKS5_PSt6vectorIS5_SaIS5_EEESt10_Select1stISC_ESt4lessIS5_ESaISC_EE13_Rb_tree_implISG_Lb1EEC2Ev(ptr noundef nonnull align 8 dereferenceable(48) %4) #3, !dbg !3490
  ret void, !dbg !3491
}

; Function Attrs: noinline nounwind optnone uwtable
define linkonce_odr dso_local void @_ZNSt8_Rb_treeINSt7__cxx1112basic_stringIcSt11char_traitsIcESaIcEEESt4pairIKS5_PSt6vectorIS5_SaIS5_EEESt10_Select1stISC_ESt4lessIS5_ESaISC_EE13_Rb_tree_implISG_Lb1EEC2Ev(ptr noundef nonnull align 8 dereferenceable(48) %0) unnamed_addr #7 comdat align 2 !dbg !3492 {
  %2 = alloca ptr, align 8
  store ptr %0, ptr %2, align 8
  call void @llvm.dbg.declare(metadata ptr %2, metadata !3493, metadata !DIExpression()), !dbg !3495
  %3 = load ptr, ptr %2, align 8
  call void @_ZNSaISt13_Rb_tree_nodeISt4pairIKNSt7__cxx1112basic_stringIcSt11char_traitsIcESaIcEEEPSt6vectorIS6_SaIS6_EEEEEC2Ev(ptr noundef nonnull align 1 dereferenceable(1) %3) #3, !dbg !3496
  call void @_ZNSt20_Rb_tree_key_compareISt4lessINSt7__cxx1112basic_stringIcSt11char_traitsIcESaIcEEEEEC2Ev(ptr noundef nonnull align 1 dereferenceable(1) %3) #3, !dbg !3497
  %4 = getelementptr inbounds i8, ptr %3, i64 8, !dbg !3498
  call void @_ZNSt15_Rb_tree_headerC2Ev(ptr noundef nonnull align 8 dereferenceable(40) %4) #3, !dbg !3497
  ret void, !dbg !3499
}

; Function Attrs: noinline nounwind optnone uwtable
define linkonce_odr dso_local void @_ZNSaISt13_Rb_tree_nodeISt4pairIKNSt7__cxx1112basic_stringIcSt11char_traitsIcESaIcEEEPSt6vectorIS6_SaIS6_EEEEEC2Ev(ptr noundef nonnull align 1 dereferenceable(1) %0) unnamed_addr #7 comdat align 2 !dbg !3500 {
  %2 = alloca ptr, align 8
  store ptr %0, ptr %2, align 8
  call void @llvm.dbg.declare(metadata ptr %2, metadata !3501, metadata !DIExpression()), !dbg !3503
  %3 = load ptr, ptr %2, align 8
  call void @_ZN9__gnu_cxx13new_allocatorISt13_Rb_tree_nodeISt4pairIKNSt7__cxx1112basic_stringIcSt11char_traitsIcESaIcEEEPSt6vectorIS8_SaIS8_EEEEEC2Ev(ptr noundef nonnull align 1 dereferenceable(1) %3) #3, !dbg !3504
  ret void, !dbg !3505
}

; Function Attrs: noinline nounwind optnone uwtable
define linkonce_odr dso_local void @_ZNSt20_Rb_tree_key_compareISt4lessINSt7__cxx1112basic_stringIcSt11char_traitsIcESaIcEEEEEC2Ev(ptr noundef nonnull align 1 dereferenceable(1) %0) unnamed_addr #7 comdat align 2 !dbg !3506 {
  %2 = alloca ptr, align 8
  store ptr %0, ptr %2, align 8
  call void @llvm.dbg.declare(metadata ptr %2, metadata !3507, metadata !DIExpression()), !dbg !3509
  %3 = load ptr, ptr %2, align 8
  %4 = getelementptr inbounds %"struct.std::_Rb_tree_key_compare", ptr %3, i32 0, i32 0, !dbg !3510
  ret void, !dbg !3511
}

; Function Attrs: noinline nounwind optnone uwtable
define linkonce_odr dso_local void @_ZNSt15_Rb_tree_headerC2Ev(ptr noundef nonnull align 8 dereferenceable(40) %0) unnamed_addr #7 comdat align 2 personality ptr @__gxx_personality_v0 !dbg !3512 {
  %2 = alloca ptr, align 8
  store ptr %0, ptr %2, align 8
  call void @llvm.dbg.declare(metadata ptr %2, metadata !3513, metadata !DIExpression()), !dbg !3515
  %3 = load ptr, ptr %2, align 8
  %4 = getelementptr inbounds %"struct.std::_Rb_tree_header", ptr %3, i32 0, i32 0, !dbg !3516
  %5 = getelementptr inbounds %"struct.std::_Rb_tree_header", ptr %3, i32 0, i32 0, !dbg !3517
  %6 = getelementptr inbounds %"struct.std::_Rb_tree_node_base", ptr %5, i32 0, i32 0, !dbg !3519
  store i32 0, ptr %6, align 8, !dbg !3520
  invoke void @_ZNSt15_Rb_tree_header8_M_resetEv(ptr noundef nonnull align 8 dereferenceable(40) %3)
          to label %7 unwind label %8, !dbg !3521

7:                                                ; preds = %1
  ret void, !dbg !3522

8:                                                ; preds = %1
  %9 = landingpad { ptr, i32 }
          catch ptr null, !dbg !3521
  %10 = extractvalue { ptr, i32 } %9, 0, !dbg !3521
  call void @__clang_call_terminate(ptr %10) #13, !dbg !3521
  unreachable, !dbg !3521
}

; Function Attrs: noinline nounwind optnone uwtable
define linkonce_odr dso_local void @_ZN9__gnu_cxx13new_allocatorISt13_Rb_tree_nodeISt4pairIKNSt7__cxx1112basic_stringIcSt11char_traitsIcESaIcEEEPSt6vectorIS8_SaIS8_EEEEEC2Ev(ptr noundef nonnull align 1 dereferenceable(1) %0) unnamed_addr #7 comdat align 2 !dbg !3523 {
  %2 = alloca ptr, align 8
  store ptr %0, ptr %2, align 8
  call void @llvm.dbg.declare(metadata ptr %2, metadata !3524, metadata !DIExpression()), !dbg !3526
  %3 = load ptr, ptr %2, align 8
  ret void, !dbg !3527
}

; Function Attrs: mustprogress noinline nounwind optnone uwtable
define linkonce_odr dso_local void @_ZNSt15_Rb_tree_header8_M_resetEv(ptr noundef nonnull align 8 dereferenceable(40) %0) #8 comdat align 2 !dbg !3528 {
  %2 = alloca ptr, align 8
  store ptr %0, ptr %2, align 8
  call void @llvm.dbg.declare(metadata ptr %2, metadata !3529, metadata !DIExpression()), !dbg !3530
  %3 = load ptr, ptr %2, align 8
  %4 = getelementptr inbounds %"struct.std::_Rb_tree_header", ptr %3, i32 0, i32 0, !dbg !3531
  %5 = getelementptr inbounds %"struct.std::_Rb_tree_node_base", ptr %4, i32 0, i32 1, !dbg !3532
  store ptr null, ptr %5, align 8, !dbg !3533
  %6 = getelementptr inbounds %"struct.std::_Rb_tree_header", ptr %3, i32 0, i32 0, !dbg !3534
  %7 = getelementptr inbounds %"struct.std::_Rb_tree_header", ptr %3, i32 0, i32 0, !dbg !3535
  %8 = getelementptr inbounds %"struct.std::_Rb_tree_node_base", ptr %7, i32 0, i32 2, !dbg !3536
  store ptr %6, ptr %8, align 8, !dbg !3537
  %9 = getelementptr inbounds %"struct.std::_Rb_tree_header", ptr %3, i32 0, i32 0, !dbg !3538
  %10 = getelementptr inbounds %"struct.std::_Rb_tree_header", ptr %3, i32 0, i32 0, !dbg !3539
  %11 = getelementptr inbounds %"struct.std::_Rb_tree_node_base", ptr %10, i32 0, i32 3, !dbg !3540
  store ptr %9, ptr %11, align 8, !dbg !3541
  %12 = getelementptr inbounds %"struct.std::_Rb_tree_header", ptr %3, i32 0, i32 1, !dbg !3542
  store i64 0, ptr %12, align 8, !dbg !3543
  ret void, !dbg !3544
}

; Function Attrs: noinline noreturn nounwind
define linkonce_odr hidden void @__clang_call_terminate(ptr noundef %0) #10 comdat {
  %2 = call ptr @__cxa_begin_catch(ptr %0) #3
  call void @_ZSt9terminatev() #13
  unreachable
}

declare ptr @__cxa_begin_catch(ptr)

declare void @_ZSt9terminatev()

; Function Attrs: noinline nounwind optnone uwtable
define linkonce_odr dso_local void @_ZNSt8_Rb_treeIPvSt4pairIKS0_bESt10_Select1stIS3_ESt4lessIS0_ESaIS3_EEC2Ev(ptr noundef nonnull align 8 dereferenceable(48) %0) unnamed_addr #7 comdat align 2 !dbg !3545 {
  %2 = alloca ptr, align 8
  store ptr %0, ptr %2, align 8
  call void @llvm.dbg.declare(metadata ptr %2, metadata !3546, metadata !DIExpression()), !dbg !3548
  %3 = load ptr, ptr %2, align 8
  %4 = getelementptr inbounds %"class.std::_Rb_tree.1", ptr %3, i32 0, i32 0, !dbg !3549
  call void @_ZNSt8_Rb_treeIPvSt4pairIKS0_bESt10_Select1stIS3_ESt4lessIS0_ESaIS3_EE13_Rb_tree_implIS7_Lb1EEC2Ev(ptr noundef nonnull align 8 dereferenceable(48) %4) #3, !dbg !3549
  ret void, !dbg !3550
}

; Function Attrs: noinline nounwind optnone uwtable
define linkonce_odr dso_local void @_ZNSt8_Rb_treeIPvSt4pairIKS0_bESt10_Select1stIS3_ESt4lessIS0_ESaIS3_EE13_Rb_tree_implIS7_Lb1EEC2Ev(ptr noundef nonnull align 8 dereferenceable(48) %0) unnamed_addr #7 comdat align 2 !dbg !3551 {
  %2 = alloca ptr, align 8
  store ptr %0, ptr %2, align 8
  call void @llvm.dbg.declare(metadata ptr %2, metadata !3552, metadata !DIExpression()), !dbg !3554
  %3 = load ptr, ptr %2, align 8
  call void @_ZNSaISt13_Rb_tree_nodeISt4pairIKPvbEEEC2Ev(ptr noundef nonnull align 1 dereferenceable(1) %3) #3, !dbg !3555
  call void @_ZNSt20_Rb_tree_key_compareISt4lessIPvEEC2Ev(ptr noundef nonnull align 1 dereferenceable(1) %3) #3, !dbg !3556
  %4 = getelementptr inbounds i8, ptr %3, i64 8, !dbg !3557
  call void @_ZNSt15_Rb_tree_headerC2Ev(ptr noundef nonnull align 8 dereferenceable(40) %4) #3, !dbg !3556
  ret void, !dbg !3558
}

; Function Attrs: noinline nounwind optnone uwtable
define linkonce_odr dso_local void @_ZNSaISt13_Rb_tree_nodeISt4pairIKPvbEEEC2Ev(ptr noundef nonnull align 1 dereferenceable(1) %0) unnamed_addr #7 comdat align 2 !dbg !3559 {
  %2 = alloca ptr, align 8
  store ptr %0, ptr %2, align 8
  call void @llvm.dbg.declare(metadata ptr %2, metadata !3560, metadata !DIExpression()), !dbg !3562
  %3 = load ptr, ptr %2, align 8
  call void @_ZN9__gnu_cxx13new_allocatorISt13_Rb_tree_nodeISt4pairIKPvbEEEC2Ev(ptr noundef nonnull align 1 dereferenceable(1) %3) #3, !dbg !3563
  ret void, !dbg !3564
}

; Function Attrs: noinline nounwind optnone uwtable
define linkonce_odr dso_local void @_ZNSt20_Rb_tree_key_compareISt4lessIPvEEC2Ev(ptr noundef nonnull align 1 dereferenceable(1) %0) unnamed_addr #7 comdat align 2 !dbg !3565 {
  %2 = alloca ptr, align 8
  store ptr %0, ptr %2, align 8
  call void @llvm.dbg.declare(metadata ptr %2, metadata !3566, metadata !DIExpression()), !dbg !3568
  %3 = load ptr, ptr %2, align 8
  %4 = getelementptr inbounds %"struct.std::_Rb_tree_key_compare.5", ptr %3, i32 0, i32 0, !dbg !3569
  ret void, !dbg !3570
}

; Function Attrs: noinline nounwind optnone uwtable
define linkonce_odr dso_local void @_ZN9__gnu_cxx13new_allocatorISt13_Rb_tree_nodeISt4pairIKPvbEEEC2Ev(ptr noundef nonnull align 1 dereferenceable(1) %0) unnamed_addr #7 comdat align 2 !dbg !3571 {
  %2 = alloca ptr, align 8
  store ptr %0, ptr %2, align 8
  call void @llvm.dbg.declare(metadata ptr %2, metadata !3572, metadata !DIExpression()), !dbg !3574
  %3 = load ptr, ptr %2, align 8
  ret void, !dbg !3575
}

declare ptr @_ZNK4RTTL10MapOptions4findERKNSt7__cxx1112basic_stringIcSt11char_traitsIcESaIcEEE(ptr noundef nonnull align 8 dereferenceable(96), ptr noundef nonnull align 8 dereferenceable(32)) #1

declare noundef i32 @_ZNK4RTTL10MapOptions7verboseEv(ptr noundef nonnull align 8 dereferenceable(96)) #1

; Function Attrs: mustprogress noinline nounwind optnone uwtable
define linkonce_odr dso_local noundef zeroext i1 @_ZSteqRKSt23_Rb_tree_const_iteratorISt4pairIKNSt7__cxx1112basic_stringIcSt11char_traitsIcESaIcEEEPSt6vectorIS6_SaIS6_EEEESF_(ptr noundef nonnull align 8 dereferenceable(8) %0, ptr noundef nonnull align 8 dereferenceable(8) %1) #8 comdat !dbg !3576 {
  %3 = alloca ptr, align 8
  %4 = alloca ptr, align 8
  store ptr %0, ptr %3, align 8
  call void @llvm.dbg.declare(metadata ptr %3, metadata !3581, metadata !DIExpression()), !dbg !3582
  store ptr %1, ptr %4, align 8
  call void @llvm.dbg.declare(metadata ptr %4, metadata !3583, metadata !DIExpression()), !dbg !3584
  %5 = load ptr, ptr %3, align 8, !dbg !3585
  %6 = getelementptr inbounds %"struct.std::_Rb_tree_const_iterator", ptr %5, i32 0, i32 0, !dbg !3586
  %7 = load ptr, ptr %6, align 8, !dbg !3586
  %8 = load ptr, ptr %4, align 8, !dbg !3587
  %9 = getelementptr inbounds %"struct.std::_Rb_tree_const_iterator", ptr %8, i32 0, i32 0, !dbg !3588
  %10 = load ptr, ptr %9, align 8, !dbg !3588
  %11 = icmp eq ptr %7, %10, !dbg !3589
  ret i1 %11, !dbg !3590
}

; Function Attrs: mustprogress noinline nounwind optnone uwtable
define linkonce_odr dso_local ptr @_ZNKSt3mapINSt7__cxx1112basic_stringIcSt11char_traitsIcESaIcEEEPSt6vectorIS5_SaIS5_EESt4lessIS5_ESaISt4pairIKS5_S9_EEE3endEv(ptr noundef nonnull align 8 dereferenceable(48) %0) #8 comdat align 2 !dbg !3591 {
  %2 = alloca %"struct.std::_Rb_tree_const_iterator", align 8
  %3 = alloca ptr, align 8
  store ptr %0, ptr %3, align 8
  call void @llvm.dbg.declare(metadata ptr %3, metadata !3592, metadata !DIExpression()), !dbg !3594
  %4 = load ptr, ptr %3, align 8
  %5 = getelementptr inbounds %"class.std::map", ptr %4, i32 0, i32 0, !dbg !3595
  %6 = call ptr @_ZNKSt8_Rb_treeINSt7__cxx1112basic_stringIcSt11char_traitsIcESaIcEEESt4pairIKS5_PSt6vectorIS5_SaIS5_EEESt10_Select1stISC_ESt4lessIS5_ESaISC_EE3endEv(ptr noundef nonnull align 8 dereferenceable(48) %5) #3, !dbg !3596
  %7 = getelementptr inbounds %"struct.std::_Rb_tree_const_iterator", ptr %2, i32 0, i32 0, !dbg !3596
  store ptr %6, ptr %7, align 8, !dbg !3596
  %8 = getelementptr inbounds %"struct.std::_Rb_tree_const_iterator", ptr %2, i32 0, i32 0, !dbg !3597
  %9 = load ptr, ptr %8, align 8, !dbg !3597
  ret ptr %9, !dbg !3597
}

; Function Attrs: nounwind
declare ptr @getenv(ptr noundef) #2

; Function Attrs: nounwind
declare noundef ptr @_ZNKSt7__cxx1112basic_stringIcSt11char_traitsIcESaIcEE5c_strEv(ptr noundef nonnull align 8 dereferenceable(32)) #2

declare noundef nonnull align 8 dereferenceable(8) ptr @_ZStlsIcSt11char_traitsIcESaIcEERSt13basic_ostreamIT_T0_ES7_RKNSt7__cxx1112basic_stringIS4_S5_T1_EE(ptr noundef nonnull align 8 dereferenceable(8), ptr noundef nonnull align 8 dereferenceable(32)) #1

declare noundef nonnull align 8 dereferenceable(8) ptr @_ZNSolsEj(ptr noundef nonnull align 8 dereferenceable(8), i32 noundef) #1

declare noundef nonnull align 8 dereferenceable(8) ptr @_ZNSolsEi(ptr noundef nonnull align 8 dereferenceable(8), i32 noundef) #1

; Function Attrs: mustprogress noinline nounwind optnone uwtable
define linkonce_odr dso_local noundef ptr @_ZNKSt23_Rb_tree_const_iteratorISt4pairIKNSt7__cxx1112basic_stringIcSt11char_traitsIcESaIcEEEPSt6vectorIS6_SaIS6_EEEEptEv(ptr noundef nonnull align 8 dereferenceable(8) %0) #8 comdat align 2 personality ptr @__gxx_personality_v0 !dbg !3598 {
  %2 = alloca ptr, align 8
  store ptr %0, ptr %2, align 8
  call void @llvm.dbg.declare(metadata ptr %2, metadata !3599, metadata !DIExpression()), !dbg !3601
  %3 = load ptr, ptr %2, align 8
  %4 = getelementptr inbounds %"struct.std::_Rb_tree_const_iterator", ptr %3, i32 0, i32 0, !dbg !3602
  %5 = load ptr, ptr %4, align 8, !dbg !3602
  %6 = invoke noundef ptr @_ZNKSt13_Rb_tree_nodeISt4pairIKNSt7__cxx1112basic_stringIcSt11char_traitsIcESaIcEEEPSt6vectorIS6_SaIS6_EEEE9_M_valptrEv(ptr noundef nonnull align 8 dereferenceable(72) %5)
          to label %7 unwind label %8, !dbg !3603

7:                                                ; preds = %1
  ret ptr %6, !dbg !3604

8:                                                ; preds = %1
  %9 = landingpad { ptr, i32 }
          catch ptr null, !dbg !3603
  %10 = extractvalue { ptr, i32 } %9, 0, !dbg !3603
  call void @__clang_call_terminate(ptr %10) #13, !dbg !3603
  unreachable, !dbg !3603
}

; Function Attrs: mustprogress noinline nounwind optnone uwtable
define linkonce_odr dso_local noundef i64 @_ZNKSt6vectorINSt7__cxx1112basic_stringIcSt11char_traitsIcESaIcEEESaIS5_EE4sizeEv(ptr noundef nonnull align 8 dereferenceable(24) %0) #8 comdat align 2 !dbg !3605 {
  %2 = alloca ptr, align 8
  store ptr %0, ptr %2, align 8
  call void @llvm.dbg.declare(metadata ptr %2, metadata !3611, metadata !DIExpression()), !dbg !3613
  %3 = load ptr, ptr %2, align 8
  %4 = getelementptr inbounds %"struct.std::_Vector_base", ptr %3, i32 0, i32 0, !dbg !3614
  %5 = getelementptr inbounds %"struct.std::_Vector_base<std::__cxx11::basic_string<char>, std::allocator<std::__cxx11::basic_string<char>>>::_Vector_impl_data", ptr %4, i32 0, i32 1, !dbg !3615
  %6 = load ptr, ptr %5, align 8, !dbg !3615
  %7 = getelementptr inbounds %"struct.std::_Vector_base", ptr %3, i32 0, i32 0, !dbg !3616
  %8 = getelementptr inbounds %"struct.std::_Vector_base<std::__cxx11::basic_string<char>, std::allocator<std::__cxx11::basic_string<char>>>::_Vector_impl_data", ptr %7, i32 0, i32 0, !dbg !3617
  %9 = load ptr, ptr %8, align 8, !dbg !3617
  %10 = ptrtoint ptr %6 to i64, !dbg !3618
  %11 = ptrtoint ptr %9 to i64, !dbg !3618
  %12 = sub i64 %10, %11, !dbg !3618
  %13 = sdiv exact i64 %12, 32, !dbg !3618
  ret i64 %13, !dbg !3619
}

; Function Attrs: mustprogress noinline nounwind optnone uwtable
define linkonce_odr dso_local noundef nonnull align 8 dereferenceable(32) ptr @_ZNKSt6vectorINSt7__cxx1112basic_stringIcSt11char_traitsIcESaIcEEESaIS5_EEixEm(ptr noundef nonnull align 8 dereferenceable(24) %0, i64 noundef %1) #8 comdat align 2 !dbg !3620 {
  %3 = alloca ptr, align 8
  %4 = alloca i64, align 8
  store ptr %0, ptr %3, align 8
  call void @llvm.dbg.declare(metadata ptr %3, metadata !3676, metadata !DIExpression()), !dbg !3677
  store i64 %1, ptr %4, align 8
  call void @llvm.dbg.declare(metadata ptr %4, metadata !3678, metadata !DIExpression()), !dbg !3679
  %5 = load ptr, ptr %3, align 8
  %6 = getelementptr inbounds %"struct.std::_Vector_base", ptr %5, i32 0, i32 0, !dbg !3680
  %7 = getelementptr inbounds %"struct.std::_Vector_base<std::__cxx11::basic_string<char>, std::allocator<std::__cxx11::basic_string<char>>>::_Vector_impl_data", ptr %6, i32 0, i32 0, !dbg !3681
  %8 = load ptr, ptr %7, align 8, !dbg !3681
  %9 = load i64, ptr %4, align 8, !dbg !3682
  %10 = getelementptr inbounds %"class.std::__cxx11::basic_string", ptr %8, i64 %9, !dbg !3683
  ret ptr %10, !dbg !3684
}

; Function Attrs: nounwind
declare noundef i64 @_ZNKSt7__cxx1112basic_stringIcSt11char_traitsIcESaIcEE4sizeEv(ptr noundef nonnull align 8 dereferenceable(32)) #2

; Function Attrs: mustprogress noinline nounwind optnone uwtable
define linkonce_odr dso_local ptr @_ZNKSt8_Rb_treeINSt7__cxx1112basic_stringIcSt11char_traitsIcESaIcEEESt4pairIKS5_PSt6vectorIS5_SaIS5_EEESt10_Select1stISC_ESt4lessIS5_ESaISC_EE3endEv(ptr noundef nonnull align 8 dereferenceable(48) %0) #8 comdat align 2 !dbg !3685 {
  %2 = alloca %"struct.std::_Rb_tree_const_iterator", align 8
  %3 = alloca ptr, align 8
  store ptr %0, ptr %3, align 8
  call void @llvm.dbg.declare(metadata ptr %3, metadata !3686, metadata !DIExpression()), !dbg !3688
  %4 = load ptr, ptr %3, align 8
  %5 = getelementptr inbounds %"class.std::_Rb_tree", ptr %4, i32 0, i32 0, !dbg !3689
  %6 = getelementptr inbounds i8, ptr %5, i64 8, !dbg !3690
  %7 = getelementptr inbounds %"struct.std::_Rb_tree_header", ptr %6, i32 0, i32 0, !dbg !3691
  call void @_ZNSt23_Rb_tree_const_iteratorISt4pairIKNSt7__cxx1112basic_stringIcSt11char_traitsIcESaIcEEEPSt6vectorIS6_SaIS6_EEEEC2EPKSt18_Rb_tree_node_base(ptr noundef nonnull align 8 dereferenceable(8) %2, ptr noundef %7) #3, !dbg !3692
  %8 = getelementptr inbounds %"struct.std::_Rb_tree_const_iterator", ptr %2, i32 0, i32 0, !dbg !3693
  %9 = load ptr, ptr %8, align 8, !dbg !3693
  ret ptr %9, !dbg !3693
}

; Function Attrs: noinline nounwind optnone uwtable
define linkonce_odr dso_local void @_ZNSt23_Rb_tree_const_iteratorISt4pairIKNSt7__cxx1112basic_stringIcSt11char_traitsIcESaIcEEEPSt6vectorIS6_SaIS6_EEEEC2EPKSt18_Rb_tree_node_base(ptr noundef nonnull align 8 dereferenceable(8) %0, ptr noundef %1) unnamed_addr #7 comdat align 2 !dbg !3694 {
  %3 = alloca ptr, align 8
  %4 = alloca ptr, align 8
  store ptr %0, ptr %3, align 8
  call void @llvm.dbg.declare(metadata ptr %3, metadata !3695, metadata !DIExpression()), !dbg !3697
  store ptr %1, ptr %4, align 8
  call void @llvm.dbg.declare(metadata ptr %4, metadata !3698, metadata !DIExpression()), !dbg !3699
  %5 = load ptr, ptr %3, align 8
  %6 = getelementptr inbounds %"struct.std::_Rb_tree_const_iterator", ptr %5, i32 0, i32 0, !dbg !3700
  %7 = load ptr, ptr %4, align 8, !dbg !3701
  store ptr %7, ptr %6, align 8, !dbg !3700
  ret void, !dbg !3702
}

; Function Attrs: nounwind willreturn memory(read)
declare i32 @atoi(ptr noundef) #11

; Function Attrs: mustprogress noinline nounwind optnone uwtable
define linkonce_odr dso_local noundef ptr @_ZNKSt13_Rb_tree_nodeISt4pairIKNSt7__cxx1112basic_stringIcSt11char_traitsIcESaIcEEEPSt6vectorIS6_SaIS6_EEEE9_M_valptrEv(ptr noundef nonnull align 8 dereferenceable(72) %0) #8 comdat align 2 !dbg !3703 {
  %2 = alloca ptr, align 8
  store ptr %0, ptr %2, align 8
  call void @llvm.dbg.declare(metadata ptr %2, metadata !3704, metadata !DIExpression()), !dbg !3705
  %3 = load ptr, ptr %2, align 8
  %4 = getelementptr inbounds %"struct.std::_Rb_tree_node", ptr %3, i32 0, i32 1, !dbg !3706
  %5 = call noundef ptr @_ZNK9__gnu_cxx16__aligned_membufISt4pairIKNSt7__cxx1112basic_stringIcSt11char_traitsIcESaIcEEEPSt6vectorIS7_SaIS7_EEEE6_M_ptrEv(ptr noundef nonnull align 8 dereferenceable(40) %4) #3, !dbg !3707
  ret ptr %5, !dbg !3708
}

; Function Attrs: mustprogress noinline nounwind optnone uwtable
define linkonce_odr dso_local noundef ptr @_ZNK9__gnu_cxx16__aligned_membufISt4pairIKNSt7__cxx1112basic_stringIcSt11char_traitsIcESaIcEEEPSt6vectorIS7_SaIS7_EEEE6_M_ptrEv(ptr noundef nonnull align 8 dereferenceable(40) %0) #8 comdat align 2 !dbg !3709 {
  %2 = alloca ptr, align 8
  store ptr %0, ptr %2, align 8
  call void @llvm.dbg.declare(metadata ptr %2, metadata !3710, metadata !DIExpression()), !dbg !3712
  %3 = load ptr, ptr %2, align 8
  %4 = call noundef ptr @_ZNK9__gnu_cxx16__aligned_membufISt4pairIKNSt7__cxx1112basic_stringIcSt11char_traitsIcESaIcEEEPSt6vectorIS7_SaIS7_EEEE7_M_addrEv(ptr noundef nonnull align 8 dereferenceable(40) %3) #3, !dbg !3713
  ret ptr %4, !dbg !3714
}

; Function Attrs: mustprogress noinline nounwind optnone uwtable
define linkonce_odr dso_local noundef ptr @_ZNK9__gnu_cxx16__aligned_membufISt4pairIKNSt7__cxx1112basic_stringIcSt11char_traitsIcESaIcEEEPSt6vectorIS7_SaIS7_EEEE7_M_addrEv(ptr noundef nonnull align 8 dereferenceable(40) %0) #8 comdat align 2 !dbg !3715 {
  %2 = alloca ptr, align 8
  store ptr %0, ptr %2, align 8
  call void @llvm.dbg.declare(metadata ptr %2, metadata !3716, metadata !DIExpression()), !dbg !3717
  %3 = load ptr, ptr %2, align 8
  %4 = getelementptr inbounds %"struct.__gnu_cxx::__aligned_membuf", ptr %3, i32 0, i32 0, !dbg !3718
  ret ptr %4, !dbg !3719
}

; Function Attrs: mustprogress noinline nounwind optnone uwtable
define linkonce_odr dso_local noundef i32 @_ZNSt11char_traitsIcE7compareEPKcS2_m(ptr noundef %0, ptr noundef %1, i64 noundef %2) #8 comdat align 2 !dbg !3720 {
  %4 = alloca i32, align 4
  %5 = alloca ptr, align 8
  %6 = alloca ptr, align 8
  %7 = alloca i64, align 8
  store ptr %0, ptr %5, align 8
  call void @llvm.dbg.declare(metadata ptr %5, metadata !3771, metadata !DIExpression()), !dbg !3772
  store ptr %1, ptr %6, align 8
  call void @llvm.dbg.declare(metadata ptr %6, metadata !3773, metadata !DIExpression()), !dbg !3774
  store i64 %2, ptr %7, align 8
  call void @llvm.dbg.declare(metadata ptr %7, metadata !3775, metadata !DIExpression()), !dbg !3776
  %8 = load i64, ptr %7, align 8, !dbg !3777
  %9 = icmp eq i64 %8, 0, !dbg !3779
  br i1 %9, label %10, label %11, !dbg !3780

10:                                               ; preds = %3
  store i32 0, ptr %4, align 4, !dbg !3781
  br label %16, !dbg !3781

11:                                               ; preds = %3
  %12 = load ptr, ptr %5, align 8, !dbg !3782
  %13 = load ptr, ptr %6, align 8, !dbg !3783
  %14 = load i64, ptr %7, align 8, !dbg !3784
  %15 = call i32 @memcmp(ptr noundef %12, ptr noundef %13, i64 noundef %14) #3, !dbg !3785
  store i32 %15, ptr %4, align 4, !dbg !3786
  br label %16, !dbg !3786

16:                                               ; preds = %11, %10
  %17 = load i32, ptr %4, align 4, !dbg !3787
  ret i32 %17, !dbg !3787
}

; Function Attrs: nounwind
declare noundef ptr @_ZNKSt7__cxx1112basic_stringIcSt11char_traitsIcESaIcEE4dataEv(ptr noundef nonnull align 8 dereferenceable(32)) #2

; Function Attrs: nounwind
declare i32 @memcmp(ptr noundef, ptr noundef, i64 noundef) #2

; Function Attrs: noinline uwtable
define internal void @_GLOBAL__sub_I_Init.cxx() #0 section ".text.startup" !dbg !3788 {
  call void @__cxx_global_var_init(), !dbg !3790
  call void @__cxx_global_var_init.1(), !dbg !3790
  ret void
}

attributes #0 = { noinline uwtable "frame-pointer"="all" "min-legal-vector-width"="0" "no-trapping-math"="true" "stack-protector-buffer-size"="8" "target-cpu"="x86-64" "target-features"="+cx8,+fxsr,+mmx,+sse,+sse2,+x87" "tune-cpu"="generic" }
attributes #1 = { "frame-pointer"="all" "no-trapping-math"="true" "stack-protector-buffer-size"="8" "target-cpu"="x86-64" "target-features"="+cx8,+fxsr,+mmx,+sse,+sse2,+x87" "tune-cpu"="generic" }
attributes #2 = { nounwind "frame-pointer"="all" "no-trapping-math"="true" "stack-protector-buffer-size"="8" "target-cpu"="x86-64" "target-features"="+cx8,+fxsr,+mmx,+sse,+sse2,+x87" "tune-cpu"="generic" }
attributes #3 = { nounwind }
attributes #4 = { noinline uwtable "frame-pointer"="all" "min-legal-vector-width"="64" "no-trapping-math"="true" "stack-protector-buffer-size"="8" "target-cpu"="x86-64" "target-features"="+cx8,+fxsr,+mmx,+sse,+sse2,+x87" "tune-cpu"="generic" }
attributes #5 = { mustprogress noinline optnone uwtable "frame-pointer"="all" "min-legal-vector-width"="0" "no-trapping-math"="true" "stack-protector-buffer-size"="8" "target-cpu"="x86-64" "target-features"="+cx8,+fxsr,+mmx,+sse,+sse2,+x87" "tune-cpu"="generic" }
attributes #6 = { nocallback nofree nosync nounwind speculatable willreturn memory(none) }
attributes #7 = { noinline nounwind optnone uwtable "frame-pointer"="all" "min-legal-vector-width"="0" "no-trapping-math"="true" "stack-protector-buffer-size"="8" "target-cpu"="x86-64" "target-features"="+cx8,+fxsr,+mmx,+sse,+sse2,+x87" "tune-cpu"="generic" }
attributes #8 = { mustprogress noinline nounwind optnone uwtable "frame-pointer"="all" "min-legal-vector-width"="0" "no-trapping-math"="true" "stack-protector-buffer-size"="8" "target-cpu"="x86-64" "target-features"="+cx8,+fxsr,+mmx,+sse,+sse2,+x87" "tune-cpu"="generic" }
attributes #9 = { nounwind memory(argmem: write) }
attributes #10 = { noinline noreturn nounwind "frame-pointer"="all" "no-trapping-math"="true" "stack-protector-buffer-size"="8" "target-cpu"="x86-64" "target-features"="+cx8,+fxsr,+mmx,+sse,+sse2,+x87" "tune-cpu"="generic" }
attributes #11 = { nounwind willreturn memory(read) "frame-pointer"="all" "no-trapping-math"="true" "stack-protector-buffer-size"="8" "target-cpu"="x86-64" "target-features"="+cx8,+fxsr,+mmx,+sse,+sse2,+x87" "tune-cpu"="generic" }
attributes #12 = { nounwind willreturn memory(read) }
attributes #13 = { noreturn nounwind }

!llvm.dbg.cu = !{!9}
!llvm.module.flags = !{!3087, !3088, !3089, !3090, !3091, !3092, !3093}
!llvm.ident = !{!3094}

!0 = !DIGlobalVariableExpression(var: !1, expr: !DIExpression())
!1 = distinct !DIGlobalVariable(name: "__ioinit", linkageName: "_ZStL8__ioinit", scope: !2, file: !3, line: 74, type: !4, isLocal: true, isDefinition: true)
!2 = !DINamespace(name: "std", scope: null)
!3 = !DIFile(filename: "/usr/lib/gcc/x86_64-linux-gnu/11/../../../../include/c++/11/iostream", directory: "")
!4 = !DICompositeType(tag: DW_TAG_class_type, name: "Init", scope: !6, file: !5, line: 626, size: 8, flags: DIFlagFwdDecl | DIFlagNonTrivial, identifier: "_ZTSNSt8ios_base4InitE")
!5 = !DIFile(filename: "/usr/lib/gcc/x86_64-linux-gnu/11/../../../../include/c++/11/bits/ios_base.h", directory: "")
!6 = !DICompositeType(tag: DW_TAG_class_type, name: "ios_base", scope: !2, file: !5, line: 228, size: 1728, flags: DIFlagFwdDecl | DIFlagNonTrivial)
!7 = !DIGlobalVariableExpression(var: !8, expr: !DIExpression())
!8 = distinct !DIGlobalVariable(name: "maxFloat", linkageName: "_ZL8maxFloat", scope: !9, file: !3084, line: 38, type: !3085, isLocal: true, isDefinition: true)
!9 = distinct !DICompileUnit(language: DW_LANG_C_plus_plus_11, file: !10, producer: "clang version 16.0.0", isOptimized: false, runtimeVersion: 0, emissionKind: FullDebug, enums: !11, retainedTypes: !18, globals: !1708, imports: !1765, splitDebugInlining: false, nameTableKind: None)
!10 = !DIFile(filename: "/home/raj/SVF_PAPER_BENCHMARKS/parsec-3.0/pkgs/apps/raytrace/src/LRT/Init.cxx", directory: "/home/raj/SVF_PAPER_BENCHMARKS/parsec-3.0/pkgs/apps/raytrace/src/build/LRT", checksumkind: CSK_MD5, checksum: "412c38291bc1a811af5fa6a1a81285ee")
!11 = !{!12}
!12 = !DICompositeType(tag: DW_TAG_enumeration_type, name: "_Rb_tree_color", scope: !2, file: !13, line: 99, baseType: !14, size: 32, elements: !15, identifier: "_ZTSSt14_Rb_tree_color")
!13 = !DIFile(filename: "/usr/lib/gcc/x86_64-linux-gnu/11/../../../../include/c++/11/bits/stl_tree.h", directory: "")
!14 = !DIBasicType(name: "unsigned int", size: 32, encoding: DW_ATE_unsigned)
!15 = !{!16, !17}
!16 = !DIEnumerator(name: "_S_red", value: 0, isUnsigned: true)
!17 = !DIEnumerator(name: "_S_black", value: 1, isUnsigned: true)
!18 = !{!19, !24, !740, !220, !129, !741, !742, !754, !760, !51, !47, !188, !456, !453, !25, !28, !235, !240, !294, !334, !933, !959, !956, !1054, !937, !940, !1096, !1100, !1152, !699}
!19 = !DIDerivedType(tag: DW_TAG_typedef, name: "string", scope: !2, file: !20, line: 79, baseType: !21)
!20 = !DIFile(filename: "/usr/lib/gcc/x86_64-linux-gnu/11/../../../../include/c++/11/bits/stringfwd.h", directory: "")
!21 = !DICompositeType(tag: DW_TAG_class_type, name: "basic_string<char, std::char_traits<char>, std::allocator<char> >", scope: !23, file: !22, line: 1627, size: 256, flags: DIFlagFwdDecl | DIFlagNonTrivial, identifier: "_ZTSNSt7__cxx1112basic_stringIcSt11char_traitsIcESaIcEEE")
!22 = !DIFile(filename: "/usr/lib/gcc/x86_64-linux-gnu/11/../../../../include/c++/11/bits/basic_string.tcc", directory: "")
!23 = !DINamespace(name: "__cxx11", scope: !2, exportSymbols: true)
!24 = !DIDerivedType(tag: DW_TAG_typedef, name: "const_iterator", scope: !25, file: !13, line: 816, baseType: !699, flags: DIFlagPublic)
!25 = distinct !DICompositeType(tag: DW_TAG_class_type, name: "_Rb_tree<std::__cxx11::basic_string<char, std::char_traits<char>, std::allocator<char> >, std::pair<const std::__cxx11::basic_string<char, std::char_traits<char>, std::allocator<char> >, std::vector<std::__cxx11::basic_string<char, std::char_traits<char>, std::allocator<char> >, std::allocator<std::__cxx11::basic_string<char, std::char_traits<char>, std::allocator<char> > > > *>, std::_Select1st<std::pair<const std::__cxx11::basic_string<char, std::char_traits<char>, std::allocator<char> >, std::vector<std::__cxx11::basic_string<char, std::char_traits<char>, std::allocator<char> >, std::allocator<std::__cxx11::basic_string<char, std::char_traits<char>, std::allocator<char> > > > *> >, std::less<std::__cxx11::basic_string<char, std::char_traits<char>, std::allocator<char> > >, std::allocator<std::pair<const std::__cxx11::basic_string<char, std::char_traits<char>, std::allocator<char> >, std::vector<std::__cxx11::basic_string<char, std::char_traits<char>, std::allocator<char> >, std::allocator<std::__cxx11::basic_string<char, std::char_traits<char>, std::allocator<char> > > > *> > >", scope: !2, file: !13, line: 425, size: 384, flags: DIFlagTypePassByReference | DIFlagNonTrivial, elements: !26, templateParams: !693, identifier: "_ZTSSt8_Rb_treeINSt7__cxx1112basic_stringIcSt11char_traitsIcESaIcEEESt4pairIKS5_PSt6vectorIS5_SaIS5_EEESt10_Select1stISC_ESt4lessIS5_ESaISC_EE")
!26 = !{!27, !376, !381, !388, !392, !396, !399, !400, !401, !406, !410, !411, !412, !413, !414, !417, !418, !422, !425, !426, !429, !432, !435, !436, !437, !440, !444, !448, !449, !450, !512, !513, !516, !517, !522, !525, !528, !532, !533, !536, !539, !540, !541, !544, !549, !552, !555, !558, !562, !565, !582, !597, !600, !601, !605, !608, !611, !614, !615, !616, !622, !627, !628, !629, !632, !636, !637, !640, !643, !646, !649, !652, !656, !659, !660, !663, !666, !669, !670, !671, !672, !673, !677, !681, !682, !685, !688, !691, !692}
!27 = !DIDerivedType(tag: DW_TAG_member, name: "_M_impl", scope: !25, file: !13, line: 706, baseType: !28, size: 384, flags: DIFlagProtected)
!28 = distinct !DICompositeType(tag: DW_TAG_structure_type, name: "_Rb_tree_impl<std::less<std::__cxx11::basic_string<char, std::char_traits<char>, std::allocator<char> > >, true>", scope: !25, file: !13, line: 660, size: 384, flags: DIFlagTypePassByReference | DIFlagNonTrivial, elements: !29, templateParams: !374, identifier: "_ZTSNSt8_Rb_treeINSt7__cxx1112basic_stringIcSt11char_traitsIcESaIcEEESt4pairIKS5_PSt6vectorIS5_SaIS5_EEESt10_Select1stISC_ESt4lessIS5_ESaISC_EE13_Rb_tree_implISG_Lb1EEE")
!29 = !{!30, !293, !333, !351, !355, !360, !364, !368, !371}
!30 = !DIDerivedType(tag: DW_TAG_inheritance, scope: !28, baseType: !31, extraData: i32 0)
!31 = !DIDerivedType(tag: DW_TAG_typedef, name: "_Node_allocator", scope: !25, file: !13, line: 428, baseType: !32)
!32 = !DIDerivedType(tag: DW_TAG_typedef, name: "other", scope: !34, file: !33, line: 120, baseType: !234)
!33 = !DIFile(filename: "/usr/lib/gcc/x86_64-linux-gnu/11/../../../../include/c++/11/ext/alloc_traits.h", directory: "")
!34 = distinct !DICompositeType(tag: DW_TAG_structure_type, name: "rebind<std::_Rb_tree_node<std::pair<const std::__cxx11::basic_string<char, std::char_traits<char>, std::allocator<char> >, std::vector<std::__cxx11::basic_string<char, std::char_traits<char>, std::allocator<char> >, std::allocator<std::__cxx11::basic_string<char, std::char_traits<char>, std::allocator<char> > > > *> > >", scope: !35, file: !33, line: 119, size: 8, flags: DIFlagTypePassByValue, elements: !93, templateParams: !163, identifier: "_ZTSN9__gnu_cxx14__alloc_traitsISaISt4pairIKNSt7__cxx1112basic_stringIcSt11char_traitsIcESaIcEEEPSt6vectorIS7_SaIS7_EEEESD_E6rebindISt13_Rb_tree_nodeISD_EEE")
!35 = distinct !DICompositeType(tag: DW_TAG_structure_type, name: "__alloc_traits<std::allocator<std::pair<const std::__cxx11::basic_string<char, std::char_traits<char>, std::allocator<char> >, std::vector<std::__cxx11::basic_string<char, std::char_traits<char>, std::allocator<char> >, std::allocator<std::__cxx11::basic_string<char, std::char_traits<char>, std::allocator<char> > > > *> >, std::pair<const std::__cxx11::basic_string<char, std::char_traits<char>, std::allocator<char> >, std::vector<std::__cxx11::basic_string<char, std::char_traits<char>, std::allocator<char> >, std::allocator<std::__cxx11::basic_string<char, std::char_traits<char>, std::allocator<char> > > > *> >", scope: !36, file: !33, line: 48, size: 8, flags: DIFlagTypePassByValue, elements: !37, templateParams: !161, identifier: "_ZTSN9__gnu_cxx14__alloc_traitsISaISt4pairIKNSt7__cxx1112basic_stringIcSt11char_traitsIcESaIcEEEPSt6vectorIS7_SaIS7_EEEESD_EE")
!36 = !DINamespace(name: "__gnu_cxx", scope: null)
!37 = !{!38, !145, !150, !154, !157, !158, !159, !160}
!38 = !DIDerivedType(tag: DW_TAG_inheritance, scope: !35, baseType: !39, extraData: i32 0)
!39 = distinct !DICompositeType(tag: DW_TAG_structure_type, name: "allocator_traits<std::allocator<std::pair<const std::__cxx11::basic_string<char, std::char_traits<char>, std::allocator<char> >, std::vector<std::__cxx11::basic_string<char, std::char_traits<char>, std::allocator<char> >, std::allocator<std::__cxx11::basic_string<char, std::char_traits<char>, std::allocator<char> > > > *> > >", scope: !2, file: !40, line: 411, size: 8, flags: DIFlagTypePassByValue, elements: !41, templateParams: !143, identifier: "_ZTSSt16allocator_traitsISaISt4pairIKNSt7__cxx1112basic_stringIcSt11char_traitsIcESaIcEEEPSt6vectorIS6_SaIS6_EEEEE")
!40 = !DIFile(filename: "/usr/lib/gcc/x86_64-linux-gnu/11/../../../../include/c++/11/bits/alloc_traits.h", directory: "", checksumkind: CSK_MD5, checksum: "937e9d7f00d3ed7cff7ec8fafeb8a8bc")
!41 = !{!42, !125, !131, !134, !140}
!42 = !DISubprogram(name: "allocate", linkageName: "_ZNSt16allocator_traitsISaISt4pairIKNSt7__cxx1112basic_stringIcSt11char_traitsIcESaIcEEEPSt6vectorIS6_SaIS6_EEEEE8allocateERSD_m", scope: !39, file: !40, line: 463, type: !43, scopeLine: 463, flags: DIFlagPrototyped | DIFlagStaticMember, spFlags: 0)
!43 = !DISubroutineType(types: !44)
!44 = !{!45, !117, !121}
!45 = !DIDerivedType(tag: DW_TAG_typedef, name: "pointer", scope: !39, file: !40, line: 420, baseType: !46)
!46 = !DIDerivedType(tag: DW_TAG_pointer_type, baseType: !47, size: 64)
!47 = distinct !DICompositeType(tag: DW_TAG_structure_type, name: "pair<const std::__cxx11::basic_string<char, std::char_traits<char>, std::allocator<char> >, std::vector<std::__cxx11::basic_string<char, std::char_traits<char>, std::allocator<char> >, std::allocator<std::__cxx11::basic_string<char, std::char_traits<char>, std::allocator<char> > > > *>", scope: !2, file: !48, line: 211, size: 320, flags: DIFlagTypePassByReference | DIFlagNonTrivial, elements: !49, templateParams: !114, identifier: "_ZTSSt4pairIKNSt7__cxx1112basic_stringIcSt11char_traitsIcESaIcEEEPSt6vectorIS5_SaIS5_EEE")
!48 = !DIFile(filename: "/usr/lib/gcc/x86_64-linux-gnu/11/../../../../include/c++/11/bits/stl_pair.h", directory: "", checksumkind: CSK_MD5, checksum: "7f4523a2a9644730e7f1af988b6f398d")
!49 = !{!50, !74, !75, !76, !82, !86, !102, !111}
!50 = !DIDerivedType(tag: DW_TAG_inheritance, scope: !47, baseType: !51, flags: DIFlagPrivate, extraData: i32 0)
!51 = distinct !DICompositeType(tag: DW_TAG_class_type, name: "__pair_base<const std::__cxx11::basic_string<char, std::char_traits<char>, std::allocator<char> >, std::vector<std::__cxx11::basic_string<char, std::char_traits<char>, std::allocator<char> >, std::allocator<std::__cxx11::basic_string<char, std::char_traits<char>, std::allocator<char> > > > *>", scope: !2, file: !48, line: 189, size: 8, flags: DIFlagTypePassByValue, elements: !52, templateParams: !67, identifier: "_ZTSSt11__pair_baseIKNSt7__cxx1112basic_stringIcSt11char_traitsIcESaIcEEEPSt6vectorIS5_SaIS5_EEE")
!52 = !{!53, !57, !58, !63}
!53 = !DISubprogram(name: "__pair_base", scope: !51, file: !48, line: 193, type: !54, scopeLine: 193, flags: DIFlagPrototyped, spFlags: 0)
!54 = !DISubroutineType(types: !55)
!55 = !{null, !56}
!56 = !DIDerivedType(tag: DW_TAG_pointer_type, baseType: !51, size: 64, flags: DIFlagArtificial | DIFlagObjectPointer)
!57 = !DISubprogram(name: "~__pair_base", scope: !51, file: !48, line: 194, type: !54, scopeLine: 194, flags: DIFlagPrototyped, spFlags: 0)
!58 = !DISubprogram(name: "__pair_base", scope: !51, file: !48, line: 195, type: !59, scopeLine: 195, flags: DIFlagPrototyped, spFlags: 0)
!59 = !DISubroutineType(types: !60)
!60 = !{null, !56, !61}
!61 = !DIDerivedType(tag: DW_TAG_reference_type, baseType: !62, size: 64)
!62 = !DIDerivedType(tag: DW_TAG_const_type, baseType: !51)
!63 = !DISubprogram(name: "operator=", linkageName: "_ZNSt11__pair_baseIKNSt7__cxx1112basic_stringIcSt11char_traitsIcESaIcEEEPSt6vectorIS5_SaIS5_EEEaSERKSB_", scope: !51, file: !48, line: 196, type: !64, scopeLine: 196, flags: DIFlagPrototyped, spFlags: DISPFlagDeleted)
!64 = !DISubroutineType(types: !65)
!65 = !{!66, !56, !61}
!66 = !DIDerivedType(tag: DW_TAG_reference_type, baseType: !51, size: 64)
!67 = !{!68, !70}
!68 = !DITemplateTypeParameter(name: "_U1", type: !69)
!69 = !DIDerivedType(tag: DW_TAG_const_type, baseType: !21)
!70 = !DITemplateTypeParameter(name: "_U2", type: !71)
!71 = !DIDerivedType(tag: DW_TAG_pointer_type, baseType: !72, size: 64)
!72 = !DICompositeType(tag: DW_TAG_class_type, name: "vector<std::__cxx11::basic_string<char, std::char_traits<char>, std::allocator<char> >, std::allocator<std::__cxx11::basic_string<char, std::char_traits<char>, std::allocator<char> > > >", scope: !2, file: !73, line: 389, size: 192, flags: DIFlagFwdDecl | DIFlagNonTrivial, identifier: "_ZTSSt6vectorINSt7__cxx1112basic_stringIcSt11char_traitsIcESaIcEEESaIS5_EE")
!73 = !DIFile(filename: "/usr/lib/gcc/x86_64-linux-gnu/11/../../../../include/c++/11/bits/stl_vector.h", directory: "", checksumkind: CSK_MD5, checksum: "abcaf00227294b9790605822a1c03477")
!74 = !DIDerivedType(tag: DW_TAG_member, name: "first", scope: !47, file: !48, line: 217, baseType: !69, size: 256)
!75 = !DIDerivedType(tag: DW_TAG_member, name: "second", scope: !47, file: !48, line: 218, baseType: !71, size: 64, offset: 256)
!76 = !DISubprogram(name: "pair", scope: !47, file: !48, line: 314, type: !77, scopeLine: 314, flags: DIFlagPrototyped, spFlags: 0)
!77 = !DISubroutineType(types: !78)
!78 = !{null, !79, !80}
!79 = !DIDerivedType(tag: DW_TAG_pointer_type, baseType: !47, size: 64, flags: DIFlagArtificial | DIFlagObjectPointer)
!80 = !DIDerivedType(tag: DW_TAG_reference_type, baseType: !81, size: 64)
!81 = !DIDerivedType(tag: DW_TAG_const_type, baseType: !47)
!82 = !DISubprogram(name: "pair", scope: !47, file: !48, line: 315, type: !83, scopeLine: 315, flags: DIFlagPrototyped, spFlags: 0)
!83 = !DISubroutineType(types: !84)
!84 = !{null, !79, !85}
!85 = !DIDerivedType(tag: DW_TAG_rvalue_reference_type, baseType: !47, size: 64)
!86 = !DISubprogram(name: "operator=", linkageName: "_ZNSt4pairIKNSt7__cxx1112basic_stringIcSt11char_traitsIcESaIcEEEPSt6vectorIS5_SaIS5_EEEaSERKSt10__nonesuch", scope: !47, file: !48, line: 390, type: !87, scopeLine: 390, flags: DIFlagPrototyped, spFlags: 0)
!87 = !DISubroutineType(types: !88)
!88 = !{!89, !79, !90}
!89 = !DIDerivedType(tag: DW_TAG_reference_type, baseType: !47, size: 64)
!90 = !DIDerivedType(tag: DW_TAG_typedef, name: "type", scope: !92, file: !91, line: 2226, baseType: !99)
!91 = !DIFile(filename: "/usr/lib/gcc/x86_64-linux-gnu/11/../../../../include/c++/11/type_traits", directory: "")
!92 = distinct !DICompositeType(tag: DW_TAG_structure_type, name: "conditional<false, const std::pair<const std::__cxx11::basic_string<char, std::char_traits<char>, std::allocator<char> >, std::vector<std::__cxx11::basic_string<char, std::char_traits<char>, std::allocator<char> >, std::allocator<std::__cxx11::basic_string<char, std::char_traits<char>, std::allocator<char> > > > *> &, const std::__nonesuch &>", scope: !2, file: !91, line: 2225, size: 8, flags: DIFlagTypePassByValue, elements: !93, templateParams: !94, identifier: "_ZTSSt11conditionalILb0ERKSt4pairIKNSt7__cxx1112basic_stringIcSt11char_traitsIcESaIcEEEPSt6vectorIS6_SaIS6_EEERKSt10__nonesuchE")
!93 = !{}
!94 = !{!95, !97, !98}
!95 = !DITemplateValueParameter(name: "_Cond", type: !96, value: i8 0)
!96 = !DIBasicType(name: "bool", size: 8, encoding: DW_ATE_boolean)
!97 = !DITemplateTypeParameter(name: "_Iftrue", type: !80)
!98 = !DITemplateTypeParameter(name: "_Iffalse", type: !99)
!99 = !DIDerivedType(tag: DW_TAG_reference_type, baseType: !100, size: 64)
!100 = !DIDerivedType(tag: DW_TAG_const_type, baseType: !101)
!101 = !DICompositeType(tag: DW_TAG_structure_type, name: "__nonesuch", scope: !2, file: !91, line: 2991, size: 8, flags: DIFlagFwdDecl | DIFlagNonTrivial, identifier: "_ZTSSt10__nonesuch")
!102 = !DISubprogram(name: "operator=", linkageName: "_ZNSt4pairIKNSt7__cxx1112basic_stringIcSt11char_traitsIcESaIcEEEPSt6vectorIS5_SaIS5_EEEaSEOSt10__nonesuch", scope: !47, file: !48, line: 401, type: !103, scopeLine: 401, flags: DIFlagPrototyped, spFlags: 0)
!103 = !DISubroutineType(types: !104)
!104 = !{!89, !79, !105}
!105 = !DIDerivedType(tag: DW_TAG_typedef, name: "type", scope: !106, file: !91, line: 2226, baseType: !110)
!106 = distinct !DICompositeType(tag: DW_TAG_structure_type, name: "conditional<false, std::pair<const std::__cxx11::basic_string<char, std::char_traits<char>, std::allocator<char> >, std::vector<std::__cxx11::basic_string<char, std::char_traits<char>, std::allocator<char> >, std::allocator<std::__cxx11::basic_string<char, std::char_traits<char>, std::allocator<char> > > > *> &&, std::__nonesuch &&>", scope: !2, file: !91, line: 2225, size: 8, flags: DIFlagTypePassByValue, elements: !93, templateParams: !107, identifier: "_ZTSSt11conditionalILb0EOSt4pairIKNSt7__cxx1112basic_stringIcSt11char_traitsIcESaIcEEEPSt6vectorIS6_SaIS6_EEEOSt10__nonesuchE")
!107 = !{!95, !108, !109}
!108 = !DITemplateTypeParameter(name: "_Iftrue", type: !85)
!109 = !DITemplateTypeParameter(name: "_Iffalse", type: !110)
!110 = !DIDerivedType(tag: DW_TAG_rvalue_reference_type, baseType: !101, size: 64)
!111 = !DISubprogram(name: "swap", linkageName: "_ZNSt4pairIKNSt7__cxx1112basic_stringIcSt11char_traitsIcESaIcEEEPSt6vectorIS5_SaIS5_EEE4swapERSB_", scope: !47, file: !48, line: 439, type: !112, scopeLine: 439, flags: DIFlagPrototyped, spFlags: 0)
!112 = !DISubroutineType(types: !113)
!113 = !{null, !79, !89}
!114 = !{!115, !116}
!115 = !DITemplateTypeParameter(name: "_T1", type: !69)
!116 = !DITemplateTypeParameter(name: "_T2", type: !71)
!117 = !DIDerivedType(tag: DW_TAG_reference_type, baseType: !118, size: 64)
!118 = !DIDerivedType(tag: DW_TAG_typedef, name: "allocator_type", scope: !39, file: !40, line: 414, baseType: !119)
!119 = !DICompositeType(tag: DW_TAG_class_type, name: "allocator<std::pair<const std::__cxx11::basic_string<char, std::char_traits<char>, std::allocator<char> >, std::vector<std::__cxx11::basic_string<char, std::char_traits<char>, std::allocator<char> >, std::allocator<std::__cxx11::basic_string<char, std::char_traits<char>, std::allocator<char> > > > *> >", scope: !2, file: !120, line: 124, size: 8, flags: DIFlagFwdDecl | DIFlagNonTrivial, identifier: "_ZTSSaISt4pairIKNSt7__cxx1112basic_stringIcSt11char_traitsIcESaIcEEEPSt6vectorIS5_SaIS5_EEEE")
!120 = !DIFile(filename: "/usr/lib/gcc/x86_64-linux-gnu/11/../../../../include/c++/11/bits/allocator.h", directory: "", checksumkind: CSK_MD5, checksum: "52abf05a7426983321ecef80fe4251be")
!121 = !DIDerivedType(tag: DW_TAG_typedef, name: "size_type", file: !40, line: 435, baseType: !122)
!122 = !DIDerivedType(tag: DW_TAG_typedef, name: "size_t", scope: !2, file: !123, line: 280, baseType: !124)
!123 = !DIFile(filename: "/usr/lib/gcc/x86_64-linux-gnu/11/../../../../include/x86_64-linux-gnu/c++/11/bits/c++config.h", directory: "", checksumkind: CSK_MD5, checksum: "b09addf8bea7ac9bf251a76b15f26064")
!124 = !DIBasicType(name: "unsigned long", size: 64, encoding: DW_ATE_unsigned)
!125 = !DISubprogram(name: "allocate", linkageName: "_ZNSt16allocator_traitsISaISt4pairIKNSt7__cxx1112basic_stringIcSt11char_traitsIcESaIcEEEPSt6vectorIS6_SaIS6_EEEEE8allocateERSD_mPKv", scope: !39, file: !40, line: 477, type: !126, scopeLine: 477, flags: DIFlagPrototyped | DIFlagStaticMember, spFlags: 0)
!126 = !DISubroutineType(types: !127)
!127 = !{!45, !117, !121, !128}
!128 = !DIDerivedType(tag: DW_TAG_typedef, name: "const_void_pointer", file: !40, line: 429, baseType: !129)
!129 = !DIDerivedType(tag: DW_TAG_pointer_type, baseType: !130, size: 64)
!130 = !DIDerivedType(tag: DW_TAG_const_type, baseType: null)
!131 = !DISubprogram(name: "deallocate", linkageName: "_ZNSt16allocator_traitsISaISt4pairIKNSt7__cxx1112basic_stringIcSt11char_traitsIcESaIcEEEPSt6vectorIS6_SaIS6_EEEEE10deallocateERSD_PSC_m", scope: !39, file: !40, line: 495, type: !132, scopeLine: 495, flags: DIFlagPrototyped | DIFlagStaticMember, spFlags: 0)
!132 = !DISubroutineType(types: !133)
!133 = !{null, !117, !45, !121}
!134 = !DISubprogram(name: "max_size", linkageName: "_ZNSt16allocator_traitsISaISt4pairIKNSt7__cxx1112basic_stringIcSt11char_traitsIcESaIcEEEPSt6vectorIS6_SaIS6_EEEEE8max_sizeERKSD_", scope: !39, file: !40, line: 547, type: !135, scopeLine: 547, flags: DIFlagPrototyped | DIFlagStaticMember, spFlags: 0)
!135 = !DISubroutineType(types: !136)
!136 = !{!137, !138}
!137 = !DIDerivedType(tag: DW_TAG_typedef, name: "size_type", scope: !39, file: !40, line: 435, baseType: !122)
!138 = !DIDerivedType(tag: DW_TAG_reference_type, baseType: !139, size: 64)
!139 = !DIDerivedType(tag: DW_TAG_const_type, baseType: !118)
!140 = !DISubprogram(name: "select_on_container_copy_construction", linkageName: "_ZNSt16allocator_traitsISaISt4pairIKNSt7__cxx1112basic_stringIcSt11char_traitsIcESaIcEEEPSt6vectorIS6_SaIS6_EEEEE37select_on_container_copy_constructionERKSD_", scope: !39, file: !40, line: 562, type: !141, scopeLine: 562, flags: DIFlagPrototyped | DIFlagStaticMember, spFlags: 0)
!141 = !DISubroutineType(types: !142)
!142 = !{!118, !138}
!143 = !{!144}
!144 = !DITemplateTypeParameter(name: "_Alloc", type: !119)
!145 = !DISubprogram(name: "_S_select_on_copy", linkageName: "_ZN9__gnu_cxx14__alloc_traitsISaISt4pairIKNSt7__cxx1112basic_stringIcSt11char_traitsIcESaIcEEEPSt6vectorIS7_SaIS7_EEEESD_E17_S_select_on_copyERKSE_", scope: !35, file: !33, line: 97, type: !146, scopeLine: 97, flags: DIFlagPrototyped | DIFlagStaticMember, spFlags: 0)
!146 = !DISubroutineType(types: !147)
!147 = !{!119, !148}
!148 = !DIDerivedType(tag: DW_TAG_reference_type, baseType: !149, size: 64)
!149 = !DIDerivedType(tag: DW_TAG_const_type, baseType: !119)
!150 = !DISubprogram(name: "_S_on_swap", linkageName: "_ZN9__gnu_cxx14__alloc_traitsISaISt4pairIKNSt7__cxx1112basic_stringIcSt11char_traitsIcESaIcEEEPSt6vectorIS7_SaIS7_EEEESD_E10_S_on_swapERSE_SG_", scope: !35, file: !33, line: 100, type: !151, scopeLine: 100, flags: DIFlagPrototyped | DIFlagStaticMember, spFlags: 0)
!151 = !DISubroutineType(types: !152)
!152 = !{null, !153, !153}
!153 = !DIDerivedType(tag: DW_TAG_reference_type, baseType: !119, size: 64)
!154 = !DISubprogram(name: "_S_propagate_on_copy_assign", linkageName: "_ZN9__gnu_cxx14__alloc_traitsISaISt4pairIKNSt7__cxx1112basic_stringIcSt11char_traitsIcESaIcEEEPSt6vectorIS7_SaIS7_EEEESD_E27_S_propagate_on_copy_assignEv", scope: !35, file: !33, line: 103, type: !155, scopeLine: 103, flags: DIFlagPrototyped | DIFlagStaticMember, spFlags: 0)
!155 = !DISubroutineType(types: !156)
!156 = !{!96}
!157 = !DISubprogram(name: "_S_propagate_on_move_assign", linkageName: "_ZN9__gnu_cxx14__alloc_traitsISaISt4pairIKNSt7__cxx1112basic_stringIcSt11char_traitsIcESaIcEEEPSt6vectorIS7_SaIS7_EEEESD_E27_S_propagate_on_move_assignEv", scope: !35, file: !33, line: 106, type: !155, scopeLine: 106, flags: DIFlagPrototyped | DIFlagStaticMember, spFlags: 0)
!158 = !DISubprogram(name: "_S_propagate_on_swap", linkageName: "_ZN9__gnu_cxx14__alloc_traitsISaISt4pairIKNSt7__cxx1112basic_stringIcSt11char_traitsIcESaIcEEEPSt6vectorIS7_SaIS7_EEEESD_E20_S_propagate_on_swapEv", scope: !35, file: !33, line: 109, type: !155, scopeLine: 109, flags: DIFlagPrototyped | DIFlagStaticMember, spFlags: 0)
!159 = !DISubprogram(name: "_S_always_equal", linkageName: "_ZN9__gnu_cxx14__alloc_traitsISaISt4pairIKNSt7__cxx1112basic_stringIcSt11char_traitsIcESaIcEEEPSt6vectorIS7_SaIS7_EEEESD_E15_S_always_equalEv", scope: !35, file: !33, line: 112, type: !155, scopeLine: 112, flags: DIFlagPrototyped | DIFlagStaticMember, spFlags: 0)
!160 = !DISubprogram(name: "_S_nothrow_move", linkageName: "_ZN9__gnu_cxx14__alloc_traitsISaISt4pairIKNSt7__cxx1112basic_stringIcSt11char_traitsIcESaIcEEEPSt6vectorIS7_SaIS7_EEEESD_E15_S_nothrow_moveEv", scope: !35, file: !33, line: 115, type: !155, scopeLine: 115, flags: DIFlagPrototyped | DIFlagStaticMember, spFlags: 0)
!161 = !{!144, !162}
!162 = !DITemplateTypeParameter(type: !47)
!163 = !{!164}
!164 = !DITemplateTypeParameter(name: "_Tp", type: !165)
!165 = distinct !DICompositeType(tag: DW_TAG_structure_type, name: "_Rb_tree_node<std::pair<const std::__cxx11::basic_string<char, std::char_traits<char>, std::allocator<char> >, std::vector<std::__cxx11::basic_string<char, std::char_traits<char>, std::allocator<char> >, std::allocator<std::__cxx11::basic_string<char, std::char_traits<char>, std::allocator<char> > > > *> >", scope: !2, file: !13, line: 216, size: 576, flags: DIFlagTypePassByValue, elements: !166, templateParams: !232, identifier: "_ZTSSt13_Rb_tree_nodeISt4pairIKNSt7__cxx1112basic_stringIcSt11char_traitsIcESaIcEEEPSt6vectorIS6_SaIS6_EEEE")
!166 = !{!167, !187, !223, !227}
!167 = !DIDerivedType(tag: DW_TAG_inheritance, scope: !165, baseType: !168, extraData: i32 0)
!168 = distinct !DICompositeType(tag: DW_TAG_structure_type, name: "_Rb_tree_node_base", scope: !2, file: !13, line: 101, size: 256, flags: DIFlagTypePassByValue, elements: !169, identifier: "_ZTSSt18_Rb_tree_node_base")
!169 = !{!170, !171, !174, !175, !176, !179, !185, !186}
!170 = !DIDerivedType(tag: DW_TAG_member, name: "_M_color", scope: !168, file: !13, line: 106, baseType: !12, size: 32)
!171 = !DIDerivedType(tag: DW_TAG_member, name: "_M_parent", scope: !168, file: !13, line: 107, baseType: !172, size: 64, offset: 64)
!172 = !DIDerivedType(tag: DW_TAG_typedef, name: "_Base_ptr", scope: !168, file: !13, line: 103, baseType: !173)
!173 = !DIDerivedType(tag: DW_TAG_pointer_type, baseType: !168, size: 64)
!174 = !DIDerivedType(tag: DW_TAG_member, name: "_M_left", scope: !168, file: !13, line: 108, baseType: !172, size: 64, offset: 128)
!175 = !DIDerivedType(tag: DW_TAG_member, name: "_M_right", scope: !168, file: !13, line: 109, baseType: !172, size: 64, offset: 192)
!176 = !DISubprogram(name: "_S_minimum", linkageName: "_ZNSt18_Rb_tree_node_base10_S_minimumEPS_", scope: !168, file: !13, line: 112, type: !177, scopeLine: 112, flags: DIFlagPrototyped | DIFlagStaticMember, spFlags: 0)
!177 = !DISubroutineType(types: !178)
!178 = !{!172, !172}
!179 = !DISubprogram(name: "_S_minimum", linkageName: "_ZNSt18_Rb_tree_node_base10_S_minimumEPKS_", scope: !168, file: !13, line: 119, type: !180, scopeLine: 119, flags: DIFlagPrototyped | DIFlagStaticMember, spFlags: 0)
!180 = !DISubroutineType(types: !181)
!181 = !{!182, !182}
!182 = !DIDerivedType(tag: DW_TAG_typedef, name: "_Const_Base_ptr", scope: !168, file: !13, line: 104, baseType: !183)
!183 = !DIDerivedType(tag: DW_TAG_pointer_type, baseType: !184, size: 64)
!184 = !DIDerivedType(tag: DW_TAG_const_type, baseType: !168)
!185 = !DISubprogram(name: "_S_maximum", linkageName: "_ZNSt18_Rb_tree_node_base10_S_maximumEPS_", scope: !168, file: !13, line: 126, type: !177, scopeLine: 126, flags: DIFlagPrototyped | DIFlagStaticMember, spFlags: 0)
!186 = !DISubprogram(name: "_S_maximum", linkageName: "_ZNSt18_Rb_tree_node_base10_S_maximumEPKS_", scope: !168, file: !13, line: 133, type: !180, scopeLine: 133, flags: DIFlagPrototyped | DIFlagStaticMember, spFlags: 0)
!187 = !DIDerivedType(tag: DW_TAG_member, name: "_M_storage", scope: !165, file: !13, line: 231, baseType: !188, size: 320, offset: 256)
!188 = distinct !DICompositeType(tag: DW_TAG_structure_type, name: "__aligned_membuf<std::pair<const std::__cxx11::basic_string<char, std::char_traits<char>, std::allocator<char> >, std::vector<std::__cxx11::basic_string<char, std::char_traits<char>, std::allocator<char> >, std::allocator<std::__cxx11::basic_string<char, std::char_traits<char>, std::allocator<char> > > > *> >", scope: !36, file: !189, line: 47, size: 320, flags: DIFlagTypePassByValue, elements: !190, templateParams: !221, identifier: "_ZTSN9__gnu_cxx16__aligned_membufISt4pairIKNSt7__cxx1112basic_stringIcSt11char_traitsIcESaIcEEEPSt6vectorIS7_SaIS7_EEEEE")
!189 = !DIFile(filename: "/usr/lib/gcc/x86_64-linux-gnu/11/../../../../include/c++/11/ext/aligned_buffer.h", directory: "")
!190 = !{!191, !196, !200, !205, !209, !214, !217}
!191 = !DIDerivedType(tag: DW_TAG_member, name: "_M_storage", scope: !188, file: !189, line: 56, baseType: !192, size: 320, align: 64)
!192 = !DICompositeType(tag: DW_TAG_array_type, baseType: !193, size: 320, elements: !194)
!193 = !DIBasicType(name: "unsigned char", size: 8, encoding: DW_ATE_unsigned_char)
!194 = !{!195}
!195 = !DISubrange(count: 40)
!196 = !DISubprogram(name: "__aligned_membuf", scope: !188, file: !189, line: 58, type: !197, scopeLine: 58, flags: DIFlagPrototyped, spFlags: 0)
!197 = !DISubroutineType(types: !198)
!198 = !{null, !199}
!199 = !DIDerivedType(tag: DW_TAG_pointer_type, baseType: !188, size: 64, flags: DIFlagArtificial | DIFlagObjectPointer)
!200 = !DISubprogram(name: "__aligned_membuf", scope: !188, file: !189, line: 61, type: !201, scopeLine: 61, flags: DIFlagPrototyped, spFlags: 0)
!201 = !DISubroutineType(types: !202)
!202 = !{null, !199, !203}
!203 = !DIDerivedType(tag: DW_TAG_typedef, name: "nullptr_t", scope: !2, file: !123, line: 284, baseType: !204)
!204 = !DIBasicType(tag: DW_TAG_unspecified_type, name: "decltype(nullptr)")
!205 = !DISubprogram(name: "_M_addr", linkageName: "_ZN9__gnu_cxx16__aligned_membufISt4pairIKNSt7__cxx1112basic_stringIcSt11char_traitsIcESaIcEEEPSt6vectorIS7_SaIS7_EEEE7_M_addrEv", scope: !188, file: !189, line: 64, type: !206, scopeLine: 64, flags: DIFlagPrototyped, spFlags: 0)
!206 = !DISubroutineType(types: !207)
!207 = !{!208, !199}
!208 = !DIDerivedType(tag: DW_TAG_pointer_type, baseType: null, size: 64)
!209 = !DISubprogram(name: "_M_addr", linkageName: "_ZNK9__gnu_cxx16__aligned_membufISt4pairIKNSt7__cxx1112basic_stringIcSt11char_traitsIcESaIcEEEPSt6vectorIS7_SaIS7_EEEE7_M_addrEv", scope: !188, file: !189, line: 68, type: !210, scopeLine: 68, flags: DIFlagPrototyped, spFlags: 0)
!210 = !DISubroutineType(types: !211)
!211 = !{!129, !212}
!212 = !DIDerivedType(tag: DW_TAG_pointer_type, baseType: !213, size: 64, flags: DIFlagArtificial | DIFlagObjectPointer)
!213 = !DIDerivedType(tag: DW_TAG_const_type, baseType: !188)
!214 = !DISubprogram(name: "_M_ptr", linkageName: "_ZN9__gnu_cxx16__aligned_membufISt4pairIKNSt7__cxx1112basic_stringIcSt11char_traitsIcESaIcEEEPSt6vectorIS7_SaIS7_EEEE6_M_ptrEv", scope: !188, file: !189, line: 72, type: !215, scopeLine: 72, flags: DIFlagPrototyped, spFlags: 0)
!215 = !DISubroutineType(types: !216)
!216 = !{!46, !199}
!217 = !DISubprogram(name: "_M_ptr", linkageName: "_ZNK9__gnu_cxx16__aligned_membufISt4pairIKNSt7__cxx1112basic_stringIcSt11char_traitsIcESaIcEEEPSt6vectorIS7_SaIS7_EEEE6_M_ptrEv", scope: !188, file: !189, line: 76, type: !218, scopeLine: 76, flags: DIFlagPrototyped, spFlags: 0)
!218 = !DISubroutineType(types: !219)
!219 = !{!220, !212}
!220 = !DIDerivedType(tag: DW_TAG_pointer_type, baseType: !81, size: 64)
!221 = !{!222}
!222 = !DITemplateTypeParameter(name: "_Tp", type: !47)
!223 = !DISubprogram(name: "_M_valptr", linkageName: "_ZNSt13_Rb_tree_nodeISt4pairIKNSt7__cxx1112basic_stringIcSt11char_traitsIcESaIcEEEPSt6vectorIS6_SaIS6_EEEE9_M_valptrEv", scope: !165, file: !13, line: 234, type: !224, scopeLine: 234, flags: DIFlagPrototyped, spFlags: 0)
!224 = !DISubroutineType(types: !225)
!225 = !{!46, !226}
!226 = !DIDerivedType(tag: DW_TAG_pointer_type, baseType: !165, size: 64, flags: DIFlagArtificial | DIFlagObjectPointer)
!227 = !DISubprogram(name: "_M_valptr", linkageName: "_ZNKSt13_Rb_tree_nodeISt4pairIKNSt7__cxx1112basic_stringIcSt11char_traitsIcESaIcEEEPSt6vectorIS6_SaIS6_EEEE9_M_valptrEv", scope: !165, file: !13, line: 238, type: !228, scopeLine: 238, flags: DIFlagPrototyped, spFlags: 0)
!228 = !DISubroutineType(types: !229)
!229 = !{!220, !230}
!230 = !DIDerivedType(tag: DW_TAG_pointer_type, baseType: !231, size: 64, flags: DIFlagArtificial | DIFlagObjectPointer)
!231 = !DIDerivedType(tag: DW_TAG_const_type, baseType: !165)
!232 = !{!233}
!233 = !DITemplateTypeParameter(name: "_Val", type: !47)
!234 = !DIDerivedType(tag: DW_TAG_typedef, name: "rebind_alloc<std::_Rb_tree_node<std::pair<const std::__cxx11::basic_string<char>, std::vector<std::__cxx11::basic_string<char> > *> > >", scope: !39, file: !40, line: 450, baseType: !235)
!235 = distinct !DICompositeType(tag: DW_TAG_class_type, name: "allocator<std::_Rb_tree_node<std::pair<const std::__cxx11::basic_string<char, std::char_traits<char>, std::allocator<char> >, std::vector<std::__cxx11::basic_string<char, std::char_traits<char>, std::allocator<char> >, std::allocator<std::__cxx11::basic_string<char, std::char_traits<char>, std::allocator<char> > > > *> > >", scope: !2, file: !120, line: 124, size: 8, flags: DIFlagTypePassByReference | DIFlagNonTrivial, elements: !236, templateParams: !163, identifier: "_ZTSSaISt13_Rb_tree_nodeISt4pairIKNSt7__cxx1112basic_stringIcSt11char_traitsIcESaIcEEEPSt6vectorIS6_SaIS6_EEEEE")
!236 = !{!237, !279, !283, !288, !292}
!237 = !DIDerivedType(tag: DW_TAG_inheritance, scope: !235, baseType: !238, flags: DIFlagPublic, extraData: i32 0)
!238 = !DIDerivedType(tag: DW_TAG_typedef, name: "__allocator_base<std::_Rb_tree_node<std::pair<const std::__cxx11::basic_string<char>, std::vector<std::__cxx11::basic_string<char> > *> > >", scope: !2, file: !239, line: 48, baseType: !240)
!239 = !DIFile(filename: "/usr/lib/gcc/x86_64-linux-gnu/11/../../../../include/x86_64-linux-gnu/c++/11/bits/c++allocator.h", directory: "", checksumkind: CSK_MD5, checksum: "fcdcf111c9228da351f93cd81039e6d6")
!240 = distinct !DICompositeType(tag: DW_TAG_class_type, name: "new_allocator<std::_Rb_tree_node<std::pair<const std::__cxx11::basic_string<char, std::char_traits<char>, std::allocator<char> >, std::vector<std::__cxx11::basic_string<char, std::char_traits<char>, std::allocator<char> >, std::allocator<std::__cxx11::basic_string<char, std::char_traits<char>, std::allocator<char> > > > *> > >", scope: !36, file: !241, line: 55, size: 8, flags: DIFlagTypePassByReference | DIFlagNonTrivial, elements: !242, templateParams: !163, identifier: "_ZTSN9__gnu_cxx13new_allocatorISt13_Rb_tree_nodeISt4pairIKNSt7__cxx1112basic_stringIcSt11char_traitsIcESaIcEEEPSt6vectorIS8_SaIS8_EEEEEE")
!241 = !DIFile(filename: "/usr/lib/gcc/x86_64-linux-gnu/11/../../../../include/c++/11/ext/new_allocator.h", directory: "", checksumkind: CSK_MD5, checksum: "4493add5a3fa57e0ec30b90cd4e81c11")
!242 = !{!243, !247, !252, !253, !261, !268, !272, !275, !278}
!243 = !DISubprogram(name: "new_allocator", scope: !240, file: !241, line: 79, type: !244, scopeLine: 79, flags: DIFlagPublic | DIFlagPrototyped, spFlags: 0)
!244 = !DISubroutineType(types: !245)
!245 = !{null, !246}
!246 = !DIDerivedType(tag: DW_TAG_pointer_type, baseType: !240, size: 64, flags: DIFlagArtificial | DIFlagObjectPointer)
!247 = !DISubprogram(name: "new_allocator", scope: !240, file: !241, line: 82, type: !248, scopeLine: 82, flags: DIFlagPublic | DIFlagPrototyped, spFlags: 0)
!248 = !DISubroutineType(types: !249)
!249 = !{null, !246, !250}
!250 = !DIDerivedType(tag: DW_TAG_reference_type, baseType: !251, size: 64)
!251 = !DIDerivedType(tag: DW_TAG_const_type, baseType: !240)
!252 = !DISubprogram(name: "~new_allocator", scope: !240, file: !241, line: 89, type: !244, scopeLine: 89, flags: DIFlagPublic | DIFlagPrototyped, spFlags: 0)
!253 = !DISubprogram(name: "address", linkageName: "_ZNK9__gnu_cxx13new_allocatorISt13_Rb_tree_nodeISt4pairIKNSt7__cxx1112basic_stringIcSt11char_traitsIcESaIcEEEPSt6vectorIS8_SaIS8_EEEEE7addressERSF_", scope: !240, file: !241, line: 92, type: !254, scopeLine: 92, flags: DIFlagPublic | DIFlagPrototyped, spFlags: 0)
!254 = !DISubroutineType(types: !255)
!255 = !{!256, !258, !259}
!256 = !DIDerivedType(tag: DW_TAG_typedef, name: "pointer", scope: !240, file: !241, line: 62, baseType: !257, flags: DIFlagPublic)
!257 = !DIDerivedType(tag: DW_TAG_pointer_type, baseType: !165, size: 64)
!258 = !DIDerivedType(tag: DW_TAG_pointer_type, baseType: !251, size: 64, flags: DIFlagArtificial | DIFlagObjectPointer)
!259 = !DIDerivedType(tag: DW_TAG_typedef, name: "reference", scope: !240, file: !241, line: 64, baseType: !260, flags: DIFlagPublic)
!260 = !DIDerivedType(tag: DW_TAG_reference_type, baseType: !165, size: 64)
!261 = !DISubprogram(name: "address", linkageName: "_ZNK9__gnu_cxx13new_allocatorISt13_Rb_tree_nodeISt4pairIKNSt7__cxx1112basic_stringIcSt11char_traitsIcESaIcEEEPSt6vectorIS8_SaIS8_EEEEE7addressERKSF_", scope: !240, file: !241, line: 96, type: !262, scopeLine: 96, flags: DIFlagPublic | DIFlagPrototyped, spFlags: 0)
!262 = !DISubroutineType(types: !263)
!263 = !{!264, !258, !266}
!264 = !DIDerivedType(tag: DW_TAG_typedef, name: "const_pointer", scope: !240, file: !241, line: 63, baseType: !265, flags: DIFlagPublic)
!265 = !DIDerivedType(tag: DW_TAG_pointer_type, baseType: !231, size: 64)
!266 = !DIDerivedType(tag: DW_TAG_typedef, name: "const_reference", scope: !240, file: !241, line: 65, baseType: !267, flags: DIFlagPublic)
!267 = !DIDerivedType(tag: DW_TAG_reference_type, baseType: !231, size: 64)
!268 = !DISubprogram(name: "allocate", linkageName: "_ZN9__gnu_cxx13new_allocatorISt13_Rb_tree_nodeISt4pairIKNSt7__cxx1112basic_stringIcSt11char_traitsIcESaIcEEEPSt6vectorIS8_SaIS8_EEEEE8allocateEmPKv", scope: !240, file: !241, line: 103, type: !269, scopeLine: 103, flags: DIFlagPublic | DIFlagPrototyped, spFlags: 0)
!269 = !DISubroutineType(types: !270)
!270 = !{!257, !246, !271, !129}
!271 = !DIDerivedType(tag: DW_TAG_typedef, name: "size_type", file: !241, line: 59, baseType: !122, flags: DIFlagPublic)
!272 = !DISubprogram(name: "deallocate", linkageName: "_ZN9__gnu_cxx13new_allocatorISt13_Rb_tree_nodeISt4pairIKNSt7__cxx1112basic_stringIcSt11char_traitsIcESaIcEEEPSt6vectorIS8_SaIS8_EEEEE10deallocateEPSF_m", scope: !240, file: !241, line: 132, type: !273, scopeLine: 132, flags: DIFlagPublic | DIFlagPrototyped, spFlags: 0)
!273 = !DISubroutineType(types: !274)
!274 = !{null, !246, !257, !271}
!275 = !DISubprogram(name: "max_size", linkageName: "_ZNK9__gnu_cxx13new_allocatorISt13_Rb_tree_nodeISt4pairIKNSt7__cxx1112basic_stringIcSt11char_traitsIcESaIcEEEPSt6vectorIS8_SaIS8_EEEEE8max_sizeEv", scope: !240, file: !241, line: 154, type: !276, scopeLine: 154, flags: DIFlagPublic | DIFlagPrototyped, spFlags: 0)
!276 = !DISubroutineType(types: !277)
!277 = !{!271, !258}
!278 = !DISubprogram(name: "_M_max_size", linkageName: "_ZNK9__gnu_cxx13new_allocatorISt13_Rb_tree_nodeISt4pairIKNSt7__cxx1112basic_stringIcSt11char_traitsIcESaIcEEEPSt6vectorIS8_SaIS8_EEEEE11_M_max_sizeEv", scope: !240, file: !241, line: 197, type: !276, scopeLine: 197, flags: DIFlagPrototyped, spFlags: 0)
!279 = !DISubprogram(name: "allocator", scope: !235, file: !120, line: 156, type: !280, scopeLine: 156, flags: DIFlagPublic | DIFlagPrototyped, spFlags: 0)
!280 = !DISubroutineType(types: !281)
!281 = !{null, !282}
!282 = !DIDerivedType(tag: DW_TAG_pointer_type, baseType: !235, size: 64, flags: DIFlagArtificial | DIFlagObjectPointer)
!283 = !DISubprogram(name: "allocator", scope: !235, file: !120, line: 159, type: !284, scopeLine: 159, flags: DIFlagPublic | DIFlagPrototyped, spFlags: 0)
!284 = !DISubroutineType(types: !285)
!285 = !{null, !282, !286}
!286 = !DIDerivedType(tag: DW_TAG_reference_type, baseType: !287, size: 64)
!287 = !DIDerivedType(tag: DW_TAG_const_type, baseType: !235)
!288 = !DISubprogram(name: "operator=", linkageName: "_ZNSaISt13_Rb_tree_nodeISt4pairIKNSt7__cxx1112basic_stringIcSt11char_traitsIcESaIcEEEPSt6vectorIS6_SaIS6_EEEEEaSERKSE_", scope: !235, file: !120, line: 164, type: !289, scopeLine: 164, flags: DIFlagPublic | DIFlagPrototyped, spFlags: 0)
!289 = !DISubroutineType(types: !290)
!290 = !{!291, !282, !286}
!291 = !DIDerivedType(tag: DW_TAG_reference_type, baseType: !235, size: 64)
!292 = !DISubprogram(name: "~allocator", scope: !235, file: !120, line: 174, type: !280, scopeLine: 174, flags: DIFlagPublic | DIFlagPrototyped, spFlags: 0)
!293 = !DIDerivedType(tag: DW_TAG_inheritance, scope: !28, baseType: !294, extraData: i32 0)
!294 = distinct !DICompositeType(tag: DW_TAG_structure_type, name: "_Rb_tree_key_compare<std::less<std::__cxx11::basic_string<char, std::char_traits<char>, std::allocator<char> > > >", scope: !2, file: !13, line: 142, size: 8, flags: DIFlagTypePassByReference | DIFlagNonTrivial, elements: !295, templateParams: !331, identifier: "_ZTSSt20_Rb_tree_key_compareISt4lessINSt7__cxx1112basic_stringIcSt11char_traitsIcESaIcEEEEE")
!295 = !{!296, !314, !318, !322, !327}
!296 = !DIDerivedType(tag: DW_TAG_member, name: "_M_key_compare", scope: !294, file: !13, line: 144, baseType: !297, size: 8)
!297 = distinct !DICompositeType(tag: DW_TAG_structure_type, name: "less<std::__cxx11::basic_string<char, std::char_traits<char>, std::allocator<char> > >", scope: !2, file: !298, line: 395, size: 8, flags: DIFlagTypePassByValue, elements: !299, templateParams: !312, identifier: "_ZTSSt4lessINSt7__cxx1112basic_stringIcSt11char_traitsIcESaIcEEEE")
!298 = !DIFile(filename: "/usr/lib/gcc/x86_64-linux-gnu/11/../../../../include/c++/11/bits/stl_function.h", directory: "", checksumkind: CSK_MD5, checksum: "42c8c895e947368df44a306d292f341c")
!299 = !{!300, !306}
!300 = !DIDerivedType(tag: DW_TAG_inheritance, scope: !297, baseType: !301, extraData: i32 0)
!301 = distinct !DICompositeType(tag: DW_TAG_structure_type, name: "binary_function<std::__cxx11::basic_string<char, std::char_traits<char>, std::allocator<char> >, std::__cxx11::basic_string<char, std::char_traits<char>, std::allocator<char> >, bool>", scope: !2, file: !298, line: 131, size: 8, flags: DIFlagTypePassByValue, elements: !93, templateParams: !302, identifier: "_ZTSSt15binary_functionINSt7__cxx1112basic_stringIcSt11char_traitsIcESaIcEEES5_bE")
!302 = !{!303, !304, !305}
!303 = !DITemplateTypeParameter(name: "_Arg1", type: !21)
!304 = !DITemplateTypeParameter(name: "_Arg2", type: !21)
!305 = !DITemplateTypeParameter(name: "_Result", type: !96)
!306 = !DISubprogram(name: "operator()", linkageName: "_ZNKSt4lessINSt7__cxx1112basic_stringIcSt11char_traitsIcESaIcEEEEclERKS5_S8_", scope: !297, file: !298, line: 399, type: !307, scopeLine: 399, flags: DIFlagPrototyped, spFlags: 0)
!307 = !DISubroutineType(types: !308)
!308 = !{!96, !309, !311, !311}
!309 = !DIDerivedType(tag: DW_TAG_pointer_type, baseType: !310, size: 64, flags: DIFlagArtificial | DIFlagObjectPointer)
!310 = !DIDerivedType(tag: DW_TAG_const_type, baseType: !297)
!311 = !DIDerivedType(tag: DW_TAG_reference_type, baseType: !69, size: 64)
!312 = !{!313}
!313 = !DITemplateTypeParameter(name: "_Tp", type: !21)
!314 = !DISubprogram(name: "_Rb_tree_key_compare", scope: !294, file: !13, line: 146, type: !315, scopeLine: 146, flags: DIFlagPrototyped, spFlags: 0)
!315 = !DISubroutineType(types: !316)
!316 = !{null, !317}
!317 = !DIDerivedType(tag: DW_TAG_pointer_type, baseType: !294, size: 64, flags: DIFlagArtificial | DIFlagObjectPointer)
!318 = !DISubprogram(name: "_Rb_tree_key_compare", scope: !294, file: !13, line: 152, type: !319, scopeLine: 152, flags: DIFlagPrototyped, spFlags: 0)
!319 = !DISubroutineType(types: !320)
!320 = !{null, !317, !321}
!321 = !DIDerivedType(tag: DW_TAG_reference_type, baseType: !310, size: 64)
!322 = !DISubprogram(name: "_Rb_tree_key_compare", scope: !294, file: !13, line: 158, type: !323, scopeLine: 158, flags: DIFlagPrototyped, spFlags: 0)
!323 = !DISubroutineType(types: !324)
!324 = !{null, !317, !325}
!325 = !DIDerivedType(tag: DW_TAG_reference_type, baseType: !326, size: 64)
!326 = !DIDerivedType(tag: DW_TAG_const_type, baseType: !294)
!327 = !DISubprogram(name: "_Rb_tree_key_compare", scope: !294, file: !13, line: 160, type: !328, scopeLine: 160, flags: DIFlagPrototyped, spFlags: 0)
!328 = !DISubroutineType(types: !329)
!329 = !{null, !317, !330}
!330 = !DIDerivedType(tag: DW_TAG_rvalue_reference_type, baseType: !294, size: 64)
!331 = !{!332}
!332 = !DITemplateTypeParameter(name: "_Key_compare", type: !297)
!333 = !DIDerivedType(tag: DW_TAG_inheritance, scope: !28, baseType: !334, offset: 64, extraData: i32 0)
!334 = distinct !DICompositeType(tag: DW_TAG_structure_type, name: "_Rb_tree_header", scope: !2, file: !13, line: 168, size: 320, flags: DIFlagTypePassByReference | DIFlagNonTrivial, elements: !335, identifier: "_ZTSSt15_Rb_tree_header")
!335 = !{!336, !337, !338, !342, !346, !350}
!336 = !DIDerivedType(tag: DW_TAG_member, name: "_M_header", scope: !334, file: !13, line: 170, baseType: !168, size: 256)
!337 = !DIDerivedType(tag: DW_TAG_member, name: "_M_node_count", scope: !334, file: !13, line: 171, baseType: !122, size: 64, offset: 256)
!338 = !DISubprogram(name: "_Rb_tree_header", scope: !334, file: !13, line: 173, type: !339, scopeLine: 173, flags: DIFlagPrototyped, spFlags: 0)
!339 = !DISubroutineType(types: !340)
!340 = !{null, !341}
!341 = !DIDerivedType(tag: DW_TAG_pointer_type, baseType: !334, size: 64, flags: DIFlagArtificial | DIFlagObjectPointer)
!342 = !DISubprogram(name: "_Rb_tree_header", scope: !334, file: !13, line: 180, type: !343, scopeLine: 180, flags: DIFlagPrototyped, spFlags: 0)
!343 = !DISubroutineType(types: !344)
!344 = !{null, !341, !345}
!345 = !DIDerivedType(tag: DW_TAG_rvalue_reference_type, baseType: !334, size: 64)
!346 = !DISubprogram(name: "_M_move_data", linkageName: "_ZNSt15_Rb_tree_header12_M_move_dataERS_", scope: !334, file: !13, line: 193, type: !347, scopeLine: 193, flags: DIFlagPrototyped, spFlags: 0)
!347 = !DISubroutineType(types: !348)
!348 = !{null, !341, !349}
!349 = !DIDerivedType(tag: DW_TAG_reference_type, baseType: !334, size: 64)
!350 = !DISubprogram(name: "_M_reset", linkageName: "_ZNSt15_Rb_tree_header8_M_resetEv", scope: !334, file: !13, line: 206, type: !339, scopeLine: 206, flags: DIFlagPrototyped, spFlags: 0)
!351 = !DISubprogram(name: "_Rb_tree_impl", scope: !28, file: !13, line: 667, type: !352, scopeLine: 667, flags: DIFlagPrototyped, spFlags: 0)
!352 = !DISubroutineType(types: !353)
!353 = !{null, !354}
!354 = !DIDerivedType(tag: DW_TAG_pointer_type, baseType: !28, size: 64, flags: DIFlagArtificial | DIFlagObjectPointer)
!355 = !DISubprogram(name: "_Rb_tree_impl", scope: !28, file: !13, line: 674, type: !356, scopeLine: 674, flags: DIFlagPrototyped, spFlags: 0)
!356 = !DISubroutineType(types: !357)
!357 = !{null, !354, !358}
!358 = !DIDerivedType(tag: DW_TAG_reference_type, baseType: !359, size: 64)
!359 = !DIDerivedType(tag: DW_TAG_const_type, baseType: !28)
!360 = !DISubprogram(name: "_Rb_tree_impl", scope: !28, file: !13, line: 685, type: !361, scopeLine: 685, flags: DIFlagPrototyped, spFlags: 0)
!361 = !DISubroutineType(types: !362)
!362 = !{null, !354, !363}
!363 = !DIDerivedType(tag: DW_TAG_rvalue_reference_type, baseType: !28, size: 64)
!364 = !DISubprogram(name: "_Rb_tree_impl", scope: !28, file: !13, line: 690, type: !365, scopeLine: 690, flags: DIFlagExplicit | DIFlagPrototyped, spFlags: 0)
!365 = !DISubroutineType(types: !366)
!366 = !{null, !354, !367}
!367 = !DIDerivedType(tag: DW_TAG_rvalue_reference_type, baseType: !31, size: 64)
!368 = !DISubprogram(name: "_Rb_tree_impl", scope: !28, file: !13, line: 694, type: !369, scopeLine: 694, flags: DIFlagPrototyped, spFlags: 0)
!369 = !DISubroutineType(types: !370)
!370 = !{null, !354, !363, !367}
!371 = !DISubprogram(name: "_Rb_tree_impl", scope: !28, file: !13, line: 700, type: !372, scopeLine: 700, flags: DIFlagPrototyped, spFlags: 0)
!372 = !DISubroutineType(types: !373)
!373 = !{null, !354, !321, !367}
!374 = !{!332, !375}
!375 = !DITemplateValueParameter(type: !96, value: i8 1)
!376 = !DISubprogram(name: "_M_get_Node_allocator", linkageName: "_ZNSt8_Rb_treeINSt7__cxx1112basic_stringIcSt11char_traitsIcESaIcEEESt4pairIKS5_PSt6vectorIS5_SaIS5_EEESt10_Select1stISC_ESt4lessIS5_ESaISC_EE21_M_get_Node_allocatorEv", scope: !25, file: !13, line: 547, type: !377, scopeLine: 547, flags: DIFlagPublic | DIFlagPrototyped, spFlags: 0)
!377 = !DISubroutineType(types: !378)
!378 = !{!379, !380}
!379 = !DIDerivedType(tag: DW_TAG_reference_type, baseType: !31, size: 64)
!380 = !DIDerivedType(tag: DW_TAG_pointer_type, baseType: !25, size: 64, flags: DIFlagArtificial | DIFlagObjectPointer)
!381 = !DISubprogram(name: "_M_get_Node_allocator", linkageName: "_ZNKSt8_Rb_treeINSt7__cxx1112basic_stringIcSt11char_traitsIcESaIcEEESt4pairIKS5_PSt6vectorIS5_SaIS5_EEESt10_Select1stISC_ESt4lessIS5_ESaISC_EE21_M_get_Node_allocatorEv", scope: !25, file: !13, line: 551, type: !382, scopeLine: 551, flags: DIFlagPublic | DIFlagPrototyped, spFlags: 0)
!382 = !DISubroutineType(types: !383)
!383 = !{!384, !386}
!384 = !DIDerivedType(tag: DW_TAG_reference_type, baseType: !385, size: 64)
!385 = !DIDerivedType(tag: DW_TAG_const_type, baseType: !31)
!386 = !DIDerivedType(tag: DW_TAG_pointer_type, baseType: !387, size: 64, flags: DIFlagArtificial | DIFlagObjectPointer)
!387 = !DIDerivedType(tag: DW_TAG_const_type, baseType: !25)
!388 = !DISubprogram(name: "get_allocator", linkageName: "_ZNKSt8_Rb_treeINSt7__cxx1112basic_stringIcSt11char_traitsIcESaIcEEESt4pairIKS5_PSt6vectorIS5_SaIS5_EEESt10_Select1stISC_ESt4lessIS5_ESaISC_EE13get_allocatorEv", scope: !25, file: !13, line: 555, type: !389, scopeLine: 555, flags: DIFlagPublic | DIFlagPrototyped, spFlags: 0)
!389 = !DISubroutineType(types: !390)
!390 = !{!391, !386}
!391 = !DIDerivedType(tag: DW_TAG_typedef, name: "allocator_type", scope: !25, file: !13, line: 544, baseType: !119, flags: DIFlagPublic)
!392 = !DISubprogram(name: "_M_get_node", linkageName: "_ZNSt8_Rb_treeINSt7__cxx1112basic_stringIcSt11char_traitsIcESaIcEEESt4pairIKS5_PSt6vectorIS5_SaIS5_EEESt10_Select1stISC_ESt4lessIS5_ESaISC_EE11_M_get_nodeEv", scope: !25, file: !13, line: 560, type: !393, scopeLine: 560, flags: DIFlagProtected | DIFlagPrototyped, spFlags: 0)
!393 = !DISubroutineType(types: !394)
!394 = !{!395, !380}
!395 = !DIDerivedType(tag: DW_TAG_typedef, name: "_Link_type", scope: !25, file: !13, line: 435, baseType: !257, flags: DIFlagProtected)
!396 = !DISubprogram(name: "_M_put_node", linkageName: "_ZNSt8_Rb_treeINSt7__cxx1112basic_stringIcSt11char_traitsIcESaIcEEESt4pairIKS5_PSt6vectorIS5_SaIS5_EEESt10_Select1stISC_ESt4lessIS5_ESaISC_EE11_M_put_nodeEPSt13_Rb_tree_nodeISC_E", scope: !25, file: !13, line: 564, type: !397, scopeLine: 564, flags: DIFlagProtected | DIFlagPrototyped, spFlags: 0)
!397 = !DISubroutineType(types: !398)
!398 = !{null, !380, !395}
!399 = !DISubprogram(name: "_M_destroy_node", linkageName: "_ZNSt8_Rb_treeINSt7__cxx1112basic_stringIcSt11char_traitsIcESaIcEEESt4pairIKS5_PSt6vectorIS5_SaIS5_EEESt10_Select1stISC_ESt4lessIS5_ESaISC_EE15_M_destroy_nodeEPSt13_Rb_tree_nodeISC_E", scope: !25, file: !13, line: 618, type: !397, scopeLine: 618, flags: DIFlagProtected | DIFlagPrototyped, spFlags: 0)
!400 = !DISubprogram(name: "_M_drop_node", linkageName: "_ZNSt8_Rb_treeINSt7__cxx1112basic_stringIcSt11char_traitsIcESaIcEEESt4pairIKS5_PSt6vectorIS5_SaIS5_EEESt10_Select1stISC_ESt4lessIS5_ESaISC_EE12_M_drop_nodeEPSt13_Rb_tree_nodeISC_E", scope: !25, file: !13, line: 629, type: !397, scopeLine: 629, flags: DIFlagProtected | DIFlagPrototyped, spFlags: 0)
!401 = !DISubprogram(name: "_M_root", linkageName: "_ZNSt8_Rb_treeINSt7__cxx1112basic_stringIcSt11char_traitsIcESaIcEEESt4pairIKS5_PSt6vectorIS5_SaIS5_EEESt10_Select1stISC_ESt4lessIS5_ESaISC_EE7_M_rootEv", scope: !25, file: !13, line: 710, type: !402, scopeLine: 710, flags: DIFlagProtected | DIFlagPrototyped, spFlags: 0)
!402 = !DISubroutineType(types: !403)
!403 = !{!404, !380}
!404 = !DIDerivedType(tag: DW_TAG_reference_type, baseType: !405, size: 64)
!405 = !DIDerivedType(tag: DW_TAG_typedef, name: "_Base_ptr", file: !13, line: 433, baseType: !173, flags: DIFlagProtected)
!406 = !DISubprogram(name: "_M_root", linkageName: "_ZNKSt8_Rb_treeINSt7__cxx1112basic_stringIcSt11char_traitsIcESaIcEEESt4pairIKS5_PSt6vectorIS5_SaIS5_EEESt10_Select1stISC_ESt4lessIS5_ESaISC_EE7_M_rootEv", scope: !25, file: !13, line: 714, type: !407, scopeLine: 714, flags: DIFlagProtected | DIFlagPrototyped, spFlags: 0)
!407 = !DISubroutineType(types: !408)
!408 = !{!409, !386}
!409 = !DIDerivedType(tag: DW_TAG_typedef, name: "_Const_Base_ptr", file: !13, line: 434, baseType: !183, flags: DIFlagProtected)
!410 = !DISubprogram(name: "_M_leftmost", linkageName: "_ZNSt8_Rb_treeINSt7__cxx1112basic_stringIcSt11char_traitsIcESaIcEEESt4pairIKS5_PSt6vectorIS5_SaIS5_EEESt10_Select1stISC_ESt4lessIS5_ESaISC_EE11_M_leftmostEv", scope: !25, file: !13, line: 718, type: !402, scopeLine: 718, flags: DIFlagProtected | DIFlagPrototyped, spFlags: 0)
!411 = !DISubprogram(name: "_M_leftmost", linkageName: "_ZNKSt8_Rb_treeINSt7__cxx1112basic_stringIcSt11char_traitsIcESaIcEEESt4pairIKS5_PSt6vectorIS5_SaIS5_EEESt10_Select1stISC_ESt4lessIS5_ESaISC_EE11_M_leftmostEv", scope: !25, file: !13, line: 722, type: !407, scopeLine: 722, flags: DIFlagProtected | DIFlagPrototyped, spFlags: 0)
!412 = !DISubprogram(name: "_M_rightmost", linkageName: "_ZNSt8_Rb_treeINSt7__cxx1112basic_stringIcSt11char_traitsIcESaIcEEESt4pairIKS5_PSt6vectorIS5_SaIS5_EEESt10_Select1stISC_ESt4lessIS5_ESaISC_EE12_M_rightmostEv", scope: !25, file: !13, line: 726, type: !402, scopeLine: 726, flags: DIFlagProtected | DIFlagPrototyped, spFlags: 0)
!413 = !DISubprogram(name: "_M_rightmost", linkageName: "_ZNKSt8_Rb_treeINSt7__cxx1112basic_stringIcSt11char_traitsIcESaIcEEESt4pairIKS5_PSt6vectorIS5_SaIS5_EEESt10_Select1stISC_ESt4lessIS5_ESaISC_EE12_M_rightmostEv", scope: !25, file: !13, line: 730, type: !407, scopeLine: 730, flags: DIFlagProtected | DIFlagPrototyped, spFlags: 0)
!414 = !DISubprogram(name: "_M_mbegin", linkageName: "_ZNKSt8_Rb_treeINSt7__cxx1112basic_stringIcSt11char_traitsIcESaIcEEESt4pairIKS5_PSt6vectorIS5_SaIS5_EEESt10_Select1stISC_ESt4lessIS5_ESaISC_EE9_M_mbeginEv", scope: !25, file: !13, line: 734, type: !415, scopeLine: 734, flags: DIFlagProtected | DIFlagPrototyped, spFlags: 0)
!415 = !DISubroutineType(types: !416)
!416 = !{!395, !386}
!417 = !DISubprogram(name: "_M_begin", linkageName: "_ZNSt8_Rb_treeINSt7__cxx1112basic_stringIcSt11char_traitsIcESaIcEEESt4pairIKS5_PSt6vectorIS5_SaIS5_EEESt10_Select1stISC_ESt4lessIS5_ESaISC_EE8_M_beginEv", scope: !25, file: !13, line: 738, type: !393, scopeLine: 738, flags: DIFlagProtected | DIFlagPrototyped, spFlags: 0)
!418 = !DISubprogram(name: "_M_begin", linkageName: "_ZNKSt8_Rb_treeINSt7__cxx1112basic_stringIcSt11char_traitsIcESaIcEEESt4pairIKS5_PSt6vectorIS5_SaIS5_EEESt10_Select1stISC_ESt4lessIS5_ESaISC_EE8_M_beginEv", scope: !25, file: !13, line: 742, type: !419, scopeLine: 742, flags: DIFlagProtected | DIFlagPrototyped, spFlags: 0)
!419 = !DISubroutineType(types: !420)
!420 = !{!421, !386}
!421 = !DIDerivedType(tag: DW_TAG_typedef, name: "_Const_Link_type", scope: !25, file: !13, line: 436, baseType: !265, flags: DIFlagProtected)
!422 = !DISubprogram(name: "_M_end", linkageName: "_ZNSt8_Rb_treeINSt7__cxx1112basic_stringIcSt11char_traitsIcESaIcEEESt4pairIKS5_PSt6vectorIS5_SaIS5_EEESt10_Select1stISC_ESt4lessIS5_ESaISC_EE6_M_endEv", scope: !25, file: !13, line: 749, type: !423, scopeLine: 749, flags: DIFlagProtected | DIFlagPrototyped, spFlags: 0)
!423 = !DISubroutineType(types: !424)
!424 = !{!405, !380}
!425 = !DISubprogram(name: "_M_end", linkageName: "_ZNKSt8_Rb_treeINSt7__cxx1112basic_stringIcSt11char_traitsIcESaIcEEESt4pairIKS5_PSt6vectorIS5_SaIS5_EEESt10_Select1stISC_ESt4lessIS5_ESaISC_EE6_M_endEv", scope: !25, file: !13, line: 753, type: !407, scopeLine: 753, flags: DIFlagProtected | DIFlagPrototyped, spFlags: 0)
!426 = !DISubprogram(name: "_S_key", linkageName: "_ZNSt8_Rb_treeINSt7__cxx1112basic_stringIcSt11char_traitsIcESaIcEEESt4pairIKS5_PSt6vectorIS5_SaIS5_EEESt10_Select1stISC_ESt4lessIS5_ESaISC_EE6_S_keyEPKSt13_Rb_tree_nodeISC_E", scope: !25, file: !13, line: 757, type: !427, scopeLine: 757, flags: DIFlagProtected | DIFlagPrototyped | DIFlagStaticMember, spFlags: 0)
!427 = !DISubroutineType(types: !428)
!428 = !{!311, !421}
!429 = !DISubprogram(name: "_S_left", linkageName: "_ZNSt8_Rb_treeINSt7__cxx1112basic_stringIcSt11char_traitsIcESaIcEEESt4pairIKS5_PSt6vectorIS5_SaIS5_EEESt10_Select1stISC_ESt4lessIS5_ESaISC_EE7_S_leftEPSt18_Rb_tree_node_base", scope: !25, file: !13, line: 779, type: !430, scopeLine: 779, flags: DIFlagProtected | DIFlagPrototyped | DIFlagStaticMember, spFlags: 0)
!430 = !DISubroutineType(types: !431)
!431 = !{!395, !405}
!432 = !DISubprogram(name: "_S_left", linkageName: "_ZNSt8_Rb_treeINSt7__cxx1112basic_stringIcSt11char_traitsIcESaIcEEESt4pairIKS5_PSt6vectorIS5_SaIS5_EEESt10_Select1stISC_ESt4lessIS5_ESaISC_EE7_S_leftEPKSt18_Rb_tree_node_base", scope: !25, file: !13, line: 783, type: !433, scopeLine: 783, flags: DIFlagProtected | DIFlagPrototyped | DIFlagStaticMember, spFlags: 0)
!433 = !DISubroutineType(types: !434)
!434 = !{!421, !409}
!435 = !DISubprogram(name: "_S_right", linkageName: "_ZNSt8_Rb_treeINSt7__cxx1112basic_stringIcSt11char_traitsIcESaIcEEESt4pairIKS5_PSt6vectorIS5_SaIS5_EEESt10_Select1stISC_ESt4lessIS5_ESaISC_EE8_S_rightEPSt18_Rb_tree_node_base", scope: !25, file: !13, line: 787, type: !430, scopeLine: 787, flags: DIFlagProtected | DIFlagPrototyped | DIFlagStaticMember, spFlags: 0)
!436 = !DISubprogram(name: "_S_right", linkageName: "_ZNSt8_Rb_treeINSt7__cxx1112basic_stringIcSt11char_traitsIcESaIcEEESt4pairIKS5_PSt6vectorIS5_SaIS5_EEESt10_Select1stISC_ESt4lessIS5_ESaISC_EE8_S_rightEPKSt18_Rb_tree_node_base", scope: !25, file: !13, line: 791, type: !433, scopeLine: 791, flags: DIFlagProtected | DIFlagPrototyped | DIFlagStaticMember, spFlags: 0)
!437 = !DISubprogram(name: "_S_key", linkageName: "_ZNSt8_Rb_treeINSt7__cxx1112basic_stringIcSt11char_traitsIcESaIcEEESt4pairIKS5_PSt6vectorIS5_SaIS5_EEESt10_Select1stISC_ESt4lessIS5_ESaISC_EE6_S_keyEPKSt18_Rb_tree_node_base", scope: !25, file: !13, line: 795, type: !438, scopeLine: 795, flags: DIFlagProtected | DIFlagPrototyped | DIFlagStaticMember, spFlags: 0)
!438 = !DISubroutineType(types: !439)
!439 = !{!311, !409}
!440 = !DISubprogram(name: "_S_minimum", linkageName: "_ZNSt8_Rb_treeINSt7__cxx1112basic_stringIcSt11char_traitsIcESaIcEEESt4pairIKS5_PSt6vectorIS5_SaIS5_EEESt10_Select1stISC_ESt4lessIS5_ESaISC_EE10_S_minimumEPSt18_Rb_tree_node_base", scope: !25, file: !13, line: 799, type: !441, scopeLine: 799, flags: DIFlagProtected | DIFlagPrototyped | DIFlagStaticMember, spFlags: 0)
!441 = !DISubroutineType(types: !442)
!442 = !{!443, !405}
!443 = !DIDerivedType(tag: DW_TAG_typedef, name: "_Base_ptr", scope: !25, file: !13, line: 433, baseType: !173, flags: DIFlagProtected)
!444 = !DISubprogram(name: "_S_minimum", linkageName: "_ZNSt8_Rb_treeINSt7__cxx1112basic_stringIcSt11char_traitsIcESaIcEEESt4pairIKS5_PSt6vectorIS5_SaIS5_EEESt10_Select1stISC_ESt4lessIS5_ESaISC_EE10_S_minimumEPKSt18_Rb_tree_node_base", scope: !25, file: !13, line: 803, type: !445, scopeLine: 803, flags: DIFlagProtected | DIFlagPrototyped | DIFlagStaticMember, spFlags: 0)
!445 = !DISubroutineType(types: !446)
!446 = !{!447, !409}
!447 = !DIDerivedType(tag: DW_TAG_typedef, name: "_Const_Base_ptr", scope: !25, file: !13, line: 434, baseType: !183, flags: DIFlagProtected)
!448 = !DISubprogram(name: "_S_maximum", linkageName: "_ZNSt8_Rb_treeINSt7__cxx1112basic_stringIcSt11char_traitsIcESaIcEEESt4pairIKS5_PSt6vectorIS5_SaIS5_EEESt10_Select1stISC_ESt4lessIS5_ESaISC_EE10_S_maximumEPSt18_Rb_tree_node_base", scope: !25, file: !13, line: 807, type: !441, scopeLine: 807, flags: DIFlagProtected | DIFlagPrototyped | DIFlagStaticMember, spFlags: 0)
!449 = !DISubprogram(name: "_S_maximum", linkageName: "_ZNSt8_Rb_treeINSt7__cxx1112basic_stringIcSt11char_traitsIcESaIcEEESt4pairIKS5_PSt6vectorIS5_SaIS5_EEESt10_Select1stISC_ESt4lessIS5_ESaISC_EE10_S_maximumEPKSt18_Rb_tree_node_base", scope: !25, file: !13, line: 811, type: !445, scopeLine: 811, flags: DIFlagProtected | DIFlagPrototyped | DIFlagStaticMember, spFlags: 0)
!450 = !DISubprogram(name: "_M_get_insert_unique_pos", linkageName: "_ZNSt8_Rb_treeINSt7__cxx1112basic_stringIcSt11char_traitsIcESaIcEEESt4pairIKS5_PSt6vectorIS5_SaIS5_EEESt10_Select1stISC_ESt4lessIS5_ESaISC_EE24_M_get_insert_unique_posERS7_", scope: !25, file: !13, line: 829, type: !451, scopeLine: 829, flags: DIFlagPublic | DIFlagPrototyped, spFlags: 0)
!451 = !DISubroutineType(types: !452)
!452 = !{!453, !380, !509}
!453 = distinct !DICompositeType(tag: DW_TAG_structure_type, name: "pair<std::_Rb_tree_node_base *, std::_Rb_tree_node_base *>", scope: !2, file: !48, line: 211, size: 128, flags: DIFlagTypePassByValue | DIFlagNonTrivial, elements: !454, templateParams: !506, identifier: "_ZTSSt4pairIPSt18_Rb_tree_node_baseS1_E")
!454 = !{!455, !475, !476, !477, !483, !487, !496, !503}
!455 = !DIDerivedType(tag: DW_TAG_inheritance, scope: !453, baseType: !456, flags: DIFlagPrivate, extraData: i32 0)
!456 = distinct !DICompositeType(tag: DW_TAG_class_type, name: "__pair_base<std::_Rb_tree_node_base *, std::_Rb_tree_node_base *>", scope: !2, file: !48, line: 189, size: 8, flags: DIFlagTypePassByValue, elements: !457, templateParams: !472, identifier: "_ZTSSt11__pair_baseIPSt18_Rb_tree_node_baseS1_E")
!457 = !{!458, !462, !463, !468}
!458 = !DISubprogram(name: "__pair_base", scope: !456, file: !48, line: 193, type: !459, scopeLine: 193, flags: DIFlagPrototyped, spFlags: 0)
!459 = !DISubroutineType(types: !460)
!460 = !{null, !461}
!461 = !DIDerivedType(tag: DW_TAG_pointer_type, baseType: !456, size: 64, flags: DIFlagArtificial | DIFlagObjectPointer)
!462 = !DISubprogram(name: "~__pair_base", scope: !456, file: !48, line: 194, type: !459, scopeLine: 194, flags: DIFlagPrototyped, spFlags: 0)
!463 = !DISubprogram(name: "__pair_base", scope: !456, file: !48, line: 195, type: !464, scopeLine: 195, flags: DIFlagPrototyped, spFlags: 0)
!464 = !DISubroutineType(types: !465)
!465 = !{null, !461, !466}
!466 = !DIDerivedType(tag: DW_TAG_reference_type, baseType: !467, size: 64)
!467 = !DIDerivedType(tag: DW_TAG_const_type, baseType: !456)
!468 = !DISubprogram(name: "operator=", linkageName: "_ZNSt11__pair_baseIPSt18_Rb_tree_node_baseS1_EaSERKS2_", scope: !456, file: !48, line: 196, type: !469, scopeLine: 196, flags: DIFlagPrototyped, spFlags: DISPFlagDeleted)
!469 = !DISubroutineType(types: !470)
!470 = !{!471, !461, !466}
!471 = !DIDerivedType(tag: DW_TAG_reference_type, baseType: !456, size: 64)
!472 = !{!473, !474}
!473 = !DITemplateTypeParameter(name: "_U1", type: !173)
!474 = !DITemplateTypeParameter(name: "_U2", type: !173)
!475 = !DIDerivedType(tag: DW_TAG_member, name: "first", scope: !453, file: !48, line: 217, baseType: !173, size: 64)
!476 = !DIDerivedType(tag: DW_TAG_member, name: "second", scope: !453, file: !48, line: 218, baseType: !173, size: 64, offset: 64)
!477 = !DISubprogram(name: "pair", scope: !453, file: !48, line: 314, type: !478, scopeLine: 314, flags: DIFlagPrototyped, spFlags: 0)
!478 = !DISubroutineType(types: !479)
!479 = !{null, !480, !481}
!480 = !DIDerivedType(tag: DW_TAG_pointer_type, baseType: !453, size: 64, flags: DIFlagArtificial | DIFlagObjectPointer)
!481 = !DIDerivedType(tag: DW_TAG_reference_type, baseType: !482, size: 64)
!482 = !DIDerivedType(tag: DW_TAG_const_type, baseType: !453)
!483 = !DISubprogram(name: "pair", scope: !453, file: !48, line: 315, type: !484, scopeLine: 315, flags: DIFlagPrototyped, spFlags: 0)
!484 = !DISubroutineType(types: !485)
!485 = !{null, !480, !486}
!486 = !DIDerivedType(tag: DW_TAG_rvalue_reference_type, baseType: !453, size: 64)
!487 = !DISubprogram(name: "operator=", linkageName: "_ZNSt4pairIPSt18_Rb_tree_node_baseS1_EaSERKS2_", scope: !453, file: !48, line: 390, type: !488, scopeLine: 390, flags: DIFlagPrototyped, spFlags: 0)
!488 = !DISubroutineType(types: !489)
!489 = !{!490, !480, !491}
!490 = !DIDerivedType(tag: DW_TAG_reference_type, baseType: !453, size: 64)
!491 = !DIDerivedType(tag: DW_TAG_typedef, name: "type", scope: !492, file: !91, line: 2221, baseType: !481)
!492 = distinct !DICompositeType(tag: DW_TAG_structure_type, name: "conditional<true, const std::pair<std::_Rb_tree_node_base *, std::_Rb_tree_node_base *> &, const std::__nonesuch &>", scope: !2, file: !91, line: 2220, size: 8, flags: DIFlagTypePassByValue, elements: !93, templateParams: !493, identifier: "_ZTSSt11conditionalILb1ERKSt4pairIPSt18_Rb_tree_node_baseS2_ERKSt10__nonesuchE")
!493 = !{!494, !495, !98}
!494 = !DITemplateValueParameter(name: "_Cond", type: !96, value: i8 1)
!495 = !DITemplateTypeParameter(name: "_Iftrue", type: !481)
!496 = !DISubprogram(name: "operator=", linkageName: "_ZNSt4pairIPSt18_Rb_tree_node_baseS1_EaSEOS2_", scope: !453, file: !48, line: 401, type: !497, scopeLine: 401, flags: DIFlagPrototyped, spFlags: 0)
!497 = !DISubroutineType(types: !498)
!498 = !{!490, !480, !499}
!499 = !DIDerivedType(tag: DW_TAG_typedef, name: "type", scope: !500, file: !91, line: 2221, baseType: !486)
!500 = distinct !DICompositeType(tag: DW_TAG_structure_type, name: "conditional<true, std::pair<std::_Rb_tree_node_base *, std::_Rb_tree_node_base *> &&, std::__nonesuch &&>", scope: !2, file: !91, line: 2220, size: 8, flags: DIFlagTypePassByValue, elements: !93, templateParams: !501, identifier: "_ZTSSt11conditionalILb1EOSt4pairIPSt18_Rb_tree_node_baseS2_EOSt10__nonesuchE")
!501 = !{!494, !502, !109}
!502 = !DITemplateTypeParameter(name: "_Iftrue", type: !486)
!503 = !DISubprogram(name: "swap", linkageName: "_ZNSt4pairIPSt18_Rb_tree_node_baseS1_E4swapERS2_", scope: !453, file: !48, line: 439, type: !504, scopeLine: 439, flags: DIFlagPrototyped, spFlags: 0)
!504 = !DISubroutineType(types: !505)
!505 = !{null, !480, !490}
!506 = !{!507, !508}
!507 = !DITemplateTypeParameter(name: "_T1", type: !173)
!508 = !DITemplateTypeParameter(name: "_T2", type: !173)
!509 = !DIDerivedType(tag: DW_TAG_reference_type, baseType: !510, size: 64)
!510 = !DIDerivedType(tag: DW_TAG_const_type, baseType: !511)
!511 = !DIDerivedType(tag: DW_TAG_typedef, name: "key_type", scope: !25, file: !13, line: 536, baseType: !21, flags: DIFlagPublic)
!512 = !DISubprogram(name: "_M_get_insert_equal_pos", linkageName: "_ZNSt8_Rb_treeINSt7__cxx1112basic_stringIcSt11char_traitsIcESaIcEEESt4pairIKS5_PSt6vectorIS5_SaIS5_EEESt10_Select1stISC_ESt4lessIS5_ESaISC_EE23_M_get_insert_equal_posERS7_", scope: !25, file: !13, line: 832, type: !451, scopeLine: 832, flags: DIFlagPublic | DIFlagPrototyped, spFlags: 0)
!513 = !DISubprogram(name: "_M_get_insert_hint_unique_pos", linkageName: "_ZNSt8_Rb_treeINSt7__cxx1112basic_stringIcSt11char_traitsIcESaIcEEESt4pairIKS5_PSt6vectorIS5_SaIS5_EEESt10_Select1stISC_ESt4lessIS5_ESaISC_EE29_M_get_insert_hint_unique_posESt23_Rb_tree_const_iteratorISC_ERS7_", scope: !25, file: !13, line: 835, type: !514, scopeLine: 835, flags: DIFlagPublic | DIFlagPrototyped, spFlags: 0)
!514 = !DISubroutineType(types: !515)
!515 = !{!453, !380, !24, !509}
!516 = !DISubprogram(name: "_M_get_insert_hint_equal_pos", linkageName: "_ZNSt8_Rb_treeINSt7__cxx1112basic_stringIcSt11char_traitsIcESaIcEEESt4pairIKS5_PSt6vectorIS5_SaIS5_EEESt10_Select1stISC_ESt4lessIS5_ESaISC_EE28_M_get_insert_hint_equal_posESt23_Rb_tree_const_iteratorISC_ERS7_", scope: !25, file: !13, line: 839, type: !514, scopeLine: 839, flags: DIFlagPublic | DIFlagPrototyped, spFlags: 0)
!517 = !DISubprogram(name: "_M_insert_node", linkageName: "_ZNSt8_Rb_treeINSt7__cxx1112basic_stringIcSt11char_traitsIcESaIcEEESt4pairIKS5_PSt6vectorIS5_SaIS5_EEESt10_Select1stISC_ESt4lessIS5_ESaISC_EE14_M_insert_nodeEPSt18_Rb_tree_node_baseSK_PSt13_Rb_tree_nodeISC_E", scope: !25, file: !13, line: 849, type: !518, scopeLine: 849, flags: DIFlagPrototyped, spFlags: 0)
!518 = !DISubroutineType(types: !519)
!519 = !{!520, !380, !405, !405, !395}
!520 = !DIDerivedType(tag: DW_TAG_typedef, name: "iterator", scope: !25, file: !13, line: 815, baseType: !521, flags: DIFlagPublic)
!521 = !DICompositeType(tag: DW_TAG_structure_type, name: "_Rb_tree_iterator<std::pair<const std::__cxx11::basic_string<char, std::char_traits<char>, std::allocator<char> >, std::vector<std::__cxx11::basic_string<char, std::char_traits<char>, std::allocator<char> >, std::allocator<std::__cxx11::basic_string<char, std::char_traits<char>, std::allocator<char> > > > *> >", scope: !2, file: !13, line: 256, size: 64, flags: DIFlagFwdDecl | DIFlagNonTrivial, identifier: "_ZTSSt17_Rb_tree_iteratorISt4pairIKNSt7__cxx1112basic_stringIcSt11char_traitsIcESaIcEEEPSt6vectorIS6_SaIS6_EEEE")
!522 = !DISubprogram(name: "_M_insert_lower_node", linkageName: "_ZNSt8_Rb_treeINSt7__cxx1112basic_stringIcSt11char_traitsIcESaIcEEESt4pairIKS5_PSt6vectorIS5_SaIS5_EEESt10_Select1stISC_ESt4lessIS5_ESaISC_EE20_M_insert_lower_nodeEPSt18_Rb_tree_node_basePSt13_Rb_tree_nodeISC_E", scope: !25, file: !13, line: 860, type: !523, scopeLine: 860, flags: DIFlagPrototyped, spFlags: 0)
!523 = !DISubroutineType(types: !524)
!524 = !{!520, !380, !405, !395}
!525 = !DISubprogram(name: "_M_insert_equal_lower_node", linkageName: "_ZNSt8_Rb_treeINSt7__cxx1112basic_stringIcSt11char_traitsIcESaIcEEESt4pairIKS5_PSt6vectorIS5_SaIS5_EEESt10_Select1stISC_ESt4lessIS5_ESaISC_EE26_M_insert_equal_lower_nodeEPSt13_Rb_tree_nodeISC_E", scope: !25, file: !13, line: 863, type: !526, scopeLine: 863, flags: DIFlagPrototyped, spFlags: 0)
!526 = !DISubroutineType(types: !527)
!527 = !{!520, !380, !395}
!528 = !DISubprogram(name: "_M_copy", linkageName: "_ZNSt8_Rb_treeINSt7__cxx1112basic_stringIcSt11char_traitsIcESaIcEEESt4pairIKS5_PSt6vectorIS5_SaIS5_EEESt10_Select1stISC_ESt4lessIS5_ESaISC_EE7_M_copyERKSI_", scope: !25, file: !13, line: 898, type: !529, scopeLine: 898, flags: DIFlagPrototyped, spFlags: 0)
!529 = !DISubroutineType(types: !530)
!530 = !{!395, !380, !531}
!531 = !DIDerivedType(tag: DW_TAG_reference_type, baseType: !387, size: 64)
!532 = !DISubprogram(name: "_M_erase", linkageName: "_ZNSt8_Rb_treeINSt7__cxx1112basic_stringIcSt11char_traitsIcESaIcEEESt4pairIKS5_PSt6vectorIS5_SaIS5_EEESt10_Select1stISC_ESt4lessIS5_ESaISC_EE8_M_eraseEPSt13_Rb_tree_nodeISC_E", scope: !25, file: !13, line: 905, type: !397, scopeLine: 905, flags: DIFlagPrototyped, spFlags: 0)
!533 = !DISubprogram(name: "_M_lower_bound", linkageName: "_ZNSt8_Rb_treeINSt7__cxx1112basic_stringIcSt11char_traitsIcESaIcEEESt4pairIKS5_PSt6vectorIS5_SaIS5_EEESt10_Select1stISC_ESt4lessIS5_ESaISC_EE14_M_lower_boundEPSt13_Rb_tree_nodeISC_EPSt18_Rb_tree_node_baseRS7_", scope: !25, file: !13, line: 908, type: !534, scopeLine: 908, flags: DIFlagPrototyped, spFlags: 0)
!534 = !DISubroutineType(types: !535)
!535 = !{!520, !380, !395, !405, !311}
!536 = !DISubprogram(name: "_M_lower_bound", linkageName: "_ZNKSt8_Rb_treeINSt7__cxx1112basic_stringIcSt11char_traitsIcESaIcEEESt4pairIKS5_PSt6vectorIS5_SaIS5_EEESt10_Select1stISC_ESt4lessIS5_ESaISC_EE14_M_lower_boundEPKSt13_Rb_tree_nodeISC_EPKSt18_Rb_tree_node_baseRS7_", scope: !25, file: !13, line: 912, type: !537, scopeLine: 912, flags: DIFlagPrototyped, spFlags: 0)
!537 = !DISubroutineType(types: !538)
!538 = !{!24, !386, !421, !409, !311}
!539 = !DISubprogram(name: "_M_upper_bound", linkageName: "_ZNSt8_Rb_treeINSt7__cxx1112basic_stringIcSt11char_traitsIcESaIcEEESt4pairIKS5_PSt6vectorIS5_SaIS5_EEESt10_Select1stISC_ESt4lessIS5_ESaISC_EE14_M_upper_boundEPSt13_Rb_tree_nodeISC_EPSt18_Rb_tree_node_baseRS7_", scope: !25, file: !13, line: 916, type: !534, scopeLine: 916, flags: DIFlagPrototyped, spFlags: 0)
!540 = !DISubprogram(name: "_M_upper_bound", linkageName: "_ZNKSt8_Rb_treeINSt7__cxx1112basic_stringIcSt11char_traitsIcESaIcEEESt4pairIKS5_PSt6vectorIS5_SaIS5_EEESt10_Select1stISC_ESt4lessIS5_ESaISC_EE14_M_upper_boundEPKSt13_Rb_tree_nodeISC_EPKSt18_Rb_tree_node_baseRS7_", scope: !25, file: !13, line: 920, type: !537, scopeLine: 920, flags: DIFlagPrototyped, spFlags: 0)
!541 = !DISubprogram(name: "_Rb_tree", scope: !25, file: !13, line: 928, type: !542, scopeLine: 928, flags: DIFlagPublic | DIFlagPrototyped, spFlags: 0)
!542 = !DISubroutineType(types: !543)
!543 = !{null, !380}
!544 = !DISubprogram(name: "_Rb_tree", scope: !25, file: !13, line: 931, type: !545, scopeLine: 931, flags: DIFlagPublic | DIFlagPrototyped, spFlags: 0)
!545 = !DISubroutineType(types: !546)
!546 = !{null, !380, !321, !547}
!547 = !DIDerivedType(tag: DW_TAG_reference_type, baseType: !548, size: 64)
!548 = !DIDerivedType(tag: DW_TAG_const_type, baseType: !391)
!549 = !DISubprogram(name: "_Rb_tree", scope: !25, file: !13, line: 935, type: !550, scopeLine: 935, flags: DIFlagPublic | DIFlagPrototyped, spFlags: 0)
!550 = !DISubroutineType(types: !551)
!551 = !{null, !380, !531}
!552 = !DISubprogram(name: "_Rb_tree", scope: !25, file: !13, line: 943, type: !553, scopeLine: 943, flags: DIFlagPublic | DIFlagPrototyped, spFlags: 0)
!553 = !DISubroutineType(types: !554)
!554 = !{null, !380, !547}
!555 = !DISubprogram(name: "_Rb_tree", scope: !25, file: !13, line: 947, type: !556, scopeLine: 947, flags: DIFlagPublic | DIFlagPrototyped, spFlags: 0)
!556 = !DISubroutineType(types: !557)
!557 = !{null, !380, !531, !547}
!558 = !DISubprogram(name: "_Rb_tree", scope: !25, file: !13, line: 954, type: !559, scopeLine: 954, flags: DIFlagPublic | DIFlagPrototyped, spFlags: 0)
!559 = !DISubroutineType(types: !560)
!560 = !{null, !380, !561}
!561 = !DIDerivedType(tag: DW_TAG_rvalue_reference_type, baseType: !25, size: 64)
!562 = !DISubprogram(name: "_Rb_tree", scope: !25, file: !13, line: 956, type: !563, scopeLine: 956, flags: DIFlagPublic | DIFlagPrototyped, spFlags: 0)
!563 = !DISubroutineType(types: !564)
!564 = !{null, !380, !561, !547}
!565 = !DISubprogram(name: "_Rb_tree", scope: !25, file: !13, line: 961, type: !566, scopeLine: 961, flags: DIFlagPrototyped, spFlags: 0)
!566 = !DISubroutineType(types: !567)
!567 = !{null, !380, !561, !367, !568}
!568 = !DIDerivedType(tag: DW_TAG_typedef, name: "true_type", scope: !2, file: !91, line: 83, baseType: !569)
!569 = distinct !DICompositeType(tag: DW_TAG_structure_type, name: "integral_constant<bool, true>", scope: !2, file: !91, line: 65, size: 8, flags: DIFlagTypePassByValue, elements: !570, templateParams: !579, identifier: "_ZTSSt17integral_constantIbLb1EE")
!570 = !{!571, !573}
!571 = !DIDerivedType(tag: DW_TAG_member, name: "value", scope: !569, file: !91, line: 67, baseType: !572, flags: DIFlagStaticMember, extraData: i1 true)
!572 = !DIDerivedType(tag: DW_TAG_const_type, baseType: !96)
!573 = !DISubprogram(name: "operator bool", linkageName: "_ZNKSt17integral_constantIbLb1EEcvbEv", scope: !569, file: !91, line: 70, type: !574, scopeLine: 70, flags: DIFlagPrototyped, spFlags: 0)
!574 = !DISubroutineType(types: !575)
!575 = !{!576, !577}
!576 = !DIDerivedType(tag: DW_TAG_typedef, name: "value_type", scope: !569, file: !91, line: 68, baseType: !96)
!577 = !DIDerivedType(tag: DW_TAG_pointer_type, baseType: !578, size: 64, flags: DIFlagArtificial | DIFlagObjectPointer)
!578 = !DIDerivedType(tag: DW_TAG_const_type, baseType: !569)
!579 = !{!580, !581}
!580 = !DITemplateTypeParameter(name: "_Tp", type: !96)
!581 = !DITemplateValueParameter(name: "__v", type: !96, value: i8 1)
!582 = !DISubprogram(name: "_Rb_tree", scope: !25, file: !13, line: 966, type: !583, scopeLine: 966, flags: DIFlagPrototyped, spFlags: 0)
!583 = !DISubroutineType(types: !584)
!584 = !{null, !380, !561, !367, !585}
!585 = !DIDerivedType(tag: DW_TAG_typedef, name: "false_type", scope: !2, file: !91, line: 86, baseType: !586)
!586 = distinct !DICompositeType(tag: DW_TAG_structure_type, name: "integral_constant<bool, false>", scope: !2, file: !91, line: 65, size: 8, flags: DIFlagTypePassByValue, elements: !587, templateParams: !595, identifier: "_ZTSSt17integral_constantIbLb0EE")
!587 = !{!588, !589}
!588 = !DIDerivedType(tag: DW_TAG_member, name: "value", scope: !586, file: !91, line: 67, baseType: !572, flags: DIFlagStaticMember, extraData: i1 false)
!589 = !DISubprogram(name: "operator bool", linkageName: "_ZNKSt17integral_constantIbLb0EEcvbEv", scope: !586, file: !91, line: 70, type: !590, scopeLine: 70, flags: DIFlagPrototyped, spFlags: 0)
!590 = !DISubroutineType(types: !591)
!591 = !{!592, !593}
!592 = !DIDerivedType(tag: DW_TAG_typedef, name: "value_type", scope: !586, file: !91, line: 68, baseType: !96)
!593 = !DIDerivedType(tag: DW_TAG_pointer_type, baseType: !594, size: 64, flags: DIFlagArtificial | DIFlagObjectPointer)
!594 = !DIDerivedType(tag: DW_TAG_const_type, baseType: !586)
!595 = !{!580, !596}
!596 = !DITemplateValueParameter(name: "__v", type: !96, value: i8 0)
!597 = !DISubprogram(name: "_Rb_tree", scope: !25, file: !13, line: 974, type: !598, scopeLine: 974, flags: DIFlagPublic | DIFlagPrototyped, spFlags: 0)
!598 = !DISubroutineType(types: !599)
!599 = !{null, !380, !561, !367}
!600 = !DISubprogram(name: "~_Rb_tree", scope: !25, file: !13, line: 983, type: !542, scopeLine: 983, flags: DIFlagPublic | DIFlagPrototyped, spFlags: 0)
!601 = !DISubprogram(name: "operator=", linkageName: "_ZNSt8_Rb_treeINSt7__cxx1112basic_stringIcSt11char_traitsIcESaIcEEESt4pairIKS5_PSt6vectorIS5_SaIS5_EEESt10_Select1stISC_ESt4lessIS5_ESaISC_EEaSERKSI_", scope: !25, file: !13, line: 987, type: !602, scopeLine: 987, flags: DIFlagPublic | DIFlagPrototyped, spFlags: 0)
!602 = !DISubroutineType(types: !603)
!603 = !{!604, !380, !531}
!604 = !DIDerivedType(tag: DW_TAG_reference_type, baseType: !25, size: 64)
!605 = !DISubprogram(name: "key_comp", linkageName: "_ZNKSt8_Rb_treeINSt7__cxx1112basic_stringIcSt11char_traitsIcESaIcEEESt4pairIKS5_PSt6vectorIS5_SaIS5_EEESt10_Select1stISC_ESt4lessIS5_ESaISC_EE8key_compEv", scope: !25, file: !13, line: 991, type: !606, scopeLine: 991, flags: DIFlagPublic | DIFlagPrototyped, spFlags: 0)
!606 = !DISubroutineType(types: !607)
!607 = !{!297, !386}
!608 = !DISubprogram(name: "begin", linkageName: "_ZNSt8_Rb_treeINSt7__cxx1112basic_stringIcSt11char_traitsIcESaIcEEESt4pairIKS5_PSt6vectorIS5_SaIS5_EEESt10_Select1stISC_ESt4lessIS5_ESaISC_EE5beginEv", scope: !25, file: !13, line: 995, type: !609, scopeLine: 995, flags: DIFlagPublic | DIFlagPrototyped, spFlags: 0)
!609 = !DISubroutineType(types: !610)
!610 = !{!520, !380}
!611 = !DISubprogram(name: "begin", linkageName: "_ZNKSt8_Rb_treeINSt7__cxx1112basic_stringIcSt11char_traitsIcESaIcEEESt4pairIKS5_PSt6vectorIS5_SaIS5_EEESt10_Select1stISC_ESt4lessIS5_ESaISC_EE5beginEv", scope: !25, file: !13, line: 999, type: !612, scopeLine: 999, flags: DIFlagPublic | DIFlagPrototyped, spFlags: 0)
!612 = !DISubroutineType(types: !613)
!613 = !{!24, !386}
!614 = !DISubprogram(name: "end", linkageName: "_ZNSt8_Rb_treeINSt7__cxx1112basic_stringIcSt11char_traitsIcESaIcEEESt4pairIKS5_PSt6vectorIS5_SaIS5_EEESt10_Select1stISC_ESt4lessIS5_ESaISC_EE3endEv", scope: !25, file: !13, line: 1003, type: !609, scopeLine: 1003, flags: DIFlagPublic | DIFlagPrototyped, spFlags: 0)
!615 = !DISubprogram(name: "end", linkageName: "_ZNKSt8_Rb_treeINSt7__cxx1112basic_stringIcSt11char_traitsIcESaIcEEESt4pairIKS5_PSt6vectorIS5_SaIS5_EEESt10_Select1stISC_ESt4lessIS5_ESaISC_EE3endEv", scope: !25, file: !13, line: 1007, type: !612, scopeLine: 1007, flags: DIFlagPublic | DIFlagPrototyped, spFlags: 0)
!616 = !DISubprogram(name: "rbegin", linkageName: "_ZNSt8_Rb_treeINSt7__cxx1112basic_stringIcSt11char_traitsIcESaIcEEESt4pairIKS5_PSt6vectorIS5_SaIS5_EEESt10_Select1stISC_ESt4lessIS5_ESaISC_EE6rbeginEv", scope: !25, file: !13, line: 1011, type: !617, scopeLine: 1011, flags: DIFlagPublic | DIFlagPrototyped, spFlags: 0)
!617 = !DISubroutineType(types: !618)
!618 = !{!619, !380}
!619 = !DIDerivedType(tag: DW_TAG_typedef, name: "reverse_iterator", scope: !25, file: !13, line: 818, baseType: !620, flags: DIFlagPublic)
!620 = !DICompositeType(tag: DW_TAG_class_type, name: "reverse_iterator<std::_Rb_tree_iterator<std::pair<const std::__cxx11::basic_string<char, std::char_traits<char>, std::allocator<char> >, std::vector<std::__cxx11::basic_string<char, std::char_traits<char>, std::allocator<char> >, std::allocator<std::__cxx11::basic_string<char, std::char_traits<char>, std::allocator<char> > > > *> > >", scope: !2, file: !621, line: 128, flags: DIFlagFwdDecl | DIFlagNonTrivial, identifier: "_ZTSSt16reverse_iteratorISt17_Rb_tree_iteratorISt4pairIKNSt7__cxx1112basic_stringIcSt11char_traitsIcESaIcEEEPSt6vectorIS7_SaIS7_EEEEE")
!621 = !DIFile(filename: "/usr/lib/gcc/x86_64-linux-gnu/11/../../../../include/c++/11/bits/stl_iterator.h", directory: "", checksumkind: CSK_MD5, checksum: "adfbaa72dad2c93f2f61417c54c47efb")
!622 = !DISubprogram(name: "rbegin", linkageName: "_ZNKSt8_Rb_treeINSt7__cxx1112basic_stringIcSt11char_traitsIcESaIcEEESt4pairIKS5_PSt6vectorIS5_SaIS5_EEESt10_Select1stISC_ESt4lessIS5_ESaISC_EE6rbeginEv", scope: !25, file: !13, line: 1015, type: !623, scopeLine: 1015, flags: DIFlagPublic | DIFlagPrototyped, spFlags: 0)
!623 = !DISubroutineType(types: !624)
!624 = !{!625, !386}
!625 = !DIDerivedType(tag: DW_TAG_typedef, name: "const_reverse_iterator", scope: !25, file: !13, line: 819, baseType: !626, flags: DIFlagPublic)
!626 = !DICompositeType(tag: DW_TAG_class_type, name: "reverse_iterator<std::_Rb_tree_const_iterator<std::pair<const std::__cxx11::basic_string<char, std::char_traits<char>, std::allocator<char> >, std::vector<std::__cxx11::basic_string<char, std::char_traits<char>, std::allocator<char> >, std::allocator<std::__cxx11::basic_string<char, std::char_traits<char>, std::allocator<char> > > > *> > >", scope: !2, file: !621, line: 128, flags: DIFlagFwdDecl | DIFlagNonTrivial, identifier: "_ZTSSt16reverse_iteratorISt23_Rb_tree_const_iteratorISt4pairIKNSt7__cxx1112basic_stringIcSt11char_traitsIcESaIcEEEPSt6vectorIS7_SaIS7_EEEEE")
!627 = !DISubprogram(name: "rend", linkageName: "_ZNSt8_Rb_treeINSt7__cxx1112basic_stringIcSt11char_traitsIcESaIcEEESt4pairIKS5_PSt6vectorIS5_SaIS5_EEESt10_Select1stISC_ESt4lessIS5_ESaISC_EE4rendEv", scope: !25, file: !13, line: 1019, type: !617, scopeLine: 1019, flags: DIFlagPublic | DIFlagPrototyped, spFlags: 0)
!628 = !DISubprogram(name: "rend", linkageName: "_ZNKSt8_Rb_treeINSt7__cxx1112basic_stringIcSt11char_traitsIcESaIcEEESt4pairIKS5_PSt6vectorIS5_SaIS5_EEESt10_Select1stISC_ESt4lessIS5_ESaISC_EE4rendEv", scope: !25, file: !13, line: 1023, type: !623, scopeLine: 1023, flags: DIFlagPublic | DIFlagPrototyped, spFlags: 0)
!629 = !DISubprogram(name: "empty", linkageName: "_ZNKSt8_Rb_treeINSt7__cxx1112basic_stringIcSt11char_traitsIcESaIcEEESt4pairIKS5_PSt6vectorIS5_SaIS5_EEESt10_Select1stISC_ESt4lessIS5_ESaISC_EE5emptyEv", scope: !25, file: !13, line: 1027, type: !630, scopeLine: 1027, flags: DIFlagPublic | DIFlagPrototyped, spFlags: 0)
!630 = !DISubroutineType(types: !631)
!631 = !{!96, !386}
!632 = !DISubprogram(name: "size", linkageName: "_ZNKSt8_Rb_treeINSt7__cxx1112basic_stringIcSt11char_traitsIcESaIcEEESt4pairIKS5_PSt6vectorIS5_SaIS5_EEESt10_Select1stISC_ESt4lessIS5_ESaISC_EE4sizeEv", scope: !25, file: !13, line: 1031, type: !633, scopeLine: 1031, flags: DIFlagPublic | DIFlagPrototyped, spFlags: 0)
!633 = !DISubroutineType(types: !634)
!634 = !{!635, !386}
!635 = !DIDerivedType(tag: DW_TAG_typedef, name: "size_type", file: !13, line: 542, baseType: !122, flags: DIFlagPublic)
!636 = !DISubprogram(name: "max_size", linkageName: "_ZNKSt8_Rb_treeINSt7__cxx1112basic_stringIcSt11char_traitsIcESaIcEEESt4pairIKS5_PSt6vectorIS5_SaIS5_EEESt10_Select1stISC_ESt4lessIS5_ESaISC_EE8max_sizeEv", scope: !25, file: !13, line: 1035, type: !633, scopeLine: 1035, flags: DIFlagPublic | DIFlagPrototyped, spFlags: 0)
!637 = !DISubprogram(name: "swap", linkageName: "_ZNSt8_Rb_treeINSt7__cxx1112basic_stringIcSt11char_traitsIcESaIcEEESt4pairIKS5_PSt6vectorIS5_SaIS5_EEESt10_Select1stISC_ESt4lessIS5_ESaISC_EE4swapERSI_", scope: !25, file: !13, line: 1039, type: !638, scopeLine: 1039, flags: DIFlagPublic | DIFlagPrototyped, spFlags: 0)
!638 = !DISubroutineType(types: !639)
!639 = !{null, !380, !604}
!640 = !DISubprogram(name: "_M_erase_aux", linkageName: "_ZNSt8_Rb_treeINSt7__cxx1112basic_stringIcSt11char_traitsIcESaIcEEESt4pairIKS5_PSt6vectorIS5_SaIS5_EEESt10_Select1stISC_ESt4lessIS5_ESaISC_EE12_M_erase_auxESt23_Rb_tree_const_iteratorISC_E", scope: !25, file: !13, line: 1181, type: !641, scopeLine: 1181, flags: DIFlagPrototyped, spFlags: 0)
!641 = !DISubroutineType(types: !642)
!642 = !{null, !380, !24}
!643 = !DISubprogram(name: "_M_erase_aux", linkageName: "_ZNSt8_Rb_treeINSt7__cxx1112basic_stringIcSt11char_traitsIcESaIcEEESt4pairIKS5_PSt6vectorIS5_SaIS5_EEESt10_Select1stISC_ESt4lessIS5_ESaISC_EE12_M_erase_auxESt23_Rb_tree_const_iteratorISC_ESK_", scope: !25, file: !13, line: 1184, type: !644, scopeLine: 1184, flags: DIFlagPrototyped, spFlags: 0)
!644 = !DISubroutineType(types: !645)
!645 = !{null, !380, !24, !24}
!646 = !DISubprogram(name: "erase", linkageName: "_ZNSt8_Rb_treeINSt7__cxx1112basic_stringIcSt11char_traitsIcESaIcEEESt4pairIKS5_PSt6vectorIS5_SaIS5_EEESt10_Select1stISC_ESt4lessIS5_ESaISC_EE5eraseB5cxx11ESt23_Rb_tree_const_iteratorISC_E", scope: !25, file: !13, line: 1192, type: !647, scopeLine: 1192, flags: DIFlagPublic | DIFlagPrototyped, spFlags: 0)
!647 = !DISubroutineType(types: !648)
!648 = !{!520, !380, !24}
!649 = !DISubprogram(name: "erase", linkageName: "_ZNSt8_Rb_treeINSt7__cxx1112basic_stringIcSt11char_traitsIcESaIcEEESt4pairIKS5_PSt6vectorIS5_SaIS5_EEESt10_Select1stISC_ESt4lessIS5_ESaISC_EE5eraseB5cxx11ESt17_Rb_tree_iteratorISC_E", scope: !25, file: !13, line: 1204, type: !650, scopeLine: 1204, flags: DIFlagPublic | DIFlagPrototyped, spFlags: 0)
!650 = !DISubroutineType(types: !651)
!651 = !{!520, !380, !520}
!652 = !DISubprogram(name: "erase", linkageName: "_ZNSt8_Rb_treeINSt7__cxx1112basic_stringIcSt11char_traitsIcESaIcEEESt4pairIKS5_PSt6vectorIS5_SaIS5_EEESt10_Select1stISC_ESt4lessIS5_ESaISC_EE5eraseERS7_", scope: !25, file: !13, line: 1229, type: !653, scopeLine: 1229, flags: DIFlagPublic | DIFlagPrototyped, spFlags: 0)
!653 = !DISubroutineType(types: !654)
!654 = !{!655, !380, !509}
!655 = !DIDerivedType(tag: DW_TAG_typedef, name: "size_type", scope: !25, file: !13, line: 542, baseType: !122, flags: DIFlagPublic)
!656 = !DISubprogram(name: "erase", linkageName: "_ZNSt8_Rb_treeINSt7__cxx1112basic_stringIcSt11char_traitsIcESaIcEEESt4pairIKS5_PSt6vectorIS5_SaIS5_EEESt10_Select1stISC_ESt4lessIS5_ESaISC_EE5eraseB5cxx11ESt23_Rb_tree_const_iteratorISC_ESK_", scope: !25, file: !13, line: 1236, type: !657, scopeLine: 1236, flags: DIFlagPublic | DIFlagPrototyped, spFlags: 0)
!657 = !DISubroutineType(types: !658)
!658 = !{!520, !380, !24, !24}
!659 = !DISubprogram(name: "clear", linkageName: "_ZNSt8_Rb_treeINSt7__cxx1112basic_stringIcSt11char_traitsIcESaIcEEESt4pairIKS5_PSt6vectorIS5_SaIS5_EEESt10_Select1stISC_ESt4lessIS5_ESaISC_EE5clearEv", scope: !25, file: !13, line: 1252, type: !542, scopeLine: 1252, flags: DIFlagPublic | DIFlagPrototyped, spFlags: 0)
!660 = !DISubprogram(name: "find", linkageName: "_ZNSt8_Rb_treeINSt7__cxx1112basic_stringIcSt11char_traitsIcESaIcEEESt4pairIKS5_PSt6vectorIS5_SaIS5_EEESt10_Select1stISC_ESt4lessIS5_ESaISC_EE4findERS7_", scope: !25, file: !13, line: 1260, type: !661, scopeLine: 1260, flags: DIFlagPublic | DIFlagPrototyped, spFlags: 0)
!661 = !DISubroutineType(types: !662)
!662 = !{!520, !380, !509}
!663 = !DISubprogram(name: "find", linkageName: "_ZNKSt8_Rb_treeINSt7__cxx1112basic_stringIcSt11char_traitsIcESaIcEEESt4pairIKS5_PSt6vectorIS5_SaIS5_EEESt10_Select1stISC_ESt4lessIS5_ESaISC_EE4findERS7_", scope: !25, file: !13, line: 1263, type: !664, scopeLine: 1263, flags: DIFlagPublic | DIFlagPrototyped, spFlags: 0)
!664 = !DISubroutineType(types: !665)
!665 = !{!24, !386, !509}
!666 = !DISubprogram(name: "count", linkageName: "_ZNKSt8_Rb_treeINSt7__cxx1112basic_stringIcSt11char_traitsIcESaIcEEESt4pairIKS5_PSt6vectorIS5_SaIS5_EEESt10_Select1stISC_ESt4lessIS5_ESaISC_EE5countERS7_", scope: !25, file: !13, line: 1266, type: !667, scopeLine: 1266, flags: DIFlagPublic | DIFlagPrototyped, spFlags: 0)
!667 = !DISubroutineType(types: !668)
!668 = !{!655, !386, !509}
!669 = !DISubprogram(name: "lower_bound", linkageName: "_ZNSt8_Rb_treeINSt7__cxx1112basic_stringIcSt11char_traitsIcESaIcEEESt4pairIKS5_PSt6vectorIS5_SaIS5_EEESt10_Select1stISC_ESt4lessIS5_ESaISC_EE11lower_boundERS7_", scope: !25, file: !13, line: 1269, type: !661, scopeLine: 1269, flags: DIFlagPublic | DIFlagPrototyped, spFlags: 0)
!670 = !DISubprogram(name: "lower_bound", linkageName: "_ZNKSt8_Rb_treeINSt7__cxx1112basic_stringIcSt11char_traitsIcESaIcEEESt4pairIKS5_PSt6vectorIS5_SaIS5_EEESt10_Select1stISC_ESt4lessIS5_ESaISC_EE11lower_boundERS7_", scope: !25, file: !13, line: 1273, type: !664, scopeLine: 1273, flags: DIFlagPublic | DIFlagPrototyped, spFlags: 0)
!671 = !DISubprogram(name: "upper_bound", linkageName: "_ZNSt8_Rb_treeINSt7__cxx1112basic_stringIcSt11char_traitsIcESaIcEEESt4pairIKS5_PSt6vectorIS5_SaIS5_EEESt10_Select1stISC_ESt4lessIS5_ESaISC_EE11upper_boundERS7_", scope: !25, file: !13, line: 1277, type: !661, scopeLine: 1277, flags: DIFlagPublic | DIFlagPrototyped, spFlags: 0)
!672 = !DISubprogram(name: "upper_bound", linkageName: "_ZNKSt8_Rb_treeINSt7__cxx1112basic_stringIcSt11char_traitsIcESaIcEEESt4pairIKS5_PSt6vectorIS5_SaIS5_EEESt10_Select1stISC_ESt4lessIS5_ESaISC_EE11upper_boundERS7_", scope: !25, file: !13, line: 1281, type: !664, scopeLine: 1281, flags: DIFlagPublic | DIFlagPrototyped, spFlags: 0)
!673 = !DISubprogram(name: "equal_range", linkageName: "_ZNSt8_Rb_treeINSt7__cxx1112basic_stringIcSt11char_traitsIcESaIcEEESt4pairIKS5_PSt6vectorIS5_SaIS5_EEESt10_Select1stISC_ESt4lessIS5_ESaISC_EE11equal_rangeERS7_", scope: !25, file: !13, line: 1285, type: !674, scopeLine: 1285, flags: DIFlagPublic | DIFlagPrototyped, spFlags: 0)
!674 = !DISubroutineType(types: !675)
!675 = !{!676, !380, !509}
!676 = !DICompositeType(tag: DW_TAG_structure_type, name: "pair<std::_Rb_tree_iterator<std::pair<const std::__cxx11::basic_string<char, std::char_traits<char>, std::allocator<char> >, std::vector<std::__cxx11::basic_string<char, std::char_traits<char>, std::allocator<char> >, std::allocator<std::__cxx11::basic_string<char, std::char_traits<char>, std::allocator<char> > > > *> >, std::_Rb_tree_iterator<std::pair<const std::__cxx11::basic_string<char, std::char_traits<char>, std::allocator<char> >, std::vector<std::__cxx11::basic_string<char, std::char_traits<char>, std::allocator<char> >, std::allocator<std::__cxx11::basic_string<char, std::char_traits<char>, std::allocator<char> > > > *> > >", scope: !2, file: !48, line: 211, flags: DIFlagFwdDecl | DIFlagNonTrivial, identifier: "_ZTSSt4pairISt17_Rb_tree_iteratorIS_IKNSt7__cxx1112basic_stringIcSt11char_traitsIcESaIcEEEPSt6vectorIS6_SaIS6_EEEESD_E")
!677 = !DISubprogram(name: "equal_range", linkageName: "_ZNKSt8_Rb_treeINSt7__cxx1112basic_stringIcSt11char_traitsIcESaIcEEESt4pairIKS5_PSt6vectorIS5_SaIS5_EEESt10_Select1stISC_ESt4lessIS5_ESaISC_EE11equal_rangeERS7_", scope: !25, file: !13, line: 1288, type: !678, scopeLine: 1288, flags: DIFlagPublic | DIFlagPrototyped, spFlags: 0)
!678 = !DISubroutineType(types: !679)
!679 = !{!680, !386, !509}
!680 = !DICompositeType(tag: DW_TAG_structure_type, name: "pair<std::_Rb_tree_const_iterator<std::pair<const std::__cxx11::basic_string<char, std::char_traits<char>, std::allocator<char> >, std::vector<std::__cxx11::basic_string<char, std::char_traits<char>, std::allocator<char> >, std::allocator<std::__cxx11::basic_string<char, std::char_traits<char>, std::allocator<char> > > > *> >, std::_Rb_tree_const_iterator<std::pair<const std::__cxx11::basic_string<char, std::char_traits<char>, std::allocator<char> >, std::vector<std::__cxx11::basic_string<char, std::char_traits<char>, std::allocator<char> >, std::allocator<std::__cxx11::basic_string<char, std::char_traits<char>, std::allocator<char> > > > *> > >", scope: !2, file: !48, line: 211, flags: DIFlagFwdDecl | DIFlagNonTrivial, identifier: "_ZTSSt4pairISt23_Rb_tree_const_iteratorIS_IKNSt7__cxx1112basic_stringIcSt11char_traitsIcESaIcEEEPSt6vectorIS6_SaIS6_EEEESD_E")
!681 = !DISubprogram(name: "__rb_verify", linkageName: "_ZNKSt8_Rb_treeINSt7__cxx1112basic_stringIcSt11char_traitsIcESaIcEEESt4pairIKS5_PSt6vectorIS5_SaIS5_EEESt10_Select1stISC_ESt4lessIS5_ESaISC_EE11__rb_verifyEv", scope: !25, file: !13, line: 1400, type: !630, scopeLine: 1400, flags: DIFlagPublic | DIFlagPrototyped, spFlags: 0)
!682 = !DISubprogram(name: "operator=", linkageName: "_ZNSt8_Rb_treeINSt7__cxx1112basic_stringIcSt11char_traitsIcESaIcEEESt4pairIKS5_PSt6vectorIS5_SaIS5_EEESt10_Select1stISC_ESt4lessIS5_ESaISC_EEaSEOSI_", scope: !25, file: !13, line: 1404, type: !683, scopeLine: 1404, flags: DIFlagPublic | DIFlagPrototyped, spFlags: 0)
!683 = !DISubroutineType(types: !684)
!684 = !{!604, !380, !561}
!685 = !DISubprogram(name: "_M_move_data", linkageName: "_ZNSt8_Rb_treeINSt7__cxx1112basic_stringIcSt11char_traitsIcESaIcEEESt4pairIKS5_PSt6vectorIS5_SaIS5_EEESt10_Select1stISC_ESt4lessIS5_ESaISC_EE12_M_move_dataERSI_St17integral_constantIbLb1EE", scope: !25, file: !13, line: 1419, type: !686, scopeLine: 1419, flags: DIFlagPrototyped, spFlags: 0)
!686 = !DISubroutineType(types: !687)
!687 = !{null, !380, !604, !568}
!688 = !DISubprogram(name: "_M_move_data", linkageName: "_ZNSt8_Rb_treeINSt7__cxx1112basic_stringIcSt11char_traitsIcESaIcEEESt4pairIKS5_PSt6vectorIS5_SaIS5_EEESt10_Select1stISC_ESt4lessIS5_ESaISC_EE12_M_move_dataERSI_St17integral_constantIbLb0EE", scope: !25, file: !13, line: 1425, type: !689, scopeLine: 1425, flags: DIFlagPrototyped, spFlags: 0)
!689 = !DISubroutineType(types: !690)
!690 = !{null, !380, !604, !585}
!691 = !DISubprogram(name: "_M_move_assign", linkageName: "_ZNSt8_Rb_treeINSt7__cxx1112basic_stringIcSt11char_traitsIcESaIcEEESt4pairIKS5_PSt6vectorIS5_SaIS5_EEESt10_Select1stISC_ESt4lessIS5_ESaISC_EE14_M_move_assignERSI_St17integral_constantIbLb1EE", scope: !25, file: !13, line: 1429, type: !686, scopeLine: 1429, flags: DIFlagPrototyped, spFlags: 0)
!692 = !DISubprogram(name: "_M_move_assign", linkageName: "_ZNSt8_Rb_treeINSt7__cxx1112basic_stringIcSt11char_traitsIcESaIcEEESt4pairIKS5_PSt6vectorIS5_SaIS5_EEESt10_Select1stISC_ESt4lessIS5_ESaISC_EE14_M_move_assignERSI_St17integral_constantIbLb0EE", scope: !25, file: !13, line: 1434, type: !689, scopeLine: 1434, flags: DIFlagPrototyped, spFlags: 0)
!693 = !{!694, !233, !695, !697, !698}
!694 = !DITemplateTypeParameter(name: "_Key", type: !21)
!695 = !DITemplateTypeParameter(name: "_KeyOfValue", type: !696)
!696 = !DICompositeType(tag: DW_TAG_structure_type, name: "_Select1st<std::pair<const std::__cxx11::basic_string<char, std::char_traits<char>, std::allocator<char> >, std::vector<std::__cxx11::basic_string<char, std::char_traits<char>, std::allocator<char> >, std::allocator<std::__cxx11::basic_string<char, std::char_traits<char>, std::allocator<char> > > > *> >", scope: !2, file: !298, line: 1166, flags: DIFlagFwdDecl | DIFlagNonTrivial, identifier: "_ZTSSt10_Select1stISt4pairIKNSt7__cxx1112basic_stringIcSt11char_traitsIcESaIcEEEPSt6vectorIS6_SaIS6_EEEE")
!697 = !DITemplateTypeParameter(name: "_Compare", type: !297)
!698 = !DITemplateTypeParameter(name: "_Alloc", type: !119, defaulted: true)
!699 = distinct !DICompositeType(tag: DW_TAG_structure_type, name: "_Rb_tree_const_iterator<std::pair<const std::__cxx11::basic_string<char, std::char_traits<char>, std::allocator<char> >, std::vector<std::__cxx11::basic_string<char, std::char_traits<char>, std::allocator<char> >, std::allocator<std::__cxx11::basic_string<char, std::char_traits<char>, std::allocator<char> > > > *> >", scope: !2, file: !13, line: 328, size: 64, flags: DIFlagTypePassByValue | DIFlagNonTrivial, elements: !700, templateParams: !221, identifier: "_ZTSSt23_Rb_tree_const_iteratorISt4pairIKNSt7__cxx1112basic_stringIcSt11char_traitsIcESaIcEEEPSt6vectorIS6_SaIS6_EEEE")
!700 = !{!701, !703, !707, !710, !716, !721, !725, !729, !734, !738, !739}
!701 = !DIDerivedType(tag: DW_TAG_member, name: "_M_node", scope: !699, file: !13, line: 405, baseType: !702, size: 64)
!702 = !DIDerivedType(tag: DW_TAG_typedef, name: "_Base_ptr", file: !13, line: 340, baseType: !182)
!703 = !DISubprogram(name: "_Rb_tree_const_iterator", scope: !699, file: !13, line: 343, type: !704, scopeLine: 343, flags: DIFlagPrototyped, spFlags: 0)
!704 = !DISubroutineType(types: !705)
!705 = !{null, !706}
!706 = !DIDerivedType(tag: DW_TAG_pointer_type, baseType: !699, size: 64, flags: DIFlagArtificial | DIFlagObjectPointer)
!707 = !DISubprogram(name: "_Rb_tree_const_iterator", scope: !699, file: !13, line: 347, type: !708, scopeLine: 347, flags: DIFlagExplicit | DIFlagPrototyped, spFlags: 0)
!708 = !DISubroutineType(types: !709)
!709 = !{null, !706, !702}
!710 = !DISubprogram(name: "_Rb_tree_const_iterator", scope: !699, file: !13, line: 350, type: !711, scopeLine: 350, flags: DIFlagPrototyped, spFlags: 0)
!711 = !DISubroutineType(types: !712)
!712 = !{null, !706, !713}
!713 = !DIDerivedType(tag: DW_TAG_reference_type, baseType: !714, size: 64)
!714 = !DIDerivedType(tag: DW_TAG_const_type, baseType: !715)
!715 = !DIDerivedType(tag: DW_TAG_typedef, name: "iterator", scope: !699, file: !13, line: 334, baseType: !521)
!716 = !DISubprogram(name: "_M_const_cast", linkageName: "_ZNKSt23_Rb_tree_const_iteratorISt4pairIKNSt7__cxx1112basic_stringIcSt11char_traitsIcESaIcEEEPSt6vectorIS6_SaIS6_EEEE13_M_const_castEv", scope: !699, file: !13, line: 354, type: !717, scopeLine: 354, flags: DIFlagPrototyped, spFlags: 0)
!717 = !DISubroutineType(types: !718)
!718 = !{!715, !719}
!719 = !DIDerivedType(tag: DW_TAG_pointer_type, baseType: !720, size: 64, flags: DIFlagArtificial | DIFlagObjectPointer)
!720 = !DIDerivedType(tag: DW_TAG_const_type, baseType: !699)
!721 = !DISubprogram(name: "operator*", linkageName: "_ZNKSt23_Rb_tree_const_iteratorISt4pairIKNSt7__cxx1112basic_stringIcSt11char_traitsIcESaIcEEEPSt6vectorIS6_SaIS6_EEEEdeEv", scope: !699, file: !13, line: 358, type: !722, scopeLine: 358, flags: DIFlagPrototyped, spFlags: 0)
!722 = !DISubroutineType(types: !723)
!723 = !{!724, !719}
!724 = !DIDerivedType(tag: DW_TAG_typedef, name: "reference", scope: !699, file: !13, line: 331, baseType: !80)
!725 = !DISubprogram(name: "operator->", linkageName: "_ZNKSt23_Rb_tree_const_iteratorISt4pairIKNSt7__cxx1112basic_stringIcSt11char_traitsIcESaIcEEEPSt6vectorIS6_SaIS6_EEEEptEv", scope: !699, file: !13, line: 362, type: !726, scopeLine: 362, flags: DIFlagPrototyped, spFlags: 0)
!726 = !DISubroutineType(types: !727)
!727 = !{!728, !719}
!728 = !DIDerivedType(tag: DW_TAG_typedef, name: "pointer", scope: !699, file: !13, line: 332, baseType: !220)
!729 = !DISubprogram(name: "operator++", linkageName: "_ZNSt23_Rb_tree_const_iteratorISt4pairIKNSt7__cxx1112basic_stringIcSt11char_traitsIcESaIcEEEPSt6vectorIS6_SaIS6_EEEEppEv", scope: !699, file: !13, line: 366, type: !730, scopeLine: 366, flags: DIFlagPrototyped, spFlags: 0)
!730 = !DISubroutineType(types: !731)
!731 = !{!732, !706}
!732 = !DIDerivedType(tag: DW_TAG_reference_type, baseType: !733, size: 64)
!733 = !DIDerivedType(tag: DW_TAG_typedef, name: "_Self", scope: !699, file: !13, line: 339, baseType: !699)
!734 = !DISubprogram(name: "operator++", linkageName: "_ZNSt23_Rb_tree_const_iteratorISt4pairIKNSt7__cxx1112basic_stringIcSt11char_traitsIcESaIcEEEPSt6vectorIS6_SaIS6_EEEEppEi", scope: !699, file: !13, line: 373, type: !735, scopeLine: 373, flags: DIFlagPrototyped, spFlags: 0)
!735 = !DISubroutineType(types: !736)
!736 = !{!733, !706, !737}
!737 = !DIBasicType(name: "int", size: 32, encoding: DW_ATE_signed)
!738 = !DISubprogram(name: "operator--", linkageName: "_ZNSt23_Rb_tree_const_iteratorISt4pairIKNSt7__cxx1112basic_stringIcSt11char_traitsIcESaIcEEEPSt6vectorIS6_SaIS6_EEEEmmEv", scope: !699, file: !13, line: 381, type: !730, scopeLine: 381, flags: DIFlagPrototyped, spFlags: 0)
!739 = !DISubprogram(name: "operator--", linkageName: "_ZNSt23_Rb_tree_const_iteratorISt4pairIKNSt7__cxx1112basic_stringIcSt11char_traitsIcESaIcEEEPSt6vectorIS6_SaIS6_EEEEmmEi", scope: !699, file: !13, line: 388, type: !735, scopeLine: 388, flags: DIFlagPrototyped, spFlags: 0)
!740 = !DIDerivedType(tag: DW_TAG_typedef, name: "_Link_type", scope: !699, file: !13, line: 341, baseType: !265)
!741 = !DIDerivedType(tag: DW_TAG_typedef, name: "size_type", file: !73, line: 424, baseType: !122, flags: DIFlagPublic)
!742 = distinct !DICompositeType(tag: DW_TAG_structure_type, name: "sse_f", file: !743, line: 20, size: 128, flags: DIFlagTypePassByValue | DIFlagNonTrivial, elements: !744, identifier: "_ZTS5sse_f")
!743 = !DIFile(filename: "RTTL/common/RTEmulatedSSE.hxx", directory: "/home/raj/SVF_PAPER_BENCHMARKS/parsec-3.0/pkgs/apps/raytrace/src", checksumkind: CSK_MD5, checksum: "899b754f585bbc37282aa5883c939129")
!744 = !{!745, !750}
!745 = !DIDerivedType(tag: DW_TAG_member, name: "f", scope: !742, file: !743, line: 23, baseType: !746, size: 128)
!746 = !DICompositeType(tag: DW_TAG_array_type, baseType: !747, size: 128, elements: !748)
!747 = !DIBasicType(name: "float", size: 32, encoding: DW_ATE_float)
!748 = !{!749}
!749 = !DISubrange(count: 4)
!750 = !DISubprogram(name: "sse_f", scope: !742, file: !743, line: 21, type: !751, scopeLine: 21, flags: DIFlagPrototyped, spFlags: 0)
!751 = !DISubroutineType(types: !752)
!752 = !{null, !753}
!753 = !DIDerivedType(tag: DW_TAG_pointer_type, baseType: !742, size: 64, flags: DIFlagArtificial | DIFlagObjectPointer)
!754 = distinct !DICompositeType(tag: DW_TAG_class_type, name: "MapOptions", scope: !756, file: !755, line: 224, size: 768, flags: DIFlagTypePassByReference | DIFlagNonTrivial, elements: !757, identifier: "_ZTSN4RTTL10MapOptionsE")
!755 = !DIFile(filename: "RTTL/common/MapOptions.hxx", directory: "/home/raj/SVF_PAPER_BENCHMARKS/parsec-3.0/pkgs/apps/raytrace/src", checksumkind: CSK_MD5, checksum: "4b77b51fe330e0e6a79dc1328f27799c")
!756 = !DINamespace(name: "RTTL", scope: null)
!757 = !{!758, !932, !1617, !1621, !1622, !1627, !1632, !1638, !1641, !1646, !1651, !1654, !1657, !1663, !1666, !1669, !1674, !1677, !1678, !1682, !1683, !1689, !1693, !1694, !1698, !1702, !1705}
!758 = !DIDerivedType(tag: DW_TAG_inheritance, scope: !754, baseType: !759, flags: DIFlagPublic, extraData: i32 0)
!759 = !DIDerivedType(tag: DW_TAG_typedef, name: "map_strings_to_vector_of_strings", scope: !756, file: !755, line: 220, baseType: !760)
!760 = distinct !DICompositeType(tag: DW_TAG_class_type, name: "map<std::__cxx11::basic_string<char, std::char_traits<char>, std::allocator<char> >, std::vector<std::__cxx11::basic_string<char, std::char_traits<char>, std::allocator<char> >, std::allocator<std::__cxx11::basic_string<char, std::char_traits<char>, std::allocator<char> > > > *, std::less<std::__cxx11::basic_string<char, std::char_traits<char>, std::allocator<char> > >, std::allocator<std::pair<const std::__cxx11::basic_string<char, std::char_traits<char>, std::allocator<char> >, std::vector<std::__cxx11::basic_string<char, std::char_traits<char>, std::allocator<char> >, std::allocator<std::__cxx11::basic_string<char, std::char_traits<char>, std::allocator<char> > > > *> > >", scope: !2, file: !761, line: 100, size: 384, flags: DIFlagTypePassByReference | DIFlagNonTrivial, elements: !762, templateParams: !929, identifier: "_ZTSSt3mapINSt7__cxx1112basic_stringIcSt11char_traitsIcESaIcEEEPSt6vectorIS5_SaIS5_EESt4lessIS5_ESaISt4pairIKS5_S9_EEE")
!761 = !DIFile(filename: "/usr/lib/gcc/x86_64-linux-gnu/11/../../../../include/c++/11/bits/stl_map.h", directory: "", checksumkind: CSK_MD5, checksum: "aee57a8661ec66bcbd3d049a16df390e")
!762 = !{!763, !765, !769, !775, !780, !784, !789, !792, !795, !798, !801, !802, !806, !809, !812, !816, !820, !824, !825, !826, !830, !834, !835, !836, !837, !838, !839, !840, !843, !847, !848, !856, !860, !861, !866, !873, !877, !880, !883, !886, !889, !892, !895, !898, !901, !902, !906, !910, !913, !916, !919, !920, !921, !922, !923, !926}
!763 = !DIDerivedType(tag: DW_TAG_member, name: "_M_t", scope: !760, file: !761, line: 153, baseType: !764, size: 384)
!764 = !DIDerivedType(tag: DW_TAG_typedef, name: "_Rep_type", scope: !760, file: !761, line: 150, baseType: !25)
!765 = !DISubprogram(name: "map", scope: !760, file: !761, line: 185, type: !766, scopeLine: 185, flags: DIFlagPublic | DIFlagPrototyped, spFlags: 0)
!766 = !DISubroutineType(types: !767)
!767 = !{null, !768}
!768 = !DIDerivedType(tag: DW_TAG_pointer_type, baseType: !760, size: 64, flags: DIFlagArtificial | DIFlagObjectPointer)
!769 = !DISubprogram(name: "map", scope: !760, file: !761, line: 194, type: !770, scopeLine: 194, flags: DIFlagPublic | DIFlagExplicit | DIFlagPrototyped, spFlags: 0)
!770 = !DISubroutineType(types: !771)
!771 = !{null, !768, !321, !772}
!772 = !DIDerivedType(tag: DW_TAG_reference_type, baseType: !773, size: 64)
!773 = !DIDerivedType(tag: DW_TAG_const_type, baseType: !774)
!774 = !DIDerivedType(tag: DW_TAG_typedef, name: "allocator_type", scope: !760, file: !761, line: 107, baseType: !119, flags: DIFlagPublic)
!775 = !DISubprogram(name: "map", scope: !760, file: !761, line: 207, type: !776, scopeLine: 207, flags: DIFlagPublic | DIFlagPrototyped, spFlags: 0)
!776 = !DISubroutineType(types: !777)
!777 = !{null, !768, !778}
!778 = !DIDerivedType(tag: DW_TAG_reference_type, baseType: !779, size: 64)
!779 = !DIDerivedType(tag: DW_TAG_const_type, baseType: !760)
!780 = !DISubprogram(name: "map", scope: !760, file: !761, line: 215, type: !781, scopeLine: 215, flags: DIFlagPublic | DIFlagPrototyped, spFlags: 0)
!781 = !DISubroutineType(types: !782)
!782 = !{null, !768, !783}
!783 = !DIDerivedType(tag: DW_TAG_rvalue_reference_type, baseType: !760, size: 64)
!784 = !DISubprogram(name: "map", scope: !760, file: !761, line: 228, type: !785, scopeLine: 228, flags: DIFlagPublic | DIFlagPrototyped, spFlags: 0)
!785 = !DISubroutineType(types: !786)
!786 = !{null, !768, !787, !321, !772}
!787 = !DICompositeType(tag: DW_TAG_class_type, name: "initializer_list<std::pair<const std::__cxx11::basic_string<char, std::char_traits<char>, std::allocator<char> >, std::vector<std::__cxx11::basic_string<char, std::char_traits<char>, std::allocator<char> >, std::allocator<std::__cxx11::basic_string<char, std::char_traits<char>, std::allocator<char> > > > *> >", scope: !2, file: !788, line: 47, flags: DIFlagFwdDecl | DIFlagNonTrivial, identifier: "_ZTSSt16initializer_listISt4pairIKNSt7__cxx1112basic_stringIcSt11char_traitsIcESaIcEEEPSt6vectorIS6_SaIS6_EEEE")
!788 = !DIFile(filename: "/usr/lib/gcc/x86_64-linux-gnu/11/../../../../include/c++/11/initializer_list", directory: "")
!789 = !DISubprogram(name: "map", scope: !760, file: !761, line: 236, type: !790, scopeLine: 236, flags: DIFlagPublic | DIFlagExplicit | DIFlagPrototyped, spFlags: 0)
!790 = !DISubroutineType(types: !791)
!791 = !{null, !768, !772}
!792 = !DISubprogram(name: "map", scope: !760, file: !761, line: 240, type: !793, scopeLine: 240, flags: DIFlagPublic | DIFlagPrototyped, spFlags: 0)
!793 = !DISubroutineType(types: !794)
!794 = !{null, !768, !778, !772}
!795 = !DISubprogram(name: "map", scope: !760, file: !761, line: 244, type: !796, scopeLine: 244, flags: DIFlagPublic | DIFlagPrototyped, spFlags: 0)
!796 = !DISubroutineType(types: !797)
!797 = !{null, !768, !783, !772}
!798 = !DISubprogram(name: "map", scope: !760, file: !761, line: 250, type: !799, scopeLine: 250, flags: DIFlagPublic | DIFlagPrototyped, spFlags: 0)
!799 = !DISubroutineType(types: !800)
!800 = !{null, !768, !787, !772}
!801 = !DISubprogram(name: "~map", scope: !760, file: !761, line: 302, type: !766, scopeLine: 302, flags: DIFlagPublic | DIFlagPrototyped, spFlags: 0)
!802 = !DISubprogram(name: "operator=", linkageName: "_ZNSt3mapINSt7__cxx1112basic_stringIcSt11char_traitsIcESaIcEEEPSt6vectorIS5_SaIS5_EESt4lessIS5_ESaISt4pairIKS5_S9_EEEaSERKSG_", scope: !760, file: !761, line: 319, type: !803, scopeLine: 319, flags: DIFlagPublic | DIFlagPrototyped, spFlags: 0)
!803 = !DISubroutineType(types: !804)
!804 = !{!805, !768, !778}
!805 = !DIDerivedType(tag: DW_TAG_reference_type, baseType: !760, size: 64)
!806 = !DISubprogram(name: "operator=", linkageName: "_ZNSt3mapINSt7__cxx1112basic_stringIcSt11char_traitsIcESaIcEEEPSt6vectorIS5_SaIS5_EESt4lessIS5_ESaISt4pairIKS5_S9_EEEaSEOSG_", scope: !760, file: !761, line: 323, type: !807, scopeLine: 323, flags: DIFlagPublic | DIFlagPrototyped, spFlags: 0)
!807 = !DISubroutineType(types: !808)
!808 = !{!805, !768, !783}
!809 = !DISubprogram(name: "operator=", linkageName: "_ZNSt3mapINSt7__cxx1112basic_stringIcSt11char_traitsIcESaIcEEEPSt6vectorIS5_SaIS5_EESt4lessIS5_ESaISt4pairIKS5_S9_EEEaSESt16initializer_listISE_E", scope: !760, file: !761, line: 337, type: !810, scopeLine: 337, flags: DIFlagPublic | DIFlagPrototyped, spFlags: 0)
!810 = !DISubroutineType(types: !811)
!811 = !{!805, !768, !787}
!812 = !DISubprogram(name: "get_allocator", linkageName: "_ZNKSt3mapINSt7__cxx1112basic_stringIcSt11char_traitsIcESaIcEEEPSt6vectorIS5_SaIS5_EESt4lessIS5_ESaISt4pairIKS5_S9_EEE13get_allocatorEv", scope: !760, file: !761, line: 346, type: !813, scopeLine: 346, flags: DIFlagPublic | DIFlagPrototyped, spFlags: 0)
!813 = !DISubroutineType(types: !814)
!814 = !{!774, !815}
!815 = !DIDerivedType(tag: DW_TAG_pointer_type, baseType: !779, size: 64, flags: DIFlagArtificial | DIFlagObjectPointer)
!816 = !DISubprogram(name: "begin", linkageName: "_ZNSt3mapINSt7__cxx1112basic_stringIcSt11char_traitsIcESaIcEEEPSt6vectorIS5_SaIS5_EESt4lessIS5_ESaISt4pairIKS5_S9_EEE5beginEv", scope: !760, file: !761, line: 356, type: !817, scopeLine: 356, flags: DIFlagPublic | DIFlagPrototyped, spFlags: 0)
!817 = !DISubroutineType(types: !818)
!818 = !{!819, !768}
!819 = !DIDerivedType(tag: DW_TAG_typedef, name: "iterator", scope: !760, file: !761, line: 164, baseType: !520, flags: DIFlagPublic)
!820 = !DISubprogram(name: "begin", linkageName: "_ZNKSt3mapINSt7__cxx1112basic_stringIcSt11char_traitsIcESaIcEEEPSt6vectorIS5_SaIS5_EESt4lessIS5_ESaISt4pairIKS5_S9_EEE5beginEv", scope: !760, file: !761, line: 365, type: !821, scopeLine: 365, flags: DIFlagPublic | DIFlagPrototyped, spFlags: 0)
!821 = !DISubroutineType(types: !822)
!822 = !{!823, !815}
!823 = !DIDerivedType(tag: DW_TAG_typedef, name: "const_iterator", scope: !760, file: !761, line: 165, baseType: !24, flags: DIFlagPublic)
!824 = !DISubprogram(name: "end", linkageName: "_ZNSt3mapINSt7__cxx1112basic_stringIcSt11char_traitsIcESaIcEEEPSt6vectorIS5_SaIS5_EESt4lessIS5_ESaISt4pairIKS5_S9_EEE3endEv", scope: !760, file: !761, line: 374, type: !817, scopeLine: 374, flags: DIFlagPublic | DIFlagPrototyped, spFlags: 0)
!825 = !DISubprogram(name: "end", linkageName: "_ZNKSt3mapINSt7__cxx1112basic_stringIcSt11char_traitsIcESaIcEEEPSt6vectorIS5_SaIS5_EESt4lessIS5_ESaISt4pairIKS5_S9_EEE3endEv", scope: !760, file: !761, line: 383, type: !821, scopeLine: 383, flags: DIFlagPublic | DIFlagPrototyped, spFlags: 0)
!826 = !DISubprogram(name: "rbegin", linkageName: "_ZNSt3mapINSt7__cxx1112basic_stringIcSt11char_traitsIcESaIcEEEPSt6vectorIS5_SaIS5_EESt4lessIS5_ESaISt4pairIKS5_S9_EEE6rbeginEv", scope: !760, file: !761, line: 392, type: !827, scopeLine: 392, flags: DIFlagPublic | DIFlagPrototyped, spFlags: 0)
!827 = !DISubroutineType(types: !828)
!828 = !{!829, !768}
!829 = !DIDerivedType(tag: DW_TAG_typedef, name: "reverse_iterator", scope: !760, file: !761, line: 168, baseType: !619, flags: DIFlagPublic)
!830 = !DISubprogram(name: "rbegin", linkageName: "_ZNKSt3mapINSt7__cxx1112basic_stringIcSt11char_traitsIcESaIcEEEPSt6vectorIS5_SaIS5_EESt4lessIS5_ESaISt4pairIKS5_S9_EEE6rbeginEv", scope: !760, file: !761, line: 401, type: !831, scopeLine: 401, flags: DIFlagPublic | DIFlagPrototyped, spFlags: 0)
!831 = !DISubroutineType(types: !832)
!832 = !{!833, !815}
!833 = !DIDerivedType(tag: DW_TAG_typedef, name: "const_reverse_iterator", scope: !760, file: !761, line: 169, baseType: !625, flags: DIFlagPublic)
!834 = !DISubprogram(name: "rend", linkageName: "_ZNSt3mapINSt7__cxx1112basic_stringIcSt11char_traitsIcESaIcEEEPSt6vectorIS5_SaIS5_EESt4lessIS5_ESaISt4pairIKS5_S9_EEE4rendEv", scope: !760, file: !761, line: 410, type: !827, scopeLine: 410, flags: DIFlagPublic | DIFlagPrototyped, spFlags: 0)
!835 = !DISubprogram(name: "rend", linkageName: "_ZNKSt3mapINSt7__cxx1112basic_stringIcSt11char_traitsIcESaIcEEEPSt6vectorIS5_SaIS5_EESt4lessIS5_ESaISt4pairIKS5_S9_EEE4rendEv", scope: !760, file: !761, line: 419, type: !831, scopeLine: 419, flags: DIFlagPublic | DIFlagPrototyped, spFlags: 0)
!836 = !DISubprogram(name: "cbegin", linkageName: "_ZNKSt3mapINSt7__cxx1112basic_stringIcSt11char_traitsIcESaIcEEEPSt6vectorIS5_SaIS5_EESt4lessIS5_ESaISt4pairIKS5_S9_EEE6cbeginEv", scope: !760, file: !761, line: 429, type: !821, scopeLine: 429, flags: DIFlagPublic | DIFlagPrototyped, spFlags: 0)
!837 = !DISubprogram(name: "cend", linkageName: "_ZNKSt3mapINSt7__cxx1112basic_stringIcSt11char_traitsIcESaIcEEEPSt6vectorIS5_SaIS5_EESt4lessIS5_ESaISt4pairIKS5_S9_EEE4cendEv", scope: !760, file: !761, line: 438, type: !821, scopeLine: 438, flags: DIFlagPublic | DIFlagPrototyped, spFlags: 0)
!838 = !DISubprogram(name: "crbegin", linkageName: "_ZNKSt3mapINSt7__cxx1112basic_stringIcSt11char_traitsIcESaIcEEEPSt6vectorIS5_SaIS5_EESt4lessIS5_ESaISt4pairIKS5_S9_EEE7crbeginEv", scope: !760, file: !761, line: 447, type: !831, scopeLine: 447, flags: DIFlagPublic | DIFlagPrototyped, spFlags: 0)
!839 = !DISubprogram(name: "crend", linkageName: "_ZNKSt3mapINSt7__cxx1112basic_stringIcSt11char_traitsIcESaIcEEEPSt6vectorIS5_SaIS5_EESt4lessIS5_ESaISt4pairIKS5_S9_EEE5crendEv", scope: !760, file: !761, line: 456, type: !831, scopeLine: 456, flags: DIFlagPublic | DIFlagPrototyped, spFlags: 0)
!840 = !DISubprogram(name: "empty", linkageName: "_ZNKSt3mapINSt7__cxx1112basic_stringIcSt11char_traitsIcESaIcEEEPSt6vectorIS5_SaIS5_EESt4lessIS5_ESaISt4pairIKS5_S9_EEE5emptyEv", scope: !760, file: !761, line: 465, type: !841, scopeLine: 465, flags: DIFlagPublic | DIFlagPrototyped, spFlags: 0)
!841 = !DISubroutineType(types: !842)
!842 = !{!96, !815}
!843 = !DISubprogram(name: "size", linkageName: "_ZNKSt3mapINSt7__cxx1112basic_stringIcSt11char_traitsIcESaIcEEEPSt6vectorIS5_SaIS5_EESt4lessIS5_ESaISt4pairIKS5_S9_EEE4sizeEv", scope: !760, file: !761, line: 470, type: !844, scopeLine: 470, flags: DIFlagPublic | DIFlagPrototyped, spFlags: 0)
!844 = !DISubroutineType(types: !845)
!845 = !{!846, !815}
!846 = !DIDerivedType(tag: DW_TAG_typedef, name: "size_type", scope: !760, file: !761, line: 166, baseType: !655, flags: DIFlagPublic)
!847 = !DISubprogram(name: "max_size", linkageName: "_ZNKSt3mapINSt7__cxx1112basic_stringIcSt11char_traitsIcESaIcEEEPSt6vectorIS5_SaIS5_EESt4lessIS5_ESaISt4pairIKS5_S9_EEE8max_sizeEv", scope: !760, file: !761, line: 475, type: !844, scopeLine: 475, flags: DIFlagPublic | DIFlagPrototyped, spFlags: 0)
!848 = !DISubprogram(name: "operator[]", linkageName: "_ZNSt3mapINSt7__cxx1112basic_stringIcSt11char_traitsIcESaIcEEEPSt6vectorIS5_SaIS5_EESt4lessIS5_ESaISt4pairIKS5_S9_EEEixERSD_", scope: !760, file: !761, line: 492, type: !849, scopeLine: 492, flags: DIFlagPublic | DIFlagPrototyped, spFlags: 0)
!849 = !DISubroutineType(types: !850)
!850 = !{!851, !768, !853}
!851 = !DIDerivedType(tag: DW_TAG_reference_type, baseType: !852, size: 64)
!852 = !DIDerivedType(tag: DW_TAG_typedef, name: "mapped_type", scope: !760, file: !761, line: 104, baseType: !71, flags: DIFlagPublic)
!853 = !DIDerivedType(tag: DW_TAG_reference_type, baseType: !854, size: 64)
!854 = !DIDerivedType(tag: DW_TAG_const_type, baseType: !855)
!855 = !DIDerivedType(tag: DW_TAG_typedef, name: "key_type", scope: !760, file: !761, line: 103, baseType: !21, flags: DIFlagPublic)
!856 = !DISubprogram(name: "operator[]", linkageName: "_ZNSt3mapINSt7__cxx1112basic_stringIcSt11char_traitsIcESaIcEEEPSt6vectorIS5_SaIS5_EESt4lessIS5_ESaISt4pairIKS5_S9_EEEixEOS5_", scope: !760, file: !761, line: 512, type: !857, scopeLine: 512, flags: DIFlagPublic | DIFlagPrototyped, spFlags: 0)
!857 = !DISubroutineType(types: !858)
!858 = !{!851, !768, !859}
!859 = !DIDerivedType(tag: DW_TAG_rvalue_reference_type, baseType: !855, size: 64)
!860 = !DISubprogram(name: "at", linkageName: "_ZNSt3mapINSt7__cxx1112basic_stringIcSt11char_traitsIcESaIcEEEPSt6vectorIS5_SaIS5_EESt4lessIS5_ESaISt4pairIKS5_S9_EEE2atERSD_", scope: !760, file: !761, line: 537, type: !849, scopeLine: 537, flags: DIFlagPublic | DIFlagPrototyped, spFlags: 0)
!861 = !DISubprogram(name: "at", linkageName: "_ZNKSt3mapINSt7__cxx1112basic_stringIcSt11char_traitsIcESaIcEEEPSt6vectorIS5_SaIS5_EESt4lessIS5_ESaISt4pairIKS5_S9_EEE2atERSD_", scope: !760, file: !761, line: 546, type: !862, scopeLine: 546, flags: DIFlagPublic | DIFlagPrototyped, spFlags: 0)
!862 = !DISubroutineType(types: !863)
!863 = !{!864, !815, !853}
!864 = !DIDerivedType(tag: DW_TAG_reference_type, baseType: !865, size: 64)
!865 = !DIDerivedType(tag: DW_TAG_const_type, baseType: !852)
!866 = !DISubprogram(name: "insert", linkageName: "_ZNSt3mapINSt7__cxx1112basic_stringIcSt11char_traitsIcESaIcEEEPSt6vectorIS5_SaIS5_EESt4lessIS5_ESaISt4pairIKS5_S9_EEE6insertERKSE_", scope: !760, file: !761, line: 803, type: !867, scopeLine: 803, flags: DIFlagPublic | DIFlagPrototyped, spFlags: 0)
!867 = !DISubroutineType(types: !868)
!868 = !{!869, !768, !870}
!869 = !DICompositeType(tag: DW_TAG_structure_type, name: "pair<std::_Rb_tree_iterator<std::pair<const std::__cxx11::basic_string<char, std::char_traits<char>, std::allocator<char> >, std::vector<std::__cxx11::basic_string<char, std::char_traits<char>, std::allocator<char> >, std::allocator<std::__cxx11::basic_string<char, std::char_traits<char>, std::allocator<char> > > > *> >, bool>", scope: !2, file: !48, line: 211, flags: DIFlagFwdDecl | DIFlagNonTrivial, identifier: "_ZTSSt4pairISt17_Rb_tree_iteratorIS_IKNSt7__cxx1112basic_stringIcSt11char_traitsIcESaIcEEEPSt6vectorIS6_SaIS6_EEEEbE")
!870 = !DIDerivedType(tag: DW_TAG_reference_type, baseType: !871, size: 64)
!871 = !DIDerivedType(tag: DW_TAG_const_type, baseType: !872)
!872 = !DIDerivedType(tag: DW_TAG_typedef, name: "value_type", scope: !760, file: !761, line: 105, baseType: !47, flags: DIFlagPublic)
!873 = !DISubprogram(name: "insert", linkageName: "_ZNSt3mapINSt7__cxx1112basic_stringIcSt11char_traitsIcESaIcEEEPSt6vectorIS5_SaIS5_EESt4lessIS5_ESaISt4pairIKS5_S9_EEE6insertEOSE_", scope: !760, file: !761, line: 810, type: !874, scopeLine: 810, flags: DIFlagPublic | DIFlagPrototyped, spFlags: 0)
!874 = !DISubroutineType(types: !875)
!875 = !{!869, !768, !876}
!876 = !DIDerivedType(tag: DW_TAG_rvalue_reference_type, baseType: !872, size: 64)
!877 = !DISubprogram(name: "insert", linkageName: "_ZNSt3mapINSt7__cxx1112basic_stringIcSt11char_traitsIcESaIcEEEPSt6vectorIS5_SaIS5_EESt4lessIS5_ESaISt4pairIKS5_S9_EEE6insertESt16initializer_listISE_E", scope: !760, file: !761, line: 830, type: !878, scopeLine: 830, flags: DIFlagPublic | DIFlagPrototyped, spFlags: 0)
!878 = !DISubroutineType(types: !879)
!879 = !{null, !768, !787}
!880 = !DISubprogram(name: "insert", linkageName: "_ZNSt3mapINSt7__cxx1112basic_stringIcSt11char_traitsIcESaIcEEEPSt6vectorIS5_SaIS5_EESt4lessIS5_ESaISt4pairIKS5_S9_EEE6insertESt23_Rb_tree_const_iteratorISE_ERKSE_", scope: !760, file: !761, line: 860, type: !881, scopeLine: 860, flags: DIFlagPublic | DIFlagPrototyped, spFlags: 0)
!881 = !DISubroutineType(types: !882)
!882 = !{!819, !768, !823, !870}
!883 = !DISubprogram(name: "insert", linkageName: "_ZNSt3mapINSt7__cxx1112basic_stringIcSt11char_traitsIcESaIcEEEPSt6vectorIS5_SaIS5_EESt4lessIS5_ESaISt4pairIKS5_S9_EEE6insertESt23_Rb_tree_const_iteratorISE_EOSE_", scope: !760, file: !761, line: 870, type: !884, scopeLine: 870, flags: DIFlagPublic | DIFlagPrototyped, spFlags: 0)
!884 = !DISubroutineType(types: !885)
!885 = !{!819, !768, !823, !876}
!886 = !DISubprogram(name: "erase", linkageName: "_ZNSt3mapINSt7__cxx1112basic_stringIcSt11char_traitsIcESaIcEEEPSt6vectorIS5_SaIS5_EESt4lessIS5_ESaISt4pairIKS5_S9_EEE5eraseESt23_Rb_tree_const_iteratorISE_E", scope: !760, file: !761, line: 1031, type: !887, scopeLine: 1031, flags: DIFlagPublic | DIFlagPrototyped, spFlags: 0)
!887 = !DISubroutineType(types: !888)
!888 = !{!819, !768, !823}
!889 = !DISubprogram(name: "erase", linkageName: "_ZNSt3mapINSt7__cxx1112basic_stringIcSt11char_traitsIcESaIcEEEPSt6vectorIS5_SaIS5_EESt4lessIS5_ESaISt4pairIKS5_S9_EEE5eraseB5cxx11ESt17_Rb_tree_iteratorISE_E", scope: !760, file: !761, line: 1037, type: !890, scopeLine: 1037, flags: DIFlagPublic | DIFlagPrototyped, spFlags: 0)
!890 = !DISubroutineType(types: !891)
!891 = !{!819, !768, !819}
!892 = !DISubprogram(name: "erase", linkageName: "_ZNSt3mapINSt7__cxx1112basic_stringIcSt11char_traitsIcESaIcEEEPSt6vectorIS5_SaIS5_EESt4lessIS5_ESaISt4pairIKS5_S9_EEE5eraseERSD_", scope: !760, file: !761, line: 1068, type: !893, scopeLine: 1068, flags: DIFlagPublic | DIFlagPrototyped, spFlags: 0)
!893 = !DISubroutineType(types: !894)
!894 = !{!846, !768, !853}
!895 = !DISubprogram(name: "erase", linkageName: "_ZNSt3mapINSt7__cxx1112basic_stringIcSt11char_traitsIcESaIcEEEPSt6vectorIS5_SaIS5_EESt4lessIS5_ESaISt4pairIKS5_S9_EEE5eraseESt23_Rb_tree_const_iteratorISE_ESI_", scope: !760, file: !761, line: 1088, type: !896, scopeLine: 1088, flags: DIFlagPublic | DIFlagPrototyped, spFlags: 0)
!896 = !DISubroutineType(types: !897)
!897 = !{!819, !768, !823, !823}
!898 = !DISubprogram(name: "swap", linkageName: "_ZNSt3mapINSt7__cxx1112basic_stringIcSt11char_traitsIcESaIcEEEPSt6vectorIS5_SaIS5_EESt4lessIS5_ESaISt4pairIKS5_S9_EEE4swapERSG_", scope: !760, file: !761, line: 1122, type: !899, scopeLine: 1122, flags: DIFlagPublic | DIFlagPrototyped, spFlags: 0)
!899 = !DISubroutineType(types: !900)
!900 = !{null, !768, !805}
!901 = !DISubprogram(name: "clear", linkageName: "_ZNSt3mapINSt7__cxx1112basic_stringIcSt11char_traitsIcESaIcEEEPSt6vectorIS5_SaIS5_EESt4lessIS5_ESaISt4pairIKS5_S9_EEE5clearEv", scope: !760, file: !761, line: 1133, type: !766, scopeLine: 1133, flags: DIFlagPublic | DIFlagPrototyped, spFlags: 0)
!902 = !DISubprogram(name: "key_comp", linkageName: "_ZNKSt3mapINSt7__cxx1112basic_stringIcSt11char_traitsIcESaIcEEEPSt6vectorIS5_SaIS5_EESt4lessIS5_ESaISt4pairIKS5_S9_EEE8key_compEv", scope: !760, file: !761, line: 1142, type: !903, scopeLine: 1142, flags: DIFlagPublic | DIFlagPrototyped, spFlags: 0)
!903 = !DISubroutineType(types: !904)
!904 = !{!905, !815}
!905 = !DIDerivedType(tag: DW_TAG_typedef, name: "key_compare", scope: !760, file: !761, line: 106, baseType: !297, flags: DIFlagPublic)
!906 = !DISubprogram(name: "value_comp", linkageName: "_ZNKSt3mapINSt7__cxx1112basic_stringIcSt11char_traitsIcESaIcEEEPSt6vectorIS5_SaIS5_EESt4lessIS5_ESaISt4pairIKS5_S9_EEE10value_compEv", scope: !760, file: !761, line: 1150, type: !907, scopeLine: 1150, flags: DIFlagPublic | DIFlagPrototyped, spFlags: 0)
!907 = !DISubroutineType(types: !908)
!908 = !{!909, !815}
!909 = !DICompositeType(tag: DW_TAG_class_type, name: "value_compare", scope: !760, file: !761, line: 129, flags: DIFlagFwdDecl | DIFlagNonTrivial, identifier: "_ZTSNSt3mapINSt7__cxx1112basic_stringIcSt11char_traitsIcESaIcEEEPSt6vectorIS5_SaIS5_EESt4lessIS5_ESaISt4pairIKS5_S9_EEE13value_compareE")
!910 = !DISubprogram(name: "find", linkageName: "_ZNSt3mapINSt7__cxx1112basic_stringIcSt11char_traitsIcESaIcEEEPSt6vectorIS5_SaIS5_EESt4lessIS5_ESaISt4pairIKS5_S9_EEE4findERSD_", scope: !760, file: !761, line: 1169, type: !911, scopeLine: 1169, flags: DIFlagPublic | DIFlagPrototyped, spFlags: 0)
!911 = !DISubroutineType(types: !912)
!912 = !{!819, !768, !853}
!913 = !DISubprogram(name: "find", linkageName: "_ZNKSt3mapINSt7__cxx1112basic_stringIcSt11char_traitsIcESaIcEEEPSt6vectorIS5_SaIS5_EESt4lessIS5_ESaISt4pairIKS5_S9_EEE4findERSD_", scope: !760, file: !761, line: 1194, type: !914, scopeLine: 1194, flags: DIFlagPublic | DIFlagPrototyped, spFlags: 0)
!914 = !DISubroutineType(types: !915)
!915 = !{!823, !815, !853}
!916 = !DISubprogram(name: "count", linkageName: "_ZNKSt3mapINSt7__cxx1112basic_stringIcSt11char_traitsIcESaIcEEEPSt6vectorIS5_SaIS5_EESt4lessIS5_ESaISt4pairIKS5_S9_EEE5countERSD_", scope: !760, file: !761, line: 1215, type: !917, scopeLine: 1215, flags: DIFlagPublic | DIFlagPrototyped, spFlags: 0)
!917 = !DISubroutineType(types: !918)
!918 = !{!846, !815, !853}
!919 = !DISubprogram(name: "lower_bound", linkageName: "_ZNSt3mapINSt7__cxx1112basic_stringIcSt11char_traitsIcESaIcEEEPSt6vectorIS5_SaIS5_EESt4lessIS5_ESaISt4pairIKS5_S9_EEE11lower_boundERSD_", scope: !760, file: !761, line: 1258, type: !911, scopeLine: 1258, flags: DIFlagPublic | DIFlagPrototyped, spFlags: 0)
!920 = !DISubprogram(name: "lower_bound", linkageName: "_ZNKSt3mapINSt7__cxx1112basic_stringIcSt11char_traitsIcESaIcEEEPSt6vectorIS5_SaIS5_EESt4lessIS5_ESaISt4pairIKS5_S9_EEE11lower_boundERSD_", scope: !760, file: !761, line: 1283, type: !914, scopeLine: 1283, flags: DIFlagPublic | DIFlagPrototyped, spFlags: 0)
!921 = !DISubprogram(name: "upper_bound", linkageName: "_ZNSt3mapINSt7__cxx1112basic_stringIcSt11char_traitsIcESaIcEEEPSt6vectorIS5_SaIS5_EESt4lessIS5_ESaISt4pairIKS5_S9_EEE11upper_boundERSD_", scope: !760, file: !761, line: 1303, type: !911, scopeLine: 1303, flags: DIFlagPublic | DIFlagPrototyped, spFlags: 0)
!922 = !DISubprogram(name: "upper_bound", linkageName: "_ZNKSt3mapINSt7__cxx1112basic_stringIcSt11char_traitsIcESaIcEEEPSt6vectorIS5_SaIS5_EESt4lessIS5_ESaISt4pairIKS5_S9_EEE11upper_boundERSD_", scope: !760, file: !761, line: 1323, type: !914, scopeLine: 1323, flags: DIFlagPublic | DIFlagPrototyped, spFlags: 0)
!923 = !DISubprogram(name: "equal_range", linkageName: "_ZNSt3mapINSt7__cxx1112basic_stringIcSt11char_traitsIcESaIcEEEPSt6vectorIS5_SaIS5_EESt4lessIS5_ESaISt4pairIKS5_S9_EEE11equal_rangeERSD_", scope: !760, file: !761, line: 1352, type: !924, scopeLine: 1352, flags: DIFlagPublic | DIFlagPrototyped, spFlags: 0)
!924 = !DISubroutineType(types: !925)
!925 = !{!676, !768, !853}
!926 = !DISubprogram(name: "equal_range", linkageName: "_ZNKSt3mapINSt7__cxx1112basic_stringIcSt11char_traitsIcESaIcEEEPSt6vectorIS5_SaIS5_EESt4lessIS5_ESaISt4pairIKS5_S9_EEE11equal_rangeERSD_", scope: !760, file: !761, line: 1381, type: !927, scopeLine: 1381, flags: DIFlagPublic | DIFlagPrototyped, spFlags: 0)
!927 = !DISubroutineType(types: !928)
!928 = !{!680, !815, !853}
!929 = !{!694, !930, !931, !698}
!930 = !DITemplateTypeParameter(name: "_Tp", type: !71)
!931 = !DITemplateTypeParameter(name: "_Compare", type: !297, defaulted: true)
!932 = !DIDerivedType(tag: DW_TAG_member, name: "m_used_entries", scope: !754, file: !755, line: 377, baseType: !933, size: 384, offset: 384, flags: DIFlagProtected)
!933 = distinct !DICompositeType(tag: DW_TAG_class_type, name: "map<void *, bool, std::less<void *>, std::allocator<std::pair<void *const, bool> > >", scope: !2, file: !761, line: 100, size: 384, flags: DIFlagTypePassByReference | DIFlagNonTrivial, elements: !934, templateParams: !1615, identifier: "_ZTSSt3mapIPvbSt4lessIS0_ESaISt4pairIKS0_bEEE")
!934 = !{!935, !1452, !1456, !1462, !1467, !1471, !1475, !1478, !1481, !1484, !1487, !1488, !1492, !1495, !1498, !1502, !1506, !1510, !1511, !1512, !1516, !1520, !1521, !1522, !1523, !1524, !1525, !1526, !1529, !1533, !1534, !1542, !1546, !1547, !1552, !1559, !1563, !1566, !1569, !1572, !1575, !1578, !1581, !1584, !1587, !1588, !1592, !1596, !1599, !1602, !1605, !1606, !1607, !1608, !1609, !1612}
!935 = !DIDerivedType(tag: DW_TAG_member, name: "_M_t", scope: !933, file: !761, line: 153, baseType: !936, size: 384)
!936 = !DIDerivedType(tag: DW_TAG_typedef, name: "_Rep_type", scope: !933, file: !761, line: 150, baseType: !937)
!937 = distinct !DICompositeType(tag: DW_TAG_class_type, name: "_Rb_tree<void *, std::pair<void *const, bool>, std::_Select1st<std::pair<void *const, bool> >, std::less<void *>, std::allocator<std::pair<void *const, bool> > >", scope: !2, file: !13, line: 425, size: 384, flags: DIFlagTypePassByReference | DIFlagNonTrivial, elements: !938, templateParams: !1446, identifier: "_ZTSSt8_Rb_treeIPvSt4pairIKS0_bESt10_Select1stIS3_ESt4lessIS0_ESaIS3_EE")
!938 = !{!939, !1213, !1218, !1225, !1229, !1233, !1236, !1237, !1238, !1241, !1244, !1245, !1246, !1247, !1248, !1251, !1252, !1256, !1259, !1260, !1264, !1267, !1270, !1271, !1272, !1275, !1279, !1283, !1284, !1285, !1291, !1292, !1297, !1298, !1303, !1306, !1309, !1313, !1314, !1317, !1320, !1321, !1322, !1325, !1330, !1333, !1336, !1339, !1343, !1346, !1349, !1352, !1355, !1356, !1360, !1363, !1366, !1369, !1370, !1371, !1376, !1381, !1382, !1383, !1386, !1389, !1390, !1393, !1396, !1399, !1402, !1405, !1409, !1412, !1413, !1416, !1419, !1422, !1423, !1424, !1425, !1426, !1430, !1434, !1435, !1438, !1441, !1444, !1445}
!939 = !DIDerivedType(tag: DW_TAG_member, name: "_M_impl", scope: !937, file: !13, line: 706, baseType: !940, size: 384, flags: DIFlagProtected)
!940 = distinct !DICompositeType(tag: DW_TAG_structure_type, name: "_Rb_tree_impl<std::less<void *>, true>", scope: !937, file: !13, line: 660, size: 384, flags: DIFlagTypePassByReference | DIFlagNonTrivial, elements: !941, templateParams: !1212, identifier: "_ZTSNSt8_Rb_treeIPvSt4pairIKS0_bESt10_Select1stIS3_ESt4lessIS0_ESaIS3_EE13_Rb_tree_implIS7_Lb1EEE")
!941 = !{!942, !1151, !1188, !1189, !1193, !1198, !1202, !1206, !1209}
!942 = !DIDerivedType(tag: DW_TAG_inheritance, scope: !940, baseType: !943, extraData: i32 0)
!943 = !DIDerivedType(tag: DW_TAG_typedef, name: "_Node_allocator", scope: !937, file: !13, line: 428, baseType: !944)
!944 = !DIDerivedType(tag: DW_TAG_typedef, name: "other", scope: !945, file: !33, line: 120, baseType: !1095)
!945 = distinct !DICompositeType(tag: DW_TAG_structure_type, name: "rebind<std::_Rb_tree_node<std::pair<void *const, bool> > >", scope: !946, file: !33, line: 119, size: 8, flags: DIFlagTypePassByValue, elements: !93, templateParams: !1048, identifier: "_ZTSN9__gnu_cxx14__alloc_traitsISaISt4pairIKPvbEES4_E6rebindISt13_Rb_tree_nodeIS4_EEE")
!946 = distinct !DICompositeType(tag: DW_TAG_structure_type, name: "__alloc_traits<std::allocator<std::pair<void *const, bool> >, std::pair<void *const, bool> >", scope: !36, file: !33, line: 48, size: 8, flags: DIFlagTypePassByValue, elements: !947, templateParams: !1046, identifier: "_ZTSN9__gnu_cxx14__alloc_traitsISaISt4pairIKPvbEES4_EE")
!947 = !{!948, !1032, !1037, !1041, !1042, !1043, !1044, !1045}
!948 = !DIDerivedType(tag: DW_TAG_inheritance, scope: !946, baseType: !949, extraData: i32 0)
!949 = distinct !DICompositeType(tag: DW_TAG_structure_type, name: "allocator_traits<std::allocator<std::pair<void *const, bool> > >", scope: !2, file: !40, line: 411, size: 8, flags: DIFlagTypePassByValue, elements: !950, templateParams: !1030, identifier: "_ZTSSt16allocator_traitsISaISt4pairIKPvbEEE")
!950 = !{!951, !1015, !1018, !1021, !1027}
!951 = !DISubprogram(name: "allocate", linkageName: "_ZNSt16allocator_traitsISaISt4pairIKPvbEEE8allocateERS4_m", scope: !949, file: !40, line: 463, type: !952, scopeLine: 463, flags: DIFlagPrototyped | DIFlagStaticMember, spFlags: 0)
!952 = !DISubroutineType(types: !953)
!953 = !{!954, !1012, !121}
!954 = !DIDerivedType(tag: DW_TAG_typedef, name: "pointer", scope: !949, file: !40, line: 420, baseType: !955)
!955 = !DIDerivedType(tag: DW_TAG_pointer_type, baseType: !956, size: 64)
!956 = distinct !DICompositeType(tag: DW_TAG_structure_type, name: "pair<void *const, bool>", scope: !2, file: !48, line: 211, size: 128, flags: DIFlagTypePassByValue | DIFlagNonTrivial, elements: !957, templateParams: !1009, identifier: "_ZTSSt4pairIKPvbE")
!957 = !{!958, !979, !980, !981, !987, !991, !999, !1006}
!958 = !DIDerivedType(tag: DW_TAG_inheritance, scope: !956, baseType: !959, flags: DIFlagPrivate, extraData: i32 0)
!959 = distinct !DICompositeType(tag: DW_TAG_class_type, name: "__pair_base<void *const, bool>", scope: !2, file: !48, line: 189, size: 8, flags: DIFlagTypePassByValue, elements: !960, templateParams: !975, identifier: "_ZTSSt11__pair_baseIKPvbE")
!960 = !{!961, !965, !966, !971}
!961 = !DISubprogram(name: "__pair_base", scope: !959, file: !48, line: 193, type: !962, scopeLine: 193, flags: DIFlagPrototyped, spFlags: 0)
!962 = !DISubroutineType(types: !963)
!963 = !{null, !964}
!964 = !DIDerivedType(tag: DW_TAG_pointer_type, baseType: !959, size: 64, flags: DIFlagArtificial | DIFlagObjectPointer)
!965 = !DISubprogram(name: "~__pair_base", scope: !959, file: !48, line: 194, type: !962, scopeLine: 194, flags: DIFlagPrototyped, spFlags: 0)
!966 = !DISubprogram(name: "__pair_base", scope: !959, file: !48, line: 195, type: !967, scopeLine: 195, flags: DIFlagPrototyped, spFlags: 0)
!967 = !DISubroutineType(types: !968)
!968 = !{null, !964, !969}
!969 = !DIDerivedType(tag: DW_TAG_reference_type, baseType: !970, size: 64)
!970 = !DIDerivedType(tag: DW_TAG_const_type, baseType: !959)
!971 = !DISubprogram(name: "operator=", linkageName: "_ZNSt11__pair_baseIKPvbEaSERKS2_", scope: !959, file: !48, line: 196, type: !972, scopeLine: 196, flags: DIFlagPrototyped, spFlags: DISPFlagDeleted)
!972 = !DISubroutineType(types: !973)
!973 = !{!974, !964, !969}
!974 = !DIDerivedType(tag: DW_TAG_reference_type, baseType: !959, size: 64)
!975 = !{!976, !978}
!976 = !DITemplateTypeParameter(name: "_U1", type: !977)
!977 = !DIDerivedType(tag: DW_TAG_const_type, baseType: !208)
!978 = !DITemplateTypeParameter(name: "_U2", type: !96)
!979 = !DIDerivedType(tag: DW_TAG_member, name: "first", scope: !956, file: !48, line: 217, baseType: !977, size: 64)
!980 = !DIDerivedType(tag: DW_TAG_member, name: "second", scope: !956, file: !48, line: 218, baseType: !96, size: 8, offset: 64)
!981 = !DISubprogram(name: "pair", scope: !956, file: !48, line: 314, type: !982, scopeLine: 314, flags: DIFlagPrototyped, spFlags: 0)
!982 = !DISubroutineType(types: !983)
!983 = !{null, !984, !985}
!984 = !DIDerivedType(tag: DW_TAG_pointer_type, baseType: !956, size: 64, flags: DIFlagArtificial | DIFlagObjectPointer)
!985 = !DIDerivedType(tag: DW_TAG_reference_type, baseType: !986, size: 64)
!986 = !DIDerivedType(tag: DW_TAG_const_type, baseType: !956)
!987 = !DISubprogram(name: "pair", scope: !956, file: !48, line: 315, type: !988, scopeLine: 315, flags: DIFlagPrototyped, spFlags: 0)
!988 = !DISubroutineType(types: !989)
!989 = !{null, !984, !990}
!990 = !DIDerivedType(tag: DW_TAG_rvalue_reference_type, baseType: !956, size: 64)
!991 = !DISubprogram(name: "operator=", linkageName: "_ZNSt4pairIKPvbEaSERKSt10__nonesuch", scope: !956, file: !48, line: 390, type: !992, scopeLine: 390, flags: DIFlagPrototyped, spFlags: 0)
!992 = !DISubroutineType(types: !993)
!993 = !{!994, !984, !995}
!994 = !DIDerivedType(tag: DW_TAG_reference_type, baseType: !956, size: 64)
!995 = !DIDerivedType(tag: DW_TAG_typedef, name: "type", scope: !996, file: !91, line: 2226, baseType: !99)
!996 = distinct !DICompositeType(tag: DW_TAG_structure_type, name: "conditional<false, const std::pair<void *const, bool> &, const std::__nonesuch &>", scope: !2, file: !91, line: 2225, size: 8, flags: DIFlagTypePassByValue, elements: !93, templateParams: !997, identifier: "_ZTSSt11conditionalILb0ERKSt4pairIKPvbERKSt10__nonesuchE")
!997 = !{!95, !998, !98}
!998 = !DITemplateTypeParameter(name: "_Iftrue", type: !985)
!999 = !DISubprogram(name: "operator=", linkageName: "_ZNSt4pairIKPvbEaSEOSt10__nonesuch", scope: !956, file: !48, line: 401, type: !1000, scopeLine: 401, flags: DIFlagPrototyped, spFlags: 0)
!1000 = !DISubroutineType(types: !1001)
!1001 = !{!994, !984, !1002}
!1002 = !DIDerivedType(tag: DW_TAG_typedef, name: "type", scope: !1003, file: !91, line: 2226, baseType: !110)
!1003 = distinct !DICompositeType(tag: DW_TAG_structure_type, name: "conditional<false, std::pair<void *const, bool> &&, std::__nonesuch &&>", scope: !2, file: !91, line: 2225, size: 8, flags: DIFlagTypePassByValue, elements: !93, templateParams: !1004, identifier: "_ZTSSt11conditionalILb0EOSt4pairIKPvbEOSt10__nonesuchE")
!1004 = !{!95, !1005, !109}
!1005 = !DITemplateTypeParameter(name: "_Iftrue", type: !990)
!1006 = !DISubprogram(name: "swap", linkageName: "_ZNSt4pairIKPvbE4swapERS2_", scope: !956, file: !48, line: 439, type: !1007, scopeLine: 439, flags: DIFlagPrototyped, spFlags: 0)
!1007 = !DISubroutineType(types: !1008)
!1008 = !{null, !984, !994}
!1009 = !{!1010, !1011}
!1010 = !DITemplateTypeParameter(name: "_T1", type: !977)
!1011 = !DITemplateTypeParameter(name: "_T2", type: !96)
!1012 = !DIDerivedType(tag: DW_TAG_reference_type, baseType: !1013, size: 64)
!1013 = !DIDerivedType(tag: DW_TAG_typedef, name: "allocator_type", scope: !949, file: !40, line: 414, baseType: !1014)
!1014 = !DICompositeType(tag: DW_TAG_class_type, name: "allocator<std::pair<void *const, bool> >", scope: !2, file: !120, line: 124, size: 8, flags: DIFlagFwdDecl | DIFlagNonTrivial, identifier: "_ZTSSaISt4pairIKPvbEE")
!1015 = !DISubprogram(name: "allocate", linkageName: "_ZNSt16allocator_traitsISaISt4pairIKPvbEEE8allocateERS4_mPKv", scope: !949, file: !40, line: 477, type: !1016, scopeLine: 477, flags: DIFlagPrototyped | DIFlagStaticMember, spFlags: 0)
!1016 = !DISubroutineType(types: !1017)
!1017 = !{!954, !1012, !121, !128}
!1018 = !DISubprogram(name: "deallocate", linkageName: "_ZNSt16allocator_traitsISaISt4pairIKPvbEEE10deallocateERS4_PS3_m", scope: !949, file: !40, line: 495, type: !1019, scopeLine: 495, flags: DIFlagPrototyped | DIFlagStaticMember, spFlags: 0)
!1019 = !DISubroutineType(types: !1020)
!1020 = !{null, !1012, !954, !121}
!1021 = !DISubprogram(name: "max_size", linkageName: "_ZNSt16allocator_traitsISaISt4pairIKPvbEEE8max_sizeERKS4_", scope: !949, file: !40, line: 547, type: !1022, scopeLine: 547, flags: DIFlagPrototyped | DIFlagStaticMember, spFlags: 0)
!1022 = !DISubroutineType(types: !1023)
!1023 = !{!1024, !1025}
!1024 = !DIDerivedType(tag: DW_TAG_typedef, name: "size_type", scope: !949, file: !40, line: 435, baseType: !122)
!1025 = !DIDerivedType(tag: DW_TAG_reference_type, baseType: !1026, size: 64)
!1026 = !DIDerivedType(tag: DW_TAG_const_type, baseType: !1013)
!1027 = !DISubprogram(name: "select_on_container_copy_construction", linkageName: "_ZNSt16allocator_traitsISaISt4pairIKPvbEEE37select_on_container_copy_constructionERKS4_", scope: !949, file: !40, line: 562, type: !1028, scopeLine: 562, flags: DIFlagPrototyped | DIFlagStaticMember, spFlags: 0)
!1028 = !DISubroutineType(types: !1029)
!1029 = !{!1013, !1025}
!1030 = !{!1031}
!1031 = !DITemplateTypeParameter(name: "_Alloc", type: !1014)
!1032 = !DISubprogram(name: "_S_select_on_copy", linkageName: "_ZN9__gnu_cxx14__alloc_traitsISaISt4pairIKPvbEES4_E17_S_select_on_copyERKS5_", scope: !946, file: !33, line: 97, type: !1033, scopeLine: 97, flags: DIFlagPrototyped | DIFlagStaticMember, spFlags: 0)
!1033 = !DISubroutineType(types: !1034)
!1034 = !{!1014, !1035}
!1035 = !DIDerivedType(tag: DW_TAG_reference_type, baseType: !1036, size: 64)
!1036 = !DIDerivedType(tag: DW_TAG_const_type, baseType: !1014)
!1037 = !DISubprogram(name: "_S_on_swap", linkageName: "_ZN9__gnu_cxx14__alloc_traitsISaISt4pairIKPvbEES4_E10_S_on_swapERS5_S7_", scope: !946, file: !33, line: 100, type: !1038, scopeLine: 100, flags: DIFlagPrototyped | DIFlagStaticMember, spFlags: 0)
!1038 = !DISubroutineType(types: !1039)
!1039 = !{null, !1040, !1040}
!1040 = !DIDerivedType(tag: DW_TAG_reference_type, baseType: !1014, size: 64)
!1041 = !DISubprogram(name: "_S_propagate_on_copy_assign", linkageName: "_ZN9__gnu_cxx14__alloc_traitsISaISt4pairIKPvbEES4_E27_S_propagate_on_copy_assignEv", scope: !946, file: !33, line: 103, type: !155, scopeLine: 103, flags: DIFlagPrototyped | DIFlagStaticMember, spFlags: 0)
!1042 = !DISubprogram(name: "_S_propagate_on_move_assign", linkageName: "_ZN9__gnu_cxx14__alloc_traitsISaISt4pairIKPvbEES4_E27_S_propagate_on_move_assignEv", scope: !946, file: !33, line: 106, type: !155, scopeLine: 106, flags: DIFlagPrototyped | DIFlagStaticMember, spFlags: 0)
!1043 = !DISubprogram(name: "_S_propagate_on_swap", linkageName: "_ZN9__gnu_cxx14__alloc_traitsISaISt4pairIKPvbEES4_E20_S_propagate_on_swapEv", scope: !946, file: !33, line: 109, type: !155, scopeLine: 109, flags: DIFlagPrototyped | DIFlagStaticMember, spFlags: 0)
!1044 = !DISubprogram(name: "_S_always_equal", linkageName: "_ZN9__gnu_cxx14__alloc_traitsISaISt4pairIKPvbEES4_E15_S_always_equalEv", scope: !946, file: !33, line: 112, type: !155, scopeLine: 112, flags: DIFlagPrototyped | DIFlagStaticMember, spFlags: 0)
!1045 = !DISubprogram(name: "_S_nothrow_move", linkageName: "_ZN9__gnu_cxx14__alloc_traitsISaISt4pairIKPvbEES4_E15_S_nothrow_moveEv", scope: !946, file: !33, line: 115, type: !155, scopeLine: 115, flags: DIFlagPrototyped | DIFlagStaticMember, spFlags: 0)
!1046 = !{!1031, !1047}
!1047 = !DITemplateTypeParameter(type: !956)
!1048 = !{!1049}
!1049 = !DITemplateTypeParameter(name: "_Tp", type: !1050)
!1050 = distinct !DICompositeType(tag: DW_TAG_structure_type, name: "_Rb_tree_node<std::pair<void *const, bool> >", scope: !2, file: !13, line: 216, size: 384, flags: DIFlagTypePassByValue, elements: !1051, templateParams: !1093, identifier: "_ZTSSt13_Rb_tree_nodeISt4pairIKPvbEE")
!1051 = !{!1052, !1053, !1084, !1088}
!1052 = !DIDerivedType(tag: DW_TAG_inheritance, scope: !1050, baseType: !168, extraData: i32 0)
!1053 = !DIDerivedType(tag: DW_TAG_member, name: "_M_storage", scope: !1050, file: !13, line: 231, baseType: !1054, size: 128, offset: 256)
!1054 = distinct !DICompositeType(tag: DW_TAG_structure_type, name: "__aligned_membuf<std::pair<void *const, bool> >", scope: !36, file: !189, line: 47, size: 128, flags: DIFlagTypePassByValue, elements: !1055, templateParams: !1082, identifier: "_ZTSN9__gnu_cxx16__aligned_membufISt4pairIKPvbEEE")
!1055 = !{!1056, !1060, !1064, !1067, !1070, !1075, !1078}
!1056 = !DIDerivedType(tag: DW_TAG_member, name: "_M_storage", scope: !1054, file: !189, line: 56, baseType: !1057, size: 128, align: 64)
!1057 = !DICompositeType(tag: DW_TAG_array_type, baseType: !193, size: 128, elements: !1058)
!1058 = !{!1059}
!1059 = !DISubrange(count: 16)
!1060 = !DISubprogram(name: "__aligned_membuf", scope: !1054, file: !189, line: 58, type: !1061, scopeLine: 58, flags: DIFlagPrototyped, spFlags: 0)
!1061 = !DISubroutineType(types: !1062)
!1062 = !{null, !1063}
!1063 = !DIDerivedType(tag: DW_TAG_pointer_type, baseType: !1054, size: 64, flags: DIFlagArtificial | DIFlagObjectPointer)
!1064 = !DISubprogram(name: "__aligned_membuf", scope: !1054, file: !189, line: 61, type: !1065, scopeLine: 61, flags: DIFlagPrototyped, spFlags: 0)
!1065 = !DISubroutineType(types: !1066)
!1066 = !{null, !1063, !203}
!1067 = !DISubprogram(name: "_M_addr", linkageName: "_ZN9__gnu_cxx16__aligned_membufISt4pairIKPvbEE7_M_addrEv", scope: !1054, file: !189, line: 64, type: !1068, scopeLine: 64, flags: DIFlagPrototyped, spFlags: 0)
!1068 = !DISubroutineType(types: !1069)
!1069 = !{!208, !1063}
!1070 = !DISubprogram(name: "_M_addr", linkageName: "_ZNK9__gnu_cxx16__aligned_membufISt4pairIKPvbEE7_M_addrEv", scope: !1054, file: !189, line: 68, type: !1071, scopeLine: 68, flags: DIFlagPrototyped, spFlags: 0)
!1071 = !DISubroutineType(types: !1072)
!1072 = !{!129, !1073}
!1073 = !DIDerivedType(tag: DW_TAG_pointer_type, baseType: !1074, size: 64, flags: DIFlagArtificial | DIFlagObjectPointer)
!1074 = !DIDerivedType(tag: DW_TAG_const_type, baseType: !1054)
!1075 = !DISubprogram(name: "_M_ptr", linkageName: "_ZN9__gnu_cxx16__aligned_membufISt4pairIKPvbEE6_M_ptrEv", scope: !1054, file: !189, line: 72, type: !1076, scopeLine: 72, flags: DIFlagPrototyped, spFlags: 0)
!1076 = !DISubroutineType(types: !1077)
!1077 = !{!955, !1063}
!1078 = !DISubprogram(name: "_M_ptr", linkageName: "_ZNK9__gnu_cxx16__aligned_membufISt4pairIKPvbEE6_M_ptrEv", scope: !1054, file: !189, line: 76, type: !1079, scopeLine: 76, flags: DIFlagPrototyped, spFlags: 0)
!1079 = !DISubroutineType(types: !1080)
!1080 = !{!1081, !1073}
!1081 = !DIDerivedType(tag: DW_TAG_pointer_type, baseType: !986, size: 64)
!1082 = !{!1083}
!1083 = !DITemplateTypeParameter(name: "_Tp", type: !956)
!1084 = !DISubprogram(name: "_M_valptr", linkageName: "_ZNSt13_Rb_tree_nodeISt4pairIKPvbEE9_M_valptrEv", scope: !1050, file: !13, line: 234, type: !1085, scopeLine: 234, flags: DIFlagPrototyped, spFlags: 0)
!1085 = !DISubroutineType(types: !1086)
!1086 = !{!955, !1087}
!1087 = !DIDerivedType(tag: DW_TAG_pointer_type, baseType: !1050, size: 64, flags: DIFlagArtificial | DIFlagObjectPointer)
!1088 = !DISubprogram(name: "_M_valptr", linkageName: "_ZNKSt13_Rb_tree_nodeISt4pairIKPvbEE9_M_valptrEv", scope: !1050, file: !13, line: 238, type: !1089, scopeLine: 238, flags: DIFlagPrototyped, spFlags: 0)
!1089 = !DISubroutineType(types: !1090)
!1090 = !{!1081, !1091}
!1091 = !DIDerivedType(tag: DW_TAG_pointer_type, baseType: !1092, size: 64, flags: DIFlagArtificial | DIFlagObjectPointer)
!1092 = !DIDerivedType(tag: DW_TAG_const_type, baseType: !1050)
!1093 = !{!1094}
!1094 = !DITemplateTypeParameter(name: "_Val", type: !956)
!1095 = !DIDerivedType(tag: DW_TAG_typedef, name: "rebind_alloc<std::_Rb_tree_node<std::pair<void *const, bool> > >", scope: !949, file: !40, line: 450, baseType: !1096)
!1096 = distinct !DICompositeType(tag: DW_TAG_class_type, name: "allocator<std::_Rb_tree_node<std::pair<void *const, bool> > >", scope: !2, file: !120, line: 124, size: 8, flags: DIFlagTypePassByReference | DIFlagNonTrivial, elements: !1097, templateParams: !1048, identifier: "_ZTSSaISt13_Rb_tree_nodeISt4pairIKPvbEEE")
!1097 = !{!1098, !1137, !1141, !1146, !1150}
!1098 = !DIDerivedType(tag: DW_TAG_inheritance, scope: !1096, baseType: !1099, flags: DIFlagPublic, extraData: i32 0)
!1099 = !DIDerivedType(tag: DW_TAG_typedef, name: "__allocator_base<std::_Rb_tree_node<std::pair<void *const, bool> > >", scope: !2, file: !239, line: 48, baseType: !1100)
!1100 = distinct !DICompositeType(tag: DW_TAG_class_type, name: "new_allocator<std::_Rb_tree_node<std::pair<void *const, bool> > >", scope: !36, file: !241, line: 55, size: 8, flags: DIFlagTypePassByReference | DIFlagNonTrivial, elements: !1101, templateParams: !1048, identifier: "_ZTSN9__gnu_cxx13new_allocatorISt13_Rb_tree_nodeISt4pairIKPvbEEEE")
!1101 = !{!1102, !1106, !1111, !1112, !1120, !1127, !1130, !1133, !1136}
!1102 = !DISubprogram(name: "new_allocator", scope: !1100, file: !241, line: 79, type: !1103, scopeLine: 79, flags: DIFlagPublic | DIFlagPrototyped, spFlags: 0)
!1103 = !DISubroutineType(types: !1104)
!1104 = !{null, !1105}
!1105 = !DIDerivedType(tag: DW_TAG_pointer_type, baseType: !1100, size: 64, flags: DIFlagArtificial | DIFlagObjectPointer)
!1106 = !DISubprogram(name: "new_allocator", scope: !1100, file: !241, line: 82, type: !1107, scopeLine: 82, flags: DIFlagPublic | DIFlagPrototyped, spFlags: 0)
!1107 = !DISubroutineType(types: !1108)
!1108 = !{null, !1105, !1109}
!1109 = !DIDerivedType(tag: DW_TAG_reference_type, baseType: !1110, size: 64)
!1110 = !DIDerivedType(tag: DW_TAG_const_type, baseType: !1100)
!1111 = !DISubprogram(name: "~new_allocator", scope: !1100, file: !241, line: 89, type: !1103, scopeLine: 89, flags: DIFlagPublic | DIFlagPrototyped, spFlags: 0)
!1112 = !DISubprogram(name: "address", linkageName: "_ZNK9__gnu_cxx13new_allocatorISt13_Rb_tree_nodeISt4pairIKPvbEEE7addressERS6_", scope: !1100, file: !241, line: 92, type: !1113, scopeLine: 92, flags: DIFlagPublic | DIFlagPrototyped, spFlags: 0)
!1113 = !DISubroutineType(types: !1114)
!1114 = !{!1115, !1117, !1118}
!1115 = !DIDerivedType(tag: DW_TAG_typedef, name: "pointer", scope: !1100, file: !241, line: 62, baseType: !1116, flags: DIFlagPublic)
!1116 = !DIDerivedType(tag: DW_TAG_pointer_type, baseType: !1050, size: 64)
!1117 = !DIDerivedType(tag: DW_TAG_pointer_type, baseType: !1110, size: 64, flags: DIFlagArtificial | DIFlagObjectPointer)
!1118 = !DIDerivedType(tag: DW_TAG_typedef, name: "reference", scope: !1100, file: !241, line: 64, baseType: !1119, flags: DIFlagPublic)
!1119 = !DIDerivedType(tag: DW_TAG_reference_type, baseType: !1050, size: 64)
!1120 = !DISubprogram(name: "address", linkageName: "_ZNK9__gnu_cxx13new_allocatorISt13_Rb_tree_nodeISt4pairIKPvbEEE7addressERKS6_", scope: !1100, file: !241, line: 96, type: !1121, scopeLine: 96, flags: DIFlagPublic | DIFlagPrototyped, spFlags: 0)
!1121 = !DISubroutineType(types: !1122)
!1122 = !{!1123, !1117, !1125}
!1123 = !DIDerivedType(tag: DW_TAG_typedef, name: "const_pointer", scope: !1100, file: !241, line: 63, baseType: !1124, flags: DIFlagPublic)
!1124 = !DIDerivedType(tag: DW_TAG_pointer_type, baseType: !1092, size: 64)
!1125 = !DIDerivedType(tag: DW_TAG_typedef, name: "const_reference", scope: !1100, file: !241, line: 65, baseType: !1126, flags: DIFlagPublic)
!1126 = !DIDerivedType(tag: DW_TAG_reference_type, baseType: !1092, size: 64)
!1127 = !DISubprogram(name: "allocate", linkageName: "_ZN9__gnu_cxx13new_allocatorISt13_Rb_tree_nodeISt4pairIKPvbEEE8allocateEmPKv", scope: !1100, file: !241, line: 103, type: !1128, scopeLine: 103, flags: DIFlagPublic | DIFlagPrototyped, spFlags: 0)
!1128 = !DISubroutineType(types: !1129)
!1129 = !{!1116, !1105, !271, !129}
!1130 = !DISubprogram(name: "deallocate", linkageName: "_ZN9__gnu_cxx13new_allocatorISt13_Rb_tree_nodeISt4pairIKPvbEEE10deallocateEPS6_m", scope: !1100, file: !241, line: 132, type: !1131, scopeLine: 132, flags: DIFlagPublic | DIFlagPrototyped, spFlags: 0)
!1131 = !DISubroutineType(types: !1132)
!1132 = !{null, !1105, !1116, !271}
!1133 = !DISubprogram(name: "max_size", linkageName: "_ZNK9__gnu_cxx13new_allocatorISt13_Rb_tree_nodeISt4pairIKPvbEEE8max_sizeEv", scope: !1100, file: !241, line: 154, type: !1134, scopeLine: 154, flags: DIFlagPublic | DIFlagPrototyped, spFlags: 0)
!1134 = !DISubroutineType(types: !1135)
!1135 = !{!271, !1117}
!1136 = !DISubprogram(name: "_M_max_size", linkageName: "_ZNK9__gnu_cxx13new_allocatorISt13_Rb_tree_nodeISt4pairIKPvbEEE11_M_max_sizeEv", scope: !1100, file: !241, line: 197, type: !1134, scopeLine: 197, flags: DIFlagPrototyped, spFlags: 0)
!1137 = !DISubprogram(name: "allocator", scope: !1096, file: !120, line: 156, type: !1138, scopeLine: 156, flags: DIFlagPublic | DIFlagPrototyped, spFlags: 0)
!1138 = !DISubroutineType(types: !1139)
!1139 = !{null, !1140}
!1140 = !DIDerivedType(tag: DW_TAG_pointer_type, baseType: !1096, size: 64, flags: DIFlagArtificial | DIFlagObjectPointer)
!1141 = !DISubprogram(name: "allocator", scope: !1096, file: !120, line: 159, type: !1142, scopeLine: 159, flags: DIFlagPublic | DIFlagPrototyped, spFlags: 0)
!1142 = !DISubroutineType(types: !1143)
!1143 = !{null, !1140, !1144}
!1144 = !DIDerivedType(tag: DW_TAG_reference_type, baseType: !1145, size: 64)
!1145 = !DIDerivedType(tag: DW_TAG_const_type, baseType: !1096)
!1146 = !DISubprogram(name: "operator=", linkageName: "_ZNSaISt13_Rb_tree_nodeISt4pairIKPvbEEEaSERKS5_", scope: !1096, file: !120, line: 164, type: !1147, scopeLine: 164, flags: DIFlagPublic | DIFlagPrototyped, spFlags: 0)
!1147 = !DISubroutineType(types: !1148)
!1148 = !{!1149, !1140, !1144}
!1149 = !DIDerivedType(tag: DW_TAG_reference_type, baseType: !1096, size: 64)
!1150 = !DISubprogram(name: "~allocator", scope: !1096, file: !120, line: 174, type: !1138, scopeLine: 174, flags: DIFlagPublic | DIFlagPrototyped, spFlags: 0)
!1151 = !DIDerivedType(tag: DW_TAG_inheritance, scope: !940, baseType: !1152, extraData: i32 0)
!1152 = distinct !DICompositeType(tag: DW_TAG_structure_type, name: "_Rb_tree_key_compare<std::less<void *> >", scope: !2, file: !13, line: 142, size: 8, flags: DIFlagTypePassByReference | DIFlagNonTrivial, elements: !1153, templateParams: !1186, identifier: "_ZTSSt20_Rb_tree_key_compareISt4lessIPvEE")
!1153 = !{!1154, !1169, !1173, !1177, !1182}
!1154 = !DIDerivedType(tag: DW_TAG_member, name: "_M_key_compare", scope: !1152, file: !13, line: 144, baseType: !1155, size: 8)
!1155 = distinct !DICompositeType(tag: DW_TAG_structure_type, name: "less<void *>", scope: !2, file: !298, line: 444, size: 8, flags: DIFlagTypePassByValue, elements: !1156, templateParams: !1167, identifier: "_ZTSSt4lessIPvE")
!1156 = !{!1157, !1162}
!1157 = !DIDerivedType(tag: DW_TAG_inheritance, scope: !1155, baseType: !1158, extraData: i32 0)
!1158 = distinct !DICompositeType(tag: DW_TAG_structure_type, name: "binary_function<void *, void *, bool>", scope: !2, file: !298, line: 131, size: 8, flags: DIFlagTypePassByValue, elements: !93, templateParams: !1159, identifier: "_ZTSSt15binary_functionIPvS0_bE")
!1159 = !{!1160, !1161, !305}
!1160 = !DITemplateTypeParameter(name: "_Arg1", type: !208)
!1161 = !DITemplateTypeParameter(name: "_Arg2", type: !208)
!1162 = !DISubprogram(name: "operator()", linkageName: "_ZNKSt4lessIPvEclES0_S0_", scope: !1155, file: !298, line: 447, type: !1163, scopeLine: 447, flags: DIFlagPrototyped, spFlags: 0)
!1163 = !DISubroutineType(types: !1164)
!1164 = !{!96, !1165, !208, !208}
!1165 = !DIDerivedType(tag: DW_TAG_pointer_type, baseType: !1166, size: 64, flags: DIFlagArtificial | DIFlagObjectPointer)
!1166 = !DIDerivedType(tag: DW_TAG_const_type, baseType: !1155)
!1167 = !{!1168}
!1168 = !DITemplateTypeParameter(name: "_Tp", type: !208)
!1169 = !DISubprogram(name: "_Rb_tree_key_compare", scope: !1152, file: !13, line: 146, type: !1170, scopeLine: 146, flags: DIFlagPrototyped, spFlags: 0)
!1170 = !DISubroutineType(types: !1171)
!1171 = !{null, !1172}
!1172 = !DIDerivedType(tag: DW_TAG_pointer_type, baseType: !1152, size: 64, flags: DIFlagArtificial | DIFlagObjectPointer)
!1173 = !DISubprogram(name: "_Rb_tree_key_compare", scope: !1152, file: !13, line: 152, type: !1174, scopeLine: 152, flags: DIFlagPrototyped, spFlags: 0)
!1174 = !DISubroutineType(types: !1175)
!1175 = !{null, !1172, !1176}
!1176 = !DIDerivedType(tag: DW_TAG_reference_type, baseType: !1166, size: 64)
!1177 = !DISubprogram(name: "_Rb_tree_key_compare", scope: !1152, file: !13, line: 158, type: !1178, scopeLine: 158, flags: DIFlagPrototyped, spFlags: 0)
!1178 = !DISubroutineType(types: !1179)
!1179 = !{null, !1172, !1180}
!1180 = !DIDerivedType(tag: DW_TAG_reference_type, baseType: !1181, size: 64)
!1181 = !DIDerivedType(tag: DW_TAG_const_type, baseType: !1152)
