; ModuleID = '/home/raj/SVF_PAPER_BENCHMARKS/parsec-3.0/pkgs/apps/raytrace/src/RTTL/BVH/Builder/OnDemandBuilder.cxx'
source_filename = "/home/raj/SVF_PAPER_BENCHMARKS/parsec-3.0/pkgs/apps/raytrace/src/RTTL/BVH/Builder/OnDemandBuilder.cxx"
target datalayout = "e-m:e-p270:32:32-p271:32:32-p272:64:64-i64:64-f80:128-n8:16:32:64-S128"
target triple = "x86_64-unknown-linux-gnu"

%"class.std::ios_base::Init" = type { i8 }
%struct.sse_f = type { [4 x float] }
%"class.RTTL::AABB" = type { %"class.RTTL::RTBox3a" }
%"class.RTTL::RTBox3a" = type { %"class.RTTL::RTBox_t" }
%"class.RTTL::RTBox_t" = type { %"class.RTTL::RTVec_t", %"class.RTTL::RTVec_t" }
%"class.RTTL::RTVec_t" = type { %"struct.RTTL::RTData_t" }
%"struct.RTTL::RTData_t" = type { [1 x %struct.sse_f] }
%"class.std::basic_ostream" = type { ptr, %"class.std::basic_ios" }
%"class.std::basic_ios" = type { %"class.std::ios_base", ptr, i8, i8, ptr, ptr, ptr, ptr }
%"class.std::ios_base" = type { ptr, i64, i64, i32, i32, i32, ptr, %"struct.std::ios_base::_Words", [8 x %"struct.std::ios_base::_Words"], i32, ptr, %"class.std::locale" }
%"struct.std::ios_base::_Words" = type { ptr, i64 }
%"class.std::locale" = type { ptr }
%"class.RTTL::CentroidDiffAABB" = type { %"class.RTTL::RTBox3a" }
%"class.RTTL::BVHBuilder" = type { ptr, ptr }
%"class.RTTL::OnDemandBuilder" = type { %"class.RTTL::BVHBuilder", ptr }
%"struct.RTTL::BVH" = type { ptr, ptr, ptr, i32, ptr }
%"struct.RTTL::BVHExtData" = type { %union.anon }
%union.anon = type { %union.anon.0 }
%union.anon.0 = type { i32 }
%struct.sse_i = type { %union.anon.3 }
%union.anon.3 = type { [4 x i32] }
%"class.RTTL::RTBox_t.1" = type { %"class.RTTL::RTVec_t.2", %"class.RTTL::RTVec_t.2" }
%"class.RTTL::RTVec_t.2" = type { float, float, float }
%struct.anon = type { i8, i8, i16 }

$_ZN4RTTL4AABBC2Ev = comdat any

$_Z12aligned_freeIN4RTTL16CentroidDiffAABBEEvPT_ = comdat any

$_Z14aligned_mallocIN4RTTL16CentroidDiffAABBEEPT_i = comdat any

$_ZN4RTTL16CentroidDiffAABBC2ERKNS_7RTBox3aE = comdat any

$_ZN4RTTL16CentroidDiffAABBaSERKS0_ = comdat any

$_ZN4RTTL4AABBaSERKS0_ = comdat any

$_ZN4RTTL4AABBC2ERKS0_ = comdat any

$_ZNK4RTTL16CentroidDiffAABB8centroidEv = comdat any

$_ZSt3minIiERKT_S2_S2_ = comdat any

$_ZNK4RTTL16CentroidDiffAABB8centroidEi = comdat any

$_ZN5sse_fC2Ev = comdat any

$_ZN4RTTL7RTBox3aC2Ev = comdat any

$_ZN4RTTL7RTBox_tILi1E5sse_fLi0EEC2Ev = comdat any

$_ZN4RTTL7RTVec_tILi1E5sse_fLi0EEC2Ev = comdat any

$_ZN4RTTL8RTData_tILi1E5sse_fLi0EEC2Ev = comdat any

$_ZN4RTTL7RTVec_tILi1E5sse_fLi0EEixEi = comdat any

$_ZNK4RTTL7RTVec_tILi1E5sse_fLi0EEixEi = comdat any

$_ZN4RTTL7RTBox3aaSERKS0_ = comdat any

$_ZN4RTTL7RTVec_tILi1E5sse_fLi0EEcvRNS_8RTData_tILi1ES1_Li0EEEEv = comdat any

$_ZNK4RTTL7RTVec_tILi1E5sse_fLi0EEcvRKNS_8RTData_tILi1ES1_Li0EEEEv = comdat any

$_ZN4RTTL8RTData_tILi1E5sse_fLi0EE9nElementsEv = comdat any

$_ZN4RTTL7RTBox3aC2ERKS0_ = comdat any

$_ZN4RTTL7RTBox_tILi1E5sse_fLi0EEC2ERKS2_ = comdat any

$_ZN4RTTL7RTVec_tILi1E5sse_fLi0EEcvPS1_Ev = comdat any

$_ZN4RTTL7RTVec_tILi1E5sse_fLi0EE5arrayEv = comdat any

$_ZNK4RTTL7RTVec_tILi1E5sse_fLi0EE5arrayEv = comdat any

$_ZN4RTTL7RTBox_tILi3EfLi0EEC2ERKNS_7RTVec_tILi3EfLi0EEES5_ = comdat any

$_ZNK4RTTL7RTVec_tILi3EfLi0EEixEi = comdat any

$_ZNK4RTTL7RTVec_tILi3EfLi0EE4dataEv = comdat any

$_ZNK4RTTL16CentroidDiffAABB7convertEv = comdat any

$_ZN5sse_iC2Ev = comdat any

$_ZTSN4RTTL10BVHBuilderE = comdat any

$_ZTIN4RTTL10BVHBuilderE = comdat any

@_ZStL8__ioinit = internal global %"class.std::ios_base::Init" zeroinitializer, align 1, !dbg !0
@__dso_handle = external hidden global i8
@_ZL8maxFloat = internal global %struct.sse_f zeroinitializer, align 4, !dbg !7
@_ZN4RTTL15OnDemandBuilder8binCountE = dso_local global [3 x [32 x i32]] zeroinitializer, align 64, !dbg !569
@_ZN4RTTL15OnDemandBuilder9binBoundsE = dso_local global [3 x [32 x %"class.RTTL::AABB"]] zeroinitializer, align 64, !dbg !612
@_ZN4RTTL15OnDemandBuilder8rightBoxE = dso_local global [33 x %"class.RTTL::AABB"] zeroinitializer, align 64, !dbg !614
@nextFree = dso_local global i32 1, align 64, !dbg !616
@_ZSt4cout = external global %"class.std::basic_ostream", align 8
@__PRETTY_FUNCTION__._ZN4RTTL15OnDemandBuilder5buildERKNS_7RTBox3aES3_ = private unnamed_addr constant [78 x i8] c"virtual void RTTL::OnDemandBuilder::build(const RTBoxSSE &, const RTBoxSSE &)\00", align 1, !dbg !618
@.str = private unnamed_addr constant [9 x i8] c"numAABBs\00", align 1, !dbg !624
@.str.4 = private unnamed_addr constant [4 x i8] c" = \00", align 1, !dbg !629
@.str.5 = private unnamed_addr constant [21 x i8] c"bvh[nodeID].isLazy()\00", align 1, !dbg !632
@.str.6 = private unnamed_addr constant [102 x i8] c"/home/raj/SVF_PAPER_BENCHMARKS/parsec-3.0/pkgs/apps/raytrace/src/RTTL/BVH/Builder/OnDemandBuilder.cxx\00", align 1, !dbg !637
@__PRETTY_FUNCTION__._ZN4RTTL15OnDemandBuilder10createNodeEPNS_4AABBEPii = private unnamed_addr constant [69 x i8] c"void RTTL::OnDemandBuilder::createNode(AABB *const, int *const, int)\00", align 1, !dbg !642
@_ZN4RTTLL7maxBinsE = internal constant i32 32, align 4, !dbg !662
@_ZTVN4RTTL15OnDemandBuilderE = dso_local unnamed_addr constant { [3 x ptr] } { [3 x ptr] [ptr null, ptr @_ZTIN4RTTL15OnDemandBuilderE, ptr @_ZN4RTTL15OnDemandBuilder5buildERKNS_7RTBox3aES3_] }, align 8
@_ZTVN10__cxxabiv120__si_class_type_infoE = external global ptr
@_ZTSN4RTTL15OnDemandBuilderE = dso_local constant [25 x i8] c"N4RTTL15OnDemandBuilderE\00", align 1
@_ZTVN10__cxxabiv117__class_type_infoE = external global ptr
@_ZTSN4RTTL10BVHBuilderE = linkonce_odr dso_local constant [20 x i8] c"N4RTTL10BVHBuilderE\00", comdat, align 1
@_ZTIN4RTTL10BVHBuilderE = linkonce_odr dso_local constant { ptr, ptr } { ptr getelementptr inbounds (ptr, ptr @_ZTVN10__cxxabiv117__class_type_infoE, i64 2), ptr @_ZTSN4RTTL10BVHBuilderE }, comdat, align 8
@_ZTIN4RTTL15OnDemandBuilderE = dso_local constant { ptr, ptr, ptr } { ptr getelementptr inbounds (ptr, ptr @_ZTVN10__cxxabiv120__si_class_type_infoE, i64 2), ptr @_ZTSN4RTTL15OnDemandBuilderE, ptr @_ZTIN4RTTL10BVHBuilderE }, align 8
@.str.7 = private unnamed_addr constant [29 x i8] c"nElements() <= v.nElements()\00", align 1, !dbg !647
@.str.8 = private unnamed_addr constant [88 x i8] c"/home/raj/SVF_PAPER_BENCHMARKS/parsec-3.0/pkgs/apps/raytrace/src/RTTL/common/RTData.hxx\00", align 1, !dbg !652
@__PRETTY_FUNCTION__._ZN4RTTL8RTData_tILi1E5sse_fLi0EE6assignILi1ES1_Li0EEEvRKNS0_IXT_ET0_XT1_EEE = private unnamed_addr constant [191 x i8] c"void RTTL::RTData_t<1, sse_f>::assign(const RTData_t<AnotherN, AnotherDataType, AnotherAlign> &) [N = 1, DataType = sse_f, align = 0, AnotherN = 1, AnotherDataType = sse_f, AnotherAlign = 0]\00", align 1, !dbg !657
@llvm.global_ctors = appending global [1 x { i32, ptr, ptr }] [{ i32, ptr, ptr } { i32 65535, ptr @_GLOBAL__sub_I_OnDemandBuilder.cxx, ptr null }]

; Function Attrs: noinline uwtable
define internal void @__cxx_global_var_init() #0 section ".text.startup" !dbg !1880 {
  call void @_ZNSt8ios_base4InitC1Ev(ptr noundef nonnull align 1 dereferenceable(1) @_ZStL8__ioinit), !dbg !1882
  %1 = call i32 @__cxa_atexit(ptr @_ZNSt8ios_base4InitD1Ev, ptr @_ZStL8__ioinit, ptr @__dso_handle) #3, !dbg !1884
  ret void, !dbg !1882
}

declare void @_ZNSt8ios_base4InitC1Ev(ptr noundef nonnull align 1 dereferenceable(1)) unnamed_addr #1

; Function Attrs: nounwind
declare void @_ZNSt8ios_base4InitD1Ev(ptr noundef nonnull align 1 dereferenceable(1)) unnamed_addr #2

; Function Attrs: nounwind
declare i32 @__cxa_atexit(ptr, ptr, ptr) #3

; Function Attrs: noinline uwtable
define internal void @__cxx_global_var_init.1() #4 section ".text.startup" !dbg !1885 {
  %1 = alloca %struct.sse_f, align 4
  %2 = alloca float, align 4
  %3 = alloca i32, align 4
  store float 0x47EFFFFFE0000000, ptr %2, align 4
  call void @llvm.dbg.declare(metadata ptr %2, metadata !1886, metadata !DIExpression()), !dbg !1890
  call void @llvm.dbg.declare(metadata ptr %1, metadata !1893, metadata !DIExpression()), !dbg !1894
  call void @_ZN5sse_fC2Ev(ptr noundef nonnull align 4 dereferenceable(16) %1), !dbg !1894
  call void @llvm.dbg.declare(metadata ptr %3, metadata !1895, metadata !DIExpression()), !dbg !1897
  store i32 0, ptr %3, align 4, !dbg !1897
  br label %4, !dbg !1898

4:                                                ; preds = %7, %0
  %5 = load i32, ptr %3, align 4, !dbg !1899
  %6 = icmp slt i32 %5, 4, !dbg !1901
  br i1 %6, label %7, label %14, !dbg !1902

7:                                                ; preds = %4
  %8 = load float, ptr %2, align 4, !dbg !1903
  %9 = load i32, ptr %3, align 4, !dbg !1904
  %10 = sext i32 %9 to i64, !dbg !1905
  %11 = getelementptr inbounds [4 x float], ptr %1, i64 0, i64 %10, !dbg !1905
  store float %8, ptr %11, align 4, !dbg !1906
  %12 = load i32, ptr %3, align 4, !dbg !1907
  %13 = add nsw i32 %12, 1, !dbg !1907
  store i32 %13, ptr %3, align 4, !dbg !1907
  br label %4, !dbg !1908, !llvm.loop !1909

14:                                               ; preds = %4
  %15 = load { <2 x float>, <2 x float> }, ptr %1, align 4, !dbg !1912
  %16 = extractvalue { <2 x float>, <2 x float> } %15, 0, !dbg !1913
  store <2 x float> %16, ptr @_ZL8maxFloat, align 4, !dbg !1913
  %17 = extractvalue { <2 x float>, <2 x float> } %15, 1, !dbg !1913
  store <2 x float> %17, ptr getelementptr inbounds ({ <2 x float>, <2 x float> }, ptr @_ZL8maxFloat, i32 0, i32 1), align 4, !dbg !1913
  ret void, !dbg !1914
}

; Function Attrs: noinline uwtable
define internal void @__cxx_global_var_init.2() #0 section ".text.startup" !dbg !1915 {
  br label %1, !dbg !1916

1:                                                ; preds = %1, %0
  %2 = phi ptr [ @_ZN4RTTL15OnDemandBuilder9binBoundsE, %0 ], [ %3, %1 ], !dbg !1916
  call void @_ZN4RTTL4AABBC2Ev(ptr noundef nonnull align 4 dereferenceable(32) %2), !dbg !1916
  %3 = getelementptr inbounds %"class.RTTL::AABB", ptr %2, i64 1, !dbg !1916
  %4 = icmp eq ptr %3, getelementptr inbounds (%"class.RTTL::AABB", ptr @_ZN4RTTL15OnDemandBuilder9binBoundsE, i64 96), !dbg !1916
  br i1 %4, label %5, label %1, !dbg !1916

5:                                                ; preds = %1
  ret void, !dbg !1916
}

; Function Attrs: noinline optnone uwtable
define linkonce_odr dso_local void @_ZN4RTTL4AABBC2Ev(ptr noundef nonnull align 4 dereferenceable(32) %0) unnamed_addr #5 comdat align 2 !dbg !1918 {
  %2 = alloca ptr, align 8
  store ptr %0, ptr %2, align 8
  call void @llvm.dbg.declare(metadata ptr %2, metadata !1919, metadata !DIExpression()), !dbg !1920
  %3 = load ptr, ptr %2, align 8
  call void @_ZN4RTTL7RTBox3aC2Ev(ptr noundef nonnull align 4 dereferenceable(32) %3), !dbg !1921
  ret void, !dbg !1922
}

; Function Attrs: noinline uwtable
define internal void @__cxx_global_var_init.3() #0 section ".text.startup" !dbg !1923 {
  br label %1, !dbg !1924

1:                                                ; preds = %1, %0
  %2 = phi ptr [ @_ZN4RTTL15OnDemandBuilder8rightBoxE, %0 ], [ %3, %1 ], !dbg !1924
  call void @_ZN4RTTL4AABBC2Ev(ptr noundef nonnull align 4 dereferenceable(32) %2), !dbg !1924
  %3 = getelementptr inbounds %"class.RTTL::AABB", ptr %2, i64 1, !dbg !1924
  %4 = icmp eq ptr %3, getelementptr inbounds (%"class.RTTL::AABB", ptr @_ZN4RTTL15OnDemandBuilder8rightBoxE, i64 33), !dbg !1924
  br i1 %4, label %5, label %1, !dbg !1924

5:                                                ; preds = %1
  ret void, !dbg !1924
}

; Function Attrs: mustprogress noinline optnone uwtable
define dso_local void @_ZN4RTTL15OnDemandBuilder5buildERKNS_7RTBox3aES3_(ptr noundef nonnull align 8 dereferenceable(24) %0, ptr noundef nonnull align 4 dereferenceable(32) %1, ptr noundef nonnull align 4 dereferenceable(32) %2) unnamed_addr #6 align 2 !dbg !1926 {
  %4 = alloca %struct.sse_f, align 4
  %5 = alloca %struct.sse_f, align 4
  %6 = alloca %struct.sse_f, align 4
  %7 = alloca i32, align 4
  %8 = alloca %struct.sse_f, align 4
  %9 = alloca %struct.sse_f, align 4
  %10 = alloca %struct.sse_f, align 4
  %11 = alloca %struct.sse_f, align 4
  %12 = alloca %struct.sse_f, align 4
  %13 = alloca %struct.sse_f, align 4
  %14 = alloca %struct.sse_f, align 4
  %15 = alloca %struct.sse_f, align 4
  %16 = alloca i32, align 4
  %17 = alloca %struct.sse_f, align 4
  %18 = alloca %struct.sse_f, align 4
  %19 = alloca %struct.sse_f, align 4
  %20 = alloca %struct.sse_f, align 4
  %21 = alloca %struct.sse_f, align 4
  %22 = alloca ptr, align 8
  %23 = alloca i32, align 4
  %24 = alloca ptr, align 8
  %25 = alloca i32, align 4
  %26 = alloca ptr, align 8
  %27 = alloca ptr, align 8
  %28 = alloca ptr, align 8
  %29 = alloca i32, align 4
  %30 = alloca %struct.sse_f, align 4
  %31 = alloca %struct.sse_f, align 4
  %32 = alloca %struct.sse_f, align 4
  %33 = alloca ptr, align 8
  %34 = alloca i32, align 4
  %35 = alloca ptr, align 8
  %36 = alloca i32, align 4
  %37 = alloca ptr, align 8
  %38 = alloca ptr, align 8
  %39 = alloca ptr, align 8
  %40 = alloca i32, align 4
  %41 = alloca %struct.sse_f, align 4
  %42 = alloca %struct.sse_f, align 4
  %43 = alloca %struct.sse_f, align 4
  %44 = alloca ptr, align 8
  %45 = alloca ptr, align 8
  %46 = alloca ptr, align 8
  %47 = alloca i32, align 4
  %48 = alloca i32, align 4
  %49 = alloca ptr, align 8
  %50 = alloca ptr, align 8
  %51 = alloca ptr, align 8
  %52 = alloca ptr, align 8
  %53 = alloca ptr, align 8
  %54 = alloca ptr, align 8
  %55 = alloca i32, align 4
  %56 = alloca %"class.RTTL::AABB", align 4
  %57 = alloca i32, align 4
  %58 = alloca %"class.RTTL::CentroidDiffAABB", align 4
  store ptr %0, ptr %51, align 8
  call void @llvm.dbg.declare(metadata ptr %51, metadata !1927, metadata !DIExpression()), !dbg !1929
  store ptr %1, ptr %52, align 8
  call void @llvm.dbg.declare(metadata ptr %52, metadata !1930, metadata !DIExpression()), !dbg !1931
  store ptr %2, ptr %53, align 8
  call void @llvm.dbg.declare(metadata ptr %53, metadata !1932, metadata !DIExpression()), !dbg !1933
  %59 = load ptr, ptr %51, align 8
  %60 = call noundef nonnull align 8 dereferenceable(8) ptr @_ZStlsISt11char_traitsIcEERSt13basic_ostreamIcT_ES5_PKc(ptr noundef nonnull align 8 dereferenceable(8) @_ZSt4cout, ptr noundef @__PRETTY_FUNCTION__._ZN4RTTL15OnDemandBuilder5buildERKNS_7RTBox3aES3_), !dbg !1934
  %61 = call noundef nonnull align 8 dereferenceable(8) ptr @_ZNSolsEPFRSoS_E(ptr noundef nonnull align 8 dereferenceable(8) %60, ptr noundef @_ZSt5flushIcSt11char_traitsIcEERSt13basic_ostreamIT_T0_ES6_), !dbg !1934
  %62 = call noundef nonnull align 8 dereferenceable(8) ptr @_ZNSolsEPFRSoS_E(ptr noundef nonnull align 8 dereferenceable(8) %61, ptr noundef @_ZSt4endlIcSt11char_traitsIcEERSt13basic_ostreamIT_T0_ES6_), !dbg !1934
  call void @llvm.dbg.declare(metadata ptr %54, metadata !1935, metadata !DIExpression()), !dbg !1936
  %63 = getelementptr inbounds %"class.RTTL::BVHBuilder", ptr %59, i32 0, i32 1, !dbg !1937
  %64 = load ptr, ptr %63, align 8, !dbg !1937
  %65 = load ptr, ptr %64, align 8, !dbg !1938
  %66 = getelementptr inbounds ptr, ptr %65, i64 1, !dbg !1938
  %67 = load ptr, ptr %66, align 8, !dbg !1938
  %68 = call noundef ptr %67(ptr noundef nonnull align 8 dereferenceable(40) %64), !dbg !1938
  store ptr %68, ptr %54, align 8, !dbg !1936
  call void @llvm.dbg.declare(metadata ptr %55, metadata !1939, metadata !DIExpression()), !dbg !1940
  %69 = getelementptr inbounds %"class.RTTL::BVHBuilder", ptr %59, i32 0, i32 1, !dbg !1941
  %70 = load ptr, ptr %69, align 8, !dbg !1941
  %71 = load ptr, ptr %70, align 8, !dbg !1942
  %72 = getelementptr inbounds ptr, ptr %71, i64 3, !dbg !1942
  %73 = load ptr, ptr %72, align 8, !dbg !1942
  %74 = call noundef i32 %73(ptr noundef nonnull align 8 dereferenceable(40) %70), !dbg !1942
  store i32 %74, ptr %55, align 4, !dbg !1940
  %75 = getelementptr inbounds %"class.RTTL::BVHBuilder", ptr %59, i32 0, i32 1, !dbg !1943
  %76 = load ptr, ptr %75, align 8, !dbg !1943
  %77 = load i32, ptr %55, align 4, !dbg !1944
  call void @_ZN4RTTL3BVH7reserveEi(ptr noundef nonnull align 8 dereferenceable(40) %76, i32 noundef %77), !dbg !1945
  %78 = getelementptr inbounds %"class.RTTL::OnDemandBuilder", ptr %59, i32 0, i32 1, !dbg !1946
  %79 = load ptr, ptr %78, align 8, !dbg !1946
  %80 = icmp ne ptr %79, null, !dbg !1946
  br i1 %80, label %81, label %84, !dbg !1948

81:                                               ; preds = %3
  %82 = getelementptr inbounds %"class.RTTL::OnDemandBuilder", ptr %59, i32 0, i32 1, !dbg !1949
  %83 = load ptr, ptr %82, align 8, !dbg !1949
  call void @_Z12aligned_freeIN4RTTL16CentroidDiffAABBEEvPT_(ptr noundef %83), !dbg !1950
  br label %84, !dbg !1950

84:                                               ; preds = %81, %3
  %85 = load i32, ptr %55, align 4, !dbg !1951
  %86 = call noundef ptr @_Z14aligned_mallocIN4RTTL16CentroidDiffAABBEEPT_i(i32 noundef %85), !dbg !1952
  %87 = getelementptr inbounds %"class.RTTL::OnDemandBuilder", ptr %59, i32 0, i32 1, !dbg !1953
  store ptr %86, ptr %87, align 8, !dbg !1954
  call void @llvm.dbg.declare(metadata ptr %56, metadata !1955, metadata !DIExpression()), !dbg !1956
  call void @_ZN4RTTL4AABBC2Ev(ptr noundef nonnull align 4 dereferenceable(32) %56), !dbg !1956
  call void @llvm.dbg.declare(metadata ptr %57, metadata !1957, metadata !DIExpression()), !dbg !1959
  store i32 0, ptr %57, align 4, !dbg !1959
  br label %88, !dbg !1960

88:                                               ; preds = %284, %84
  %89 = load i32, ptr %57, align 4, !dbg !1961
  %90 = load i32, ptr %55, align 4, !dbg !1963
  %91 = icmp slt i32 %89, %90, !dbg !1964
  br i1 %91, label %92, label %287, !dbg !1965

92:                                               ; preds = %88
  %93 = load i32, ptr %57, align 4, !dbg !1966
  %94 = getelementptr inbounds %"class.RTTL::BVHBuilder", ptr %59, i32 0, i32 1, !dbg !1968
  %95 = load ptr, ptr %94, align 8, !dbg !1968
  %96 = getelementptr inbounds %"struct.RTTL::BVH", ptr %95, i32 0, i32 2, !dbg !1969
  %97 = load ptr, ptr %96, align 8, !dbg !1969
  %98 = load i32, ptr %57, align 4, !dbg !1970
  %99 = sext i32 %98 to i64, !dbg !1968
  %100 = getelementptr inbounds i32, ptr %97, i64 %99, !dbg !1968
  store i32 %93, ptr %100, align 4, !dbg !1971
  call void @llvm.dbg.declare(metadata ptr %58, metadata !1972, metadata !DIExpression()), !dbg !1973
  %101 = load ptr, ptr %54, align 8, !dbg !1974
  %102 = load i32, ptr %57, align 4, !dbg !1975
  %103 = sext i32 %102 to i64, !dbg !1974
  %104 = getelementptr inbounds %"class.RTTL::AABB", ptr %101, i64 %103, !dbg !1974
  call void @_ZN4RTTL16CentroidDiffAABBC2ERKNS_7RTBox3aE(ptr noundef nonnull align 4 dereferenceable(32) %58, ptr noundef nonnull align 4 dereferenceable(32) %104), !dbg !1974
  %105 = load ptr, ptr %54, align 8, !dbg !1976
  %106 = load i32, ptr %57, align 4, !dbg !1977
  %107 = sext i32 %106 to i64, !dbg !1976
  %108 = getelementptr inbounds %"class.RTTL::AABB", ptr %105, i64 %107, !dbg !1976
  store ptr %56, ptr %49, align 8
  call void @llvm.dbg.declare(metadata ptr %49, metadata !1978, metadata !DIExpression()), !dbg !1981
  store ptr %108, ptr %50, align 8
  call void @llvm.dbg.declare(metadata ptr %50, metadata !1983, metadata !DIExpression()), !dbg !1984
  %109 = load ptr, ptr %49, align 8
  %110 = load ptr, ptr %50, align 8, !dbg !1985
  store ptr %109, ptr %37, align 8
  call void @llvm.dbg.declare(metadata ptr %37, metadata !1986, metadata !DIExpression()), !dbg !1989
  store ptr %110, ptr %38, align 8
  call void @llvm.dbg.declare(metadata ptr %38, metadata !1991, metadata !DIExpression()), !dbg !1992
  %111 = load ptr, ptr %37, align 8
  call void @llvm.dbg.declare(metadata ptr %39, metadata !1993, metadata !DIExpression()), !dbg !1994
  %112 = call noundef nonnull align 4 dereferenceable(16) ptr @_ZN4RTTL7RTVec_tILi1E5sse_fLi0EEcvRNS_8RTData_tILi1ES1_Li0EEEEv(ptr noundef nonnull align 4 dereferenceable(16) %111), !dbg !1995
  store ptr %112, ptr %39, align 8, !dbg !1994
  call void @llvm.dbg.declare(metadata ptr %40, metadata !1996, metadata !DIExpression()), !dbg !1998
  store i32 0, ptr %40, align 4, !dbg !1998
  br label %113, !dbg !1999

113:                                              ; preds = %175, %92
  %114 = load i32, ptr %40, align 4, !dbg !2000
  %115 = icmp slt i32 %114, 1, !dbg !2002
  br i1 %115, label %116, label %192, !dbg !2003

116:                                              ; preds = %113
  %117 = load ptr, ptr %39, align 8, !dbg !2004
  %118 = load i32, ptr %40, align 4, !dbg !2005
  store ptr %117, ptr %33, align 8
  call void @llvm.dbg.declare(metadata ptr %33, metadata !2006, metadata !DIExpression()), !dbg !2009
  store i32 %118, ptr %34, align 4
  call void @llvm.dbg.declare(metadata ptr %34, metadata !2011, metadata !DIExpression()), !dbg !2012
  %119 = load ptr, ptr %33, align 8
  %120 = load i32, ptr %34, align 4, !dbg !2013
  %121 = sext i32 %120 to i64, !dbg !2014
  %122 = getelementptr inbounds [1 x %struct.sse_f], ptr %119, i64 0, i64 %121, !dbg !2014
  call void @llvm.memcpy.p0.p0.i64(ptr align 4 %42, ptr align 4 %122, i64 16, i1 false), !dbg !2004
  %123 = load ptr, ptr %38, align 8, !dbg !2015
  %124 = load i32, ptr %40, align 4, !dbg !2016
  %125 = call { <2 x float>, <2 x float> } @_ZNK4RTTL7RTVec_tILi1E5sse_fLi0EEixEi(ptr noundef nonnull align 4 dereferenceable(16) %123, i32 noundef %124), !dbg !2015
  %126 = extractvalue { <2 x float>, <2 x float> } %125, 0, !dbg !2015
  store <2 x float> %126, ptr %43, align 4, !dbg !2015
  %127 = getelementptr inbounds { <2 x float>, <2 x float> }, ptr %43, i32 0, i32 1, !dbg !2015
  %128 = extractvalue { <2 x float>, <2 x float> } %125, 1, !dbg !2015
  store <2 x float> %128, ptr %127, align 4, !dbg !2015
  %129 = load <2 x float>, ptr %42, align 4, !dbg !2017
  %130 = getelementptr inbounds { <2 x float>, <2 x float> }, ptr %42, i32 0, i32 1, !dbg !2017
  %131 = load <2 x float>, ptr %130, align 4, !dbg !2017
  %132 = load <2 x float>, ptr %43, align 4, !dbg !2017
  %133 = getelementptr inbounds { <2 x float>, <2 x float> }, ptr %43, i32 0, i32 1, !dbg !2017
  %134 = load <2 x float>, ptr %133, align 4, !dbg !2017
  store <2 x float> %129, ptr %18, align 4
  %135 = getelementptr inbounds { <2 x float>, <2 x float> }, ptr %18, i32 0, i32 1
  store <2 x float> %131, ptr %135, align 4
  store <2 x float> %132, ptr %19, align 4
  %136 = getelementptr inbounds { <2 x float>, <2 x float> }, ptr %19, i32 0, i32 1
  store <2 x float> %134, ptr %136, align 4
  call void @llvm.dbg.declare(metadata ptr %18, metadata !2018, metadata !DIExpression()), !dbg !2022
  call void @llvm.dbg.declare(metadata ptr %19, metadata !2024, metadata !DIExpression()), !dbg !2025
  call void @llvm.memcpy.p0.p0.i64(ptr align 4 %20, ptr align 4 %18, i64 16, i1 false), !dbg !2026
  call void @llvm.memcpy.p0.p0.i64(ptr align 4 %21, ptr align 4 %19, i64 16, i1 false), !dbg !2027
  %137 = load <2 x float>, ptr %20, align 4, !dbg !2028
  %138 = getelementptr inbounds { <2 x float>, <2 x float> }, ptr %20, i32 0, i32 1, !dbg !2028
  %139 = load <2 x float>, ptr %138, align 4, !dbg !2028
  %140 = load <2 x float>, ptr %21, align 4, !dbg !2028
  %141 = getelementptr inbounds { <2 x float>, <2 x float> }, ptr %21, i32 0, i32 1, !dbg !2028
  %142 = load <2 x float>, ptr %141, align 4, !dbg !2028
  store <2 x float> %137, ptr %14, align 4
  %143 = getelementptr inbounds { <2 x float>, <2 x float> }, ptr %14, i32 0, i32 1
  store <2 x float> %139, ptr %143, align 4
  store <2 x float> %140, ptr %15, align 4
  %144 = getelementptr inbounds { <2 x float>, <2 x float> }, ptr %15, i32 0, i32 1
  store <2 x float> %142, ptr %144, align 4
  call void @llvm.dbg.declare(metadata ptr %14, metadata !2029, metadata !DIExpression()), !dbg !2031
  call void @llvm.dbg.declare(metadata ptr %15, metadata !2033, metadata !DIExpression()), !dbg !2034
  call void @llvm.dbg.declare(metadata ptr %13, metadata !2035, metadata !DIExpression()), !dbg !2036
  call void @_ZN5sse_fC2Ev(ptr noundef nonnull align 4 dereferenceable(16) %13), !dbg !2036
  call void @llvm.dbg.declare(metadata ptr %16, metadata !2037, metadata !DIExpression()), !dbg !2039
  store i32 0, ptr %16, align 4, !dbg !2039
  br label %145, !dbg !2040

145:                                              ; preds = %168, %116
  %146 = load i32, ptr %16, align 4, !dbg !2041
  %147 = icmp slt i32 %146, 4, !dbg !2043
  br i1 %147, label %148, label %175, !dbg !2044

148:                                              ; preds = %145
  %149 = load i32, ptr %16, align 4, !dbg !2045
  %150 = sext i32 %149 to i64, !dbg !2045
  %151 = getelementptr inbounds [4 x float], ptr %14, i64 0, i64 %150, !dbg !2045
  %152 = load float, ptr %151, align 4, !dbg !2045
  %153 = load i32, ptr %16, align 4, !dbg !2045
  %154 = sext i32 %153 to i64, !dbg !2045
  %155 = getelementptr inbounds [4 x float], ptr %15, i64 0, i64 %154, !dbg !2045
  %156 = load float, ptr %155, align 4, !dbg !2045
  %157 = fcmp olt float %152, %156, !dbg !2045
  br i1 %157, label %158, label %163, !dbg !2045

158:                                              ; preds = %148
  %159 = load i32, ptr %16, align 4, !dbg !2045
  %160 = sext i32 %159 to i64, !dbg !2045
  %161 = getelementptr inbounds [4 x float], ptr %14, i64 0, i64 %160, !dbg !2045
  %162 = load float, ptr %161, align 4, !dbg !2045
  br label %168, !dbg !2045

163:                                              ; preds = %148
  %164 = load i32, ptr %16, align 4, !dbg !2045
  %165 = sext i32 %164 to i64, !dbg !2045
  %166 = getelementptr inbounds [4 x float], ptr %15, i64 0, i64 %165, !dbg !2045
  %167 = load float, ptr %166, align 4, !dbg !2045
  br label %168, !dbg !2045

168:                                              ; preds = %163, %158
  %169 = phi float [ %162, %158 ], [ %167, %163 ], !dbg !2045
  %170 = load i32, ptr %16, align 4, !dbg !2046
  %171 = sext i32 %170 to i64, !dbg !2046
  %172 = getelementptr inbounds [4 x float], ptr %13, i64 0, i64 %171, !dbg !2046
  store float %169, ptr %172, align 4, !dbg !2047
  %173 = load i32, ptr %16, align 4, !dbg !2048
  %174 = add nsw i32 %173, 1, !dbg !2048
  store i32 %174, ptr %16, align 4, !dbg !2048
  br label %145, !dbg !2049, !llvm.loop !2050

175:                                              ; preds = %145
  %176 = load { <2 x float>, <2 x float> }, ptr %13, align 4, !dbg !2052
  %177 = extractvalue { <2 x float>, <2 x float> } %176, 0, !dbg !2028
  store <2 x float> %177, ptr %17, align 4, !dbg !2028
  %178 = getelementptr inbounds { <2 x float>, <2 x float> }, ptr %17, i32 0, i32 1, !dbg !2028
  %179 = extractvalue { <2 x float>, <2 x float> } %176, 1, !dbg !2028
  store <2 x float> %179, ptr %178, align 4, !dbg !2028
  %180 = load { <2 x float>, <2 x float> }, ptr %17, align 4, !dbg !2053
  %181 = extractvalue { <2 x float>, <2 x float> } %180, 0, !dbg !2017
  store <2 x float> %181, ptr %41, align 4, !dbg !2017
  %182 = getelementptr inbounds { <2 x float>, <2 x float> }, ptr %41, i32 0, i32 1, !dbg !2017
  %183 = extractvalue { <2 x float>, <2 x float> } %180, 1, !dbg !2017
  store <2 x float> %183, ptr %182, align 4, !dbg !2017
  %184 = load ptr, ptr %39, align 8, !dbg !2054
  %185 = load i32, ptr %40, align 4, !dbg !2055
  store ptr %184, ptr %35, align 8
  call void @llvm.dbg.declare(metadata ptr %35, metadata !2006, metadata !DIExpression()), !dbg !2056
  store i32 %185, ptr %36, align 4
  call void @llvm.dbg.declare(metadata ptr %36, metadata !2011, metadata !DIExpression()), !dbg !2058
  %186 = load ptr, ptr %35, align 8
  %187 = load i32, ptr %36, align 4, !dbg !2059
  %188 = sext i32 %187 to i64, !dbg !2060
  %189 = getelementptr inbounds [1 x %struct.sse_f], ptr %186, i64 0, i64 %188, !dbg !2060
  call void @llvm.memcpy.p0.p0.i64(ptr align 4 %189, ptr align 4 %41, i64 16, i1 false), !dbg !2061
  %190 = load i32, ptr %40, align 4, !dbg !2062
  %191 = add nsw i32 %190, 1, !dbg !2062
  store i32 %191, ptr %40, align 4, !dbg !2062
  br label %113, !dbg !2063, !llvm.loop !2064

192:                                              ; preds = %113
  %193 = getelementptr inbounds %"class.RTTL::RTBox_t", ptr %109, i32 0, i32 1, !dbg !2066
  %194 = load ptr, ptr %50, align 8, !dbg !2067
  %195 = getelementptr inbounds %"class.RTTL::RTBox_t", ptr %194, i32 0, i32 1, !dbg !2068
  store ptr %193, ptr %26, align 8
  call void @llvm.dbg.declare(metadata ptr %26, metadata !2069, metadata !DIExpression()), !dbg !2071
  store ptr %195, ptr %27, align 8
  call void @llvm.dbg.declare(metadata ptr %27, metadata !2073, metadata !DIExpression()), !dbg !2074
  %196 = load ptr, ptr %26, align 8
  call void @llvm.dbg.declare(metadata ptr %28, metadata !2075, metadata !DIExpression()), !dbg !2076
  %197 = call noundef nonnull align 4 dereferenceable(16) ptr @_ZN4RTTL7RTVec_tILi1E5sse_fLi0EEcvRNS_8RTData_tILi1ES1_Li0EEEEv(ptr noundef nonnull align 4 dereferenceable(16) %196), !dbg !2077
  store ptr %197, ptr %28, align 8, !dbg !2076
  call void @llvm.dbg.declare(metadata ptr %29, metadata !2078, metadata !DIExpression()), !dbg !2080
  store i32 0, ptr %29, align 4, !dbg !2080
  br label %198, !dbg !2081

198:                                              ; preds = %260, %192
  %199 = load i32, ptr %29, align 4, !dbg !2082
  %200 = icmp slt i32 %199, 1, !dbg !2084
  br i1 %200, label %201, label %277, !dbg !2085

201:                                              ; preds = %198
  %202 = load ptr, ptr %28, align 8, !dbg !2086
  %203 = load i32, ptr %29, align 4, !dbg !2087
  store ptr %202, ptr %22, align 8
  call void @llvm.dbg.declare(metadata ptr %22, metadata !2006, metadata !DIExpression()), !dbg !2088
  store i32 %203, ptr %23, align 4
  call void @llvm.dbg.declare(metadata ptr %23, metadata !2011, metadata !DIExpression()), !dbg !2090
  %204 = load ptr, ptr %22, align 8
  %205 = load i32, ptr %23, align 4, !dbg !2091
  %206 = sext i32 %205 to i64, !dbg !2092
  %207 = getelementptr inbounds [1 x %struct.sse_f], ptr %204, i64 0, i64 %206, !dbg !2092
  call void @llvm.memcpy.p0.p0.i64(ptr align 4 %31, ptr align 4 %207, i64 16, i1 false), !dbg !2086
  %208 = load ptr, ptr %27, align 8, !dbg !2093
  %209 = load i32, ptr %29, align 4, !dbg !2094
  %210 = call { <2 x float>, <2 x float> } @_ZNK4RTTL7RTVec_tILi1E5sse_fLi0EEixEi(ptr noundef nonnull align 4 dereferenceable(16) %208, i32 noundef %209), !dbg !2093
  %211 = extractvalue { <2 x float>, <2 x float> } %210, 0, !dbg !2093
  store <2 x float> %211, ptr %32, align 4, !dbg !2093
  %212 = getelementptr inbounds { <2 x float>, <2 x float> }, ptr %32, i32 0, i32 1, !dbg !2093
  %213 = extractvalue { <2 x float>, <2 x float> } %210, 1, !dbg !2093
  store <2 x float> %213, ptr %212, align 4, !dbg !2093
  %214 = load <2 x float>, ptr %31, align 4, !dbg !2095
  %215 = getelementptr inbounds { <2 x float>, <2 x float> }, ptr %31, i32 0, i32 1, !dbg !2095
  %216 = load <2 x float>, ptr %215, align 4, !dbg !2095
  %217 = load <2 x float>, ptr %32, align 4, !dbg !2095
  %218 = getelementptr inbounds { <2 x float>, <2 x float> }, ptr %32, i32 0, i32 1, !dbg !2095
  %219 = load <2 x float>, ptr %218, align 4, !dbg !2095
  store <2 x float> %214, ptr %9, align 4
  %220 = getelementptr inbounds { <2 x float>, <2 x float> }, ptr %9, i32 0, i32 1
  store <2 x float> %216, ptr %220, align 4
  store <2 x float> %217, ptr %10, align 4
  %221 = getelementptr inbounds { <2 x float>, <2 x float> }, ptr %10, i32 0, i32 1
  store <2 x float> %219, ptr %221, align 4
  call void @llvm.dbg.declare(metadata ptr %9, metadata !2096, metadata !DIExpression()), !dbg !2098
  call void @llvm.dbg.declare(metadata ptr %10, metadata !2100, metadata !DIExpression()), !dbg !2101
  call void @llvm.memcpy.p0.p0.i64(ptr align 4 %11, ptr align 4 %9, i64 16, i1 false), !dbg !2102
  call void @llvm.memcpy.p0.p0.i64(ptr align 4 %12, ptr align 4 %10, i64 16, i1 false), !dbg !2103
  %222 = load <2 x float>, ptr %11, align 4, !dbg !2104
  %223 = getelementptr inbounds { <2 x float>, <2 x float> }, ptr %11, i32 0, i32 1, !dbg !2104
  %224 = load <2 x float>, ptr %223, align 4, !dbg !2104
  %225 = load <2 x float>, ptr %12, align 4, !dbg !2104
  %226 = getelementptr inbounds { <2 x float>, <2 x float> }, ptr %12, i32 0, i32 1, !dbg !2104
  %227 = load <2 x float>, ptr %226, align 4, !dbg !2104
  store <2 x float> %222, ptr %5, align 4
  %228 = getelementptr inbounds { <2 x float>, <2 x float> }, ptr %5, i32 0, i32 1
  store <2 x float> %224, ptr %228, align 4
  store <2 x float> %225, ptr %6, align 4
  %229 = getelementptr inbounds { <2 x float>, <2 x float> }, ptr %6, i32 0, i32 1
  store <2 x float> %227, ptr %229, align 4
  call void @llvm.dbg.declare(metadata ptr %5, metadata !2105, metadata !DIExpression()), !dbg !2107
  call void @llvm.dbg.declare(metadata ptr %6, metadata !2109, metadata !DIExpression()), !dbg !2110
  call void @llvm.dbg.declare(metadata ptr %4, metadata !2111, metadata !DIExpression()), !dbg !2112
  call void @_ZN5sse_fC2Ev(ptr noundef nonnull align 4 dereferenceable(16) %4), !dbg !2112
  call void @llvm.dbg.declare(metadata ptr %7, metadata !2113, metadata !DIExpression()), !dbg !2115
  store i32 0, ptr %7, align 4, !dbg !2115
  br label %230, !dbg !2116

230:                                              ; preds = %253, %201
  %231 = load i32, ptr %7, align 4, !dbg !2117
  %232 = icmp slt i32 %231, 4, !dbg !2119
  br i1 %232, label %233, label %260, !dbg !2120

233:                                              ; preds = %230
  %234 = load i32, ptr %7, align 4, !dbg !2121
  %235 = sext i32 %234 to i64, !dbg !2121
  %236 = getelementptr inbounds [4 x float], ptr %5, i64 0, i64 %235, !dbg !2121
  %237 = load float, ptr %236, align 4, !dbg !2121
  %238 = load i32, ptr %7, align 4, !dbg !2121
  %239 = sext i32 %238 to i64, !dbg !2121
  %240 = getelementptr inbounds [4 x float], ptr %6, i64 0, i64 %239, !dbg !2121
  %241 = load float, ptr %240, align 4, !dbg !2121
  %242 = fcmp ogt float %237, %241, !dbg !2121
  br i1 %242, label %243, label %248, !dbg !2121

243:                                              ; preds = %233
  %244 = load i32, ptr %7, align 4, !dbg !2121
  %245 = sext i32 %244 to i64, !dbg !2121
  %246 = getelementptr inbounds [4 x float], ptr %5, i64 0, i64 %245, !dbg !2121
  %247 = load float, ptr %246, align 4, !dbg !2121
  br label %253, !dbg !2121

248:                                              ; preds = %233
  %249 = load i32, ptr %7, align 4, !dbg !2121
  %250 = sext i32 %249 to i64, !dbg !2121
  %251 = getelementptr inbounds [4 x float], ptr %6, i64 0, i64 %250, !dbg !2121
  %252 = load float, ptr %251, align 4, !dbg !2121
  br label %253, !dbg !2121

253:                                              ; preds = %248, %243
  %254 = phi float [ %247, %243 ], [ %252, %248 ], !dbg !2121
  %255 = load i32, ptr %7, align 4, !dbg !2122
  %256 = sext i32 %255 to i64, !dbg !2122
  %257 = getelementptr inbounds [4 x float], ptr %4, i64 0, i64 %256, !dbg !2122
  store float %254, ptr %257, align 4, !dbg !2123
  %258 = load i32, ptr %7, align 4, !dbg !2124
  %259 = add nsw i32 %258, 1, !dbg !2124
  store i32 %259, ptr %7, align 4, !dbg !2124
  br label %230, !dbg !2125, !llvm.loop !2126

260:                                              ; preds = %230
  %261 = load { <2 x float>, <2 x float> }, ptr %4, align 4, !dbg !2128
  %262 = extractvalue { <2 x float>, <2 x float> } %261, 0, !dbg !2104
  store <2 x float> %262, ptr %8, align 4, !dbg !2104
  %263 = getelementptr inbounds { <2 x float>, <2 x float> }, ptr %8, i32 0, i32 1, !dbg !2104
  %264 = extractvalue { <2 x float>, <2 x float> } %261, 1, !dbg !2104
  store <2 x float> %264, ptr %263, align 4, !dbg !2104
  %265 = load { <2 x float>, <2 x float> }, ptr %8, align 4, !dbg !2129
  %266 = extractvalue { <2 x float>, <2 x float> } %265, 0, !dbg !2095
  store <2 x float> %266, ptr %30, align 4, !dbg !2095
  %267 = getelementptr inbounds { <2 x float>, <2 x float> }, ptr %30, i32 0, i32 1, !dbg !2095
  %268 = extractvalue { <2 x float>, <2 x float> } %265, 1, !dbg !2095
  store <2 x float> %268, ptr %267, align 4, !dbg !2095
  %269 = load ptr, ptr %28, align 8, !dbg !2130
  %270 = load i32, ptr %29, align 4, !dbg !2131
  store ptr %269, ptr %24, align 8
  call void @llvm.dbg.declare(metadata ptr %24, metadata !2006, metadata !DIExpression()), !dbg !2132
  store i32 %270, ptr %25, align 4
  call void @llvm.dbg.declare(metadata ptr %25, metadata !2011, metadata !DIExpression()), !dbg !2134
  %271 = load ptr, ptr %24, align 8
  %272 = load i32, ptr %25, align 4, !dbg !2135
  %273 = sext i32 %272 to i64, !dbg !2136
  %274 = getelementptr inbounds [1 x %struct.sse_f], ptr %271, i64 0, i64 %273, !dbg !2136
  call void @llvm.memcpy.p0.p0.i64(ptr align 4 %274, ptr align 4 %30, i64 16, i1 false), !dbg !2137
  %275 = load i32, ptr %29, align 4, !dbg !2138
  %276 = add nsw i32 %275, 1, !dbg !2138
  store i32 %276, ptr %29, align 4, !dbg !2138
  br label %198, !dbg !2139, !llvm.loop !2140

277:                                              ; preds = %198
  %278 = getelementptr inbounds %"class.RTTL::OnDemandBuilder", ptr %59, i32 0, i32 1, !dbg !2142
  %279 = load ptr, ptr %278, align 8, !dbg !2142
  %280 = load i32, ptr %57, align 4, !dbg !2143
  %281 = sext i32 %280 to i64, !dbg !2142
  %282 = getelementptr inbounds %"class.RTTL::CentroidDiffAABB", ptr %279, i64 %281, !dbg !2142
  %283 = call noundef nonnull align 4 dereferenceable(32) ptr @_ZN4RTTL16CentroidDiffAABBaSERKS0_(ptr noundef nonnull align 4 dereferenceable(32) %282, ptr noundef nonnull align 4 dereferenceable(32) %58), !dbg !2144
  br label %284, !dbg !2145

284:                                              ; preds = %277
  %285 = load i32, ptr %57, align 4, !dbg !2146
  %286 = add nsw i32 %285, 1, !dbg !2146
  store i32 %286, ptr %57, align 4, !dbg !2146
  br label %88, !dbg !2147, !llvm.loop !2148

287:                                              ; preds = %88
  %288 = call noundef nonnull align 8 dereferenceable(8) ptr @_ZStlsISt11char_traitsIcEERSt13basic_ostreamIcT_ES5_PKc(ptr noundef nonnull align 8 dereferenceable(8) @_ZSt4cout, ptr noundef @.str), !dbg !2150
  %289 = call noundef nonnull align 8 dereferenceable(8) ptr @_ZStlsISt11char_traitsIcEERSt13basic_ostreamIcT_ES5_PKc(ptr noundef nonnull align 8 dereferenceable(8) %288, ptr noundef @.str.4), !dbg !2150
  %290 = load i32, ptr %55, align 4, !dbg !2150
  %291 = call noundef nonnull align 8 dereferenceable(8) ptr @_ZNSolsEi(ptr noundef nonnull align 8 dereferenceable(8) %289, i32 noundef %290), !dbg !2150
  %292 = call noundef nonnull align 8 dereferenceable(8) ptr @_ZNSolsEPFRSoS_E(ptr noundef nonnull align 8 dereferenceable(8) %291, ptr noundef @_ZSt5flushIcSt11char_traitsIcEERSt13basic_ostreamIT_T0_ES6_), !dbg !2150
  %293 = call noundef nonnull align 8 dereferenceable(8) ptr @_ZNSolsEPFRSoS_E(ptr noundef nonnull align 8 dereferenceable(8) %292, ptr noundef @_ZSt4endlIcSt11char_traitsIcEERSt13basic_ostreamIT_T0_ES6_), !dbg !2150
  %294 = getelementptr inbounds %"class.RTTL::BVHBuilder", ptr %59, i32 0, i32 1, !dbg !2151
  %295 = load ptr, ptr %294, align 8, !dbg !2151
  %296 = getelementptr inbounds %"struct.RTTL::BVH", ptr %295, i32 0, i32 1, !dbg !2152
  %297 = load ptr, ptr %296, align 8, !dbg !2152
  %298 = getelementptr inbounds %"class.RTTL::AABB", ptr %297, i64 0, !dbg !2151
  %299 = call noundef nonnull align 4 dereferenceable(32) ptr @_ZN4RTTL4AABBaSERKS0_(ptr noundef nonnull align 4 dereferenceable(32) %298, ptr noundef nonnull align 4 dereferenceable(32) %56), !dbg !2153
  %300 = getelementptr inbounds %"class.RTTL::BVHBuilder", ptr %59, i32 0, i32 1, !dbg !2154
  %301 = load ptr, ptr %300, align 8, !dbg !2154
  %302 = getelementptr inbounds %"struct.RTTL::BVH", ptr %301, i32 0, i32 1, !dbg !2155
  %303 = load ptr, ptr %302, align 8, !dbg !2155
  %304 = getelementptr inbounds %"class.RTTL::AABB", ptr %303, i64 0, !dbg !2154
  %305 = load i32, ptr %55, align 4, !dbg !2156
  store ptr %304, ptr %46, align 8
  call void @llvm.dbg.declare(metadata ptr %46, metadata !2157, metadata !DIExpression()), !dbg !2159
  store i32 0, ptr %47, align 4
  call void @llvm.dbg.declare(metadata ptr %47, metadata !2161, metadata !DIExpression()), !dbg !2162
  store i32 %305, ptr %48, align 4
  call void @llvm.dbg.declare(metadata ptr %48, metadata !2163, metadata !DIExpression()), !dbg !2164
  %306 = load ptr, ptr %46, align 8
  %307 = load i32, ptr %47, align 4, !dbg !2165
  %308 = or i32 %307, -2147483648, !dbg !2166
  store ptr %306, ptr %45, align 8
  call void @llvm.dbg.declare(metadata ptr %45, metadata !2167, metadata !DIExpression()), !dbg !2170
  %309 = load ptr, ptr %45, align 8
  %310 = getelementptr inbounds %"struct.RTTL::BVHExtData", ptr %309, i64 3, !dbg !2172
  store i32 %308, ptr %310, align 4, !dbg !2173
  %311 = load i32, ptr %48, align 4, !dbg !2174
  %312 = or i32 %311, -2147483648, !dbg !2175
  store ptr %306, ptr %44, align 8
  call void @llvm.dbg.declare(metadata ptr %44, metadata !2176, metadata !DIExpression()), !dbg !2178
  %313 = load ptr, ptr %44, align 8
  %314 = getelementptr inbounds %"class.RTTL::RTBox_t", ptr %313, i32 0, i32 1, !dbg !2180
  %315 = getelementptr inbounds %"struct.RTTL::BVHExtData", ptr %314, i64 3, !dbg !2181
  store i32 %312, ptr %315, align 4, !dbg !2182
  %316 = getelementptr inbounds %"class.RTTL::BVHBuilder", ptr %59, i32 0, i32 1, !dbg !2183
  %317 = load ptr, ptr %316, align 8, !dbg !2183
  %318 = load ptr, ptr %54, align 8, !dbg !2184
  %319 = load ptr, ptr %317, align 8, !dbg !2185
  %320 = getelementptr inbounds ptr, ptr %319, i64 2, !dbg !2185
  %321 = load ptr, ptr %320, align 8, !dbg !2185
  call void %321(ptr noundef nonnull align 8 dereferenceable(40) %317, ptr noundef %318), !dbg !2185
  ret void, !dbg !2186
}

; Function Attrs: nocallback nofree nosync nounwind speculatable willreturn memory(none)
declare void @llvm.dbg.declare(metadata, metadata, metadata) #7

declare noundef nonnull align 8 dereferenceable(8) ptr @_ZStlsISt11char_traitsIcEERSt13basic_ostreamIcT_ES5_PKc(ptr noundef nonnull align 8 dereferenceable(8), ptr noundef) #1

declare noundef nonnull align 8 dereferenceable(8) ptr @_ZNSolsEPFRSoS_E(ptr noundef nonnull align 8 dereferenceable(8), ptr noundef) #1

declare noundef nonnull align 8 dereferenceable(8) ptr @_ZSt5flushIcSt11char_traitsIcEERSt13basic_ostreamIT_T0_ES6_(ptr noundef nonnull align 8 dereferenceable(8)) #1

declare noundef nonnull align 8 dereferenceable(8) ptr @_ZSt4endlIcSt11char_traitsIcEERSt13basic_ostreamIT_T0_ES6_(ptr noundef nonnull align 8 dereferenceable(8)) #1

declare void @_ZN4RTTL3BVH7reserveEi(ptr noundef nonnull align 8 dereferenceable(40), i32 noundef) #1

; Function Attrs: mustprogress noinline optnone uwtable
define linkonce_odr dso_local void @_Z12aligned_freeIN4RTTL16CentroidDiffAABBEEvPT_(ptr noundef %0) #8 comdat !dbg !2187 {
  %2 = alloca ptr, align 8
  %3 = alloca ptr, align 8
  store ptr %0, ptr %3, align 8
  call void @llvm.dbg.declare(metadata ptr %3, metadata !2192, metadata !DIExpression()), !dbg !2193
  %4 = load ptr, ptr %3, align 8, !dbg !2194
  store ptr %4, ptr %2, align 8
  call void @llvm.dbg.declare(metadata ptr %2, metadata !2195, metadata !DIExpression()), !dbg !2197
  %5 = load ptr, ptr %2, align 8, !dbg !2199
  call void @free(ptr noundef %5) #3, !dbg !2200
  ret void, !dbg !2201
}

; Function Attrs: mustprogress noinline optnone uwtable
define linkonce_odr dso_local noundef ptr @_Z14aligned_mallocIN4RTTL16CentroidDiffAABBEEPT_i(i32 noundef %0) #8 comdat !dbg !2202 {
  %2 = alloca i32, align 4
  %3 = alloca i32, align 4
  %4 = alloca i32, align 4
  store i32 %0, ptr %4, align 4
  call void @llvm.dbg.declare(metadata ptr %4, metadata !2205, metadata !DIExpression()), !dbg !2206
  %5 = load i32, ptr %4, align 4, !dbg !2207
  %6 = sext i32 %5 to i64, !dbg !2207
  %7 = mul i64 %6, 32, !dbg !2208
  %8 = trunc i64 %7 to i32, !dbg !2207
  store i32 %8, ptr %2, align 4
  call void @llvm.dbg.declare(metadata ptr %2, metadata !2209, metadata !DIExpression()), !dbg !2213
  store i32 64, ptr %3, align 4
  call void @llvm.dbg.declare(metadata ptr %3, metadata !2215, metadata !DIExpression()), !dbg !2216
  %9 = load i32, ptr %3, align 4, !dbg !2217
  %10 = sext i32 %9 to i64, !dbg !2217
  %11 = load i32, ptr %2, align 4, !dbg !2218
  %12 = sext i32 %11 to i64, !dbg !2218
  %13 = call noalias ptr @memalign(i64 noundef %10, i64 noundef %12) #16, !dbg !2219
  call void @llvm.assume(i1 true) [ "align"(ptr %13, i64 %10) ], !dbg !2219
  ret ptr %13, !dbg !2220
}

; Function Attrs: noinline optnone uwtable
define linkonce_odr dso_local void @_ZN4RTTL16CentroidDiffAABBC2ERKNS_7RTBox3aE(ptr noundef nonnull align 4 dereferenceable(32) %0, ptr noundef nonnull align 4 dereferenceable(32) %1) unnamed_addr #9 comdat align 2 !dbg !2221 {
  %3 = alloca %struct.sse_f, align 4
  %4 = alloca %struct.sse_f, align 4
  %5 = alloca %struct.sse_f, align 4
  %6 = alloca i32, align 4
  %7 = alloca %struct.sse_f, align 4
  %8 = alloca %struct.sse_f, align 4
  %9 = alloca %struct.sse_f, align 4
  %10 = alloca %struct.sse_f, align 4
  %11 = alloca %struct.sse_f, align 4
  %12 = alloca ptr, align 8
  %13 = alloca ptr, align 8
  %14 = alloca ptr, align 8
  %15 = alloca i32, align 4
  %16 = alloca %struct.sse_f, align 4
  %17 = alloca %struct.sse_f, align 4
  %18 = alloca %struct.sse_f, align 4
  %19 = alloca %"class.RTTL::RTVec_t", align 4
  %20 = alloca ptr, align 8
  %21 = alloca ptr, align 8
  %22 = alloca %"class.RTTL::RTVec_t", align 4
  %23 = alloca ptr, align 8
  %24 = alloca %struct.sse_f, align 4
  %25 = alloca %struct.sse_f, align 4
  %26 = alloca %struct.sse_f, align 4
  %27 = alloca i32, align 4
  %28 = alloca %struct.sse_f, align 4
  %29 = alloca float, align 4
  %30 = alloca i32, align 4
  %31 = alloca %struct.sse_f, align 4
  %32 = alloca float, align 4
  %33 = alloca %struct.sse_f, align 4
  %34 = alloca %struct.sse_f, align 4
  %35 = alloca %struct.sse_f, align 4
  %36 = alloca i32, align 4
  %37 = alloca %struct.sse_f, align 4
  %38 = alloca ptr, align 8
  %39 = alloca %struct.sse_f, align 4
  %40 = alloca %struct.sse_f, align 4
  %41 = alloca %struct.sse_f, align 4
  %42 = alloca %struct.sse_f, align 4
  %43 = alloca %struct.sse_f, align 4
  %44 = alloca ptr, align 8
  %45 = alloca ptr, align 8
  %46 = alloca %struct.sse_f, align 4
  %47 = alloca %struct.sse_f, align 4
  %48 = alloca float, align 4
  %49 = alloca %struct.sse_f, align 4
  %50 = alloca %struct.sse_f, align 4
  %51 = alloca %struct.sse_f, align 4
  %52 = alloca ptr, align 8
  %53 = alloca %"class.RTTL::RTVec_t", align 4
  %54 = alloca ptr, align 8
  %55 = alloca ptr, align 8
  %56 = alloca ptr, align 8
  %57 = alloca %struct.sse_f, align 4
  %58 = alloca %struct.sse_f, align 4
  %59 = alloca %struct.sse_f, align 4
  %60 = alloca %struct.sse_f, align 4
  %61 = alloca %struct.sse_f, align 4
  store ptr %0, ptr %55, align 8
  call void @llvm.dbg.declare(metadata ptr %55, metadata !2222, metadata !DIExpression()), !dbg !2223
  store ptr %1, ptr %56, align 8
  call void @llvm.dbg.declare(metadata ptr %56, metadata !2224, metadata !DIExpression()), !dbg !2225
  %62 = load ptr, ptr %55, align 8
  call void @_ZN4RTTL7RTBox3aC2Ev(ptr noundef nonnull align 4 dereferenceable(32) %62), !dbg !2226
  %63 = load ptr, ptr %56, align 8, !dbg !2227
  store ptr %63, ptr %52, align 8
  call void @llvm.dbg.declare(metadata ptr %52, metadata !2229, metadata !DIExpression()), !dbg !2232
  %64 = load ptr, ptr %52, align 8
  store ptr %64, ptr %23, align 8
  call void @llvm.dbg.declare(metadata ptr %23, metadata !2234, metadata !DIExpression()), !dbg !2237
  %65 = load ptr, ptr %23, align 8
  %66 = getelementptr inbounds %"class.RTTL::RTBox_t", ptr %65, i32 0, i32 1, !dbg !2239
  store ptr %66, ptr %20, align 8
  call void @llvm.dbg.declare(metadata ptr %20, metadata !2240, metadata !DIExpression()), !dbg !2246
  store ptr %65, ptr %21, align 8
  call void @llvm.dbg.declare(metadata ptr %21, metadata !2248, metadata !DIExpression()), !dbg !2249
  call void @llvm.dbg.declare(metadata ptr %19, metadata !2250, metadata !DIExpression()), !dbg !2251
  call void @_ZN4RTTL7RTVec_tILi1E5sse_fLi0EEC2Ev(ptr noundef nonnull align 4 dereferenceable(16) %19), !dbg !2251
  %67 = call noundef nonnull align 4 dereferenceable(16) ptr @_ZN4RTTL7RTVec_tILi1E5sse_fLi0EE5arrayEv(ptr noundef nonnull align 4 dereferenceable(16) %19), !dbg !2252
  %68 = load ptr, ptr %20, align 8, !dbg !2253
  %69 = call noundef nonnull align 4 dereferenceable(16) ptr @_ZNK4RTTL7RTVec_tILi1E5sse_fLi0EE5arrayEv(ptr noundef nonnull align 4 dereferenceable(16) %68), !dbg !2254
  %70 = load ptr, ptr %21, align 8, !dbg !2255
  %71 = call noundef nonnull align 4 dereferenceable(16) ptr @_ZNK4RTTL7RTVec_tILi1E5sse_fLi0EE5arrayEv(ptr noundef nonnull align 4 dereferenceable(16) %70), !dbg !2256
  store ptr %67, ptr %12, align 8
  call void @llvm.dbg.declare(metadata ptr %12, metadata !2257, metadata !DIExpression()), !dbg !2259
  store ptr %69, ptr %13, align 8
  call void @llvm.dbg.declare(metadata ptr %13, metadata !2261, metadata !DIExpression()), !dbg !2262
  store ptr %71, ptr %14, align 8
  call void @llvm.dbg.declare(metadata ptr %14, metadata !2263, metadata !DIExpression()), !dbg !2264
  %72 = load ptr, ptr %12, align 8
  call void @llvm.dbg.declare(metadata ptr %15, metadata !2265, metadata !DIExpression()), !dbg !2267
  store i32 0, ptr %15, align 4, !dbg !2267
  br label %73, !dbg !2268

73:                                               ; preds = %119, %2
  %74 = load i32, ptr %15, align 4, !dbg !2269
  %75 = icmp slt i32 %74, 1, !dbg !2271
  br i1 %75, label %76, label %133, !dbg !2272

76:                                               ; preds = %73
  %77 = load ptr, ptr %13, align 8, !dbg !2273
  %78 = load i32, ptr %15, align 4, !dbg !2274
  %79 = sext i32 %78 to i64, !dbg !2273
  %80 = getelementptr inbounds [1 x %struct.sse_f], ptr %77, i64 0, i64 %79, !dbg !2273
  call void @llvm.memcpy.p0.p0.i64(ptr align 4 %17, ptr align 4 %80, i64 16, i1 false), !dbg !2273
  %81 = load ptr, ptr %14, align 8, !dbg !2275
  %82 = load i32, ptr %15, align 4, !dbg !2276
  %83 = sext i32 %82 to i64, !dbg !2275
  %84 = getelementptr inbounds [1 x %struct.sse_f], ptr %81, i64 0, i64 %83, !dbg !2275
  call void @llvm.memcpy.p0.p0.i64(ptr align 4 %18, ptr align 4 %84, i64 16, i1 false), !dbg !2275
  %85 = load <2 x float>, ptr %17, align 4, !dbg !2277
  %86 = getelementptr inbounds { <2 x float>, <2 x float> }, ptr %17, i32 0, i32 1, !dbg !2277
  %87 = load <2 x float>, ptr %86, align 4, !dbg !2277
  %88 = load <2 x float>, ptr %18, align 4, !dbg !2277
  %89 = getelementptr inbounds { <2 x float>, <2 x float> }, ptr %18, i32 0, i32 1, !dbg !2277
  %90 = load <2 x float>, ptr %89, align 4, !dbg !2277
  store <2 x float> %85, ptr %8, align 4
  %91 = getelementptr inbounds { <2 x float>, <2 x float> }, ptr %8, i32 0, i32 1
  store <2 x float> %87, ptr %91, align 4
  store <2 x float> %88, ptr %9, align 4
  %92 = getelementptr inbounds { <2 x float>, <2 x float> }, ptr %9, i32 0, i32 1
  store <2 x float> %90, ptr %92, align 4
  call void @llvm.dbg.declare(metadata ptr %8, metadata !2278, metadata !DIExpression()), !dbg !2280
  call void @llvm.dbg.declare(metadata ptr %9, metadata !2282, metadata !DIExpression()), !dbg !2283
  call void @llvm.memcpy.p0.p0.i64(ptr align 4 %10, ptr align 4 %8, i64 16, i1 false), !dbg !2284
  call void @llvm.memcpy.p0.p0.i64(ptr align 4 %11, ptr align 4 %9, i64 16, i1 false), !dbg !2285
  %93 = load <2 x float>, ptr %10, align 4, !dbg !2286
  %94 = getelementptr inbounds { <2 x float>, <2 x float> }, ptr %10, i32 0, i32 1, !dbg !2286
  %95 = load <2 x float>, ptr %94, align 4, !dbg !2286
  %96 = load <2 x float>, ptr %11, align 4, !dbg !2286
  %97 = getelementptr inbounds { <2 x float>, <2 x float> }, ptr %11, i32 0, i32 1, !dbg !2286
  %98 = load <2 x float>, ptr %97, align 4, !dbg !2286
  store <2 x float> %93, ptr %4, align 4
  %99 = getelementptr inbounds { <2 x float>, <2 x float> }, ptr %4, i32 0, i32 1
  store <2 x float> %95, ptr %99, align 4
  store <2 x float> %96, ptr %5, align 4
  %100 = getelementptr inbounds { <2 x float>, <2 x float> }, ptr %5, i32 0, i32 1
  store <2 x float> %98, ptr %100, align 4
  call void @llvm.dbg.declare(metadata ptr %4, metadata !2287, metadata !DIExpression()), !dbg !2289
  call void @llvm.dbg.declare(metadata ptr %5, metadata !2291, metadata !DIExpression()), !dbg !2292
  call void @llvm.dbg.declare(metadata ptr %3, metadata !2293, metadata !DIExpression()), !dbg !2294
  call void @_ZN5sse_fC2Ev(ptr noundef nonnull align 4 dereferenceable(16) %3), !dbg !2294
  call void @llvm.dbg.declare(metadata ptr %6, metadata !2295, metadata !DIExpression()), !dbg !2297
  store i32 0, ptr %6, align 4, !dbg !2297
  br label %101, !dbg !2298

101:                                              ; preds = %104, %76
  %102 = load i32, ptr %6, align 4, !dbg !2299
  %103 = icmp slt i32 %102, 4, !dbg !2301
  br i1 %103, label %104, label %119, !dbg !2302

104:                                              ; preds = %101
  %105 = load i32, ptr %6, align 4, !dbg !2303
  %106 = sext i32 %105 to i64, !dbg !2304
  %107 = getelementptr inbounds [4 x float], ptr %4, i64 0, i64 %106, !dbg !2304
  %108 = load float, ptr %107, align 4, !dbg !2304
  %109 = load i32, ptr %6, align 4, !dbg !2305
  %110 = sext i32 %109 to i64, !dbg !2306
  %111 = getelementptr inbounds [4 x float], ptr %5, i64 0, i64 %110, !dbg !2306
  %112 = load float, ptr %111, align 4, !dbg !2306
  %113 = fsub float %108, %112, !dbg !2307
  %114 = load i32, ptr %6, align 4, !dbg !2308
  %115 = sext i32 %114 to i64, !dbg !2309
  %116 = getelementptr inbounds [4 x float], ptr %3, i64 0, i64 %115, !dbg !2309
  store float %113, ptr %116, align 4, !dbg !2310
  %117 = load i32, ptr %6, align 4, !dbg !2311
  %118 = add nsw i32 %117, 1, !dbg !2311
  store i32 %118, ptr %6, align 4, !dbg !2311
  br label %101, !dbg !2312, !llvm.loop !2313

119:                                              ; preds = %101
  %120 = load { <2 x float>, <2 x float> }, ptr %3, align 4, !dbg !2315
  %121 = extractvalue { <2 x float>, <2 x float> } %120, 0, !dbg !2286
  store <2 x float> %121, ptr %7, align 4, !dbg !2286
  %122 = getelementptr inbounds { <2 x float>, <2 x float> }, ptr %7, i32 0, i32 1, !dbg !2286
  %123 = extractvalue { <2 x float>, <2 x float> } %120, 1, !dbg !2286
  store <2 x float> %123, ptr %122, align 4, !dbg !2286
  %124 = load { <2 x float>, <2 x float> }, ptr %7, align 4, !dbg !2316
  %125 = extractvalue { <2 x float>, <2 x float> } %124, 0, !dbg !2277
  store <2 x float> %125, ptr %16, align 4, !dbg !2277
  %126 = getelementptr inbounds { <2 x float>, <2 x float> }, ptr %16, i32 0, i32 1, !dbg !2277
  %127 = extractvalue { <2 x float>, <2 x float> } %124, 1, !dbg !2277
  store <2 x float> %127, ptr %126, align 4, !dbg !2277
  %128 = load i32, ptr %15, align 4, !dbg !2317
  %129 = sext i32 %128 to i64, !dbg !2318
  %130 = getelementptr inbounds [1 x %struct.sse_f], ptr %72, i64 0, i64 %129, !dbg !2318
  call void @llvm.memcpy.p0.p0.i64(ptr align 4 %130, ptr align 4 %16, i64 16, i1 false), !dbg !2319
  %131 = load i32, ptr %15, align 4, !dbg !2320
  %132 = add nsw i32 %131, 1, !dbg !2320
  store i32 %132, ptr %15, align 4, !dbg !2320
  br label %73, !dbg !2321, !llvm.loop !2322

133:                                              ; preds = %73
  %134 = load { <2 x float>, <2 x float> }, ptr %19, align 4, !dbg !2324
  %135 = extractvalue { <2 x float>, <2 x float> } %134, 0, !dbg !2325
  store <2 x float> %135, ptr %22, align 4, !dbg !2325
  %136 = getelementptr inbounds { <2 x float>, <2 x float> }, ptr %22, i32 0, i32 1, !dbg !2325
  %137 = extractvalue { <2 x float>, <2 x float> } %134, 1, !dbg !2325
  store <2 x float> %137, ptr %136, align 4, !dbg !2325
  %138 = load { <2 x float>, <2 x float> }, ptr %22, align 4, !dbg !2326
  %139 = extractvalue { <2 x float>, <2 x float> } %138, 0, !dbg !2327
  store <2 x float> %139, ptr %53, align 4, !dbg !2327
  %140 = getelementptr inbounds { <2 x float>, <2 x float> }, ptr %53, i32 0, i32 1, !dbg !2327
  %141 = extractvalue { <2 x float>, <2 x float> } %138, 1, !dbg !2327
  store <2 x float> %141, ptr %140, align 4, !dbg !2327
  %142 = call noundef ptr @_ZN4RTTL7RTVec_tILi1E5sse_fLi0EEcvPS1_Ev(ptr noundef nonnull align 4 dereferenceable(16) %53), !dbg !2328
  call void @llvm.memcpy.p0.p0.i64(ptr align 4 %51, ptr align 4 %142, i64 16, i1 false), !dbg !2329
  %143 = load { <2 x float>, <2 x float> }, ptr %51, align 4, !dbg !2330
  %144 = getelementptr inbounds %struct.sse_f, ptr %58, i32 0, i32 0, !dbg !2331
  %145 = getelementptr inbounds { <2 x float>, <2 x float> }, ptr %144, i32 0, i32 0, !dbg !2331
  %146 = extractvalue { <2 x float>, <2 x float> } %143, 0, !dbg !2331
  store <2 x float> %146, ptr %145, align 4, !dbg !2331
  %147 = getelementptr inbounds { <2 x float>, <2 x float> }, ptr %144, i32 0, i32 1, !dbg !2331
  %148 = extractvalue { <2 x float>, <2 x float> } %143, 1, !dbg !2331
  store <2 x float> %148, ptr %147, align 4, !dbg !2331
  %149 = getelementptr inbounds { <2 x float>, <2 x float> }, ptr %58, i32 0, i32 0, !dbg !2332
  %150 = load <2 x float>, ptr %149, align 4, !dbg !2332
  %151 = getelementptr inbounds { <2 x float>, <2 x float> }, ptr %58, i32 0, i32 1, !dbg !2332
  %152 = load <2 x float>, ptr %151, align 4, !dbg !2332
  store <2 x float> %150, ptr %47, align 4
  %153 = getelementptr inbounds { <2 x float>, <2 x float> }, ptr %47, i32 0, i32 1
  store <2 x float> %152, ptr %153, align 4
  call void @llvm.dbg.declare(metadata ptr %47, metadata !2333, metadata !DIExpression()), !dbg !2337
  store float 5.000000e-01, ptr %48, align 4
  call void @llvm.dbg.declare(metadata ptr %48, metadata !2339, metadata !DIExpression()), !dbg !2340
  call void @llvm.memcpy.p0.p0.i64(ptr align 4 %49, ptr align 4 %47, i64 16, i1 false), !dbg !2341
  %154 = load float, ptr %48, align 4, !dbg !2342
  store float %154, ptr %32, align 4
  call void @llvm.dbg.declare(metadata ptr %32, metadata !2343, metadata !DIExpression()), !dbg !2346
  %155 = load float, ptr %32, align 4, !dbg !2348
  store float %155, ptr %29, align 4
  call void @llvm.dbg.declare(metadata ptr %29, metadata !1886, metadata !DIExpression()), !dbg !2349
  call void @llvm.dbg.declare(metadata ptr %28, metadata !1893, metadata !DIExpression()), !dbg !2351
  call void @_ZN5sse_fC2Ev(ptr noundef nonnull align 4 dereferenceable(16) %28), !dbg !2351
  call void @llvm.dbg.declare(metadata ptr %30, metadata !1895, metadata !DIExpression()), !dbg !2352
  store i32 0, ptr %30, align 4, !dbg !2352
  br label %156, !dbg !2353

156:                                              ; preds = %159, %133
  %157 = load i32, ptr %30, align 4, !dbg !2354
  %158 = icmp slt i32 %157, 4, !dbg !2355
  br i1 %158, label %159, label %166, !dbg !2356

159:                                              ; preds = %156
  %160 = load float, ptr %29, align 4, !dbg !2357
  %161 = load i32, ptr %30, align 4, !dbg !2358
  %162 = sext i32 %161 to i64, !dbg !2359
  %163 = getelementptr inbounds [4 x float], ptr %28, i64 0, i64 %162, !dbg !2359
  store float %160, ptr %163, align 4, !dbg !2360
  %164 = load i32, ptr %30, align 4, !dbg !2361
  %165 = add nsw i32 %164, 1, !dbg !2361
  store i32 %165, ptr %30, align 4, !dbg !2361
  br label %156, !dbg !2362, !llvm.loop !2363

166:                                              ; preds = %156
  %167 = load { <2 x float>, <2 x float> }, ptr %28, align 4, !dbg !2365
  %168 = extractvalue { <2 x float>, <2 x float> } %167, 0, !dbg !2366
  store <2 x float> %168, ptr %31, align 4, !dbg !2366
  %169 = getelementptr inbounds { <2 x float>, <2 x float> }, ptr %31, i32 0, i32 1, !dbg !2366
  %170 = extractvalue { <2 x float>, <2 x float> } %167, 1, !dbg !2366
  store <2 x float> %170, ptr %169, align 4, !dbg !2366
  %171 = load { <2 x float>, <2 x float> }, ptr %31, align 4, !dbg !2367
  %172 = extractvalue { <2 x float>, <2 x float> } %171, 0, !dbg !2368
  store <2 x float> %172, ptr %50, align 4, !dbg !2368
  %173 = getelementptr inbounds { <2 x float>, <2 x float> }, ptr %50, i32 0, i32 1, !dbg !2368
  %174 = extractvalue { <2 x float>, <2 x float> } %171, 1, !dbg !2368
  store <2 x float> %174, ptr %173, align 4, !dbg !2368
  %175 = load <2 x float>, ptr %49, align 4, !dbg !2369
  %176 = getelementptr inbounds { <2 x float>, <2 x float> }, ptr %49, i32 0, i32 1, !dbg !2369
  %177 = load <2 x float>, ptr %176, align 4, !dbg !2369
  %178 = load <2 x float>, ptr %50, align 4, !dbg !2369
  %179 = getelementptr inbounds { <2 x float>, <2 x float> }, ptr %50, i32 0, i32 1, !dbg !2369
  %180 = load <2 x float>, ptr %179, align 4, !dbg !2369
  store <2 x float> %175, ptr %34, align 4
  %181 = getelementptr inbounds { <2 x float>, <2 x float> }, ptr %34, i32 0, i32 1
  store <2 x float> %177, ptr %181, align 4
  store <2 x float> %178, ptr %35, align 4
  %182 = getelementptr inbounds { <2 x float>, <2 x float> }, ptr %35, i32 0, i32 1
  store <2 x float> %180, ptr %182, align 4
  call void @llvm.dbg.declare(metadata ptr %34, metadata !2370, metadata !DIExpression()), !dbg !2372
  call void @llvm.dbg.declare(metadata ptr %35, metadata !2374, metadata !DIExpression()), !dbg !2375
  call void @llvm.dbg.declare(metadata ptr %33, metadata !2376, metadata !DIExpression()), !dbg !2377
  call void @_ZN5sse_fC2Ev(ptr noundef nonnull align 4 dereferenceable(16) %33), !dbg !2377
  call void @llvm.dbg.declare(metadata ptr %36, metadata !2378, metadata !DIExpression()), !dbg !2380
  store i32 0, ptr %36, align 4, !dbg !2380
  br label %183, !dbg !2381

183:                                              ; preds = %186, %166
  %184 = load i32, ptr %36, align 4, !dbg !2382
  %185 = icmp slt i32 %184, 4, !dbg !2384
  br i1 %185, label %186, label %201, !dbg !2385

186:                                              ; preds = %183
  %187 = load i32, ptr %36, align 4, !dbg !2386
  %188 = sext i32 %187 to i64, !dbg !2386
  %189 = getelementptr inbounds [4 x float], ptr %34, i64 0, i64 %188, !dbg !2386
  %190 = load float, ptr %189, align 4, !dbg !2386
  %191 = load i32, ptr %36, align 4, !dbg !2387
  %192 = sext i32 %191 to i64, !dbg !2387
  %193 = getelementptr inbounds [4 x float], ptr %35, i64 0, i64 %192, !dbg !2387
  %194 = load float, ptr %193, align 4, !dbg !2387
  %195 = fmul float %190, %194, !dbg !2388
  %196 = load i32, ptr %36, align 4, !dbg !2389
  %197 = sext i32 %196 to i64, !dbg !2389
  %198 = getelementptr inbounds [4 x float], ptr %33, i64 0, i64 %197, !dbg !2389
  store float %195, ptr %198, align 4, !dbg !2390
  %199 = load i32, ptr %36, align 4, !dbg !2391
  %200 = add nsw i32 %199, 1, !dbg !2391
  store i32 %200, ptr %36, align 4, !dbg !2391
  br label %183, !dbg !2392, !llvm.loop !2393

201:                                              ; preds = %183
  %202 = load { <2 x float>, <2 x float> }, ptr %33, align 4, !dbg !2395
  %203 = extractvalue { <2 x float>, <2 x float> } %202, 0, !dbg !2369
  store <2 x float> %203, ptr %46, align 4, !dbg !2369
  %204 = getelementptr inbounds { <2 x float>, <2 x float> }, ptr %46, i32 0, i32 1, !dbg !2369
  %205 = extractvalue { <2 x float>, <2 x float> } %202, 1, !dbg !2369
  store <2 x float> %205, ptr %204, align 4, !dbg !2369
  %206 = load { <2 x float>, <2 x float> }, ptr %46, align 4, !dbg !2396
  %207 = getelementptr inbounds %struct.sse_f, ptr %57, i32 0, i32 0, !dbg !2332
  %208 = getelementptr inbounds { <2 x float>, <2 x float> }, ptr %207, i32 0, i32 0, !dbg !2332
  %209 = extractvalue { <2 x float>, <2 x float> } %206, 0, !dbg !2332
  store <2 x float> %209, ptr %208, align 4, !dbg !2332
  %210 = getelementptr inbounds { <2 x float>, <2 x float> }, ptr %207, i32 0, i32 1, !dbg !2332
  %211 = extractvalue { <2 x float>, <2 x float> } %206, 1, !dbg !2332
  store <2 x float> %211, ptr %210, align 4, !dbg !2332
  store ptr %62, ptr %44, align 8
  call void @llvm.dbg.declare(metadata ptr %44, metadata !2397, metadata !DIExpression()), !dbg !2400
  %212 = load ptr, ptr %44, align 8
  %213 = getelementptr inbounds %"class.RTTL::RTBox_t", ptr %212, i32 0, i32 1, !dbg !2402
  %214 = call noundef nonnull align 4 dereferenceable(16) ptr @_ZN4RTTL7RTVec_tILi1E5sse_fLi0EEixEi(ptr noundef nonnull align 4 dereferenceable(16) %213, i32 noundef 0), !dbg !2402
  call void @llvm.memcpy.p0.p0.i64(ptr align 4 %214, ptr align 4 %57, i64 16, i1 false), !dbg !2403
  %215 = load ptr, ptr %56, align 8, !dbg !2404
  store ptr %215, ptr %38, align 8
  call void @llvm.dbg.declare(metadata ptr %38, metadata !2405, metadata !DIExpression()), !dbg !2407
  %216 = load ptr, ptr %38, align 8
  %217 = call { <2 x float>, <2 x float> } @_ZNK4RTTL7RTVec_tILi1E5sse_fLi0EEixEi(ptr noundef nonnull align 4 dereferenceable(16) %216, i32 noundef 0), !dbg !2409
  %218 = extractvalue { <2 x float>, <2 x float> } %217, 0, !dbg !2409
  store <2 x float> %218, ptr %37, align 4, !dbg !2409
  %219 = getelementptr inbounds { <2 x float>, <2 x float> }, ptr %37, i32 0, i32 1, !dbg !2409
  %220 = extractvalue { <2 x float>, <2 x float> } %217, 1, !dbg !2409
  store <2 x float> %220, ptr %219, align 4, !dbg !2409
  %221 = load { <2 x float>, <2 x float> }, ptr %37, align 4, !dbg !2410
  %222 = getelementptr inbounds %struct.sse_f, ptr %60, i32 0, i32 0, !dbg !2411
  %223 = getelementptr inbounds { <2 x float>, <2 x float> }, ptr %222, i32 0, i32 0, !dbg !2411
  %224 = extractvalue { <2 x float>, <2 x float> } %221, 0, !dbg !2411
  store <2 x float> %224, ptr %223, align 4, !dbg !2411
  %225 = getelementptr inbounds { <2 x float>, <2 x float> }, ptr %222, i32 0, i32 1, !dbg !2411
  %226 = extractvalue { <2 x float>, <2 x float> } %221, 1, !dbg !2411
  store <2 x float> %226, ptr %225, align 4, !dbg !2411
  store ptr %62, ptr %45, align 8
  call void @llvm.dbg.declare(metadata ptr %45, metadata !2397, metadata !DIExpression()), !dbg !2412
  %227 = load ptr, ptr %45, align 8
  %228 = getelementptr inbounds %"class.RTTL::RTBox_t", ptr %227, i32 0, i32 1, !dbg !2414
  %229 = call noundef nonnull align 4 dereferenceable(16) ptr @_ZN4RTTL7RTVec_tILi1E5sse_fLi0EEixEi(ptr noundef nonnull align 4 dereferenceable(16) %228, i32 noundef 0), !dbg !2414
  call void @llvm.memcpy.p0.p0.i64(ptr align 4 %61, ptr align 4 %229, i64 16, i1 false), !dbg !2415
  %230 = getelementptr inbounds { <2 x float>, <2 x float> }, ptr %60, i32 0, i32 0, !dbg !2416
  %231 = load <2 x float>, ptr %230, align 4, !dbg !2416
  %232 = getelementptr inbounds { <2 x float>, <2 x float> }, ptr %60, i32 0, i32 1, !dbg !2416
  %233 = load <2 x float>, ptr %232, align 4, !dbg !2416
  %234 = getelementptr inbounds { <2 x float>, <2 x float> }, ptr %61, i32 0, i32 0, !dbg !2416
  %235 = load <2 x float>, ptr %234, align 4, !dbg !2416
  %236 = getelementptr inbounds { <2 x float>, <2 x float> }, ptr %61, i32 0, i32 1, !dbg !2416
  %237 = load <2 x float>, ptr %236, align 4, !dbg !2416
  store <2 x float> %231, ptr %40, align 4
  %238 = getelementptr inbounds { <2 x float>, <2 x float> }, ptr %40, i32 0, i32 1
  store <2 x float> %233, ptr %238, align 4
  store <2 x float> %235, ptr %41, align 4
  %239 = getelementptr inbounds { <2 x float>, <2 x float> }, ptr %41, i32 0, i32 1
  store <2 x float> %237, ptr %239, align 4
  call void @llvm.dbg.declare(metadata ptr %40, metadata !2417, metadata !DIExpression()), !dbg !2419
  call void @llvm.dbg.declare(metadata ptr %41, metadata !2421, metadata !DIExpression()), !dbg !2422
  call void @llvm.memcpy.p0.p0.i64(ptr align 4 %42, ptr align 4 %40, i64 16, i1 false), !dbg !2423
  call void @llvm.memcpy.p0.p0.i64(ptr align 4 %43, ptr align 4 %41, i64 16, i1 false), !dbg !2424
  %240 = load <2 x float>, ptr %42, align 4, !dbg !2425
  %241 = getelementptr inbounds { <2 x float>, <2 x float> }, ptr %42, i32 0, i32 1, !dbg !2425
  %242 = load <2 x float>, ptr %241, align 4, !dbg !2425
  %243 = load <2 x float>, ptr %43, align 4, !dbg !2425
  %244 = getelementptr inbounds { <2 x float>, <2 x float> }, ptr %43, i32 0, i32 1, !dbg !2425
  %245 = load <2 x float>, ptr %244, align 4, !dbg !2425
  store <2 x float> %240, ptr %25, align 4
  %246 = getelementptr inbounds { <2 x float>, <2 x float> }, ptr %25, i32 0, i32 1
  store <2 x float> %242, ptr %246, align 4
  store <2 x float> %243, ptr %26, align 4
  %247 = getelementptr inbounds { <2 x float>, <2 x float> }, ptr %26, i32 0, i32 1
  store <2 x float> %245, ptr %247, align 4
  call void @llvm.dbg.declare(metadata ptr %25, metadata !2426, metadata !DIExpression()), !dbg !2428
  call void @llvm.dbg.declare(metadata ptr %26, metadata !2430, metadata !DIExpression()), !dbg !2431
  call void @llvm.dbg.declare(metadata ptr %24, metadata !2432, metadata !DIExpression()), !dbg !2433
  call void @_ZN5sse_fC2Ev(ptr noundef nonnull align 4 dereferenceable(16) %24), !dbg !2433
  call void @llvm.dbg.declare(metadata ptr %27, metadata !2434, metadata !DIExpression()), !dbg !2436
  store i32 0, ptr %27, align 4, !dbg !2436
  br label %248, !dbg !2437

248:                                              ; preds = %251, %201
  %249 = load i32, ptr %27, align 4, !dbg !2438
  %250 = icmp slt i32 %249, 4, !dbg !2440
  br i1 %250, label %251, label %266, !dbg !2441

251:                                              ; preds = %248
  %252 = load i32, ptr %27, align 4, !dbg !2442
  %253 = sext i32 %252 to i64, !dbg !2443
  %254 = getelementptr inbounds [4 x float], ptr %25, i64 0, i64 %253, !dbg !2443
  %255 = load float, ptr %254, align 4, !dbg !2443
  %256 = load i32, ptr %27, align 4, !dbg !2444
  %257 = sext i32 %256 to i64, !dbg !2445
  %258 = getelementptr inbounds [4 x float], ptr %26, i64 0, i64 %257, !dbg !2445
  %259 = load float, ptr %258, align 4, !dbg !2445
  %260 = fadd float %255, %259, !dbg !2446
  %261 = load i32, ptr %27, align 4, !dbg !2447
  %262 = sext i32 %261 to i64, !dbg !2448
  %263 = getelementptr inbounds [4 x float], ptr %24, i64 0, i64 %262, !dbg !2448
  store float %260, ptr %263, align 4, !dbg !2449
  %264 = load i32, ptr %27, align 4, !dbg !2450
  %265 = add nsw i32 %264, 1, !dbg !2450
  store i32 %265, ptr %27, align 4, !dbg !2450
  br label %248, !dbg !2451, !llvm.loop !2452

266:                                              ; preds = %248
  %267 = load { <2 x float>, <2 x float> }, ptr %24, align 4, !dbg !2454
  %268 = extractvalue { <2 x float>, <2 x float> } %267, 0, !dbg !2425
  store <2 x float> %268, ptr %39, align 4, !dbg !2425
  %269 = getelementptr inbounds { <2 x float>, <2 x float> }, ptr %39, i32 0, i32 1, !dbg !2425
  %270 = extractvalue { <2 x float>, <2 x float> } %267, 1, !dbg !2425
  store <2 x float> %270, ptr %269, align 4, !dbg !2425
  %271 = load { <2 x float>, <2 x float> }, ptr %39, align 4, !dbg !2455
  %272 = getelementptr inbounds %struct.sse_f, ptr %59, i32 0, i32 0, !dbg !2416
  %273 = getelementptr inbounds { <2 x float>, <2 x float> }, ptr %272, i32 0, i32 0, !dbg !2416
  %274 = extractvalue { <2 x float>, <2 x float> } %271, 0, !dbg !2416
  store <2 x float> %274, ptr %273, align 4, !dbg !2416
  %275 = getelementptr inbounds { <2 x float>, <2 x float> }, ptr %272, i32 0, i32 1, !dbg !2416
  %276 = extractvalue { <2 x float>, <2 x float> } %271, 1, !dbg !2416
  store <2 x float> %276, ptr %275, align 4, !dbg !2416
  store ptr %62, ptr %54, align 8
  call void @llvm.dbg.declare(metadata ptr %54, metadata !2456, metadata !DIExpression()), !dbg !2458
  %277 = load ptr, ptr %54, align 8
  %278 = call noundef nonnull align 4 dereferenceable(16) ptr @_ZN4RTTL7RTVec_tILi1E5sse_fLi0EEixEi(ptr noundef nonnull align 4 dereferenceable(16) %277, i32 noundef 0), !dbg !2460
  call void @llvm.memcpy.p0.p0.i64(ptr align 4 %278, ptr align 4 %59, i64 16, i1 false), !dbg !2461
  ret void, !dbg !2462
}

; Function Attrs: noinline optnone uwtable
define linkonce_odr dso_local noundef nonnull align 4 dereferenceable(32) ptr @_ZN4RTTL16CentroidDiffAABBaSERKS0_(ptr noundef nonnull align 4 dereferenceable(32) %0, ptr noundef nonnull align 4 dereferenceable(32) %1) #5 comdat align 2 !dbg !2463 {
  %3 = alloca ptr, align 8
  %4 = alloca ptr, align 8
  store ptr %0, ptr %3, align 8
  call void @llvm.dbg.declare(metadata ptr %3, metadata !2468, metadata !DIExpression()), !dbg !2469
  store ptr %1, ptr %4, align 8
  call void @llvm.dbg.declare(metadata ptr %4, metadata !2470, metadata !DIExpression()), !dbg !2469
  %5 = load ptr, ptr %3, align 8
  %6 = load ptr, ptr %4, align 8, !dbg !2471
  %7 = call noundef nonnull align 4 dereferenceable(32) ptr @_ZN4RTTL7RTBox3aaSERKS0_(ptr noundef nonnull align 4 dereferenceable(32) %5, ptr noundef nonnull align 4 dereferenceable(32) %6), !dbg !2471
  ret ptr %5, !dbg !2471
}

declare noundef nonnull align 8 dereferenceable(8) ptr @_ZNSolsEi(ptr noundef nonnull align 8 dereferenceable(8), i32 noundef) #1

; Function Attrs: noinline optnone uwtable
define linkonce_odr dso_local noundef nonnull align 4 dereferenceable(32) ptr @_ZN4RTTL4AABBaSERKS0_(ptr noundef nonnull align 4 dereferenceable(32) %0, ptr noundef nonnull align 4 dereferenceable(32) %1) #5 comdat align 2 !dbg !2473 {
  %3 = alloca ptr, align 8
  %4 = alloca ptr, align 8
  store ptr %0, ptr %3, align 8
  call void @llvm.dbg.declare(metadata ptr %3, metadata !2479, metadata !DIExpression()), !dbg !2480
  store ptr %1, ptr %4, align 8
  call void @llvm.dbg.declare(metadata ptr %4, metadata !2481, metadata !DIExpression()), !dbg !2480
  %5 = load ptr, ptr %3, align 8
  %6 = load ptr, ptr %4, align 8, !dbg !2482
  %7 = call noundef nonnull align 4 dereferenceable(32) ptr @_ZN4RTTL7RTBox3aaSERKS0_(ptr noundef nonnull align 4 dereferenceable(32) %5, ptr noundef nonnull align 4 dereferenceable(32) %6), !dbg !2482
  ret ptr %5, !dbg !2482
}

; Function Attrs: mustprogress noinline optnone uwtable
define dso_local void @_ZN4RTTL15OnDemandBuilder10createNodeEPNS_4AABBEPii(ptr noundef nonnull align 8 dereferenceable(24) %0, ptr noundef %1, ptr noundef %2, i32 noundef %3) #6 align 2 !dbg !2484 {
  %5 = alloca %struct.sse_f, align 4
  %6 = alloca %struct.sse_f, align 4
  %7 = alloca %struct.sse_f, align 4
  %8 = alloca i32, align 4
  %9 = alloca %struct.sse_f, align 4
  %10 = alloca %struct.sse_f, align 4
  %11 = alloca %struct.sse_f, align 4
  %12 = alloca %struct.sse_f, align 4
  %13 = alloca %struct.sse_f, align 4
  %14 = alloca ptr, align 8
  %15 = alloca i32, align 4
  %16 = alloca ptr, align 8
  %17 = alloca i32, align 4
  %18 = alloca ptr, align 8
  %19 = alloca ptr, align 8
  %20 = alloca ptr, align 8
  %21 = alloca i32, align 4
  %22 = alloca %struct.sse_f, align 4
  %23 = alloca %struct.sse_f, align 4
  %24 = alloca %struct.sse_f, align 4
  %25 = alloca %struct.sse_f, align 4
  %26 = alloca %struct.sse_f, align 4
  %27 = alloca %struct.sse_f, align 4
  %28 = alloca i32, align 4
  %29 = alloca %struct.sse_f, align 4
  %30 = alloca %struct.sse_f, align 4
  %31 = alloca %struct.sse_f, align 4
  %32 = alloca %struct.sse_f, align 4
  %33 = alloca %struct.sse_f, align 4
  %34 = alloca ptr, align 8
  %35 = alloca i32, align 4
  %36 = alloca ptr, align 8
  %37 = alloca i32, align 4
  %38 = alloca ptr, align 8
  %39 = alloca ptr, align 8
  %40 = alloca ptr, align 8
  %41 = alloca i32, align 4
  %42 = alloca %struct.sse_f, align 4
  %43 = alloca %struct.sse_f, align 4
  %44 = alloca %struct.sse_f, align 4
  %45 = alloca %struct.sse_f, align 4
  %46 = alloca %struct.sse_f, align 4
  %47 = alloca %struct.sse_f, align 4
  %48 = alloca i32, align 4
  %49 = alloca %struct.sse_f, align 4
  %50 = alloca %struct.sse_f, align 4
  %51 = alloca %struct.sse_f, align 4
  %52 = alloca %struct.sse_f, align 4
  %53 = alloca %struct.sse_f, align 4
  %54 = alloca ptr, align 8
  %55 = alloca i32, align 4
  %56 = alloca ptr, align 8
  %57 = alloca i32, align 4
  %58 = alloca ptr, align 8
  %59 = alloca ptr, align 8
  %60 = alloca ptr, align 8
  %61 = alloca i32, align 4
  %62 = alloca %struct.sse_f, align 4
  %63 = alloca %struct.sse_f, align 4
  %64 = alloca %struct.sse_f, align 4
  %65 = alloca %struct.sse_f, align 4
  %66 = alloca %struct.sse_f, align 4
  %67 = alloca %struct.sse_f, align 4
  %68 = alloca i32, align 4
  %69 = alloca %struct.sse_f, align 4
  %70 = alloca %struct.sse_f, align 4
  %71 = alloca %struct.sse_f, align 4
  %72 = alloca %struct.sse_f, align 4
  %73 = alloca %struct.sse_f, align 4
  %74 = alloca ptr, align 8
  %75 = alloca i32, align 4
  %76 = alloca ptr, align 8
  %77 = alloca i32, align 4
  %78 = alloca ptr, align 8
  %79 = alloca ptr, align 8
  %80 = alloca ptr, align 8
  %81 = alloca i32, align 4
  %82 = alloca %struct.sse_f, align 4
  %83 = alloca %struct.sse_f, align 4
  %84 = alloca %struct.sse_f, align 4
  %85 = alloca %struct.sse_f, align 4
  %86 = alloca %struct.sse_f, align 4
  %87 = alloca %struct.sse_f, align 4
  %88 = alloca i32, align 4
  %89 = alloca %struct.sse_f, align 4
  %90 = alloca %struct.sse_f, align 4
  %91 = alloca %struct.sse_f, align 4
  %92 = alloca %struct.sse_f, align 4
  %93 = alloca %struct.sse_f, align 4
  %94 = alloca ptr, align 8
  %95 = alloca i32, align 4
  %96 = alloca ptr, align 8
  %97 = alloca i32, align 4
  %98 = alloca ptr, align 8
  %99 = alloca ptr, align 8
  %100 = alloca ptr, align 8
  %101 = alloca i32, align 4
  %102 = alloca %struct.sse_f, align 4
  %103 = alloca %struct.sse_f, align 4
  %104 = alloca %struct.sse_f, align 4
  %105 = alloca %struct.sse_f, align 4
  %106 = alloca %struct.sse_f, align 4
  %107 = alloca %struct.sse_f, align 4
  %108 = alloca i32, align 4
  %109 = alloca %struct.sse_f, align 4
  %110 = alloca %struct.sse_f, align 4
  %111 = alloca %struct.sse_f, align 4
  %112 = alloca %struct.sse_f, align 4
  %113 = alloca %struct.sse_f, align 4
  %114 = alloca ptr, align 8
  %115 = alloca i32, align 4
  %116 = alloca ptr, align 8
  %117 = alloca i32, align 4
  %118 = alloca ptr, align 8
  %119 = alloca ptr, align 8
  %120 = alloca ptr, align 8
  %121 = alloca i32, align 4
  %122 = alloca %struct.sse_f, align 4
  %123 = alloca %struct.sse_f, align 4
  %124 = alloca %struct.sse_f, align 4
  %125 = alloca %struct.sse_f, align 4
  %126 = alloca %struct.sse_f, align 4
  %127 = alloca %struct.sse_f, align 4
  %128 = alloca i32, align 4
  %129 = alloca %struct.sse_f, align 4
  %130 = alloca %struct.sse_f, align 4
  %131 = alloca %struct.sse_f, align 4
  %132 = alloca %struct.sse_f, align 4
  %133 = alloca %struct.sse_f, align 4
  %134 = alloca ptr, align 8
  %135 = alloca i32, align 4
  %136 = alloca ptr, align 8
  %137 = alloca i32, align 4
  %138 = alloca ptr, align 8
  %139 = alloca ptr, align 8
  %140 = alloca ptr, align 8
  %141 = alloca i32, align 4
  %142 = alloca %struct.sse_f, align 4
  %143 = alloca %struct.sse_f, align 4
  %144 = alloca %struct.sse_f, align 4
  %145 = alloca %struct.sse_f, align 4
  %146 = alloca %struct.sse_f, align 4
  %147 = alloca %struct.sse_f, align 4
  %148 = alloca i32, align 4
  %149 = alloca %struct.sse_f, align 4
  %150 = alloca %struct.sse_f, align 4
  %151 = alloca %struct.sse_f, align 4
  %152 = alloca %struct.sse_f, align 4
  %153 = alloca %struct.sse_f, align 4
  %154 = alloca ptr, align 8
  %155 = alloca i32, align 4
  %156 = alloca ptr, align 8
  %157 = alloca i32, align 4
  %158 = alloca ptr, align 8
  %159 = alloca ptr, align 8
  %160 = alloca ptr, align 8
  %161 = alloca i32, align 4
  %162 = alloca %struct.sse_f, align 4
  %163 = alloca %struct.sse_f, align 4
  %164 = alloca %struct.sse_f, align 4
  %165 = alloca %struct.sse_f, align 4
  %166 = alloca %struct.sse_f, align 4
  %167 = alloca %struct.sse_f, align 4
  %168 = alloca i32, align 4
  %169 = alloca %struct.sse_f, align 4
  %170 = alloca %struct.sse_f, align 4
  %171 = alloca %struct.sse_f, align 4
  %172 = alloca i32, align 4
  %173 = alloca %struct.sse_f, align 4
  %174 = alloca %struct.sse_f, align 4
  %175 = alloca %struct.sse_f, align 4
  %176 = alloca i32, align 4
  %177 = alloca %struct.sse_f, align 4
  %178 = alloca %struct.sse_f, align 4
  %179 = alloca %struct.sse_f, align 4
  %180 = alloca i32, align 4
  %181 = alloca %struct.sse_f, align 4
  %182 = alloca %struct.sse_f, align 4
  %183 = alloca %struct.sse_f, align 4
  %184 = alloca i32, align 4
  %185 = alloca %struct.sse_f, align 4
  %186 = alloca %struct.sse_f, align 4
  %187 = alloca %struct.sse_f, align 4
  %188 = alloca %struct.sse_f, align 4
  %189 = alloca %struct.sse_f, align 4
  %190 = alloca %struct.sse_f, align 4
  %191 = alloca %struct.sse_f, align 4
  %192 = alloca %struct.sse_f, align 4
  %193 = alloca %struct.sse_f, align 4
  %194 = alloca %struct.sse_f, align 4
  %195 = alloca %struct.sse_f, align 4
  %196 = alloca %struct.sse_f, align 4
  %197 = alloca %struct.sse_f, align 4
  %198 = alloca %struct.sse_f, align 4
  %199 = alloca %struct.sse_f, align 4
  %200 = alloca %struct.sse_f, align 4
  %201 = alloca %struct.sse_f, align 4
  %202 = alloca %struct.sse_f, align 4
  %203 = alloca %struct.sse_f, align 4
  %204 = alloca %struct.sse_f, align 4
  %205 = alloca %struct.sse_f, align 4
  %206 = alloca %struct.sse_f, align 4
  %207 = alloca %struct.sse_f, align 4
  %208 = alloca %struct.sse_f, align 4
  %209 = alloca %struct.sse_f, align 4
  %210 = alloca %struct.sse_f, align 4
  %211 = alloca %struct.sse_f, align 4
  %212 = alloca %struct.sse_f, align 4
  %213 = alloca i32, align 4
  %214 = alloca %struct.sse_f, align 4
  %215 = alloca %struct.sse_f, align 4
  %216 = alloca %struct.sse_f, align 4
  %217 = alloca i32, align 4
  %218 = alloca %struct.sse_f, align 4
  %219 = alloca %struct.sse_f, align 4
  %220 = alloca %struct.sse_f, align 4
  %221 = alloca i32, align 4
  %222 = alloca %struct.sse_f, align 4
  %223 = alloca %struct.sse_f, align 4
  %224 = alloca %struct.sse_f, align 4
  %225 = alloca i32, align 4
  %226 = alloca %struct.sse_f, align 4
  %227 = alloca %struct.sse_f, align 4
  %228 = alloca %struct.sse_f, align 4
  %229 = alloca i32, align 4
  %230 = alloca %struct.sse_f, align 4
  %231 = alloca %struct.sse_f, align 4
  %232 = alloca %struct.sse_f, align 4
  %233 = alloca %struct.sse_f, align 4
  %234 = alloca %struct.sse_f, align 4
  %235 = alloca %struct.sse_f, align 4
  %236 = alloca %struct.sse_f, align 4
  %237 = alloca %struct.sse_f, align 4
  %238 = alloca %struct.sse_f, align 4
  %239 = alloca %struct.sse_f, align 4
  %240 = alloca %struct.sse_f, align 4
  %241 = alloca %struct.sse_f, align 4
  %242 = alloca %struct.sse_f, align 4
  %243 = alloca %struct.sse_f, align 4
  %244 = alloca %struct.sse_f, align 4
  %245 = alloca %struct.sse_f, align 4
  %246 = alloca %struct.sse_f, align 4
  %247 = alloca %struct.sse_f, align 4
  %248 = alloca %struct.sse_f, align 4
  %249 = alloca %struct.sse_f, align 4
  %250 = alloca %struct.sse_f, align 4
  %251 = alloca %struct.sse_f, align 4
  %252 = alloca %struct.sse_f, align 4
  %253 = alloca %struct.sse_f, align 4
  %254 = alloca %struct.sse_f, align 4
  %255 = alloca ptr, align 8
  %256 = alloca i32, align 4
  %257 = alloca ptr, align 8
  %258 = alloca i32, align 4
  %259 = alloca ptr, align 8
  %260 = alloca ptr, align 8
  %261 = alloca ptr, align 8
  %262 = alloca i32, align 4
  %263 = alloca %struct.sse_f, align 4
  %264 = alloca %struct.sse_f, align 4
  %265 = alloca %struct.sse_f, align 4
  %266 = alloca ptr, align 8
  %267 = alloca i32, align 4
  %268 = alloca ptr, align 8
  %269 = alloca i32, align 4
  %270 = alloca ptr, align 8
  %271 = alloca ptr, align 8
  %272 = alloca ptr, align 8
  %273 = alloca i32, align 4
  %274 = alloca %struct.sse_f, align 4
  %275 = alloca %struct.sse_f, align 4
  %276 = alloca %struct.sse_f, align 4
  %277 = alloca ptr, align 8
  %278 = alloca i32, align 4
  %279 = alloca ptr, align 8
  %280 = alloca i32, align 4
  %281 = alloca ptr, align 8
  %282 = alloca ptr, align 8
  %283 = alloca ptr, align 8
  %284 = alloca i32, align 4
  %285 = alloca %struct.sse_f, align 4
  %286 = alloca %struct.sse_f, align 4
  %287 = alloca %struct.sse_f, align 4
  %288 = alloca ptr, align 8
  %289 = alloca i32, align 4
  %290 = alloca ptr, align 8
  %291 = alloca i32, align 4
  %292 = alloca ptr, align 8
  %293 = alloca ptr, align 8
  %294 = alloca ptr, align 8
  %295 = alloca i32, align 4
  %296 = alloca %struct.sse_f, align 4
  %297 = alloca %struct.sse_f, align 4
  %298 = alloca %struct.sse_f, align 4
  %299 = alloca ptr, align 8
  %300 = alloca i32, align 4
  %301 = alloca ptr, align 8
  %302 = alloca i32, align 4
  %303 = alloca ptr, align 8
  %304 = alloca ptr, align 8
  %305 = alloca ptr, align 8
  %306 = alloca i32, align 4
  %307 = alloca %struct.sse_f, align 4
  %308 = alloca %struct.sse_f, align 4
  %309 = alloca %struct.sse_f, align 4
  %310 = alloca ptr, align 8
  %311 = alloca i32, align 4
  %312 = alloca ptr, align 8
  %313 = alloca i32, align 4
  %314 = alloca ptr, align 8
  %315 = alloca ptr, align 8
  %316 = alloca ptr, align 8
  %317 = alloca i32, align 4
  %318 = alloca %struct.sse_f, align 4
  %319 = alloca %struct.sse_f, align 4
  %320 = alloca %struct.sse_f, align 4
  %321 = alloca ptr, align 8
  %322 = alloca i32, align 4
  %323 = alloca ptr, align 8
  %324 = alloca i32, align 4
  %325 = alloca ptr, align 8
  %326 = alloca ptr, align 8
  %327 = alloca ptr, align 8
  %328 = alloca i32, align 4
  %329 = alloca %struct.sse_f, align 4
  %330 = alloca %struct.sse_f, align 4
  %331 = alloca %struct.sse_f, align 4
  %332 = alloca ptr, align 8
  %333 = alloca i32, align 4
  %334 = alloca ptr, align 8
  %335 = alloca i32, align 4
  %336 = alloca ptr, align 8
  %337 = alloca ptr, align 8
  %338 = alloca ptr, align 8
  %339 = alloca i32, align 4
  %340 = alloca %struct.sse_f, align 4
  %341 = alloca %struct.sse_f, align 4
  %342 = alloca %struct.sse_f, align 4
  %343 = alloca ptr, align 8
  %344 = alloca i32, align 4
  %345 = alloca ptr, align 8
  %346 = alloca i32, align 4
  %347 = alloca ptr, align 8
  %348 = alloca ptr, align 8
  %349 = alloca ptr, align 8
  %350 = alloca i32, align 4
  %351 = alloca %struct.sse_f, align 4
  %352 = alloca %struct.sse_f, align 4
  %353 = alloca %struct.sse_f, align 4
  %354 = alloca ptr, align 8
  %355 = alloca i32, align 4
  %356 = alloca ptr, align 8
  %357 = alloca i32, align 4
  %358 = alloca ptr, align 8
  %359 = alloca ptr, align 8
  %360 = alloca ptr, align 8
  %361 = alloca i32, align 4
  %362 = alloca %struct.sse_f, align 4
  %363 = alloca %struct.sse_f, align 4
  %364 = alloca %struct.sse_f, align 4
  %365 = alloca ptr, align 8
  %366 = alloca ptr, align 8
  %367 = alloca i32, align 4
  %368 = alloca ptr, align 8
  %369 = alloca ptr, align 8
  %370 = alloca i32, align 4
  %371 = alloca ptr, align 8
  %372 = alloca ptr, align 8
  %373 = alloca i32, align 4
  %374 = alloca ptr, align 8
  %375 = alloca ptr, align 8
  %376 = alloca i32, align 4
  %377 = alloca ptr, align 8
  %378 = alloca ptr, align 8
  %379 = alloca i32, align 4
  %380 = alloca ptr, align 8
  %381 = alloca ptr, align 8
  %382 = alloca i32, align 4
  %383 = alloca ptr, align 8
  %384 = alloca ptr, align 8
  %385 = alloca i32, align 4
  %386 = alloca ptr, align 8
  %387 = alloca ptr, align 8
  %388 = alloca i32, align 4
  %389 = alloca ptr, align 8
  %390 = alloca ptr, align 8
  %391 = alloca i32, align 4
  %392 = alloca ptr, align 8
  %393 = alloca ptr, align 8
  %394 = alloca i32, align 4
  %395 = alloca ptr, align 8
  %396 = alloca ptr, align 8
  %397 = alloca i32, align 4
  %398 = alloca ptr, align 8
  %399 = alloca ptr, align 8
  %400 = alloca i32, align 4
  %401 = alloca ptr, align 8
  %402 = alloca ptr, align 8
  %403 = alloca ptr, align 8
  %404 = alloca ptr, align 8
  %405 = alloca ptr, align 8
  %406 = alloca ptr, align 8
  %407 = alloca ptr, align 8
  %408 = alloca ptr, align 8
  %409 = alloca ptr, align 8
  %410 = alloca ptr, align 8
  %411 = alloca ptr, align 8
  %412 = alloca ptr, align 8
  %413 = alloca ptr, align 8
  %414 = alloca ptr, align 8
  %415 = alloca ptr, align 8
  %416 = alloca ptr, align 8
  %417 = alloca ptr, align 8
  %418 = alloca ptr, align 8
  %419 = alloca ptr, align 8
  %420 = alloca ptr, align 8
  %421 = alloca ptr, align 8
  %422 = alloca ptr, align 8
  %423 = alloca ptr, align 8
  %424 = alloca ptr, align 8
  %425 = alloca ptr, align 8
  %426 = alloca ptr, align 8
  %427 = alloca ptr, align 8
  %428 = alloca ptr, align 8
  %429 = alloca ptr, align 8
  %430 = alloca ptr, align 8
  %431 = alloca ptr, align 8
  %432 = alloca ptr, align 8
  %433 = alloca ptr, align 8
  %434 = alloca ptr, align 8
  %435 = alloca ptr, align 8
  %436 = alloca ptr, align 8
  %437 = alloca %struct.sse_f, align 4
  %438 = alloca float, align 4
  %439 = alloca i32, align 4
  %440 = alloca %struct.sse_f, align 4
  %441 = alloca float, align 4
  %442 = alloca i32, align 4
  %443 = alloca ptr, align 8
  %444 = alloca %struct.sse_f, align 4
  %445 = alloca %struct.sse_f, align 4
  %446 = alloca %struct.sse_f, align 4
  %447 = alloca float, align 4
  %448 = alloca i32, align 4
  %449 = alloca %struct.sse_f, align 4
  %450 = alloca float, align 4
  %451 = alloca i32, align 4
  %452 = alloca ptr, align 8
  %453 = alloca %struct.sse_f, align 4
  %454 = alloca %struct.sse_f, align 4
  %455 = alloca %struct.sse_f, align 4
  %456 = alloca float, align 4
  %457 = alloca i32, align 4
  %458 = alloca %struct.sse_f, align 4
  %459 = alloca float, align 4
  %460 = alloca i32, align 4
  %461 = alloca ptr, align 8
  %462 = alloca %struct.sse_f, align 4
  %463 = alloca %struct.sse_f, align 4
  %464 = alloca %struct.sse_f, align 4
  %465 = alloca float, align 4
  %466 = alloca i32, align 4
  %467 = alloca %struct.sse_f, align 4
  %468 = alloca float, align 4
  %469 = alloca i32, align 4
  %470 = alloca ptr, align 8
  %471 = alloca %struct.sse_f, align 4
  %472 = alloca %struct.sse_f, align 4
  %473 = alloca %struct.sse_f, align 4
  %474 = alloca float, align 4
  %475 = alloca i32, align 4
  %476 = alloca %struct.sse_f, align 4
  %477 = alloca float, align 4
  %478 = alloca i32, align 4
  %479 = alloca ptr, align 8
  %480 = alloca %struct.sse_f, align 4
  %481 = alloca %struct.sse_f, align 4
  %482 = alloca %struct.sse_f, align 4
  %483 = alloca float, align 4
  %484 = alloca i32, align 4
  %485 = alloca %struct.sse_f, align 4
  %486 = alloca float, align 4
  %487 = alloca i32, align 4
  %488 = alloca ptr, align 8
  %489 = alloca %struct.sse_f, align 4
  %490 = alloca %struct.sse_f, align 4
  %491 = alloca double, align 8
  %492 = alloca %struct.sse_f, align 4
  %493 = alloca %struct.sse_f, align 4
  %494 = alloca %struct.sse_f, align 4
  %495 = alloca i32, align 4
  %496 = alloca %struct.sse_f, align 4
  %497 = alloca %struct.sse_f, align 4
  %498 = alloca %struct.sse_f, align 4
  %499 = alloca %struct.sse_f, align 4
  %500 = alloca %struct.sse_f, align 4
  %501 = alloca %struct.sse_i, align 4
  %502 = alloca %struct.sse_f, align 4
  %503 = alloca %struct.sse_f, align 4
  %504 = alloca i32, align 4
  %505 = alloca ptr, align 8
  %506 = alloca float, align 4
  %507 = alloca ptr, align 8
  %508 = alloca float, align 4
  %509 = alloca ptr, align 8
  %510 = alloca float, align 4
  %511 = alloca ptr, align 8
  %512 = alloca ptr, align 8
  %513 = alloca ptr, align 8
  %514 = alloca ptr, align 8
  %515 = alloca ptr, align 8
  %516 = alloca ptr, align 8
  %517 = alloca %struct.sse_f, align 4
  %518 = alloca %struct.sse_f, align 4
  %519 = alloca %struct.sse_f, align 4
  %520 = alloca i32, align 4
  %521 = alloca %struct.sse_f, align 4
  %522 = alloca %struct.sse_f, align 4
  %523 = alloca %struct.sse_f, align 4
  %524 = alloca i32, align 4
  %525 = alloca %struct.sse_f, align 4
  %526 = alloca %struct.sse_f, align 4
  %527 = alloca %struct.sse_f, align 4
  %528 = alloca %struct.sse_f, align 4
  %529 = alloca %struct.sse_f, align 4
  %530 = alloca %struct.sse_f, align 4
  %531 = alloca %struct.sse_f, align 4
  %532 = alloca %struct.sse_f, align 4
  %533 = alloca %struct.sse_f, align 4
  %534 = alloca %struct.sse_f, align 4
  %535 = alloca ptr, align 8
  %536 = alloca ptr, align 8
  %537 = alloca ptr, align 8
  %538 = alloca i32, align 4
  %539 = alloca %struct.sse_f, align 4
  %540 = alloca %struct.sse_f, align 4
  %541 = alloca %struct.sse_f, align 4
  %542 = alloca %"class.RTTL::RTVec_t", align 4
  %543 = alloca ptr, align 8
  %544 = alloca ptr, align 8
  %545 = alloca %"class.RTTL::RTVec_t", align 4
  %546 = alloca ptr, align 8
  %547 = alloca ptr, align 8
  %548 = alloca ptr, align 8
  %549 = alloca ptr, align 8
  %550 = alloca ptr, align 8
  %551 = alloca ptr, align 8
  %552 = alloca ptr, align 8
  %553 = alloca ptr, align 8
  %554 = alloca ptr, align 8
  %555 = alloca ptr, align 8
  %556 = alloca ptr, align 8
  %557 = alloca ptr, align 8
  %558 = alloca ptr, align 8
  %559 = alloca ptr, align 8
  %560 = alloca ptr, align 8
  %561 = alloca ptr, align 8
  %562 = alloca i32, align 4
  %563 = alloca i8, align 1
  %564 = alloca ptr, align 8
  %565 = alloca ptr, align 8
  %566 = alloca ptr, align 8
  %567 = alloca ptr, align 8
  %568 = alloca ptr, align 8
  %569 = alloca ptr, align 8
  %570 = alloca ptr, align 8
  %571 = alloca ptr, align 8
  %572 = alloca ptr, align 8
  %573 = alloca ptr, align 8
  %574 = alloca %struct.sse_i, align 4
  %575 = alloca %struct.sse_f, align 4
  %576 = alloca %struct.sse_f, align 4
  %577 = alloca %struct.sse_f, align 4
  %578 = alloca %struct.sse_f, align 4
  %579 = alloca %struct.sse_f, align 4
  %580 = alloca i32, align 4
  %581 = alloca i32, align 4
  %582 = alloca i32, align 4
  %583 = alloca %"class.RTTL::AABB", align 4
  %584 = alloca ptr, align 8
  %585 = alloca ptr, align 8
  %586 = alloca i32, align 4
  %587 = alloca i32, align 4
  %588 = alloca i32, align 4
  %589 = alloca i32, align 4
  %590 = alloca ptr, align 8
  %591 = alloca %"class.RTTL::RTBox_t.1", align 4
  %592 = alloca ptr, align 8
  %593 = alloca %"class.RTTL::RTBox_t.1", align 4
  %594 = alloca ptr, align 8
  %595 = alloca %"class.RTTL::RTBox_t.1", align 4
  %596 = alloca %struct.sse_f, align 4
  %597 = alloca %struct.sse_f, align 4
  %598 = alloca %struct.sse_f, align 4
  %599 = alloca i32, align 4
  %600 = alloca %struct.sse_f, align 4
  %601 = alloca %struct.sse_f, align 4
  %602 = alloca %struct.sse_f, align 4
  %603 = alloca i32, align 4
  %604 = alloca %struct.sse_f, align 4
  %605 = alloca i32, align 4
  %606 = alloca %struct.sse_f, align 4
  %607 = alloca i32, align 4
  %608 = alloca %struct.sse_f, align 4
  %609 = alloca i32, align 4
  %610 = alloca %struct.sse_f, align 4
  %611 = alloca %struct.sse_f, align 4
  %612 = alloca %struct.sse_f, align 4
  %613 = alloca i32, align 4
  %614 = alloca %struct.sse_f, align 4
  %615 = alloca %struct.sse_f, align 4
  %616 = alloca %struct.sse_f, align 4
  %617 = alloca i32, align 4
  %618 = alloca %struct.sse_f, align 4
  %619 = alloca %struct.sse_f, align 4
  %620 = alloca %struct.sse_f, align 4
  %621 = alloca i32, align 4
  %622 = alloca %struct.sse_f, align 4
  %623 = alloca %struct.sse_f, align 4
  %624 = alloca %struct.sse_f, align 4
  %625 = alloca i32, align 4
  %626 = alloca %struct.sse_f, align 4
  %627 = alloca ptr, align 8
  %628 = alloca %"class.RTTL::RTVec_t", align 4
  %629 = alloca ptr, align 8
  %630 = alloca ptr, align 8
  %631 = alloca ptr, align 8
  %632 = alloca ptr, align 8
  %633 = alloca ptr, align 8
  %634 = alloca ptr, align 8
  %635 = alloca ptr, align 8
  %636 = alloca ptr, align 8
  %637 = alloca ptr, align 8
  %638 = alloca ptr, align 8
  %639 = alloca ptr, align 8
  %640 = alloca ptr, align 8
  %641 = alloca ptr, align 8
  %642 = alloca ptr, align 8
  %643 = alloca ptr, align 8
  %644 = alloca ptr, align 8
  %645 = alloca i32, align 4
  %646 = alloca i32, align 4
  %647 = alloca ptr, align 8
  %648 = alloca ptr, align 8
  %649 = alloca ptr, align 8
  %650 = alloca ptr, align 8
  %651 = alloca i32, align 4
  %652 = alloca i32, align 4
  %653 = alloca ptr, align 8
  %654 = alloca i32, align 4
  %655 = alloca i32, align 4
  %656 = alloca ptr, align 8
  %657 = alloca ptr, align 8
  %658 = alloca ptr, align 8
  %659 = alloca ptr, align 8
  %660 = alloca %struct.sse_f, align 4
  %661 = alloca float, align 4
  %662 = alloca i32, align 4
  %663 = alloca ptr, align 8
  %664 = alloca ptr, align 8
  %665 = alloca ptr, align 8
  %666 = alloca i32, align 4
  %667 = alloca %"class.RTTL::AABB", align 4
  %668 = alloca i32, align 4
  %669 = alloca i32, align 4
  %670 = alloca i32, align 4
  %671 = alloca %"class.RTTL::AABB", align 4
  %672 = alloca %struct.sse_f, align 4
  %673 = alloca i32, align 4
  %674 = alloca %struct.sse_f, align 4
  %675 = alloca i32, align 4
  %676 = alloca i32, align 4
  %677 = alloca %struct.sse_f, align 4
  %678 = alloca %struct.sse_f, align 4
  %679 = alloca %struct.sse_f, align 4
  %680 = alloca %struct.sse_f, align 4
  %681 = alloca %struct.sse_f, align 4
  %682 = alloca %struct.sse_f, align 4
  %683 = alloca %struct.sse_f, align 4
  %684 = alloca %struct.sse_f, align 4
  %685 = alloca %struct.sse_f, align 4
  %686 = alloca %struct.sse_f, align 4
  %687 = alloca %struct.sse_f, align 4
  %688 = alloca %struct.sse_f, align 4
  %689 = alloca %struct.sse_f, align 4
  %690 = alloca %struct.sse_f, align 4
  %691 = alloca float, align 4
  %692 = alloca i32, align 4
  %693 = alloca i32, align 4
  %694 = alloca float, align 4
  %695 = alloca %struct.sse_f, align 4
  %696 = alloca i32, align 4
  %697 = alloca %"class.RTTL::AABB", align 4
  %698 = alloca %"class.RTTL::AABB", align 4
  %699 = alloca i32, align 4
  %700 = alloca i32, align 4
  %701 = alloca %"class.RTTL::AABB", align 4
  %702 = alloca i32, align 4
  %703 = alloca %"class.RTTL::AABB", align 4
  %704 = alloca i32, align 4
  %705 = alloca i32, align 4
  %706 = alloca i32, align 4
  %707 = alloca i32, align 4
  %708 = alloca float, align 4
  %709 = alloca float, align 4
  %710 = alloca float, align 4
  %711 = alloca ptr, align 8
  %712 = alloca ptr, align 8
  %713 = alloca i32, align 4
  %714 = alloca %"class.RTTL::AABB", align 4
  %715 = alloca %"class.RTTL::AABB", align 4
  %716 = alloca float, align 4
  %717 = alloca float, align 4
  %718 = alloca %struct.sse_f, align 4
  %719 = alloca %struct.sse_f, align 4
  %720 = alloca %struct.sse_f, align 4
  %721 = alloca i32, align 4
  store ptr %0, ptr %663, align 8
  call void @llvm.dbg.declare(metadata ptr %663, metadata !2485, metadata !DIExpression()), !dbg !2486
  store ptr %1, ptr %664, align 8
  call void @llvm.dbg.declare(metadata ptr %664, metadata !2487, metadata !DIExpression()), !dbg !2488
  store ptr %2, ptr %665, align 8
  call void @llvm.dbg.declare(metadata ptr %665, metadata !2489, metadata !DIExpression()), !dbg !2490
  store i32 %3, ptr %666, align 4
  call void @llvm.dbg.declare(metadata ptr %666, metadata !2491, metadata !DIExpression()), !dbg !2492
  %722 = load ptr, ptr %663, align 8
  %723 = load ptr, ptr %664, align 8, !dbg !2493
  %724 = load i32, ptr %666, align 4, !dbg !2493
  %725 = sext i32 %724 to i64, !dbg !2493
  %726 = getelementptr inbounds %"class.RTTL::AABB", ptr %723, i64 %725, !dbg !2493
  store ptr %726, ptr %649, align 8
  call void @llvm.dbg.declare(metadata ptr %649, metadata !2494, metadata !DIExpression()), !dbg !2496
  %727 = load ptr, ptr %649, align 8
  store ptr %727, ptr %555, align 8
  call void @llvm.dbg.declare(metadata ptr %555, metadata !2176, metadata !DIExpression()), !dbg !2498
  %728 = load ptr, ptr %555, align 8
  %729 = getelementptr inbounds %"class.RTTL::RTBox_t", ptr %728, i32 0, i32 1, !dbg !2500
  %730 = getelementptr inbounds %"struct.RTTL::BVHExtData", ptr %729, i64 3, !dbg !2501
  %731 = load i32, ptr %730, align 4, !dbg !2502
  %732 = and i32 %731, -2147483648, !dbg !2503
  %733 = icmp ne i32 %732, 0, !dbg !2502
  br i1 %733, label %734, label %735, !dbg !2493

734:                                              ; preds = %4
  br label %737, !dbg !2493

735:                                              ; preds = %4
  call void @__assert_fail(ptr noundef @.str.5, ptr noundef @.str.6, i32 noundef 44, ptr noundef @__PRETTY_FUNCTION__._ZN4RTTL15OnDemandBuilder10createNodeEPNS_4AABBEPii) #17, !dbg !2493
  unreachable, !dbg !2493

736:                                              ; No predecessors!
  br label %737, !dbg !2493

737:                                              ; preds = %736, %734
  call void @llvm.dbg.declare(metadata ptr %667, metadata !2504, metadata !DIExpression()), !dbg !2505
  %738 = load ptr, ptr %664, align 8, !dbg !2506
  %739 = load i32, ptr %666, align 4, !dbg !2507
  %740 = sext i32 %739 to i64, !dbg !2506
  %741 = getelementptr inbounds %"class.RTTL::AABB", ptr %738, i64 %740, !dbg !2506
  call void @_ZN4RTTL4AABBC2ERKS0_(ptr noundef nonnull align 4 dereferenceable(32) %667, ptr noundef nonnull align 4 dereferenceable(32) %741), !dbg !2506
  call void @llvm.dbg.declare(metadata ptr %668, metadata !2508, metadata !DIExpression()), !dbg !2509
  %742 = load ptr, ptr %664, align 8, !dbg !2510
  %743 = load i32, ptr %666, align 4, !dbg !2511
  %744 = sext i32 %743 to i64, !dbg !2510
  %745 = getelementptr inbounds %"class.RTTL::AABB", ptr %742, i64 %744, !dbg !2510
  store ptr %745, ptr %648, align 8
  call void @llvm.dbg.declare(metadata ptr %648, metadata !2512, metadata !DIExpression()), !dbg !2514
  %746 = load ptr, ptr %648, align 8
  %747 = getelementptr inbounds %"struct.RTTL::BVHExtData", ptr %746, i64 3, !dbg !2516
  %748 = load i32, ptr %747, align 4, !dbg !2517
  %749 = and i32 %748, 2147483647, !dbg !2518
  store i32 %749, ptr %668, align 4, !dbg !2509
  call void @llvm.dbg.declare(metadata ptr %669, metadata !2519, metadata !DIExpression()), !dbg !2520
  %750 = load i32, ptr %668, align 4, !dbg !2521
  %751 = load ptr, ptr %664, align 8, !dbg !2522
  %752 = load i32, ptr %666, align 4, !dbg !2523
  %753 = sext i32 %752 to i64, !dbg !2522
  %754 = getelementptr inbounds %"class.RTTL::AABB", ptr %751, i64 %753, !dbg !2522
  store ptr %754, ptr %647, align 8
  call void @llvm.dbg.declare(metadata ptr %647, metadata !2524, metadata !DIExpression()), !dbg !2526
  %755 = load ptr, ptr %647, align 8
  store ptr %755, ptr %556, align 8
  call void @llvm.dbg.declare(metadata ptr %556, metadata !2176, metadata !DIExpression()), !dbg !2528
  %756 = load ptr, ptr %556, align 8
  %757 = getelementptr inbounds %"class.RTTL::RTBox_t", ptr %756, i32 0, i32 1, !dbg !2530
  %758 = getelementptr inbounds %"struct.RTTL::BVHExtData", ptr %757, i64 3, !dbg !2531
  %759 = load i32, ptr %758, align 4, !dbg !2532
  %760 = and i32 %759, 2147483647, !dbg !2533
  %761 = add i32 %750, %760, !dbg !2534
  store i32 %761, ptr %669, align 4, !dbg !2520
  call void @llvm.dbg.declare(metadata ptr %670, metadata !2535, metadata !DIExpression()), !dbg !2536
  %762 = load i32, ptr %669, align 4, !dbg !2537
  %763 = load i32, ptr %668, align 4, !dbg !2538
  %764 = sub nsw i32 %762, %763, !dbg !2539
  store i32 %764, ptr %670, align 4, !dbg !2536
  %765 = load i32, ptr %670, align 4, !dbg !2540
  %766 = icmp sle i32 %765, 1, !dbg !2542
  br i1 %766, label %767, label %800, !dbg !2543

767:                                              ; preds = %737
  br label %768, !dbg !2544

768:                                              ; preds = %2888, %767
  call void @llvm.dbg.label(metadata !2545), !dbg !2547
  %769 = load ptr, ptr %664, align 8, !dbg !2548
  %770 = load i32, ptr %666, align 4, !dbg !2549
  %771 = sext i32 %770 to i64, !dbg !2548
  %772 = getelementptr inbounds %"class.RTTL::AABB", ptr %769, i64 %771, !dbg !2548
  %773 = call noundef nonnull align 4 dereferenceable(32) ptr @_ZN4RTTL4AABBaSERKS0_(ptr noundef nonnull align 4 dereferenceable(32) %772, ptr noundef nonnull align 4 dereferenceable(32) %667), !dbg !2550
  %774 = load ptr, ptr %664, align 8, !dbg !2551
  %775 = load i32, ptr %666, align 4, !dbg !2552
  %776 = sext i32 %775 to i64, !dbg !2551
  %777 = getelementptr inbounds %"class.RTTL::AABB", ptr %774, i64 %776, !dbg !2551
  %778 = load i32, ptr %668, align 4, !dbg !2553
  %779 = load i32, ptr %669, align 4, !dbg !2554
  %780 = load i32, ptr %668, align 4, !dbg !2555
  %781 = sub nsw i32 %779, %780, !dbg !2556
  store ptr %777, ptr %644, align 8
  call void @llvm.dbg.declare(metadata ptr %644, metadata !2557, metadata !DIExpression()), !dbg !2559
  store i32 %778, ptr %645, align 4
  call void @llvm.dbg.declare(metadata ptr %645, metadata !2561, metadata !DIExpression()), !dbg !2562
  store i32 %781, ptr %646, align 4
  call void @llvm.dbg.declare(metadata ptr %646, metadata !2563, metadata !DIExpression()), !dbg !2564
  %782 = load ptr, ptr %644, align 8
  %783 = load i32, ptr %645, align 4, !dbg !2565
  %784 = or i32 %783, -2147483648, !dbg !2566
  store ptr %782, ptr %559, align 8
  call void @llvm.dbg.declare(metadata ptr %559, metadata !2167, metadata !DIExpression()), !dbg !2567
  %785 = load ptr, ptr %559, align 8
  %786 = getelementptr inbounds %"struct.RTTL::BVHExtData", ptr %785, i64 3, !dbg !2569
  store i32 %784, ptr %786, align 4, !dbg !2570
  %787 = load i32, ptr %646, align 4, !dbg !2571
  %788 = trunc i32 %787 to i16, !dbg !2571
  store ptr %782, ptr %551, align 8
  call void @llvm.dbg.declare(metadata ptr %551, metadata !2572, metadata !DIExpression()), !dbg !2574
  %789 = load ptr, ptr %551, align 8
  %790 = getelementptr inbounds %"class.RTTL::RTBox_t", ptr %789, i32 0, i32 1, !dbg !2576
  %791 = getelementptr inbounds %"struct.RTTL::BVHExtData", ptr %790, i64 3, !dbg !2577
  %792 = getelementptr inbounds %struct.anon, ptr %791, i32 0, i32 2, !dbg !2578
  store i16 %788, ptr %792, align 2, !dbg !2579
  store ptr %782, ptr %549, align 8
  call void @llvm.dbg.declare(metadata ptr %549, metadata !2580, metadata !DIExpression()), !dbg !2582
  %793 = load ptr, ptr %549, align 8
  %794 = getelementptr inbounds %"class.RTTL::RTBox_t", ptr %793, i32 0, i32 1, !dbg !2584
  %795 = getelementptr inbounds %"struct.RTTL::BVHExtData", ptr %794, i64 3, !dbg !2585
  store i8 0, ptr %795, align 1, !dbg !2586
  store ptr %782, ptr %547, align 8
  call void @llvm.dbg.declare(metadata ptr %547, metadata !2587, metadata !DIExpression()), !dbg !2589
  %796 = load ptr, ptr %547, align 8
  %797 = getelementptr inbounds %"class.RTTL::RTBox_t", ptr %796, i32 0, i32 1, !dbg !2591
  %798 = getelementptr inbounds %"struct.RTTL::BVHExtData", ptr %797, i64 3, !dbg !2592
  %799 = getelementptr inbounds %struct.anon, ptr %798, i32 0, i32 1, !dbg !2593
  store i8 0, ptr %799, align 1, !dbg !2594
  br label %3700, !dbg !2595

800:                                              ; preds = %737
  call void @llvm.dbg.declare(metadata ptr %671, metadata !2596, metadata !DIExpression()), !dbg !2597
  call void @_ZN4RTTL4AABBC2Ev(ptr noundef nonnull align 4 dereferenceable(32) %671), !dbg !2597
  store ptr %671, ptr %639, align 8
  call void @llvm.dbg.declare(metadata ptr %639, metadata !2598, metadata !DIExpression()), !dbg !2600
  %801 = load ptr, ptr %639, align 8
  store ptr %801, ptr %479, align 8
  call void @llvm.dbg.declare(metadata ptr %479, metadata !2602, metadata !DIExpression()), !dbg !2604
  %802 = load ptr, ptr %479, align 8
  store float 0x47EFFFFFE0000000, ptr %474, align 4
  call void @llvm.dbg.declare(metadata ptr %474, metadata !1886, metadata !DIExpression()), !dbg !2606
  call void @llvm.dbg.declare(metadata ptr %473, metadata !1893, metadata !DIExpression()), !dbg !2608
  call void @_ZN5sse_fC2Ev(ptr noundef nonnull align 4 dereferenceable(16) %473), !dbg !2608
  call void @llvm.dbg.declare(metadata ptr %475, metadata !1895, metadata !DIExpression()), !dbg !2609
  store i32 0, ptr %475, align 4, !dbg !2609
  br label %803, !dbg !2610

803:                                              ; preds = %806, %800
  %804 = load i32, ptr %475, align 4, !dbg !2611
  %805 = icmp slt i32 %804, 4, !dbg !2612
  br i1 %805, label %806, label %813, !dbg !2613

806:                                              ; preds = %803
  %807 = load float, ptr %474, align 4, !dbg !2614
  %808 = load i32, ptr %475, align 4, !dbg !2615
  %809 = sext i32 %808 to i64, !dbg !2616
  %810 = getelementptr inbounds [4 x float], ptr %473, i64 0, i64 %809, !dbg !2616
  store float %807, ptr %810, align 4, !dbg !2617
  %811 = load i32, ptr %475, align 4, !dbg !2618
  %812 = add nsw i32 %811, 1, !dbg !2618
  store i32 %812, ptr %475, align 4, !dbg !2618
  br label %803, !dbg !2619, !llvm.loop !2620

813:                                              ; preds = %803
  %814 = load { <2 x float>, <2 x float> }, ptr %473, align 4, !dbg !2622
  %815 = extractvalue { <2 x float>, <2 x float> } %814, 0, !dbg !2623
  store <2 x float> %815, ptr %480, align 4, !dbg !2623
  %816 = getelementptr inbounds { <2 x float>, <2 x float> }, ptr %480, i32 0, i32 1, !dbg !2623
  %817 = extractvalue { <2 x float>, <2 x float> } %814, 1, !dbg !2623
  store <2 x float> %817, ptr %816, align 4, !dbg !2623
  store ptr %802, ptr %407, align 8
  call void @llvm.dbg.declare(metadata ptr %407, metadata !2624, metadata !DIExpression()), !dbg !2626
  store ptr %480, ptr %408, align 8
  call void @llvm.dbg.declare(metadata ptr %408, metadata !2628, metadata !DIExpression()), !dbg !2629
  %818 = load ptr, ptr %407, align 8
  call void @llvm.dbg.declare(metadata ptr %409, metadata !2630, metadata !DIExpression()), !dbg !2631
  %819 = call noundef nonnull align 4 dereferenceable(16) ptr @_ZN4RTTL7RTVec_tILi1E5sse_fLi0EEcvRNS_8RTData_tILi1ES1_Li0EEEEv(ptr noundef nonnull align 4 dereferenceable(16) %818), !dbg !2632
  store ptr %819, ptr %409, align 8, !dbg !2631
  %820 = load ptr, ptr %409, align 8, !dbg !2633
  %821 = load ptr, ptr %408, align 8, !dbg !2634
  store ptr %820, ptr %392, align 8
  call void @llvm.dbg.declare(metadata ptr %392, metadata !2635, metadata !DIExpression()), !dbg !2637
  store ptr %821, ptr %393, align 8
  call void @llvm.dbg.declare(metadata ptr %393, metadata !2639, metadata !DIExpression()), !dbg !2640
  %822 = load ptr, ptr %392, align 8
  call void @llvm.dbg.declare(metadata ptr %394, metadata !2641, metadata !DIExpression()), !dbg !2643
  store i32 0, ptr %394, align 4, !dbg !2643
  br label %823, !dbg !2644

823:                                              ; preds = %826, %813
  %824 = load i32, ptr %394, align 4, !dbg !2645
  %825 = icmp slt i32 %824, 1, !dbg !2647
  br i1 %825, label %826, label %833, !dbg !2648

826:                                              ; preds = %823
  %827 = load ptr, ptr %393, align 8, !dbg !2649
  %828 = load i32, ptr %394, align 4, !dbg !2650
  %829 = sext i32 %828 to i64, !dbg !2651
  %830 = getelementptr inbounds [1 x %struct.sse_f], ptr %822, i64 0, i64 %829, !dbg !2651
  call void @llvm.memcpy.p0.p0.i64(ptr align 4 %830, ptr align 4 %827, i64 16, i1 false), !dbg !2652
  %831 = load i32, ptr %394, align 4, !dbg !2653
  %832 = add nsw i32 %831, 1, !dbg !2653
  store i32 %832, ptr %394, align 4, !dbg !2653
  br label %823, !dbg !2654, !llvm.loop !2655

833:                                              ; preds = %823
  store float 0xC7EFFFFFE0000000, ptr %477, align 4
  call void @llvm.dbg.declare(metadata ptr %477, metadata !1886, metadata !DIExpression()), !dbg !2657
  call void @llvm.dbg.declare(metadata ptr %476, metadata !1893, metadata !DIExpression()), !dbg !2659
  call void @_ZN5sse_fC2Ev(ptr noundef nonnull align 4 dereferenceable(16) %476), !dbg !2659
  call void @llvm.dbg.declare(metadata ptr %478, metadata !1895, metadata !DIExpression()), !dbg !2660
  store i32 0, ptr %478, align 4, !dbg !2660
  br label %834, !dbg !2661

834:                                              ; preds = %837, %833
  %835 = load i32, ptr %478, align 4, !dbg !2662
  %836 = icmp slt i32 %835, 4, !dbg !2663
  br i1 %836, label %837, label %844, !dbg !2664

837:                                              ; preds = %834
  %838 = load float, ptr %477, align 4, !dbg !2665
  %839 = load i32, ptr %478, align 4, !dbg !2666
  %840 = sext i32 %839 to i64, !dbg !2667
  %841 = getelementptr inbounds [4 x float], ptr %476, i64 0, i64 %840, !dbg !2667
  store float %838, ptr %841, align 4, !dbg !2668
  %842 = load i32, ptr %478, align 4, !dbg !2669
  %843 = add nsw i32 %842, 1, !dbg !2669
  store i32 %843, ptr %478, align 4, !dbg !2669
  br label %834, !dbg !2670, !llvm.loop !2671

844:                                              ; preds = %834
  %845 = load { <2 x float>, <2 x float> }, ptr %476, align 4, !dbg !2673
  %846 = extractvalue { <2 x float>, <2 x float> } %845, 0, !dbg !2674
  store <2 x float> %846, ptr %481, align 4, !dbg !2674
  %847 = getelementptr inbounds { <2 x float>, <2 x float> }, ptr %481, i32 0, i32 1, !dbg !2674
  %848 = extractvalue { <2 x float>, <2 x float> } %845, 1, !dbg !2674
  store <2 x float> %848, ptr %847, align 4, !dbg !2674
  %849 = getelementptr inbounds %"class.RTTL::RTBox_t", ptr %802, i32 0, i32 1, !dbg !2675
  store ptr %849, ptr %410, align 8
  call void @llvm.dbg.declare(metadata ptr %410, metadata !2624, metadata !DIExpression()), !dbg !2676
  store ptr %481, ptr %411, align 8
  call void @llvm.dbg.declare(metadata ptr %411, metadata !2628, metadata !DIExpression()), !dbg !2678
  %850 = load ptr, ptr %410, align 8
  call void @llvm.dbg.declare(metadata ptr %412, metadata !2630, metadata !DIExpression()), !dbg !2679
  %851 = call noundef nonnull align 4 dereferenceable(16) ptr @_ZN4RTTL7RTVec_tILi1E5sse_fLi0EEcvRNS_8RTData_tILi1ES1_Li0EEEEv(ptr noundef nonnull align 4 dereferenceable(16) %850), !dbg !2680
  store ptr %851, ptr %412, align 8, !dbg !2679
  %852 = load ptr, ptr %412, align 8, !dbg !2681
  %853 = load ptr, ptr %411, align 8, !dbg !2682
  store ptr %852, ptr %389, align 8
  call void @llvm.dbg.declare(metadata ptr %389, metadata !2635, metadata !DIExpression()), !dbg !2683
  store ptr %853, ptr %390, align 8
  call void @llvm.dbg.declare(metadata ptr %390, metadata !2639, metadata !DIExpression()), !dbg !2685
  %854 = load ptr, ptr %389, align 8
  call void @llvm.dbg.declare(metadata ptr %391, metadata !2641, metadata !DIExpression()), !dbg !2686
  store i32 0, ptr %391, align 4, !dbg !2686
  br label %855, !dbg !2687

855:                                              ; preds = %858, %844
  %856 = load i32, ptr %391, align 4, !dbg !2688
  %857 = icmp slt i32 %856, 1, !dbg !2689
  br i1 %857, label %858, label %865, !dbg !2690

858:                                              ; preds = %855
  %859 = load ptr, ptr %390, align 8, !dbg !2691
  %860 = load i32, ptr %391, align 4, !dbg !2692
  %861 = sext i32 %860 to i64, !dbg !2693
  %862 = getelementptr inbounds [1 x %struct.sse_f], ptr %854, i64 0, i64 %861, !dbg !2693
  call void @llvm.memcpy.p0.p0.i64(ptr align 4 %862, ptr align 4 %859, i64 16, i1 false), !dbg !2694
  %863 = load i32, ptr %391, align 4, !dbg !2695
  %864 = add nsw i32 %863, 1, !dbg !2695
  store i32 %864, ptr %391, align 4, !dbg !2695
  br label %855, !dbg !2696, !llvm.loop !2697

865:                                              ; preds = %855
  call void @llvm.dbg.declare(metadata ptr %672, metadata !2699, metadata !DIExpression()), !dbg !2700
  store ptr %671, ptr %637, align 8
  call void @llvm.dbg.declare(metadata ptr %637, metadata !2456, metadata !DIExpression()), !dbg !2701
  %866 = load ptr, ptr %637, align 8
  %867 = call noundef nonnull align 4 dereferenceable(16) ptr @_ZN4RTTL7RTVec_tILi1E5sse_fLi0EEixEi(ptr noundef nonnull align 4 dereferenceable(16) %866, i32 noundef 0), !dbg !2703
  call void @llvm.memcpy.p0.p0.i64(ptr align 4 %672, ptr align 4 %867, i64 16, i1 false), !dbg !2704
  call void @llvm.dbg.declare(metadata ptr %673, metadata !2705, metadata !DIExpression()), !dbg !2707
  %868 = load i32, ptr %668, align 4, !dbg !2708
  store i32 %868, ptr %673, align 4, !dbg !2707
  br label %869, !dbg !2709

869:                                              ; preds = %1047, %865
  %870 = load i32, ptr %673, align 4, !dbg !2710
  %871 = load i32, ptr %669, align 4, !dbg !2712
  %872 = icmp slt i32 %870, %871, !dbg !2713
  br i1 %872, label %873, label %1050, !dbg !2714

873:                                              ; preds = %869
  %874 = getelementptr inbounds %"class.RTTL::OnDemandBuilder", ptr %722, i32 0, i32 1, !dbg !2715
  %875 = load ptr, ptr %874, align 8, !dbg !2715
  %876 = load ptr, ptr %665, align 8, !dbg !2716
  %877 = load i32, ptr %673, align 4, !dbg !2717
  %878 = sext i32 %877 to i64, !dbg !2716
  %879 = getelementptr inbounds i32, ptr %876, i64 %878, !dbg !2716
  %880 = load i32, ptr %879, align 4, !dbg !2716
  %881 = sext i32 %880 to i64, !dbg !2715
  %882 = getelementptr inbounds %"class.RTTL::CentroidDiffAABB", ptr %875, i64 %881, !dbg !2715
  %883 = call { <2 x float>, <2 x float> } @_ZNK4RTTL16CentroidDiffAABB8centroidEv(ptr noundef nonnull align 4 dereferenceable(32) %882), !dbg !2718
  %884 = getelementptr inbounds %struct.sse_f, ptr %674, i32 0, i32 0, !dbg !2718
  %885 = getelementptr inbounds { <2 x float>, <2 x float> }, ptr %884, i32 0, i32 0, !dbg !2718
  %886 = extractvalue { <2 x float>, <2 x float> } %883, 0, !dbg !2718
  store <2 x float> %886, ptr %885, align 4, !dbg !2718
  %887 = getelementptr inbounds { <2 x float>, <2 x float> }, ptr %884, i32 0, i32 1, !dbg !2718
  %888 = extractvalue { <2 x float>, <2 x float> } %883, 1, !dbg !2718
  store <2 x float> %888, ptr %887, align 4, !dbg !2718
  store ptr %671, ptr %629, align 8
  call void @llvm.dbg.declare(metadata ptr %629, metadata !2719, metadata !DIExpression()), !dbg !2721
  store ptr %674, ptr %630, align 8
  call void @llvm.dbg.declare(metadata ptr %630, metadata !2723, metadata !DIExpression()), !dbg !2724
  %889 = load ptr, ptr %629, align 8
  %890 = load ptr, ptr %630, align 8, !dbg !2725
  store ptr %889, ptr %158, align 8
  call void @llvm.dbg.declare(metadata ptr %158, metadata !2726, metadata !DIExpression()), !dbg !2728
  store ptr %890, ptr %159, align 8
  call void @llvm.dbg.declare(metadata ptr %159, metadata !2730, metadata !DIExpression()), !dbg !2731
  %891 = load ptr, ptr %158, align 8
  call void @llvm.dbg.declare(metadata ptr %160, metadata !2732, metadata !DIExpression()), !dbg !2733
  %892 = call noundef nonnull align 4 dereferenceable(16) ptr @_ZN4RTTL7RTVec_tILi1E5sse_fLi0EEcvRNS_8RTData_tILi1ES1_Li0EEEEv(ptr noundef nonnull align 4 dereferenceable(16) %891), !dbg !2734
  store ptr %892, ptr %160, align 8, !dbg !2733
  call void @llvm.dbg.declare(metadata ptr %161, metadata !2735, metadata !DIExpression()), !dbg !2737
  store i32 0, ptr %161, align 4, !dbg !2737
  br label %893, !dbg !2738

893:                                              ; preds = %950, %873
  %894 = load i32, ptr %161, align 4, !dbg !2739
  %895 = icmp slt i32 %894, 1, !dbg !2741
  br i1 %895, label %896, label %967, !dbg !2742

896:                                              ; preds = %893
  %897 = load ptr, ptr %160, align 8, !dbg !2743
  %898 = load i32, ptr %161, align 4, !dbg !2744
  store ptr %897, ptr %154, align 8
  call void @llvm.dbg.declare(metadata ptr %154, metadata !2006, metadata !DIExpression()), !dbg !2745
  store i32 %898, ptr %155, align 4
  call void @llvm.dbg.declare(metadata ptr %155, metadata !2011, metadata !DIExpression()), !dbg !2747
  %899 = load ptr, ptr %154, align 8
  %900 = load i32, ptr %155, align 4, !dbg !2748
  %901 = sext i32 %900 to i64, !dbg !2749
  %902 = getelementptr inbounds [1 x %struct.sse_f], ptr %899, i64 0, i64 %901, !dbg !2749
  call void @llvm.memcpy.p0.p0.i64(ptr align 4 %163, ptr align 4 %902, i64 16, i1 false), !dbg !2743
  %903 = load ptr, ptr %159, align 8, !dbg !2750
  call void @llvm.memcpy.p0.p0.i64(ptr align 4 %164, ptr align 4 %903, i64 16, i1 false), !dbg !2750
  %904 = load <2 x float>, ptr %163, align 4, !dbg !2751
  %905 = getelementptr inbounds { <2 x float>, <2 x float> }, ptr %163, i32 0, i32 1, !dbg !2751
  %906 = load <2 x float>, ptr %905, align 4, !dbg !2751
  %907 = load <2 x float>, ptr %164, align 4, !dbg !2751
  %908 = getelementptr inbounds { <2 x float>, <2 x float> }, ptr %164, i32 0, i32 1, !dbg !2751
  %909 = load <2 x float>, ptr %908, align 4, !dbg !2751
  store <2 x float> %904, ptr %150, align 4
  %910 = getelementptr inbounds { <2 x float>, <2 x float> }, ptr %150, i32 0, i32 1
  store <2 x float> %906, ptr %910, align 4
  store <2 x float> %907, ptr %151, align 4
  %911 = getelementptr inbounds { <2 x float>, <2 x float> }, ptr %151, i32 0, i32 1
  store <2 x float> %909, ptr %911, align 4
  call void @llvm.dbg.declare(metadata ptr %150, metadata !2018, metadata !DIExpression()), !dbg !2752
  call void @llvm.dbg.declare(metadata ptr %151, metadata !2024, metadata !DIExpression()), !dbg !2754
  call void @llvm.memcpy.p0.p0.i64(ptr align 4 %152, ptr align 4 %150, i64 16, i1 false), !dbg !2755
  call void @llvm.memcpy.p0.p0.i64(ptr align 4 %153, ptr align 4 %151, i64 16, i1 false), !dbg !2756
  %912 = load <2 x float>, ptr %152, align 4, !dbg !2757
  %913 = getelementptr inbounds { <2 x float>, <2 x float> }, ptr %152, i32 0, i32 1, !dbg !2757
  %914 = load <2 x float>, ptr %913, align 4, !dbg !2757
  %915 = load <2 x float>, ptr %153, align 4, !dbg !2757
  %916 = getelementptr inbounds { <2 x float>, <2 x float> }, ptr %153, i32 0, i32 1, !dbg !2757
  %917 = load <2 x float>, ptr %916, align 4, !dbg !2757
  store <2 x float> %912, ptr %146, align 4
  %918 = getelementptr inbounds { <2 x float>, <2 x float> }, ptr %146, i32 0, i32 1
  store <2 x float> %914, ptr %918, align 4
  store <2 x float> %915, ptr %147, align 4
  %919 = getelementptr inbounds { <2 x float>, <2 x float> }, ptr %147, i32 0, i32 1
  store <2 x float> %917, ptr %919, align 4
  call void @llvm.dbg.declare(metadata ptr %146, metadata !2029, metadata !DIExpression()), !dbg !2758
  call void @llvm.dbg.declare(metadata ptr %147, metadata !2033, metadata !DIExpression()), !dbg !2760
  call void @llvm.dbg.declare(metadata ptr %145, metadata !2035, metadata !DIExpression()), !dbg !2761
  call void @_ZN5sse_fC2Ev(ptr noundef nonnull align 4 dereferenceable(16) %145), !dbg !2761
  call void @llvm.dbg.declare(metadata ptr %148, metadata !2037, metadata !DIExpression()), !dbg !2762
  store i32 0, ptr %148, align 4, !dbg !2762
  br label %920, !dbg !2763

920:                                              ; preds = %943, %896
  %921 = load i32, ptr %148, align 4, !dbg !2764
  %922 = icmp slt i32 %921, 4, !dbg !2765
  br i1 %922, label %923, label %950, !dbg !2766

923:                                              ; preds = %920
  %924 = load i32, ptr %148, align 4, !dbg !2767
  %925 = sext i32 %924 to i64, !dbg !2767
  %926 = getelementptr inbounds [4 x float], ptr %146, i64 0, i64 %925, !dbg !2767
  %927 = load float, ptr %926, align 4, !dbg !2767
  %928 = load i32, ptr %148, align 4, !dbg !2767
  %929 = sext i32 %928 to i64, !dbg !2767
  %930 = getelementptr inbounds [4 x float], ptr %147, i64 0, i64 %929, !dbg !2767
  %931 = load float, ptr %930, align 4, !dbg !2767
  %932 = fcmp olt float %927, %931, !dbg !2767
  br i1 %932, label %933, label %938, !dbg !2767

933:                                              ; preds = %923
  %934 = load i32, ptr %148, align 4, !dbg !2767
  %935 = sext i32 %934 to i64, !dbg !2767
  %936 = getelementptr inbounds [4 x float], ptr %146, i64 0, i64 %935, !dbg !2767
  %937 = load float, ptr %936, align 4, !dbg !2767
  br label %943, !dbg !2767

938:                                              ; preds = %923
  %939 = load i32, ptr %148, align 4, !dbg !2767
  %940 = sext i32 %939 to i64, !dbg !2767
  %941 = getelementptr inbounds [4 x float], ptr %147, i64 0, i64 %940, !dbg !2767
  %942 = load float, ptr %941, align 4, !dbg !2767
  br label %943, !dbg !2767

943:                                              ; preds = %938, %933
  %944 = phi float [ %937, %933 ], [ %942, %938 ], !dbg !2767
  %945 = load i32, ptr %148, align 4, !dbg !2768
  %946 = sext i32 %945 to i64, !dbg !2768
  %947 = getelementptr inbounds [4 x float], ptr %145, i64 0, i64 %946, !dbg !2768
  store float %944, ptr %947, align 4, !dbg !2769
  %948 = load i32, ptr %148, align 4, !dbg !2770
  %949 = add nsw i32 %948, 1, !dbg !2770
  store i32 %949, ptr %148, align 4, !dbg !2770
  br label %920, !dbg !2771, !llvm.loop !2772

950:                                              ; preds = %920
  %951 = load { <2 x float>, <2 x float> }, ptr %145, align 4, !dbg !2774
  %952 = extractvalue { <2 x float>, <2 x float> } %951, 0, !dbg !2757
  store <2 x float> %952, ptr %149, align 4, !dbg !2757
  %953 = getelementptr inbounds { <2 x float>, <2 x float> }, ptr %149, i32 0, i32 1, !dbg !2757
  %954 = extractvalue { <2 x float>, <2 x float> } %951, 1, !dbg !2757
  store <2 x float> %954, ptr %953, align 4, !dbg !2757
  %955 = load { <2 x float>, <2 x float> }, ptr %149, align 4, !dbg !2775
  %956 = extractvalue { <2 x float>, <2 x float> } %955, 0, !dbg !2751
  store <2 x float> %956, ptr %162, align 4, !dbg !2751
  %957 = getelementptr inbounds { <2 x float>, <2 x float> }, ptr %162, i32 0, i32 1, !dbg !2751
  %958 = extractvalue { <2 x float>, <2 x float> } %955, 1, !dbg !2751
  store <2 x float> %958, ptr %957, align 4, !dbg !2751
  %959 = load ptr, ptr %160, align 8, !dbg !2776
  %960 = load i32, ptr %161, align 4, !dbg !2777
  store ptr %959, ptr %156, align 8
  call void @llvm.dbg.declare(metadata ptr %156, metadata !2006, metadata !DIExpression()), !dbg !2778
  store i32 %960, ptr %157, align 4
  call void @llvm.dbg.declare(metadata ptr %157, metadata !2011, metadata !DIExpression()), !dbg !2780
  %961 = load ptr, ptr %156, align 8
  %962 = load i32, ptr %157, align 4, !dbg !2781
  %963 = sext i32 %962 to i64, !dbg !2782
  %964 = getelementptr inbounds [1 x %struct.sse_f], ptr %961, i64 0, i64 %963, !dbg !2782
  call void @llvm.memcpy.p0.p0.i64(ptr align 4 %964, ptr align 4 %162, i64 16, i1 false), !dbg !2783
  %965 = load i32, ptr %161, align 4, !dbg !2784
  %966 = add nsw i32 %965, 1, !dbg !2784
  store i32 %966, ptr %161, align 4, !dbg !2784
  br label %893, !dbg !2785, !llvm.loop !2786

967:                                              ; preds = %893
  %968 = getelementptr inbounds %"class.RTTL::RTBox_t", ptr %889, i32 0, i32 1, !dbg !2788
  %969 = load ptr, ptr %630, align 8, !dbg !2789
  store ptr %968, ptr %78, align 8
  call void @llvm.dbg.declare(metadata ptr %78, metadata !2790, metadata !DIExpression()), !dbg !2792
  store ptr %969, ptr %79, align 8
  call void @llvm.dbg.declare(metadata ptr %79, metadata !2794, metadata !DIExpression()), !dbg !2795
  %970 = load ptr, ptr %78, align 8
  call void @llvm.dbg.declare(metadata ptr %80, metadata !2796, metadata !DIExpression()), !dbg !2797
  %971 = call noundef nonnull align 4 dereferenceable(16) ptr @_ZN4RTTL7RTVec_tILi1E5sse_fLi0EEcvRNS_8RTData_tILi1ES1_Li0EEEEv(ptr noundef nonnull align 4 dereferenceable(16) %970), !dbg !2798
  store ptr %971, ptr %80, align 8, !dbg !2797
  call void @llvm.dbg.declare(metadata ptr %81, metadata !2799, metadata !DIExpression()), !dbg !2801
  store i32 0, ptr %81, align 4, !dbg !2801
  br label %972, !dbg !2802

972:                                              ; preds = %1029, %967
  %973 = load i32, ptr %81, align 4, !dbg !2803
  %974 = icmp slt i32 %973, 1, !dbg !2805
  br i1 %974, label %975, label %1046, !dbg !2806

975:                                              ; preds = %972
  %976 = load ptr, ptr %80, align 8, !dbg !2807
  %977 = load i32, ptr %81, align 4, !dbg !2808
  store ptr %976, ptr %74, align 8
  call void @llvm.dbg.declare(metadata ptr %74, metadata !2006, metadata !DIExpression()), !dbg !2809
  store i32 %977, ptr %75, align 4
  call void @llvm.dbg.declare(metadata ptr %75, metadata !2011, metadata !DIExpression()), !dbg !2811
  %978 = load ptr, ptr %74, align 8
  %979 = load i32, ptr %75, align 4, !dbg !2812
  %980 = sext i32 %979 to i64, !dbg !2813
  %981 = getelementptr inbounds [1 x %struct.sse_f], ptr %978, i64 0, i64 %980, !dbg !2813
  call void @llvm.memcpy.p0.p0.i64(ptr align 4 %83, ptr align 4 %981, i64 16, i1 false), !dbg !2807
  %982 = load ptr, ptr %79, align 8, !dbg !2814
  call void @llvm.memcpy.p0.p0.i64(ptr align 4 %84, ptr align 4 %982, i64 16, i1 false), !dbg !2814
  %983 = load <2 x float>, ptr %83, align 4, !dbg !2815
  %984 = getelementptr inbounds { <2 x float>, <2 x float> }, ptr %83, i32 0, i32 1, !dbg !2815
  %985 = load <2 x float>, ptr %984, align 4, !dbg !2815
  %986 = load <2 x float>, ptr %84, align 4, !dbg !2815
  %987 = getelementptr inbounds { <2 x float>, <2 x float> }, ptr %84, i32 0, i32 1, !dbg !2815
  %988 = load <2 x float>, ptr %987, align 4, !dbg !2815
  store <2 x float> %983, ptr %70, align 4
  %989 = getelementptr inbounds { <2 x float>, <2 x float> }, ptr %70, i32 0, i32 1
  store <2 x float> %985, ptr %989, align 4
  store <2 x float> %986, ptr %71, align 4
  %990 = getelementptr inbounds { <2 x float>, <2 x float> }, ptr %71, i32 0, i32 1
  store <2 x float> %988, ptr %990, align 4
  call void @llvm.dbg.declare(metadata ptr %70, metadata !2096, metadata !DIExpression()), !dbg !2816
  call void @llvm.dbg.declare(metadata ptr %71, metadata !2100, metadata !DIExpression()), !dbg !2818
  call void @llvm.memcpy.p0.p0.i64(ptr align 4 %72, ptr align 4 %70, i64 16, i1 false), !dbg !2819
  call void @llvm.memcpy.p0.p0.i64(ptr align 4 %73, ptr align 4 %71, i64 16, i1 false), !dbg !2820
  %991 = load <2 x float>, ptr %72, align 4, !dbg !2821
  %992 = getelementptr inbounds { <2 x float>, <2 x float> }, ptr %72, i32 0, i32 1, !dbg !2821
  %993 = load <2 x float>, ptr %992, align 4, !dbg !2821
  %994 = load <2 x float>, ptr %73, align 4, !dbg !2821
  %995 = getelementptr inbounds { <2 x float>, <2 x float> }, ptr %73, i32 0, i32 1, !dbg !2821
  %996 = load <2 x float>, ptr %995, align 4, !dbg !2821
  store <2 x float> %991, ptr %66, align 4
  %997 = getelementptr inbounds { <2 x float>, <2 x float> }, ptr %66, i32 0, i32 1
  store <2 x float> %993, ptr %997, align 4
  store <2 x float> %994, ptr %67, align 4
  %998 = getelementptr inbounds { <2 x float>, <2 x float> }, ptr %67, i32 0, i32 1
  store <2 x float> %996, ptr %998, align 4
  call void @llvm.dbg.declare(metadata ptr %66, metadata !2105, metadata !DIExpression()), !dbg !2822
  call void @llvm.dbg.declare(metadata ptr %67, metadata !2109, metadata !DIExpression()), !dbg !2824
  call void @llvm.dbg.declare(metadata ptr %65, metadata !2111, metadata !DIExpression()), !dbg !2825
  call void @_ZN5sse_fC2Ev(ptr noundef nonnull align 4 dereferenceable(16) %65), !dbg !2825
  call void @llvm.dbg.declare(metadata ptr %68, metadata !2113, metadata !DIExpression()), !dbg !2826
  store i32 0, ptr %68, align 4, !dbg !2826
  br label %999, !dbg !2827

999:                                              ; preds = %1022, %975
  %1000 = load i32, ptr %68, align 4, !dbg !2828
  %1001 = icmp slt i32 %1000, 4, !dbg !2829
  br i1 %1001, label %1002, label %1029, !dbg !2830

1002:                                             ; preds = %999
  %1003 = load i32, ptr %68, align 4, !dbg !2831
  %1004 = sext i32 %1003 to i64, !dbg !2831
  %1005 = getelementptr inbounds [4 x float], ptr %66, i64 0, i64 %1004, !dbg !2831
  %1006 = load float, ptr %1005, align 4, !dbg !2831
  %1007 = load i32, ptr %68, align 4, !dbg !2831
  %1008 = sext i32 %1007 to i64, !dbg !2831
  %1009 = getelementptr inbounds [4 x float], ptr %67, i64 0, i64 %1008, !dbg !2831
  %1010 = load float, ptr %1009, align 4, !dbg !2831
  %1011 = fcmp ogt float %1006, %1010, !dbg !2831
  br i1 %1011, label %1012, label %1017, !dbg !2831

1012:                                             ; preds = %1002
  %1013 = load i32, ptr %68, align 4, !dbg !2831
  %1014 = sext i32 %1013 to i64, !dbg !2831
  %1015 = getelementptr inbounds [4 x float], ptr %66, i64 0, i64 %1014, !dbg !2831
  %1016 = load float, ptr %1015, align 4, !dbg !2831
  br label %1022, !dbg !2831

1017:                                             ; preds = %1002
  %1018 = load i32, ptr %68, align 4, !dbg !2831
  %1019 = sext i32 %1018 to i64, !dbg !2831
  %1020 = getelementptr inbounds [4 x float], ptr %67, i64 0, i64 %1019, !dbg !2831
  %1021 = load float, ptr %1020, align 4, !dbg !2831
  br label %1022, !dbg !2831

1022:                                             ; preds = %1017, %1012
  %1023 = phi float [ %1016, %1012 ], [ %1021, %1017 ], !dbg !2831
  %1024 = load i32, ptr %68, align 4, !dbg !2832
  %1025 = sext i32 %1024 to i64, !dbg !2832
  %1026 = getelementptr inbounds [4 x float], ptr %65, i64 0, i64 %1025, !dbg !2832
  store float %1023, ptr %1026, align 4, !dbg !2833
  %1027 = load i32, ptr %68, align 4, !dbg !2834
  %1028 = add nsw i32 %1027, 1, !dbg !2834
  store i32 %1028, ptr %68, align 4, !dbg !2834
  br label %999, !dbg !2835, !llvm.loop !2836

1029:                                             ; preds = %999
  %1030 = load { <2 x float>, <2 x float> }, ptr %65, align 4, !dbg !2838
  %1031 = extractvalue { <2 x float>, <2 x float> } %1030, 0, !dbg !2821
  store <2 x float> %1031, ptr %69, align 4, !dbg !2821
  %1032 = getelementptr inbounds { <2 x float>, <2 x float> }, ptr %69, i32 0, i32 1, !dbg !2821
  %1033 = extractvalue { <2 x float>, <2 x float> } %1030, 1, !dbg !2821
  store <2 x float> %1033, ptr %1032, align 4, !dbg !2821
  %1034 = load { <2 x float>, <2 x float> }, ptr %69, align 4, !dbg !2839
  %1035 = extractvalue { <2 x float>, <2 x float> } %1034, 0, !dbg !2815
  store <2 x float> %1035, ptr %82, align 4, !dbg !2815
  %1036 = getelementptr inbounds { <2 x float>, <2 x float> }, ptr %82, i32 0, i32 1, !dbg !2815
  %1037 = extractvalue { <2 x float>, <2 x float> } %1034, 1, !dbg !2815
  store <2 x float> %1037, ptr %1036, align 4, !dbg !2815
  %1038 = load ptr, ptr %80, align 8, !dbg !2840
  %1039 = load i32, ptr %81, align 4, !dbg !2841
  store ptr %1038, ptr %76, align 8
  call void @llvm.dbg.declare(metadata ptr %76, metadata !2006, metadata !DIExpression()), !dbg !2842
  store i32 %1039, ptr %77, align 4
  call void @llvm.dbg.declare(metadata ptr %77, metadata !2011, metadata !DIExpression()), !dbg !2844
  %1040 = load ptr, ptr %76, align 8
  %1041 = load i32, ptr %77, align 4, !dbg !2845
  %1042 = sext i32 %1041 to i64, !dbg !2846
  %1043 = getelementptr inbounds [1 x %struct.sse_f], ptr %1040, i64 0, i64 %1042, !dbg !2846
  call void @llvm.memcpy.p0.p0.i64(ptr align 4 %1043, ptr align 4 %82, i64 16, i1 false), !dbg !2847
  %1044 = load i32, ptr %81, align 4, !dbg !2848
  %1045 = add nsw i32 %1044, 1, !dbg !2848
  store i32 %1045, ptr %81, align 4, !dbg !2848
  br label %972, !dbg !2849, !llvm.loop !2850

1046:                                             ; preds = %972
  br label %1047, !dbg !2852

1047:                                             ; preds = %1046
  %1048 = load i32, ptr %673, align 4, !dbg !2853
  %1049 = add nsw i32 %1048, 1, !dbg !2853
  store i32 %1049, ptr %673, align 4, !dbg !2853
  br label %869, !dbg !2854, !llvm.loop !2855

1050:                                             ; preds = %869
  call void @llvm.dbg.declare(metadata ptr %675, metadata !2857, metadata !DIExpression()), !dbg !2858
  %1051 = load i32, ptr %670, align 4, !dbg !2859
  %1052 = sitofp i32 %1051 to float, !dbg !2859
  %1053 = call float @sqrtf(float noundef %1052) #3, !dbg !2860
  %1054 = fptosi float %1053 to i32, !dbg !2860
  %1055 = mul nsw i32 2, %1054, !dbg !2861
  %1056 = add nsw i32 2, %1055, !dbg !2862
  store i32 %1056, ptr %676, align 4, !dbg !2863
  %1057 = call noundef nonnull align 4 dereferenceable(4) ptr @_ZSt3minIiERKT_S2_S2_(ptr noundef nonnull align 4 dereferenceable(4) @_ZN4RTTLL7maxBinsE, ptr noundef nonnull align 4 dereferenceable(4) %676), !dbg !2864
  %1058 = load i32, ptr %1057, align 4, !dbg !2864
  store i32 %1058, ptr %675, align 4, !dbg !2858
  call void @llvm.dbg.declare(metadata ptr %677, metadata !2865, metadata !DIExpression()), !dbg !2866
  store ptr %671, ptr %627, align 8
  call void @llvm.dbg.declare(metadata ptr %627, metadata !2229, metadata !DIExpression()), !dbg !2867
  %1059 = load ptr, ptr %627, align 8
  store ptr %1059, ptr %546, align 8
  call void @llvm.dbg.declare(metadata ptr %546, metadata !2234, metadata !DIExpression()), !dbg !2869
  %1060 = load ptr, ptr %546, align 8
  %1061 = getelementptr inbounds %"class.RTTL::RTBox_t", ptr %1060, i32 0, i32 1, !dbg !2871
  store ptr %1061, ptr %543, align 8
  call void @llvm.dbg.declare(metadata ptr %543, metadata !2240, metadata !DIExpression()), !dbg !2872
  store ptr %1060, ptr %544, align 8
  call void @llvm.dbg.declare(metadata ptr %544, metadata !2248, metadata !DIExpression()), !dbg !2874
  call void @llvm.dbg.declare(metadata ptr %542, metadata !2250, metadata !DIExpression()), !dbg !2875
  call void @_ZN4RTTL7RTVec_tILi1E5sse_fLi0EEC2Ev(ptr noundef nonnull align 4 dereferenceable(16) %542), !dbg !2875
  %1062 = call noundef nonnull align 4 dereferenceable(16) ptr @_ZN4RTTL7RTVec_tILi1E5sse_fLi0EE5arrayEv(ptr noundef nonnull align 4 dereferenceable(16) %542), !dbg !2876
  %1063 = load ptr, ptr %543, align 8, !dbg !2877
  %1064 = call noundef nonnull align 4 dereferenceable(16) ptr @_ZNK4RTTL7RTVec_tILi1E5sse_fLi0EE5arrayEv(ptr noundef nonnull align 4 dereferenceable(16) %1063), !dbg !2878
  %1065 = load ptr, ptr %544, align 8, !dbg !2879
  %1066 = call noundef nonnull align 4 dereferenceable(16) ptr @_ZNK4RTTL7RTVec_tILi1E5sse_fLi0EE5arrayEv(ptr noundef nonnull align 4 dereferenceable(16) %1065), !dbg !2880
  store ptr %1062, ptr %535, align 8
  call void @llvm.dbg.declare(metadata ptr %535, metadata !2257, metadata !DIExpression()), !dbg !2881
  store ptr %1064, ptr %536, align 8
  call void @llvm.dbg.declare(metadata ptr %536, metadata !2261, metadata !DIExpression()), !dbg !2883
  store ptr %1066, ptr %537, align 8
  call void @llvm.dbg.declare(metadata ptr %537, metadata !2263, metadata !DIExpression()), !dbg !2884
  %1067 = load ptr, ptr %535, align 8
  call void @llvm.dbg.declare(metadata ptr %538, metadata !2265, metadata !DIExpression()), !dbg !2885
  store i32 0, ptr %538, align 4, !dbg !2885
  br label %1068, !dbg !2886

1068:                                             ; preds = %1114, %1050
  %1069 = load i32, ptr %538, align 4, !dbg !2887
  %1070 = icmp slt i32 %1069, 1, !dbg !2888
  br i1 %1070, label %1071, label %1128, !dbg !2889

1071:                                             ; preds = %1068
  %1072 = load ptr, ptr %536, align 8, !dbg !2890
  %1073 = load i32, ptr %538, align 4, !dbg !2891
  %1074 = sext i32 %1073 to i64, !dbg !2890
  %1075 = getelementptr inbounds [1 x %struct.sse_f], ptr %1072, i64 0, i64 %1074, !dbg !2890
  call void @llvm.memcpy.p0.p0.i64(ptr align 4 %540, ptr align 4 %1075, i64 16, i1 false), !dbg !2890
  %1076 = load ptr, ptr %537, align 8, !dbg !2892
  %1077 = load i32, ptr %538, align 4, !dbg !2893
  %1078 = sext i32 %1077 to i64, !dbg !2892
  %1079 = getelementptr inbounds [1 x %struct.sse_f], ptr %1076, i64 0, i64 %1078, !dbg !2892
  call void @llvm.memcpy.p0.p0.i64(ptr align 4 %541, ptr align 4 %1079, i64 16, i1 false), !dbg !2892
  %1080 = load <2 x float>, ptr %540, align 4, !dbg !2894
  %1081 = getelementptr inbounds { <2 x float>, <2 x float> }, ptr %540, i32 0, i32 1, !dbg !2894
  %1082 = load <2 x float>, ptr %1081, align 4, !dbg !2894
  %1083 = load <2 x float>, ptr %541, align 4, !dbg !2894
  %1084 = getelementptr inbounds { <2 x float>, <2 x float> }, ptr %541, i32 0, i32 1, !dbg !2894
  %1085 = load <2 x float>, ptr %1084, align 4, !dbg !2894
  store <2 x float> %1080, ptr %531, align 4
  %1086 = getelementptr inbounds { <2 x float>, <2 x float> }, ptr %531, i32 0, i32 1
  store <2 x float> %1082, ptr %1086, align 4
  store <2 x float> %1083, ptr %532, align 4
  %1087 = getelementptr inbounds { <2 x float>, <2 x float> }, ptr %532, i32 0, i32 1
  store <2 x float> %1085, ptr %1087, align 4
  call void @llvm.dbg.declare(metadata ptr %531, metadata !2278, metadata !DIExpression()), !dbg !2895
  call void @llvm.dbg.declare(metadata ptr %532, metadata !2282, metadata !DIExpression()), !dbg !2897
  call void @llvm.memcpy.p0.p0.i64(ptr align 4 %533, ptr align 4 %531, i64 16, i1 false), !dbg !2898
  call void @llvm.memcpy.p0.p0.i64(ptr align 4 %534, ptr align 4 %532, i64 16, i1 false), !dbg !2899
  %1088 = load <2 x float>, ptr %533, align 4, !dbg !2900
  %1089 = getelementptr inbounds { <2 x float>, <2 x float> }, ptr %533, i32 0, i32 1, !dbg !2900
  %1090 = load <2 x float>, ptr %1089, align 4, !dbg !2900
  %1091 = load <2 x float>, ptr %534, align 4, !dbg !2900
  %1092 = getelementptr inbounds { <2 x float>, <2 x float> }, ptr %534, i32 0, i32 1, !dbg !2900
  %1093 = load <2 x float>, ptr %1092, align 4, !dbg !2900
  store <2 x float> %1088, ptr %518, align 4
  %1094 = getelementptr inbounds { <2 x float>, <2 x float> }, ptr %518, i32 0, i32 1
  store <2 x float> %1090, ptr %1094, align 4
  store <2 x float> %1091, ptr %519, align 4
  %1095 = getelementptr inbounds { <2 x float>, <2 x float> }, ptr %519, i32 0, i32 1
  store <2 x float> %1093, ptr %1095, align 4
  call void @llvm.dbg.declare(metadata ptr %518, metadata !2287, metadata !DIExpression()), !dbg !2901
  call void @llvm.dbg.declare(metadata ptr %519, metadata !2291, metadata !DIExpression()), !dbg !2903
  call void @llvm.dbg.declare(metadata ptr %517, metadata !2293, metadata !DIExpression()), !dbg !2904
  call void @_ZN5sse_fC2Ev(ptr noundef nonnull align 4 dereferenceable(16) %517), !dbg !2904
  call void @llvm.dbg.declare(metadata ptr %520, metadata !2295, metadata !DIExpression()), !dbg !2905
  store i32 0, ptr %520, align 4, !dbg !2905
  br label %1096, !dbg !2906

1096:                                             ; preds = %1099, %1071
  %1097 = load i32, ptr %520, align 4, !dbg !2907
  %1098 = icmp slt i32 %1097, 4, !dbg !2908
  br i1 %1098, label %1099, label %1114, !dbg !2909

1099:                                             ; preds = %1096
  %1100 = load i32, ptr %520, align 4, !dbg !2910
  %1101 = sext i32 %1100 to i64, !dbg !2911
  %1102 = getelementptr inbounds [4 x float], ptr %518, i64 0, i64 %1101, !dbg !2911
  %1103 = load float, ptr %1102, align 4, !dbg !2911
  %1104 = load i32, ptr %520, align 4, !dbg !2912
  %1105 = sext i32 %1104 to i64, !dbg !2913
  %1106 = getelementptr inbounds [4 x float], ptr %519, i64 0, i64 %1105, !dbg !2913
  %1107 = load float, ptr %1106, align 4, !dbg !2913
  %1108 = fsub float %1103, %1107, !dbg !2914
  %1109 = load i32, ptr %520, align 4, !dbg !2915
  %1110 = sext i32 %1109 to i64, !dbg !2916
  %1111 = getelementptr inbounds [4 x float], ptr %517, i64 0, i64 %1110, !dbg !2916
  store float %1108, ptr %1111, align 4, !dbg !2917
  %1112 = load i32, ptr %520, align 4, !dbg !2918
  %1113 = add nsw i32 %1112, 1, !dbg !2918
  store i32 %1113, ptr %520, align 4, !dbg !2918
  br label %1096, !dbg !2919, !llvm.loop !2920

1114:                                             ; preds = %1096
  %1115 = load { <2 x float>, <2 x float> }, ptr %517, align 4, !dbg !2922
  %1116 = extractvalue { <2 x float>, <2 x float> } %1115, 0, !dbg !2900
  store <2 x float> %1116, ptr %530, align 4, !dbg !2900
  %1117 = getelementptr inbounds { <2 x float>, <2 x float> }, ptr %530, i32 0, i32 1, !dbg !2900
  %1118 = extractvalue { <2 x float>, <2 x float> } %1115, 1, !dbg !2900
  store <2 x float> %1118, ptr %1117, align 4, !dbg !2900
  %1119 = load { <2 x float>, <2 x float> }, ptr %530, align 4, !dbg !2923
  %1120 = extractvalue { <2 x float>, <2 x float> } %1119, 0, !dbg !2894
  store <2 x float> %1120, ptr %539, align 4, !dbg !2894
  %1121 = getelementptr inbounds { <2 x float>, <2 x float> }, ptr %539, i32 0, i32 1, !dbg !2894
  %1122 = extractvalue { <2 x float>, <2 x float> } %1119, 1, !dbg !2894
  store <2 x float> %1122, ptr %1121, align 4, !dbg !2894
  %1123 = load i32, ptr %538, align 4, !dbg !2924
  %1124 = sext i32 %1123 to i64, !dbg !2925
  %1125 = getelementptr inbounds [1 x %struct.sse_f], ptr %1067, i64 0, i64 %1124, !dbg !2925
  call void @llvm.memcpy.p0.p0.i64(ptr align 4 %1125, ptr align 4 %539, i64 16, i1 false), !dbg !2926
  %1126 = load i32, ptr %538, align 4, !dbg !2927
  %1127 = add nsw i32 %1126, 1, !dbg !2927
  store i32 %1127, ptr %538, align 4, !dbg !2927
  br label %1068, !dbg !2928, !llvm.loop !2929

1128:                                             ; preds = %1068
  %1129 = load { <2 x float>, <2 x float> }, ptr %542, align 4, !dbg !2931
  %1130 = extractvalue { <2 x float>, <2 x float> } %1129, 0, !dbg !2932
  store <2 x float> %1130, ptr %545, align 4, !dbg !2932
  %1131 = getelementptr inbounds { <2 x float>, <2 x float> }, ptr %545, i32 0, i32 1, !dbg !2932
  %1132 = extractvalue { <2 x float>, <2 x float> } %1129, 1, !dbg !2932
  store <2 x float> %1132, ptr %1131, align 4, !dbg !2932
  %1133 = load { <2 x float>, <2 x float> }, ptr %545, align 4, !dbg !2933
  %1134 = extractvalue { <2 x float>, <2 x float> } %1133, 0, !dbg !2934
  store <2 x float> %1134, ptr %628, align 4, !dbg !2934
  %1135 = getelementptr inbounds { <2 x float>, <2 x float> }, ptr %628, i32 0, i32 1, !dbg !2934
  %1136 = extractvalue { <2 x float>, <2 x float> } %1133, 1, !dbg !2934
  store <2 x float> %1136, ptr %1135, align 4, !dbg !2934
  %1137 = call noundef ptr @_ZN4RTTL7RTVec_tILi1E5sse_fLi0EEcvPS1_Ev(ptr noundef nonnull align 4 dereferenceable(16) %628), !dbg !2935
  call void @llvm.memcpy.p0.p0.i64(ptr align 4 %626, ptr align 4 %1137, i64 16, i1 false), !dbg !2936
  %1138 = load { <2 x float>, <2 x float> }, ptr %626, align 4, !dbg !2937
  %1139 = getelementptr inbounds %struct.sse_f, ptr %677, i32 0, i32 0, !dbg !2938
  %1140 = getelementptr inbounds { <2 x float>, <2 x float> }, ptr %1139, i32 0, i32 0, !dbg !2938
  %1141 = extractvalue { <2 x float>, <2 x float> } %1138, 0, !dbg !2938
  store <2 x float> %1141, ptr %1140, align 4, !dbg !2938
  %1142 = getelementptr inbounds { <2 x float>, <2 x float> }, ptr %1139, i32 0, i32 1, !dbg !2938
  %1143 = extractvalue { <2 x float>, <2 x float> } %1138, 1, !dbg !2938
  store <2 x float> %1143, ptr %1142, align 4, !dbg !2938
  call void @llvm.dbg.declare(metadata ptr %678, metadata !2939, metadata !DIExpression()), !dbg !2940
  call void @llvm.memcpy.p0.p0.i64(ptr align 4 %681, ptr align 4 %677, i64 16, i1 false), !dbg !2941
  call void @llvm.dbg.declare(metadata ptr %604, metadata !2942, metadata !DIExpression()), !dbg !2946
  call void @_ZN5sse_fC2Ev(ptr noundef nonnull align 4 dereferenceable(16) %604), !dbg !2946
  call void @llvm.dbg.declare(metadata ptr %605, metadata !2948, metadata !DIExpression()), !dbg !2950
  store i32 0, ptr %605, align 4, !dbg !2950
  br label %1144, !dbg !2951

1144:                                             ; preds = %1147, %1128
  %1145 = load i32, ptr %605, align 4, !dbg !2952
  %1146 = icmp slt i32 %1145, 4, !dbg !2954
  br i1 %1146, label %1147, label %1153, !dbg !2955

1147:                                             ; preds = %1144
  %1148 = load i32, ptr %605, align 4, !dbg !2956
  %1149 = sext i32 %1148 to i64, !dbg !2957
  %1150 = getelementptr inbounds [4 x float], ptr %604, i64 0, i64 %1149, !dbg !2957
  store float 0.000000e+00, ptr %1150, align 4, !dbg !2958
  %1151 = load i32, ptr %605, align 4, !dbg !2959
  %1152 = add nsw i32 %1151, 1, !dbg !2959
  store i32 %1152, ptr %605, align 4, !dbg !2959
  br label %1144, !dbg !2960, !llvm.loop !2961

1153:                                             ; preds = %1144
  %1154 = load { <2 x float>, <2 x float> }, ptr %604, align 4, !dbg !2963
  %1155 = getelementptr inbounds %struct.sse_f, ptr %682, i32 0, i32 0, !dbg !2941
  %1156 = getelementptr inbounds { <2 x float>, <2 x float> }, ptr %1155, i32 0, i32 0, !dbg !2941
  %1157 = extractvalue { <2 x float>, <2 x float> } %1154, 0, !dbg !2941
  store <2 x float> %1157, ptr %1156, align 4, !dbg !2941
  %1158 = getelementptr inbounds { <2 x float>, <2 x float> }, ptr %1155, i32 0, i32 1, !dbg !2941
  %1159 = extractvalue { <2 x float>, <2 x float> } %1154, 1, !dbg !2941
  store <2 x float> %1159, ptr %1158, align 4, !dbg !2941
  %1160 = getelementptr inbounds { <2 x float>, <2 x float> }, ptr %681, i32 0, i32 0, !dbg !2941
  %1161 = load <2 x float>, ptr %1160, align 4, !dbg !2941
  %1162 = getelementptr inbounds { <2 x float>, <2 x float> }, ptr %681, i32 0, i32 1, !dbg !2941
  %1163 = load <2 x float>, ptr %1162, align 4, !dbg !2941
  %1164 = getelementptr inbounds { <2 x float>, <2 x float> }, ptr %682, i32 0, i32 0, !dbg !2941
  %1165 = load <2 x float>, ptr %1164, align 4, !dbg !2941
  %1166 = getelementptr inbounds { <2 x float>, <2 x float> }, ptr %682, i32 0, i32 1, !dbg !2941
  %1167 = load <2 x float>, ptr %1166, align 4, !dbg !2941
  store <2 x float> %1161, ptr %611, align 4
  %1168 = getelementptr inbounds { <2 x float>, <2 x float> }, ptr %611, i32 0, i32 1
  store <2 x float> %1163, ptr %1168, align 4
  store <2 x float> %1165, ptr %612, align 4
  %1169 = getelementptr inbounds { <2 x float>, <2 x float> }, ptr %612, i32 0, i32 1
  store <2 x float> %1167, ptr %1169, align 4
  call void @llvm.dbg.declare(metadata ptr %611, metadata !2964, metadata !DIExpression()), !dbg !2966
  call void @llvm.dbg.declare(metadata ptr %612, metadata !2968, metadata !DIExpression()), !dbg !2969
  call void @llvm.dbg.declare(metadata ptr %610, metadata !2970, metadata !DIExpression()), !dbg !2971
  call void @_ZN5sse_fC2Ev(ptr noundef nonnull align 4 dereferenceable(16) %610), !dbg !2971
  call void @llvm.dbg.declare(metadata ptr %613, metadata !2972, metadata !DIExpression()), !dbg !2974
  store i32 0, ptr %613, align 4, !dbg !2974
  br label %1170, !dbg !2975

1170:                                             ; preds = %1173, %1153
  %1171 = load i32, ptr %613, align 4, !dbg !2976
  %1172 = icmp slt i32 %1171, 4, !dbg !2978
  br i1 %1172, label %1173, label %1191, !dbg !2979

1173:                                             ; preds = %1170
  %1174 = load i32, ptr %613, align 4, !dbg !2980
  %1175 = sext i32 %1174 to i64, !dbg !2980
  %1176 = getelementptr inbounds [4 x float], ptr %611, i64 0, i64 %1175, !dbg !2980
  %1177 = load float, ptr %1176, align 4, !dbg !2980
  %1178 = load i32, ptr %613, align 4, !dbg !2981
  %1179 = sext i32 %1178 to i64, !dbg !2981
  %1180 = getelementptr inbounds [4 x float], ptr %612, i64 0, i64 %1179, !dbg !2981
  %1181 = load float, ptr %1180, align 4, !dbg !2981
  %1182 = fcmp oeq float %1177, %1181, !dbg !2982
  %1183 = xor i1 %1182, true, !dbg !2983
  %1184 = zext i1 %1183 to i64, !dbg !2984
  %1185 = select i1 %1183, i32 -1, i32 0, !dbg !2984
  %1186 = load i32, ptr %613, align 4, !dbg !2985
  %1187 = sext i32 %1186 to i64, !dbg !2985
  %1188 = getelementptr inbounds [4 x float], ptr %610, i64 0, i64 %1187, !dbg !2985
  store i32 %1185, ptr %1188, align 4, !dbg !2986
  %1189 = load i32, ptr %613, align 4, !dbg !2987
  %1190 = add nsw i32 %1189, 1, !dbg !2987
  store i32 %1190, ptr %613, align 4, !dbg !2987
  br label %1170, !dbg !2988, !llvm.loop !2989

1191:                                             ; preds = %1170
  %1192 = load { <2 x float>, <2 x float> }, ptr %610, align 4, !dbg !2991
  %1193 = getelementptr inbounds %struct.sse_f, ptr %680, i32 0, i32 0, !dbg !2941
  %1194 = getelementptr inbounds { <2 x float>, <2 x float> }, ptr %1193, i32 0, i32 0, !dbg !2941
  %1195 = extractvalue { <2 x float>, <2 x float> } %1192, 0, !dbg !2941
  store <2 x float> %1195, ptr %1194, align 4, !dbg !2941
  %1196 = getelementptr inbounds { <2 x float>, <2 x float> }, ptr %1193, i32 0, i32 1, !dbg !2941
  %1197 = extractvalue { <2 x float>, <2 x float> } %1192, 1, !dbg !2941
  store <2 x float> %1197, ptr %1196, align 4, !dbg !2941
  %1198 = load i32, ptr %675, align 4, !dbg !2941
  %1199 = sitofp i32 %1198 to float, !dbg !2941
  %1200 = fmul float %1199, 0x3FEFF7CEE0000000, !dbg !2941
  store float %1200, ptr %661, align 4
  call void @llvm.dbg.declare(metadata ptr %661, metadata !1886, metadata !DIExpression()), !dbg !2992
  call void @llvm.dbg.declare(metadata ptr %660, metadata !1893, metadata !DIExpression()), !dbg !2994
  call void @_ZN5sse_fC2Ev(ptr noundef nonnull align 4 dereferenceable(16) %660), !dbg !2994
  call void @llvm.dbg.declare(metadata ptr %662, metadata !1895, metadata !DIExpression()), !dbg !2995
  store i32 0, ptr %662, align 4, !dbg !2995
  br label %1201, !dbg !2996

1201:                                             ; preds = %1204, %1191
  %1202 = load i32, ptr %662, align 4, !dbg !2997
  %1203 = icmp slt i32 %1202, 4, !dbg !2998
  br i1 %1203, label %1204, label %1211, !dbg !2999

1204:                                             ; preds = %1201
  %1205 = load float, ptr %661, align 4, !dbg !3000
  %1206 = load i32, ptr %662, align 4, !dbg !3001
  %1207 = sext i32 %1206 to i64, !dbg !3002
  %1208 = getelementptr inbounds [4 x float], ptr %660, i64 0, i64 %1207, !dbg !3002
  store float %1205, ptr %1208, align 4, !dbg !3003
  %1209 = load i32, ptr %662, align 4, !dbg !3004
  %1210 = add nsw i32 %1209, 1, !dbg !3004
  store i32 %1210, ptr %662, align 4, !dbg !3004
  br label %1201, !dbg !3005, !llvm.loop !3006

1211:                                             ; preds = %1201
  %1212 = load { <2 x float>, <2 x float> }, ptr %660, align 4, !dbg !3008
  %1213 = getelementptr inbounds %struct.sse_f, ptr %684, i32 0, i32 0, !dbg !2941
  %1214 = getelementptr inbounds { <2 x float>, <2 x float> }, ptr %1213, i32 0, i32 0, !dbg !2941
  %1215 = extractvalue { <2 x float>, <2 x float> } %1212, 0, !dbg !2941
  store <2 x float> %1215, ptr %1214, align 4, !dbg !2941
  %1216 = getelementptr inbounds { <2 x float>, <2 x float> }, ptr %1213, i32 0, i32 1, !dbg !2941
  %1217 = extractvalue { <2 x float>, <2 x float> } %1212, 1, !dbg !2941
  store <2 x float> %1217, ptr %1216, align 4, !dbg !2941
  call void @llvm.memcpy.p0.p0.i64(ptr align 4 %685, ptr align 4 %677, i64 16, i1 false), !dbg !2941
  %1218 = getelementptr inbounds { <2 x float>, <2 x float> }, ptr %684, i32 0, i32 0, !dbg !2941
  %1219 = load <2 x float>, ptr %1218, align 4, !dbg !2941
  %1220 = getelementptr inbounds { <2 x float>, <2 x float> }, ptr %684, i32 0, i32 1, !dbg !2941
  %1221 = load <2 x float>, ptr %1220, align 4, !dbg !2941
  %1222 = getelementptr inbounds { <2 x float>, <2 x float> }, ptr %685, i32 0, i32 0, !dbg !2941
  %1223 = load <2 x float>, ptr %1222, align 4, !dbg !2941
  %1224 = getelementptr inbounds { <2 x float>, <2 x float> }, ptr %685, i32 0, i32 1, !dbg !2941
  %1225 = load <2 x float>, ptr %1224, align 4, !dbg !2941
  store <2 x float> %1219, ptr %601, align 4
  %1226 = getelementptr inbounds { <2 x float>, <2 x float> }, ptr %601, i32 0, i32 1
  store <2 x float> %1221, ptr %1226, align 4
  store <2 x float> %1223, ptr %602, align 4
  %1227 = getelementptr inbounds { <2 x float>, <2 x float> }, ptr %602, i32 0, i32 1
  store <2 x float> %1225, ptr %1227, align 4
  call void @llvm.dbg.declare(metadata ptr %601, metadata !3009, metadata !DIExpression()), !dbg !3011
  call void @llvm.dbg.declare(metadata ptr %602, metadata !3013, metadata !DIExpression()), !dbg !3014
  call void @llvm.dbg.declare(metadata ptr %600, metadata !3015, metadata !DIExpression()), !dbg !3016
  call void @_ZN5sse_fC2Ev(ptr noundef nonnull align 4 dereferenceable(16) %600), !dbg !3016
  call void @llvm.dbg.declare(metadata ptr %603, metadata !3017, metadata !DIExpression()), !dbg !3019
  store i32 0, ptr %603, align 4, !dbg !3019
  br label %1228, !dbg !3020

1228:                                             ; preds = %1231, %1211
  %1229 = load i32, ptr %603, align 4, !dbg !3021
  %1230 = icmp slt i32 %1229, 4, !dbg !3023
  br i1 %1230, label %1231, label %1246, !dbg !3024

1231:                                             ; preds = %1228
  %1232 = load i32, ptr %603, align 4, !dbg !3025
  %1233 = sext i32 %1232 to i64, !dbg !3025
  %1234 = getelementptr inbounds [4 x float], ptr %601, i64 0, i64 %1233, !dbg !3025
  %1235 = load float, ptr %1234, align 4, !dbg !3025
  %1236 = load i32, ptr %603, align 4, !dbg !3026
  %1237 = sext i32 %1236 to i64, !dbg !3026
  %1238 = getelementptr inbounds [4 x float], ptr %602, i64 0, i64 %1237, !dbg !3026
  %1239 = load float, ptr %1238, align 4, !dbg !3026
  %1240 = fdiv float %1235, %1239, !dbg !3027
  %1241 = load i32, ptr %603, align 4, !dbg !3028
  %1242 = sext i32 %1241 to i64, !dbg !3028
  %1243 = getelementptr inbounds [4 x float], ptr %600, i64 0, i64 %1242, !dbg !3028
  store float %1240, ptr %1243, align 4, !dbg !3029
  %1244 = load i32, ptr %603, align 4, !dbg !3030
  %1245 = add nsw i32 %1244, 1, !dbg !3030
  store i32 %1245, ptr %603, align 4, !dbg !3030
  br label %1228, !dbg !3031, !llvm.loop !3032

1246:                                             ; preds = %1228
  %1247 = load { <2 x float>, <2 x float> }, ptr %600, align 4, !dbg !3034
  %1248 = getelementptr inbounds %struct.sse_f, ptr %683, i32 0, i32 0, !dbg !2941
  %1249 = getelementptr inbounds { <2 x float>, <2 x float> }, ptr %1248, i32 0, i32 0, !dbg !2941
  %1250 = extractvalue { <2 x float>, <2 x float> } %1247, 0, !dbg !2941
  store <2 x float> %1250, ptr %1249, align 4, !dbg !2941
  %1251 = getelementptr inbounds { <2 x float>, <2 x float> }, ptr %1248, i32 0, i32 1, !dbg !2941
  %1252 = extractvalue { <2 x float>, <2 x float> } %1247, 1, !dbg !2941
  store <2 x float> %1252, ptr %1251, align 4, !dbg !2941
  %1253 = getelementptr inbounds { <2 x float>, <2 x float> }, ptr %680, i32 0, i32 0, !dbg !2941
  %1254 = load <2 x float>, ptr %1253, align 4, !dbg !2941
  %1255 = getelementptr inbounds { <2 x float>, <2 x float> }, ptr %680, i32 0, i32 1, !dbg !2941
  %1256 = load <2 x float>, ptr %1255, align 4, !dbg !2941
  %1257 = getelementptr inbounds { <2 x float>, <2 x float> }, ptr %683, i32 0, i32 0, !dbg !2941
  %1258 = load <2 x float>, ptr %1257, align 4, !dbg !2941
  %1259 = getelementptr inbounds { <2 x float>, <2 x float> }, ptr %683, i32 0, i32 1, !dbg !2941
  %1260 = load <2 x float>, ptr %1259, align 4, !dbg !2941
  store <2 x float> %1254, ptr %619, align 4
  %1261 = getelementptr inbounds { <2 x float>, <2 x float> }, ptr %619, i32 0, i32 1
  store <2 x float> %1256, ptr %1261, align 4
  store <2 x float> %1258, ptr %620, align 4
  %1262 = getelementptr inbounds { <2 x float>, <2 x float> }, ptr %620, i32 0, i32 1
  store <2 x float> %1260, ptr %1262, align 4
  call void @llvm.dbg.declare(metadata ptr %619, metadata !3035, metadata !DIExpression()), !dbg !3037
  call void @llvm.dbg.declare(metadata ptr %620, metadata !3039, metadata !DIExpression()), !dbg !3040
  call void @llvm.dbg.declare(metadata ptr %618, metadata !3041, metadata !DIExpression()), !dbg !3042
  call void @_ZN5sse_fC2Ev(ptr noundef nonnull align 4 dereferenceable(16) %618), !dbg !3042
  call void @llvm.dbg.declare(metadata ptr %621, metadata !3043, metadata !DIExpression()), !dbg !3045
  store i32 0, ptr %621, align 4, !dbg !3045
  br label %1263, !dbg !3046

1263:                                             ; preds = %1266, %1246
  %1264 = load i32, ptr %621, align 4, !dbg !3047
  %1265 = icmp slt i32 %1264, 4, !dbg !3049
  br i1 %1265, label %1266, label %1281, !dbg !3050

1266:                                             ; preds = %1263
  %1267 = load i32, ptr %621, align 4, !dbg !3051
  %1268 = sext i32 %1267 to i64, !dbg !3051
  %1269 = getelementptr inbounds [4 x float], ptr %619, i64 0, i64 %1268, !dbg !3051
  %1270 = load i32, ptr %1269, align 4, !dbg !3051
  %1271 = load i32, ptr %621, align 4, !dbg !3052
  %1272 = sext i32 %1271 to i64, !dbg !3052
  %1273 = getelementptr inbounds [4 x float], ptr %620, i64 0, i64 %1272, !dbg !3052
  %1274 = load i32, ptr %1273, align 4, !dbg !3052
  %1275 = and i32 %1270, %1274, !dbg !3053
  %1276 = load i32, ptr %621, align 4, !dbg !3054
  %1277 = sext i32 %1276 to i64, !dbg !3054
  %1278 = getelementptr inbounds [4 x float], ptr %618, i64 0, i64 %1277, !dbg !3054
  store i32 %1275, ptr %1278, align 4, !dbg !3055
  %1279 = load i32, ptr %621, align 4, !dbg !3056
  %1280 = add nsw i32 %1279, 1, !dbg !3056
  store i32 %1280, ptr %621, align 4, !dbg !3056
  br label %1263, !dbg !3057, !llvm.loop !3058

1281:                                             ; preds = %1263
  %1282 = load { <2 x float>, <2 x float> }, ptr %618, align 4, !dbg !3060
  %1283 = getelementptr inbounds %struct.sse_f, ptr %679, i32 0, i32 0, !dbg !2941
  %1284 = getelementptr inbounds { <2 x float>, <2 x float> }, ptr %1283, i32 0, i32 0, !dbg !2941
  %1285 = extractvalue { <2 x float>, <2 x float> } %1282, 0, !dbg !2941
  store <2 x float> %1285, ptr %1284, align 4, !dbg !2941
  %1286 = getelementptr inbounds { <2 x float>, <2 x float> }, ptr %1283, i32 0, i32 1, !dbg !2941
  %1287 = extractvalue { <2 x float>, <2 x float> } %1282, 1, !dbg !2941
  store <2 x float> %1287, ptr %1286, align 4, !dbg !2941
  call void @llvm.memcpy.p0.p0.i64(ptr align 4 %688, ptr align 4 %677, i64 16, i1 false), !dbg !2941
  call void @llvm.dbg.declare(metadata ptr %606, metadata !2942, metadata !DIExpression()), !dbg !3061
  call void @_ZN5sse_fC2Ev(ptr noundef nonnull align 4 dereferenceable(16) %606), !dbg !3061
  call void @llvm.dbg.declare(metadata ptr %607, metadata !2948, metadata !DIExpression()), !dbg !3063
  store i32 0, ptr %607, align 4, !dbg !3063
  br label %1288, !dbg !3064

1288:                                             ; preds = %1291, %1281
  %1289 = load i32, ptr %607, align 4, !dbg !3065
  %1290 = icmp slt i32 %1289, 4, !dbg !3066
  br i1 %1290, label %1291, label %1297, !dbg !3067

1291:                                             ; preds = %1288
  %1292 = load i32, ptr %607, align 4, !dbg !3068
  %1293 = sext i32 %1292 to i64, !dbg !3069
  %1294 = getelementptr inbounds [4 x float], ptr %606, i64 0, i64 %1293, !dbg !3069
  store float 0.000000e+00, ptr %1294, align 4, !dbg !3070
  %1295 = load i32, ptr %607, align 4, !dbg !3071
  %1296 = add nsw i32 %1295, 1, !dbg !3071
  store i32 %1296, ptr %607, align 4, !dbg !3071
  br label %1288, !dbg !3072, !llvm.loop !3073

1297:                                             ; preds = %1288
  %1298 = load { <2 x float>, <2 x float> }, ptr %606, align 4, !dbg !3075
  %1299 = getelementptr inbounds %struct.sse_f, ptr %689, i32 0, i32 0, !dbg !2941
  %1300 = getelementptr inbounds { <2 x float>, <2 x float> }, ptr %1299, i32 0, i32 0, !dbg !2941
  %1301 = extractvalue { <2 x float>, <2 x float> } %1298, 0, !dbg !2941
  store <2 x float> %1301, ptr %1300, align 4, !dbg !2941
  %1302 = getelementptr inbounds { <2 x float>, <2 x float> }, ptr %1299, i32 0, i32 1, !dbg !2941
  %1303 = extractvalue { <2 x float>, <2 x float> } %1298, 1, !dbg !2941
  store <2 x float> %1303, ptr %1302, align 4, !dbg !2941
  %1304 = getelementptr inbounds { <2 x float>, <2 x float> }, ptr %688, i32 0, i32 0, !dbg !2941
  %1305 = load <2 x float>, ptr %1304, align 4, !dbg !2941
  %1306 = getelementptr inbounds { <2 x float>, <2 x float> }, ptr %688, i32 0, i32 1, !dbg !2941
  %1307 = load <2 x float>, ptr %1306, align 4, !dbg !2941
  %1308 = getelementptr inbounds { <2 x float>, <2 x float> }, ptr %689, i32 0, i32 0, !dbg !2941
  %1309 = load <2 x float>, ptr %1308, align 4, !dbg !2941
  %1310 = getelementptr inbounds { <2 x float>, <2 x float> }, ptr %689, i32 0, i32 1, !dbg !2941
  %1311 = load <2 x float>, ptr %1310, align 4, !dbg !2941
  store <2 x float> %1305, ptr %615, align 4
  %1312 = getelementptr inbounds { <2 x float>, <2 x float> }, ptr %615, i32 0, i32 1
  store <2 x float> %1307, ptr %1312, align 4
  store <2 x float> %1309, ptr %616, align 4
  %1313 = getelementptr inbounds { <2 x float>, <2 x float> }, ptr %616, i32 0, i32 1
  store <2 x float> %1311, ptr %1313, align 4
  call void @llvm.dbg.declare(metadata ptr %615, metadata !2964, metadata !DIExpression()), !dbg !3076
  call void @llvm.dbg.declare(metadata ptr %616, metadata !2968, metadata !DIExpression()), !dbg !3078
  call void @llvm.dbg.declare(metadata ptr %614, metadata !2970, metadata !DIExpression()), !dbg !3079
  call void @_ZN5sse_fC2Ev(ptr noundef nonnull align 4 dereferenceable(16) %614), !dbg !3079
  call void @llvm.dbg.declare(metadata ptr %617, metadata !2972, metadata !DIExpression()), !dbg !3080
  store i32 0, ptr %617, align 4, !dbg !3080
  br label %1314, !dbg !3081

1314:                                             ; preds = %1317, %1297
  %1315 = load i32, ptr %617, align 4, !dbg !3082
  %1316 = icmp slt i32 %1315, 4, !dbg !3083
  br i1 %1316, label %1317, label %1335, !dbg !3084

1317:                                             ; preds = %1314
  %1318 = load i32, ptr %617, align 4, !dbg !3085
  %1319 = sext i32 %1318 to i64, !dbg !3085
  %1320 = getelementptr inbounds [4 x float], ptr %615, i64 0, i64 %1319, !dbg !3085
  %1321 = load float, ptr %1320, align 4, !dbg !3085
  %1322 = load i32, ptr %617, align 4, !dbg !3086
  %1323 = sext i32 %1322 to i64, !dbg !3086
  %1324 = getelementptr inbounds [4 x float], ptr %616, i64 0, i64 %1323, !dbg !3086
  %1325 = load float, ptr %1324, align 4, !dbg !3086
  %1326 = fcmp oeq float %1321, %1325, !dbg !3087
  %1327 = xor i1 %1326, true, !dbg !3088
  %1328 = zext i1 %1327 to i64, !dbg !3089
  %1329 = select i1 %1327, i32 -1, i32 0, !dbg !3089
  %1330 = load i32, ptr %617, align 4, !dbg !3090
  %1331 = sext i32 %1330 to i64, !dbg !3090
  %1332 = getelementptr inbounds [4 x float], ptr %614, i64 0, i64 %1331, !dbg !3090
  store i32 %1329, ptr %1332, align 4, !dbg !3091
  %1333 = load i32, ptr %617, align 4, !dbg !3092
  %1334 = add nsw i32 %1333, 1, !dbg !3092
  store i32 %1334, ptr %617, align 4, !dbg !3092
  br label %1314, !dbg !3093, !llvm.loop !3094

1335:                                             ; preds = %1314
  %1336 = load { <2 x float>, <2 x float> }, ptr %614, align 4, !dbg !3096
  %1337 = getelementptr inbounds %struct.sse_f, ptr %687, i32 0, i32 0, !dbg !2941
  %1338 = getelementptr inbounds { <2 x float>, <2 x float> }, ptr %1337, i32 0, i32 0, !dbg !2941
  %1339 = extractvalue { <2 x float>, <2 x float> } %1336, 0, !dbg !2941
  store <2 x float> %1339, ptr %1338, align 4, !dbg !2941
  %1340 = getelementptr inbounds { <2 x float>, <2 x float> }, ptr %1337, i32 0, i32 1, !dbg !2941
  %1341 = extractvalue { <2 x float>, <2 x float> } %1336, 1, !dbg !2941
  store <2 x float> %1341, ptr %1340, align 4, !dbg !2941
  call void @llvm.dbg.declare(metadata ptr %608, metadata !2942, metadata !DIExpression()), !dbg !3097
  call void @_ZN5sse_fC2Ev(ptr noundef nonnull align 4 dereferenceable(16) %608), !dbg !3097
  call void @llvm.dbg.declare(metadata ptr %609, metadata !2948, metadata !DIExpression()), !dbg !3099
  store i32 0, ptr %609, align 4, !dbg !3099
  br label %1342, !dbg !3100

1342:                                             ; preds = %1345, %1335
  %1343 = load i32, ptr %609, align 4, !dbg !3101
  %1344 = icmp slt i32 %1343, 4, !dbg !3102
  br i1 %1344, label %1345, label %1351, !dbg !3103

1345:                                             ; preds = %1342
  %1346 = load i32, ptr %609, align 4, !dbg !3104
  %1347 = sext i32 %1346 to i64, !dbg !3105
  %1348 = getelementptr inbounds [4 x float], ptr %608, i64 0, i64 %1347, !dbg !3105
  store float 0.000000e+00, ptr %1348, align 4, !dbg !3106
  %1349 = load i32, ptr %609, align 4, !dbg !3107
  %1350 = add nsw i32 %1349, 1, !dbg !3107
  store i32 %1350, ptr %609, align 4, !dbg !3107
  br label %1342, !dbg !3108, !llvm.loop !3109

1351:                                             ; preds = %1342
  %1352 = load { <2 x float>, <2 x float> }, ptr %608, align 4, !dbg !3111
  %1353 = getelementptr inbounds %struct.sse_f, ptr %690, i32 0, i32 0, !dbg !2941
  %1354 = getelementptr inbounds { <2 x float>, <2 x float> }, ptr %1353, i32 0, i32 0, !dbg !2941
  %1355 = extractvalue { <2 x float>, <2 x float> } %1352, 0, !dbg !2941
  store <2 x float> %1355, ptr %1354, align 4, !dbg !2941
  %1356 = getelementptr inbounds { <2 x float>, <2 x float> }, ptr %1353, i32 0, i32 1, !dbg !2941
  %1357 = extractvalue { <2 x float>, <2 x float> } %1352, 1, !dbg !2941
  store <2 x float> %1357, ptr %1356, align 4, !dbg !2941
  %1358 = getelementptr inbounds { <2 x float>, <2 x float> }, ptr %687, i32 0, i32 0, !dbg !2941
  %1359 = load <2 x float>, ptr %1358, align 4, !dbg !2941
  %1360 = getelementptr inbounds { <2 x float>, <2 x float> }, ptr %687, i32 0, i32 1, !dbg !2941
  %1361 = load <2 x float>, ptr %1360, align 4, !dbg !2941
  %1362 = getelementptr inbounds { <2 x float>, <2 x float> }, ptr %690, i32 0, i32 0, !dbg !2941
  %1363 = load <2 x float>, ptr %1362, align 4, !dbg !2941
  %1364 = getelementptr inbounds { <2 x float>, <2 x float> }, ptr %690, i32 0, i32 1, !dbg !2941
  %1365 = load <2 x float>, ptr %1364, align 4, !dbg !2941
  store <2 x float> %1359, ptr %597, align 4
  %1366 = getelementptr inbounds { <2 x float>, <2 x float> }, ptr %597, i32 0, i32 1
  store <2 x float> %1361, ptr %1366, align 4
  store <2 x float> %1363, ptr %598, align 4
  %1367 = getelementptr inbounds { <2 x float>, <2 x float> }, ptr %598, i32 0, i32 1
  store <2 x float> %1365, ptr %1367, align 4
  call void @llvm.dbg.declare(metadata ptr %597, metadata !3112, metadata !DIExpression()), !dbg !3114
  call void @llvm.dbg.declare(metadata ptr %598, metadata !3116, metadata !DIExpression()), !dbg !3117
  call void @llvm.dbg.declare(metadata ptr %596, metadata !3118, metadata !DIExpression()), !dbg !3119
  call void @_ZN5sse_fC2Ev(ptr noundef nonnull align 4 dereferenceable(16) %596), !dbg !3119
  call void @llvm.dbg.declare(metadata ptr %599, metadata !3120, metadata !DIExpression()), !dbg !3122
  store i32 0, ptr %599, align 4, !dbg !3122
  br label %1368, !dbg !3123

1368:                                             ; preds = %1371, %1351
  %1369 = load i32, ptr %599, align 4, !dbg !3124
  %1370 = icmp slt i32 %1369, 4, !dbg !3126
  br i1 %1370, label %1371, label %1387, !dbg !3127

1371:                                             ; preds = %1368
  %1372 = load i32, ptr %599, align 4, !dbg !3128
  %1373 = sext i32 %1372 to i64, !dbg !3128
  %1374 = getelementptr inbounds [4 x float], ptr %597, i64 0, i64 %1373, !dbg !3128
  %1375 = load i32, ptr %1374, align 4, !dbg !3128
  %1376 = xor i32 %1375, -1, !dbg !3129
  %1377 = load i32, ptr %599, align 4, !dbg !3130
  %1378 = sext i32 %1377 to i64, !dbg !3130
  %1379 = getelementptr inbounds [4 x float], ptr %598, i64 0, i64 %1378, !dbg !3130
  %1380 = load i32, ptr %1379, align 4, !dbg !3130
  %1381 = and i32 %1376, %1380, !dbg !3131
  %1382 = load i32, ptr %599, align 4, !dbg !3132
  %1383 = sext i32 %1382 to i64, !dbg !3132
  %1384 = getelementptr inbounds [4 x float], ptr %596, i64 0, i64 %1383, !dbg !3132
  store i32 %1381, ptr %1384, align 4, !dbg !3133
  %1385 = load i32, ptr %599, align 4, !dbg !3134
  %1386 = add nsw i32 %1385, 1, !dbg !3134
  store i32 %1386, ptr %599, align 4, !dbg !3134
  br label %1368, !dbg !3135, !llvm.loop !3136

1387:                                             ; preds = %1368
  %1388 = load { <2 x float>, <2 x float> }, ptr %596, align 4, !dbg !3138
  %1389 = getelementptr inbounds %struct.sse_f, ptr %686, i32 0, i32 0, !dbg !2941
  %1390 = getelementptr inbounds { <2 x float>, <2 x float> }, ptr %1389, i32 0, i32 0, !dbg !2941
  %1391 = extractvalue { <2 x float>, <2 x float> } %1388, 0, !dbg !2941
  store <2 x float> %1391, ptr %1390, align 4, !dbg !2941
  %1392 = getelementptr inbounds { <2 x float>, <2 x float> }, ptr %1389, i32 0, i32 1, !dbg !2941
  %1393 = extractvalue { <2 x float>, <2 x float> } %1388, 1, !dbg !2941
  store <2 x float> %1393, ptr %1392, align 4, !dbg !2941
  %1394 = getelementptr inbounds { <2 x float>, <2 x float> }, ptr %679, i32 0, i32 0, !dbg !2941
  %1395 = load <2 x float>, ptr %1394, align 4, !dbg !2941
  %1396 = getelementptr inbounds { <2 x float>, <2 x float> }, ptr %679, i32 0, i32 1, !dbg !2941
  %1397 = load <2 x float>, ptr %1396, align 4, !dbg !2941
  %1398 = getelementptr inbounds { <2 x float>, <2 x float> }, ptr %686, i32 0, i32 0, !dbg !2941
  %1399 = load <2 x float>, ptr %1398, align 4, !dbg !2941
  %1400 = getelementptr inbounds { <2 x float>, <2 x float> }, ptr %686, i32 0, i32 1, !dbg !2941
  %1401 = load <2 x float>, ptr %1400, align 4, !dbg !2941
  store <2 x float> %1395, ptr %623, align 4
  %1402 = getelementptr inbounds { <2 x float>, <2 x float> }, ptr %623, i32 0, i32 1
  store <2 x float> %1397, ptr %1402, align 4
  store <2 x float> %1399, ptr %624, align 4
  %1403 = getelementptr inbounds { <2 x float>, <2 x float> }, ptr %624, i32 0, i32 1
  store <2 x float> %1401, ptr %1403, align 4
  call void @llvm.dbg.declare(metadata ptr %623, metadata !3139, metadata !DIExpression()), !dbg !3141
  call void @llvm.dbg.declare(metadata ptr %624, metadata !3143, metadata !DIExpression()), !dbg !3144
  call void @llvm.dbg.declare(metadata ptr %622, metadata !3145, metadata !DIExpression()), !dbg !3146
  call void @_ZN5sse_fC2Ev(ptr noundef nonnull align 4 dereferenceable(16) %622), !dbg !3146
  call void @llvm.dbg.declare(metadata ptr %625, metadata !3147, metadata !DIExpression()), !dbg !3149
  store i32 0, ptr %625, align 4, !dbg !3149
  br label %1404, !dbg !3150

1404:                                             ; preds = %1407, %1387
  %1405 = load i32, ptr %625, align 4, !dbg !3151
  %1406 = icmp slt i32 %1405, 4, !dbg !3153
  br i1 %1406, label %1407, label %1422, !dbg !3154

1407:                                             ; preds = %1404
  %1408 = load i32, ptr %625, align 4, !dbg !3155
  %1409 = sext i32 %1408 to i64, !dbg !3155
  %1410 = getelementptr inbounds [4 x float], ptr %623, i64 0, i64 %1409, !dbg !3155
  %1411 = load i32, ptr %1410, align 4, !dbg !3155
  %1412 = load i32, ptr %625, align 4, !dbg !3156
  %1413 = sext i32 %1412 to i64, !dbg !3156
  %1414 = getelementptr inbounds [4 x float], ptr %624, i64 0, i64 %1413, !dbg !3156
  %1415 = load i32, ptr %1414, align 4, !dbg !3156
  %1416 = or i32 %1411, %1415, !dbg !3157
  %1417 = load i32, ptr %625, align 4, !dbg !3158
  %1418 = sext i32 %1417 to i64, !dbg !3158
  %1419 = getelementptr inbounds [4 x float], ptr %622, i64 0, i64 %1418, !dbg !3158
  store i32 %1416, ptr %1419, align 4, !dbg !3159
  %1420 = load i32, ptr %625, align 4, !dbg !3160
  %1421 = add nsw i32 %1420, 1, !dbg !3160
  store i32 %1421, ptr %625, align 4, !dbg !3160
  br label %1404, !dbg !3161, !llvm.loop !3162

1422:                                             ; preds = %1404
  %1423 = load { <2 x float>, <2 x float> }, ptr %622, align 4, !dbg !3164
  %1424 = getelementptr inbounds %struct.sse_f, ptr %678, i32 0, i32 0, !dbg !2941
  %1425 = getelementptr inbounds { <2 x float>, <2 x float> }, ptr %1424, i32 0, i32 0, !dbg !2941
  %1426 = extractvalue { <2 x float>, <2 x float> } %1423, 0, !dbg !2941
  store <2 x float> %1426, ptr %1425, align 4, !dbg !2941
  %1427 = getelementptr inbounds { <2 x float>, <2 x float> }, ptr %1424, i32 0, i32 1, !dbg !2941
  %1428 = extractvalue { <2 x float>, <2 x float> } %1423, 1, !dbg !2941
  store <2 x float> %1428, ptr %1427, align 4, !dbg !2941
  call void @llvm.dbg.declare(metadata ptr %691, metadata !3165, metadata !DIExpression()), !dbg !3166
  store ptr %667, ptr %590, align 8
  call void @llvm.dbg.declare(metadata ptr %590, metadata !3167, metadata !DIExpression()), !dbg !3169
  %1429 = load ptr, ptr %590, align 8
  store ptr %1429, ptr %516, align 8
  call void @llvm.dbg.declare(metadata ptr %516, metadata !3171, metadata !DIExpression()), !dbg !3173
  %1430 = load ptr, ptr %516, align 8
  store ptr %1429, ptr %513, align 8
  call void @llvm.dbg.declare(metadata ptr %513, metadata !3175, metadata !DIExpression()), !dbg !3177
  %1431 = load ptr, ptr %513, align 8
  %1432 = getelementptr inbounds %"class.RTTL::RTBox_t", ptr %1431, i32 0, i32 1, !dbg !3179
  call void @_ZN4RTTL7RTBox_tILi3EfLi0EEC2ERKNS_7RTVec_tILi3EfLi0EEES5_(ptr noundef nonnull align 4 dereferenceable(24) %591, ptr noundef nonnull align 4 dereferenceable(12) %1430, ptr noundef nonnull align 4 dereferenceable(12) %1432), !dbg !3180
  store ptr %591, ptr %509, align 8
  call void @llvm.dbg.declare(metadata ptr %509, metadata !3181, metadata !DIExpression()), !dbg !3184
  %1433 = load ptr, ptr %509, align 8
  call void @llvm.dbg.declare(metadata ptr %510, metadata !3186, metadata !DIExpression()), !dbg !3187
  %1434 = getelementptr inbounds %"class.RTTL::RTBox_t.1", ptr %1433, i32 0, i32 1, !dbg !3188
  %1435 = call noundef float @_ZNK4RTTL7RTVec_tILi3EfLi0EEixEi(ptr noundef nonnull align 4 dereferenceable(12) %1434, i32 noundef 0), !dbg !3188
  %1436 = call noundef float @_ZNK4RTTL7RTVec_tILi3EfLi0EEixEi(ptr noundef nonnull align 4 dereferenceable(12) %1433, i32 noundef 0), !dbg !3189
  %1437 = fsub float %1435, %1436, !dbg !3190
  %1438 = getelementptr inbounds %"class.RTTL::RTBox_t.1", ptr %1433, i32 0, i32 1, !dbg !3191
  %1439 = call noundef float @_ZNK4RTTL7RTVec_tILi3EfLi0EEixEi(ptr noundef nonnull align 4 dereferenceable(12) %1438, i32 noundef 1), !dbg !3191
  %1440 = call noundef float @_ZNK4RTTL7RTVec_tILi3EfLi0EEixEi(ptr noundef nonnull align 4 dereferenceable(12) %1433, i32 noundef 1), !dbg !3192
  %1441 = fsub float %1439, %1440, !dbg !3193
  %1442 = fmul float %1437, %1441, !dbg !3194
  store float %1442, ptr %510, align 4, !dbg !3187
  %1443 = load float, ptr %510, align 4, !dbg !3195
  %1444 = getelementptr inbounds %"class.RTTL::RTBox_t.1", ptr %1433, i32 0, i32 1, !dbg !3198
  %1445 = call noundef float @_ZNK4RTTL7RTVec_tILi3EfLi0EEixEi(ptr noundef nonnull align 4 dereferenceable(12) %1444, i32 noundef 0), !dbg !3198
  %1446 = call noundef float @_ZNK4RTTL7RTVec_tILi3EfLi0EEixEi(ptr noundef nonnull align 4 dereferenceable(12) %1433, i32 noundef 0), !dbg !3199
  %1447 = fsub float %1445, %1446, !dbg !3200
  %1448 = getelementptr inbounds %"class.RTTL::RTBox_t.1", ptr %1433, i32 0, i32 1, !dbg !3201
  %1449 = call noundef float @_ZNK4RTTL7RTVec_tILi3EfLi0EEixEi(ptr noundef nonnull align 4 dereferenceable(12) %1448, i32 noundef 2), !dbg !3201
  %1450 = call noundef float @_ZNK4RTTL7RTVec_tILi3EfLi0EEixEi(ptr noundef nonnull align 4 dereferenceable(12) %1433, i32 noundef 2), !dbg !3202
  %1451 = fsub float %1449, %1450, !dbg !3203
  %1452 = call float @llvm.fmuladd.f32(float %1447, float %1451, float %1443), !dbg !3204
  %1453 = getelementptr inbounds %"class.RTTL::RTBox_t.1", ptr %1433, i32 0, i32 1, !dbg !3205
  %1454 = call noundef float @_ZNK4RTTL7RTVec_tILi3EfLi0EEixEi(ptr noundef nonnull align 4 dereferenceable(12) %1453, i32 noundef 1), !dbg !3205
  %1455 = call noundef float @_ZNK4RTTL7RTVec_tILi3EfLi0EEixEi(ptr noundef nonnull align 4 dereferenceable(12) %1433, i32 noundef 1), !dbg !3206
  %1456 = fsub float %1454, %1455, !dbg !3207
  %1457 = getelementptr inbounds %"class.RTTL::RTBox_t.1", ptr %1433, i32 0, i32 1, !dbg !3208
  %1458 = call noundef float @_ZNK4RTTL7RTVec_tILi3EfLi0EEixEi(ptr noundef nonnull align 4 dereferenceable(12) %1457, i32 noundef 2), !dbg !3208
  %1459 = call noundef float @_ZNK4RTTL7RTVec_tILi3EfLi0EEixEi(ptr noundef nonnull align 4 dereferenceable(12) %1433, i32 noundef 2), !dbg !3209
  %1460 = fsub float %1458, %1459, !dbg !3210
  %1461 = call float @llvm.fmuladd.f32(float %1456, float %1460, float %1452), !dbg !3211
  %1462 = fmul float 2.000000e+00, %1461, !dbg !3212
  store float %1462, ptr %510, align 4, !dbg !3213
  %1463 = load float, ptr %510, align 4, !dbg !3214
  store float %1463, ptr %691, align 4, !dbg !3166
  call void @llvm.dbg.declare(metadata ptr %692, metadata !3215, metadata !DIExpression()), !dbg !3216
  store i32 -1, ptr %692, align 4, !dbg !3216
  call void @llvm.dbg.declare(metadata ptr %693, metadata !3217, metadata !DIExpression()), !dbg !3218
  store i32 -1, ptr %693, align 4, !dbg !3218
  call void @llvm.dbg.declare(metadata ptr %694, metadata !3219, metadata !DIExpression()), !dbg !3220
  %1464 = load i32, ptr %670, align 4, !dbg !3221
  %1465 = sitofp i32 %1464 to float, !dbg !3221
  %1466 = load float, ptr %691, align 4, !dbg !3222
  %1467 = fmul float %1465, %1466, !dbg !3223
  store float %1467, ptr %694, align 4, !dbg !3220
  %1468 = load i32, ptr %675, align 4, !dbg !3224
  store ptr %722, ptr %585, align 8
  call void @llvm.dbg.declare(metadata ptr %585, metadata !3225, metadata !DIExpression()), !dbg !3227
  store i32 %1468, ptr %586, align 4
  call void @llvm.dbg.declare(metadata ptr %586, metadata !3229, metadata !DIExpression()), !dbg !3230
  %1469 = load ptr, ptr %585, align 8
  call void @llvm.dbg.declare(metadata ptr %587, metadata !3231, metadata !DIExpression()), !dbg !3233
  store i32 0, ptr %587, align 4, !dbg !3233
  br label %1470, !dbg !3234

1470:                                             ; preds = %1566, %1422
  %1471 = load i32, ptr %587, align 4, !dbg !3235
  %1472 = icmp slt i32 %1471, 3, !dbg !3237
  br i1 %1472, label %1473, label %1569, !dbg !3238

1473:                                             ; preds = %1470
  call void @llvm.dbg.declare(metadata ptr %588, metadata !3239, metadata !DIExpression()), !dbg !3242
  store i32 0, ptr %588, align 4, !dbg !3242
  br label %1474, !dbg !3243

1474:                                             ; preds = %1549, %1473
  %1475 = load i32, ptr %588, align 4, !dbg !3244
  %1476 = load i32, ptr %586, align 4, !dbg !3246
  %1477 = icmp slt i32 %1475, %1476, !dbg !3247
  br i1 %1477, label %1478, label %1552, !dbg !3248

1478:                                             ; preds = %1474
  %1479 = load i32, ptr %587, align 4, !dbg !3249
  %1480 = sext i32 %1479 to i64, !dbg !3250
  %1481 = getelementptr inbounds [3 x [32 x %"class.RTTL::AABB"]], ptr @_ZN4RTTL15OnDemandBuilder9binBoundsE, i64 0, i64 %1480, !dbg !3250
  %1482 = load i32, ptr %588, align 4, !dbg !3251
  %1483 = sext i32 %1482 to i64, !dbg !3250
  %1484 = getelementptr inbounds [32 x %"class.RTTL::AABB"], ptr %1481, i64 0, i64 %1483, !dbg !3250
  store ptr %1484, ptr %584, align 8
  call void @llvm.dbg.declare(metadata ptr %584, metadata !2598, metadata !DIExpression()), !dbg !3252
  %1485 = load ptr, ptr %584, align 8
  store ptr %1485, ptr %488, align 8
  call void @llvm.dbg.declare(metadata ptr %488, metadata !2602, metadata !DIExpression()), !dbg !3254
  %1486 = load ptr, ptr %488, align 8
  store float 0x47EFFFFFE0000000, ptr %483, align 4
  call void @llvm.dbg.declare(metadata ptr %483, metadata !1886, metadata !DIExpression()), !dbg !3256
  call void @llvm.dbg.declare(metadata ptr %482, metadata !1893, metadata !DIExpression()), !dbg !3258
  call void @_ZN5sse_fC2Ev(ptr noundef nonnull align 4 dereferenceable(16) %482), !dbg !3258
  call void @llvm.dbg.declare(metadata ptr %484, metadata !1895, metadata !DIExpression()), !dbg !3259
  store i32 0, ptr %484, align 4, !dbg !3259
  br label %1487, !dbg !3260

1487:                                             ; preds = %1490, %1478
  %1488 = load i32, ptr %484, align 4, !dbg !3261
  %1489 = icmp slt i32 %1488, 4, !dbg !3262
  br i1 %1489, label %1490, label %1497, !dbg !3263

1490:                                             ; preds = %1487
  %1491 = load float, ptr %483, align 4, !dbg !3264
  %1492 = load i32, ptr %484, align 4, !dbg !3265
  %1493 = sext i32 %1492 to i64, !dbg !3266
  %1494 = getelementptr inbounds [4 x float], ptr %482, i64 0, i64 %1493, !dbg !3266
  store float %1491, ptr %1494, align 4, !dbg !3267
  %1495 = load i32, ptr %484, align 4, !dbg !3268
  %1496 = add nsw i32 %1495, 1, !dbg !3268
  store i32 %1496, ptr %484, align 4, !dbg !3268
  br label %1487, !dbg !3269, !llvm.loop !3270

1497:                                             ; preds = %1487
  %1498 = load { <2 x float>, <2 x float> }, ptr %482, align 4, !dbg !3272
  %1499 = extractvalue { <2 x float>, <2 x float> } %1498, 0, !dbg !3273
  store <2 x float> %1499, ptr %489, align 4, !dbg !3273
  %1500 = getelementptr inbounds { <2 x float>, <2 x float> }, ptr %489, i32 0, i32 1, !dbg !3273
  %1501 = extractvalue { <2 x float>, <2 x float> } %1498, 1, !dbg !3273
  store <2 x float> %1501, ptr %1500, align 4, !dbg !3273
  store ptr %1486, ptr %401, align 8
  call void @llvm.dbg.declare(metadata ptr %401, metadata !2624, metadata !DIExpression()), !dbg !3274
  store ptr %489, ptr %402, align 8
  call void @llvm.dbg.declare(metadata ptr %402, metadata !2628, metadata !DIExpression()), !dbg !3276
  %1502 = load ptr, ptr %401, align 8
  call void @llvm.dbg.declare(metadata ptr %403, metadata !2630, metadata !DIExpression()), !dbg !3277
  %1503 = call noundef nonnull align 4 dereferenceable(16) ptr @_ZN4RTTL7RTVec_tILi1E5sse_fLi0EEcvRNS_8RTData_tILi1ES1_Li0EEEEv(ptr noundef nonnull align 4 dereferenceable(16) %1502), !dbg !3278
  store ptr %1503, ptr %403, align 8, !dbg !3277
  %1504 = load ptr, ptr %403, align 8, !dbg !3279
  %1505 = load ptr, ptr %402, align 8, !dbg !3280
  store ptr %1504, ptr %398, align 8
  call void @llvm.dbg.declare(metadata ptr %398, metadata !2635, metadata !DIExpression()), !dbg !3281
  store ptr %1505, ptr %399, align 8
  call void @llvm.dbg.declare(metadata ptr %399, metadata !2639, metadata !DIExpression()), !dbg !3283
  %1506 = load ptr, ptr %398, align 8
  call void @llvm.dbg.declare(metadata ptr %400, metadata !2641, metadata !DIExpression()), !dbg !3284
  store i32 0, ptr %400, align 4, !dbg !3284
  br label %1507, !dbg !3285

1507:                                             ; preds = %1510, %1497
  %1508 = load i32, ptr %400, align 4, !dbg !3286
  %1509 = icmp slt i32 %1508, 1, !dbg !3287
  br i1 %1509, label %1510, label %1517, !dbg !3288

1510:                                             ; preds = %1507
  %1511 = load ptr, ptr %399, align 8, !dbg !3289
  %1512 = load i32, ptr %400, align 4, !dbg !3290
  %1513 = sext i32 %1512 to i64, !dbg !3291
  %1514 = getelementptr inbounds [1 x %struct.sse_f], ptr %1506, i64 0, i64 %1513, !dbg !3291
  call void @llvm.memcpy.p0.p0.i64(ptr align 4 %1514, ptr align 4 %1511, i64 16, i1 false), !dbg !3292
  %1515 = load i32, ptr %400, align 4, !dbg !3293
  %1516 = add nsw i32 %1515, 1, !dbg !3293
  store i32 %1516, ptr %400, align 4, !dbg !3293
  br label %1507, !dbg !3294, !llvm.loop !3295

1517:                                             ; preds = %1507
  store float 0xC7EFFFFFE0000000, ptr %486, align 4
  call void @llvm.dbg.declare(metadata ptr %486, metadata !1886, metadata !DIExpression()), !dbg !3297
  call void @llvm.dbg.declare(metadata ptr %485, metadata !1893, metadata !DIExpression()), !dbg !3299
  call void @_ZN5sse_fC2Ev(ptr noundef nonnull align 4 dereferenceable(16) %485), !dbg !3299
  call void @llvm.dbg.declare(metadata ptr %487, metadata !1895, metadata !DIExpression()), !dbg !3300
  store i32 0, ptr %487, align 4, !dbg !3300
  br label %1518, !dbg !3301

1518:                                             ; preds = %1521, %1517
  %1519 = load i32, ptr %487, align 4, !dbg !3302
  %1520 = icmp slt i32 %1519, 4, !dbg !3303
  br i1 %1520, label %1521, label %1528, !dbg !3304

1521:                                             ; preds = %1518
  %1522 = load float, ptr %486, align 4, !dbg !3305
  %1523 = load i32, ptr %487, align 4, !dbg !3306
  %1524 = sext i32 %1523 to i64, !dbg !3307
  %1525 = getelementptr inbounds [4 x float], ptr %485, i64 0, i64 %1524, !dbg !3307
  store float %1522, ptr %1525, align 4, !dbg !3308
  %1526 = load i32, ptr %487, align 4, !dbg !3309
  %1527 = add nsw i32 %1526, 1, !dbg !3309
  store i32 %1527, ptr %487, align 4, !dbg !3309
  br label %1518, !dbg !3310, !llvm.loop !3311

1528:                                             ; preds = %1518
  %1529 = load { <2 x float>, <2 x float> }, ptr %485, align 4, !dbg !3313
  %1530 = extractvalue { <2 x float>, <2 x float> } %1529, 0, !dbg !3314
  store <2 x float> %1530, ptr %490, align 4, !dbg !3314
  %1531 = getelementptr inbounds { <2 x float>, <2 x float> }, ptr %490, i32 0, i32 1, !dbg !3314
  %1532 = extractvalue { <2 x float>, <2 x float> } %1529, 1, !dbg !3314
  store <2 x float> %1532, ptr %1531, align 4, !dbg !3314
  %1533 = getelementptr inbounds %"class.RTTL::RTBox_t", ptr %1486, i32 0, i32 1, !dbg !3315
  store ptr %1533, ptr %404, align 8
  call void @llvm.dbg.declare(metadata ptr %404, metadata !2624, metadata !DIExpression()), !dbg !3316
  store ptr %490, ptr %405, align 8
  call void @llvm.dbg.declare(metadata ptr %405, metadata !2628, metadata !DIExpression()), !dbg !3318
  %1534 = load ptr, ptr %404, align 8
  call void @llvm.dbg.declare(metadata ptr %406, metadata !2630, metadata !DIExpression()), !dbg !3319
  %1535 = call noundef nonnull align 4 dereferenceable(16) ptr @_ZN4RTTL7RTVec_tILi1E5sse_fLi0EEcvRNS_8RTData_tILi1ES1_Li0EEEEv(ptr noundef nonnull align 4 dereferenceable(16) %1534), !dbg !3320
  store ptr %1535, ptr %406, align 8, !dbg !3319
  %1536 = load ptr, ptr %406, align 8, !dbg !3321
  %1537 = load ptr, ptr %405, align 8, !dbg !3322
  store ptr %1536, ptr %395, align 8
  call void @llvm.dbg.declare(metadata ptr %395, metadata !2635, metadata !DIExpression()), !dbg !3323
  store ptr %1537, ptr %396, align 8
  call void @llvm.dbg.declare(metadata ptr %396, metadata !2639, metadata !DIExpression()), !dbg !3325
  %1538 = load ptr, ptr %395, align 8
  call void @llvm.dbg.declare(metadata ptr %397, metadata !2641, metadata !DIExpression()), !dbg !3326
  store i32 0, ptr %397, align 4, !dbg !3326
  br label %1539, !dbg !3327

1539:                                             ; preds = %1542, %1528
  %1540 = load i32, ptr %397, align 4, !dbg !3328
  %1541 = icmp slt i32 %1540, 1, !dbg !3329
  br i1 %1541, label %1542, label %1549, !dbg !3330

1542:                                             ; preds = %1539
  %1543 = load ptr, ptr %396, align 8, !dbg !3331
  %1544 = load i32, ptr %397, align 4, !dbg !3332
  %1545 = sext i32 %1544 to i64, !dbg !3333
  %1546 = getelementptr inbounds [1 x %struct.sse_f], ptr %1538, i64 0, i64 %1545, !dbg !3333
  call void @llvm.memcpy.p0.p0.i64(ptr align 4 %1546, ptr align 4 %1543, i64 16, i1 false), !dbg !3334
  %1547 = load i32, ptr %397, align 4, !dbg !3335
  %1548 = add nsw i32 %1547, 1, !dbg !3335
  store i32 %1548, ptr %397, align 4, !dbg !3335
  br label %1539, !dbg !3336, !llvm.loop !3337

1549:                                             ; preds = %1539
  %1550 = load i32, ptr %588, align 4, !dbg !3339
  %1551 = add nsw i32 %1550, 1, !dbg !3339
  store i32 %1551, ptr %588, align 4, !dbg !3339
  br label %1474, !dbg !3340, !llvm.loop !3341

1552:                                             ; preds = %1474
  call void @llvm.dbg.declare(metadata ptr %589, metadata !3343, metadata !DIExpression()), !dbg !3345
  store i32 0, ptr %589, align 4, !dbg !3345
  br label %1553, !dbg !3346

1553:                                             ; preds = %1557, %1552
  %1554 = load i32, ptr %589, align 4, !dbg !3347
  %1555 = load i32, ptr %586, align 4, !dbg !3349
  %1556 = icmp slt i32 %1554, %1555, !dbg !3350
  br i1 %1556, label %1557, label %1566, !dbg !3351

1557:                                             ; preds = %1553
  %1558 = load i32, ptr %587, align 4, !dbg !3352
  %1559 = sext i32 %1558 to i64, !dbg !3353
  %1560 = getelementptr inbounds [3 x [32 x i32]], ptr @_ZN4RTTL15OnDemandBuilder8binCountE, i64 0, i64 %1559, !dbg !3353
  %1561 = load i32, ptr %589, align 4, !dbg !3354
  %1562 = sext i32 %1561 to i64, !dbg !3353
  %1563 = getelementptr inbounds [32 x i32], ptr %1560, i64 0, i64 %1562, !dbg !3353
  store i32 0, ptr %1563, align 4, !dbg !3355
  %1564 = load i32, ptr %589, align 4, !dbg !3356
  %1565 = add nsw i32 %1564, 1, !dbg !3356
  store i32 %1565, ptr %589, align 4, !dbg !3356
  br label %1553, !dbg !3357, !llvm.loop !3358

1566:                                             ; preds = %1553
  %1567 = load i32, ptr %587, align 4, !dbg !3360
  %1568 = add nsw i32 %1567, 1, !dbg !3360
  store i32 %1568, ptr %587, align 4, !dbg !3360
  br label %1470, !dbg !3361, !llvm.loop !3362

1569:                                             ; preds = %1470
  call void @llvm.dbg.declare(metadata ptr %695, metadata !3364, metadata !DIExpression()), !dbg !3365
  store ptr %671, ptr %638, align 8
  call void @llvm.dbg.declare(metadata ptr %638, metadata !2456, metadata !DIExpression()), !dbg !3366
  %1570 = load ptr, ptr %638, align 8
  %1571 = call noundef nonnull align 4 dereferenceable(16) ptr @_ZN4RTTL7RTVec_tILi1E5sse_fLi0EEixEi(ptr noundef nonnull align 4 dereferenceable(16) %1570, i32 noundef 0), !dbg !3368
  call void @llvm.memcpy.p0.p0.i64(ptr align 4 %695, ptr align 4 %1571, i64 16, i1 false), !dbg !3369
  call void @llvm.dbg.declare(metadata ptr %696, metadata !3370, metadata !DIExpression()), !dbg !3372
  %1572 = load i32, ptr %668, align 4, !dbg !3373
  store i32 %1572, ptr %696, align 4, !dbg !3372
  br label %1573, !dbg !3374

1573:                                             ; preds = %2243, %1569
  %1574 = load i32, ptr %696, align 4, !dbg !3375
  %1575 = load i32, ptr %669, align 4, !dbg !3377
  %1576 = icmp slt i32 %1574, %1575, !dbg !3378
  br i1 %1576, label %1577, label %2246, !dbg !3379

1577:                                             ; preds = %1573
  %1578 = getelementptr inbounds %"class.RTTL::OnDemandBuilder", ptr %722, i32 0, i32 1, !dbg !3380
  %1579 = load ptr, ptr %1578, align 8, !dbg !3380
  %1580 = load ptr, ptr %665, align 8, !dbg !3381
  %1581 = load i32, ptr %696, align 4, !dbg !3382
  %1582 = sext i32 %1581 to i64, !dbg !3381
  %1583 = getelementptr inbounds i32, ptr %1580, i64 %1582, !dbg !3381
  %1584 = load i32, ptr %1583, align 4, !dbg !3381
  %1585 = sext i32 %1584 to i64, !dbg !3380
  %1586 = getelementptr inbounds %"class.RTTL::CentroidDiffAABB", ptr %1579, i64 %1585, !dbg !3380
  store ptr %722, ptr %570, align 8
  call void @llvm.dbg.declare(metadata ptr %570, metadata !3383, metadata !DIExpression()), !dbg !3385
  store ptr %1586, ptr %571, align 8
  call void @llvm.dbg.declare(metadata ptr %571, metadata !3387, metadata !DIExpression()), !dbg !3388
  store ptr %695, ptr %572, align 8
  call void @llvm.dbg.declare(metadata ptr %572, metadata !3389, metadata !DIExpression()), !dbg !3390
  store ptr %678, ptr %573, align 8
  call void @llvm.dbg.declare(metadata ptr %573, metadata !3391, metadata !DIExpression()), !dbg !3392
  %1587 = load ptr, ptr %570, align 8
  call void @llvm.dbg.declare(metadata ptr %574, metadata !3393, metadata !DIExpression()), !dbg !3396
  %1588 = load ptr, ptr %571, align 8, !dbg !3397
  %1589 = call { <2 x float>, <2 x float> } @_ZNK4RTTL16CentroidDiffAABB8centroidEv(ptr noundef nonnull align 4 dereferenceable(32) %1588), !dbg !3398
  %1590 = extractvalue { <2 x float>, <2 x float> } %1589, 0, !dbg !3398
  store <2 x float> %1590, ptr %577, align 4, !dbg !3398
  %1591 = getelementptr inbounds { <2 x float>, <2 x float> }, ptr %577, i32 0, i32 1, !dbg !3398
  %1592 = extractvalue { <2 x float>, <2 x float> } %1589, 1, !dbg !3398
  store <2 x float> %1592, ptr %1591, align 4, !dbg !3398
  %1593 = load ptr, ptr %572, align 8, !dbg !3399
  call void @llvm.memcpy.p0.p0.i64(ptr align 4 %578, ptr align 4 %1593, i64 16, i1 false), !dbg !3399
  %1594 = load <2 x float>, ptr %577, align 4, !dbg !3400
  %1595 = getelementptr inbounds { <2 x float>, <2 x float> }, ptr %577, i32 0, i32 1, !dbg !3400
  %1596 = load <2 x float>, ptr %1595, align 4, !dbg !3400
  %1597 = load <2 x float>, ptr %578, align 4, !dbg !3400
  %1598 = getelementptr inbounds { <2 x float>, <2 x float> }, ptr %578, i32 0, i32 1, !dbg !3400
  %1599 = load <2 x float>, ptr %1598, align 4, !dbg !3400
  store <2 x float> %1594, ptr %526, align 4
  %1600 = getelementptr inbounds { <2 x float>, <2 x float> }, ptr %526, i32 0, i32 1
  store <2 x float> %1596, ptr %1600, align 4
  store <2 x float> %1597, ptr %527, align 4
  %1601 = getelementptr inbounds { <2 x float>, <2 x float> }, ptr %527, i32 0, i32 1
  store <2 x float> %1599, ptr %1601, align 4
  call void @llvm.dbg.declare(metadata ptr %526, metadata !2278, metadata !DIExpression()), !dbg !3401
  call void @llvm.dbg.declare(metadata ptr %527, metadata !2282, metadata !DIExpression()), !dbg !3403
  call void @llvm.memcpy.p0.p0.i64(ptr align 4 %528, ptr align 4 %526, i64 16, i1 false), !dbg !3404
  call void @llvm.memcpy.p0.p0.i64(ptr align 4 %529, ptr align 4 %527, i64 16, i1 false), !dbg !3405
  %1602 = load <2 x float>, ptr %528, align 4, !dbg !3406
  %1603 = getelementptr inbounds { <2 x float>, <2 x float> }, ptr %528, i32 0, i32 1, !dbg !3406
  %1604 = load <2 x float>, ptr %1603, align 4, !dbg !3406
  %1605 = load <2 x float>, ptr %529, align 4, !dbg !3406
  %1606 = getelementptr inbounds { <2 x float>, <2 x float> }, ptr %529, i32 0, i32 1, !dbg !3406
  %1607 = load <2 x float>, ptr %1606, align 4, !dbg !3406
  store <2 x float> %1602, ptr %522, align 4
  %1608 = getelementptr inbounds { <2 x float>, <2 x float> }, ptr %522, i32 0, i32 1
  store <2 x float> %1604, ptr %1608, align 4
  store <2 x float> %1605, ptr %523, align 4
  %1609 = getelementptr inbounds { <2 x float>, <2 x float> }, ptr %523, i32 0, i32 1
  store <2 x float> %1607, ptr %1609, align 4
  call void @llvm.dbg.declare(metadata ptr %522, metadata !2287, metadata !DIExpression()), !dbg !3407
  call void @llvm.dbg.declare(metadata ptr %523, metadata !2291, metadata !DIExpression()), !dbg !3409
  call void @llvm.dbg.declare(metadata ptr %521, metadata !2293, metadata !DIExpression()), !dbg !3410
  call void @_ZN5sse_fC2Ev(ptr noundef nonnull align 4 dereferenceable(16) %521), !dbg !3410
  call void @llvm.dbg.declare(metadata ptr %524, metadata !2295, metadata !DIExpression()), !dbg !3411
  store i32 0, ptr %524, align 4, !dbg !3411
  br label %1610, !dbg !3412

1610:                                             ; preds = %1613, %1577
  %1611 = load i32, ptr %524, align 4, !dbg !3413
  %1612 = icmp slt i32 %1611, 4, !dbg !3414
  br i1 %1612, label %1613, label %1628, !dbg !3415

1613:                                             ; preds = %1610
  %1614 = load i32, ptr %524, align 4, !dbg !3416
  %1615 = sext i32 %1614 to i64, !dbg !3417
  %1616 = getelementptr inbounds [4 x float], ptr %522, i64 0, i64 %1615, !dbg !3417
  %1617 = load float, ptr %1616, align 4, !dbg !3417
  %1618 = load i32, ptr %524, align 4, !dbg !3418
  %1619 = sext i32 %1618 to i64, !dbg !3419
  %1620 = getelementptr inbounds [4 x float], ptr %523, i64 0, i64 %1619, !dbg !3419
  %1621 = load float, ptr %1620, align 4, !dbg !3419
  %1622 = fsub float %1617, %1621, !dbg !3420
  %1623 = load i32, ptr %524, align 4, !dbg !3421
  %1624 = sext i32 %1623 to i64, !dbg !3422
  %1625 = getelementptr inbounds [4 x float], ptr %521, i64 0, i64 %1624, !dbg !3422
  store float %1622, ptr %1625, align 4, !dbg !3423
  %1626 = load i32, ptr %524, align 4, !dbg !3424
  %1627 = add nsw i32 %1626, 1, !dbg !3424
  store i32 %1627, ptr %524, align 4, !dbg !3424
  br label %1610, !dbg !3425, !llvm.loop !3426

1628:                                             ; preds = %1610
  %1629 = load { <2 x float>, <2 x float> }, ptr %521, align 4, !dbg !3428
  %1630 = extractvalue { <2 x float>, <2 x float> } %1629, 0, !dbg !3406
  store <2 x float> %1630, ptr %525, align 4, !dbg !3406
  %1631 = getelementptr inbounds { <2 x float>, <2 x float> }, ptr %525, i32 0, i32 1, !dbg !3406
  %1632 = extractvalue { <2 x float>, <2 x float> } %1629, 1, !dbg !3406
  store <2 x float> %1632, ptr %1631, align 4, !dbg !3406
  %1633 = load { <2 x float>, <2 x float> }, ptr %525, align 4, !dbg !3429
  %1634 = extractvalue { <2 x float>, <2 x float> } %1633, 0, !dbg !3400
  store <2 x float> %1634, ptr %576, align 4, !dbg !3400
  %1635 = getelementptr inbounds { <2 x float>, <2 x float> }, ptr %576, i32 0, i32 1, !dbg !3400
  %1636 = extractvalue { <2 x float>, <2 x float> } %1633, 1, !dbg !3400
  store <2 x float> %1636, ptr %1635, align 4, !dbg !3400
  %1637 = load ptr, ptr %573, align 8, !dbg !3430
  call void @llvm.memcpy.p0.p0.i64(ptr align 4 %579, ptr align 4 %1637, i64 16, i1 false), !dbg !3430
  %1638 = load <2 x float>, ptr %576, align 4, !dbg !3431
  %1639 = getelementptr inbounds { <2 x float>, <2 x float> }, ptr %576, i32 0, i32 1, !dbg !3431
  %1640 = load <2 x float>, ptr %1639, align 4, !dbg !3431
  %1641 = load <2 x float>, ptr %579, align 4, !dbg !3431
  %1642 = getelementptr inbounds { <2 x float>, <2 x float> }, ptr %579, i32 0, i32 1, !dbg !3431
  %1643 = load <2 x float>, ptr %1642, align 4, !dbg !3431
  store <2 x float> %1638, ptr %497, align 4
  %1644 = getelementptr inbounds { <2 x float>, <2 x float> }, ptr %497, i32 0, i32 1
  store <2 x float> %1640, ptr %1644, align 4
  store <2 x float> %1641, ptr %498, align 4
  %1645 = getelementptr inbounds { <2 x float>, <2 x float> }, ptr %498, i32 0, i32 1
  store <2 x float> %1643, ptr %1645, align 4
  call void @llvm.dbg.declare(metadata ptr %497, metadata !3432, metadata !DIExpression()), !dbg !3434
  call void @llvm.dbg.declare(metadata ptr %498, metadata !3436, metadata !DIExpression()), !dbg !3437
  call void @llvm.memcpy.p0.p0.i64(ptr align 4 %499, ptr align 4 %497, i64 16, i1 false), !dbg !3438
  call void @llvm.memcpy.p0.p0.i64(ptr align 4 %500, ptr align 4 %498, i64 16, i1 false), !dbg !3439
  %1646 = load <2 x float>, ptr %499, align 4, !dbg !3440
  %1647 = getelementptr inbounds { <2 x float>, <2 x float> }, ptr %499, i32 0, i32 1, !dbg !3440
  %1648 = load <2 x float>, ptr %1647, align 4, !dbg !3440
  %1649 = load <2 x float>, ptr %500, align 4, !dbg !3440
  %1650 = getelementptr inbounds { <2 x float>, <2 x float> }, ptr %500, i32 0, i32 1, !dbg !3440
  %1651 = load <2 x float>, ptr %1650, align 4, !dbg !3440
  store <2 x float> %1646, ptr %493, align 4
  %1652 = getelementptr inbounds { <2 x float>, <2 x float> }, ptr %493, i32 0, i32 1
  store <2 x float> %1648, ptr %1652, align 4
  store <2 x float> %1649, ptr %494, align 4
  %1653 = getelementptr inbounds { <2 x float>, <2 x float> }, ptr %494, i32 0, i32 1
  store <2 x float> %1651, ptr %1653, align 4
  call void @llvm.dbg.declare(metadata ptr %493, metadata !2370, metadata !DIExpression()), !dbg !3441
  call void @llvm.dbg.declare(metadata ptr %494, metadata !2374, metadata !DIExpression()), !dbg !3443
  call void @llvm.dbg.declare(metadata ptr %492, metadata !2376, metadata !DIExpression()), !dbg !3444
  call void @_ZN5sse_fC2Ev(ptr noundef nonnull align 4 dereferenceable(16) %492), !dbg !3444
  call void @llvm.dbg.declare(metadata ptr %495, metadata !2378, metadata !DIExpression()), !dbg !3445
  store i32 0, ptr %495, align 4, !dbg !3445
  br label %1654, !dbg !3446

1654:                                             ; preds = %1657, %1628
  %1655 = load i32, ptr %495, align 4, !dbg !3447
  %1656 = icmp slt i32 %1655, 4, !dbg !3448
  br i1 %1656, label %1657, label %1672, !dbg !3449

1657:                                             ; preds = %1654
  %1658 = load i32, ptr %495, align 4, !dbg !3450
  %1659 = sext i32 %1658 to i64, !dbg !3450
  %1660 = getelementptr inbounds [4 x float], ptr %493, i64 0, i64 %1659, !dbg !3450
  %1661 = load float, ptr %1660, align 4, !dbg !3450
  %1662 = load i32, ptr %495, align 4, !dbg !3451
  %1663 = sext i32 %1662 to i64, !dbg !3451
  %1664 = getelementptr inbounds [4 x float], ptr %494, i64 0, i64 %1663, !dbg !3451
  %1665 = load float, ptr %1664, align 4, !dbg !3451
  %1666 = fmul float %1661, %1665, !dbg !3452
  %1667 = load i32, ptr %495, align 4, !dbg !3453
  %1668 = sext i32 %1667 to i64, !dbg !3453
  %1669 = getelementptr inbounds [4 x float], ptr %492, i64 0, i64 %1668, !dbg !3453
  store float %1666, ptr %1669, align 4, !dbg !3454
  %1670 = load i32, ptr %495, align 4, !dbg !3455
  %1671 = add nsw i32 %1670, 1, !dbg !3455
  store i32 %1671, ptr %495, align 4, !dbg !3455
  br label %1654, !dbg !3456, !llvm.loop !3457

1672:                                             ; preds = %1654
  %1673 = load { <2 x float>, <2 x float> }, ptr %492, align 4, !dbg !3459
  %1674 = extractvalue { <2 x float>, <2 x float> } %1673, 0, !dbg !3440
  store <2 x float> %1674, ptr %496, align 4, !dbg !3440
  %1675 = getelementptr inbounds { <2 x float>, <2 x float> }, ptr %496, i32 0, i32 1, !dbg !3440
  %1676 = extractvalue { <2 x float>, <2 x float> } %1673, 1, !dbg !3440
  store <2 x float> %1676, ptr %1675, align 4, !dbg !3440
  %1677 = load { <2 x float>, <2 x float> }, ptr %496, align 4, !dbg !3460
  %1678 = extractvalue { <2 x float>, <2 x float> } %1677, 0, !dbg !3431
  store <2 x float> %1678, ptr %575, align 4, !dbg !3431
  %1679 = getelementptr inbounds { <2 x float>, <2 x float> }, ptr %575, i32 0, i32 1, !dbg !3431
  %1680 = extractvalue { <2 x float>, <2 x float> } %1677, 1, !dbg !3431
  store <2 x float> %1680, ptr %1679, align 4, !dbg !3431
  %1681 = load <2 x float>, ptr %575, align 4, !dbg !3461
  %1682 = getelementptr inbounds { <2 x float>, <2 x float> }, ptr %575, i32 0, i32 1, !dbg !3461
  %1683 = load <2 x float>, ptr %1682, align 4, !dbg !3461
  store <2 x float> %1681, ptr %502, align 4
  %1684 = getelementptr inbounds { <2 x float>, <2 x float> }, ptr %502, i32 0, i32 1
  store <2 x float> %1683, ptr %1684, align 4
  call void @llvm.dbg.declare(metadata ptr %502, metadata !3462, metadata !DIExpression()), !dbg !3466
  call void @llvm.dbg.declare(metadata ptr %501, metadata !3468, metadata !DIExpression()), !dbg !3469
  call void @_ZN5sse_iC2Ev(ptr noundef nonnull align 4 dereferenceable(16) %501), !dbg !3469
  call void @llvm.dbg.declare(metadata ptr %503, metadata !3470, metadata !DIExpression()), !dbg !3471
  call void @_ZN5sse_fC2Ev(ptr noundef nonnull align 4 dereferenceable(16) %503), !dbg !3471
  call void @llvm.memcpy.p0.p0.i64(ptr align 4 %503, ptr align 4 %502, i64 16, i1 false), !dbg !3472
  call void @llvm.dbg.declare(metadata ptr %504, metadata !3473, metadata !DIExpression()), !dbg !3475
  store i32 0, ptr %504, align 4, !dbg !3475
  br label %1685, !dbg !3476

1685:                                             ; preds = %1688, %1672
  %1686 = load i32, ptr %504, align 4, !dbg !3477
  %1687 = icmp slt i32 %1686, 4, !dbg !3479
  br i1 %1687, label %1688, label %1701, !dbg !3480

1688:                                             ; preds = %1685
  %1689 = load i32, ptr %504, align 4, !dbg !3481
  %1690 = sext i32 %1689 to i64, !dbg !3481
  %1691 = getelementptr inbounds [4 x float], ptr %503, i64 0, i64 %1690, !dbg !3481
  %1692 = load float, ptr %1691, align 4, !dbg !3481
  %1693 = fpext float %1692 to double, !dbg !3481
  store double %1693, ptr %491, align 8
  call void @llvm.dbg.declare(metadata ptr %491, metadata !3482, metadata !DIExpression()), !dbg !3484
  %1694 = load double, ptr %491, align 8, !dbg !3486
  %1695 = fptosi double %1694 to i32, !dbg !3486
  %1696 = load i32, ptr %504, align 4, !dbg !3487
  %1697 = sext i32 %1696 to i64, !dbg !3488
  %1698 = getelementptr inbounds [4 x i32], ptr %501, i64 0, i64 %1697, !dbg !3488
  store i32 %1695, ptr %1698, align 4, !dbg !3489
  %1699 = load i32, ptr %504, align 4, !dbg !3490
  %1700 = add nsw i32 %1699, 1, !dbg !3490
  store i32 %1700, ptr %504, align 4, !dbg !3490
  br label %1685, !dbg !3491, !llvm.loop !3492

1701:                                             ; preds = %1685
  %1702 = load { i64, i64 }, ptr %501, align 4, !dbg !3494
  %1703 = extractvalue { i64, i64 } %1702, 0, !dbg !3461
  store i64 %1703, ptr %574, align 4, !dbg !3461
  %1704 = getelementptr inbounds { i64, i64 }, ptr %574, i32 0, i32 1, !dbg !3461
  %1705 = extractvalue { i64, i64 } %1702, 1, !dbg !3461
  store i64 %1705, ptr %1704, align 4, !dbg !3461
  call void @llvm.dbg.declare(metadata ptr %580, metadata !3495, metadata !DIExpression()), !dbg !3496
  %1706 = load i32, ptr %574, align 4, !dbg !3497
  store i32 %1706, ptr %580, align 4, !dbg !3496
  call void @llvm.dbg.declare(metadata ptr %581, metadata !3498, metadata !DIExpression()), !dbg !3499
  %1707 = getelementptr inbounds i32, ptr %574, i64 1, !dbg !3500
  %1708 = load i32, ptr %1707, align 4, !dbg !3500
  store i32 %1708, ptr %581, align 4, !dbg !3499
  call void @llvm.dbg.declare(metadata ptr %582, metadata !3501, metadata !DIExpression()), !dbg !3502
  %1709 = getelementptr inbounds i32, ptr %574, i64 2, !dbg !3503
  %1710 = load i32, ptr %1709, align 4, !dbg !3503
  store i32 %1710, ptr %582, align 4, !dbg !3502
  call void @llvm.dbg.declare(metadata ptr %583, metadata !3504, metadata !DIExpression()), !dbg !3505
  %1711 = load ptr, ptr %571, align 8, !dbg !3506
  call void @_ZNK4RTTL16CentroidDiffAABB7convertEv(ptr sret(%"class.RTTL::AABB") align 4 %583, ptr noundef nonnull align 4 dereferenceable(32) %1711), !dbg !3507
  %1712 = load i32, ptr %580, align 4, !dbg !3508
  %1713 = sext i32 %1712 to i64, !dbg !3509
  %1714 = getelementptr inbounds [32 x %"class.RTTL::AABB"], ptr @_ZN4RTTL15OnDemandBuilder9binBoundsE, i64 0, i64 %1713, !dbg !3509
  store ptr %1714, ptr %564, align 8
  call void @llvm.dbg.declare(metadata ptr %564, metadata !1978, metadata !DIExpression()), !dbg !3510
  store ptr %583, ptr %565, align 8
  call void @llvm.dbg.declare(metadata ptr %565, metadata !1983, metadata !DIExpression()), !dbg !3512
  %1715 = load ptr, ptr %564, align 8
  %1716 = load ptr, ptr %565, align 8, !dbg !3513
  store ptr %1715, ptr %336, align 8
  call void @llvm.dbg.declare(metadata ptr %336, metadata !1986, metadata !DIExpression()), !dbg !3514
  store ptr %1716, ptr %337, align 8
  call void @llvm.dbg.declare(metadata ptr %337, metadata !1991, metadata !DIExpression()), !dbg !3516
  %1717 = load ptr, ptr %336, align 8
  call void @llvm.dbg.declare(metadata ptr %338, metadata !1993, metadata !DIExpression()), !dbg !3517
  %1718 = call noundef nonnull align 4 dereferenceable(16) ptr @_ZN4RTTL7RTVec_tILi1E5sse_fLi0EEcvRNS_8RTData_tILi1ES1_Li0EEEEv(ptr noundef nonnull align 4 dereferenceable(16) %1717), !dbg !3518
  store ptr %1718, ptr %338, align 8, !dbg !3517
  call void @llvm.dbg.declare(metadata ptr %339, metadata !1996, metadata !DIExpression()), !dbg !3519
  store i32 0, ptr %339, align 4, !dbg !3519
  br label %1719, !dbg !3520

1719:                                             ; preds = %1781, %1701
  %1720 = load i32, ptr %339, align 4, !dbg !3521
  %1721 = icmp slt i32 %1720, 1, !dbg !3522
  br i1 %1721, label %1722, label %1798, !dbg !3523

1722:                                             ; preds = %1719
  %1723 = load ptr, ptr %338, align 8, !dbg !3524
  %1724 = load i32, ptr %339, align 4, !dbg !3525
  store ptr %1723, ptr %332, align 8
  call void @llvm.dbg.declare(metadata ptr %332, metadata !2006, metadata !DIExpression()), !dbg !3526
  store i32 %1724, ptr %333, align 4
  call void @llvm.dbg.declare(metadata ptr %333, metadata !2011, metadata !DIExpression()), !dbg !3528
  %1725 = load ptr, ptr %332, align 8
  %1726 = load i32, ptr %333, align 4, !dbg !3529
  %1727 = sext i32 %1726 to i64, !dbg !3530
  %1728 = getelementptr inbounds [1 x %struct.sse_f], ptr %1725, i64 0, i64 %1727, !dbg !3530
  call void @llvm.memcpy.p0.p0.i64(ptr align 4 %341, ptr align 4 %1728, i64 16, i1 false), !dbg !3524
  %1729 = load ptr, ptr %337, align 8, !dbg !3531
  %1730 = load i32, ptr %339, align 4, !dbg !3532
  %1731 = call { <2 x float>, <2 x float> } @_ZNK4RTTL7RTVec_tILi1E5sse_fLi0EEixEi(ptr noundef nonnull align 4 dereferenceable(16) %1729, i32 noundef %1730), !dbg !3531
  %1732 = extractvalue { <2 x float>, <2 x float> } %1731, 0, !dbg !3531
  store <2 x float> %1732, ptr %342, align 4, !dbg !3531
  %1733 = getelementptr inbounds { <2 x float>, <2 x float> }, ptr %342, i32 0, i32 1, !dbg !3531
  %1734 = extractvalue { <2 x float>, <2 x float> } %1731, 1, !dbg !3531
  store <2 x float> %1734, ptr %1733, align 4, !dbg !3531
  %1735 = load <2 x float>, ptr %341, align 4, !dbg !3533
  %1736 = getelementptr inbounds { <2 x float>, <2 x float> }, ptr %341, i32 0, i32 1, !dbg !3533
  %1737 = load <2 x float>, ptr %1736, align 4, !dbg !3533
  %1738 = load <2 x float>, ptr %342, align 4, !dbg !3533
  %1739 = getelementptr inbounds { <2 x float>, <2 x float> }, ptr %342, i32 0, i32 1, !dbg !3533
  %1740 = load <2 x float>, ptr %1739, align 4, !dbg !3533
  store <2 x float> %1735, ptr %241, align 4
  %1741 = getelementptr inbounds { <2 x float>, <2 x float> }, ptr %241, i32 0, i32 1
  store <2 x float> %1737, ptr %1741, align 4
  store <2 x float> %1738, ptr %242, align 4
  %1742 = getelementptr inbounds { <2 x float>, <2 x float> }, ptr %242, i32 0, i32 1
  store <2 x float> %1740, ptr %1742, align 4
  call void @llvm.dbg.declare(metadata ptr %241, metadata !2018, metadata !DIExpression()), !dbg !3534
  call void @llvm.dbg.declare(metadata ptr %242, metadata !2024, metadata !DIExpression()), !dbg !3536
  call void @llvm.memcpy.p0.p0.i64(ptr align 4 %243, ptr align 4 %241, i64 16, i1 false), !dbg !3537
  call void @llvm.memcpy.p0.p0.i64(ptr align 4 %244, ptr align 4 %242, i64 16, i1 false), !dbg !3538
  %1743 = load <2 x float>, ptr %243, align 4, !dbg !3539
  %1744 = getelementptr inbounds { <2 x float>, <2 x float> }, ptr %243, i32 0, i32 1, !dbg !3539
  %1745 = load <2 x float>, ptr %1744, align 4, !dbg !3539
  %1746 = load <2 x float>, ptr %244, align 4, !dbg !3539
  %1747 = getelementptr inbounds { <2 x float>, <2 x float> }, ptr %244, i32 0, i32 1, !dbg !3539
  %1748 = load <2 x float>, ptr %1747, align 4, !dbg !3539
  store <2 x float> %1743, ptr %219, align 4
  %1749 = getelementptr inbounds { <2 x float>, <2 x float> }, ptr %219, i32 0, i32 1
  store <2 x float> %1745, ptr %1749, align 4
  store <2 x float> %1746, ptr %220, align 4
  %1750 = getelementptr inbounds { <2 x float>, <2 x float> }, ptr %220, i32 0, i32 1
  store <2 x float> %1748, ptr %1750, align 4
  call void @llvm.dbg.declare(metadata ptr %219, metadata !2029, metadata !DIExpression()), !dbg !3540
  call void @llvm.dbg.declare(metadata ptr %220, metadata !2033, metadata !DIExpression()), !dbg !3542
  call void @llvm.dbg.declare(metadata ptr %218, metadata !2035, metadata !DIExpression()), !dbg !3543
  call void @_ZN5sse_fC2Ev(ptr noundef nonnull align 4 dereferenceable(16) %218), !dbg !3543
  call void @llvm.dbg.declare(metadata ptr %221, metadata !2037, metadata !DIExpression()), !dbg !3544
  store i32 0, ptr %221, align 4, !dbg !3544
  br label %1751, !dbg !3545

1751:                                             ; preds = %1774, %1722
  %1752 = load i32, ptr %221, align 4, !dbg !3546
  %1753 = icmp slt i32 %1752, 4, !dbg !3547
  br i1 %1753, label %1754, label %1781, !dbg !3548

1754:                                             ; preds = %1751
  %1755 = load i32, ptr %221, align 4, !dbg !3549
  %1756 = sext i32 %1755 to i64, !dbg !3549
  %1757 = getelementptr inbounds [4 x float], ptr %219, i64 0, i64 %1756, !dbg !3549
  %1758 = load float, ptr %1757, align 4, !dbg !3549
  %1759 = load i32, ptr %221, align 4, !dbg !3549
  %1760 = sext i32 %1759 to i64, !dbg !3549
  %1761 = getelementptr inbounds [4 x float], ptr %220, i64 0, i64 %1760, !dbg !3549
  %1762 = load float, ptr %1761, align 4, !dbg !3549
  %1763 = fcmp olt float %1758, %1762, !dbg !3549
  br i1 %1763, label %1764, label %1769, !dbg !3549

1764:                                             ; preds = %1754
  %1765 = load i32, ptr %221, align 4, !dbg !3549
  %1766 = sext i32 %1765 to i64, !dbg !3549
  %1767 = getelementptr inbounds [4 x float], ptr %219, i64 0, i64 %1766, !dbg !3549
  %1768 = load float, ptr %1767, align 4, !dbg !3549
  br label %1774, !dbg !3549

1769:                                             ; preds = %1754
  %1770 = load i32, ptr %221, align 4, !dbg !3549
  %1771 = sext i32 %1770 to i64, !dbg !3549
  %1772 = getelementptr inbounds [4 x float], ptr %220, i64 0, i64 %1771, !dbg !3549
  %1773 = load float, ptr %1772, align 4, !dbg !3549
  br label %1774, !dbg !3549

1774:                                             ; preds = %1769, %1764
  %1775 = phi float [ %1768, %1764 ], [ %1773, %1769 ], !dbg !3549
  %1776 = load i32, ptr %221, align 4, !dbg !3550
  %1777 = sext i32 %1776 to i64, !dbg !3550
  %1778 = getelementptr inbounds [4 x float], ptr %218, i64 0, i64 %1777, !dbg !3550
  store float %1775, ptr %1778, align 4, !dbg !3551
  %1779 = load i32, ptr %221, align 4, !dbg !3552
  %1780 = add nsw i32 %1779, 1, !dbg !3552
  store i32 %1780, ptr %221, align 4, !dbg !3552
  br label %1751, !dbg !3553, !llvm.loop !3554

1781:                                             ; preds = %1751
  %1782 = load { <2 x float>, <2 x float> }, ptr %218, align 4, !dbg !3556
  %1783 = extractvalue { <2 x float>, <2 x float> } %1782, 0, !dbg !3539
  store <2 x float> %1783, ptr %240, align 4, !dbg !3539
  %1784 = getelementptr inbounds { <2 x float>, <2 x float> }, ptr %240, i32 0, i32 1, !dbg !3539
  %1785 = extractvalue { <2 x float>, <2 x float> } %1782, 1, !dbg !3539
  store <2 x float> %1785, ptr %1784, align 4, !dbg !3539
  %1786 = load { <2 x float>, <2 x float> }, ptr %240, align 4, !dbg !3557
  %1787 = extractvalue { <2 x float>, <2 x float> } %1786, 0, !dbg !3533
  store <2 x float> %1787, ptr %340, align 4, !dbg !3533
  %1788 = getelementptr inbounds { <2 x float>, <2 x float> }, ptr %340, i32 0, i32 1, !dbg !3533
  %1789 = extractvalue { <2 x float>, <2 x float> } %1786, 1, !dbg !3533
  store <2 x float> %1789, ptr %1788, align 4, !dbg !3533
  %1790 = load ptr, ptr %338, align 8, !dbg !3558
  %1791 = load i32, ptr %339, align 4, !dbg !3559
  store ptr %1790, ptr %334, align 8
  call void @llvm.dbg.declare(metadata ptr %334, metadata !2006, metadata !DIExpression()), !dbg !3560
  store i32 %1791, ptr %335, align 4
  call void @llvm.dbg.declare(metadata ptr %335, metadata !2011, metadata !DIExpression()), !dbg !3562
  %1792 = load ptr, ptr %334, align 8
  %1793 = load i32, ptr %335, align 4, !dbg !3563
  %1794 = sext i32 %1793 to i64, !dbg !3564
  %1795 = getelementptr inbounds [1 x %struct.sse_f], ptr %1792, i64 0, i64 %1794, !dbg !3564
  call void @llvm.memcpy.p0.p0.i64(ptr align 4 %1795, ptr align 4 %340, i64 16, i1 false), !dbg !3565
  %1796 = load i32, ptr %339, align 4, !dbg !3566
  %1797 = add nsw i32 %1796, 1, !dbg !3566
  store i32 %1797, ptr %339, align 4, !dbg !3566
  br label %1719, !dbg !3567, !llvm.loop !3568

1798:                                             ; preds = %1719
  %1799 = getelementptr inbounds %"class.RTTL::RTBox_t", ptr %1715, i32 0, i32 1, !dbg !3570
  %1800 = load ptr, ptr %565, align 8, !dbg !3571
  %1801 = getelementptr inbounds %"class.RTTL::RTBox_t", ptr %1800, i32 0, i32 1, !dbg !3572
  store ptr %1799, ptr %281, align 8
  call void @llvm.dbg.declare(metadata ptr %281, metadata !2069, metadata !DIExpression()), !dbg !3573
  store ptr %1801, ptr %282, align 8
  call void @llvm.dbg.declare(metadata ptr %282, metadata !2073, metadata !DIExpression()), !dbg !3575
  %1802 = load ptr, ptr %281, align 8
  call void @llvm.dbg.declare(metadata ptr %283, metadata !2075, metadata !DIExpression()), !dbg !3576
  %1803 = call noundef nonnull align 4 dereferenceable(16) ptr @_ZN4RTTL7RTVec_tILi1E5sse_fLi0EEcvRNS_8RTData_tILi1ES1_Li0EEEEv(ptr noundef nonnull align 4 dereferenceable(16) %1802), !dbg !3577
  store ptr %1803, ptr %283, align 8, !dbg !3576
  call void @llvm.dbg.declare(metadata ptr %284, metadata !2078, metadata !DIExpression()), !dbg !3578
  store i32 0, ptr %284, align 4, !dbg !3578
  br label %1804, !dbg !3579

1804:                                             ; preds = %1866, %1798
  %1805 = load i32, ptr %284, align 4, !dbg !3580
  %1806 = icmp slt i32 %1805, 1, !dbg !3581
  br i1 %1806, label %1807, label %1883, !dbg !3582

1807:                                             ; preds = %1804
  %1808 = load ptr, ptr %283, align 8, !dbg !3583
  %1809 = load i32, ptr %284, align 4, !dbg !3584
  store ptr %1808, ptr %277, align 8
  call void @llvm.dbg.declare(metadata ptr %277, metadata !2006, metadata !DIExpression()), !dbg !3585
  store i32 %1809, ptr %278, align 4
  call void @llvm.dbg.declare(metadata ptr %278, metadata !2011, metadata !DIExpression()), !dbg !3587
  %1810 = load ptr, ptr %277, align 8
  %1811 = load i32, ptr %278, align 4, !dbg !3588
  %1812 = sext i32 %1811 to i64, !dbg !3589
  %1813 = getelementptr inbounds [1 x %struct.sse_f], ptr %1810, i64 0, i64 %1812, !dbg !3589
  call void @llvm.memcpy.p0.p0.i64(ptr align 4 %286, ptr align 4 %1813, i64 16, i1 false), !dbg !3583
  %1814 = load ptr, ptr %282, align 8, !dbg !3590
  %1815 = load i32, ptr %284, align 4, !dbg !3591
  %1816 = call { <2 x float>, <2 x float> } @_ZNK4RTTL7RTVec_tILi1E5sse_fLi0EEixEi(ptr noundef nonnull align 4 dereferenceable(16) %1814, i32 noundef %1815), !dbg !3590
  %1817 = extractvalue { <2 x float>, <2 x float> } %1816, 0, !dbg !3590
  store <2 x float> %1817, ptr %287, align 4, !dbg !3590
  %1818 = getelementptr inbounds { <2 x float>, <2 x float> }, ptr %287, i32 0, i32 1, !dbg !3590
  %1819 = extractvalue { <2 x float>, <2 x float> } %1816, 1, !dbg !3590
  store <2 x float> %1819, ptr %1818, align 4, !dbg !3590
  %1820 = load <2 x float>, ptr %286, align 4, !dbg !3592
  %1821 = getelementptr inbounds { <2 x float>, <2 x float> }, ptr %286, i32 0, i32 1, !dbg !3592
  %1822 = load <2 x float>, ptr %1821, align 4, !dbg !3592
  %1823 = load <2 x float>, ptr %287, align 4, !dbg !3592
  %1824 = getelementptr inbounds { <2 x float>, <2 x float> }, ptr %287, i32 0, i32 1, !dbg !3592
  %1825 = load <2 x float>, ptr %1824, align 4, !dbg !3592
  store <2 x float> %1820, ptr %196, align 4
  %1826 = getelementptr inbounds { <2 x float>, <2 x float> }, ptr %196, i32 0, i32 1
  store <2 x float> %1822, ptr %1826, align 4
  store <2 x float> %1823, ptr %197, align 4
  %1827 = getelementptr inbounds { <2 x float>, <2 x float> }, ptr %197, i32 0, i32 1
  store <2 x float> %1825, ptr %1827, align 4
  call void @llvm.dbg.declare(metadata ptr %196, metadata !2096, metadata !DIExpression()), !dbg !3593
  call void @llvm.dbg.declare(metadata ptr %197, metadata !2100, metadata !DIExpression()), !dbg !3595
  call void @llvm.memcpy.p0.p0.i64(ptr align 4 %198, ptr align 4 %196, i64 16, i1 false), !dbg !3596
  call void @llvm.memcpy.p0.p0.i64(ptr align 4 %199, ptr align 4 %197, i64 16, i1 false), !dbg !3597
  %1828 = load <2 x float>, ptr %198, align 4, !dbg !3598
  %1829 = getelementptr inbounds { <2 x float>, <2 x float> }, ptr %198, i32 0, i32 1, !dbg !3598
  %1830 = load <2 x float>, ptr %1829, align 4, !dbg !3598
  %1831 = load <2 x float>, ptr %199, align 4, !dbg !3598
  %1832 = getelementptr inbounds { <2 x float>, <2 x float> }, ptr %199, i32 0, i32 1, !dbg !3598
  %1833 = load <2 x float>, ptr %1832, align 4, !dbg !3598
  store <2 x float> %1828, ptr %174, align 4
  %1834 = getelementptr inbounds { <2 x float>, <2 x float> }, ptr %174, i32 0, i32 1
  store <2 x float> %1830, ptr %1834, align 4
  store <2 x float> %1831, ptr %175, align 4
  %1835 = getelementptr inbounds { <2 x float>, <2 x float> }, ptr %175, i32 0, i32 1
  store <2 x float> %1833, ptr %1835, align 4
  call void @llvm.dbg.declare(metadata ptr %174, metadata !2105, metadata !DIExpression()), !dbg !3599
  call void @llvm.dbg.declare(metadata ptr %175, metadata !2109, metadata !DIExpression()), !dbg !3601
  call void @llvm.dbg.declare(metadata ptr %173, metadata !2111, metadata !DIExpression()), !dbg !3602
  call void @_ZN5sse_fC2Ev(ptr noundef nonnull align 4 dereferenceable(16) %173), !dbg !3602
  call void @llvm.dbg.declare(metadata ptr %176, metadata !2113, metadata !DIExpression()), !dbg !3603
  store i32 0, ptr %176, align 4, !dbg !3603
  br label %1836, !dbg !3604

1836:                                             ; preds = %1859, %1807
  %1837 = load i32, ptr %176, align 4, !dbg !3605
  %1838 = icmp slt i32 %1837, 4, !dbg !3606
  br i1 %1838, label %1839, label %1866, !dbg !3607

1839:                                             ; preds = %1836
  %1840 = load i32, ptr %176, align 4, !dbg !3608
  %1841 = sext i32 %1840 to i64, !dbg !3608
  %1842 = getelementptr inbounds [4 x float], ptr %174, i64 0, i64 %1841, !dbg !3608
  %1843 = load float, ptr %1842, align 4, !dbg !3608
  %1844 = load i32, ptr %176, align 4, !dbg !3608
  %1845 = sext i32 %1844 to i64, !dbg !3608
  %1846 = getelementptr inbounds [4 x float], ptr %175, i64 0, i64 %1845, !dbg !3608
  %1847 = load float, ptr %1846, align 4, !dbg !3608
  %1848 = fcmp ogt float %1843, %1847, !dbg !3608
  br i1 %1848, label %1849, label %1854, !dbg !3608

1849:                                             ; preds = %1839
  %1850 = load i32, ptr %176, align 4, !dbg !3608
  %1851 = sext i32 %1850 to i64, !dbg !3608
  %1852 = getelementptr inbounds [4 x float], ptr %174, i64 0, i64 %1851, !dbg !3608
  %1853 = load float, ptr %1852, align 4, !dbg !3608
  br label %1859, !dbg !3608

1854:                                             ; preds = %1839
  %1855 = load i32, ptr %176, align 4, !dbg !3608
  %1856 = sext i32 %1855 to i64, !dbg !3608
  %1857 = getelementptr inbounds [4 x float], ptr %175, i64 0, i64 %1856, !dbg !3608
  %1858 = load float, ptr %1857, align 4, !dbg !3608
  br label %1859, !dbg !3608

1859:                                             ; preds = %1854, %1849
  %1860 = phi float [ %1853, %1849 ], [ %1858, %1854 ], !dbg !3608
  %1861 = load i32, ptr %176, align 4, !dbg !3609
  %1862 = sext i32 %1861 to i64, !dbg !3609
  %1863 = getelementptr inbounds [4 x float], ptr %173, i64 0, i64 %1862, !dbg !3609
  store float %1860, ptr %1863, align 4, !dbg !3610
  %1864 = load i32, ptr %176, align 4, !dbg !3611
  %1865 = add nsw i32 %1864, 1, !dbg !3611
  store i32 %1865, ptr %176, align 4, !dbg !3611
  br label %1836, !dbg !3612, !llvm.loop !3613

1866:                                             ; preds = %1836
  %1867 = load { <2 x float>, <2 x float> }, ptr %173, align 4, !dbg !3615
  %1868 = extractvalue { <2 x float>, <2 x float> } %1867, 0, !dbg !3598
  store <2 x float> %1868, ptr %195, align 4, !dbg !3598
  %1869 = getelementptr inbounds { <2 x float>, <2 x float> }, ptr %195, i32 0, i32 1, !dbg !3598
  %1870 = extractvalue { <2 x float>, <2 x float> } %1867, 1, !dbg !3598
  store <2 x float> %1870, ptr %1869, align 4, !dbg !3598
  %1871 = load { <2 x float>, <2 x float> }, ptr %195, align 4, !dbg !3616
  %1872 = extractvalue { <2 x float>, <2 x float> } %1871, 0, !dbg !3592
  store <2 x float> %1872, ptr %285, align 4, !dbg !3592
  %1873 = getelementptr inbounds { <2 x float>, <2 x float> }, ptr %285, i32 0, i32 1, !dbg !3592
  %1874 = extractvalue { <2 x float>, <2 x float> } %1871, 1, !dbg !3592
  store <2 x float> %1874, ptr %1873, align 4, !dbg !3592
  %1875 = load ptr, ptr %283, align 8, !dbg !3617
  %1876 = load i32, ptr %284, align 4, !dbg !3618
  store ptr %1875, ptr %279, align 8
  call void @llvm.dbg.declare(metadata ptr %279, metadata !2006, metadata !DIExpression()), !dbg !3619
  store i32 %1876, ptr %280, align 4
  call void @llvm.dbg.declare(metadata ptr %280, metadata !2011, metadata !DIExpression()), !dbg !3621
  %1877 = load ptr, ptr %279, align 8
  %1878 = load i32, ptr %280, align 4, !dbg !3622
  %1879 = sext i32 %1878 to i64, !dbg !3623
  %1880 = getelementptr inbounds [1 x %struct.sse_f], ptr %1877, i64 0, i64 %1879, !dbg !3623
  call void @llvm.memcpy.p0.p0.i64(ptr align 4 %1880, ptr align 4 %285, i64 16, i1 false), !dbg !3624
  %1881 = load i32, ptr %284, align 4, !dbg !3625
  %1882 = add nsw i32 %1881, 1, !dbg !3625
  store i32 %1882, ptr %284, align 4, !dbg !3625
  br label %1804, !dbg !3626, !llvm.loop !3627

1883:                                             ; preds = %1804
  %1884 = load i32, ptr %581, align 4, !dbg !3629
  %1885 = sext i32 %1884 to i64, !dbg !3630
  %1886 = getelementptr inbounds [32 x %"class.RTTL::AABB"], ptr getelementptr inbounds ([3 x [32 x %"class.RTTL::AABB"]], ptr @_ZN4RTTL15OnDemandBuilder9binBoundsE, i64 0, i64 1), i64 0, i64 %1885, !dbg !3630
  store ptr %1886, ptr %566, align 8
  call void @llvm.dbg.declare(metadata ptr %566, metadata !1978, metadata !DIExpression()), !dbg !3631
  store ptr %583, ptr %567, align 8
  call void @llvm.dbg.declare(metadata ptr %567, metadata !1983, metadata !DIExpression()), !dbg !3633
  %1887 = load ptr, ptr %566, align 8
  %1888 = load ptr, ptr %567, align 8, !dbg !3634
  store ptr %1887, ptr %347, align 8
  call void @llvm.dbg.declare(metadata ptr %347, metadata !1986, metadata !DIExpression()), !dbg !3635
  store ptr %1888, ptr %348, align 8
  call void @llvm.dbg.declare(metadata ptr %348, metadata !1991, metadata !DIExpression()), !dbg !3637
  %1889 = load ptr, ptr %347, align 8
  call void @llvm.dbg.declare(metadata ptr %349, metadata !1993, metadata !DIExpression()), !dbg !3638
  %1890 = call noundef nonnull align 4 dereferenceable(16) ptr @_ZN4RTTL7RTVec_tILi1E5sse_fLi0EEcvRNS_8RTData_tILi1ES1_Li0EEEEv(ptr noundef nonnull align 4 dereferenceable(16) %1889), !dbg !3639
  store ptr %1890, ptr %349, align 8, !dbg !3638
  call void @llvm.dbg.declare(metadata ptr %350, metadata !1996, metadata !DIExpression()), !dbg !3640
  store i32 0, ptr %350, align 4, !dbg !3640
  br label %1891, !dbg !3641

1891:                                             ; preds = %1953, %1883
  %1892 = load i32, ptr %350, align 4, !dbg !3642
  %1893 = icmp slt i32 %1892, 1, !dbg !3643
  br i1 %1893, label %1894, label %1970, !dbg !3644

1894:                                             ; preds = %1891
  %1895 = load ptr, ptr %349, align 8, !dbg !3645
  %1896 = load i32, ptr %350, align 4, !dbg !3646
  store ptr %1895, ptr %343, align 8
  call void @llvm.dbg.declare(metadata ptr %343, metadata !2006, metadata !DIExpression()), !dbg !3647
  store i32 %1896, ptr %344, align 4
  call void @llvm.dbg.declare(metadata ptr %344, metadata !2011, metadata !DIExpression()), !dbg !3649
  %1897 = load ptr, ptr %343, align 8
  %1898 = load i32, ptr %344, align 4, !dbg !3650
  %1899 = sext i32 %1898 to i64, !dbg !3651
  %1900 = getelementptr inbounds [1 x %struct.sse_f], ptr %1897, i64 0, i64 %1899, !dbg !3651
  call void @llvm.memcpy.p0.p0.i64(ptr align 4 %352, ptr align 4 %1900, i64 16, i1 false), !dbg !3645
  %1901 = load ptr, ptr %348, align 8, !dbg !3652
  %1902 = load i32, ptr %350, align 4, !dbg !3653
  %1903 = call { <2 x float>, <2 x float> } @_ZNK4RTTL7RTVec_tILi1E5sse_fLi0EEixEi(ptr noundef nonnull align 4 dereferenceable(16) %1901, i32 noundef %1902), !dbg !3652
  %1904 = extractvalue { <2 x float>, <2 x float> } %1903, 0, !dbg !3652
  store <2 x float> %1904, ptr %353, align 4, !dbg !3652
  %1905 = getelementptr inbounds { <2 x float>, <2 x float> }, ptr %353, i32 0, i32 1, !dbg !3652
  %1906 = extractvalue { <2 x float>, <2 x float> } %1903, 1, !dbg !3652
  store <2 x float> %1906, ptr %1905, align 4, !dbg !3652
  %1907 = load <2 x float>, ptr %352, align 4, !dbg !3654
  %1908 = getelementptr inbounds { <2 x float>, <2 x float> }, ptr %352, i32 0, i32 1, !dbg !3654
  %1909 = load <2 x float>, ptr %1908, align 4, !dbg !3654
  %1910 = load <2 x float>, ptr %353, align 4, !dbg !3654
  %1911 = getelementptr inbounds { <2 x float>, <2 x float> }, ptr %353, i32 0, i32 1, !dbg !3654
  %1912 = load <2 x float>, ptr %1911, align 4, !dbg !3654
  store <2 x float> %1907, ptr %236, align 4
  %1913 = getelementptr inbounds { <2 x float>, <2 x float> }, ptr %236, i32 0, i32 1
  store <2 x float> %1909, ptr %1913, align 4
  store <2 x float> %1910, ptr %237, align 4
  %1914 = getelementptr inbounds { <2 x float>, <2 x float> }, ptr %237, i32 0, i32 1
  store <2 x float> %1912, ptr %1914, align 4
  call void @llvm.dbg.declare(metadata ptr %236, metadata !2018, metadata !DIExpression()), !dbg !3655
  call void @llvm.dbg.declare(metadata ptr %237, metadata !2024, metadata !DIExpression()), !dbg !3657
  call void @llvm.memcpy.p0.p0.i64(ptr align 4 %238, ptr align 4 %236, i64 16, i1 false), !dbg !3658
  call void @llvm.memcpy.p0.p0.i64(ptr align 4 %239, ptr align 4 %237, i64 16, i1 false), !dbg !3659
  %1915 = load <2 x float>, ptr %238, align 4, !dbg !3660
  %1916 = getelementptr inbounds { <2 x float>, <2 x float> }, ptr %238, i32 0, i32 1, !dbg !3660
  %1917 = load <2 x float>, ptr %1916, align 4, !dbg !3660
  %1918 = load <2 x float>, ptr %239, align 4, !dbg !3660
  %1919 = getelementptr inbounds { <2 x float>, <2 x float> }, ptr %239, i32 0, i32 1, !dbg !3660
  %1920 = load <2 x float>, ptr %1919, align 4, !dbg !3660
  store <2 x float> %1915, ptr %223, align 4
  %1921 = getelementptr inbounds { <2 x float>, <2 x float> }, ptr %223, i32 0, i32 1
  store <2 x float> %1917, ptr %1921, align 4
  store <2 x float> %1918, ptr %224, align 4
  %1922 = getelementptr inbounds { <2 x float>, <2 x float> }, ptr %224, i32 0, i32 1
  store <2 x float> %1920, ptr %1922, align 4
  call void @llvm.dbg.declare(metadata ptr %223, metadata !2029, metadata !DIExpression()), !dbg !3661
  call void @llvm.dbg.declare(metadata ptr %224, metadata !2033, metadata !DIExpression()), !dbg !3663
  call void @llvm.dbg.declare(metadata ptr %222, metadata !2035, metadata !DIExpression()), !dbg !3664
  call void @_ZN5sse_fC2Ev(ptr noundef nonnull align 4 dereferenceable(16) %222), !dbg !3664
  call void @llvm.dbg.declare(metadata ptr %225, metadata !2037, metadata !DIExpression()), !dbg !3665
  store i32 0, ptr %225, align 4, !dbg !3665
  br label %1923, !dbg !3666

1923:                                             ; preds = %1946, %1894
  %1924 = load i32, ptr %225, align 4, !dbg !3667
  %1925 = icmp slt i32 %1924, 4, !dbg !3668
  br i1 %1925, label %1926, label %1953, !dbg !3669

1926:                                             ; preds = %1923
  %1927 = load i32, ptr %225, align 4, !dbg !3670
  %1928 = sext i32 %1927 to i64, !dbg !3670
  %1929 = getelementptr inbounds [4 x float], ptr %223, i64 0, i64 %1928, !dbg !3670
  %1930 = load float, ptr %1929, align 4, !dbg !3670
  %1931 = load i32, ptr %225, align 4, !dbg !3670
  %1932 = sext i32 %1931 to i64, !dbg !3670
  %1933 = getelementptr inbounds [4 x float], ptr %224, i64 0, i64 %1932, !dbg !3670
  %1934 = load float, ptr %1933, align 4, !dbg !3670
  %1935 = fcmp olt float %1930, %1934, !dbg !3670
  br i1 %1935, label %1936, label %1941, !dbg !3670

1936:                                             ; preds = %1926
  %1937 = load i32, ptr %225, align 4, !dbg !3670
  %1938 = sext i32 %1937 to i64, !dbg !3670
  %1939 = getelementptr inbounds [4 x float], ptr %223, i64 0, i64 %1938, !dbg !3670
  %1940 = load float, ptr %1939, align 4, !dbg !3670
  br label %1946, !dbg !3670

1941:                                             ; preds = %1926
  %1942 = load i32, ptr %225, align 4, !dbg !3670
  %1943 = sext i32 %1942 to i64, !dbg !3670
  %1944 = getelementptr inbounds [4 x float], ptr %224, i64 0, i64 %1943, !dbg !3670
  %1945 = load float, ptr %1944, align 4, !dbg !3670
  br label %1946, !dbg !3670

1946:                                             ; preds = %1941, %1936
  %1947 = phi float [ %1940, %1936 ], [ %1945, %1941 ], !dbg !3670
  %1948 = load i32, ptr %225, align 4, !dbg !3671
  %1949 = sext i32 %1948 to i64, !dbg !3671
  %1950 = getelementptr inbounds [4 x float], ptr %222, i64 0, i64 %1949, !dbg !3671
  store float %1947, ptr %1950, align 4, !dbg !3672
  %1951 = load i32, ptr %225, align 4, !dbg !3673
  %1952 = add nsw i32 %1951, 1, !dbg !3673
  store i32 %1952, ptr %225, align 4, !dbg !3673
  br label %1923, !dbg !3674, !llvm.loop !3675

1953:                                             ; preds = %1923
  %1954 = load { <2 x float>, <2 x float> }, ptr %222, align 4, !dbg !3677
  %1955 = extractvalue { <2 x float>, <2 x float> } %1954, 0, !dbg !3660
  store <2 x float> %1955, ptr %235, align 4, !dbg !3660
  %1956 = getelementptr inbounds { <2 x float>, <2 x float> }, ptr %235, i32 0, i32 1, !dbg !3660
  %1957 = extractvalue { <2 x float>, <2 x float> } %1954, 1, !dbg !3660
  store <2 x float> %1957, ptr %1956, align 4, !dbg !3660
  %1958 = load { <2 x float>, <2 x float> }, ptr %235, align 4, !dbg !3678
  %1959 = extractvalue { <2 x float>, <2 x float> } %1958, 0, !dbg !3654
  store <2 x float> %1959, ptr %351, align 4, !dbg !3654
  %1960 = getelementptr inbounds { <2 x float>, <2 x float> }, ptr %351, i32 0, i32 1, !dbg !3654
  %1961 = extractvalue { <2 x float>, <2 x float> } %1958, 1, !dbg !3654
  store <2 x float> %1961, ptr %1960, align 4, !dbg !3654
  %1962 = load ptr, ptr %349, align 8, !dbg !3679
  %1963 = load i32, ptr %350, align 4, !dbg !3680
  store ptr %1962, ptr %345, align 8
  call void @llvm.dbg.declare(metadata ptr %345, metadata !2006, metadata !DIExpression()), !dbg !3681
  store i32 %1963, ptr %346, align 4
  call void @llvm.dbg.declare(metadata ptr %346, metadata !2011, metadata !DIExpression()), !dbg !3683
  %1964 = load ptr, ptr %345, align 8
  %1965 = load i32, ptr %346, align 4, !dbg !3684
  %1966 = sext i32 %1965 to i64, !dbg !3685
  %1967 = getelementptr inbounds [1 x %struct.sse_f], ptr %1964, i64 0, i64 %1966, !dbg !3685
  call void @llvm.memcpy.p0.p0.i64(ptr align 4 %1967, ptr align 4 %351, i64 16, i1 false), !dbg !3686
  %1968 = load i32, ptr %350, align 4, !dbg !3687
  %1969 = add nsw i32 %1968, 1, !dbg !3687
  store i32 %1969, ptr %350, align 4, !dbg !3687
  br label %1891, !dbg !3688, !llvm.loop !3689

1970:                                             ; preds = %1891
  %1971 = getelementptr inbounds %"class.RTTL::RTBox_t", ptr %1887, i32 0, i32 1, !dbg !3691
  %1972 = load ptr, ptr %567, align 8, !dbg !3692
  %1973 = getelementptr inbounds %"class.RTTL::RTBox_t", ptr %1972, i32 0, i32 1, !dbg !3693
  store ptr %1971, ptr %292, align 8
  call void @llvm.dbg.declare(metadata ptr %292, metadata !2069, metadata !DIExpression()), !dbg !3694
  store ptr %1973, ptr %293, align 8
  call void @llvm.dbg.declare(metadata ptr %293, metadata !2073, metadata !DIExpression()), !dbg !3696
  %1974 = load ptr, ptr %292, align 8
  call void @llvm.dbg.declare(metadata ptr %294, metadata !2075, metadata !DIExpression()), !dbg !3697
  %1975 = call noundef nonnull align 4 dereferenceable(16) ptr @_ZN4RTTL7RTVec_tILi1E5sse_fLi0EEcvRNS_8RTData_tILi1ES1_Li0EEEEv(ptr noundef nonnull align 4 dereferenceable(16) %1974), !dbg !3698
  store ptr %1975, ptr %294, align 8, !dbg !3697
  call void @llvm.dbg.declare(metadata ptr %295, metadata !2078, metadata !DIExpression()), !dbg !3699
  store i32 0, ptr %295, align 4, !dbg !3699
  br label %1976, !dbg !3700

1976:                                             ; preds = %2038, %1970
  %1977 = load i32, ptr %295, align 4, !dbg !3701
  %1978 = icmp slt i32 %1977, 1, !dbg !3702
  br i1 %1978, label %1979, label %2055, !dbg !3703

1979:                                             ; preds = %1976
  %1980 = load ptr, ptr %294, align 8, !dbg !3704
  %1981 = load i32, ptr %295, align 4, !dbg !3705
  store ptr %1980, ptr %288, align 8
  call void @llvm.dbg.declare(metadata ptr %288, metadata !2006, metadata !DIExpression()), !dbg !3706
  store i32 %1981, ptr %289, align 4
  call void @llvm.dbg.declare(metadata ptr %289, metadata !2011, metadata !DIExpression()), !dbg !3708
  %1982 = load ptr, ptr %288, align 8
  %1983 = load i32, ptr %289, align 4, !dbg !3709
  %1984 = sext i32 %1983 to i64, !dbg !3710
  %1985 = getelementptr inbounds [1 x %struct.sse_f], ptr %1982, i64 0, i64 %1984, !dbg !3710
  call void @llvm.memcpy.p0.p0.i64(ptr align 4 %297, ptr align 4 %1985, i64 16, i1 false), !dbg !3704
  %1986 = load ptr, ptr %293, align 8, !dbg !3711
  %1987 = load i32, ptr %295, align 4, !dbg !3712
  %1988 = call { <2 x float>, <2 x float> } @_ZNK4RTTL7RTVec_tILi1E5sse_fLi0EEixEi(ptr noundef nonnull align 4 dereferenceable(16) %1986, i32 noundef %1987), !dbg !3711
  %1989 = extractvalue { <2 x float>, <2 x float> } %1988, 0, !dbg !3711
  store <2 x float> %1989, ptr %298, align 4, !dbg !3711
  %1990 = getelementptr inbounds { <2 x float>, <2 x float> }, ptr %298, i32 0, i32 1, !dbg !3711
  %1991 = extractvalue { <2 x float>, <2 x float> } %1988, 1, !dbg !3711
  store <2 x float> %1991, ptr %1990, align 4, !dbg !3711
  %1992 = load <2 x float>, ptr %297, align 4, !dbg !3713
  %1993 = getelementptr inbounds { <2 x float>, <2 x float> }, ptr %297, i32 0, i32 1, !dbg !3713
  %1994 = load <2 x float>, ptr %1993, align 4, !dbg !3713
  %1995 = load <2 x float>, ptr %298, align 4, !dbg !3713
  %1996 = getelementptr inbounds { <2 x float>, <2 x float> }, ptr %298, i32 0, i32 1, !dbg !3713
  %1997 = load <2 x float>, ptr %1996, align 4, !dbg !3713
  store <2 x float> %1992, ptr %191, align 4
  %1998 = getelementptr inbounds { <2 x float>, <2 x float> }, ptr %191, i32 0, i32 1
  store <2 x float> %1994, ptr %1998, align 4
  store <2 x float> %1995, ptr %192, align 4
  %1999 = getelementptr inbounds { <2 x float>, <2 x float> }, ptr %192, i32 0, i32 1
  store <2 x float> %1997, ptr %1999, align 4
  call void @llvm.dbg.declare(metadata ptr %191, metadata !2096, metadata !DIExpression()), !dbg !3714
  call void @llvm.dbg.declare(metadata ptr %192, metadata !2100, metadata !DIExpression()), !dbg !3716
  call void @llvm.memcpy.p0.p0.i64(ptr align 4 %193, ptr align 4 %191, i64 16, i1 false), !dbg !3717
  call void @llvm.memcpy.p0.p0.i64(ptr align 4 %194, ptr align 4 %192, i64 16, i1 false), !dbg !3718
  %2000 = load <2 x float>, ptr %193, align 4, !dbg !3719
  %2001 = getelementptr inbounds { <2 x float>, <2 x float> }, ptr %193, i32 0, i32 1, !dbg !3719
  %2002 = load <2 x float>, ptr %2001, align 4, !dbg !3719
  %2003 = load <2 x float>, ptr %194, align 4, !dbg !3719
  %2004 = getelementptr inbounds { <2 x float>, <2 x float> }, ptr %194, i32 0, i32 1, !dbg !3719
  %2005 = load <2 x float>, ptr %2004, align 4, !dbg !3719
  store <2 x float> %2000, ptr %178, align 4
  %2006 = getelementptr inbounds { <2 x float>, <2 x float> }, ptr %178, i32 0, i32 1
  store <2 x float> %2002, ptr %2006, align 4
  store <2 x float> %2003, ptr %179, align 4
  %2007 = getelementptr inbounds { <2 x float>, <2 x float> }, ptr %179, i32 0, i32 1
  store <2 x float> %2005, ptr %2007, align 4
  call void @llvm.dbg.declare(metadata ptr %178, metadata !2105, metadata !DIExpression()), !dbg !3720
  call void @llvm.dbg.declare(metadata ptr %179, metadata !2109, metadata !DIExpression()), !dbg !3722
  call void @llvm.dbg.declare(metadata ptr %177, metadata !2111, metadata !DIExpression()), !dbg !3723
  call void @_ZN5sse_fC2Ev(ptr noundef nonnull align 4 dereferenceable(16) %177), !dbg !3723
  call void @llvm.dbg.declare(metadata ptr %180, metadata !2113, metadata !DIExpression()), !dbg !3724
  store i32 0, ptr %180, align 4, !dbg !3724
  br label %2008, !dbg !3725

2008:                                             ; preds = %2031, %1979
  %2009 = load i32, ptr %180, align 4, !dbg !3726
  %2010 = icmp slt i32 %2009, 4, !dbg !3727
  br i1 %2010, label %2011, label %2038, !dbg !3728

2011:                                             ; preds = %2008
  %2012 = load i32, ptr %180, align 4, !dbg !3729
  %2013 = sext i32 %2012 to i64, !dbg !3729
  %2014 = getelementptr inbounds [4 x float], ptr %178, i64 0, i64 %2013, !dbg !3729
  %2015 = load float, ptr %2014, align 4, !dbg !3729
  %2016 = load i32, ptr %180, align 4, !dbg !3729
  %2017 = sext i32 %2016 to i64, !dbg !3729
  %2018 = getelementptr inbounds [4 x float], ptr %179, i64 0, i64 %2017, !dbg !3729
  %2019 = load float, ptr %2018, align 4, !dbg !3729
  %2020 = fcmp ogt float %2015, %2019, !dbg !3729
  br i1 %2020, label %2021, label %2026, !dbg !3729

2021:                                             ; preds = %2011
  %2022 = load i32, ptr %180, align 4, !dbg !3729
  %2023 = sext i32 %2022 to i64, !dbg !3729
  %2024 = getelementptr inbounds [4 x float], ptr %178, i64 0, i64 %2023, !dbg !3729
  %2025 = load float, ptr %2024, align 4, !dbg !3729
  br label %2031, !dbg !3729

2026:                                             ; preds = %2011
  %2027 = load i32, ptr %180, align 4, !dbg !3729
  %2028 = sext i32 %2027 to i64, !dbg !3729
  %2029 = getelementptr inbounds [4 x float], ptr %179, i64 0, i64 %2028, !dbg !3729
  %2030 = load float, ptr %2029, align 4, !dbg !3729
  br label %2031, !dbg !3729

2031:                                             ; preds = %2026, %2021
  %2032 = phi float [ %2025, %2021 ], [ %2030, %2026 ], !dbg !3729
  %2033 = load i32, ptr %180, align 4, !dbg !3730
  %2034 = sext i32 %2033 to i64, !dbg !3730
  %2035 = getelementptr inbounds [4 x float], ptr %177, i64 0, i64 %2034, !dbg !3730
  store float %2032, ptr %2035, align 4, !dbg !3731
  %2036 = load i32, ptr %180, align 4, !dbg !3732
  %2037 = add nsw i32 %2036, 1, !dbg !3732
  store i32 %2037, ptr %180, align 4, !dbg !3732
  br label %2008, !dbg !3733, !llvm.loop !3734

2038:                                             ; preds = %2008
  %2039 = load { <2 x float>, <2 x float> }, ptr %177, align 4, !dbg !3736
  %2040 = extractvalue { <2 x float>, <2 x float> } %2039, 0, !dbg !3719
  store <2 x float> %2040, ptr %190, align 4, !dbg !3719
  %2041 = getelementptr inbounds { <2 x float>, <2 x float> }, ptr %190, i32 0, i32 1, !dbg !3719
  %2042 = extractvalue { <2 x float>, <2 x float> } %2039, 1, !dbg !3719
  store <2 x float> %2042, ptr %2041, align 4, !dbg !3719
  %2043 = load { <2 x float>, <2 x float> }, ptr %190, align 4, !dbg !3737
  %2044 = extractvalue { <2 x float>, <2 x float> } %2043, 0, !dbg !3713
  store <2 x float> %2044, ptr %296, align 4, !dbg !3713
  %2045 = getelementptr inbounds { <2 x float>, <2 x float> }, ptr %296, i32 0, i32 1, !dbg !3713
  %2046 = extractvalue { <2 x float>, <2 x float> } %2043, 1, !dbg !3713
  store <2 x float> %2046, ptr %2045, align 4, !dbg !3713
  %2047 = load ptr, ptr %294, align 8, !dbg !3738
  %2048 = load i32, ptr %295, align 4, !dbg !3739
  store ptr %2047, ptr %290, align 8
  call void @llvm.dbg.declare(metadata ptr %290, metadata !2006, metadata !DIExpression()), !dbg !3740
  store i32 %2048, ptr %291, align 4
  call void @llvm.dbg.declare(metadata ptr %291, metadata !2011, metadata !DIExpression()), !dbg !3742
  %2049 = load ptr, ptr %290, align 8
  %2050 = load i32, ptr %291, align 4, !dbg !3743
  %2051 = sext i32 %2050 to i64, !dbg !3744
  %2052 = getelementptr inbounds [1 x %struct.sse_f], ptr %2049, i64 0, i64 %2051, !dbg !3744
  call void @llvm.memcpy.p0.p0.i64(ptr align 4 %2052, ptr align 4 %296, i64 16, i1 false), !dbg !3745
  %2053 = load i32, ptr %295, align 4, !dbg !3746
  %2054 = add nsw i32 %2053, 1, !dbg !3746
  store i32 %2054, ptr %295, align 4, !dbg !3746
  br label %1976, !dbg !3747, !llvm.loop !3748

2055:                                             ; preds = %1976
  %2056 = load i32, ptr %582, align 4, !dbg !3750
  %2057 = sext i32 %2056 to i64, !dbg !3751
  %2058 = getelementptr inbounds [32 x %"class.RTTL::AABB"], ptr getelementptr inbounds ([3 x [32 x %"class.RTTL::AABB"]], ptr @_ZN4RTTL15OnDemandBuilder9binBoundsE, i64 0, i64 2), i64 0, i64 %2057, !dbg !3751
  store ptr %2058, ptr %568, align 8
  call void @llvm.dbg.declare(metadata ptr %568, metadata !1978, metadata !DIExpression()), !dbg !3752
  store ptr %583, ptr %569, align 8
  call void @llvm.dbg.declare(metadata ptr %569, metadata !1983, metadata !DIExpression()), !dbg !3754
  %2059 = load ptr, ptr %568, align 8
  %2060 = load ptr, ptr %569, align 8, !dbg !3755
  store ptr %2059, ptr %358, align 8
  call void @llvm.dbg.declare(metadata ptr %358, metadata !1986, metadata !DIExpression()), !dbg !3756
  store ptr %2060, ptr %359, align 8
  call void @llvm.dbg.declare(metadata ptr %359, metadata !1991, metadata !DIExpression()), !dbg !3758
  %2061 = load ptr, ptr %358, align 8
  call void @llvm.dbg.declare(metadata ptr %360, metadata !1993, metadata !DIExpression()), !dbg !3759
  %2062 = call noundef nonnull align 4 dereferenceable(16) ptr @_ZN4RTTL7RTVec_tILi1E5sse_fLi0EEcvRNS_8RTData_tILi1ES1_Li0EEEEv(ptr noundef nonnull align 4 dereferenceable(16) %2061), !dbg !3760
  store ptr %2062, ptr %360, align 8, !dbg !3759
  call void @llvm.dbg.declare(metadata ptr %361, metadata !1996, metadata !DIExpression()), !dbg !3761
  store i32 0, ptr %361, align 4, !dbg !3761
  br label %2063, !dbg !3762

2063:                                             ; preds = %2125, %2055
  %2064 = load i32, ptr %361, align 4, !dbg !3763
  %2065 = icmp slt i32 %2064, 1, !dbg !3764
  br i1 %2065, label %2066, label %2142, !dbg !3765

2066:                                             ; preds = %2063
  %2067 = load ptr, ptr %360, align 8, !dbg !3766
  %2068 = load i32, ptr %361, align 4, !dbg !3767
  store ptr %2067, ptr %354, align 8
  call void @llvm.dbg.declare(metadata ptr %354, metadata !2006, metadata !DIExpression()), !dbg !3768
  store i32 %2068, ptr %355, align 4
  call void @llvm.dbg.declare(metadata ptr %355, metadata !2011, metadata !DIExpression()), !dbg !3770
  %2069 = load ptr, ptr %354, align 8
  %2070 = load i32, ptr %355, align 4, !dbg !3771
  %2071 = sext i32 %2070 to i64, !dbg !3772
  %2072 = getelementptr inbounds [1 x %struct.sse_f], ptr %2069, i64 0, i64 %2071, !dbg !3772
  call void @llvm.memcpy.p0.p0.i64(ptr align 4 %363, ptr align 4 %2072, i64 16, i1 false), !dbg !3766
  %2073 = load ptr, ptr %359, align 8, !dbg !3773
  %2074 = load i32, ptr %361, align 4, !dbg !3774
  %2075 = call { <2 x float>, <2 x float> } @_ZNK4RTTL7RTVec_tILi1E5sse_fLi0EEixEi(ptr noundef nonnull align 4 dereferenceable(16) %2073, i32 noundef %2074), !dbg !3773
  %2076 = extractvalue { <2 x float>, <2 x float> } %2075, 0, !dbg !3773
  store <2 x float> %2076, ptr %364, align 4, !dbg !3773
  %2077 = getelementptr inbounds { <2 x float>, <2 x float> }, ptr %364, i32 0, i32 1, !dbg !3773
  %2078 = extractvalue { <2 x float>, <2 x float> } %2075, 1, !dbg !3773
  store <2 x float> %2078, ptr %2077, align 4, !dbg !3773
  %2079 = load <2 x float>, ptr %363, align 4, !dbg !3775
  %2080 = getelementptr inbounds { <2 x float>, <2 x float> }, ptr %363, i32 0, i32 1, !dbg !3775
  %2081 = load <2 x float>, ptr %2080, align 4, !dbg !3775
  %2082 = load <2 x float>, ptr %364, align 4, !dbg !3775
  %2083 = getelementptr inbounds { <2 x float>, <2 x float> }, ptr %364, i32 0, i32 1, !dbg !3775
  %2084 = load <2 x float>, ptr %2083, align 4, !dbg !3775
  store <2 x float> %2079, ptr %231, align 4
  %2085 = getelementptr inbounds { <2 x float>, <2 x float> }, ptr %231, i32 0, i32 1
  store <2 x float> %2081, ptr %2085, align 4
  store <2 x float> %2082, ptr %232, align 4
  %2086 = getelementptr inbounds { <2 x float>, <2 x float> }, ptr %232, i32 0, i32 1
  store <2 x float> %2084, ptr %2086, align 4
  call void @llvm.dbg.declare(metadata ptr %231, metadata !2018, metadata !DIExpression()), !dbg !3776
  call void @llvm.dbg.declare(metadata ptr %232, metadata !2024, metadata !DIExpression()), !dbg !3778
  call void @llvm.memcpy.p0.p0.i64(ptr align 4 %233, ptr align 4 %231, i64 16, i1 false), !dbg !3779
  call void @llvm.memcpy.p0.p0.i64(ptr align 4 %234, ptr align 4 %232, i64 16, i1 false), !dbg !3780
  %2087 = load <2 x float>, ptr %233, align 4, !dbg !3781
  %2088 = getelementptr inbounds { <2 x float>, <2 x float> }, ptr %233, i32 0, i32 1, !dbg !3781
  %2089 = load <2 x float>, ptr %2088, align 4, !dbg !3781
